; Listing generated by Microsoft (R) Optimizing Compiler Version 14.01.60511.01 

	TTL	C:\WINCE600\PLATFORM\COMMON\SRC\ARM\COMMON\BOOT\BLMEMORY\memory.c
	CODE32

  00000			 AREA	 |.drectve|, DRECTVE
	DCB	"-defaultlib:LIBCMT "
	DCB	"-defaultlib:OLDNAMES "

	EXPORT	|??_C@_1DE@DAHNLBLJ@?$AA?9?$AAO?$AAA?$AAL?$AAP?$AAA?$AAt?$AAo?$AAV?$AAA?$AA?$CI?$AAv?$AAa?$AA?5?$AA?$DN?$AA?5?$AA0?$AAx?$AA?$CF?$AA0?$AA8?$AAx?$AA?$CJ?$AA?$AN?$AA?6?$AA?$AA@| [ DATA ] ; `string'
	EXPORT	|??_C@_1CO@JEIJEAKF@?$AA?$CL?$AAO?$AAA?$AAL?$AAP?$AAA?$AAt?$AAo?$AAV?$AAA?$AA?$CI?$AA0?$AAx?$AA?$CF?$AAx?$AA?0?$AA?5?$AA?$CF?$AAd?$AA?$CJ?$AA?$AN?$AA?6?$AA?$AA@| [ DATA ] ; `string'
	EXPORT	|OALPAtoVA|
	IMPORT	|NKDbgPrintfW|
	IMPORT	|dpCurSettings|
	IMPORT	|g_oalAddressTable|

  00000			 AREA	 |.pdata|, PDATA
|$T39013| DCD	|$LN14@OALPAtoVA|
	DCD	0x40006304
; File c:\wince600\platform\common\src\arm\common\boot\blmemory\memory.c

  00000			 AREA	 |.rdata|, DATA, READONLY
|??_C@_1DE@DAHNLBLJ@?$AA?9?$AAO?$AAA?$AAL?$AAP?$AAA?$AAt?$AAo?$AAV?$AAA?$AA?$CI?$AAv?$AAa?$AA?5?$AA?$DN?$AA?5?$AA0?$AAx?$AA?$CF?$AA0?$AA8?$AAx?$AA?$CJ?$AA?$AN?$AA?6?$AA?$AA@| DCB "-"
	DCB	0x0, "O", 0x0, "A", 0x0, "L", 0x0, "P", 0x0, "A", 0x0, "t"
	DCB	0x0, "o", 0x0, "V", 0x0, "A", 0x0, "(", 0x0, "v", 0x0, "a"
	DCB	0x0, " ", 0x0, "=", 0x0, " ", 0x0, "0", 0x0, "x", 0x0, "%"
	DCB	0x0, "0", 0x0, "8", 0x0, "x", 0x0, ")", 0x0, 0xd, 0x0, 0xa
	DCB	0x0, 0x0, 0x0				; `string'

  00000			 AREA	 |.rdata|, DATA, READONLY
|??_C@_1CO@JEIJEAKF@?$AA?$CL?$AAO?$AAA?$AAL?$AAP?$AAA?$AAt?$AAo?$AAV?$AAA?$AA?$CI?$AA0?$AAx?$AA?$CF?$AAx?$AA?0?$AA?5?$AA?$CF?$AAd?$AA?$CJ?$AA?$AN?$AA?6?$AA?$AA@| DCB "+"
	DCB	0x0, "O", 0x0, "A", 0x0, "L", 0x0, "P", 0x0, "A", 0x0, "t"
	DCB	0x0, "o", 0x0, "V", 0x0, "A", 0x0, "(", 0x0, "0", 0x0, "x"
	DCB	0x0, "%", 0x0, "x", 0x0, ",", 0x0, " ", 0x0, "%", 0x0, "d"
	DCB	0x0, ")", 0x0, 0xd, 0x0, 0xa, 0x0, 0x0, 0x0 ; `string'
; Function compile flags: /Odtp

  00000			 AREA	 |.text|, CODE, ARM

  00000		 |OALPAtoVA| PROC

; 31   : {

  00000		 |$LN14@OALPAtoVA|
  00000	e1a0c00d	 mov         r12, sp
  00004	e92d0003	 stmdb       sp!, {r0, r1}
  00008	e92d5000	 stmdb       sp!, {r12, lr}
  0000c	e24dd014	 sub         sp, sp, #0x14
  00010		 |$M39010|

; 32   :     OAL_ADDRESS_TABLE *pTable = g_oalAddressTable;

  00010	e59f3170	 ldr         r3, [pc, #0x170]
  00014	e58d3004	 str         r3, [sp, #4]

; 33   :     VOID *va = NULL;

  00018	e3a03000	 mov         r3, #0
  0001c	e58d3000	 str         r3, [sp]

; 34   : 
; 35   :     OALMSG(OAL_MEMORY&&OAL_FUNC, (L"+OALPAtoVA(0x%x, %d)\r\n", pa, cached));

  00020	e59f3158	 ldr         r3, [pc, #0x158]
  00024	e5933440	 ldr         r3, [r3, #0x440]
  00028	e3130c02	 tst         r3, #2, 24
  0002c	0a00000a	 beq         |$LN8@OALPAtoVA|
  00030	e59f3148	 ldr         r3, [pc, #0x148]
  00034	e5933440	 ldr         r3, [r3, #0x440]
  00038	e3130004	 tst         r3, #4
  0003c	0a000006	 beq         |$LN8@OALPAtoVA|
  00040	e59d2020	 ldr         r2, [sp, #0x20]
  00044	e59d101c	 ldr         r1, [sp, #0x1C]
  00048	e59f0134	 ldr         r0, [pc, #0x134]
  0004c	eb000000	 bl          NKDbgPrintfW
  00050	e3a03001	 mov         r3, #1
  00054	e58d300c	 str         r3, [sp, #0xC]
  00058	ea000001	 b           |$LN9@OALPAtoVA|
  0005c		 |$LN8@OALPAtoVA|
  0005c	e3a03000	 mov         r3, #0
  00060	e58d300c	 str         r3, [sp, #0xC]
  00064		 |$LN9@OALPAtoVA|
  00064		 |$LN5@OALPAtoVA|

; 36   : 
; 37   :     // Search the table for address range
; 38   :     while (pTable->size != 0) {

  00064	e59d3004	 ldr         r3, [sp, #4]
  00068	e2833008	 add         r3, r3, #8
  0006c	e5933000	 ldr         r3, [r3]
  00070	e3530000	 cmp         r3, #0
  00074	0a000016	 beq         |$LN4@OALPAtoVA|

; 39   :         if (
; 40   :             pa >= pTable->PA && 
; 41   :             pa <= (pTable->PA + (pTable->size << 20) - 1)
; 42   :         ) break;                      // match found 

  00078	e59d3004	 ldr         r3, [sp, #4]
  0007c	e2833004	 add         r3, r3, #4
  00080	e59d201c	 ldr         r2, [sp, #0x1C]
  00084	e5933000	 ldr         r3, [r3]
  00088	e1520003	 cmp         r2, r3
  0008c	3a00000c	 bcc         |$LN3@OALPAtoVA|
  00090	e59d3004	 ldr         r3, [sp, #4]
  00094	e2831004	 add         r1, r3, #4
  00098	e59d3004	 ldr         r3, [sp, #4]
  0009c	e2833008	 add         r3, r3, #8
  000a0	e5933000	 ldr         r3, [r3]
  000a4	e1a02a03	 mov         r2, r3, lsl #20
  000a8	e5913000	 ldr         r3, [r1]
  000ac	e0833002	 add         r3, r3, r2
  000b0	e2432001	 sub         r2, r3, #1
  000b4	e59d301c	 ldr         r3, [sp, #0x1C]
  000b8	e1530002	 cmp         r3, r2
  000bc	8a000000	 bhi         |$LN3@OALPAtoVA|
  000c0	ea000003	 b           |$LN4@OALPAtoVA|
  000c4		 |$LN3@OALPAtoVA|

; 43   :         pTable++;

  000c4	e59d3004	 ldr         r3, [sp, #4]
  000c8	e283300c	 add         r3, r3, #0xC
  000cc	e58d3004	 str         r3, [sp, #4]

; 44   :     }

  000d0	eaffffe3	 b           |$LN5@OALPAtoVA|
  000d4		 |$LN4@OALPAtoVA|

; 45   : 
; 46   :     // If address table entry is valid compute the VA
; 47   :     if (pTable->size != 0) {

  000d4	e59d3004	 ldr         r3, [sp, #4]
  000d8	e2833008	 add         r3, r3, #8
  000dc	e5933000	 ldr         r3, [r3]
  000e0	e3530000	 cmp         r3, #0
  000e4	0a00000e	 beq         |$LN2@OALPAtoVA|

; 48   :         va = (VOID *)(pTable->CA + (pa - pTable->PA));

  000e8	e59d3004	 ldr         r3, [sp, #4]
  000ec	e2833004	 add         r3, r3, #4
  000f0	e59d201c	 ldr         r2, [sp, #0x1C]
  000f4	e5933000	 ldr         r3, [r3]
  000f8	e0422003	 sub         r2, r2, r3
  000fc	e59d3004	 ldr         r3, [sp, #4]
  00100	e5933000	 ldr         r3, [r3]
  00104	e0833002	 add         r3, r3, r2
  00108	e58d3000	 str         r3, [sp]

; 49   :         // If VA is uncached, set the uncached bit
; 50   :         if (!cached) (UINT32)va |= OAL_MEMORY_CACHE_BIT;

  0010c	e59d3020	 ldr         r3, [sp, #0x20]
  00110	e3530000	 cmp         r3, #0
  00114	1a000002	 bne         |$LN1@OALPAtoVA|
  00118	e59d3000	 ldr         r3, [sp]
  0011c	e3833202	 orr         r3, r3, #2, 4
  00120	e58d3000	 str         r3, [sp]
  00124		 |$LN1@OALPAtoVA|
  00124		 |$LN2@OALPAtoVA|

; 51   :     }
; 52   : 
; 53   :     // Indicate the virtual address
; 54   :     OALMSG(OAL_MEMORY&&OAL_FUNC, (L"-OALPAtoVA(va = 0x%08x)\r\n", va));

  00124	e59f3054	 ldr         r3, [pc, #0x54]
  00128	e5933440	 ldr         r3, [r3, #0x440]
  0012c	e3130c02	 tst         r3, #2, 24
  00130	0a000009	 beq         |$LN10@OALPAtoVA|
  00134	e59f3044	 ldr         r3, [pc, #0x44]
  00138	e5933440	 ldr         r3, [r3, #0x440]
  0013c	e3130004	 tst         r3, #4
  00140	0a000005	 beq         |$LN10@OALPAtoVA|
  00144	e59d1000	 ldr         r1, [sp]
  00148	e59f002c	 ldr         r0, [pc, #0x2C]
  0014c	eb000000	 bl          NKDbgPrintfW
  00150	e3a03001	 mov         r3, #1
  00154	e58d3010	 str         r3, [sp, #0x10]
  00158	ea000001	 b           |$LN11@OALPAtoVA|
  0015c		 |$LN10@OALPAtoVA|
  0015c	e3a03000	 mov         r3, #0
  00160	e58d3010	 str         r3, [sp, #0x10]
  00164		 |$LN11@OALPAtoVA|

; 55   :     return va;

  00164	e59d3000	 ldr         r3, [sp]
  00168	e58d3008	 str         r3, [sp, #8]

; 56   : }

  0016c	e59d0008	 ldr         r0, [sp, #8]
  00170	e28dd014	 add         sp, sp, #0x14
  00174	e89d6000	 ldmia       sp, {sp, lr}
  00178	e12fff1e	 bx          lr
  0017c		 |$LN15@OALPAtoVA|
  0017c		 |$LN16@OALPAtoVA|
  0017c	00000000	 DCD         |??_C@_1DE@DAHNLBLJ@?$AA?9?$AAO?$AAA?$AAL?$AAP?$AAA?$AAt?$AAo?$AAV?$AAA?$AA?$CI?$AAv?$AAa?$AA?5?$AA?$DN?$AA?5?$AA0?$AAx?$AA?$CF?$AA0?$AA8?$AAx?$AA?$CJ?$AA?$AN?$AA?6?$AA?$AA@|
  00180		 |$LN17@OALPAtoVA|
  00180	00000000	 DCD         |dpCurSettings|
  00184		 |$LN18@OALPAtoVA|
  00184	00000000	 DCD         |??_C@_1CO@JEIJEAKF@?$AA?$CL?$AAO?$AAA?$AAL?$AAP?$AAA?$AAt?$AAo?$AAV?$AAA?$AA?$CI?$AA0?$AAx?$AA?$CF?$AAx?$AA?0?$AA?5?$AA?$CF?$AAd?$AA?$CJ?$AA?$AN?$AA?6?$AA?$AA@|
  00188		 |$LN19@OALPAtoVA|
  00188	00000000	 DCD         |g_oalAddressTable|
  0018c		 |$M39011|

			 ENDP  ; |OALPAtoVA|

	EXPORT	|??_C@_1DA@BBOHBBNH@?$AA?9?$AAO?$AAA?$AAL?$AAV?$AAA?$AAt?$AAo?$AAP?$AAA?$AA?$CI?$AAp?$AAa?$AA?5?$AA?$DN?$AA?5?$AA0?$AAx?$AA?$CF?$AAx?$AA?$CJ?$AA?$AN?$AA?6?$AA?$AA@| [ DATA ] ; `string'
	EXPORT	|??_C@_1GE@IPLNFFII@?$AAE?$AAR?$AAR?$AAO?$AAR?$AA?3?$AAO?$AAA?$AAL?$AAV?$AAA?$AAt?$AAo?$AAP?$AAA?$AA?3?$AA?5?$AAi?$AAn?$AAv?$AAa?$AAl?$AAi?$AAd?$AA?5?$AAv?$AAi?$AAr?$AAt?$AAu?$AAa?$AAl@| [ DATA ] ; `string'
	EXPORT	|??_C@_1CK@LKNIEAFP@?$AA?$CL?$AAO?$AAA?$AAL?$AAV?$AAA?$AAt?$AAo?$AAP?$AAA?$AA?$CI?$AA0?$AAx?$AA?$CF?$AA0?$AA8?$AAx?$AA?$CJ?$AA?$AN?$AA?6?$AA?$AA@| [ DATA ] ; `string'
	EXPORT	|OALVAtoPA|

  00008			 AREA	 |.pdata|, PDATA
|$T39030| DCD	|$LN17@OALVAtoPA|
	DCD	0x40007404

  00000			 AREA	 |.rdata|, DATA, READONLY
|??_C@_1DA@BBOHBBNH@?$AA?9?$AAO?$AAA?$AAL?$AAV?$AAA?$AAt?$AAo?$AAP?$AAA?$AA?$CI?$AAp?$AAa?$AA?5?$AA?$DN?$AA?5?$AA0?$AAx?$AA?$CF?$AAx?$AA?$CJ?$AA?$AN?$AA?6?$AA?$AA@| DCB "-"
	DCB	0x0, "O", 0x0, "A", 0x0, "L", 0x0, "V", 0x0, "A", 0x0, "t"
	DCB	0x0, "o", 0x0, "P", 0x0, "A", 0x0, "(", 0x0, "p", 0x0, "a"
	DCB	0x0, " ", 0x0, "=", 0x0, " ", 0x0, "0", 0x0, "x", 0x0, "%"
	DCB	0x0, "x", 0x0, ")", 0x0, 0xd, 0x0, 0xa, 0x0, 0x0, 0x0 ; `string'

  00000			 AREA	 |.rdata|, DATA, READONLY
|??_C@_1GE@IPLNFFII@?$AAE?$AAR?$AAR?$AAO?$AAR?$AA?3?$AAO?$AAA?$AAL?$AAV?$AAA?$AAt?$AAo?$AAP?$AAA?$AA?3?$AA?5?$AAi?$AAn?$AAv?$AAa?$AAl?$AAi?$AAd?$AA?5?$AAv?$AAi?$AAr?$AAt?$AAu?$AAa?$AAl@| DCB "E"
	DCB	0x0, "R", 0x0, "R", 0x0, "O", 0x0, "R", 0x0, ":", 0x0, "O"
	DCB	0x0, "A", 0x0, "L", 0x0, "V", 0x0, "A", 0x0, "t", 0x0, "o"
	DCB	0x0, "P", 0x0, "A", 0x0, ":", 0x0, " ", 0x0, "i", 0x0, "n"
	DCB	0x0, "v", 0x0, "a", 0x0, "l", 0x0, "i", 0x0, "d", 0x0, " "
	DCB	0x0, "v", 0x0, "i", 0x0, "r", 0x0, "t", 0x0, "u", 0x0, "a"
	DCB	0x0, "l", 0x0, " ", 0x0, "a", 0x0, "d", 0x0, "d", 0x0, "r"
	DCB	0x0, "e", 0x0, "s", 0x0, "s", 0x0, " ", 0x0, "0", 0x0, "x"
	DCB	0x0, "%", 0x0, "0", 0x0, "8", 0x0, "x", 0x0, 0xd, 0x0, 0xa
	DCB	0x0, 0x0, 0x0				; `string'

  00000			 AREA	 |.rdata|, DATA, READONLY
|??_C@_1CK@LKNIEAFP@?$AA?$CL?$AAO?$AAA?$AAL?$AAV?$AAA?$AAt?$AAo?$AAP?$AAA?$AA?$CI?$AA0?$AAx?$AA?$CF?$AA0?$AA8?$AAx?$AA?$CJ?$AA?$AN?$AA?6?$AA?$AA@| DCB "+"
	DCB	0x0, "O", 0x0, "A", 0x0, "L", 0x0, "V", 0x0, "A", 0x0, "t"
	DCB	0x0, "o", 0x0, "P", 0x0, "A", 0x0, "(", 0x0, "0", 0x0, "x"
	DCB	0x0, "%", 0x0, "0", 0x0, "8", 0x0, "x", 0x0, ")", 0x0, 0xd
	DCB	0x0, 0xa, 0x0, 0x0, 0x0			; `string'
; Function compile flags: /Odtp

  0018c			 AREA	 |.text|, CODE, ARM

  0018c		 |OALVAtoPA| PROC

; 66   : {

  0018c		 |$LN17@OALVAtoPA|
  0018c	e1a0c00d	 mov         r12, sp
  00190	e92d0001	 stmdb       sp!, {r0}
  00194	e92d5000	 stmdb       sp!, {r12, lr}
  00198	e24dd01c	 sub         sp, sp, #0x1C
  0019c		 |$M39027|

; 67   :     OAL_ADDRESS_TABLE *pTable = g_oalAddressTable;

  0019c	e59f31b4	 ldr         r3, [pc, #0x1B4]
  001a0	e58d3008	 str         r3, [sp, #8]

; 68   :     UINT32 va = (UINT32)pVA;

  001a4	e59d3024	 ldr         r3, [sp, #0x24]
  001a8	e58d3000	 str         r3, [sp]

; 69   :     UINT32 pa = 0;

  001ac	e3a03000	 mov         r3, #0
  001b0	e58d3004	 str         r3, [sp, #4]

; 70   : 
; 71   :     OALMSG(OAL_MEMORY&&OAL_FUNC, (L"+OALVAtoPA(0x%08x)\r\n", pVA));

  001b4	e59f3190	 ldr         r3, [pc, #0x190]
  001b8	e5933440	 ldr         r3, [r3, #0x440]
  001bc	e3130c02	 tst         r3, #2, 24
  001c0	0a000009	 beq         |$LN9@OALVAtoPA|
  001c4	e59f3180	 ldr         r3, [pc, #0x180]
  001c8	e5933440	 ldr         r3, [r3, #0x440]
  001cc	e3130004	 tst         r3, #4
  001d0	0a000005	 beq         |$LN9@OALVAtoPA|
  001d4	e59d1024	 ldr         r1, [sp, #0x24]
  001d8	e59f0174	 ldr         r0, [pc, #0x174]
  001dc	eb000000	 bl          NKDbgPrintfW
  001e0	e3a03001	 mov         r3, #1
  001e4	e58d3010	 str         r3, [sp, #0x10]
  001e8	ea000001	 b           |$LN10@OALVAtoPA|
  001ec		 |$LN9@OALVAtoPA|
  001ec	e3a03000	 mov         r3, #0
  001f0	e58d3010	 str         r3, [sp, #0x10]
  001f4		 |$LN10@OALVAtoPA|

; 72   : 
; 73   :     // Virtual address must be in CACHED or UNCACHED regions.
; 74   :     if (va < 0x80000000 || va >= 0xC0000000) {

  001f4	e59d3000	 ldr         r3, [sp]
  001f8	e3530102	 cmp         r3, #2, 2
  001fc	3a000002	 bcc         |$LN5@OALVAtoPA|
  00200	e59d3000	 ldr         r3, [sp]
  00204	e3530103	 cmp         r3, #3, 2
  00208	3a00000c	 bcc         |$LN6@OALVAtoPA|
  0020c		 |$LN5@OALVAtoPA|

; 75   :         OALMSG(OAL_ERROR, (
; 76   :             L"ERROR:OALVAtoPA: invalid virtual address 0x%08x\r\n", pVA
; 77   :         ));

  0020c	e59f3138	 ldr         r3, [pc, #0x138]
  00210	e5933440	 ldr         r3, [r3, #0x440]
  00214	e3130001	 tst         r3, #1
  00218	0a000005	 beq         |$LN11@OALVAtoPA|
  0021c	e59d1024	 ldr         r1, [sp, #0x24]
  00220	e59f0128	 ldr         r0, [pc, #0x128]
  00224	eb000000	 bl          NKDbgPrintfW
  00228	e3a03001	 mov         r3, #1
  0022c	e58d3014	 str         r3, [sp, #0x14]
  00230	ea000001	 b           |$LN12@OALVAtoPA|
  00234		 |$LN11@OALVAtoPA|
  00234	e3a03000	 mov         r3, #0
  00238	e58d3014	 str         r3, [sp, #0x14]
  0023c		 |$LN12@OALVAtoPA|

; 78   :         goto cleanUp;

  0023c	ea00002b	 b           |$cleanUp$38986|
  00240		 |$LN6@OALVAtoPA|

; 79   :     }
; 80   : 
; 81   :     // Address must be cached, as entries in OEMAddressTable are cached address.
; 82   :     va = va&~OAL_MEMORY_CACHE_BIT;

  00240	e59d2000	 ldr         r2, [sp]
  00244	e3e03202	 mvn         r3, #2, 4
  00248	e0023003	 and         r3, r2, r3
  0024c	e58d3000	 str         r3, [sp]
  00250		 |$LN4@OALVAtoPA|

; 83   : 
; 84   :     // Search the table for address range
; 85   :     while (pTable->size != 0) {

  00250	e59d3008	 ldr         r3, [sp, #8]
  00254	e2833008	 add         r3, r3, #8
  00258	e5933000	 ldr         r3, [r3]
  0025c	e3530000	 cmp         r3, #0
  00260	0a000014	 beq         |$LN3@OALVAtoPA|

; 86   :         if (va >= pTable->CA && va <= pTable->CA + (pTable->size << 20) - 1) {

  00264	e59d2000	 ldr         r2, [sp]
  00268	e59d3008	 ldr         r3, [sp, #8]
  0026c	e5933000	 ldr         r3, [r3]
  00270	e1520003	 cmp         r2, r3
  00274	3a00000b	 bcc         |$LN2@OALVAtoPA|
  00278	e59d3008	 ldr         r3, [sp, #8]
  0027c	e2833008	 add         r3, r3, #8
  00280	e5933000	 ldr         r3, [r3]
  00284	e1a02a03	 mov         r2, r3, lsl #20
  00288	e59d3008	 ldr         r3, [sp, #8]
  0028c	e5933000	 ldr         r3, [r3]
  00290	e0833002	 add         r3, r3, r2
  00294	e2432001	 sub         r2, r3, #1
  00298	e59d3000	 ldr         r3, [sp]
  0029c	e1530002	 cmp         r3, r2
  002a0	8a000000	 bhi         |$LN2@OALVAtoPA|

; 87   :             break;

  002a4	ea000003	 b           |$LN3@OALVAtoPA|
  002a8		 |$LN2@OALVAtoPA|

; 88   :         }
; 89   :         pTable++;

  002a8	e59d3008	 ldr         r3, [sp, #8]
  002ac	e283300c	 add         r3, r3, #0xC
  002b0	e58d3008	 str         r3, [sp, #8]

; 90   :     }

  002b4	eaffffe5	 b           |$LN4@OALVAtoPA|
  002b8		 |$LN3@OALVAtoPA|

; 91   : 
; 92   :     // If address table entry is valid compute the PA
; 93   :     if (pTable->size != 0) pa = pTable->PA + va - pTable->CA;

  002b8	e59d3008	 ldr         r3, [sp, #8]
  002bc	e2833008	 add         r3, r3, #8
  002c0	e5933000	 ldr         r3, [r3]
  002c4	e3530000	 cmp         r3, #0
  002c8	0a000008	 beq         |$LN1@OALVAtoPA|
  002cc	e59d3008	 ldr         r3, [sp, #8]
  002d0	e2833004	 add         r3, r3, #4
  002d4	e5932000	 ldr         r2, [r3]
  002d8	e59d3000	 ldr         r3, [sp]
  002dc	e0822003	 add         r2, r2, r3
  002e0	e59d3008	 ldr         r3, [sp, #8]
  002e4	e5933000	 ldr         r3, [r3]
  002e8	e0423003	 sub         r3, r2, r3
  002ec	e58d3004	 str         r3, [sp, #4]
  002f0		 |$LN1@OALVAtoPA|
  002f0		 |$cleanUp$38986|

; 94   : 
; 95   : cleanUp:
; 96   :     // Indicate physical address 
; 97   :     OALMSG(OAL_MEMORY&&OAL_FUNC, (L"-OALVAtoPA(pa = 0x%x)\r\n", pa));

  002f0	e59f3054	 ldr         r3, [pc, #0x54]
  002f4	e5933440	 ldr         r3, [r3, #0x440]
  002f8	e3130c02	 tst         r3, #2, 24
  002fc	0a000009	 beq         |$LN13@OALVAtoPA|
  00300	e59f3044	 ldr         r3, [pc, #0x44]
  00304	e5933440	 ldr         r3, [r3, #0x440]
  00308	e3130004	 tst         r3, #4
  0030c	0a000005	 beq         |$LN13@OALVAtoPA|
  00310	e59d1004	 ldr         r1, [sp, #4]
  00314	e59f002c	 ldr         r0, [pc, #0x2C]
  00318	eb000000	 bl          NKDbgPrintfW
  0031c	e3a03001	 mov         r3, #1
  00320	e58d3018	 str         r3, [sp, #0x18]
  00324	ea000001	 b           |$LN14@OALVAtoPA|
  00328		 |$LN13@OALVAtoPA|
  00328	e3a03000	 mov         r3, #0
  0032c	e58d3018	 str         r3, [sp, #0x18]
  00330		 |$LN14@OALVAtoPA|

; 98   :     return pa;

  00330	e59d3004	 ldr         r3, [sp, #4]
  00334	e58d300c	 str         r3, [sp, #0xC]

; 99   : }

  00338	e59d000c	 ldr         r0, [sp, #0xC]
  0033c	e28dd01c	 add         sp, sp, #0x1C
  00340	e89d6000	 ldmia       sp, {sp, lr}
  00344	e12fff1e	 bx          lr
  00348		 |$LN18@OALVAtoPA|
  00348		 |$LN19@OALVAtoPA|
  00348	00000000	 DCD         |??_C@_1DA@BBOHBBNH@?$AA?9?$AAO?$AAA?$AAL?$AAV?$AAA?$AAt?$AAo?$AAP?$AAA?$AA?$CI?$AAp?$AAa?$AA?5?$AA?$DN?$AA?5?$AA0?$AAx?$AA?$CF?$AAx?$AA?$CJ?$AA?$AN?$AA?6?$AA?$AA@|
  0034c		 |$LN20@OALVAtoPA|
  0034c	00000000	 DCD         |dpCurSettings|
  00350		 |$LN21@OALVAtoPA|
  00350	00000000	 DCD         |??_C@_1GE@IPLNFFII@?$AAE?$AAR?$AAR?$AAO?$AAR?$AA?3?$AAO?$AAA?$AAL?$AAV?$AAA?$AAt?$AAo?$AAP?$AAA?$AA?3?$AA?5?$AAi?$AAn?$AAv?$AAa?$AAl?$AAi?$AAd?$AA?5?$AAv?$AAi?$AAr?$AAt?$AAu?$AAa?$AAl@|
  00354		 |$LN22@OALVAtoPA|
  00354	00000000	 DCD         |??_C@_1CK@LKNIEAFP@?$AA?$CL?$AAO?$AAA?$AAL?$AAV?$AAA?$AAt?$AAo?$AAP?$AAA?$AA?$CI?$AA0?$AAx?$AA?$CF?$AA0?$AA8?$AAx?$AA?$CJ?$AA?$AN?$AA?6?$AA?$AA@|
  00358		 |$LN23@OALVAtoPA|
  00358	00000000	 DCD         |g_oalAddressTable|
  0035c		 |$M39028|

			 ENDP  ; |OALVAtoPA|

	END
