; Listing generated by Microsoft (R) Optimizing Compiler Version 14.01.60511.01 

	TTL	C:\WINCE600\PLATFORM\COMMON\SRC\SOC\COMMON_TI_V1\COMMON_TI\BUS\MDD\defaultbuschildcontainer.cpp
	CODE32

  00000			 AREA	 |.drectve|, DRECTVE
	DCB	"/include:?_factory@?$$singleton@V?$$free_list@$$0GE@Vall"
	DCB	"ocator@ce@@@ce@@$$03V?$$static_allocator@V?$$free_list@$$"
	DCB	"0GE@Vallocator@ce@@@ce@@$$03@2@@ce@@1Ulock_factory@12@A "
	DCB	"-defaultlib:LIBCMT "
	DCB	"-defaultlib:OLDNAMES "

	EXPORT	|?AddRef@RefCount_t@@QAAJXZ|		; RefCount_t::AddRef
	IMPORT	|InterlockedIncrement|
; File c:\wince600\platform\common\src\soc\common_ti_v1\common_ti\bus\inc\driver.hxx

  00000			 AREA	 |.pdata|, PDATA
|$T38778| DCD	|$LN5@AddRef|
	DCD	0x40000501
; Function compile flags: /Ogspy

  00000			 AREA	 |.text|, CODE, ARM

  00000		 |?AddRef@RefCount_t@@QAAJXZ| PROC	; RefCount_t::AddRef

; 54   :         ) { 

  00000		 |$LN5@AddRef|
  00000	e52de004	 str         lr, [sp, #-4]!
  00004		 |$M38775|

; 55   :         return InterlockedIncrement(&m_refCount);

  00004	e2800004	 add         r0, r0, #4
  00008	eb000000	 bl          InterlockedIncrement

; 56   :         };

  0000c	e49de004	 ldr         lr, [sp], #4
  00010	e12fff1e	 bx          lr
  00014		 |$M38776|

			 ENDP  ; |?AddRef@RefCount_t@@QAAJXZ|, RefCount_t::AddRef

	EXPORT	|?Release@RefCount_t@@QAAJXZ|		; RefCount_t::Release
	IMPORT	|InterlockedDecrement|

  00000			 AREA	 |.pdata|, PDATA
|$T38793| DCD	|$LN8@Release|
	DCD	0x40001101
; Function compile flags: /Ogspy

  00000			 AREA	 |.text|, CODE, ARM

  00000		 |?Release@RefCount_t@@QAAJXZ| PROC	; RefCount_t::Release

; 59   :         ) {

  00000		 |$LN8@Release|
  00000	e92d4030	 stmdb       sp!, {r4, r5, lr}
  00004		 |$M38790|
  00004	e1a04000	 mov         r4, r0

; 60   :         LONG count = InterlockedDecrement(&m_refCount);

  00008	e2840004	 add         r0, r4, #4
  0000c	eb000000	 bl          InterlockedDecrement
  00010	e1a05000	 mov         r5, r0

; 61   :         if (count <= 0) delete this;

  00014	e3550000	 cmp         r5, #0
  00018	ca000006	 bgt         |$LN4@Release|
  0001c	e3540000	 cmp         r4, #0
  00020	15943000	 ldrne       r3, [r4]
  00024	13a01001	 movne       r1, #1
  00028	11a00004	 movne       r0, r4
  0002c	15933000	 ldrne       r3, [r3]
  00030	11a0e00f	 movne       lr, pc
  00034	112fff13	 bxne        r3
  00038		 |$LN4@Release|

; 62   :         return count;
; 63   :         };

  00038	e1a00005	 mov         r0, r5
  0003c	e8bd4030	 ldmia       sp!, {r4, r5, lr}
  00040	e12fff1e	 bx          lr
  00044		 |$M38791|

			 ENDP  ; |?Release@RefCount_t@@QAAJXZ|, RefCount_t::Release

	EXPORT	|??2@YAPAXIPAX@Z|			; operator new
; File c:\wince600\public\common\sdk\inc\new

  00000			 AREA	 |.pdata|, PDATA
|$T38803| DCD	|$LN5@operator|
	DCD	0x40000200
; Function compile flags: /Ogspy

  00000			 AREA	 |.text|, CODE, ARM

  00000		 |??2@YAPAXIPAX@Z| PROC			; operator new

; 73   :     {return (_P); }

  00000		 |$LN5@operator|
  00000		 |$M38800|
  00000	e1a00001	 mov         r0, r1
  00004	e12fff1e	 bx          lr
  00008		 |$M38801|

			 ENDP  ; |??2@YAPAXIPAX@Z|, operator new

	EXPORT	|??0critical_section@ce@@QAA@XZ|	; ce::critical_section::critical_section
	IMPORT	|InitializeCriticalSection|
; File c:\wince600\public\common\oak\inc\sync.hxx

  00000			 AREA	 |.pdata|, PDATA
|$T38813| DCD	|$LN5@critical_s|
	DCD	0x40000601
; Function compile flags: /Ogspy

  00000			 AREA	 |.text|, CODE, ARM

  00000		 |??0critical_section@ce@@QAA@XZ| PROC	; ce::critical_section::critical_section

; 125  :     critical_section()

  00000		 |$LN5@critical_s|
  00000	e92d4010	 stmdb       sp!, {r4, lr}
  00004		 |$M38810|
  00004	e1a04000	 mov         r4, r0
  00008	eb000000	 bl          InitializeCriticalSection
  0000c	e1a00004	 mov         r0, r4
  00010	e8bd4010	 ldmia       sp!, {r4, lr}
  00014	e12fff1e	 bx          lr
  00018		 |$M38811|

			 ENDP  ; |??0critical_section@ce@@QAA@XZ|, ce::critical_section::critical_section

	EXPORT	|??1critical_section@ce@@QAA@XZ|	; ce::critical_section::~critical_section
	IMPORT	|DeleteCriticalSection|

  00000			 AREA	 |.pdata|, PDATA
|$T38821| DCD	|$LN5@critical_s@2|
	DCD	0x40000401
; Function compile flags: /Ogspy

  00000			 AREA	 |.text|, CODE, ARM

  00000		 |??1critical_section@ce@@QAA@XZ| PROC	; ce::critical_section::~critical_section

; 129  :         {DeleteCriticalSection(this); }

  00000		 |$LN5@critical_s@2|
  00000	e52de004	 str         lr, [sp, #-4]!
  00004		 |$M38818|
  00004	eb000000	 bl          DeleteCriticalSection
  00008	e49de004	 ldr         lr, [sp], #4
  0000c	e12fff1e	 bx          lr
  00010		 |$M38819|

			 ENDP  ; |??1critical_section@ce@@QAA@XZ|, ce::critical_section::~critical_section

	EXPORT	|?allocate@allocator@ce@@QBAPAXI@Z|	; ce::allocator::allocate
	IMPORT	|??2@YAPAXI@Z|				; operator new
; File c:\wince600\public\common\oak\inc\allocator.hxx

  00000			 AREA	 |.pdata|, PDATA
|$T38831| DCD	|$LN5@allocate|
	DCD	0x40000501
; Function compile flags: /Ogspy

  00000			 AREA	 |.text|, CODE, ARM

  00000		 |?allocate@allocator@ce@@QBAPAXI@Z| PROC ; ce::allocator::allocate

; 106  :         {return operator new(Size); }

  00000		 |$LN5@allocate|
  00000	e52de004	 str         lr, [sp, #-4]!
  00004		 |$M38828|
  00004	e1a00001	 mov         r0, r1
  00008	eb000000	 bl          |??2@YAPAXI@Z|
  0000c	e49de004	 ldr         lr, [sp], #4
  00010	e12fff1e	 bx          lr
  00014		 |$M38829|

			 ENDP  ; |?allocate@allocator@ce@@QBAPAXI@Z|, ce::allocator::allocate

	EXPORT	|?deallocate@allocator@ce@@QBAXPAXI@Z|	; ce::allocator::deallocate
	IMPORT	|??3@YAXPAX@Z|				; operator delete

  00000			 AREA	 |.pdata|, PDATA
|$T38839| DCD	|$LN5@deallocate|
	DCD	0x40000501
; Function compile flags: /Ogspy

  00000			 AREA	 |.text|, CODE, ARM

  00000		 |?deallocate@allocator@ce@@QBAXPAXI@Z| PROC ; ce::allocator::deallocate

; 109  :         {operator delete(Ptr); }

  00000		 |$LN5@deallocate|
  00000	e52de004	 str         lr, [sp, #-4]!
  00004		 |$M38836|
  00004	e1a00001	 mov         r0, r1
  00008	eb000000	 bl          |??3@YAXPAX@Z|
  0000c	e49de004	 ldr         lr, [sp], #4
  00010	e12fff1e	 bx          lr
  00014		 |$M38837|

			 ENDP  ; |?deallocate@allocator@ce@@QBAXPAXI@Z|, ce::allocator::deallocate

	EXPORT	|?RegQueryValue@ce@@YAJPAUHKEY__@@PBGAAKK@Z| ; ce::RegQueryValue
	IMPORT	|RegQueryValueExW|
; File c:\wince600\platform\common\src\soc\common_ti_v1\common_ti\bus\inc\registry.hxx

  00000			 AREA	 |.pdata|, PDATA
|$T38853| DCD	|$LN6@RegQueryVa|
	DCD	0x40001102
; Function compile flags: /Ogspy

  00000			 AREA	 |.text|, CODE, ARM

  00000		 |?RegQueryValue@ce@@YAJPAUHKEY__@@PBGAAKK@Z| PROC ; ce::RegQueryValue

; 31   : {

  00000		 |$LN6@RegQueryVa|
  00000	e92d4030	 stmdb       sp!, {r4, r5, lr}
  00004	e24dd00c	 sub         sp, sp, #0xC
  00008		 |$M38850|
  00008	e1a05003	 mov         r5, r3
  0000c	e1a04002	 mov         r4, r2

; 32   :     LONG code;
; 33   :     DWORD size = sizeof(DWORD);

  00010	e3a03004	 mov         r3, #4

; 34   :     
; 35   :     code = RegQueryValueEx(
; 36   :         hKey, name, NULL, NULL, reinterpret_cast<BYTE*>(&value), &size
; 37   :         );

  00014	e58d3008	 str         r3, [sp, #8]
  00018	e28de008	 add         lr, sp, #8
  0001c	e3a03000	 mov         r3, #0
  00020	e3a02000	 mov         r2, #0
  00024	e58de004	 str         lr, [sp, #4]
  00028	e58d4000	 str         r4, [sp]
  0002c	eb000000	 bl          RegQueryValueExW
  00030	e3500000	 cmp         r0, #0

; 38   :     if (code != ERROR_SUCCESS) value = defaultValue;

  00034	15845000	 strne       r5, [r4]

; 39   :     return code;
; 40   : }

  00038	e28dd00c	 add         sp, sp, #0xC
  0003c	e8bd4030	 ldmia       sp!, {r4, r5, lr}
  00040	e12fff1e	 bx          lr
  00044		 |$M38851|

			 ENDP  ; |?RegQueryValue@ce@@YAJPAUHKEY__@@PBGAAKK@Z|, ce::RegQueryValue

	EXPORT	|?RegQueryInfoKeySubKeys@ce@@YAJPAUHKEY__@@AAK@Z| ; ce::RegQueryInfoKeySubKeys
	IMPORT	|RegQueryInfoKeyW|

  00000			 AREA	 |.pdata|, PDATA
|$T38864| DCD	|$LN5@RegQueryIn|
	DCD	0x40001302
; Function compile flags: /Ogspy

  00000			 AREA	 |.text|, CODE, ARM

  00000		 |?RegQueryInfoKeySubKeys@ce@@YAJPAUHKEY__@@AAK@Z| PROC ; ce::RegQueryInfoKeySubKeys

; 85   : {

  00000		 |$LN5@RegQueryIn|
  00000	e92d4010	 stmdb       sp!, {r4, lr}
  00004	e24dd020	 sub         sp, sp, #0x20
  00008		 |$M38861|
  00008	e1a0e001	 mov         lr, r1

; 86   :     return RegQueryInfoKey(
; 87   :         hKey, NULL, NULL, NULL, &count, NULL, NULL, NULL, NULL, NULL, NULL, NULL
; 88   :         );

  0000c	e3a04000	 mov         r4, #0
  00010	e3a03000	 mov         r3, #0
  00014	e3a02000	 mov         r2, #0
  00018	e3a01000	 mov         r1, #0
  0001c	e58d401c	 str         r4, [sp, #0x1C]
  00020	e58d4018	 str         r4, [sp, #0x18]
  00024	e58d4014	 str         r4, [sp, #0x14]
  00028	e58d4010	 str         r4, [sp, #0x10]
  0002c	e58d400c	 str         r4, [sp, #0xC]
  00030	e58d4008	 str         r4, [sp, #8]
  00034	e58d4004	 str         r4, [sp, #4]
  00038	e58de000	 str         lr, [sp]
  0003c	eb000000	 bl          RegQueryInfoKeyW

; 89   : }    

  00040	e28dd020	 add         sp, sp, #0x20
  00044	e8bd4010	 ldmia       sp!, {r4, lr}
  00048	e12fff1e	 bx          lr
  0004c		 |$M38862|

			 ENDP  ; |?RegQueryInfoKeySubKeys@ce@@YAJPAUHKEY__@@AAK@Z|, ce::RegQueryInfoKeySubKeys

	EXPORT	|??0?$list@PAVBusDriverChild_t@@Vallocator@ce@@@ce@@QAA@XZ| ; ce::list<BusDriverChild_t *,ce::allocator>::list<BusDriverChild_t *,ce::allocator>
; File c:\wince600\public\common\oak\inc\list.hxx

  00000			 AREA	 |.pdata|, PDATA
|$T38874| DCD	|$LN5@list|
	DCD	0x40000800
; Function compile flags: /Ogspy

  00000			 AREA	 |.text|, CODE, ARM

  00000		 |??0?$list@PAVBusDriverChild_t@@Vallocator@ce@@@ce@@QAA@XZ| PROC ; ce::list<BusDriverChild_t *,ce::allocator>::list<BusDriverChild_t *,ce::allocator>

; 177  :     {

  00000		 |$LN5@list|
  00000		 |$M38871|
  00000	e3a03000	 mov         r3, #0
  00004	e580300c	 str         r3, [r0, #0xC]
  00008	e5800000	 str         r0, [r0]

; 178  :         // _HeadPrev and _HeadNext must have the same sizes and relative layout as _Node::_Prev and _Node::_Next
; 179  :         assert(&_Head->_Prev == &_HeadPrev);
; 180  :         assert(&_Head->_Next == &_HeadNext);
; 181  :         
; 182  :         _Head->_Prev = _Head->_Next = _Head;

  0000c	e5800004	 str         r0, [r0, #4]
  00010	e5902000	 ldr         r2, [r0]

; 183  :     }

  00014	e5923004	 ldr         r3, [r2, #4]
  00018	e5823008	 str         r3, [r2, #8]
  0001c	e12fff1e	 bx          lr
  00020		 |$M38872|

			 ENDP  ; |??0?$list@PAVBusDriverChild_t@@Vallocator@ce@@@ce@@QAA@XZ|, ce::list<BusDriverChild_t *,ce::allocator>::list<BusDriverChild_t *,ce::allocator>

	EXPORT	|??1?$_string_t@G$0BA@U?$char_traits@G@ce@@Vallocator@2@@ce@@QAA@XZ| ; ce::_string_t<unsigned short,16,ce::char_traits<unsigned short>,ce::allocator>::~_string_t<unsigned short,16,ce::char_traits<unsigned short>,ce::allocator>
; File c:\wince600\public\common\oak\inc\allocator.hxx

  00000			 AREA	 |.pdata|, PDATA
|$T38887| DCD	|$LN8@string_t|
	DCD	0x40000701
; Function compile flags: /Ogspy
; File c:\wince600\public\common\oak\inc\string.hxx

  00000			 AREA	 |.text|, CODE, ARM

  00000		 |??1?$_string_t@G$0BA@U?$char_traits@G@ce@@Vallocator@2@@ce@@QAA@XZ| PROC ; ce::_string_t<unsigned short,16,ce::char_traits<unsigned short>,ce::allocator>::~_string_t<unsigned short,16,ce::char_traits<unsigned short>,ce::allocator>

; 219  :     {

  00000		 |$LN8@string_t|
  00000	e52de004	 str         lr, [sp, #-4]!
  00004		 |$M38884|

; 220  :         assert(_Len <= _Res);
; 221  :         assert(_Ptr[_Res] == T(0));
; 222  :         
; 223  :         if(_Res != _BUF_SIZE)

  00004	e590302c	 ldr         r3, [r0, #0x2C]
  00008	e3530010	 cmp         r3, #0x10

; 224  :             deallocate(_Ptr, (_Res + 1) * sizeof(T));

  0000c	15900000	 ldrne       r0, [r0]
  00010	1b000000	 blne        |??3@YAXPAX@Z|

; 225  :     }

  00014	e49de004	 ldr         lr, [sp], #4
  00018	e12fff1e	 bx          lr
  0001c		 |$M38885|

			 ENDP  ; |??1?$_string_t@G$0BA@U?$char_traits@G@ce@@Vallocator@2@@ce@@QAA@XZ|, ce::_string_t<unsigned short,16,ce::char_traits<unsigned short>,ce::allocator>::~_string_t<unsigned short,16,ce::char_traits<unsigned short>,ce::allocator>

	EXPORT	|??B?$_string_t@G$0BA@U?$char_traits@G@ce@@Vallocator@2@@ce@@QBAPBGXZ| ; ce::_string_t<unsigned short,16,ce::char_traits<unsigned short>,ce::allocator>::operator unsigned short const *

  00000			 AREA	 |.pdata|, PDATA
|$T38897| DCD	|$LN5@operator@2|
	DCD	0x40000200
; Function compile flags: /Ogspy

  00000			 AREA	 |.text|, CODE, ARM

  00000		 |??B?$_string_t@G$0BA@U?$char_traits@G@ce@@Vallocator@2@@ce@@QBAPBGXZ| PROC ; ce::_string_t<unsigned short,16,ce::char_traits<unsigned short>,ce::allocator>::operator unsigned short const *

; 249  :         {return _Ptr; }

  00000		 |$LN5@operator@2|
  00000		 |$M38894|
  00000	e5900000	 ldr         r0, [r0]
  00004	e12fff1e	 bx          lr
  00008		 |$M38895|

			 ENDP  ; |??B?$_string_t@G$0BA@U?$char_traits@G@ce@@Vallocator@2@@ce@@QBAPBGXZ|, ce::_string_t<unsigned short,16,ce::char_traits<unsigned short>,ce::allocator>::operator unsigned short const *

	EXPORT	|??0?$vector@KVallocator@ce@@U?$incremental_growth@$09@2@@ce@@QAA@XZ| ; ce::vector<unsigned long,ce::allocator,ce::incremental_growth<10> >::vector<unsigned long,ce::allocator,ce::incremental_growth<10> >
; File c:\wince600\public\common\oak\inc\vector.hxx

  00000			 AREA	 |.pdata|, PDATA
|$T38907| DCD	|$LN5@vector|
	DCD	0x40000500
; Function compile flags: /Ogspy

  00000			 AREA	 |.text|, CODE, ARM

  00000		 |??0?$vector@KVallocator@ce@@U?$incremental_growth@$09@2@@ce@@QAA@XZ| PROC ; ce::vector<unsigned long,ce::allocator,ce::incremental_growth<10> >::vector<unsigned long,ce::allocator,ce::incremental_growth<10> >

; 127  :         {}

  00000		 |$LN5@vector|
  00000		 |$M38904|
  00000	e3a03000	 mov         r3, #0
  00004	e5803000	 str         r3, [r0]
  00008	e5803004	 str         r3, [r0, #4]
  0000c	e5803008	 str         r3, [r0, #8]
  00010	e12fff1e	 bx          lr
  00014		 |$M38905|

			 ENDP  ; |??0?$vector@KVallocator@ce@@U?$incremental_growth@$09@2@@ce@@QAA@XZ|, ce::vector<unsigned long,ce::allocator,ce::incremental_growth<10> >::vector<unsigned long,ce::allocator,ce::incremental_growth<10> >

	EXPORT	|?begin@?$vector@KVallocator@ce@@U?$incremental_growth@$09@2@@ce@@QAAPAKXZ| ; ce::vector<unsigned long,ce::allocator,ce::incremental_growth<10> >::begin

  00000			 AREA	 |.pdata|, PDATA
|$T38917| DCD	|$LN5@begin|
	DCD	0x40000200
; Function compile flags: /Ogspy

  00000			 AREA	 |.text|, CODE, ARM

  00000		 |?begin@?$vector@KVallocator@ce@@U?$incremental_growth@$09@2@@ce@@QAAPAKXZ| PROC ; ce::vector<unsigned long,ce::allocator,ce::incremental_growth<10> >::begin

; 188  :         {return _First; }

  00000		 |$LN5@begin|
  00000		 |$M38914|
  00000	e5900000	 ldr         r0, [r0]
  00004	e12fff1e	 bx          lr
  00008		 |$M38915|

			 ENDP  ; |?begin@?$vector@KVallocator@ce@@U?$incremental_growth@$09@2@@ce@@QAAPAKXZ|, ce::vector<unsigned long,ce::allocator,ce::incremental_growth<10> >::begin

	EXPORT	|??Diterator@?$list@PAVBusDriverChild_t@@Vallocator@ce@@@ce@@QBAAAPAVBusDriverChild_t@@XZ| ; ce::list<BusDriverChild_t *,ce::allocator>::iterator::operator*
; File c:\wince600\public\common\oak\inc\list.hxx

  00000			 AREA	 |.pdata|, PDATA
|$T38927| DCD	|$LN5@operator@3|
	DCD	0x40000200
; Function compile flags: /Ogspy

  00000			 AREA	 |.text|, CODE, ARM

  00000		 |??Diterator@?$list@PAVBusDriverChild_t@@Vallocator@ce@@@ce@@QBAAAPAVBusDriverChild_t@@XZ| PROC ; ce::list<BusDriverChild_t *,ce::allocator>::iterator::operator*

; 526  :             {return _Ptr->_Value; }

  00000		 |$LN5@operator@3|
  00000		 |$M38924|
  00000	e5900000	 ldr         r0, [r0]
  00004	e12fff1e	 bx          lr
  00008		 |$M38925|

			 ENDP  ; |??Diterator@?$list@PAVBusDriverChild_t@@Vallocator@ce@@@ce@@QBAAAPAVBusDriverChild_t@@XZ|, ce::list<BusDriverChild_t *,ce::allocator>::iterator::operator*

	EXPORT	|??Eiterator@?$list@PAVBusDriverChild_t@@Vallocator@ce@@@ce@@QAAAAV012@XZ| ; ce::list<BusDriverChild_t *,ce::allocator>::iterator::operator++

  00000			 AREA	 |.pdata|, PDATA
|$T38937| DCD	|$LN5@operator@4|
	DCD	0x40000500
; Function compile flags: /Ogspy

  00000			 AREA	 |.text|, CODE, ARM

  00000		 |??Eiterator@?$list@PAVBusDriverChild_t@@Vallocator@ce@@@ce@@QAAAAV012@XZ| PROC ; ce::list<BusDriverChild_t *,ce::allocator>::iterator::operator++

; 530  :             {_Ptr = _Ptr->_Next;

  00000		 |$LN5@operator@4|
  00000		 |$M38934|
  00000	e1a02000	 mov         r2, r0
  00004	e5923000	 ldr         r3, [r2]

; 531  :             return (*this); }

  00008	e5933004	 ldr         r3, [r3, #4]
  0000c	e5823000	 str         r3, [r2]
  00010	e12fff1e	 bx          lr
  00014		 |$M38935|

			 ENDP  ; |??Eiterator@?$list@PAVBusDriverChild_t@@Vallocator@ce@@@ce@@QAAAAV012@XZ|, ce::list<BusDriverChild_t *,ce::allocator>::iterator::operator++

	EXPORT	|??Eiterator@?$list@PAVBusDriverChild_t@@Vallocator@ce@@@ce@@QAA?AV012@H@Z| ; ce::list<BusDriverChild_t *,ce::allocator>::iterator::operator++

  00000			 AREA	 |.pdata|, PDATA
|$T38951| DCD	|$LN7@operator@5|
	DCD	0x40000901
; Function compile flags: /Ogspy

  00000			 AREA	 |.text|, CODE, ARM

  00000		 |??Eiterator@?$list@PAVBusDriverChild_t@@Vallocator@ce@@@ce@@QAA?AV012@H@Z| PROC ; ce::list<BusDriverChild_t *,ce::allocator>::iterator::operator++

; 533  :             {iterator Tmp = *this;

  00000		 |$LN7@operator@5|
  00000	e52de004	 str         lr, [sp, #-4]!
  00004		 |$M38948|
  00004	e1a0e000	 mov         lr, r0
  00008	e59e2000	 ldr         r2, [lr]

; 534  :             ++*this;
; 535  :             return (Tmp); }

  0000c	e1a00001	 mov         r0, r1
  00010	e5923004	 ldr         r3, [r2, #4]
  00014	e5812000	 str         r2, [r1]
  00018	e58e3000	 str         r3, [lr]
  0001c	e49de004	 ldr         lr, [sp], #4
  00020	e12fff1e	 bx          lr
  00024		 |$M38949|

			 ENDP  ; |??Eiterator@?$list@PAVBusDriverChild_t@@Vallocator@ce@@@ce@@QAA?AV012@H@Z|, ce::list<BusDriverChild_t *,ce::allocator>::iterator::operator++

	EXPORT	|?length@?$basic_char_traits@G@ce@@SAIPBG@Z| ; ce::basic_char_traits<unsigned short>::length
; File c:\wince600\public\common\oak\inc\string.hxx

  00000			 AREA	 |.pdata|, PDATA
|$T38965| DCD	|$LN12@length|
	DCD	0x40000d00
; Function compile flags: /Ogspy

  00000			 AREA	 |.text|, CODE, ARM

  00000		 |?length@?$basic_char_traits@G@ce@@SAIPBG@Z| PROC ; ce::basic_char_traits<unsigned short>::length

; 706  :     {

  00000		 |$LN12@length|
  00000		 |$M38962|
  00000	e3500000	 cmp         r0, #0

; 707  :         if(_U)

  00004	0a000008	 beq         |$LN4@length|

; 708  :         {
; 709  :             const T *eos = _U;
; 710  : 
; 711  :             while(*eos)

  00008	e1d030b0	 ldrh        r3, [r0]
  0000c	e1a02000	 mov         r2, r0
  00010	ea000000	 b           |$LN9@length|
  00014		 |$LL3@length|
  00014	e1f230b2	 ldrh        r3, [r2, #2]!
  00018		 |$LN9@length|
  00018	e3530000	 cmp         r3, #0
  0001c	1afffffc	 bne         |$LL3@length|

; 712  :                 ++eos;
; 713  : 
; 714  :             return (size_t)(eos - _U);

  00020	e0423000	 sub         r3, r2, r0
  00024	e1a000c3	 mov         r0, r3, asr #1

; 718  :     }

  00028	e12fff1e	 bx          lr
  0002c		 |$LN4@length|

; 715  :         }
; 716  :         else
; 717  :             return 0;

  0002c	e3a00000	 mov         r0, #0

; 718  :     }

  00030	e12fff1e	 bx          lr
  00034		 |$M38963|

			 ENDP  ; |?length@?$basic_char_traits@G@ce@@SAIPBG@Z|, ce::basic_char_traits<unsigned short>::length

	EXPORT	|?_Freenode@?$list@PAVBusDriverChild_t@@Vallocator@ce@@@ce@@IAAXPAU_Node@12@@Z| ; ce::list<BusDriverChild_t *,ce::allocator>::_Freenode
; File c:\wince600\public\common\oak\inc\allocator.hxx

  00000			 AREA	 |.pdata|, PDATA
|$T38976| DCD	|$LN7@Freenode|
	DCD	0x40000501
; Function compile flags: /Ogspy
; File c:\wince600\public\common\oak\inc\list.hxx

  00000			 AREA	 |.text|, CODE, ARM

  00000		 |?_Freenode@?$list@PAVBusDriverChild_t@@Vallocator@ce@@@ce@@IAAXPAU_Node@12@@Z| PROC ; ce::list<BusDriverChild_t *,ce::allocator>::_Freenode

; 574  :         {deallocate(Node, sizeof(_Node)); }

  00000		 |$LN7@Freenode|
  00000	e52de004	 str         lr, [sp, #-4]!
  00004		 |$M38973|
  00004	e1a00001	 mov         r0, r1
  00008	eb000000	 bl          |??3@YAXPAX@Z|
  0000c	e49de004	 ldr         lr, [sp], #4
  00010	e12fff1e	 bx          lr
  00014		 |$M38974|

			 ENDP  ; |?_Freenode@?$list@PAVBusDriverChild_t@@Vallocator@ce@@@ce@@IAAXPAU_Node@12@@Z|, ce::list<BusDriverChild_t *,ce::allocator>::_Freenode

	EXPORT	|?capacity@?$vector@KVallocator@ce@@U?$incremental_growth@$09@2@@ce@@QBAIXZ| ; ce::vector<unsigned long,ce::allocator,ce::incremental_growth<10> >::capacity
; File c:\wince600\public\common\oak\inc\vector.hxx

  00000			 AREA	 |.pdata|, PDATA
|$T38986| DCD	|$LN5@capacity|
	DCD	0x40000500
; Function compile flags: /Ogspy

  00000			 AREA	 |.text|, CODE, ARM

  00000		 |?capacity@?$vector@KVallocator@ce@@U?$incremental_growth@$09@2@@ce@@QBAIXZ| PROC ; ce::vector<unsigned long,ce::allocator,ce::incremental_growth<10> >::capacity

; 283  :         {return _End - _First; }

  00000		 |$LN5@capacity|
  00000		 |$M38983|
  00000	e5902008	 ldr         r2, [r0, #8]
  00004	e5903000	 ldr         r3, [r0]
  00008	e0423003	 sub         r3, r2, r3
  0000c	e1a00143	 mov         r0, r3, asr #2
  00010	e12fff1e	 bx          lr
  00014		 |$M38984|

			 ENDP  ; |?capacity@?$vector@KVallocator@ce@@U?$incremental_growth@$09@2@@ce@@QBAIXZ|, ce::vector<unsigned long,ce::allocator,ce::incremental_growth<10> >::capacity

	EXPORT	|??8iterator@?$list@PAVBusDriverChild_t@@Vallocator@ce@@@ce@@QBA_NABV012@@Z| ; ce::list<BusDriverChild_t *,ce::allocator>::iterator::operator==
; File c:\wince600\public\common\oak\inc\list.hxx

  00000			 AREA	 |.pdata|, PDATA
|$T38999| DCD	|$LN7@operator@6|
	DCD	0x40000800
; Function compile flags: /Ogspy

  00000			 AREA	 |.text|, CODE, ARM

  00000		 |??8iterator@?$list@PAVBusDriverChild_t@@Vallocator@ce@@@ce@@QBA_NABV012@@Z| PROC ; ce::list<BusDriverChild_t *,ce::allocator>::iterator::operator==

; 544  :             {return (_Ptr == it._Ptr); }

  00000		 |$LN7@operator@6|
  00000		 |$M38996|
  00000	e5902000	 ldr         r2, [r0]
  00004	e5913000	 ldr         r3, [r1]
  00008	e1520003	 cmp         r2, r3
  0000c	03a03001	 moveq       r3, #1
  00010	020300ff	 andeq       r0, r3, #0xFF
  00014	13a03000	 movne       r3, #0
  00018	120300ff	 andne       r0, r3, #0xFF
  0001c	e12fff1e	 bx          lr
  00020		 |$M38997|

			 ENDP  ; |??8iterator@?$list@PAVBusDriverChild_t@@Vallocator@ce@@@ce@@QBA_NABV012@@Z|, ce::list<BusDriverChild_t *,ce::allocator>::iterator::operator==

	EXPORT	|?_MyNode@const_iterator@?$list@PAVBusDriverChild_t@@Vallocator@ce@@@ce@@QBAPAU_Node@23@XZ| ; ce::list<BusDriverChild_t *,ce::allocator>::const_iterator::_MyNode

  00000			 AREA	 |.pdata|, PDATA
|$T39009| DCD	|$LN5@MyNode|
	DCD	0x40000200
; Function compile flags: /Ogspy

  00000			 AREA	 |.text|, CODE, ARM

  00000		 |?_MyNode@const_iterator@?$list@PAVBusDriverChild_t@@Vallocator@ce@@@ce@@QBAPAU_Node@23@XZ| PROC ; ce::list<BusDriverChild_t *,ce::allocator>::const_iterator::_MyNode

; 511  :             {return (_Ptr); }

  00000		 |$LN5@MyNode|
  00000		 |$M39006|
  00000	e5900000	 ldr         r0, [r0]
  00004	e12fff1e	 bx          lr
  00008		 |$M39007|

			 ENDP  ; |?_MyNode@const_iterator@?$list@PAVBusDriverChild_t@@Vallocator@ce@@@ce@@QBAPAU_Node@23@XZ|, ce::list<BusDriverChild_t *,ce::allocator>::const_iterator::_MyNode

	EXPORT	|?copy@?$basic_char_traits@G@ce@@SAPAGPAGPBGI@Z| ; ce::basic_char_traits<unsigned short>::copy
	IMPORT	|memmove|
; File c:\wince600\public\common\oak\inc\string.hxx

  00000			 AREA	 |.pdata|, PDATA
|$T39021| DCD	|$LN5@copy|
	DCD	0x40000501
; Function compile flags: /Ogspy

  00000			 AREA	 |.text|, CODE, ARM

  00000		 |?copy@?$basic_char_traits@G@ce@@SAPAGPAGPBGI@Z| PROC ; ce::basic_char_traits<unsigned short>::copy

; 700  :         {return (T*)memmove(_U, _V, _N * sizeof(T)); }

  00000		 |$LN5@copy|
  00000	e52de004	 str         lr, [sp, #-4]!
  00004		 |$M39018|
  00004	e1a02082	 mov         r2, r2, lsl #1
  00008	eb000000	 bl          memmove
  0000c	e49de004	 ldr         lr, [sp], #4
  00010	e12fff1e	 bx          lr
  00014		 |$M39019|

			 ENDP  ; |?copy@?$basic_char_traits@G@ce@@SAPAGPAGPBGI@Z|, ce::basic_char_traits<unsigned short>::copy

	EXPORT	|?_Grow@?$_string_t@G$0BA@U?$char_traits@G@ce@@Vallocator@2@@ce@@IAA_NI@Z| ; ce::_string_t<unsigned short,16,ce::char_traits<unsigned short>,ce::allocator>::_Grow
; File c:\wince600\public\common\oak\inc\allocator.hxx

  00000			 AREA	 |.pdata|, PDATA
|$T39050| DCD	|$LN18@Grow|
	DCD	0x40002601
; Function compile flags: /Ogspy
; File c:\wince600\public\common\oak\inc\string.hxx

  00000			 AREA	 |.text|, CODE, ARM

  00000		 |?_Grow@?$_string_t@G$0BA@U?$char_traits@G@ce@@Vallocator@2@@ce@@IAA_NI@Z| PROC ; ce::_string_t<unsigned short,16,ce::char_traits<unsigned short>,ce::allocator>::_Grow

; 521  :     {

  00000		 |$LN18@Grow|
  00000	e92d41f0	 stmdb       sp!, {r4 - r8, lr}
  00004		 |$M39047|
  00004	e1a06001	 mov         r6, r1
  00008	e1a05000	 mov         r5, r0

; 522  :         if(_Res < _N)

  0000c	e595302c	 ldr         r3, [r5, #0x2C]
  00010	e1530006	 cmp         r3, r6
  00014	2a00001c	 bcs         |$LN5@Grow|

; 523  :         {
; 524  :             // try to grow exponentially
; 525  :             size_type _NewRes = _Res + _Res / 2;

  00018	e08340a3	 add         r4, r3, r3, lsr #1

; 526  :             
; 527  :             if(_NewRes < _N)

  0001c	e1540006	 cmp         r4, r6

; 528  :                 _NewRes = _N;

  00020	31a04006	 movcc       r4, r6

; 529  :             
; 530  :             T* _New = reinterpret_cast<T*>(allocate((_NewRes + 1) * sizeof(T)));

  00024	e1a08084	 mov         r8, r4, lsl #1
  00028	e2880002	 add         r0, r8, #2
  0002c	eb000000	 bl          |??2@YAPAXI@Z|
  00030	e1b07000	 movs        r7, r0

; 531  : 
; 532  :             if(!_New)

  00034	1a000007	 bne         |$LN2@Grow|

; 533  :             {
; 534  :                 // if allocation failed, retry with exact size required
; 535  :                 _New = reinterpret_cast<T*>(allocate(((_NewRes = _N) + 1) * sizeof(T)));

  00038	e1a08086	 mov         r8, r6, lsl #1
  0003c	e2880002	 add         r0, r8, #2
  00040	e1a04006	 mov         r4, r6
  00044	eb000000	 bl          |??2@YAPAXI@Z|
  00048	e1b07000	 movs        r7, r0

; 536  :                 
; 537  :                 if(!_New)
; 538  :                     return false;

  0004c	03a00000	 moveq       r0, #0

; 554  :     }

  00050	08bd41f0	 ldmeqia     sp!, {r4 - r8, lr}
  00054	012fff1e	 bxeq        lr
  00058		 |$LN2@Grow|

; 539  :             }
; 540  :             
; 541  :             _Tr::copy(_New, _Ptr, _Res);

  00058	e595302c	 ldr         r3, [r5, #0x2C]
  0005c	e5951000	 ldr         r1, [r5]
  00060	e1a00007	 mov         r0, r7
  00064	e1a02083	 mov         r2, r3, lsl #1
  00068	eb000000	 bl          memmove

; 542  : 
; 543  :             if(_Res != _BUF_SIZE)

  0006c	e595302c	 ldr         r3, [r5, #0x2C]
  00070	e3530010	 cmp         r3, #0x10

; 544  :                 deallocate(_Ptr, (_Res + 1) * sizeof(T));

  00074	15950000	 ldrne       r0, [r5]
  00078	1b000000	 blne        |??3@YAXPAX@Z|

; 545  : 
; 546  :             _Ptr = _New;
; 547  :             _Res = _NewRes;
; 548  :             _Ptr[_Res] = T(0);

  0007c	e3a03000	 mov         r3, #0
  00080	e5857000	 str         r7, [r5]
  00084	e585402c	 str         r4, [r5, #0x2C]
  00088	e18830b7	 strh        r3, [r8, +r7]
  0008c		 |$LN5@Grow|

; 549  :         }
; 550  :         
; 551  :         assert(_Res >= _N);
; 552  : 
; 553  :         return true;

  0008c	e3a00001	 mov         r0, #1

; 554  :     }

  00090	e8bd41f0	 ldmia       sp!, {r4 - r8, lr}
  00094	e12fff1e	 bx          lr
  00098		 |$M39048|

			 ENDP  ; |?_Grow@?$_string_t@G$0BA@U?$char_traits@G@ce@@Vallocator@2@@ce@@IAA_NI@Z|, ce::_string_t<unsigned short,16,ce::char_traits<unsigned short>,ce::allocator>::_Grow

	EXPORT	|?_Eos@?$_string_t@G$0BA@U?$char_traits@G@ce@@Vallocator@2@@ce@@IAAXI@Z| ; ce::_string_t<unsigned short,16,ce::char_traits<unsigned short>,ce::allocator>::_Eos

  00000			 AREA	 |.pdata|, PDATA
|$T39059| DCD	|$LN5@Eos|
	DCD	0x40000600
; Function compile flags: /Ogspy

  00000			 AREA	 |.text|, CODE, ARM

  00000		 |?_Eos@?$_string_t@G$0BA@U?$char_traits@G@ce@@Vallocator@2@@ce@@IAAXI@Z| PROC ; ce::_string_t<unsigned short,16,ce::char_traits<unsigned short>,ce::allocator>::_Eos

; 558  :     {

  00000		 |$LN5@Eos|
  00000		 |$M39056|

; 559  :         assert(_N <= _Res);
; 560  :         
; 561  :         _Ptr[_Len = _N] = T();

  00000	e5903000	 ldr         r3, [r0]
  00004	e3a02000	 mov         r2, #0
  00008	e5801028	 str         r1, [r0, #0x28]
  0000c	e0833081	 add         r3, r3, r1, lsl #1
  00010	e1c320b0	 strh        r2, [r3]

; 562  :     }

  00014	e12fff1e	 bx          lr
  00018		 |$M39057|

			 ENDP  ; |?_Eos@?$_string_t@G$0BA@U?$char_traits@G@ce@@Vallocator@2@@ce@@IAAXI@Z|, ce::_string_t<unsigned short,16,ce::char_traits<unsigned short>,ce::allocator>::_Eos

	EXPORT	|?end@?$vector@KVallocator@ce@@U?$incremental_growth@$09@2@@ce@@QAAPAKXZ| ; ce::vector<unsigned long,ce::allocator,ce::incremental_growth<10> >::end
; File c:\wince600\public\common\oak\inc\vector.hxx

  00000			 AREA	 |.pdata|, PDATA
|$T39069| DCD	|$LN5@end|
	DCD	0x40000200
; Function compile flags: /Ogspy

  00000			 AREA	 |.text|, CODE, ARM

  00000		 |?end@?$vector@KVallocator@ce@@U?$incremental_growth@$09@2@@ce@@QAAPAKXZ| PROC ; ce::vector<unsigned long,ce::allocator,ce::incremental_growth<10> >::end

; 195  :         {return _Last; }

  00000		 |$LN5@end|
  00000		 |$M39066|
  00000	e5900004	 ldr         r0, [r0, #4]
  00004	e12fff1e	 bx          lr
  00008		 |$M39067|

			 ENDP  ; |?end@?$vector@KVallocator@ce@@U?$incremental_growth@$09@2@@ce@@QAAPAKXZ|, ce::vector<unsigned long,ce::allocator,ce::incremental_growth<10> >::end

	EXPORT	|??0const_iterator@?$list@PAVBusDriverChild_t@@Vallocator@ce@@@ce@@QAA@PAU_Node@12@@Z| ; ce::list<BusDriverChild_t *,ce::allocator>::const_iterator::const_iterator
; File c:\wince600\public\common\oak\inc\list.hxx

  00000			 AREA	 |.pdata|, PDATA
|$T39080| DCD	|$LN5@const_iter|
	DCD	0x40000200
; Function compile flags: /Ogspy

  00000			 AREA	 |.text|, CODE, ARM

  00000		 |??0const_iterator@?$list@PAVBusDriverChild_t@@Vallocator@ce@@@ce@@QAA@PAU_Node@12@@Z| PROC ; ce::list<BusDriverChild_t *,ce::allocator>::const_iterator::const_iterator

; 484  :         const_iterator(_NodePtr _P)

  00000		 |$LN5@const_iter|
  00000		 |$M39077|
  00000	e5801000	 str         r1, [r0]
  00004	e12fff1e	 bx          lr
  00008		 |$M39078|

			 ENDP  ; |??0const_iterator@?$list@PAVBusDriverChild_t@@Vallocator@ce@@@ce@@QAA@PAU_Node@12@@Z|, ce::list<BusDriverChild_t *,ce::allocator>::const_iterator::const_iterator

	EXPORT	|?_Destroy@?$vector@KVallocator@ce@@U?$incremental_growth@$09@2@@ce@@IAAXPAK0@Z| ; ce::vector<unsigned long,ce::allocator,ce::incremental_growth<10> >::_Destroy
; File c:\wince600\public\common\oak\inc\vector.hxx

  00000			 AREA	 |.pdata|, PDATA
|$T39089| DCD	|$LN10@Destroy|
	DCD	0x40000100
; Function compile flags: /Ogspy

  00000			 AREA	 |.text|, CODE, ARM

  00000		 |?_Destroy@?$vector@KVallocator@ce@@U?$incremental_growth@$09@2@@ce@@IAAXPAK0@Z| PROC ; ce::vector<unsigned long,ce::allocator,ce::incremental_growth<10> >::_Destroy

; 423  :     {

  00000		 |$LN10@Destroy|
  00000		 |$M39086|

; 424  :         for (; _F != _L; ++_F)
; 425  :             _F->~T();
; 426  :     }

  00000	e12fff1e	 bx          lr
  00004		 |$M39087|

			 ENDP  ; |?_Destroy@?$vector@KVallocator@ce@@U?$incremental_growth@$09@2@@ce@@IAAXPAK0@Z|, ce::vector<unsigned long,ce::allocator,ce::incremental_growth<10> >::_Destroy

	EXPORT	|?_Buynode@?$list@PAVBusDriverChild_t@@Vallocator@ce@@@ce@@IAAPAU_Node@12@PAU312@@Z| ; ce::list<BusDriverChild_t *,ce::allocator>::_Buynode
; File c:\wince600\public\common\oak\inc\allocator.hxx

  00000			 AREA	 |.pdata|, PDATA
|$T39104| DCD	|$LN9@Buynode|
	DCD	0x40001501
; Function compile flags: /Ogspy
; File c:\wince600\public\common\oak\inc\list.hxx

  00000			 AREA	 |.text|, CODE, ARM

  00000		 |?_Buynode@?$list@PAVBusDriverChild_t@@Vallocator@ce@@@ce@@IAAPAU_Node@12@PAU312@@Z| PROC ; ce::list<BusDriverChild_t *,ce::allocator>::_Buynode

; 551  :     {

  00000		 |$LN9@Buynode|
  00000	e92d4030	 stmdb       sp!, {r4, r5, lr}
  00004		 |$M39101|
  00004	e1a04001	 mov         r4, r1
  00008	e1a05000	 mov         r5, r0

; 552  :         assert(WhereNode);
; 553  :         __assume(WhereNode);
; 554  :         assert(WhereNode->_Prev);
; 555  :         __assume(WhereNode->_Prev);
; 556  :         
; 557  :         if(_NodePtr NewNode = (_NodePtr)allocate(sizeof(_Node)))

  0000c	e3a0000c	 mov         r0, #0xC
  00010	eb000000	 bl          |??2@YAPAXI@Z|
  00014	e3500000	 cmp         r0, #0
  00018	0a00000a	 beq         |$LN2@Buynode|

; 558  :         {
; 559  :             NewNode->_Next = WhereNode;

  0001c	e5804004	 str         r4, [r0, #4]

; 560  :             NewNode->_Prev = WhereNode->_Prev;

  00020	e5943008	 ldr         r3, [r4, #8]

; 561  :             
; 562  :             WhereNode->_Prev->_Next = NewNode;
; 563  :             WhereNode->_Prev = NewNode;
; 564  :             
; 565  :             ++_Size;
; 566  :             
; 567  :             return NewNode;

  00024	e5803008	 str         r3, [r0, #8]
  00028	e5943008	 ldr         r3, [r4, #8]
  0002c	e5830004	 str         r0, [r3, #4]
  00030	e5840008	 str         r0, [r4, #8]
  00034	e595300c	 ldr         r3, [r5, #0xC]
  00038	e2833001	 add         r3, r3, #1
  0003c	e585300c	 str         r3, [r5, #0xC]

; 571  :     }

  00040	e8bd4030	 ldmia       sp!, {r4, r5, lr}
  00044	e12fff1e	 bx          lr
  00048		 |$LN2@Buynode|

; 568  :         }
; 569  :         else
; 570  :             return NULL;

  00048	e3a00000	 mov         r0, #0

; 571  :     }

  0004c	e8bd4030	 ldmia       sp!, {r4, r5, lr}
  00050	e12fff1e	 bx          lr
  00054		 |$M39102|

			 ENDP  ; |?_Buynode@?$list@PAVBusDriverChild_t@@Vallocator@ce@@@ce@@IAAPAU_Node@12@PAU312@@Z|, ce::list<BusDriverChild_t *,ce::allocator>::_Buynode

	EXPORT	|?capacity@?$_string_t@G$0BA@U?$char_traits@G@ce@@Vallocator@2@@ce@@QBAIXZ| ; ce::_string_t<unsigned short,16,ce::char_traits<unsigned short>,ce::allocator>::capacity
; File c:\wince600\public\common\oak\inc\string.hxx

  00000			 AREA	 |.pdata|, PDATA
|$T39114| DCD	|$LN5@capacity@2|
	DCD	0x40000200
; Function compile flags: /Ogspy

  00000			 AREA	 |.text|, CODE, ARM

  00000		 |?capacity@?$_string_t@G$0BA@U?$char_traits@G@ce@@Vallocator@2@@ce@@QBAIXZ| PROC ; ce::_string_t<unsigned short,16,ce::char_traits<unsigned short>,ce::allocator>::capacity

; 237  :         {return _Res; } 

  00000		 |$LN5@capacity@2|
  00000		 |$M39111|
  00000	e590002c	 ldr         r0, [r0, #0x2C]
  00004	e12fff1e	 bx          lr
  00008		 |$M39112|

			 ENDP  ; |?capacity@?$_string_t@G$0BA@U?$char_traits@G@ce@@Vallocator@2@@ce@@QBAIXZ|, ce::_string_t<unsigned short,16,ce::char_traits<unsigned short>,ce::allocator>::capacity

	EXPORT	|?reserve@?$_string_t@G$0BA@U?$char_traits@G@ce@@Vallocator@2@@ce@@QAA_NI@Z| ; ce::_string_t<unsigned short,16,ce::char_traits<unsigned short>,ce::allocator>::reserve

  00000			 AREA	 |.pdata|, PDATA
|$T39125| DCD	|$LN5@reserve|
	DCD	0x40000401
; Function compile flags: /Ogspy

  00000			 AREA	 |.text|, CODE, ARM

  00000		 |?reserve@?$_string_t@G$0BA@U?$char_traits@G@ce@@Vallocator@2@@ce@@QAA_NI@Z| PROC ; ce::_string_t<unsigned short,16,ce::char_traits<unsigned short>,ce::allocator>::reserve

; 245  :         {return _Grow(_N); }

  00000		 |$LN5@reserve|
  00000	e52de004	 str         lr, [sp, #-4]!
  00004		 |$M39122|
  00004	eb000000	 bl          |?_Grow@?$_string_t@G$0BA@U?$char_traits@G@ce@@Vallocator@2@@ce@@IAA_NI@Z|
  00008	e49de004	 ldr         lr, [sp], #4
  0000c	e12fff1e	 bx          lr
  00010		 |$M39123|

			 ENDP  ; |?reserve@?$_string_t@G$0BA@U?$char_traits@G@ce@@Vallocator@2@@ce@@QAA_NI@Z|, ce::_string_t<unsigned short,16,ce::char_traits<unsigned short>,ce::allocator>::reserve

	EXPORT	|?resize@?$_string_t@G$0BA@U?$char_traits@G@ce@@Vallocator@2@@ce@@QAA_NI@Z| ; ce::_string_t<unsigned short,16,ce::char_traits<unsigned short>,ce::allocator>::resize

  00000			 AREA	 |.pdata|, PDATA
|$T39139| DCD	|$LN8@resize|
	DCD	0x40000f01
; Function compile flags: /Ogspy

  00000			 AREA	 |.text|, CODE, ARM

  00000		 |?resize@?$_string_t@G$0BA@U?$char_traits@G@ce@@Vallocator@2@@ce@@QAA_NI@Z| PROC ; ce::_string_t<unsigned short,16,ce::char_traits<unsigned short>,ce::allocator>::resize

; 383  :     {

  00000		 |$LN8@resize|
  00000	e92d4030	 stmdb       sp!, {r4, r5, lr}
  00004		 |$M39136|
  00004	e1a04001	 mov         r4, r1
  00008	e1a05000	 mov         r5, r0

; 384  :         if(_Grow(_N))

  0000c	eb000000	 bl          |?_Grow@?$_string_t@G$0BA@U?$char_traits@G@ce@@Vallocator@2@@ce@@IAA_NI@Z|
  00010	e3500000	 cmp         r0, #0

; 385  :         {
; 386  :             _Eos(_N);

  00014	15953000	 ldrne       r3, [r5]
  00018	13a02000	 movne       r2, #0
  0001c	15854028	 strne       r4, [r5, #0x28]
  00020	10833084	 addne       r3, r3, r4, lsl #1
  00024	11c320b0	 strneh      r2, [r3]

; 387  :             
; 388  :             return true;

  00028	13a00001	 movne       r0, #1

; 392  :     }

  0002c	18bd4030	 ldmneia     sp!, {r4, r5, lr}

; 389  :         }
; 390  :         
; 391  :         return false;

  00030	03a00000	 moveq       r0, #0

; 392  :     }

  00034	08bd4030	 ldmeqia     sp!, {r4, r5, lr}
  00038	e12fff1e	 bx          lr
  0003c		 |$M39137|

			 ENDP  ; |?resize@?$_string_t@G$0BA@U?$char_traits@G@ce@@Vallocator@2@@ce@@QAA_NI@Z|, ce::_string_t<unsigned short,16,ce::char_traits<unsigned short>,ce::allocator>::resize

	EXPORT	|??1_buffer@?$_string_t@G$0BA@U?$char_traits@G@ce@@Vallocator@2@@ce@@QAA@XZ| ; ce::_string_t<unsigned short,16,ce::char_traits<unsigned short>,ce::allocator>::_buffer::~_buffer

  00000			 AREA	 |.pdata|, PDATA
|$T39169| DCD	|$LN16@buffer|
	DCD	0x40001400
; Function compile flags: /Ogspy

  00000			 AREA	 |.text|, CODE, ARM

  00000		 |??1_buffer@?$_string_t@G$0BA@U?$char_traits@G@ce@@Vallocator@2@@ce@@QAA@XZ| PROC ; ce::_string_t<unsigned short,16,ce::char_traits<unsigned short>,ce::allocator>::_buffer::~_buffer

; 590  :             {_Str->_Eos(_Tr::length(_Str->_Ptr)); }

  00000		 |$LN16@buffer|
  00000		 |$M39166|
  00000	e5900000	 ldr         r0, [r0]
  00004	e5903000	 ldr         r3, [r0]
  00008	e1b01003	 movs        r1, r3
  0000c	0a000008	 beq         |$LN6@buffer|
  00010	e1d130b0	 ldrh        r3, [r1]
  00014	e1a02001	 mov         r2, r1
  00018	ea000000	 b           |$LN13@buffer|
  0001c		 |$LL5@buffer|
  0001c	e1f230b2	 ldrh        r3, [r2, #2]!
  00020		 |$LN13@buffer|
  00020	e3530000	 cmp         r3, #0
  00024	1afffffc	 bne         |$LL5@buffer|
  00028	e0423001	 sub         r3, r2, r1
  0002c	e1a020c3	 mov         r2, r3, asr #1
  00030	ea000000	 b           |$LN3@buffer|
  00034		 |$LN6@buffer|
  00034	e3a02000	 mov         r2, #0
  00038		 |$LN3@buffer|
  00038	e5903000	 ldr         r3, [r0]
  0003c	e3a01000	 mov         r1, #0
  00040	e5802028	 str         r2, [r0, #0x28]
  00044	e0833082	 add         r3, r3, r2, lsl #1
  00048	e1c310b0	 strh        r1, [r3]
  0004c	e12fff1e	 bx          lr
  00050		 |$M39167|

			 ENDP  ; |??1_buffer@?$_string_t@G$0BA@U?$char_traits@G@ce@@Vallocator@2@@ce@@QAA@XZ|, ce::_string_t<unsigned short,16,ce::char_traits<unsigned short>,ce::allocator>::_buffer::~_buffer

	EXPORT	|??B_buffer@?$_string_t@G$0BA@U?$char_traits@G@ce@@Vallocator@2@@ce@@QAAPAGXZ| ; ce::_string_t<unsigned short,16,ce::char_traits<unsigned short>,ce::allocator>::_buffer::operator unsigned short *

  00000			 AREA	 |.pdata|, PDATA
|$T39179| DCD	|$LN5@operator@7|
	DCD	0x40000300
; Function compile flags: /Ogspy

  00000			 AREA	 |.text|, CODE, ARM

  00000		 |??B_buffer@?$_string_t@G$0BA@U?$char_traits@G@ce@@Vallocator@2@@ce@@QAAPAGXZ| PROC ; ce::_string_t<unsigned short,16,ce::char_traits<unsigned short>,ce::allocator>::_buffer::operator unsigned short *

; 593  :             {return _Str->_Ptr; }

  00000		 |$LN5@operator@7|
  00000		 |$M39176|
  00000	e5903000	 ldr         r3, [r0]
  00004	e5930000	 ldr         r0, [r3]
  00008	e12fff1e	 bx          lr
  0000c		 |$M39177|

			 ENDP  ; |??B_buffer@?$_string_t@G$0BA@U?$char_traits@G@ce@@Vallocator@2@@ce@@QAAPAGXZ|, ce::_string_t<unsigned short,16,ce::char_traits<unsigned short>,ce::allocator>::_buffer::operator unsigned short *

	EXPORT	|??0_buffer@?$_string_t@G$0BA@U?$char_traits@G@ce@@Vallocator@2@@ce@@QAA@PAV12@@Z| ; ce::_string_t<unsigned short,16,ce::char_traits<unsigned short>,ce::allocator>::_buffer::_buffer

  00000			 AREA	 |.pdata|, PDATA
|$T39190| DCD	|$LN5@buffer@2|
	DCD	0x40000200
; Function compile flags: /Ogspy

  00000			 AREA	 |.text|, CODE, ARM

  00000		 |??0_buffer@?$_string_t@G$0BA@U?$char_traits@G@ce@@Vallocator@2@@ce@@QAA@PAV12@@Z| PROC ; ce::_string_t<unsigned short,16,ce::char_traits<unsigned short>,ce::allocator>::_buffer::_buffer

; 587  :             {}

  00000		 |$LN5@buffer@2|
  00000		 |$M39187|
  00000	e5801000	 str         r1, [r0]
  00004	e12fff1e	 bx          lr
  00008		 |$M39188|

			 ENDP  ; |??0_buffer@?$_string_t@G$0BA@U?$char_traits@G@ce@@Vallocator@2@@ce@@QAA@PAV12@@Z|, ce::_string_t<unsigned short,16,ce::char_traits<unsigned short>,ce::allocator>::_buffer::_buffer

	EXPORT	|?size@?$vector@KVallocator@ce@@U?$incremental_growth@$09@2@@ce@@QBAIXZ| ; ce::vector<unsigned long,ce::allocator,ce::incremental_growth<10> >::size
; File c:\wince600\public\common\oak\inc\vector.hxx

  00000			 AREA	 |.pdata|, PDATA
|$T39200| DCD	|$LN5@size|
	DCD	0x40000500
; Function compile flags: /Ogspy

  00000			 AREA	 |.text|, CODE, ARM

  00000		 |?size@?$vector@KVallocator@ce@@U?$incremental_growth@$09@2@@ce@@QBAIXZ| PROC ; ce::vector<unsigned long,ce::allocator,ce::incremental_growth<10> >::size

; 279  :         {return _Last - _First; }

  00000		 |$LN5@size|
  00000		 |$M39197|
  00000	e5902004	 ldr         r2, [r0, #4]
  00004	e5903000	 ldr         r3, [r0]
  00008	e0423003	 sub         r3, r2, r3
  0000c	e1a00143	 mov         r0, r3, asr #2
  00010	e12fff1e	 bx          lr
  00014		 |$M39198|

			 ENDP  ; |?size@?$vector@KVallocator@ce@@U?$incremental_growth@$09@2@@ce@@QBAIXZ|, ce::vector<unsigned long,ce::allocator,ce::incremental_growth<10> >::size

	EXPORT	|?_Copy@?$vector@KVallocator@ce@@U?$incremental_growth@$09@2@@ce@@IAAPAKPBK0PAK@Z| ; ce::vector<unsigned long,ce::allocator,ce::incremental_growth<10> >::_Copy
; File c:\wince600\public\common\sdk\inc\new

  00000			 AREA	 |.pdata|, PDATA
|$T39221| DCD	|$LN15@Copy|
	DCD	0x40000a00
; Function compile flags: /Ogspy
; File c:\wince600\public\common\oak\inc\vector.hxx

  00000			 AREA	 |.text|, CODE, ARM

  00000		 |?_Copy@?$vector@KVallocator@ce@@U?$incremental_growth@$09@2@@ce@@IAAPAKPBK0PAK@Z| PROC ; ce::vector<unsigned long,ce::allocator,ce::incremental_growth<10> >::_Copy

; 430  :     {

  00000		 |$LN15@Copy|
  00000		 |$M39218|

; 431  :         assert(_F <= _L);
; 432  :         
; 433  :         for(; _F != _L; ++_P, ++_F)
; 434  :             new (_P) T(*_F);

  00000	ea000004	 b           |$LN12@Copy|
  00004		 |$LL3@Copy|
  00004	e3530000	 cmp         r3, #0
  00008	15910000	 ldrne       r0, [r1]
  0000c	e2811004	 add         r1, r1, #4
  00010	15830000	 strne       r0, [r3]
  00014	e2833004	 add         r3, r3, #4
  00018		 |$LN12@Copy|
  00018	e1510002	 cmp         r1, r2
  0001c	1afffff8	 bne         |$LL3@Copy|

; 435  :         
; 436  :         return (_P);
; 437  :     }

  00020	e1a00003	 mov         r0, r3
  00024	e12fff1e	 bx          lr
  00028		 |$M39219|

			 ENDP  ; |?_Copy@?$vector@KVallocator@ce@@U?$incremental_growth@$09@2@@ce@@IAAPAKPBK0PAK@Z|, ce::vector<unsigned long,ce::allocator,ce::incremental_growth<10> >::_Copy

	EXPORT	|?_MoveForward@?$vector@KVallocator@ce@@U?$incremental_growth@$09@2@@ce@@IAAXPAK00@Z| ; ce::vector<unsigned long,ce::allocator,ce::incremental_growth<10> >::_MoveForward
; File c:\wince600\public\common\sdk\inc\new

  00000			 AREA	 |.pdata|, PDATA
|$T39242| DCD	|$LN15@MoveForwar|
	DCD	0x40000d00
; Function compile flags: /Ogspy
; File c:\wince600\public\common\oak\inc\vector.hxx

  00000			 AREA	 |.text|, CODE, ARM

  00000		 |?_MoveForward@?$vector@KVallocator@ce@@U?$incremental_growth@$09@2@@ce@@IAAXPAK00@Z| PROC ; ce::vector<unsigned long,ce::allocator,ce::incremental_growth<10> >::_MoveForward

; 442  :     {

  00000		 |$LN15@MoveForwar|
  00000		 |$M39239|

; 443  :         assert(_F >= begin() && _F <= end());
; 444  :         assert(_L >= begin() && _L <= end());
; 445  :         assert(_P >= begin() && _P <= _End);
; 446  :         assert(_P + (_L - _F) > end());
; 447  :         assert(_P + (_L - _F) <= _End);
; 448  :         assert(_F <= _L);
; 449  :         assert(_P > _F);
; 450  :         
; 451  :         //
; 452  :         // Starting from last item in the range, re-construct the items
; 453  :         // in their new position and destroy them in the old position.
; 454  :         //
; 455  :         for(--_L, _P += _L - _F; _L >= _F; --_P, --_L)

  00000	e2420004	 sub         r0, r2, #4
  00004	e0402001	 sub         r2, r0, r1
  00008	e1a02142	 mov         r2, r2, asr #2
  0000c	e0832102	 add         r2, r3, r2, lsl #2
  00010	ea000004	 b           |$LN12@MoveForwar|
  00014		 |$LL3@MoveForwar|

; 456  :         {
; 457  :             new (_P) T(*_L);

  00014	e3520000	 cmp         r2, #0
  00018	15903000	 ldrne       r3, [r0]
  0001c	e2400004	 sub         r0, r0, #4
  00020	15823000	 strne       r3, [r2]
  00024	e2422004	 sub         r2, r2, #4
  00028		 |$LN12@MoveForwar|
  00028	e1500001	 cmp         r0, r1
  0002c	2afffff8	 bcs         |$LL3@MoveForwar|

; 458  :             _L->~T();
; 459  :         }
; 460  :     }

  00030	e12fff1e	 bx          lr
  00034		 |$M39240|

			 ENDP  ; |?_MoveForward@?$vector@KVallocator@ce@@U?$incremental_growth@$09@2@@ce@@IAAXPAK00@Z|, ce::vector<unsigned long,ce::allocator,ce::incremental_growth<10> >::_MoveForward

	EXPORT	|?get_growth@?$incremental_growth@$09@ce@@SAIIII@Z| ; ce::incremental_growth<10>::get_growth

  00000			 AREA	 |.pdata|, PDATA
|$T39252| DCD	|$LN5@get_growth|
	DCD	0x40000200
; Function compile flags: /Ogspy

  00000			 AREA	 |.text|, CODE, ARM

  00000		 |?get_growth@?$incremental_growth@$09@ce@@SAIIII@Z| PROC ; ce::incremental_growth<10>::get_growth

; 99   :         {return Need + Increment; }

  00000		 |$LN5@get_growth|
  00000		 |$M39249|
  00000	e282000a	 add         r0, r2, #0xA
  00004	e12fff1e	 bx          lr
  00008		 |$M39250|

			 ENDP  ; |?get_growth@?$incremental_growth@$09@ce@@SAIIII@Z|, ce::incremental_growth<10>::get_growth

	EXPORT	|?erase@?$list@PAVBusDriverChild_t@@Vallocator@ce@@@ce@@QAA?AViterator@12@V312@@Z| ; ce::list<BusDriverChild_t *,ce::allocator>::erase
; File c:\wince600\public\common\oak\inc\allocator.hxx

  00000			 AREA	 |.pdata|, PDATA
|$T39289| DCD	|$LN15@erase|
	DCD	0x40001503
; Function compile flags: /Ogspy
; File c:\wince600\public\common\oak\inc\list.hxx

  00000			 AREA	 |.text|, CODE, ARM

  00000		 |?erase@?$list@PAVBusDriverChild_t@@Vallocator@ce@@@ce@@QAA?AViterator@12@V312@@Z| PROC ; ce::list<BusDriverChild_t *,ce::allocator>::erase

; 359  :     {

  00000		 |$LN15@erase|
  00000	e1a0c00d	 mov         r12, sp
  00004	e92d000f	 stmdb       sp!, {r0 - r3}
  00008	e92d5070	 stmdb       sp!, {r4 - r6, r12, lr}
  0000c		 |$M39286|
  0000c	e1a05001	 mov         r5, r1
  00010	e1a06000	 mov         r6, r0

; 360  :         assert(Where != end());
; 361  :         
; 362  :         _NodePtr WhereNode = (Where++)._MyNode();
; 363  : 
; 364  :         assert(WhereNode);
; 365  :         __assume(WhereNode);
; 366  :         assert(WhereNode->_Prev);
; 367  :         __assume(WhereNode->_Prev);
; 368  :         assert(WhereNode->_Next);
; 369  :         __assume(WhereNode->_Next);
; 370  :         
; 371  :         WhereNode->_Prev->_Next = WhereNode->_Next;

  00014	e592e008	 ldr         lr, [r2, #8]
  00018	e5923004	 ldr         r3, [r2, #4]

; 372  :         WhereNode->_Next->_Prev = WhereNode->_Prev;
; 373  :         
; 374  :         WhereNode->_Value.~T();
; 375  :         _Freenode(WhereNode);

  0001c	e1a00002	 mov         r0, r2
  00020	e1a04003	 mov         r4, r3
  00024	e58e3004	 str         r3, [lr, #4]
  00028	e592e004	 ldr         lr, [r2, #4]
  0002c	e5923008	 ldr         r3, [r2, #8]
  00030	e58e3008	 str         r3, [lr, #8]
  00034	eb000000	 bl          |??3@YAXPAX@Z|

; 376  :         
; 377  :         --_Size;

  00038	e596300c	 ldr         r3, [r6, #0xC]

; 378  :         
; 379  :         return Where;

  0003c	e5854000	 str         r4, [r5]

; 380  :     }

  00040	e1a00005	 mov         r0, r5
  00044	e2433001	 sub         r3, r3, #1
  00048	e586300c	 str         r3, [r6, #0xC]
  0004c	e89d6070	 ldmia       sp, {r4 - r6, sp, lr}
  00050	e12fff1e	 bx          lr
  00054		 |$M39287|

			 ENDP  ; |?erase@?$list@PAVBusDriverChild_t@@Vallocator@ce@@@ce@@QAA?AViterator@12@V312@@Z|, ce::list<BusDriverChild_t *,ce::allocator>::erase

	EXPORT	|??9iterator@?$list@PAVBusDriverChild_t@@Vallocator@ce@@@ce@@QBA_NABV012@@Z| ; ce::list<BusDriverChild_t *,ce::allocator>::iterator::operator!=

  00000			 AREA	 |.pdata|, PDATA
|$T39309| DCD	|$LN11@operator@8|
	DCD	0x40000b00
; Function compile flags: /Ogspy

  00000			 AREA	 |.text|, CODE, ARM

  00000		 |??9iterator@?$list@PAVBusDriverChild_t@@Vallocator@ce@@@ce@@QBA_NABV012@@Z| PROC ; ce::list<BusDriverChild_t *,ce::allocator>::iterator::operator!=

; 546  :             {return (!(*this == it)); }

  00000		 |$LN11@operator@8|
  00000		 |$M39306|
  00000	e5902000	 ldr         r2, [r0]
  00004	e5913000	 ldr         r3, [r1]
  00008	e1520003	 cmp         r2, r3
  0000c	03a03001	 moveq       r3, #1
  00010	13a03000	 movne       r3, #0
  00014	e21330ff	 ands        r3, r3, #0xFF
  00018	03a03001	 moveq       r3, #1
  0001c	020300ff	 andeq       r0, r3, #0xFF
  00020	13a03000	 movne       r3, #0
  00024	120300ff	 andne       r0, r3, #0xFF
  00028	e12fff1e	 bx          lr
  0002c		 |$M39307|

			 ENDP  ; |??9iterator@?$list@PAVBusDriverChild_t@@Vallocator@ce@@@ce@@QBA_NABV012@@Z|, ce::list<BusDriverChild_t *,ce::allocator>::iterator::operator!=

	EXPORT	|?insert@?$_string_t@G$0BA@U?$char_traits@G@ce@@Vallocator@2@@ce@@QAA_NIPBGI@Z| ; ce::_string_t<unsigned short,16,ce::char_traits<unsigned short>,ce::allocator>::insert
; File c:\wince600\public\common\oak\inc\string.hxx

  00000			 AREA	 |.pdata|, PDATA
|$T39336| DCD	|$LN14@insert|
	DCD	0x40002601
; Function compile flags: /Ogspy

  00000			 AREA	 |.text|, CODE, ARM

  00000		 |?insert@?$_string_t@G$0BA@U?$char_traits@G@ce@@Vallocator@2@@ce@@QAA_NIPBGI@Z| PROC ; ce::_string_t<unsigned short,16,ce::char_traits<unsigned short>,ce::allocator>::insert

; 346  :     {

  00000		 |$LN14@insert|
  00000	e92d47f0	 stmdb       sp!, {r4 - r10, lr}
  00004		 |$M39333|
  00004	e1b08003	 movs        r8, r3
  00008	e1a0a002	 mov         r10, r2
  0000c	e1a09001	 mov         r9, r1
  00010	e1a06000	 mov         r6, r0

; 347  :         // behavior of insert is undefined when inserting substring
; 348  :         assert(_S < _Ptr || _S >= _Ptr + _Len);
; 349  :         
; 350  :         if(0 < _Count)

  00014	0a000019	 beq         |$LN1@insert|

; 351  :         {
; 352  :             size_type _Num;
; 353  :             
; 354  :             if(_Len + _Count >= _Len &&     // protect against integer overflow
; 355  :                _Grow(_Num = _Len + _Count))

  00018	e596e028	 ldr         lr, [r6, #0x28]
  0001c	e08e7008	 add         r7, lr, r8
  00020	e157000e	 cmp         r7, lr
  00024	3a000018	 bcc         |$LN2@insert|
  00028	e1a01007	 mov         r1, r7
  0002c	eb000000	 bl          |?_Grow@?$_string_t@G$0BA@U?$char_traits@G@ce@@Vallocator@2@@ce@@IAA_NI@Z|
  00030	e3500000	 cmp         r0, #0
  00034	0a000014	 beq         |$LN2@insert|

; 356  :             {
; 357  :                 _Tr::copy(_Ptr + _Off + _Count, _Ptr + _Off, _Len - _Off);

  00038	e596e028	 ldr         lr, [r6, #0x28]
  0003c	e5965000	 ldr         r5, [r6]
  00040	e0894008	 add         r4, r9, r8
  00044	e04ee009	 sub         lr, lr, r9
  00048	e1a0208e	 mov         r2, lr, lsl #1
  0004c	e0851089	 add         r1, r5, r9, lsl #1
  00050	e0850084	 add         r0, r5, r4, lsl #1
  00054	eb000000	 bl          memmove

; 358  :                 _Tr::copy(_Ptr + _Off, _S, _Count);

  00058	e5963000	 ldr         r3, [r6]
  0005c	e1a02088	 mov         r2, r8, lsl #1
  00060	e1a0100a	 mov         r1, r10
  00064	e0830089	 add         r0, r3, r9, lsl #1
  00068	eb000000	 bl          memmove

; 359  :                 _Eos(_Num);

  0006c	e5963000	 ldr         r3, [r6]
  00070	e3a02000	 mov         r2, #0
  00074	e5867028	 str         r7, [r6, #0x28]
  00078	e0833087	 add         r3, r3, r7, lsl #1
  0007c	e1c320b0	 strh        r2, [r3]
  00080		 |$LN1@insert|

; 363  :         }
; 364  :         
; 365  :         return true;

  00080	e3a00001	 mov         r0, #1

; 366  :     }

  00084	e8bd47f0	 ldmia       sp!, {r4 - r10, lr}
  00088	e12fff1e	 bx          lr
  0008c		 |$LN2@insert|

; 360  :             }
; 361  :             else
; 362  :                 return false;

  0008c	e3a00000	 mov         r0, #0

; 366  :     }

  00090	e8bd47f0	 ldmia       sp!, {r4 - r10, lr}
  00094	e12fff1e	 bx          lr
  00098		 |$M39334|

			 ENDP  ; |?insert@?$_string_t@G$0BA@U?$char_traits@G@ce@@Vallocator@2@@ce@@QAA_NIPBGI@Z|, ce::_string_t<unsigned short,16,ce::char_traits<unsigned short>,ce::allocator>::insert

	EXPORT	|?_Init@?$_string_t@G$0BA@U?$char_traits@G@ce@@Vallocator@2@@ce@@IAAXXZ| ; ce::_string_t<unsigned short,16,ce::char_traits<unsigned short>,ce::allocator>::_Init

  00000			 AREA	 |.pdata|, PDATA
|$T39347| DCD	|$LN7@Init|
	DCD	0x40000a00
; Function compile flags: /Ogspy

  00000			 AREA	 |.text|, CODE, ARM

  00000		 |?_Init@?$_string_t@G$0BA@U?$char_traits@G@ce@@Vallocator@2@@ce@@IAAXXZ| PROC ; ce::_string_t<unsigned short,16,ce::char_traits<unsigned short>,ce::allocator>::_Init

; 512  :     {

  00000		 |$LN7@Init|
  00000		 |$M39344|

; 513  :         _Res = _BUF_SIZE;

  00000	e3a02010	 mov         r2, #0x10

; 514  :         _Ptr = _Buf;

  00004	e580202c	 str         r2, [r0, #0x2C]
  00008	e2803004	 add         r3, r0, #4

; 515  :         _Ptr[_Res] = T(0);

  0000c	e3a02000	 mov         r2, #0
  00010	e5803000	 str         r3, [r0]
  00014	e1c022b4	 strh        r2, [r0, #0x24]

; 516  :         _Eos(0);

  00018	e5903000	 ldr         r3, [r0]
  0001c	e5802028	 str         r2, [r0, #0x28]
  00020	e1c320b0	 strh        r2, [r3]

; 517  :     }

  00024	e12fff1e	 bx          lr
  00028		 |$M39345|

			 ENDP  ; |?_Init@?$_string_t@G$0BA@U?$char_traits@G@ce@@Vallocator@2@@ce@@IAAXXZ|, ce::_string_t<unsigned short,16,ce::char_traits<unsigned short>,ce::allocator>::_Init

	EXPORT	|??0iterator@?$list@PAVBusDriverChild_t@@Vallocator@ce@@@ce@@QAA@PAU_Node@12@@Z| ; ce::list<BusDriverChild_t *,ce::allocator>::iterator::iterator
; File c:\wince600\public\common\oak\inc\list.hxx

  00000			 AREA	 |.pdata|, PDATA
|$T39361| DCD	|$LN7@iterator|
	DCD	0x40000200
; Function compile flags: /Ogspy

  00000			 AREA	 |.text|, CODE, ARM

  00000		 |??0iterator@?$list@PAVBusDriverChild_t@@Vallocator@ce@@@ce@@QAA@PAU_Node@12@@Z| PROC ; ce::list<BusDriverChild_t *,ce::allocator>::iterator::iterator

; 523  :         iterator(_NodePtr _P)

  00000		 |$LN7@iterator|
  00000		 |$M39358|
  00000	e5801000	 str         r1, [r0]
  00004	e12fff1e	 bx          lr
  00008		 |$M39359|

			 ENDP  ; |??0iterator@?$list@PAVBusDriverChild_t@@Vallocator@ce@@@ce@@QAA@PAU_Node@12@@Z|, ce::list<BusDriverChild_t *,ce::allocator>::iterator::iterator

	EXPORT	|?erase@?$list@PAVBusDriverChild_t@@Vallocator@ce@@@ce@@QAA?AViterator@12@V312@0@Z| ; ce::list<BusDriverChild_t *,ce::allocator>::erase

  00000			 AREA	 |.pdata|, PDATA
|$T39405| DCD	|$LN20@erase@2|
	DCD	0x40001b04
; Function compile flags: /Ogspy

  00000			 AREA	 |.text|, CODE, ARM

  00000		 |?erase@?$list@PAVBusDriverChild_t@@Vallocator@ce@@@ce@@QAA?AViterator@12@V312@0@Z| PROC ; ce::list<BusDriverChild_t *,ce::allocator>::erase

; 383  :     {    

  00000		 |$LN20@erase@2|
  00000	e1a0c00d	 mov         r12, sp
  00004	e92d000f	 stmdb       sp!, {r0 - r3}
  00008	e92d50f0	 stmdb       sp!, {r4 - r7, r12, lr}
  0000c	e24dd004	 sub         sp, sp, #4
  00010		 |$M39402|
  00010	e1a06003	 mov         r6, r3
  00014	e1a04002	 mov         r4, r2
  00018	e1a05001	 mov         r5, r1
  0001c	e1a07000	 mov         r7, r0
  00020		 |$LL2@erase@2|

; 384  :         while (First != Last)

  00020	e1540006	 cmp         r4, r6
  00024	03a02001	 moveq       r2, #1
  00028	13a02000	 movne       r2, #0
  0002c	e21230ff	 ands        r3, r2, #0xFF
  00030	03a03001	 moveq       r3, #1
  00034	13a03000	 movne       r3, #0
  00038	e21330ff	 ands        r3, r3, #0xFF

; 388  :     }

  0003c	0a000005	 beq         |$LN1@erase@2|
  00040	e1a02004	 mov         r2, r4
  00044	e5944004	 ldr         r4, [r4, #4]
  00048	e28d1000	 add         r1, sp, #0
  0004c	e1a00007	 mov         r0, r7
  00050	eb000000	 bl          |?erase@?$list@PAVBusDriverChild_t@@Vallocator@ce@@@ce@@QAA?AViterator@12@V312@@Z|
  00054	eafffff1	 b           |$LL2@erase@2|
  00058		 |$LN1@erase@2|

; 385  :             erase(First++);
; 386  :         
; 387  :         return First; 

  00058	e5854000	 str         r4, [r5]

; 388  :     }

  0005c	e1a00005	 mov         r0, r5
  00060	e28dd004	 add         sp, sp, #4
  00064	e89d60f0	 ldmia       sp, {r4 - r7, sp, lr}
  00068	e12fff1e	 bx          lr
  0006c		 |$M39403|

			 ENDP  ; |?erase@?$list@PAVBusDriverChild_t@@Vallocator@ce@@@ce@@QAA?AViterator@12@V312@0@Z|, ce::list<BusDriverChild_t *,ce::allocator>::erase

	EXPORT	|?_MoveBackward@?$vector@KVallocator@ce@@U?$incremental_growth@$09@2@@ce@@IAAXPAK00@Z| ; ce::vector<unsigned long,ce::allocator,ce::incremental_growth<10> >::_MoveBackward
; File c:\wince600\public\common\oak\inc\vector.hxx

  00000			 AREA	 |.pdata|, PDATA
|$T39433| DCD	|$LN22@MoveBackwa|
	DCD	0x40000900
; Function compile flags: /Ogspy

  00000			 AREA	 |.text|, CODE, ARM

  00000		 |?_MoveBackward@?$vector@KVallocator@ce@@U?$incremental_growth@$09@2@@ce@@IAAXPAK00@Z| PROC ; ce::vector<unsigned long,ce::allocator,ce::incremental_growth<10> >::_MoveBackward

; 465  :     {

  00000		 |$LN22@MoveBackwa|
  00000		 |$M39430|

; 466  :         assert(_F >= begin() && _F <= end());
; 467  :         assert(_L >= begin() && _L <= end());
; 468  :         assert(_P >= begin() && _P <= end());
; 469  :         assert(_F <= _L);
; 470  :         assert(_P <= _F);
; 471  :         
; 472  :         //
; 473  :         // Starting from first item in the range, destroy existing item at new position
; 474  :         // and then re-construct item being move in there.
; 475  :         //
; 476  :         for(; _F != _L; ++_P, ++_F)
; 477  :         {
; 478  :             _P->~T();
; 479  :             new (_P) T(*_F);

  00000	ea000004	 b           |$LN19@MoveBackwa|
  00004		 |$LL3@MoveBackwa|
  00004	e3530000	 cmp         r3, #0
  00008	15910000	 ldrne       r0, [r1]
  0000c	e2811004	 add         r1, r1, #4
  00010	15830000	 strne       r0, [r3]
  00014	e2833004	 add         r3, r3, #4
  00018		 |$LN19@MoveBackwa|
  00018	e1510002	 cmp         r1, r2
  0001c	1afffff8	 bne         |$LL3@MoveBackwa|

; 480  :         }
; 481  :         
; 482  :         // Destroy moved items that were not overwritten by other moved items
; 483  :         _Destroy(_P, _L);
; 484  :     }

  00020	e12fff1e	 bx          lr
  00024		 |$M39431|

			 ENDP  ; |?_MoveBackward@?$vector@KVallocator@ce@@U?$incremental_growth@$09@2@@ce@@IAAXPAK00@Z|, ce::vector<unsigned long,ce::allocator,ce::incremental_growth<10> >::_MoveBackward

	EXPORT	|??__Fcs@?1??get_lock@?$singleton@V?$free_list@$0GE@Vallocator@ce@@@ce@@$03V?$static_allocator@V?$free_list@$0GE@Vallocator@ce@@@ce@@$03@2@@ce@@KAAAVcritical_section@2@XZ@YAXXZ| ; `ce::singleton<ce::free_list<100,ce::allocator>,4,ce::static_allocator<ce::free_list<100,ce::allocator>,4> >::get_lock'::`2'::`dynamic atexit destructor for 'cs''
	EXPORT	|??_B?1??get_lock@?$singleton@V?$free_list@$0GE@Vallocator@ce@@@ce@@$03V?$static_allocator@V?$free_list@$0GE@Vallocator@ce@@@ce@@$03@2@@ce@@KAAAVcritical_section@2@XZ@51| [ DATA ] ; `ce::singleton<ce::free_list<100,ce::allocator>,4,ce::static_allocator<ce::free_list<100,ce::allocator>,4> >::get_lock'::`2'::`local static guard'
	EXPORT	|?get_lock@?$singleton@V?$free_list@$0GE@Vallocator@ce@@@ce@@$03V?$static_allocator@V?$free_list@$0GE@Vallocator@ce@@@ce@@$03@2@@ce@@KAAAVcritical_section@2@XZ| ; ce::singleton<ce::free_list<100,ce::allocator>,4,ce::static_allocator<ce::free_list<100,ce::allocator>,4> >::get_lock
	EXPORT	|?cs@?1??get_lock@?$singleton@V?$free_list@$0GE@Vallocator@ce@@@ce@@$03V?$static_allocator@V?$free_list@$0GE@Vallocator@ce@@@ce@@$03@2@@ce@@KAAAVcritical_section@3@XZ@4V43@A| [ DATA ] ; `ce::singleton<ce::free_list<100,ce::allocator>,4,ce::static_allocator<ce::free_list<100,ce::allocator>,4> >::get_lock'::`2'::cs
	IMPORT	|atexit|
; File c:\wince600\public\common\oak\inc\sync.hxx

  00000			 AREA	 |.bss|, NOINIT
|??_B?1??get_lock@?$singleton@V?$free_list@$0GE@Vallocator@ce@@@ce@@$03V?$static_allocator@V?$free_list@$0GE@Vallocator@ce@@@ce@@$03@2@@ce@@KAAAVcritical_section@2@XZ@51| % 0x4 ; `ce::singleton<ce::free_list<100,ce::allocator>,4,ce::static_allocator<ce::free_list<100,ce::allocator>,4> >::get_lock'::`2'::`local static guard'

  00000			 AREA	 |.bss|, NOINIT
|?cs@?1??get_lock@?$singleton@V?$free_list@$0GE@Vallocator@ce@@@ce@@$03V?$static_allocator@V?$free_list@$0GE@Vallocator@ce@@@ce@@$03@2@@ce@@KAAAVcritical_section@3@XZ@4V43@A| % 0x14 ; `ce::singleton<ce::free_list<100,ce::allocator>,4,ce::static_allocator<ce::free_list<100,ce::allocator>,4> >::get_lock'::`2'::cs

  00000			 AREA	 |.pdata|, PDATA
|$T39445| DCD	|$LN8@get_lock|
	DCD	0x40001602
; Function compile flags: /Ogspy
; File c:\wince600\public\common\oak\inc\singleton.hxx

  00000			 AREA	 |.text|, CODE, ARM

  00000		 |?get_lock@?$singleton@V?$free_list@$0GE@Vallocator@ce@@@ce@@$03V?$static_allocator@V?$free_list@$0GE@Vallocator@ce@@@ce@@$03@2@@ce@@KAAAVcritical_section@2@XZ| PROC ; ce::singleton<ce::free_list<100,ce::allocator>,4,ce::static_allocator<ce::free_list<100,ce::allocator>,4> >::get_lock

; 320  :     {

  00000		 |$LN8@get_lock|
  00000	e52de004	 str         lr, [sp, #-4]!
  00004	e24dd004	 sub         sp, sp, #4
  00008		 |$M39442|

; 321  :         static critical_section cs;

  00008	e59f2044	 ldr         r2, [pc, #0x44]
  0000c	e5923000	 ldr         r3, [r2]
  00010	e3130001	 tst         r3, #1
  00014	1a000005	 bne         |$LN1@get_lock|
  00018	e59f0028	 ldr         r0, [pc, #0x28]
  0001c	e3833001	 orr         r3, r3, #1
  00020	e5823000	 str         r3, [r2]
  00024	eb000000	 bl          InitializeCriticalSection
  00028	e59f0020	 ldr         r0, [pc, #0x20]
  0002c	eb000000	 bl          atexit
  00030		 |$LN1@get_lock|

; 322  :         
; 323  :         //
; 324  :         // This statement forces compiler to instantiate _factory member
; 325  :         // thus assuring that lock_factory ctor is called. 
; 326  :         //
; 327  :         lock_factory* volatile p = &_factory;

  00030	e59f3014	 ldr         r3, [pc, #0x14]

; 328  : 
; 329  :         return cs;
; 330  :     }

  00034	e59f000c	 ldr         r0, [pc, #0xC]
  00038	e58d3000	 str         r3, [sp]
  0003c	e28dd004	 add         sp, sp, #4
  00040	e49de004	 ldr         lr, [sp], #4
  00044	e12fff1e	 bx          lr
  00048		 |$LN9@get_lock|
  00048		 |$LN10@get_lock|
  00048	00000000	 DCD         |?cs@?1??get_lock@?$singleton@V?$free_list@$0GE@Vallocator@ce@@@ce@@$03V?$static_allocator@V?$free_list@$0GE@Vallocator@ce@@@ce@@$03@2@@ce@@KAAAVcritical_section@3@XZ@4V43@A|
  0004c		 |$LN11@get_lock|
  0004c	00000000	 DCD         |?_factory@?$singleton@V?$free_list@$0GE@Vallocator@ce@@@ce@@$03V?$static_allocator@V?$free_list@$0GE@Vallocator@ce@@@ce@@$03@2@@ce@@1Ulock_factory@12@A|
  00050		 |$LN12@get_lock|
  00050	00000000	 DCD         |??__Fcs@?1??get_lock@?$singleton@V?$free_list@$0GE@Vallocator@ce@@@ce@@$03V?$static_allocator@V?$free_list@$0GE@Vallocator@ce@@@ce@@$03@2@@ce@@KAAAVcritical_section@2@XZ@YAXXZ|
  00054		 |$LN13@get_lock|
  00054	00000000	 DCD         |??_B?1??get_lock@?$singleton@V?$free_list@$0GE@Vallocator@ce@@@ce@@$03V?$static_allocator@V?$free_list@$0GE@Vallocator@ce@@@ce@@$03@2@@ce@@KAAAVcritical_section@2@XZ@51|
  00058		 |$M39443|

			 ENDP  ; |?get_lock@?$singleton@V?$free_list@$0GE@Vallocator@ce@@@ce@@$03V?$static_allocator@V?$free_list@$0GE@Vallocator@ce@@@ce@@$03@2@@ce@@KAAAVcritical_section@2@XZ|, ce::singleton<ce::free_list<100,ce::allocator>,4,ce::static_allocator<ce::free_list<100,ce::allocator>,4> >::get_lock

	EXPORT	|?get_buffer@?$_string_t@G$0BA@U?$char_traits@G@ce@@Vallocator@2@@ce@@QAA?AV_buffer@12@XZ| ; ce::_string_t<unsigned short,16,ce::char_traits<unsigned short>,ce::allocator>::get_buffer
; File c:\wince600\public\common\oak\inc\string.hxx

  00000			 AREA	 |.pdata|, PDATA
|$T39464| DCD	|$LN7@get_buffer|
	DCD	0x40000300
; Function compile flags: /Ogspy

  00000			 AREA	 |.text|, CODE, ARM

  00000		 |?get_buffer@?$_string_t@G$0BA@U?$char_traits@G@ce@@Vallocator@2@@ce@@QAA?AV_buffer@12@XZ| PROC ; ce::_string_t<unsigned short,16,ce::char_traits<unsigned short>,ce::allocator>::get_buffer

; 396  :         {return this; }

  00000		 |$LN7@get_buffer|
  00000		 |$M39461|
  00000	e5810000	 str         r0, [r1]
  00004	e1a00001	 mov         r0, r1
  00008	e12fff1e	 bx          lr
  0000c		 |$M39462|

			 ENDP  ; |?get_buffer@?$_string_t@G$0BA@U?$char_traits@G@ce@@Vallocator@2@@ce@@QAA?AV_buffer@12@XZ|, ce::_string_t<unsigned short,16,ce::char_traits<unsigned short>,ce::allocator>::get_buffer

	EXPORT	|??0lock_factory@?$singleton@V?$free_list@$0GE@Vallocator@ce@@@ce@@$03V?$static_allocator@V?$free_list@$0GE@Vallocator@ce@@@ce@@$03@2@@ce@@QAA@XZ| ; ce::singleton<ce::free_list<100,ce::allocator>,4,ce::static_allocator<ce::free_list<100,ce::allocator>,4> >::lock_factory::lock_factory
; File c:\wince600\public\common\oak\inc\singleton.hxx

  00000			 AREA	 |.pdata|, PDATA
|$T39474| DCD	|$LN5@lock_facto|
	DCD	0x40000601
; Function compile flags: /Ogspy

  00000			 AREA	 |.text|, CODE, ARM

  00000		 |??0lock_factory@?$singleton@V?$free_list@$0GE@Vallocator@ce@@@ce@@$03V?$static_allocator@V?$free_list@$0GE@Vallocator@ce@@@ce@@$03@2@@ce@@QAA@XZ| PROC ; ce::singleton<ce::free_list<100,ce::allocator>,4,ce::static_allocator<ce::free_list<100,ce::allocator>,4> >::lock_factory::lock_factory

; 339  :         lock_factory()

  00000		 |$LN5@lock_facto|
  00000	e92d4010	 stmdb       sp!, {r4, lr}
  00004		 |$M39471|
  00004	e1a04000	 mov         r4, r0
  00008	eb000000	 bl          |?get_lock@?$singleton@V?$free_list@$0GE@Vallocator@ce@@@ce@@$03V?$static_allocator@V?$free_list@$0GE@Vallocator@ce@@@ce@@$03@2@@ce@@KAAAVcritical_section@2@XZ|

; 340  :             {get_lock(); }

  0000c	e1a00004	 mov         r0, r4
  00010	e8bd4010	 ldmia       sp!, {r4, lr}
  00014	e12fff1e	 bx          lr
  00018		 |$M39472|

			 ENDP  ; |??0lock_factory@?$singleton@V?$free_list@$0GE@Vallocator@ce@@@ce@@$03V?$static_allocator@V?$free_list@$0GE@Vallocator@ce@@@ce@@$03@2@@ce@@QAA@XZ|, ce::singleton<ce::free_list<100,ce::allocator>,4,ce::static_allocator<ce::free_list<100,ce::allocator>,4> >::lock_factory::lock_factory

	EXPORT	|??$insert@K@?$vector@KVallocator@ce@@U?$incremental_growth@$09@2@@ce@@QAA_NPAKIABK@Z| ; ce::vector<unsigned long,ce::allocator,ce::incremental_growth<10> >::insert<unsigned long>
; File c:\wince600\public\common\sdk\inc\new

  00000			 AREA	 |.pdata|, PDATA
|$T39640| DCD	|$LN101@insert@2|
	DCD	0x40005b01
; Function compile flags: /Ogspy
; File c:\wince600\public\common\oak\inc\vector.hxx

  00000			 AREA	 |.text|, CODE, ARM

  00000		 |??$insert@K@?$vector@KVallocator@ce@@U?$incremental_growth@$09@2@@ce@@QAA_NPAKIABK@Z| PROC ; ce::vector<unsigned long,ce::allocator,ce::incremental_growth<10> >::insert<unsigned long>

; 299  :     bool insert(iterator _Where, size_type _N, const _Val& _X)

  00000		 |$LN101@insert@2|
  00000	e92d47f0	 stmdb       sp!, {r4 - r10, lr}
  00004		 |$M39637|
  00004	e1a0a003	 mov         r10, r3
  00008	e1a07002	 mov         r7, r2
  0000c	e1a06001	 mov         r6, r1
  00010	e1a08000	 mov         r8, r0

; 300  :     {
; 301  :         assert(_Where >= begin());
; 302  :         assert(_Where <= end());
; 303  :         
; 304  :         if(_N > capacity() - size())

  00014	e5985000	 ldr         r5, [r8]
  00018	e5982004	 ldr         r2, [r8, #4]
  0001c	e5984008	 ldr         r4, [r8, #8]
  00020	e042e005	 sub         lr, r2, r5
  00024	e1a0114e	 mov         r1, lr, asr #2
  00028	e044e005	 sub         lr, r4, r5
  0002c	e061e14e	 rsb         lr, r1, lr, asr #2
  00030	e157000e	 cmp         r7, lr
  00034	9a000032	 bls         |$LN12@insert@2|

; 305  :         {
; 306  :             //
; 307  :             // The vector doesn't have space for _N additional items so it has to grow
; 308  :             //
; 309  :             size_t _GrowBy = _Tr::get_growth(size(), capacity(), _N);

  00038	e287200a	 add         r2, r7, #0xA

; 310  :             
; 311  :             if(_GrowBy < _N)

  0003c	e1520007	 cmp         r2, r7
  00040	2a000002	 bcs         |$LN11@insert@2|
  00044		 |$LN9@insert@2|

; 312  :                 return false; // integer overflow or faulty growth policy

  00044	e3a00000	 mov         r0, #0

; 369  :     }

  00048	e8bd47f0	 ldmia       sp!, {r4 - r10, lr}
  0004c	e12fff1e	 bx          lr
  00050		 |$LN11@insert@2|

; 313  :             
; 314  :             size_type _NewCapacity = size() + _GrowBy;

  00050	e0815002	 add         r5, r1, r2

; 315  :             
; 316  :             // protected against integer overflow
; 317  :             if(_NewCapacity > ULONG_MAX / sizeof(T) ||
; 318  :                _NewCapacity < size())

  00054	e3750107	 cmn         r5, #7, 2
  00058	8afffff9	 bhi         |$LN9@insert@2|
  0005c	e1550001	 cmp         r5, r1
  00060	3afffff7	 bcc         |$LN9@insert@2|

; 319  :             {
; 320  :                 return false;
; 321  :             }
; 322  :             
; 323  :             iterator _New = reinterpret_cast<iterator>(allocate(_NewCapacity * sizeof(T)));

  00064	e1a00105	 mov         r0, r5, lsl #2
  00068	eb000000	 bl          |??2@YAPAXI@Z|
  0006c	e1b09000	 movs        r9, r0

; 324  :             
; 325  :             if(NULL == _New)
; 326  :                 return false;

  00070	0afffff3	 beq         |$LN9@insert@2|

; 327  :                 
; 328  :             //
; 329  :             // Copy items from the beginning to the insertion possition
; 330  :             //
; 331  :             iterator _Item = _Copy(begin(), _Where, _New);

  00074	e5982000	 ldr         r2, [r8]
  00078	e1a04009	 mov         r4, r9
  0007c	ea000004	 b           |$LN97@insert@2|
  00080		 |$LL39@insert@2|
  00080	e3540000	 cmp         r4, #0
  00084	15923000	 ldrne       r3, [r2]
  00088	e2822004	 add         r2, r2, #4
  0008c	15843000	 strne       r3, [r4]
  00090	e2844004	 add         r4, r4, #4
  00094		 |$LN97@insert@2|
  00094	e1520006	 cmp         r2, r6
  00098	1afffff8	 bne         |$LL39@insert@2|

; 332  :             
; 333  :             //
; 334  :             // Insert new item(s)
; 335  :             //
; 336  :             for(; _N > 0; --_N, ++_Item)

  0009c	e3570000	 cmp         r7, #0
  000a0	0a000005	 beq         |$LN5@insert@2|
  000a4		 |$LL7@insert@2|

; 337  :                 new (_Item)T(_X);

  000a4	e3540000	 cmp         r4, #0
  000a8	159a3000	 ldrne       r3, [r10]
  000ac	15843000	 strne       r3, [r4]
  000b0	e2577001	 subs        r7, r7, #1
  000b4	e2844004	 add         r4, r4, #4
  000b8	1afffff9	 bne         |$LL7@insert@2|
  000bc		 |$LN5@insert@2|

; 338  :                 
; 339  :             //
; 340  :             // Copy items from the insertion possition to the end
; 341  :             //
; 342  :             _Item = _Copy(_Where, end(), _Item);

  000bc	e5981004	 ldr         r1, [r8, #4]
  000c0	e1560001	 cmp         r6, r1
  000c4	0a000007	 beq         |$LN50@insert@2|
  000c8	e0462004	 sub         r2, r6, r4
  000cc		 |$LL52@insert@2|
  000cc	e3540000	 cmp         r4, #0
  000d0	17923004	 ldrne       r3, [r2, +r4]
  000d4	15843000	 strne       r3, [r4]
  000d8	e2844004	 add         r4, r4, #4
  000dc	e0823004	 add         r3, r2, r4
  000e0	e1530001	 cmp         r3, r1
  000e4	1afffff8	 bne         |$LL52@insert@2|
  000e8		 |$LN50@insert@2|

; 343  :             
; 344  :             //
; 345  :             // Destroy elements and deallocate old memory
; 346  :             //
; 347  :             _Destroy(begin(), end());
; 348  :             deallocate(_First, capacity() * sizeof(T));

  000e8	e5980000	 ldr         r0, [r8]
  000ec	eb000000	 bl          |??3@YAXPAX@Z|

; 349  :             
; 350  :             _First = _New;
; 351  :             _Last = _Item;
; 352  :             _End = _First + _NewCapacity;

  000f0	e0893105	 add         r3, r9, r5, lsl #2
  000f4	e5883008	 str         r3, [r8, #8]
  000f8	e5889000	 str         r9, [r8]
  000fc	e5884004	 str         r4, [r8, #4]

; 353  :         }
; 354  :         else

  00100	ea000016	 b           |$LN1@insert@2|
  00104		 |$LN12@insert@2|

; 355  :         {
; 356  :             //
; 357  :             // Vector has enough space, we need to move existing items and insert new ones
; 358  :             //
; 359  :             _MoveForward(_Where, end(), _Where + _N);

  00104	e2422004	 sub         r2, r2, #4
  00108	e0423006	 sub         r3, r2, r6
  0010c	e0873143	 add         r3, r7, r3, asr #2
  00110	e0861103	 add         r1, r6, r3, lsl #2
  00114	ea000004	 b           |$LN98@insert@2|
  00118		 |$LL76@insert@2|
  00118	e3510000	 cmp         r1, #0
  0011c	15923000	 ldrne       r3, [r2]
  00120	e2422004	 sub         r2, r2, #4
  00124	15813000	 strne       r3, [r1]
  00128	e2411004	 sub         r1, r1, #4
  0012c		 |$LN98@insert@2|
  0012c	e1520006	 cmp         r2, r6
  00130	2afffff8	 bcs         |$LL76@insert@2|

; 360  :             
; 361  :             //
; 362  :             // Insert new item(s)
; 363  :             //
; 364  :             for(; _N > 0; --_N, ++_Where, ++_Last)

  00134	e3570000	 cmp         r7, #0
  00138	0a000008	 beq         |$LN1@insert@2|
  0013c		 |$LL3@insert@2|

; 365  :                 new (_Where)T(_X);

  0013c	e3560000	 cmp         r6, #0
  00140	159a3000	 ldrne       r3, [r10]
  00144	15863000	 strne       r3, [r6]
  00148	e5983004	 ldr         r3, [r8, #4]
  0014c	e2577001	 subs        r7, r7, #1
  00150	e2866004	 add         r6, r6, #4
  00154	e2833004	 add         r3, r3, #4
  00158	e5883004	 str         r3, [r8, #4]
  0015c	1afffff6	 bne         |$LL3@insert@2|
  00160		 |$LN1@insert@2|

; 366  :         }
; 367  :         
; 368  :         return true;

  00160	e3a00001	 mov         r0, #1

; 369  :     }

  00164	e8bd47f0	 ldmia       sp!, {r4 - r10, lr}
  00168	e12fff1e	 bx          lr
  0016c		 |$M39638|

			 ENDP  ; |??$insert@K@?$vector@KVallocator@ce@@U?$incremental_growth@$09@2@@ce@@QAA_NPAKIABK@Z|, ce::vector<unsigned long,ce::allocator,ce::incremental_growth<10> >::insert<unsigned long>

	EXPORT	|?begin@?$list@PAVBusDriverChild_t@@Vallocator@ce@@@ce@@QAA?AViterator@12@XZ| ; ce::list<BusDriverChild_t *,ce::allocator>::begin
; File c:\wince600\public\common\oak\inc\list.hxx

  00000			 AREA	 |.pdata|, PDATA
|$T39660| DCD	|$LN9@begin@2|
	DCD	0x40000500
; Function compile flags: /Ogspy

  00000			 AREA	 |.text|, CODE, ARM

  00000		 |?begin@?$list@PAVBusDriverChild_t@@Vallocator@ce@@@ce@@QAA?AViterator@12@XZ| PROC ; ce::list<BusDriverChild_t *,ce::allocator>::begin

; 229  :         {return (iterator(_Head->_Next)); }

  00000		 |$LN9@begin@2|
  00000		 |$M39657|
  00000	e5903000	 ldr         r3, [r0]
  00004	e1a00001	 mov         r0, r1
  00008	e5933004	 ldr         r3, [r3, #4]
  0000c	e5813000	 str         r3, [r1]
  00010	e12fff1e	 bx          lr
  00014		 |$M39658|

			 ENDP  ; |?begin@?$list@PAVBusDriverChild_t@@Vallocator@ce@@@ce@@QAA?AViterator@12@XZ|, ce::list<BusDriverChild_t *,ce::allocator>::begin

	EXPORT	|?end@?$list@PAVBusDriverChild_t@@Vallocator@ce@@@ce@@QAA?AViterator@12@XZ| ; ce::list<BusDriverChild_t *,ce::allocator>::end

  00000			 AREA	 |.pdata|, PDATA
|$T39680| DCD	|$LN9@end@2|
	DCD	0x40000400
; Function compile flags: /Ogspy

  00000			 AREA	 |.text|, CODE, ARM

  00000		 |?end@?$list@PAVBusDriverChild_t@@Vallocator@ce@@@ce@@QAA?AViterator@12@XZ| PROC ; ce::list<BusDriverChild_t *,ce::allocator>::end

; 236  :         {return (iterator(_Head)); }

  00000		 |$LN9@end@2|
  00000		 |$M39677|
  00000	e5903000	 ldr         r3, [r0]
  00004	e1a00001	 mov         r0, r1
  00008	e5813000	 str         r3, [r1]
  0000c	e12fff1e	 bx          lr
  00010		 |$M39678|

			 ENDP  ; |?end@?$list@PAVBusDriverChild_t@@Vallocator@ce@@@ce@@QAA?AViterator@12@XZ|, ce::list<BusDriverChild_t *,ce::allocator>::end

	EXPORT	|??0?$_string_t@G$0BA@U?$char_traits@G@ce@@Vallocator@2@@ce@@QAA@XZ| ; ce::_string_t<unsigned short,16,ce::char_traits<unsigned short>,ce::allocator>::_string_t<unsigned short,16,ce::char_traits<unsigned short>,ce::allocator>
; File c:\wince600\public\common\oak\inc\string.hxx

  00000			 AREA	 |.pdata|, PDATA
|$T39698| DCD	|$LN9@string_t@2|
	DCD	0x40000a00
; Function compile flags: /Ogspy

  00000			 AREA	 |.text|, CODE, ARM

  00000		 |??0?$_string_t@G$0BA@U?$char_traits@G@ce@@Vallocator@2@@ce@@QAA@XZ| PROC ; ce::_string_t<unsigned short,16,ce::char_traits<unsigned short>,ce::allocator>::_string_t<unsigned short,16,ce::char_traits<unsigned short>,ce::allocator>

; 185  :     _string_t()

  00000		 |$LN9@string_t@2|
  00000		 |$M39695|
  00000	e3a02010	 mov         r2, #0x10
  00004	e580202c	 str         r2, [r0, #0x2C]
  00008	e2803004	 add         r3, r0, #4
  0000c	e3a02000	 mov         r2, #0
  00010	e5803000	 str         r3, [r0]
  00014	e1c022b4	 strh        r2, [r0, #0x24]
  00018	e5903000	 ldr         r3, [r0]
  0001c	e5802028	 str         r2, [r0, #0x28]

; 186  :         {_Init(); }

  00020	e1c320b0	 strh        r2, [r3]
  00024	e12fff1e	 bx          lr
  00028		 |$M39696|

			 ENDP  ; |??0?$_string_t@G$0BA@U?$char_traits@G@ce@@Vallocator@2@@ce@@QAA@XZ|, ce::_string_t<unsigned short,16,ce::char_traits<unsigned short>,ce::allocator>::_string_t<unsigned short,16,ce::char_traits<unsigned short>,ce::allocator>

	EXPORT	|?insert@?$_string_t@G$0BA@U?$char_traits@G@ce@@Vallocator@2@@ce@@QAA_NIPBG@Z| ; ce::_string_t<unsigned short,16,ce::char_traits<unsigned short>,ce::allocator>::insert

  00000			 AREA	 |.pdata|, PDATA
|$T39724| DCD	|$LN14@insert@3|
	DCD	0x40001001
; Function compile flags: /Ogspy

  00000			 AREA	 |.text|, CODE, ARM

  00000		 |?insert@?$_string_t@G$0BA@U?$char_traits@G@ce@@Vallocator@2@@ce@@QAA_NIPBG@Z| PROC ; ce::_string_t<unsigned short,16,ce::char_traits<unsigned short>,ce::allocator>::insert

; 342  :         {return insert(_Off, _S, _Tr::length(_S)); }

  00000		 |$LN14@insert@3|
  00000	e52de004	 str         lr, [sp, #-4]!
  00004		 |$M39721|
  00004	e3520000	 cmp         r2, #0
  00008	0a000008	 beq         |$LN6@insert@3|
  0000c	e1d230b0	 ldrh        r3, [r2]
  00010	e1a0e002	 mov         lr, r2
  00014	ea000000	 b           |$LN11@insert@3|
  00018		 |$LL5@insert@3|
  00018	e1fe30b2	 ldrh        r3, [lr, #2]!
  0001c		 |$LN11@insert@3|
  0001c	e3530000	 cmp         r3, #0
  00020	1afffffc	 bne         |$LL5@insert@3|
  00024	e04e3002	 sub         r3, lr, r2
  00028	e1a030c3	 mov         r3, r3, asr #1
  0002c	ea000000	 b           |$LN3@insert@3|
  00030		 |$LN6@insert@3|
  00030	e3a03000	 mov         r3, #0
  00034		 |$LN3@insert@3|
  00034	eb000000	 bl          |?insert@?$_string_t@G$0BA@U?$char_traits@G@ce@@Vallocator@2@@ce@@QAA_NIPBGI@Z|
  00038	e49de004	 ldr         lr, [sp], #4
  0003c	e12fff1e	 bx          lr
  00040		 |$M39722|

			 ENDP  ; |?insert@?$_string_t@G$0BA@U?$char_traits@G@ce@@Vallocator@2@@ce@@QAA_NIPBG@Z|, ce::_string_t<unsigned short,16,ce::char_traits<unsigned short>,ce::allocator>::insert

	EXPORT	|?clear@?$list@PAVBusDriverChild_t@@Vallocator@ce@@@ce@@QAAXXZ| ; ce::list<BusDriverChild_t *,ce::allocator>::clear
; File c:\wince600\public\common\oak\inc\list.hxx

  00000			 AREA	 |.pdata|, PDATA
|$T39769| DCD	|$LN17@clear|
	DCD	0x40000902
; Function compile flags: /Ogspy

  00000			 AREA	 |.text|, CODE, ARM

  00000		 |?clear@?$list@PAVBusDriverChild_t@@Vallocator@ce@@@ce@@QAAXXZ| PROC ; ce::list<BusDriverChild_t *,ce::allocator>::clear

; 265  :         {erase(begin(), end());}

  00000		 |$LN17@clear|
  00000	e52de004	 str         lr, [sp, #-4]!
  00004	e24dd004	 sub         sp, sp, #4
  00008		 |$M39766|
  00008	e5903000	 ldr         r3, [r0]
  0000c	e28d1000	 add         r1, sp, #0
  00010	e5932004	 ldr         r2, [r3, #4]
  00014	eb000000	 bl          |?erase@?$list@PAVBusDriverChild_t@@Vallocator@ce@@@ce@@QAA?AViterator@12@V312@0@Z|
  00018	e28dd004	 add         sp, sp, #4
  0001c	e49de004	 ldr         lr, [sp], #4
  00020	e12fff1e	 bx          lr
  00024		 |$M39767|

			 ENDP  ; |?clear@?$list@PAVBusDriverChild_t@@Vallocator@ce@@@ce@@QAAXXZ|, ce::list<BusDriverChild_t *,ce::allocator>::clear

	EXPORT	|?erase@?$vector@KVallocator@ce@@U?$incremental_growth@$09@2@@ce@@QAAXPAK0@Z| ; ce::vector<unsigned long,ce::allocator,ce::incremental_growth<10> >::erase
; File c:\wince600\public\common\oak\inc\vector.hxx

  00000			 AREA	 |.pdata|, PDATA
|$T39821| DCD	|$LN25@erase@3|
	DCD	0x40001501
; Function compile flags: /Ogspy

  00000			 AREA	 |.text|, CODE, ARM

  00000		 |?erase@?$vector@KVallocator@ce@@U?$incremental_growth@$09@2@@ce@@QAAXPAK0@Z| PROC ; ce::vector<unsigned long,ce::allocator,ce::incremental_growth<10> >::erase

; 390  :     {

  00000		 |$LN25@erase@3|
  00000	e92d4030	 stmdb       sp!, {r4, r5, lr}
  00004		 |$M39818|
  00004	e1a05002	 mov         r5, r2

; 391  :         assert(_F <= _L);
; 392  :         assert(_F >= begin());
; 393  :         assert(_L <= end());
; 394  :         
; 395  :         _MoveBackward(_L, end(), _F);

  00008	e5902004	 ldr         r2, [r0, #4]
  0000c	e1a0e001	 mov         lr, r1
  00010	e1550002	 cmp         r5, r2
  00014	0a000007	 beq         |$LN5@erase@3|
  00018	e0454001	 sub         r4, r5, r1
  0001c		 |$LL7@erase@3|
  0001c	e35e0000	 cmp         lr, #0
  00020	1794300e	 ldrne       r3, [r4, +lr]
  00024	158e3000	 strne       r3, [lr]
  00028	e28ee004	 add         lr, lr, #4
  0002c	e084300e	 add         r3, r4, lr
  00030	e1530002	 cmp         r3, r2
  00034	1afffff8	 bne         |$LL7@erase@3|
  00038		 |$LN5@erase@3|

; 396  :         
; 397  :         
; 398  :         _Last -= _L - _F;

  00038	e5902004	 ldr         r2, [r0, #4]
  0003c	e0453001	 sub         r3, r5, r1
  00040	e1a03143	 mov         r3, r3, asr #2
  00044	e0423103	 sub         r3, r2, r3, lsl #2
  00048	e5803004	 str         r3, [r0, #4]

; 399  :     }

  0004c	e8bd4030	 ldmia       sp!, {r4, r5, lr}
  00050	e12fff1e	 bx          lr
  00054		 |$M39819|

			 ENDP  ; |?erase@?$vector@KVallocator@ce@@U?$incremental_growth@$09@2@@ce@@QAAXPAK0@Z|, ce::vector<unsigned long,ce::allocator,ce::incremental_growth<10> >::erase

	EXPORT	|??$RegEnumKey@$0BA@U?$char_traits@G@ce@@Vallocator@2@@ce@@YAJPAUHKEY__@@KAAV?$_string_t@G$0BA@U?$char_traits@G@ce@@Vallocator@2@@0@@Z| ; ce::RegEnumKey<16,ce::char_traits<unsigned short>,ce::allocator>
	IMPORT	|RegEnumKeyExW|
; File c:\wince600\public\common\oak\inc\string.hxx

  00000			 AREA	 |.pdata|, PDATA
|$T39875| DCD	|$LN28@RegEnumKey|
	DCD	0x40002f02
; Function compile flags: /Ogspy
; File c:\wince600\platform\common\src\soc\common_ti_v1\common_ti\bus\inc\registry.hxx

  00000			 AREA	 |.text|, CODE, ARM

  00000		 |??$RegEnumKey@$0BA@U?$char_traits@G@ce@@Vallocator@2@@ce@@YAJPAUHKEY__@@KAAV?$_string_t@G$0BA@U?$char_traits@G@ce@@Vallocator@2@@0@@Z| PROC ; ce::RegEnumKey<16,ce::char_traits<unsigned short>,ce::allocator>

; 101  : {

  00000		 |$LN28@RegEnumKey|
  00000	e92d43f0	 stmdb       sp!, {r4 - r9, lr}
  00004	e24dd018	 sub         sp, sp, #0x18
  00008		 |$M39872|
  00008	e1a04002	 mov         r4, r2
  0000c	e1a07001	 mov         r7, r1
  00010	e1a08000	 mov         r8, r0

; 102  :     LONG code;
; 103  :     DWORD size = 0;
; 104  : 
; 105  :     while ((code = RegEnumKeyEx(
; 106  :         hKey, index, static_cast<LPWSTR>(value.get_buffer()),
; 107  :         &(size = value.capacity()), NULL, NULL, NULL, NULL
; 108  :         )) == ERROR_MORE_DATA)

  00014	e58d4014	 str         r4, [sp, #0x14]
  00018	e3a09000	 mov         r9, #0
  0001c		 |$LL4@RegEnumKey|
  0001c	e594e02c	 ldr         lr, [r4, #0x2C]
  00020	e28d3010	 add         r3, sp, #0x10
  00024	e1a01007	 mov         r1, r7
  00028	e58de010	 str         lr, [sp, #0x10]
  0002c	e5942000	 ldr         r2, [r4]
  00030	e1a00008	 mov         r0, r8
  00034	e58d900c	 str         r9, [sp, #0xC]
  00038	e58d9008	 str         r9, [sp, #8]
  0003c	e58d9004	 str         r9, [sp, #4]
  00040	e58d9000	 str         r9, [sp]
  00044	eb000000	 bl          RegEnumKeyExW
  00048	e1a06000	 mov         r6, r0
  0004c	e35600ea	 cmp         r6, #0xEA
  00050	03a05001	 moveq       r5, #1
  00054	e28d0014	 add         r0, sp, #0x14
  00058	13a05000	 movne       r5, #0
  0005c	eb000000	 bl          |??1_buffer@?$_string_t@G$0BA@U?$char_traits@G@ce@@Vallocator@2@@ce@@QAA@XZ|
  00060	e21530ff	 ands        r3, r5, #0xFF

; 116  :         }
; 117  :     
; 118  :     return code;
; 119  : }

  00064	0a000005	 beq         |$LN25@RegEnumKey|
  00068	e59d3010	 ldr         r3, [sp, #0x10]
  0006c	e1a00004	 mov         r0, r4
  00070	e2831001	 add         r1, r3, #1
  00074	eb000000	 bl          |?_Grow@?$_string_t@G$0BA@U?$char_traits@G@ce@@Vallocator@2@@ce@@IAA_NI@Z|
  00078	e3500000	 cmp         r0, #0
  0007c	1affffe6	 bne         |$LL4@RegEnumKey|
  00080		 |$LN25@RegEnumKey|

; 109  :         {
; 110  :         if (!value.reserve(size + 1)) break;
; 111  :         }
; 112  : 
; 113  :     if (code == ERROR_SUCCESS)

  00080	e3560000	 cmp         r6, #0
  00084	1a000008	 bne         |$LN19@RegEnumKey|

; 114  :         {
; 115  :         value.resize(size);

  00088	e59d5010	 ldr         r5, [sp, #0x10]
  0008c	e1a00004	 mov         r0, r4
  00090	e1a01005	 mov         r1, r5
  00094	eb000000	 bl          |?_Grow@?$_string_t@G$0BA@U?$char_traits@G@ce@@Vallocator@2@@ce@@IAA_NI@Z|
  00098	e3500000	 cmp         r0, #0
  0009c	15943000	 ldrne       r3, [r4]
  000a0	15845028	 strne       r5, [r4, #0x28]
  000a4	10833085	 addne       r3, r3, r5, lsl #1
  000a8	11c390b0	 strneh      r9, [r3]
  000ac		 |$LN19@RegEnumKey|

; 116  :         }
; 117  :     
; 118  :     return code;
; 119  : }

  000ac	e1a00006	 mov         r0, r6
  000b0	e28dd018	 add         sp, sp, #0x18
  000b4	e8bd43f0	 ldmia       sp!, {r4 - r9, lr}
  000b8	e12fff1e	 bx          lr
  000bc		 |$M39873|

			 ENDP  ; |??$RegEnumKey@$0BA@U?$char_traits@G@ce@@Vallocator@2@@ce@@YAJPAUHKEY__@@KAAV?$_string_t@G$0BA@U?$char_traits@G@ce@@Vallocator@2@@0@@Z|, ce::RegEnumKey<16,ce::char_traits<unsigned short>,ce::allocator>

	EXPORT	|??$insert@PAVBusDriverChild_t@@@?$list@PAVBusDriverChild_t@@Vallocator@ce@@@ce@@QAA?AViterator@01@V201@ABQAVBusDriverChild_t@@@Z| ; ce::list<BusDriverChild_t *,ce::allocator>::insert<BusDriverChild_t *>
; File c:\wince600\public\common\oak\inc\list.hxx

  00000			 AREA	 |.pdata|, PDATA
|$T39922| DCD	|$LN22@insert@4|
	DCD	0x40000f01
; Function compile flags: /Ogspy

  00000			 AREA	 |.text|, CODE, ARM

  00000		 |??$insert@PAVBusDriverChild_t@@@?$list@PAVBusDriverChild_t@@Vallocator@ce@@@ce@@QAA?AViterator@01@V201@ABQAVBusDriverChild_t@@@Z| PROC ; ce::list<BusDriverChild_t *,ce::allocator>::insert<BusDriverChild_t *>

; 269  :     iterator insert(iterator Where, const _Val& Value)

  00000		 |$LN22@insert@4|
  00000	e92d4070	 stmdb       sp!, {r4 - r6, lr}
  00004		 |$M39919|
  00004	e1a06003	 mov         r6, r3
  00008	e1a04001	 mov         r4, r1
  0000c	e1a05000	 mov         r5, r0

; 270  :     {
; 271  :         _NodePtr NewNode = _Buynode(Where._MyNode());

  00010	e1a01002	 mov         r1, r2
  00014	eb000000	 bl          |?_Buynode@?$list@PAVBusDriverChild_t@@Vallocator@ce@@@ce@@IAAPAU_Node@12@PAU312@@Z|
  00018	e3500000	 cmp         r0, #0

; 272  :         
; 273  :         if(NewNode == NULL)
; 274  :             return end();

  0001c	05953000	 ldreq       r3, [r5]
  00020	05843000	 streq       r3, [r4]

; 275  : 
; 276  :         // To avoid using operator& for type T (which may be overloaded)
; 277  :         // we are constructing item in the memory pointed to by NewNode.
; 278  :         // This assumes that _Value is the first member.
; 279  :         new (NewNode) T(Value);

  00024	15963000	 ldrne       r3, [r6]

; 280  :         
; 281  :         return NewNode;

  00028	15840000	 strne       r0, [r4]
  0002c	15803000	 strne       r3, [r0]

; 282  :     }

  00030	e1a00004	 mov         r0, r4
  00034	e8bd4070	 ldmia       sp!, {r4 - r6, lr}
  00038	e12fff1e	 bx          lr
  0003c		 |$M39920|

			 ENDP  ; |??$insert@PAVBusDriverChild_t@@@?$list@PAVBusDriverChild_t@@Vallocator@ce@@@ce@@QAA?AViterator@01@V201@ABQAVBusDriverChild_t@@@Z|, ce::list<BusDriverChild_t *,ce::allocator>::insert<BusDriverChild_t *>

	EXPORT	|??$insert@K@?$vector@KVallocator@ce@@U?$incremental_growth@$09@2@@ce@@QAAPAKPAKABK@Z| ; ce::vector<unsigned long,ce::allocator,ce::incremental_growth<10> >::insert<unsigned long>
; File c:\wince600\public\common\oak\inc\vector.hxx

  00000			 AREA	 |.pdata|, PDATA
|$T39946| DCD	|$LN12@insert@5|
	DCD	0x40001001
; Function compile flags: /Ogspy

  00000			 AREA	 |.text|, CODE, ARM

  00000		 |??$insert@K@?$vector@KVallocator@ce@@U?$incremental_growth@$09@2@@ce@@QAAPAKPAKABK@Z| PROC ; ce::vector<unsigned long,ce::allocator,ce::incremental_growth<10> >::insert<unsigned long>

; 372  :     iterator insert(iterator _Where, const _Val& _X)

  00000		 |$LN12@insert@5|
  00000	e92d4070	 stmdb       sp!, {r4 - r6, lr}
  00004		 |$M39943|
  00004	e1a03002	 mov         r3, r2
  00008	e1a05001	 mov         r5, r1
  0000c	e1a04000	 mov         r4, r0

; 373  :     {
; 374  :         size_type _O = _Where - begin();
; 375  :         
; 376  :         if(!insert(_Where, 1, _X))

  00010	e5946000	 ldr         r6, [r4]
  00014	e3a02001	 mov         r2, #1
  00018	eb000000	 bl          |??$insert@K@?$vector@KVallocator@ce@@U?$incremental_growth@$09@2@@ce@@QAA_NPAKIABK@Z|
  0001c	e3500000	 cmp         r0, #0

; 377  :             return end();

  00020	05940004	 ldreq       r0, [r4, #4]

; 385  :     }

  00024	08bd4070	 ldmeqia     sp!, {r4 - r6, lr}

; 378  :         
; 379  :         //
; 380  :         // Insertion may require that vector is reallocated so
; 381  :         // the final possition of the inserted item might not be 
; 382  :         // the same as _Where
; 383  :         //
; 384  :         return begin() + _O;

  00028	15942000	 ldrne       r2, [r4]
  0002c	10453006	 subne       r3, r5, r6
  00030	11a03143	 movne       r3, r3, asr #2
  00034	10820103	 addne       r0, r2, r3, lsl #2

; 385  :     }

  00038	18bd4070	 ldmneia     sp!, {r4 - r6, lr}
  0003c	e12fff1e	 bx          lr
  00040		 |$M39944|

			 ENDP  ; |??$insert@K@?$vector@KVallocator@ce@@U?$incremental_growth@$09@2@@ce@@QAAPAKPAKABK@Z|, ce::vector<unsigned long,ce::allocator,ce::incremental_growth<10> >::insert<unsigned long>

	EXPORT	|?FindChildByName@DefaultBusChildContainer_t@@UAAPAVBusDriverChild_t@@PBG@Z| ; DefaultBusChildContainer_t::FindChildByName
	EXPORT	|??_C@_1M@KCNCFNNL@?$AA$?$AAb?$AAu?$AAs?$AA?2?$AA?$AA@| [ DATA ] ; `string'
	IMPORT	|_wcsicmp|
	IMPORT	|_wcsnicmp|
; File c:\wince600\platform\common\src\soc\common_ti_v1\common_ti\bus\inc\driver.hxx

  00000			 AREA	 |.pdata|, PDATA
|$T40037| DCD	|$LN43@FindChildB|
	DCD	0x40002701

  00000			 AREA	 |.rdata|, DATA, READONLY
|??_C@_1M@KCNCFNNL@?$AA$?$AAb?$AAu?$AAs?$AA?2?$AA?$AA@| DCB "$$", 0x0, "b"
	DCB	0x0, "u", 0x0, "s", 0x0, "\\", 0x0, 0x0, 0x0 ; `string'
; Function compile flags: /Ogspy
; File c:\wince600\platform\common\src\soc\common_ti_v1\common_ti\bus\mdd\defaultbuschildcontainer.cpp

  00000			 AREA	 |.text|, CODE, ARM

  00000		 |?FindChildByName@DefaultBusChildContainer_t@@UAAPAVBusDriverChild_t@@PBG@Z| PROC ; DefaultBusChildContainer_t::FindChildByName

; 151  : {

  00000		 |$LN43@FindChildB|
  00000	e92d41f0	 stmdb       sp!, {r4 - r8, lr}
  00004		 |$M40034|
  00004	e1a08001	 mov         r8, r1
  00008	e1a07000	 mov         r7, r0

; 152  :     BusDriverChild_t *pChild = NULL;
; 153  :     DWORD offset;
; 154  : 
; 155  :     offset = (wcsnicmp(deviceName, L"$bus\\", 5) == 0) ? 5 : 0;

  0000c	e59f1084	 ldr         r1, [pc, #0x84]
  00010	e3a02005	 mov         r2, #5
  00014	e1a00008	 mov         r0, r8
  00018	e3a05000	 mov         r5, #0
  0001c	eb000000	 bl          _wcsnicmp

; 156  : 
; 157  :     // Look for device by walking through list
; 158  :     for (iterator ppChild = begin(); ppChild != end(); ppChild++)

  00020	e5973004	 ldr         r3, [r7, #4]
  00024	e3500000	 cmp         r0, #0
  00028	03a06005	 moveq       r6, #5
  0002c	e5934004	 ldr         r4, [r3, #4]
  00030	13a06000	 movne       r6, #0
  00034		 |$LL17@FindChildB|
  00034	e5973004	 ldr         r3, [r7, #4]
  00038	e1540003	 cmp         r4, r3
  0003c	03a03001	 moveq       r3, #1
  00040	13a03000	 movne       r3, #0
  00044	e21330ff	 ands        r3, r3, #0xFF
  00048	03a03001	 moveq       r3, #1
  0004c	13a03000	 movne       r3, #0
  00050	e21330ff	 ands        r3, r3, #0xFF

; 159  :         {
; 160  :         LPCWSTR childName = (*ppChild)->DeviceName();
; 161  : 
; 162  :         if (wcsicmp(childName, &deviceName[offset]) == 0) 
; 163  :             {
; 164  :             // Following the rule of COM.  Since we are returning a 
; 165  :             // pointer to an object we need to perform the addref
; 166  :             // and client needs to perform the release.
; 167  :             pChild = *ppChild;
; 168  :             pChild->AddRef();
; 169  :             break;
; 170  :             }
; 171  :         }
; 172  :         
; 173  :     return pChild;
; 174  : }

  00054	0a00000c	 beq         |$LN2@FindChildB|
  00058	e5940000	 ldr         r0, [r4]
  0005c	e5903000	 ldr         r3, [r0]
  00060	e593300c	 ldr         r3, [r3, #0xC]
  00064	e1a0e00f	 mov         lr, pc
  00068	e12fff13	 bx          r3
  0006c	e0881086	 add         r1, r8, r6, lsl #1
  00070	eb000000	 bl          _wcsicmp
  00074	e3500000	 cmp         r0, #0
  00078	15944004	 ldrne       r4, [r4, #4]
  0007c	1affffec	 bne         |$LL17@FindChildB|
  00080	e5945000	 ldr         r5, [r4]
  00084	e2850004	 add         r0, r5, #4
  00088	eb000000	 bl          InterlockedIncrement
  0008c		 |$LN2@FindChildB|
  0008c	e1a00005	 mov         r0, r5
  00090	e8bd41f0	 ldmia       sp!, {r4 - r8, lr}
  00094	e12fff1e	 bx          lr
  00098		 |$LN44@FindChildB|
  00098		 |$LN45@FindChildB|
  00098	00000000	 DCD         |??_C@_1M@KCNCFNNL@?$AA$?$AAb?$AAu?$AAs?$AA?2?$AA?$AA@|
  0009c		 |$M40035|

			 ENDP  ; |?FindChildByName@DefaultBusChildContainer_t@@UAAPAVBusDriverChild_t@@PBG@Z|, DefaultBusChildContainer_t::FindChildByName

	EXPORT	|?FindChildByDriverId@DefaultBusChildContainer_t@@UAAPAVBusDriverChild_t@@I@Z| ; DefaultBusChildContainer_t::FindChildByDriverId
; File c:\wince600\platform\common\src\soc\common_ti_v1\common_ti\bus\inc\driver.hxx

  00000			 AREA	 |.pdata|, PDATA
|$T40126| DCD	|$LN41@FindChildB@2|
	DCD	0x40001d01
; Function compile flags: /Ogspy
; File c:\wince600\platform\common\src\soc\common_ti_v1\common_ti\bus\mdd\defaultbuschildcontainer.cpp

  00000			 AREA	 |.text|, CODE, ARM

  00000		 |?FindChildByDriverId@DefaultBusChildContainer_t@@UAAPAVBusDriverChild_t@@I@Z| PROC ; DefaultBusChildContainer_t::FindChildByDriverId

; 185  : {

  00000		 |$LN41@FindChildB@2|
  00000	e92d40f0	 stmdb       sp!, {r4 - r7, lr}
  00004		 |$M40123|
  00004	e1a07001	 mov         r7, r1
  00008	e1a06000	 mov         r6, r0

; 186  :     BusDriverChild_t *pChild = NULL;
; 187  : 
; 188  :     // Look for device by walking through list
; 189  :     for (iterator ppChild = begin(); ppChild != end(); ppChild++)

  0000c	e5963004	 ldr         r3, [r6, #4]
  00010	e3a05000	 mov         r5, #0
  00014	e5934004	 ldr         r4, [r3, #4]
  00018		 |$LL15@FindChildB@2|
  00018	e5963004	 ldr         r3, [r6, #4]
  0001c	e1540003	 cmp         r4, r3
  00020	03a03001	 moveq       r3, #1
  00024	13a03000	 movne       r3, #0
  00028	e21330ff	 ands        r3, r3, #0xFF
  0002c	03a03001	 moveq       r3, #1
  00030	13a03000	 movne       r3, #0
  00034	e21330ff	 ands        r3, r3, #0xFF

; 190  :         {
; 191  :         if ((*ppChild)->DriverId() == driverId) 
; 192  :             {
; 193  :             // Following the rule of COM.  Since we are returning a 
; 194  :             // pointer to an object we need to perform the addref
; 195  :             // and client needs to perform the release.
; 196  :             pChild = *ppChild;
; 197  :             pChild->AddRef();
; 198  :             break;
; 199  :             }
; 200  :         }
; 201  :         
; 202  :     return pChild;
; 203  : }

  00038	0a00000a	 beq         |$LN2@FindChildB@2|
  0003c	e5940000	 ldr         r0, [r4]
  00040	e5903000	 ldr         r3, [r0]
  00044	e5933008	 ldr         r3, [r3, #8]
  00048	e1a0e00f	 mov         lr, pc
  0004c	e12fff13	 bx          r3
  00050	e1500007	 cmp         r0, r7
  00054	15944004	 ldrne       r4, [r4, #4]
  00058	1affffee	 bne         |$LL15@FindChildB@2|
  0005c	e5945000	 ldr         r5, [r4]
  00060	e2850004	 add         r0, r5, #4
  00064	eb000000	 bl          InterlockedIncrement
  00068		 |$LN2@FindChildB@2|
  00068	e1a00005	 mov         r0, r5
  0006c	e8bd40f0	 ldmia       sp!, {r4 - r7, lr}
  00070	e12fff1e	 bx          lr
  00074		 |$M40124|

			 ENDP  ; |?FindChildByDriverId@DefaultBusChildContainer_t@@UAAPAVBusDriverChild_t@@I@Z|, DefaultBusChildContainer_t::FindChildByDriverId

	EXPORT	|?RemoveChild@DefaultBusChildContainer_t@@UAAXPAVBusDriverChild_t@@@Z| ; DefaultBusChildContainer_t::RemoveChild
; File c:\wince600\public\common\oak\inc\list.hxx

  00000			 AREA	 |.pdata|, PDATA
|$T40198| DCD	|$LN34@RemoveChil|
	DCD	0x40001902
; Function compile flags: /Ogspy
; File c:\wince600\platform\common\src\soc\common_ti_v1\common_ti\bus\mdd\defaultbuschildcontainer.cpp

  00000			 AREA	 |.text|, CODE, ARM

  00000		 |?RemoveChild@DefaultBusChildContainer_t@@UAAXPAVBusDriverChild_t@@@Z| PROC ; DefaultBusChildContainer_t::RemoveChild

; 214  : {

  00000		 |$LN34@RemoveChil|
  00000	e92d4010	 stmdb       sp!, {r4, lr}
  00004	e24dd004	 sub         sp, sp, #4
  00008		 |$M40195|
  00008	e1a04001	 mov         r4, r1

; 215  :     iterator it = begin();

  0000c	e590e004	 ldr         lr, [r0, #4]
  00010	e59e2004	 ldr         r2, [lr, #4]
  00014		 |$LL3@RemoveChil|

; 216  :     while(it != end())

  00014	e152000e	 cmp         r2, lr
  00018	03a03001	 moveq       r3, #1
  0001c	13a03000	 movne       r3, #0
  00020	e21330ff	 ands        r3, r3, #0xFF
  00024	03a03001	 moveq       r3, #1
  00028	13a03000	 movne       r3, #0
  0002c	e21330ff	 ands        r3, r3, #0xFF

; 217  :         {
; 218  :         if (*it == pChild)
; 219  :             {
; 220  :             erase(it);
; 221  :             pChild->Release();

  00030	0a000008	 beq         |$LN2@RemoveChil|
  00034	e5923000	 ldr         r3, [r2]
  00038	e1530004	 cmp         r3, r4

; 222  :             break;
; 223  :             }
; 224  :         ++it;

  0003c	15922004	 ldrne       r2, [r2, #4]
  00040	1afffff3	 bne         |$LL3@RemoveChil|
  00044	e28d1000	 add         r1, sp, #0
  00048	e2800004	 add         r0, r0, #4
  0004c	eb000000	 bl          |?erase@?$list@PAVBusDriverChild_t@@Vallocator@ce@@@ce@@QAA?AViterator@12@V312@@Z|
  00050	e1a00004	 mov         r0, r4
  00054	eb000000	 bl          |?Release@RefCount_t@@QAAJXZ|
  00058		 |$LN2@RemoveChil|

; 225  :         }
; 226  : }

  00058	e28dd004	 add         sp, sp, #4
  0005c	e8bd4010	 ldmia       sp!, {r4, lr}
  00060	e12fff1e	 bx          lr
  00064		 |$M40196|

			 ENDP  ; |?RemoveChild@DefaultBusChildContainer_t@@UAAXPAVBusDriverChild_t@@@Z|, DefaultBusChildContainer_t::RemoveChild

	EXPORT	|??1?$list@PAVBusDriverChild_t@@Vallocator@ce@@@ce@@QAA@XZ| ; ce::list<BusDriverChild_t *,ce::allocator>::~list<BusDriverChild_t *,ce::allocator>
; File c:\wince600\public\common\oak\inc\list.hxx

  00000			 AREA	 |.pdata|, PDATA
|$T40261| DCD	|$LN19@list@2|
	DCD	0x40000902
; Function compile flags: /Ogspy

  00000			 AREA	 |.text|, CODE, ARM

  00000		 |??1?$list@PAVBusDriverChild_t@@Vallocator@ce@@@ce@@QAA@XZ| PROC ; ce::list<BusDriverChild_t *,ce::allocator>::~list<BusDriverChild_t *,ce::allocator>

; 214  :     {

  00000		 |$LN19@list@2|
  00000	e52de004	 str         lr, [sp, #-4]!
  00004	e24dd004	 sub         sp, sp, #4
  00008		 |$M40258|

; 215  :         clear();

  00008	e5903000	 ldr         r3, [r0]
  0000c	e28d1000	 add         r1, sp, #0
  00010	e5932004	 ldr         r2, [r3, #4]
  00014	eb000000	 bl          |?erase@?$list@PAVBusDriverChild_t@@Vallocator@ce@@@ce@@QAA?AViterator@12@V312@0@Z|

; 216  :     }

  00018	e28dd004	 add         sp, sp, #4
  0001c	e49de004	 ldr         lr, [sp], #4
  00020	e12fff1e	 bx          lr
  00024		 |$M40259|

			 ENDP  ; |??1?$list@PAVBusDriverChild_t@@Vallocator@ce@@@ce@@QAA@XZ|, ce::list<BusDriverChild_t *,ce::allocator>::~list<BusDriverChild_t *,ce::allocator>

	EXPORT	|?clear@?$vector@KVallocator@ce@@U?$incremental_growth@$09@2@@ce@@QAAXXZ| ; ce::vector<unsigned long,ce::allocator,ce::incremental_growth<10> >::clear
; File c:\wince600\public\common\oak\inc\vector.hxx

  00000			 AREA	 |.pdata|, PDATA
|$T40277| DCD	|$LN9@clear@2|
	DCD	0x40000601
; Function compile flags: /Ogspy

  00000			 AREA	 |.text|, CODE, ARM

  00000		 |?clear@?$vector@KVallocator@ce@@U?$incremental_growth@$09@2@@ce@@QAAXXZ| PROC ; ce::vector<unsigned long,ce::allocator,ce::incremental_growth<10> >::clear

; 270  :     {

  00000		 |$LN9@clear@2|
  00000	e52de004	 str         lr, [sp, #-4]!
  00004		 |$M40274|

; 271  :         erase(begin(), end());

  00004	e5902004	 ldr         r2, [r0, #4]
  00008	e5901000	 ldr         r1, [r0]
  0000c	eb000000	 bl          |?erase@?$vector@KVallocator@ce@@U?$incremental_growth@$09@2@@ce@@QAAXPAK0@Z|

; 272  :     }

  00010	e49de004	 ldr         lr, [sp], #4
  00014	e12fff1e	 bx          lr
  00018		 |$M40275|

			 ENDP  ; |?clear@?$vector@KVallocator@ce@@U?$incremental_growth@$09@2@@ce@@QAAXXZ|, ce::vector<unsigned long,ce::allocator,ce::incremental_growth<10> >::clear

	EXPORT	|??0DefaultBusChildContainer_t@@IAA@PAVBusDriver_t@@@Z| ; DefaultBusChildContainer_t::DefaultBusChildContainer_t
	EXPORT	|??_7DefaultBusChildContainer_t@@6B@| [ DATA ] ; DefaultBusChildContainer_t::`vftable'
	EXPORT	|?Init@DefaultBusChildContainer_t@@UAAHPBG@Z| ; DefaultBusChildContainer_t::Init
	IMPORT	|??_EDefaultBusChildContainer_t@@MAAPAXI@Z|, WEAK |??_GDefaultBusChildContainer_t@@MAAPAXI@Z| ; DefaultBusChildContainer_t::`vector deleting destructor', DefaultBusChildContainer_t::`scalar deleting destructor'
; File c:\wince600\platform\common\src\soc\common_ti_v1\common_ti\bus\inc\driver.hxx

  00000			 AREA	 |.pdata|, PDATA
|$T40297| DCD	|$LN9@DefaultBus|
	DCD	0x40001301

  00000			 AREA	 |.rdata|, DATA, READONLY
|??_7DefaultBusChildContainer_t@@6B@| DCD |??_EDefaultBusChildContainer_t@@MAAPAXI@Z| ; DefaultBusChildContainer_t::`vftable'
	DCD	|?Init@DefaultBusChildContainer_t@@UAAHPBG@Z|
	DCD	|?FindChildByName@DefaultBusChildContainer_t@@UAAPAVBusDriverChild_t@@PBG@Z|
	DCD	|?FindChildByDriverId@DefaultBusChildContainer_t@@UAAPAVBusDriverChild_t@@I@Z|
	DCD	|?RemoveChild@DefaultBusChildContainer_t@@UAAXPAVBusDriverChild_t@@@Z|
; Function compile flags: /Ogspy
; File c:\wince600\platform\common\src\soc\common_ti_v1\common_ti\bus\mdd\defaultbuschildcontainer.cpp

  00000			 AREA	 |.text|, CODE, ARM

  00000		 |??0DefaultBusChildContainer_t@@IAA@PAVBusDriver_t@@@Z| PROC ; DefaultBusChildContainer_t::DefaultBusChildContainer_t

; 25   : {

  00000		 |$LN9@DefaultBus|
  00000	e92d4010	 stmdb       sp!, {r4, lr}
  00004		 |$M40294|
  00004	e1a04000	 mov         r4, r0
  00008	e2843004	 add         r3, r4, #4
  0000c	e3a02000	 mov         r2, #0
  00010	e5833000	 str         r3, [r3]
  00014	e583200c	 str         r2, [r3, #0xC]
  00018	e5833004	 str         r3, [r3, #4]
  0001c	e5932000	 ldr         r2, [r3]
  00020	e59fe020	 ldr         lr, [pc, #0x20]

; 26   :     // We get copy of pointer
; 27   :     m_pBus->AddRef();

  00024	e2810004	 add         r0, r1, #4
  00028	e5923004	 ldr         r3, [r2, #4]
  0002c	e5823008	 str         r3, [r2, #8]
  00030	e584e000	 str         lr, [r4]
  00034	e5841014	 str         r1, [r4, #0x14]
  00038	eb000000	 bl          InterlockedIncrement

; 28   : }

  0003c	e1a00004	 mov         r0, r4
  00040	e8bd4010	 ldmia       sp!, {r4, lr}
  00044	e12fff1e	 bx          lr
  00048		 |$LN10@DefaultBus|
  00048		 |$LN11@DefaultBus|
  00048	00000000	 DCD         |??_7DefaultBusChildContainer_t@@6B@|
  0004c		 |$M40295|

			 ENDP  ; |??0DefaultBusChildContainer_t@@IAA@PAVBusDriver_t@@@Z|, DefaultBusChildContainer_t::DefaultBusChildContainer_t

	EXPORT	|??1DefaultBusChildContainer_t@@MAA@XZ|	; DefaultBusChildContainer_t::~DefaultBusChildContainer_t
; File c:\wince600\public\common\oak\inc\list.hxx

  00000			 AREA	 |.pdata|, PDATA
|$T40386| DCD	|$LN23@DefaultBus@2|
	DCD	0x40001002
; Function compile flags: /Ogspy
; File c:\wince600\platform\common\src\soc\common_ti_v1\common_ti\bus\mdd\defaultbuschildcontainer.cpp

  00000			 AREA	 |.text|, CODE, ARM

  00000		 |??1DefaultBusChildContainer_t@@MAA@XZ| PROC ; DefaultBusChildContainer_t::~DefaultBusChildContainer_t

; 37   : {

  00000		 |$LN23@DefaultBus@2|
  00000	e92d4010	 stmdb       sp!, {r4, lr}
  00004	e24dd004	 sub         sp, sp, #4
  00008		 |$M40383|
  00008	e1a04000	 mov         r4, r0
  0000c	e59f3028	 ldr         r3, [pc, #0x28]

; 38   :     // We need to release reference
; 39   :     m_pBus->Release();

  00010	e5940014	 ldr         r0, [r4, #0x14]
  00014	e5843000	 str         r3, [r4]
  00018	eb000000	 bl          |?Release@RefCount_t@@QAAJXZ|

; 40   : }

  0001c	e5b43004	 ldr         r3, [r4, #4]!
  00020	e28d1000	 add         r1, sp, #0
  00024	e5932004	 ldr         r2, [r3, #4]
  00028	e1a00004	 mov         r0, r4
  0002c	eb000000	 bl          |?erase@?$list@PAVBusDriverChild_t@@Vallocator@ce@@@ce@@QAA?AViterator@12@V312@0@Z|
  00030	e28dd004	 add         sp, sp, #4
  00034	e8bd4010	 ldmia       sp!, {r4, lr}
  00038	e12fff1e	 bx          lr
  0003c		 |$LN24@DefaultBus@2|
  0003c		 |$LN25@DefaultBus@2|
  0003c	00000000	 DCD         |??_7DefaultBusChildContainer_t@@6B@|
  00040		 |$M40384|

			 ENDP  ; |??1DefaultBusChildContainer_t@@MAA@XZ|, DefaultBusChildContainer_t::~DefaultBusChildContainer_t

	EXPORT	|??1?$vector@KVallocator@ce@@U?$incremental_growth@$09@2@@ce@@QAA@XZ| ; ce::vector<unsigned long,ce::allocator,ce::incremental_growth<10> >::~vector<unsigned long,ce::allocator,ce::incremental_growth<10> >
; File c:\wince600\public\common\oak\inc\allocator.hxx

  00000			 AREA	 |.pdata|, PDATA
|$T40418| DCD	|$LN15@vector@2|
	DCD	0x40000901
; Function compile flags: /Ogspy
; File c:\wince600\public\common\oak\inc\vector.hxx

  00000			 AREA	 |.text|, CODE, ARM

  00000		 |??1?$vector@KVallocator@ce@@U?$incremental_growth@$09@2@@ce@@QAA@XZ| PROC ; ce::vector<unsigned long,ce::allocator,ce::incremental_growth<10> >::~vector<unsigned long,ce::allocator,ce::incremental_growth<10> >

; 167  :     {

  00000		 |$LN15@vector@2|
  00000	e92d4010	 stmdb       sp!, {r4, lr}
  00004		 |$M40415|
  00004	e1a04000	 mov         r4, r0

; 168  :         // clear all elements in vector
; 169  :         clear();

  00008	e5942004	 ldr         r2, [r4, #4]
  0000c	e5941000	 ldr         r1, [r4]
  00010	eb000000	 bl          |?erase@?$vector@KVallocator@ce@@U?$incremental_growth@$09@2@@ce@@QAAXPAK0@Z|

; 170  : 
; 171  :         // delete memory
; 172  :         deallocate(_First, capacity() * sizeof(T));

  00014	e5940000	 ldr         r0, [r4]
  00018	eb000000	 bl          |??3@YAXPAX@Z|

; 173  :     }

  0001c	e8bd4010	 ldmia       sp!, {r4, lr}
  00020	e12fff1e	 bx          lr
  00024		 |$M40416|

			 ENDP  ; |??1?$vector@KVallocator@ce@@U?$incremental_growth@$09@2@@ce@@QAA@XZ|, ce::vector<unsigned long,ce::allocator,ce::incremental_growth<10> >::~vector<unsigned long,ce::allocator,ce::incremental_growth<10> >


  00000			 AREA	 |.pdata|, PDATA
|$T40429| DCD	|$LN6@scalar|
	DCD	0x40000a01
; Function compile flags: /Ogspy

  00000			 AREA	 |.text|, CODE, ARM

  00000		 |??_GDefaultBusChildContainer_t@@MAAPAXI@Z| PROC ; DefaultBusChildContainer_t::`scalar deleting destructor'
  00000		 |$LN6@scalar|
  00000	e92d4030	 stmdb       sp!, {r4, r5, lr}
  00004		 |$M40426|
  00004	e1a04001	 mov         r4, r1
  00008	e1a05000	 mov         r5, r0
  0000c	eb000000	 bl          |??1DefaultBusChildContainer_t@@MAA@XZ|
  00010	e3140001	 tst         r4, #1
  00014	11a00005	 movne       r0, r5
  00018	1b000000	 blne        |??3@YAXPAX@Z|
  0001c	e1a00005	 mov         r0, r5
  00020	e8bd4030	 ldmia       sp!, {r4, r5, lr}
  00024	e12fff1e	 bx          lr
  00028		 |$M40427|

			 ENDP  ; |??_GDefaultBusChildContainer_t@@MAAPAXI@Z|, DefaultBusChildContainer_t::`scalar deleting destructor'

	EXPORT	|__$ArrayPad$| [ DATA ]
	EXPORT	|??_C@_1M@PJMPBMAL@?$AAO?$AAr?$AAd?$AAe?$AAr?$AA?$AA@| [ DATA ] ; `string'
	EXPORT	|??_C@_13FPGAJAPJ@?$AA?2?$AA?$AA@| [ DATA ] ; `string'
	IMPORT	|RegCloseKey|
	IMPORT	|RegOpenKeyExW|
	IMPORT	|__GSHandlerCheck|
	IMPORT	|__security_cookie|
	IMPORT	|__security_check_cookie|
; File c:\wince600\public\common\oak\inc\allocator.hxx

  00000			 AREA	 |.pdata|, PDATA
|$T40732| DCD	|$LN132@Init@2|
	DCD	0xc000af02

  00000			 AREA	 |.xdata|, DATA
|$T40728| DCD	0xffffffd8

  00000			 AREA	 |.rdata|, DATA, READONLY
|??_C@_1M@PJMPBMAL@?$AAO?$AAr?$AAd?$AAe?$AAr?$AA?$AA@| DCB "O", 0x0, "r", 0x0
	DCB	"d", 0x0, "e", 0x0, "r", 0x0, 0x0, 0x0	; `string'

  00000			 AREA	 |.rdata|, DATA, READONLY
|??_C@_13FPGAJAPJ@?$AA?2?$AA?$AA@| DCB "\\", 0x0, 0x0, 0x0 ; `string'
; Function compile flags: /Ogspy
; File c:\wince600\platform\common\src\soc\common_ti_v1\common_ti\bus\mdd\defaultbuschildcontainer.cpp

  00000			 AREA	 |.text|, CODE, ARM

  00000	00000000	 DCD         |__GSHandlerCheck|
  00004	00000000	 DCD         |$T40728|

  00008		 |?Init@DefaultBusChildContainer_t@@UAAHPBG@Z| PROC ; DefaultBusChildContainer_t::Init

; 51   : {

  00008		 |$LN132@Init@2|
  00008	e92d4ff0	 stmdb       sp!, {r4 - r11, lr}
  0000c	e24dd05c	 sub         sp, sp, #0x5C
  00010		 |$M40729|
  00010	e1a08001	 mov         r8, r1
  00014	e1a09000	 mov         r9, r0
  00018	e59f32a0	 ldr         r3, [pc, #0x2A0]
  0001c	e5933000	 ldr         r3, [r3]
  00020	e58d3058	 str         r3, [sp, #0x58]

; 52   :     BOOL rc = FALSE;
; 53   :     HKEY hKey = NULL, hChildKey;
; 54   :     LONG code;
; 55   :     DWORD subKeys;
; 56   :     ce::wstring keyName;

  00024	e28de02c	 add         lr, sp, #0x2C

; 57   :     BusDriverChild_t* pChild;
; 58   :     ce::vector<DWORD> orders;
; 59   :     DWORD order;
; 60   : 
; 61   : 
; 62   :     // Open template registry key
; 63   :     code = RegOpenKeyEx(
; 64   :         HKEY_LOCAL_MACHINE, busRegistryKey, 0, 0, &hKey
; 65   :         );

  00028	e58de028	 str         lr, [sp, #0x28]
  0002c	e3a0e000	 mov         lr, #0
  00030	e1cde4bc	 strh        lr, [sp, #0x4C]
  00034	e3a0e000	 mov         lr, #0
  00038	e58de050	 str         lr, [sp, #0x50]
  0003c	e3a0e000	 mov         lr, #0
  00040	e1cde2bc	 strh        lr, [sp, #0x2C]
  00044	e3a0e000	 mov         lr, #0
  00048	e3a0a000	 mov         r10, #0
  0004c	e3a0b010	 mov         r11, #0x10
  00050	e28d4008	 add         r4, sp, #8
  00054	e3a07000	 mov         r7, #0
  00058	e3a05000	 mov         r5, #0
  0005c	e3a03000	 mov         r3, #0
  00060	e3a02000	 mov         r2, #0
  00064	e3a0010a	 mov         r0, #0xA, 2
  00068	e58de020	 str         lr, [sp, #0x20]
  0006c	e3a06000	 mov         r6, #0
  00070	e58da008	 str         r10, [sp, #8]
  00074	e58db054	 str         r11, [sp, #0x54]
  00078	e58d7018	 str         r7, [sp, #0x18]
  0007c	e58d501c	 str         r5, [sp, #0x1C]
  00080	e58d4000	 str         r4, [sp]
  00084	eb000000	 bl          RegOpenKeyExW
  00088	e3500000	 cmp         r0, #0

; 66   :     if (code != ERROR_SUCCESS)

  0008c	1a000076	 bne         |$cleanUp$37590|

; 67   :         {
; 68   :         goto cleanUp;
; 69   :         }
; 70   : 
; 71   :     // Find number of subkeys
; 72   :     code = ce::RegQueryInfoKeySubKeys(hKey, subKeys);

  00090	e59d0008	 ldr         r0, [sp, #8]
  00094	e28d1010	 add         r1, sp, #0x10
  00098	eb000000	 bl          |?RegQueryInfoKeySubKeys@ce@@YAJPAUHKEY__@@AAK@Z|
  0009c	e3500000	 cmp         r0, #0

; 73   :     if (code != ERROR_SUCCESS)

  000a0	1a000071	 bne         |$cleanUp$37590|

; 74   :         {
; 75   :         goto cleanUp;
; 76   :         }
; 77   : 
; 78   :     for (DWORD index = 0; index < subKeys; index++)

  000a4	e59d3010	 ldr         r3, [sp, #0x10]
  000a8	e3a06000	 mov         r6, #0
  000ac	e3530000	 cmp         r3, #0
  000b0	0a00006c	 beq         |$LN8@Init@2|
  000b4	e59f5200	 ldr         r5, [pc, #0x200]
  000b8	e28da014	 add         r10, sp, #0x14
  000bc	e28db024	 add         r11, sp, #0x24
  000c0		 |$LL10@Init@2|

; 79   :         {
; 80   :         // Get subkey name
; 81   :         code = ce::RegEnumKey(hKey, index, keyName);

  000c0	e59d0008	 ldr         r0, [sp, #8]
  000c4	e28d2028	 add         r2, sp, #0x28
  000c8	e1a01006	 mov         r1, r6
  000cc	eb000000	 bl          |??$RegEnumKey@$0BA@U?$char_traits@G@ce@@Vallocator@2@@ce@@YAJPAUHKEY__@@KAAV?$_string_t@G$0BA@U?$char_traits@G@ce@@Vallocator@2@@0@@Z|
  000d0	e3500000	 cmp         r0, #0

; 82   :         if (code != ERROR_SUCCESS)

  000d4	1a00005e	 bne         |$LN9@Init@2|

; 83   :             {
; 84   :             continue;
; 85   :             }
; 86   :         // Get full name
; 87   :         keyName.insert(0, L"\\");

  000d8	e1a02005	 mov         r2, r5
  000dc		 |$LL29@Init@2|
  000dc	e1f230b2	 ldrh        r3, [r2, #2]!
  000e0	e3530000	 cmp         r3, #0
  000e4	1afffffc	 bne         |$LL29@Init@2|
  000e8	e0423005	 sub         r3, r2, r5
  000ec	e1a030c3	 mov         r3, r3, asr #1
  000f0	e1a02005	 mov         r2, r5
  000f4	e3a01000	 mov         r1, #0
  000f8	e28d0028	 add         r0, sp, #0x28
  000fc	eb000000	 bl          |?insert@?$_string_t@G$0BA@U?$char_traits@G@ce@@Vallocator@2@@ce@@QAA_NIPBGI@Z|

; 88   :         keyName.insert(0, busRegistryKey);                

  00100	e3580000	 cmp         r8, #0
  00104	0a000008	 beq         |$LN38@Init@2|
  00108	e1d830b0	 ldrh        r3, [r8]
  0010c	e1a02008	 mov         r2, r8
  00110	ea000000	 b           |$LN128@Init@2|
  00114		 |$LL37@Init@2|
  00114	e1f230b2	 ldrh        r3, [r2, #2]!
  00118		 |$LN128@Init@2|
  00118	e3530000	 cmp         r3, #0
  0011c	1afffffc	 bne         |$LL37@Init@2|
  00120	e0423008	 sub         r3, r2, r8
  00124	e1a030c3	 mov         r3, r3, asr #1
  00128	ea000000	 b           |$LN35@Init@2|
  0012c		 |$LN38@Init@2|
  0012c	e3a03000	 mov         r3, #0
  00130		 |$LN35@Init@2|
  00130	e1a02008	 mov         r2, r8
  00134	e3a01000	 mov         r1, #0
  00138	e28d0028	 add         r0, sp, #0x28
  0013c	eb000000	 bl          |?insert@?$_string_t@G$0BA@U?$char_traits@G@ce@@Vallocator@2@@ce@@QAA_NIPBGI@Z|

; 89   : 
; 90   :         // Create child device object
; 91   :         pChild = m_pBus->CreateBusDeviceChild(keyName);

  00140	e5990014	 ldr         r0, [r9, #0x14]
  00144	e59d1028	 ldr         r1, [sp, #0x28]
  00148	e5903000	 ldr         r3, [r0]
  0014c	e5933020	 ldr         r3, [r3, #0x20]
  00150	e1a0e00f	 mov         lr, pc
  00154	e12fff13	 bx          r3
  00158	e1b04000	 movs        r4, r0

; 92   :         if (pChild == NULL)

  0015c	0a00003c	 beq         |$LN9@Init@2|

; 93   :             {
; 94   :             continue;
; 95   :             }
; 96   : 
; 97   :         // Initialize child device object
; 98   :         if (!pChild->Init(index, keyName))

  00160	e5943000	 ldr         r3, [r4]
  00164	e59d2028	 ldr         r2, [sp, #0x28]
  00168	e1a01006	 mov         r1, r6
  0016c	e5933004	 ldr         r3, [r3, #4]
  00170	e1a00004	 mov         r0, r4
  00174	e1a0e00f	 mov         lr, pc
  00178	e12fff13	 bx          r3
  0017c	e3500000	 cmp         r0, #0
  00180	1a000002	 bne         |$LN5@Init@2|
  00184		 |$LN129@Init@2|

; 99   :             {
; 100  :             // This will result in delete
; 101  :             pChild->Release();

  00184	e1a00004	 mov         r0, r4
  00188	eb000000	 bl          |?Release@RefCount_t@@QAAJXZ|

; 102  :             continue;

  0018c	ea000030	 b           |$LN9@Init@2|
  00190		 |$LN5@Init@2|

; 103  :             }
; 104  : 
; 105  :         // Get load order information
; 106  :         code = RegOpenKeyEx(
; 107  :             HKEY_LOCAL_MACHINE, keyName, 0, 0, &hChildKey
; 108  :             );

  00190	e59d1028	 ldr         r1, [sp, #0x28]
  00194	e3a03000	 mov         r3, #0
  00198	e3a02000	 mov         r2, #0
  0019c	e3a0010a	 mov         r0, #0xA, 2
  001a0	e58da000	 str         r10, [sp]
  001a4	eb000000	 bl          RegOpenKeyExW
  001a8	e3500000	 cmp         r0, #0

; 109  :         if (code != ERROR_SUCCESS)
; 110  :             {
; 111  :             // This will result in delete
; 112  :             pChild->Release();
; 113  :             continue;

  001ac	1afffff4	 bne         |$LN129@Init@2|

; 114  :             }
; 115  :         // Get order value or use default one
; 116  :         ce::RegQueryValue(hChildKey, L"Order", order, 0xFFFFFFFF);

  001b0	e3a0e004	 mov         lr, #4
  001b4	e59d0014	 ldr         r0, [sp, #0x14]
  001b8	e59f10f8	 ldr         r1, [pc, #0xF8]
  001bc	e58de024	 str         lr, [sp, #0x24]
  001c0	e28de00c	 add         lr, sp, #0xC
  001c4	e3a03000	 mov         r3, #0
  001c8	e3a02000	 mov         r2, #0
  001cc	e58de000	 str         lr, [sp]
  001d0	e58db004	 str         r11, [sp, #4]
  001d4	eb000000	 bl          RegQueryValueExW
  001d8	e3500000	 cmp         r0, #0

; 117  :         RegCloseKey(hChildKey);

  001dc	e59d0014	 ldr         r0, [sp, #0x14]
  001e0	13e03000	 mvnne       r3, #0
  001e4	158d300c	 strne       r3, [sp, #0xC]
  001e8	eb000000	 bl          RegCloseKey

; 118  :         
; 119  :         // Add child object to array based on order 
; 120  :         iterator ppChild = begin();

  001ec	e5992004	 ldr         r2, [r9, #4]

; 121  :         iterator ppChildEnd = end();
; 122  :         ce::vector<DWORD>::iterator pOrder = orders.begin();

  001f0	e59d000c	 ldr         r0, [sp, #0xC]
  001f4	e5921004	 ldr         r1, [r2, #4]
  001f8		 |$LL3@Init@2|

; 123  :         while ((ppChild != ppChildEnd) && (*pOrder <= order))

  001f8	e1510002	 cmp         r1, r2
  001fc	03a03001	 moveq       r3, #1
  00200	13a03000	 movne       r3, #0
  00204	e21330ff	 ands        r3, r3, #0xFF
  00208	03a03001	 moveq       r3, #1
  0020c	13a03000	 movne       r3, #0
  00210	e21330ff	 ands        r3, r3, #0xFF

; 140  : }

  00214	0a000004	 beq         |$LN2@Init@2|
  00218	e5973000	 ldr         r3, [r7]
  0021c	e1530000	 cmp         r3, r0
  00220	95911004	 ldrls       r1, [r1, #4]
  00224	92877004	 addls       r7, r7, #4
  00228	9afffff2	 bls         |$LL3@Init@2|
  0022c		 |$LN2@Init@2|

; 124  :             {
; 125  :             ppChild++;
; 126  :             pOrder++;
; 127  :             }
; 128  : 
; 129  :         // Insert 
; 130  :         insert(ppChild, pChild);

  0022c	e2890004	 add         r0, r9, #4
  00230	eb000000	 bl          |?_Buynode@?$list@PAVBusDriverChild_t@@Vallocator@ce@@@ce@@IAAPAU_Node@12@PAU312@@Z|
  00234	e3500000	 cmp         r0, #0
  00238	15804000	 strne       r4, [r0]

; 131  :         orders.insert(pOrder, order);

  0023c	e28d0018	 add         r0, sp, #0x18
  00240	e28d300c	 add         r3, sp, #0xC
  00244	e3a02001	 mov         r2, #1
  00248	e1a01007	 mov         r1, r7
  0024c	eb000000	 bl          |??$insert@K@?$vector@KVallocator@ce@@U?$incremental_growth@$09@2@@ce@@QAA_NPAKIABK@Z|
  00250	e59d7018	 ldr         r7, [sp, #0x18]
  00254		 |$LN9@Init@2|
  00254	e59d3010	 ldr         r3, [sp, #0x10]
  00258	e2866001	 add         r6, r6, #1
  0025c	e1560003	 cmp         r6, r3
  00260	3affff96	 bcc         |$LL10@Init@2|

; 74   :         {
; 75   :         goto cleanUp;
; 76   :         }
; 77   : 
; 78   :     for (DWORD index = 0; index < subKeys; index++)

  00264	e59d501c	 ldr         r5, [sp, #0x1C]
  00268		 |$LN8@Init@2|

; 132  :         
; 133  :     }
; 134  :     
; 135  :     rc = TRUE;

  00268	e3a06001	 mov         r6, #1
  0026c		 |$cleanUp$37590|

; 136  :     
; 137  : cleanUp:
; 138  :     if (hKey != NULL) RegCloseKey(hKey);

  0026c	e59d0008	 ldr         r0, [sp, #8]
  00270	e3500000	 cmp         r0, #0
  00274	1b000000	 blne        RegCloseKey

; 139  :     return rc;

  00278	e1a02005	 mov         r2, r5
  0027c	e1a01007	 mov         r1, r7
  00280	e28d0018	 add         r0, sp, #0x18
  00284	eb000000	 bl          |?erase@?$vector@KVallocator@ce@@U?$incremental_growth@$09@2@@ce@@QAAXPAK0@Z|
  00288	e59d0018	 ldr         r0, [sp, #0x18]
  0028c	eb000000	 bl          |??3@YAXPAX@Z|
  00290	e59d3054	 ldr         r3, [sp, #0x54]
  00294	e3530010	 cmp         r3, #0x10
  00298	159d0028	 ldrne       r0, [sp, #0x28]
  0029c	1b000000	 blne        |??3@YAXPAX@Z|
  002a0	e59d0058	 ldr         r0, [sp, #0x58]
  002a4	eb000000	 bl          __security_check_cookie

; 140  : }

  002a8	e1a00006	 mov         r0, r6
  002ac	e28dd05c	 add         sp, sp, #0x5C
  002b0	e8bd4ff0	 ldmia       sp!, {r4 - r11, lr}
  002b4	e12fff1e	 bx          lr
  002b8		 |$LN133@Init@2|
  002b8		 |$LN134@Init@2|
  002b8	00000000	 DCD         |??_C@_1M@PJMPBMAL@?$AAO?$AAr?$AAd?$AAe?$AAr?$AA?$AA@|
  002bc		 |$LN135@Init@2|
  002bc	00000000	 DCD         |??_C@_13FPGAJAPJ@?$AA?2?$AA?$AA@|
  002c0		 |$LN136@Init@2|
  002c0	00000000	 DCD         |__security_cookie|
  002c4		 |$M40730|

			 ENDP  ; |?Init@DefaultBusChildContainer_t@@UAAHPBG@Z|, DefaultBusChildContainer_t::Init

; File c:\wince600\public\common\oak\inc\singleton.hxx

  00000			 AREA	 |.pdata|, PDATA
|$T40747| DCD	|$LN7@factory|
	DCD	0x40000401
; Function compile flags: /Ogspy

  00000			 AREA	 |.text$yc|, CODE, ARM

  00000		 |??__E?_factory@?$singleton@V?$free_list@$0GE@Vallocator@ce@@@ce@@$03V?$static_allocator@V?$free_list@$0GE@Vallocator@ce@@@ce@@$03@2@@ce@@1Ulock_factory@12@A@@YAXXZ| PROC ; `dynamic initializer for 'ce::singleton<ce::free_list<100,ce::allocator>,4,ce::static_allocator<ce::free_list<100,ce::allocator>,4> >::_factory''

; 390  :     {

  00000		 |$LN7@factory|
  00000	e52de004	 str         lr, [sp, #-4]!
  00004		 |$M40744|
  00004	eb000000	 bl          |?get_lock@?$singleton@V?$free_list@$0GE@Vallocator@ce@@@ce@@$03V?$static_allocator@V?$free_list@$0GE@Vallocator@ce@@@ce@@$03@2@@ce@@KAAAVcritical_section@2@XZ|
  00008	e49de004	 ldr         lr, [sp], #4
  0000c	e12fff1e	 bx          lr
  00010		 |$M40745|

			 ENDP  ; |??__E?_factory@?$singleton@V?$free_list@$0GE@Vallocator@ce@@@ce@@$03V?$static_allocator@V?$free_list@$0GE@Vallocator@ce@@@ce@@$03@2@@ce@@1Ulock_factory@12@A@@YAXXZ|, `dynamic initializer for 'ce::singleton<ce::free_list<100,ce::allocator>,4,ce::static_allocator<ce::free_list<100,ce::allocator>,4> >::_factory''


  00000			 AREA	 |.pdata|, PDATA
|$T40757| DCD	|$LN7@dynamic|
	DCD	0x40000601
; Function compile flags: /Ogspy

  00000			 AREA	 |.text$yd|, CODE, ARM

  00000		 |??__Fcs@?1??get_lock@?$singleton@V?$free_list@$0GE@Vallocator@ce@@@ce@@$03V?$static_allocator@V?$free_list@$0GE@Vallocator@ce@@@ce@@$03@2@@ce@@KAAAVcritical_section@2@XZ@YAXXZ| PROC ; `ce::singleton<ce::free_list<100,ce::allocator>,4,ce::static_allocator<ce::free_list<100,ce::allocator>,4> >::get_lock'::`2'::`dynamic atexit destructor for 'cs''
  00000		 |$LN7@dynamic|
  00000	e52de004	 str         lr, [sp, #-4]!
  00004		 |$M40754|
  00004	e59f0008	 ldr         r0, [pc, #8]
  00008	eb000000	 bl          DeleteCriticalSection
  0000c	e49de004	 ldr         lr, [sp], #4
  00010	e12fff1e	 bx          lr
  00014		 |$LN8@dynamic|
  00014		 |$LN9@dynamic|
  00014	00000000	 DCD         |?cs@?1??get_lock@?$singleton@V?$free_list@$0GE@Vallocator@ce@@@ce@@$03V?$static_allocator@V?$free_list@$0GE@Vallocator@ce@@@ce@@$03@2@@ce@@KAAAVcritical_section@3@XZ@4V43@A|
  00018		 |$M40755|

			 ENDP  ; |??__Fcs@?1??get_lock@?$singleton@V?$free_list@$0GE@Vallocator@ce@@@ce@@$03V?$static_allocator@V?$free_list@$0GE@Vallocator@ce@@@ce@@$03@2@@ce@@KAAAVcritical_section@2@XZ@YAXXZ|, `ce::singleton<ce::free_list<100,ce::allocator>,4,ce::static_allocator<ce::free_list<100,ce::allocator>,4> >::get_lock'::`2'::`dynamic atexit destructor for 'cs''

	EXPORT	|?_factory@?$singleton@V?$free_list@$0GE@Vallocator@ce@@@ce@@$03V?$static_allocator@V?$free_list@$0GE@Vallocator@ce@@@ce@@$03@2@@ce@@1Ulock_factory@12@A| [ DATA ] ; ce::singleton<ce::free_list<100,ce::allocator>,4,ce::static_allocator<ce::free_list<100,ce::allocator>,4> >::_factory

  00000			 AREA	 |.bss|, NOINIT
|?_factory@?$singleton@V?$free_list@$0GE@Vallocator@ce@@@ce@@$03V?$static_allocator@V?$free_list@$0GE@Vallocator@ce@@@ce@@$03@2@@ce@@1Ulock_factory@12@A| % 0x1 ; ce::singleton<ce::free_list<100,ce::allocator>,4,ce::static_allocator<ce::free_list<100,ce::allocator>,4> >::_factory

  00000			 AREA	 |.CRT$XCU|, DATA
|?_factory$initializer$@?$singleton@V?$free_list@$0GE@Vallocator@ce@@@ce@@$03V?$static_allocator@V?$free_list@$0GE@Vallocator@ce@@@ce@@$03@2@@ce@@1P6AXXZA| DCD |??__E?_factory@?$singleton@V?$free_list@$0GE@Vallocator@ce@@@ce@@$03V?$static_allocator@V?$free_list@$0GE@Vallocator@ce@@@ce@@$03@2@@ce@@1Ulock_factory@12@A@@YAXXZ| ; ce::singleton<ce::free_list<100,ce::allocator>,4,ce::static_allocator<ce::free_list<100,ce::allocator>,4> >::_factory$initializer$
	END
