; Listing generated by Microsoft (R) Optimizing Compiler Version 14.01.60511.01 

	TTL	C:\WINCE600\PLATFORM\COMMON\SRC\SOC\COMMON_TI_V1\COMMON_TI\BUS\MDD\defaultbuschild.cpp
	CODE32

  00000			 AREA	 |.drectve|, DRECTVE
	DCB	"/include:?_factory@?$$singleton@V?$$free_list@$$0GE@Vall"
	DCB	"ocator@ce@@@ce@@$$03V?$$static_allocator@V?$$free_list@$$"
	DCB	"0GE@Vallocator@ce@@@ce@@$$03@2@@ce@@1Ulock_factory@12@A "
	DCB	"-defaultlib:LIBCMT "
	DCB	"-defaultlib:OLDNAMES "

	EXPORT	|??0critical_section@ce@@QAA@XZ|	; ce::critical_section::critical_section
	IMPORT	|InitializeCriticalSection|
; File c:\wince600\public\common\oak\inc\sync.hxx

  00000			 AREA	 |.pdata|, PDATA
|$T38344| DCD	|$LN5@critical_s|
	DCD	0x40000601
; Function compile flags: /Ogspy

  00000			 AREA	 |.text|, CODE, ARM

  00000		 |??0critical_section@ce@@QAA@XZ| PROC	; ce::critical_section::critical_section

; 125  :     critical_section()

  00000		 |$LN5@critical_s|
  00000	e92d4010	 stmdb       sp!, {r4, lr}
  00004		 |$M38341|
  00004	e1a04000	 mov         r4, r0
  00008	eb000000	 bl          InitializeCriticalSection
  0000c	e1a00004	 mov         r0, r4
  00010	e8bd4010	 ldmia       sp!, {r4, lr}
  00014	e12fff1e	 bx          lr
  00018		 |$M38342|

			 ENDP  ; |??0critical_section@ce@@QAA@XZ|, ce::critical_section::critical_section

	EXPORT	|??1critical_section@ce@@QAA@XZ|	; ce::critical_section::~critical_section
	IMPORT	|DeleteCriticalSection|

  00000			 AREA	 |.pdata|, PDATA
|$T38352| DCD	|$LN5@critical_s@2|
	DCD	0x40000401
; Function compile flags: /Ogspy

  00000			 AREA	 |.text|, CODE, ARM

  00000		 |??1critical_section@ce@@QAA@XZ| PROC	; ce::critical_section::~critical_section

; 129  :         {DeleteCriticalSection(this); }

  00000		 |$LN5@critical_s@2|
  00000	e52de004	 str         lr, [sp, #-4]!
  00004		 |$M38349|
  00004	eb000000	 bl          DeleteCriticalSection
  00008	e49de004	 ldr         lr, [sp], #4
  0000c	e12fff1e	 bx          lr
  00010		 |$M38350|

			 ENDP  ; |??1critical_section@ce@@QAA@XZ|, ce::critical_section::~critical_section

	EXPORT	|?allocate@allocator@ce@@QBAPAXI@Z|	; ce::allocator::allocate
	IMPORT	|??2@YAPAXI@Z|				; operator new
; File c:\wince600\public\common\oak\inc\allocator.hxx

  00000			 AREA	 |.pdata|, PDATA
|$T38362| DCD	|$LN5@allocate|
	DCD	0x40000501
; Function compile flags: /Ogspy

  00000			 AREA	 |.text|, CODE, ARM

  00000		 |?allocate@allocator@ce@@QBAPAXI@Z| PROC ; ce::allocator::allocate

; 106  :         {return operator new(Size); }

  00000		 |$LN5@allocate|
  00000	e52de004	 str         lr, [sp, #-4]!
  00004		 |$M38359|
  00004	e1a00001	 mov         r0, r1
  00008	eb000000	 bl          |??2@YAPAXI@Z|
  0000c	e49de004	 ldr         lr, [sp], #4
  00010	e12fff1e	 bx          lr
  00014		 |$M38360|

			 ENDP  ; |?allocate@allocator@ce@@QBAPAXI@Z|, ce::allocator::allocate

	EXPORT	|?deallocate@allocator@ce@@QBAXPAXI@Z|	; ce::allocator::deallocate
	IMPORT	|??3@YAXPAX@Z|				; operator delete

  00000			 AREA	 |.pdata|, PDATA
|$T38370| DCD	|$LN5@deallocate|
	DCD	0x40000501
; Function compile flags: /Ogspy

  00000			 AREA	 |.text|, CODE, ARM

  00000		 |?deallocate@allocator@ce@@QBAXPAXI@Z| PROC ; ce::allocator::deallocate

; 109  :         {operator delete(Ptr); }

  00000		 |$LN5@deallocate|
  00000	e52de004	 str         lr, [sp, #-4]!
  00004		 |$M38367|
  00004	e1a00001	 mov         r0, r1
  00008	eb000000	 bl          |??3@YAXPAX@Z|
  0000c	e49de004	 ldr         lr, [sp], #4
  00010	e12fff1e	 bx          lr
  00014		 |$M38368|

			 ENDP  ; |?deallocate@allocator@ce@@QBAXPAXI@Z|, ce::allocator::deallocate

	EXPORT	|?RegQueryValue@ce@@YAJPAUHKEY__@@PBGAAKK@Z| ; ce::RegQueryValue
	IMPORT	|RegQueryValueExW|
; File c:\wince600\platform\common\src\soc\common_ti_v1\common_ti\bus\inc\registry.hxx

  00000			 AREA	 |.pdata|, PDATA
|$T38384| DCD	|$LN6@RegQueryVa|
	DCD	0x40001102
; Function compile flags: /Ogspy

  00000			 AREA	 |.text|, CODE, ARM

  00000		 |?RegQueryValue@ce@@YAJPAUHKEY__@@PBGAAKK@Z| PROC ; ce::RegQueryValue

; 31   : {

  00000		 |$LN6@RegQueryVa|
  00000	e92d4030	 stmdb       sp!, {r4, r5, lr}
  00004	e24dd00c	 sub         sp, sp, #0xC
  00008		 |$M38381|
  00008	e1a05003	 mov         r5, r3
  0000c	e1a04002	 mov         r4, r2

; 32   :     LONG code;
; 33   :     DWORD size = sizeof(DWORD);

  00010	e3a03004	 mov         r3, #4

; 34   :     
; 35   :     code = RegQueryValueEx(
; 36   :         hKey, name, NULL, NULL, reinterpret_cast<BYTE*>(&value), &size
; 37   :         );

  00014	e58d3008	 str         r3, [sp, #8]
  00018	e28de008	 add         lr, sp, #8
  0001c	e3a03000	 mov         r3, #0
  00020	e3a02000	 mov         r2, #0
  00024	e58de004	 str         lr, [sp, #4]
  00028	e58d4000	 str         r4, [sp]
  0002c	eb000000	 bl          RegQueryValueExW
  00030	e3500000	 cmp         r0, #0

; 38   :     if (code != ERROR_SUCCESS) value = defaultValue;

  00034	15845000	 strne       r5, [r4]

; 39   :     return code;
; 40   : }

  00038	e28dd00c	 add         sp, sp, #0xC
  0003c	e8bd4030	 ldmia       sp!, {r4, r5, lr}
  00040	e12fff1e	 bx          lr
  00044		 |$M38382|

			 ENDP  ; |?RegQueryValue@ce@@YAJPAUHKEY__@@PBGAAKK@Z|, ce::RegQueryValue

	EXPORT	|??0RefCount_t@@IAA@XZ|			; RefCount_t::RefCount_t
	EXPORT	|??_7RefCount_t@@6B@| [ DATA ]		; RefCount_t::`vftable'
	IMPORT	|??_ERefCount_t@@MAAPAXI@Z|, WEAK |??_GRefCount_t@@MAAPAXI@Z| ; RefCount_t::`vector deleting destructor', RefCount_t::`scalar deleting destructor'
; File c:\wince600\platform\common\src\soc\common_ti_v1\common_ti\bus\inc\driver.hxx

  00000			 AREA	 |.pdata|, PDATA
|$T38394| DCD	|$LN5@RefCount_t|
	DCD	0x40000600

  00000			 AREA	 |.rdata|, DATA, READONLY
|??_7RefCount_t@@6B@| DCD |??_ERefCount_t@@MAAPAXI@Z|	; RefCount_t::`vftable'
; Function compile flags: /Ogspy

  00000			 AREA	 |.text|, CODE, ARM

  00000		 |??0RefCount_t@@IAA@XZ| PROC		; RefCount_t::RefCount_t

; 44   :     RefCount_t(

  00000		 |$LN5@RefCount_t|
  00000		 |$M38391|
  00000	e59f300c	 ldr         r3, [pc, #0xC]

; 45   :         ) {
; 46   :         m_refCount = 1;

  00004	e3a02001	 mov         r2, #1
  00008	e5802004	 str         r2, [r0, #4]
  0000c	e5803000	 str         r3, [r0]

; 47   :         };

  00010	e12fff1e	 bx          lr
  00014		 |$LN6@RefCount_t|
  00014		 |$LN7@RefCount_t|
  00014	00000000	 DCD         |??_7RefCount_t@@6B@|
  00018		 |$M38392|

			 ENDP  ; |??0RefCount_t@@IAA@XZ|, RefCount_t::RefCount_t

	EXPORT	|??1RefCount_t@@MAA@XZ|			; RefCount_t::~RefCount_t

  00000			 AREA	 |.pdata|, PDATA
|$T38404| DCD	|$LN5@RefCount_t@2|
	DCD	0x40000400
; Function compile flags: /Ogspy

  00000			 AREA	 |.text|, CODE, ARM

  00000		 |??1RefCount_t@@MAA@XZ| PROC		; RefCount_t::~RefCount_t

; 50   :         ) { };

  00000		 |$LN5@RefCount_t@2|
  00000		 |$M38401|
  00000	e59f3004	 ldr         r3, [pc, #4]
  00004	e5803000	 str         r3, [r0]
  00008	e12fff1e	 bx          lr
  0000c		 |$LN6@RefCount_t@2|
  0000c		 |$LN7@RefCount_t@2|
  0000c	00000000	 DCD         |??_7RefCount_t@@6B@|
  00010		 |$M38402|

			 ENDP  ; |??1RefCount_t@@MAA@XZ|, RefCount_t::~RefCount_t

	EXPORT	|?AddRef@RefCount_t@@QAAJXZ|		; RefCount_t::AddRef
	IMPORT	|InterlockedIncrement|

  00000			 AREA	 |.pdata|, PDATA
|$T38416| DCD	|$LN5@AddRef|
	DCD	0x40000501
; Function compile flags: /Ogspy

  00000			 AREA	 |.text|, CODE, ARM

  00000		 |?AddRef@RefCount_t@@QAAJXZ| PROC	; RefCount_t::AddRef

; 54   :         ) { 

  00000		 |$LN5@AddRef|
  00000	e52de004	 str         lr, [sp, #-4]!
  00004		 |$M38413|

; 55   :         return InterlockedIncrement(&m_refCount);

  00004	e2800004	 add         r0, r0, #4
  00008	eb000000	 bl          InterlockedIncrement

; 56   :         };

  0000c	e49de004	 ldr         lr, [sp], #4
  00010	e12fff1e	 bx          lr
  00014		 |$M38414|

			 ENDP  ; |?AddRef@RefCount_t@@QAAJXZ|, RefCount_t::AddRef

	EXPORT	|?Release@RefCount_t@@QAAJXZ|		; RefCount_t::Release
	IMPORT	|InterlockedDecrement|

  00000			 AREA	 |.pdata|, PDATA
|$T38431| DCD	|$LN8@Release|
	DCD	0x40001101
; Function compile flags: /Ogspy

  00000			 AREA	 |.text|, CODE, ARM

  00000		 |?Release@RefCount_t@@QAAJXZ| PROC	; RefCount_t::Release

; 59   :         ) {

  00000		 |$LN8@Release|
  00000	e92d4030	 stmdb       sp!, {r4, r5, lr}
  00004		 |$M38428|
  00004	e1a04000	 mov         r4, r0

; 60   :         LONG count = InterlockedDecrement(&m_refCount);

  00008	e2840004	 add         r0, r4, #4
  0000c	eb000000	 bl          InterlockedDecrement
  00010	e1a05000	 mov         r5, r0

; 61   :         if (count <= 0) delete this;

  00014	e3550000	 cmp         r5, #0
  00018	ca000006	 bgt         |$LN4@Release|
  0001c	e3540000	 cmp         r4, #0
  00020	15943000	 ldrne       r3, [r4]
  00024	13a01001	 movne       r1, #1
  00028	11a00004	 movne       r0, r4
  0002c	15933000	 ldrne       r3, [r3]
  00030	11a0e00f	 movne       lr, pc
  00034	112fff13	 bxne        r3
  00038		 |$LN4@Release|

; 62   :         return count;
; 63   :         };

  00038	e1a00005	 mov         r0, r5
  0003c	e8bd4030	 ldmia       sp!, {r4, r5, lr}
  00040	e12fff1e	 bx          lr
  00044		 |$M38429|

			 ENDP  ; |?Release@RefCount_t@@QAAJXZ|, RefCount_t::Release


  00000			 AREA	 |.pdata|, PDATA
|$T38445| DCD	|$LN8@scalar|
	DCD	0x40000a01
; Function compile flags: /Ogspy

  00000			 AREA	 |.text|, CODE, ARM

  00000		 |??_GRefCount_t@@MAAPAXI@Z| PROC	; RefCount_t::`scalar deleting destructor'
  00000		 |$LN8@scalar|
  00000	e92d4010	 stmdb       sp!, {r4, lr}
  00004		 |$M38442|
  00004	e1a04000	 mov         r4, r0
  00008	e59f3014	 ldr         r3, [pc, #0x14]
  0000c	e3110001	 tst         r1, #1
  00010	e5843000	 str         r3, [r4]
  00014	1b000000	 blne        |??3@YAXPAX@Z|
  00018	e1a00004	 mov         r0, r4
  0001c	e8bd4010	 ldmia       sp!, {r4, lr}
  00020	e12fff1e	 bx          lr
  00024		 |$LN9@scalar|
  00024		 |$LN10@scalar|
  00024	00000000	 DCD         |??_7RefCount_t@@6B@|
  00028		 |$M38443|

			 ENDP  ; |??_GRefCount_t@@MAAPAXI@Z|, RefCount_t::`scalar deleting destructor'

	EXPORT	|??0BusDriverChild_t@@QAA@XZ|		; BusDriverChild_t::BusDriverChild_t
	EXPORT	|??_7BusDriverChild_t@@6B@| [ DATA ]	; BusDriverChild_t::`vftable'
	IMPORT	|??_EBusDriverChild_t@@UAAPAXI@Z|, WEAK |??_GBusDriverChild_t@@UAAPAXI@Z| ; BusDriverChild_t::`vector deleting destructor', BusDriverChild_t::`scalar deleting destructor'
	IMPORT	|_purecall|

  00000			 AREA	 |.pdata|, PDATA
|$T38460| DCD	|$LN7@BusDriverC|
	DCD	0x40000600

  00000			 AREA	 |.rdata|, DATA, READONLY
|??_7BusDriverChild_t@@6B@| DCD |??_EBusDriverChild_t@@UAAPAXI@Z| ; BusDriverChild_t::`vftable'
	DCD	|_purecall|
	DCD	|_purecall|
	DCD	|_purecall|
	DCD	|_purecall|
	DCD	|_purecall|
	DCD	|_purecall|
	DCD	|_purecall|
	DCD	|_purecall|
	DCD	|_purecall|
	DCD	|_purecall|
	DCD	|_purecall|
	DCD	|_purecall|
	DCD	|_purecall|
; Function compile flags: /Ogspy

  00000			 AREA	 |.text|, CODE, ARM

  00000		 |??0BusDriverChild_t@@QAA@XZ| PROC	; BusDriverChild_t::BusDriverChild_t
  00000		 |$LN7@BusDriverC|
  00000		 |$M38457|
  00000	e59f300c	 ldr         r3, [pc, #0xC]
  00004	e3a02001	 mov         r2, #1
  00008	e5802004	 str         r2, [r0, #4]
  0000c	e5803000	 str         r3, [r0]
  00010	e12fff1e	 bx          lr
  00014		 |$LN8@BusDriverC|
  00014		 |$LN9@BusDriverC|
  00014	00000000	 DCD         |??_7BusDriverChild_t@@6B@|
  00018		 |$M38458|

			 ENDP  ; |??0BusDriverChild_t@@QAA@XZ|, BusDriverChild_t::BusDriverChild_t

	EXPORT	|??1BusDriverChild_t@@UAA@XZ|		; BusDriverChild_t::~BusDriverChild_t

  00000			 AREA	 |.pdata|, PDATA
|$T38473| DCD	|$LN7@BusDriverC@2|
	DCD	0x40000400
; Function compile flags: /Ogspy

  00000			 AREA	 |.text|, CODE, ARM

  00000		 |??1BusDriverChild_t@@UAA@XZ| PROC	; BusDriverChild_t::~BusDriverChild_t
  00000		 |$LN7@BusDriverC@2|
  00000		 |$M38470|
  00000	e59f3004	 ldr         r3, [pc, #4]
  00004	e5803000	 str         r3, [r0]
  00008	e12fff1e	 bx          lr
  0000c		 |$LN8@BusDriverC@2|
  0000c		 |$LN9@BusDriverC@2|
  0000c	00000000	 DCD         |??_7RefCount_t@@6B@|
  00010		 |$M38471|

			 ENDP  ; |??1BusDriverChild_t@@UAA@XZ|, BusDriverChild_t::~BusDriverChild_t


  00000			 AREA	 |.pdata|, PDATA
|$T38494| DCD	|$LN10@scalar@2|
	DCD	0x40000a01
; Function compile flags: /Ogspy

  00000			 AREA	 |.text|, CODE, ARM

  00000		 |??_GBusDriverChild_t@@UAAPAXI@Z| PROC	; BusDriverChild_t::`scalar deleting destructor'
  00000		 |$LN10@scalar@2|
  00000	e92d4010	 stmdb       sp!, {r4, lr}
  00004		 |$M38491|
  00004	e1a04000	 mov         r4, r0
  00008	e59f3014	 ldr         r3, [pc, #0x14]
  0000c	e3110001	 tst         r1, #1
  00010	e5843000	 str         r3, [r4]
  00014	1b000000	 blne        |??3@YAXPAX@Z|
  00018	e1a00004	 mov         r0, r4
  0001c	e8bd4010	 ldmia       sp!, {r4, lr}
  00020	e12fff1e	 bx          lr
  00024		 |$LN11@scalar@2|
  00024		 |$LN12@scalar@2|
  00024	00000000	 DCD         |??_7RefCount_t@@6B@|
  00028		 |$M38492|

			 ENDP  ; |??_GBusDriverChild_t@@UAAPAXI@Z|, BusDriverChild_t::`scalar deleting destructor'

	EXPORT	|?DriverId@DefaultBusChild_t@@UAAKXZ|	; DefaultBusChild_t::DriverId
; File c:\wince600\platform\common\src\soc\common_ti_v1\common_ti\bus\mdd\defaultbuschild.cpp

  00000			 AREA	 |.pdata|, PDATA
|$T38506| DCD	|$LN5@DriverId|
	DCD	0x40000200
; Function compile flags: /Ogspy

  00000			 AREA	 |.text|, CODE, ARM

  00000		 |?DriverId@DefaultBusChild_t@@UAAKXZ| PROC ; DefaultBusChild_t::DriverId

; 148  : {

  00000		 |$LN5@DriverId|
  00000		 |$M38503|

; 149  :     return m_driverId;

  00000	e59000d4	 ldr         r0, [r0, #0xD4]

; 150  : }

  00004	e12fff1e	 bx          lr
  00008		 |$M38504|

			 ENDP  ; |?DriverId@DefaultBusChild_t@@UAAKXZ|, DefaultBusChild_t::DriverId

	EXPORT	|?IoCtlTranslateBusAddress@DefaultBusChild_t@@UAAHW4_INTERFACE_TYPE@@KT_LARGE_INTEGER@@PAKPAT3@@Z| ; DefaultBusChild_t::IoCtlTranslateBusAddress

  00000			 AREA	 |.pdata|, PDATA
|$T38519| DCD	|$LN5@IoCtlTrans|
	DCD	0x40001204
; Function compile flags: /Ogspy

  00000			 AREA	 |.text|, CODE, ARM

  00000		 |?IoCtlTranslateBusAddress@DefaultBusChild_t@@UAAHW4_INTERFACE_TYPE@@KT_LARGE_INTEGER@@PAKPAT3@@Z| PROC ; DefaultBusChild_t::IoCtlTranslateBusAddress

; 165  : {

  00000		 |$LN5@IoCtlTrans|
  00000	e1a0c00d	 mov         r12, sp
  00004	e92d000f	 stmdb       sp!, {r0 - r3}
  00008	e92d50f0	 stmdb       sp!, {r4 - r7, r12, lr}
  0000c	e24dd00c	 sub         sp, sp, #0xC
  00010		 |$M38516|

; 166  :     // Forward request on bus level for default driver
; 167  :     return m_pBus->IoCtlTranslateBusAddress(
; 168  :         interfaceType, busNumber, busAddress, pAddressSpace, pTranslatedAddress
; 169  :         );

  00010	e5900008	 ldr         r0, [r0, #8]
  00014	e59d603c	 ldr         r6, [sp, #0x3C]
  00018	e59d7038	 ldr         r7, [sp, #0x38]
  0001c	e590e000	 ldr         lr, [r0]
  00020	e59d5034	 ldr         r5, [sp, #0x34]
  00024	e58d6008	 str         r6, [sp, #8]
  00028	e59e403c	 ldr         r4, [lr, #0x3C]
  0002c	e58d7004	 str         r7, [sp, #4]
  00030	e58d5000	 str         r5, [sp]
  00034	e1a0e00f	 mov         lr, pc
  00038	e12fff14	 bx          r4

; 170  : }

  0003c	e28dd00c	 add         sp, sp, #0xC
  00040	e89d60f0	 ldmia       sp, {r4 - r7, sp, lr}
  00044	e12fff1e	 bx          lr
  00048		 |$M38517|

			 ENDP  ; |?IoCtlTranslateBusAddress@DefaultBusChild_t@@UAAHW4_INTERFACE_TYPE@@KT_LARGE_INTEGER@@PAKPAT3@@Z|, DefaultBusChild_t::IoCtlTranslateBusAddress

	EXPORT	|?IoCtlTranslateSystemAddress@DefaultBusChild_t@@UAAHW4_INTERFACE_TYPE@@KT_LARGE_INTEGER@@PAT3@@Z| ; DefaultBusChild_t::IoCtlTranslateSystemAddress

  00000			 AREA	 |.pdata|, PDATA
|$T38532| DCD	|$LN5@IoCtlTrans@2|
	DCD	0x40001004
; Function compile flags: /Ogspy

  00000			 AREA	 |.text|, CODE, ARM

  00000		 |?IoCtlTranslateSystemAddress@DefaultBusChild_t@@UAAHW4_INTERFACE_TYPE@@KT_LARGE_INTEGER@@PAT3@@Z| PROC ; DefaultBusChild_t::IoCtlTranslateSystemAddress

; 184  : {

  00000		 |$LN5@IoCtlTrans@2|
  00000	e1a0c00d	 mov         r12, sp
  00004	e92d000f	 stmdb       sp!, {r0 - r3}
  00008	e92d5070	 stmdb       sp!, {r4 - r6, r12, lr}
  0000c	e24dd008	 sub         sp, sp, #8
  00010		 |$M38529|

; 185  :     // Forward request on bus level for default driver
; 186  :     return m_pBus->IoCtlTranslateSystemAddress(
; 187  :         interfaceType, busNumber, systemAddress, pTranslatedAddress
; 188  :         );

  00010	e5900008	 ldr         r0, [r0, #8]
  00014	e59d5030	 ldr         r5, [sp, #0x30]
  00018	e59d602c	 ldr         r6, [sp, #0x2C]
  0001c	e590e000	 ldr         lr, [r0]
  00020	e58d5004	 str         r5, [sp, #4]
  00024	e58d6000	 str         r6, [sp]
  00028	e59e4040	 ldr         r4, [lr, #0x40]
  0002c	e1a0e00f	 mov         lr, pc
  00030	e12fff14	 bx          r4

; 189  : }

  00034	e28dd008	 add         sp, sp, #8
  00038	e89d6070	 ldmia       sp, {r4 - r6, sp, lr}
  0003c	e12fff1e	 bx          lr
  00040		 |$M38530|

			 ENDP  ; |?IoCtlTranslateSystemAddress@DefaultBusChild_t@@UAAHW4_INTERFACE_TYPE@@KT_LARGE_INTEGER@@PAT3@@Z|, DefaultBusChild_t::IoCtlTranslateSystemAddress

	EXPORT	|?IoCtlGetPowerState@DefaultBusChild_t@@UAAHPAW4_CEDEVICE_POWER_STATE@@@Z| ; DefaultBusChild_t::IoCtlGetPowerState

  00000			 AREA	 |.pdata|, PDATA
|$T38541| DCD	|$LN5@IoCtlGetPo|
	DCD	0x40000200
; Function compile flags: /Ogspy

  00000			 AREA	 |.text|, CODE, ARM

  00000		 |?IoCtlGetPowerState@DefaultBusChild_t@@UAAHPAW4_CEDEVICE_POWER_STATE@@@Z| PROC ; DefaultBusChild_t::IoCtlGetPowerState

; 200  : {

  00000		 |$LN5@IoCtlGetPo|
  00000		 |$M38538|

; 201  :     BOOL rc = FALSE;
; 202  :     UNREFERENCED_PARAMETER(pPowerState);
; 203  :     return rc;

  00000	e3a00000	 mov         r0, #0

; 204  : }

  00004	e12fff1e	 bx          lr
  00008		 |$M38539|

			 ENDP  ; |?IoCtlGetPowerState@DefaultBusChild_t@@UAAHPAW4_CEDEVICE_POWER_STATE@@@Z|, DefaultBusChild_t::IoCtlGetPowerState

	EXPORT	|?IoCtlSetPowerState@DefaultBusChild_t@@UAAHPAW4_CEDEVICE_POWER_STATE@@@Z| ; DefaultBusChild_t::IoCtlSetPowerState

  00000			 AREA	 |.pdata|, PDATA
|$T38550| DCD	|$LN5@IoCtlSetPo|
	DCD	0x40000200
; Function compile flags: /Ogspy

  00000			 AREA	 |.text|, CODE, ARM

  00000		 |?IoCtlSetPowerState@DefaultBusChild_t@@UAAHPAW4_CEDEVICE_POWER_STATE@@@Z| PROC ; DefaultBusChild_t::IoCtlSetPowerState

; 215  : {

  00000		 |$LN5@IoCtlSetPo|
  00000		 |$M38547|

; 216  :     BOOL rc = FALSE;
; 217  :     UNREFERENCED_PARAMETER(pPowerState);
; 218  :     return rc;

  00000	e3a00000	 mov         r0, #0

; 219  : }

  00004	e12fff1e	 bx          lr
  00008		 |$M38548|

			 ENDP  ; |?IoCtlSetPowerState@DefaultBusChild_t@@UAAHPAW4_CEDEVICE_POWER_STATE@@@Z|, DefaultBusChild_t::IoCtlSetPowerState

	EXPORT	|?IoCtlGetConfigurationData@DefaultBusChild_t@@UAAHKKKPAX@Z| ; DefaultBusChild_t::IoCtlGetConfigurationData

  00000			 AREA	 |.pdata|, PDATA
|$T38563| DCD	|$LN5@IoCtlGetCo|
	DCD	0x40001002
; Function compile flags: /Ogspy

  00000			 AREA	 |.text|, CODE, ARM

  00000		 |?IoCtlGetConfigurationData@DefaultBusChild_t@@UAAHKKKPAX@Z| PROC ; DefaultBusChild_t::IoCtlGetConfigurationData

; 233  : {

  00000		 |$LN5@IoCtlGetCo|
  00000	e92d4070	 stmdb       sp!, {r4 - r6, lr}
  00004	e24dd008	 sub         sp, sp, #8
  00008		 |$M38560|
  00008	e1a06003	 mov         r6, r3
  0000c	e1a03002	 mov         r3, r2

; 234  :     // Forward request on bus level for default driver
; 235  :     // Should we do it? We don't pass info about child...
; 236  :     return m_pBus->IoCtlGetConfigurationData(
; 237  :         space, 0, offset, length, pBuffer
; 238  :         );

  00010	e5900008	 ldr         r0, [r0, #8]
  00014	e59d5018	 ldr         r5, [sp, #0x18]
  00018	e3a02000	 mov         r2, #0
  0001c	e590e000	 ldr         lr, [r0]
  00020	e58d5004	 str         r5, [sp, #4]
  00024	e58d6000	 str         r6, [sp]
  00028	e59e404c	 ldr         r4, [lr, #0x4C]
  0002c	e1a0e00f	 mov         lr, pc
  00030	e12fff14	 bx          r4

; 239  : }

  00034	e28dd008	 add         sp, sp, #8
  00038	e8bd4070	 ldmia       sp!, {r4 - r6, lr}
  0003c	e12fff1e	 bx          lr
  00040		 |$M38561|

			 ENDP  ; |?IoCtlGetConfigurationData@DefaultBusChild_t@@UAAHKKKPAX@Z|, DefaultBusChild_t::IoCtlGetConfigurationData

	EXPORT	|?IoCtlSetConfigurationData@DefaultBusChild_t@@UAAHKKKPAX@Z| ; DefaultBusChild_t::IoCtlSetConfigurationData

  00000			 AREA	 |.pdata|, PDATA
|$T38576| DCD	|$LN5@IoCtlSetCo|
	DCD	0x40001002
; Function compile flags: /Ogspy

  00000			 AREA	 |.text|, CODE, ARM

  00000		 |?IoCtlSetConfigurationData@DefaultBusChild_t@@UAAHKKKPAX@Z| PROC ; DefaultBusChild_t::IoCtlSetConfigurationData

; 253  : {

  00000		 |$LN5@IoCtlSetCo|
  00000	e92d4070	 stmdb       sp!, {r4 - r6, lr}
  00004	e24dd008	 sub         sp, sp, #8
  00008		 |$M38573|
  00008	e1a06003	 mov         r6, r3
  0000c	e1a03002	 mov         r3, r2

; 254  :     // Forward request on bus level for default driver
; 255  :     // Should we do it? We don't pass info about child...
; 256  :     return m_pBus->IoCtlSetConfigurationData(
; 257  :         space, 0, offset, length, pBuffer
; 258  :         );

  00010	e5900008	 ldr         r0, [r0, #8]
  00014	e59d5018	 ldr         r5, [sp, #0x18]
  00018	e3a02000	 mov         r2, #0
  0001c	e590e000	 ldr         lr, [r0]
  00020	e58d5004	 str         r5, [sp, #4]
  00024	e58d6000	 str         r6, [sp]
  00028	e59e4050	 ldr         r4, [lr, #0x50]
  0002c	e1a0e00f	 mov         lr, pc
  00030	e12fff14	 bx          r4

; 259  : }

  00034	e28dd008	 add         sp, sp, #8
  00038	e8bd4070	 ldmia       sp!, {r4 - r6, lr}
  0003c	e12fff1e	 bx          lr
  00040		 |$M38574|

			 ENDP  ; |?IoCtlSetConfigurationData@DefaultBusChild_t@@UAAHKKKPAX@Z|, DefaultBusChild_t::IoCtlSetConfigurationData

	EXPORT	|?IoCtlIsChildRemoved@DefaultBusChild_t@@UAAHXZ| ; DefaultBusChild_t::IoCtlIsChildRemoved

  00000			 AREA	 |.pdata|, PDATA
|$T38585| DCD	|$LN5@IoCtlIsChi|
	DCD	0x40000200
; Function compile flags: /Ogspy

  00000			 AREA	 |.text|, CODE, ARM

  00000		 |?IoCtlIsChildRemoved@DefaultBusChild_t@@UAAHXZ| PROC ; DefaultBusChild_t::IoCtlIsChildRemoved

; 403  : {

  00000		 |$LN5@IoCtlIsChi|
  00000		 |$M38582|

; 404  :     // Child device can't be removed...
; 405  :     return FALSE;

  00000	e3a00000	 mov         r0, #0

; 406  : }

  00004	e12fff1e	 bx          lr
  00008		 |$M38583|

			 ENDP  ; |?IoCtlIsChildRemoved@DefaultBusChild_t@@UAAHXZ|, DefaultBusChild_t::IoCtlIsChildRemoved

	EXPORT	|?IoControl@DefaultBusChild_t@@UAAHKPAEK0KPAK@Z| ; DefaultBusChild_t::IoControl

  00000			 AREA	 |.pdata|, PDATA
|$T38594| DCD	|$LN5@IoControl|
	DCD	0x40000200
; Function compile flags: /Ogspy

  00000			 AREA	 |.text|, CODE, ARM

  00000		 |?IoControl@DefaultBusChild_t@@UAAHKPAEK0KPAK@Z| PROC ; DefaultBusChild_t::IoControl

; 422  : {

  00000		 |$LN5@IoControl|
  00000		 |$M38591|

; 423  :     UNREFERENCED_PARAMETER(code);
; 424  :     UNREFERENCED_PARAMETER(pInBuffer);
; 425  :     UNREFERENCED_PARAMETER(inSize);
; 426  :     UNREFERENCED_PARAMETER(pOutBuffer);
; 427  :     UNREFERENCED_PARAMETER(outSize);
; 428  :     UNREFERENCED_PARAMETER(pOutSize);
; 429  : 
; 430  :     return FALSE;

  00000	e3a00000	 mov         r0, #0

; 431  : }

  00004	e12fff1e	 bx          lr
  00008		 |$M38592|

			 ENDP  ; |?IoControl@DefaultBusChild_t@@UAAHKPAEK0KPAK@Z|, DefaultBusChild_t::IoControl

	EXPORT	|??1?$_string_t@G$0BA@U?$char_traits@G@ce@@Vallocator@2@@ce@@QAA@XZ| ; ce::_string_t<unsigned short,16,ce::char_traits<unsigned short>,ce::allocator>::~_string_t<unsigned short,16,ce::char_traits<unsigned short>,ce::allocator>
; File c:\wince600\public\common\oak\inc\allocator.hxx

  00000			 AREA	 |.pdata|, PDATA
|$T38607| DCD	|$LN8@string_t|
	DCD	0x40000701
; Function compile flags: /Ogspy
; File c:\wince600\public\common\oak\inc\string.hxx

  00000			 AREA	 |.text|, CODE, ARM

  00000		 |??1?$_string_t@G$0BA@U?$char_traits@G@ce@@Vallocator@2@@ce@@QAA@XZ| PROC ; ce::_string_t<unsigned short,16,ce::char_traits<unsigned short>,ce::allocator>::~_string_t<unsigned short,16,ce::char_traits<unsigned short>,ce::allocator>

; 219  :     {

  00000		 |$LN8@string_t|
  00000	e52de004	 str         lr, [sp, #-4]!
  00004		 |$M38604|

; 220  :         assert(_Len <= _Res);
; 221  :         assert(_Ptr[_Res] == T(0));
; 222  :         
; 223  :         if(_Res != _BUF_SIZE)

  00004	e590302c	 ldr         r3, [r0, #0x2C]
  00008	e3530010	 cmp         r3, #0x10

; 224  :             deallocate(_Ptr, (_Res + 1) * sizeof(T));

  0000c	15900000	 ldrne       r0, [r0]
  00010	1b000000	 blne        |??3@YAXPAX@Z|

; 225  :     }

  00014	e49de004	 ldr         lr, [sp], #4
  00018	e12fff1e	 bx          lr
  0001c		 |$M38605|

			 ENDP  ; |??1?$_string_t@G$0BA@U?$char_traits@G@ce@@Vallocator@2@@ce@@QAA@XZ|, ce::_string_t<unsigned short,16,ce::char_traits<unsigned short>,ce::allocator>::~_string_t<unsigned short,16,ce::char_traits<unsigned short>,ce::allocator>

	EXPORT	|?length@?$_string_t@G$0BA@U?$char_traits@G@ce@@Vallocator@2@@ce@@QBAIXZ| ; ce::_string_t<unsigned short,16,ce::char_traits<unsigned short>,ce::allocator>::length

  00000			 AREA	 |.pdata|, PDATA
|$T38617| DCD	|$LN5@length|
	DCD	0x40000200
; Function compile flags: /Ogspy

  00000			 AREA	 |.text|, CODE, ARM

  00000		 |?length@?$_string_t@G$0BA@U?$char_traits@G@ce@@Vallocator@2@@ce@@QBAIXZ| PROC ; ce::_string_t<unsigned short,16,ce::char_traits<unsigned short>,ce::allocator>::length

; 229  :         {return _Len; }

  00000		 |$LN5@length|
  00000		 |$M38614|
  00000	e5900028	 ldr         r0, [r0, #0x28]
  00004	e12fff1e	 bx          lr
  00008		 |$M38615|

			 ENDP  ; |?length@?$_string_t@G$0BA@U?$char_traits@G@ce@@Vallocator@2@@ce@@QBAIXZ|, ce::_string_t<unsigned short,16,ce::char_traits<unsigned short>,ce::allocator>::length

	EXPORT	|?capacity@?$_string_t@G$0BA@U?$char_traits@G@ce@@Vallocator@2@@ce@@QBAIXZ| ; ce::_string_t<unsigned short,16,ce::char_traits<unsigned short>,ce::allocator>::capacity

  00000			 AREA	 |.pdata|, PDATA
|$T38627| DCD	|$LN5@capacity|
	DCD	0x40000200
; Function compile flags: /Ogspy

  00000			 AREA	 |.text|, CODE, ARM

  00000		 |?capacity@?$_string_t@G$0BA@U?$char_traits@G@ce@@Vallocator@2@@ce@@QBAIXZ| PROC ; ce::_string_t<unsigned short,16,ce::char_traits<unsigned short>,ce::allocator>::capacity

; 237  :         {return _Res; } 

  00000		 |$LN5@capacity|
  00000		 |$M38624|
  00000	e590002c	 ldr         r0, [r0, #0x2C]
  00004	e12fff1e	 bx          lr
  00008		 |$M38625|

			 ENDP  ; |?capacity@?$_string_t@G$0BA@U?$char_traits@G@ce@@Vallocator@2@@ce@@QBAIXZ|, ce::_string_t<unsigned short,16,ce::char_traits<unsigned short>,ce::allocator>::capacity

	EXPORT	|?empty@?$_string_t@G$0BA@U?$char_traits@G@ce@@Vallocator@2@@ce@@QBA_NXZ| ; ce::_string_t<unsigned short,16,ce::char_traits<unsigned short>,ce::allocator>::empty

  00000			 AREA	 |.pdata|, PDATA
|$T38639| DCD	|$LN7@empty|
	DCD	0x40000700
; Function compile flags: /Ogspy

  00000			 AREA	 |.text|, CODE, ARM

  00000		 |?empty@?$_string_t@G$0BA@U?$char_traits@G@ce@@Vallocator@2@@ce@@QBA_NXZ| PROC ; ce::_string_t<unsigned short,16,ce::char_traits<unsigned short>,ce::allocator>::empty

; 241  :         {return _Len == 0; }

  00000		 |$LN7@empty|
  00000		 |$M38636|
  00000	e5903028	 ldr         r3, [r0, #0x28]
  00004	e3530000	 cmp         r3, #0
  00008	03a03001	 moveq       r3, #1
  0000c	020300ff	 andeq       r0, r3, #0xFF
  00010	13a03000	 movne       r3, #0
  00014	120300ff	 andne       r0, r3, #0xFF
  00018	e12fff1e	 bx          lr
  0001c		 |$M38637|

			 ENDP  ; |?empty@?$_string_t@G$0BA@U?$char_traits@G@ce@@Vallocator@2@@ce@@QBA_NXZ|, ce::_string_t<unsigned short,16,ce::char_traits<unsigned short>,ce::allocator>::empty

	EXPORT	|??B?$_string_t@G$0BA@U?$char_traits@G@ce@@Vallocator@2@@ce@@QBAPBGXZ| ; ce::_string_t<unsigned short,16,ce::char_traits<unsigned short>,ce::allocator>::operator unsigned short const *

  00000			 AREA	 |.pdata|, PDATA
|$T38649| DCD	|$LN5@operator|
	DCD	0x40000200
; Function compile flags: /Ogspy

  00000			 AREA	 |.text|, CODE, ARM

  00000		 |??B?$_string_t@G$0BA@U?$char_traits@G@ce@@Vallocator@2@@ce@@QBAPBGXZ| PROC ; ce::_string_t<unsigned short,16,ce::char_traits<unsigned short>,ce::allocator>::operator unsigned short const *

; 249  :         {return _Ptr; }

  00000		 |$LN5@operator|
  00000		 |$M38646|
  00000	e5900000	 ldr         r0, [r0]
  00004	e12fff1e	 bx          lr
  00008		 |$M38647|

			 ENDP  ; |??B?$_string_t@G$0BA@U?$char_traits@G@ce@@Vallocator@2@@ce@@QBAPBGXZ|, ce::_string_t<unsigned short,16,ce::char_traits<unsigned short>,ce::allocator>::operator unsigned short const *

	EXPORT	|??B_buffer@?$_string_t@G$0BA@U?$char_traits@G@ce@@Vallocator@2@@ce@@QAAPAGXZ| ; ce::_string_t<unsigned short,16,ce::char_traits<unsigned short>,ce::allocator>::_buffer::operator unsigned short *

  00000			 AREA	 |.pdata|, PDATA
|$T38659| DCD	|$LN5@operator@2|
	DCD	0x40000300
; Function compile flags: /Ogspy

  00000			 AREA	 |.text|, CODE, ARM

  00000		 |??B_buffer@?$_string_t@G$0BA@U?$char_traits@G@ce@@Vallocator@2@@ce@@QAAPAGXZ| PROC ; ce::_string_t<unsigned short,16,ce::char_traits<unsigned short>,ce::allocator>::_buffer::operator unsigned short *

; 593  :             {return _Str->_Ptr; }

  00000		 |$LN5@operator@2|
  00000		 |$M38656|
  00000	e5903000	 ldr         r3, [r0]
  00004	e5930000	 ldr         r0, [r3]
  00008	e12fff1e	 bx          lr
  0000c		 |$M38657|

			 ENDP  ; |??B_buffer@?$_string_t@G$0BA@U?$char_traits@G@ce@@Vallocator@2@@ce@@QAAPAGXZ|, ce::_string_t<unsigned short,16,ce::char_traits<unsigned short>,ce::allocator>::_buffer::operator unsigned short *

	EXPORT	|?length@?$basic_char_traits@G@ce@@SAIPBG@Z| ; ce::basic_char_traits<unsigned short>::length

  00000			 AREA	 |.pdata|, PDATA
|$T38673| DCD	|$LN12@length@2|
	DCD	0x40000d00
; Function compile flags: /Ogspy

  00000			 AREA	 |.text|, CODE, ARM

  00000		 |?length@?$basic_char_traits@G@ce@@SAIPBG@Z| PROC ; ce::basic_char_traits<unsigned short>::length

; 706  :     {

  00000		 |$LN12@length@2|
  00000		 |$M38670|
  00000	e3500000	 cmp         r0, #0

; 707  :         if(_U)

  00004	0a000008	 beq         |$LN4@length@2|

; 708  :         {
; 709  :             const T *eos = _U;
; 710  : 
; 711  :             while(*eos)

  00008	e1d030b0	 ldrh        r3, [r0]
  0000c	e1a02000	 mov         r2, r0
  00010	ea000000	 b           |$LN9@length@2|
  00014		 |$LL3@length@2|
  00014	e1f230b2	 ldrh        r3, [r2, #2]!
  00018		 |$LN9@length@2|
  00018	e3530000	 cmp         r3, #0
  0001c	1afffffc	 bne         |$LL3@length@2|

; 712  :                 ++eos;
; 713  : 
; 714  :             return (size_t)(eos - _U);

  00020	e0423000	 sub         r3, r2, r0
  00024	e1a000c3	 mov         r0, r3, asr #1

; 718  :     }

  00028	e12fff1e	 bx          lr
  0002c		 |$LN4@length@2|

; 715  :         }
; 716  :         else
; 717  :             return 0;

  0002c	e3a00000	 mov         r0, #0

; 718  :     }

  00030	e12fff1e	 bx          lr
  00034		 |$M38671|

			 ENDP  ; |?length@?$basic_char_traits@G@ce@@SAIPBG@Z|, ce::basic_char_traits<unsigned short>::length

	EXPORT	|?_Eos@?$_string_t@G$0BA@U?$char_traits@G@ce@@Vallocator@2@@ce@@IAAXI@Z| ; ce::_string_t<unsigned short,16,ce::char_traits<unsigned short>,ce::allocator>::_Eos

  00000			 AREA	 |.pdata|, PDATA
|$T38682| DCD	|$LN5@Eos|
	DCD	0x40000600
; Function compile flags: /Ogspy

  00000			 AREA	 |.text|, CODE, ARM

  00000		 |?_Eos@?$_string_t@G$0BA@U?$char_traits@G@ce@@Vallocator@2@@ce@@IAAXI@Z| PROC ; ce::_string_t<unsigned short,16,ce::char_traits<unsigned short>,ce::allocator>::_Eos

; 558  :     {

  00000		 |$LN5@Eos|
  00000		 |$M38679|

; 559  :         assert(_N <= _Res);
; 560  :         
; 561  :         _Ptr[_Len = _N] = T();

  00000	e5903000	 ldr         r3, [r0]
  00004	e3a02000	 mov         r2, #0
  00008	e5801028	 str         r1, [r0, #0x28]
  0000c	e0833081	 add         r3, r3, r1, lsl #1
  00010	e1c320b0	 strh        r2, [r3]

; 562  :     }

  00014	e12fff1e	 bx          lr
  00018		 |$M38680|

			 ENDP  ; |?_Eos@?$_string_t@G$0BA@U?$char_traits@G@ce@@Vallocator@2@@ce@@IAAXI@Z|, ce::_string_t<unsigned short,16,ce::char_traits<unsigned short>,ce::allocator>::_Eos

	EXPORT	|??0_buffer@?$_string_t@G$0BA@U?$char_traits@G@ce@@Vallocator@2@@ce@@QAA@PAV12@@Z| ; ce::_string_t<unsigned short,16,ce::char_traits<unsigned short>,ce::allocator>::_buffer::_buffer

  00000			 AREA	 |.pdata|, PDATA
|$T38693| DCD	|$LN5@buffer|
	DCD	0x40000200
; Function compile flags: /Ogspy

  00000			 AREA	 |.text|, CODE, ARM

  00000		 |??0_buffer@?$_string_t@G$0BA@U?$char_traits@G@ce@@Vallocator@2@@ce@@QAA@PAV12@@Z| PROC ; ce::_string_t<unsigned short,16,ce::char_traits<unsigned short>,ce::allocator>::_buffer::_buffer

; 587  :             {}

  00000		 |$LN5@buffer|
  00000		 |$M38690|
  00000	e5801000	 str         r1, [r0]
  00004	e12fff1e	 bx          lr
  00008		 |$M38691|

			 ENDP  ; |??0_buffer@?$_string_t@G$0BA@U?$char_traits@G@ce@@Vallocator@2@@ce@@QAA@PAV12@@Z|, ce::_string_t<unsigned short,16,ce::char_traits<unsigned short>,ce::allocator>::_buffer::_buffer

	EXPORT	|?copy@?$basic_char_traits@G@ce@@SAPAGPAGPBGI@Z| ; ce::basic_char_traits<unsigned short>::copy
	IMPORT	|memmove|

  00000			 AREA	 |.pdata|, PDATA
|$T38705| DCD	|$LN5@copy|
	DCD	0x40000501
; Function compile flags: /Ogspy

  00000			 AREA	 |.text|, CODE, ARM

  00000		 |?copy@?$basic_char_traits@G@ce@@SAPAGPAGPBGI@Z| PROC ; ce::basic_char_traits<unsigned short>::copy

; 700  :         {return (T*)memmove(_U, _V, _N * sizeof(T)); }

  00000		 |$LN5@copy|
  00000	e52de004	 str         lr, [sp, #-4]!
  00004		 |$M38702|
  00004	e1a02082	 mov         r2, r2, lsl #1
  00008	eb000000	 bl          memmove
  0000c	e49de004	 ldr         lr, [sp], #4
  00010	e12fff1e	 bx          lr
  00014		 |$M38703|

			 ENDP  ; |?copy@?$basic_char_traits@G@ce@@SAPAGPAGPBGI@Z|, ce::basic_char_traits<unsigned short>::copy

	EXPORT	|??1DefaultBusChild_t@@MAA@XZ|		; DefaultBusChild_t::~DefaultBusChild_t
	EXPORT	|??_7DefaultBusChild_t@@6B@| [ DATA ]	; DefaultBusChild_t::`vftable'
	EXPORT	|?Init@DefaultBusChild_t@@UAAHKPBG@Z|	; DefaultBusChild_t::Init
	EXPORT	|?DeviceName@DefaultBusChild_t@@UAAPBGXZ| ; DefaultBusChild_t::DeviceName
	EXPORT	|?IoCtlActivateChild@DefaultBusChild_t@@UAAHXZ| ; DefaultBusChild_t::IoCtlActivateChild
	EXPORT	|?IoCtlDeactivateChild@DefaultBusChild_t@@UAAHXZ| ; DefaultBusChild_t::IoCtlDeactivateChild
	IMPORT	|??_EDefaultBusChild_t@@MAAPAXI@Z|, WEAK |??_GDefaultBusChild_t@@MAAPAXI@Z| ; DefaultBusChild_t::`vector deleting destructor', DefaultBusChild_t::`scalar deleting destructor'
; File c:\wince600\platform\common\src\soc\common_ti_v1\common_ti\bus\inc\driver.hxx

  00000			 AREA	 |.pdata|, PDATA
|$T38773| DCD	|$LN29@DefaultBus|
	DCD	0x40001c01

  00000			 AREA	 |.rdata|, DATA, READONLY
|??_7DefaultBusChild_t@@6B@| DCD |??_EDefaultBusChild_t@@MAAPAXI@Z| ; DefaultBusChild_t::`vftable'
	DCD	|?Init@DefaultBusChild_t@@UAAHKPBG@Z|
	DCD	|?DriverId@DefaultBusChild_t@@UAAKXZ|
	DCD	|?DeviceName@DefaultBusChild_t@@UAAPBGXZ|
	DCD	|?IoCtlTranslateBusAddress@DefaultBusChild_t@@UAAHW4_INTERFACE_TYPE@@KT_LARGE_INTEGER@@PAKPAT3@@Z|
	DCD	|?IoCtlTranslateSystemAddress@DefaultBusChild_t@@UAAHW4_INTERFACE_TYPE@@KT_LARGE_INTEGER@@PAT3@@Z|
	DCD	|?IoCtlGetPowerState@DefaultBusChild_t@@UAAHPAW4_CEDEVICE_POWER_STATE@@@Z|
	DCD	|?IoCtlSetPowerState@DefaultBusChild_t@@UAAHPAW4_CEDEVICE_POWER_STATE@@@Z|
	DCD	|?IoCtlGetConfigurationData@DefaultBusChild_t@@UAAHKKKPAX@Z|
	DCD	|?IoCtlSetConfigurationData@DefaultBusChild_t@@UAAHKKKPAX@Z|
	DCD	|?IoCtlActivateChild@DefaultBusChild_t@@UAAHXZ|
	DCD	|?IoCtlDeactivateChild@DefaultBusChild_t@@UAAHXZ|
	DCD	|?IoCtlIsChildRemoved@DefaultBusChild_t@@UAAHXZ|
	DCD	|?IoControl@DefaultBusChild_t@@UAAHKPAEK0KPAK@Z|
; Function compile flags: /Ogspy
; File c:\wince600\platform\common\src\soc\common_ti_v1\common_ti\bus\mdd\defaultbuschild.cpp

  00000			 AREA	 |.text|, CODE, ARM

  00000		 |??1DefaultBusChild_t@@MAA@XZ| PROC	; DefaultBusChild_t::~DefaultBusChild_t

; 44   : {

  00000		 |$LN29@DefaultBus|
  00000	e92d4010	 stmdb       sp!, {r4, lr}
  00004		 |$M38770|
  00004	e1a04000	 mov         r4, r0
  00008	e59f305c	 ldr         r3, [pc, #0x5C]

; 45   :     // We need to release reference
; 46   :     m_pBus->Release();

  0000c	e5940008	 ldr         r0, [r4, #8]
  00010	e5843000	 str         r3, [r4]
  00014	eb000000	 bl          |?Release@RefCount_t@@QAAJXZ|

; 47   : }

  00018	e59430cc	 ldr         r3, [r4, #0xCC]
  0001c	e3530010	 cmp         r3, #0x10
  00020	159400a0	 ldrne       r0, [r4, #0xA0]
  00024	1b000000	 blne        |??3@YAXPAX@Z|
  00028	e594309c	 ldr         r3, [r4, #0x9C]
  0002c	e3530010	 cmp         r3, #0x10
  00030	15940070	 ldrne       r0, [r4, #0x70]
  00034	1b000000	 blne        |??3@YAXPAX@Z|
  00038	e5943068	 ldr         r3, [r4, #0x68]
  0003c	e3530010	 cmp         r3, #0x10
  00040	1594003c	 ldrne       r0, [r4, #0x3C]
  00044	1b000000	 blne        |??3@YAXPAX@Z|
  00048	e5943038	 ldr         r3, [r4, #0x38]
  0004c	e3530010	 cmp         r3, #0x10
  00050	1594000c	 ldrne       r0, [r4, #0xC]
  00054	1b000000	 blne        |??3@YAXPAX@Z|
  00058	e59f3008	 ldr         r3, [pc, #8]
  0005c	e5843000	 str         r3, [r4]
  00060	e8bd4010	 ldmia       sp!, {r4, lr}
  00064	e12fff1e	 bx          lr
  00068		 |$LN30@DefaultBus|
  00068		 |$LN31@DefaultBus|
  00068	00000000	 DCD         |??_7RefCount_t@@6B@|
  0006c		 |$LN32@DefaultBus|
  0006c	00000000	 DCD         |??_7DefaultBusChild_t@@6B@|
  00070		 |$M38771|

			 ENDP  ; |??1DefaultBusChild_t@@MAA@XZ|, DefaultBusChild_t::~DefaultBusChild_t

; File c:\wince600\public\common\oak\inc\string.hxx

  00000			 AREA	 |.pdata|, PDATA
|$T38790| DCD	|$LN7@DeviceName|
	DCD	0x40000200
; Function compile flags: /Ogspy
; File c:\wince600\platform\common\src\soc\common_ti_v1\common_ti\bus\mdd\defaultbuschild.cpp

  00000			 AREA	 |.text|, CODE, ARM

  00000		 |?DeviceName@DefaultBusChild_t@@UAAPBGXZ| PROC ; DefaultBusChild_t::DeviceName

; 135  : {

  00000		 |$LN7@DeviceName|
  00000		 |$M38787|

; 136  :     return m_deviceName;

  00000	e590000c	 ldr         r0, [r0, #0xC]

; 137  : }

  00004	e12fff1e	 bx          lr
  00008		 |$M38788|

			 ENDP  ; |?DeviceName@DefaultBusChild_t@@UAAPBGXZ|, DefaultBusChild_t::DeviceName

	EXPORT	|??_C@_1BE@PMMIAJMN@?$AAB?$AAu?$AAs?$AAP?$AAa?$AAr?$AAe?$AAn?$AAt?$AA?$AA@| [ DATA ] ; `string'
	EXPORT	|??_C@_1BM@MHMIAMLB@?$AAI?$AAn?$AAt?$AAe?$AAr?$AAf?$AAa?$AAc?$AAe?$AAT?$AAy?$AAp?$AAe?$AA?$AA@| [ DATA ] ; `string'
	EXPORT	|??_C@_1BA@KDCCGFJM@?$AAB?$AAu?$AAs?$AAN?$AAa?$AAm?$AAe?$AA?$AA@| [ DATA ] ; `string'
	IMPORT	|FreeLibrary|
	IMPORT	|GetProcAddressW|
	IMPORT	|LoadDriver|
	IMPORT	|LoadLibraryW|
	IMPORT	|ActivateDeviceEx|
; File c:\wince600\public\common\oak\inc\string.hxx

  00000			 AREA	 |.pdata|, PDATA
|$T38843| DCD	|$LN39@IoCtlActiv|
	DCD	0x40006802

  00000			 AREA	 |.rdata|, DATA, READONLY
|??_C@_1BE@PMMIAJMN@?$AAB?$AAu?$AAs?$AAP?$AAa?$AAr?$AAe?$AAn?$AAt?$AA?$AA@| DCB "B"
	DCB	0x0, "u", 0x0, "s", 0x0, "P", 0x0, "a", 0x0, "r", 0x0, "e"
	DCB	0x0, "n", 0x0, "t", 0x0, 0x0, 0x0	; `string'

  00000			 AREA	 |.rdata|, DATA, READONLY
|??_C@_1BM@MHMIAMLB@?$AAI?$AAn?$AAt?$AAe?$AAr?$AAf?$AAa?$AAc?$AAe?$AAT?$AAy?$AAp?$AAe?$AA?$AA@| DCB "I"
	DCB	0x0, "n", 0x0, "t", 0x0, "e", 0x0, "r", 0x0, "f", 0x0, "a"
	DCB	0x0, "c", 0x0, "e", 0x0, "T", 0x0, "y", 0x0, "p", 0x0, "e"
	DCB	0x0, 0x0, 0x0				; `string'

  00000			 AREA	 |.rdata|, DATA, READONLY
|??_C@_1BA@KDCCGFJM@?$AAB?$AAu?$AAs?$AAN?$AAa?$AAm?$AAe?$AA?$AA@| DCB "B", 0x0
	DCB	"u", 0x0, "s", 0x0, "N", 0x0, "a", 0x0, "m", 0x0, "e", 0x0
	DCB	0x0, 0x0				; `string'
; Function compile flags: /Ogspy
; File c:\wince600\platform\common\src\soc\common_ti_v1\common_ti\bus\mdd\defaultbuschild.cpp

  00000			 AREA	 |.text|, CODE, ARM

  00000		 |?IoCtlActivateChild@DefaultBusChild_t@@UAAHXZ| PROC ; DefaultBusChild_t::IoCtlActivateChild

; 269  : {

  00000		 |$LN39@IoCtlActiv|
  00000	e92d4ff0	 stmdb       sp!, {r4 - r11, lr}
  00004	e24dd040	 sub         sp, sp, #0x40
  00008		 |$M38840|
  00008	e1a0a000	 mov         r10, r0

; 270  :     BOOL rc = FALSE;
; 271  :     HANDLE hBus;
; 272  :     INTERFACE_TYPE busType;
; 273  :     DWORD busNumber;
; 274  :     REGINI regini[3];
; 275  :     CEDEVICE_POWER_STATE powerState;
; 276  : 
; 277  : 
; 278  :     // If flag is set to avoid load, simply exit
; 279  :     if ((m_flags & DEVFLAGS_NOLOAD) != 0)

  0000c	e59a306c	 ldr         r3, [r10, #0x6C]
  00010	e3130004	 tst         r3, #4

; 280  :         {
; 281  :         return TRUE;

  00014	1a00005a	 bne         |$LN35@IoCtlActiv|

; 282  :         }
; 283  : 
; 284  :     // Get bus information
; 285  :     m_pBus->GetBusInfo(hBus, busType, busNumber);

  00018	e59a0008	 ldr         r0, [r10, #8]
  0001c	e28d300c	 add         r3, sp, #0xC
  00020	e28d2008	 add         r2, sp, #8
  00024	e590e000	 ldr         lr, [r0]
  00028	e28d1004	 add         r1, sp, #4
  0002c	e59e4030	 ldr         r4, [lr, #0x30]
  00030	e1a0e00f	 mov         lr, pc
  00034	e12fff14	 bx          r4

; 286  :     
; 287  :     // Prepare registry entries needed by new bus model
; 288  :     regini[0].lpszVal = DEVLOAD_BUSPARENT_VALNAME;
; 289  :     regini[0].dwType  = DEVLOAD_BUSPARENT_VALTYPE;
; 290  :     regini[0].pData   = reinterpret_cast<UCHAR*>(&hBus);
; 291  :     regini[0].dwLen   = sizeof(hBus);
; 292  :     
; 293  :     regini[1].lpszVal = DEVLOAD_INTERFACETYPE_VALNAME;
; 294  :     regini[1].dwType  = DEVLOAD_INTERFACETYPE_VALTYPE;
; 295  :     regini[1].pData   = reinterpret_cast<UCHAR*>(&busType);
; 296  :     regini[1].dwLen   = sizeof(busType);
; 297  : 
; 298  :     regini[2].lpszVal = DEVLOAD_BUSNAME_VALNAME;
; 299  :     regini[2].dwType  = DEVLOAD_BUSNAME_VALTYPE;
; 300  :     regini[2].pData   = (UCHAR*)((LPCWSTR)m_deviceName);
; 301  :     regini[2].dwLen   = (m_deviceName.length() + 1) * sizeof(WCHAR);

  00038	e59a3034	 ldr         r3, [r10, #0x34]

; 302  : 
; 303  :     // Hardware should be set to D0 before driver is loaded
; 304  :     powerState = D0;
; 305  :     IoCtlSetPowerState(&powerState);

  0003c	e59a2000	 ldr         r2, [r10]
  00040	e59f5154	 ldr         r5, [pc, #0x154]
  00044	e2833001	 add         r3, r3, #1
  00048	e1a03083	 mov         r3, r3, lsl #1
  0004c	e58d3038	 str         r3, [sp, #0x38]
  00050	e3a03004	 mov         r3, #4
  00054	e58d3018	 str         r3, [sp, #0x18]
  00058	e3a03004	 mov         r3, #4
  0005c	e58d302c	 str         r3, [sp, #0x2C]
  00060	e3a03004	 mov         r3, #4
  00064	e58d3028	 str         r3, [sp, #0x28]
  00068	e59f6128	 ldr         r6, [pc, #0x128]
  0006c	e59f7120	 ldr         r7, [pc, #0x120]
  00070	e59a800c	 ldr         r8, [r10, #0xC]
  00074	e3a03001	 mov         r3, #1
  00078	e592901c	 ldr         r9, [r2, #0x1C]
  0007c	e58d303c	 str         r3, [sp, #0x3C]
  00080	e3a03000	 mov         r3, #0
  00084	e3a0b004	 mov         r11, #4
  00088	e28d2004	 add         r2, sp, #4
  0008c	e28d4008	 add         r4, sp, #8
  00090	e58d3000	 str         r3, [sp]
  00094	e28d1000	 add         r1, sp, #0
  00098	e1a0000a	 mov         r0, r10
  0009c	e58d5010	 str         r5, [sp, #0x10]
  000a0	e58db01c	 str         r11, [sp, #0x1C]
  000a4	e58d2014	 str         r2, [sp, #0x14]
  000a8	e58d6020	 str         r6, [sp, #0x20]
  000ac	e58d4024	 str         r4, [sp, #0x24]
  000b0	e58d7030	 str         r7, [sp, #0x30]
  000b4	e58d8034	 str         r8, [sp, #0x34]
  000b8	e1a0e00f	 mov         lr, pc
  000bc	e12fff19	 bx          r9

; 306  :     
; 307  :     // Based on "Entry" registry value existence use new or old loading scheme
; 308  :     if (m_entryPoint.empty())

  000c0	e59a3098	 ldr         r3, [r10, #0x98]
  000c4	e3530000	 cmp         r3, #0
  000c8	03a03001	 moveq       r3, #1
  000cc	13a03000	 movne       r3, #0
  000d0	e21330ff	 ands        r3, r3, #0xFF

; 353  : }

  000d4	0a000006	 beq         |$LN9@IoCtlActiv|
  000d8	e59a003c	 ldr         r0, [r10, #0x3C]
  000dc	e3a03000	 mov         r3, #0
  000e0	e3a02003	 mov         r2, #3
  000e4	e28d1010	 add         r1, sp, #0x10
  000e8	eb000000	 bl          ActivateDeviceEx
  000ec	e58a00d0	 str         r0, [r10, #0xD0]
  000f0	ea000014	 b           |$cleanUp$37516|
  000f4		 |$LN9@IoCtlActiv|

; 309  :         {
; 310  :         // Use new device activation schema
; 311  :         m_hDevice = ActivateDeviceEx(m_deviceRegistryKey, regini, 3, NULL);
; 312  :         rc = (m_hDevice != NULL);
; 313  :         }
; 314  :     else
; 315  :         {
; 316  :         HMODULE hDevice;
; 317  :         
; 318  :         if ((m_flags & DEVFLAGS_LOADLIBRARY) != 0)

  000f4	e59a306c	 ldr         r3, [r10, #0x6C]

; 319  :             {
; 320  :             hDevice = ::LoadLibrary(m_dllName);

  000f8	e59a00a0	 ldr         r0, [r10, #0xA0]
  000fc	e3130002	 tst         r3, #2
  00100	0a000001	 beq         |$LN7@IoCtlActiv|
  00104	eb000000	 bl          LoadLibraryW

; 321  :             }
; 322  :         else

  00108	ea000000	 b           |$LN36@IoCtlActiv|
  0010c		 |$LN7@IoCtlActiv|

; 323  :             {
; 324  :             hDevice = ::LoadDriver(m_dllName);

  0010c	eb000000	 bl          LoadDriver
  00110		 |$LN36@IoCtlActiv|
  00110	e1a04000	 mov         r4, r0

; 325  :             }
; 326  :         if (hDevice == NULL)

  00114	e3540000	 cmp         r4, #0
  00118	0a00000a	 beq         |$cleanUp$37516|

; 327  :             {
; 328  :             goto cleanUp;
; 329  :             }
; 330  :         // Get entry function
; 331  :         PFN_DEV_ENTRY pfnEntry = reinterpret_cast<PFN_DEV_ENTRY>(
; 332  :             ::GetProcAddress(hDevice, m_entryPoint)
; 333  :             );

  0011c	e59a1070	 ldr         r1, [r10, #0x70]
  00120	eb000000	 bl          GetProcAddressW
  00124	e1b03000	 movs        r3, r0

; 334  :         if (pfnEntry == NULL)

  00128	1a000002	 bne         |$LN3@IoCtlActiv|

; 335  :             {
; 336  :             ::FreeLibrary(reinterpret_cast<HMODULE>(hDevice));

  0012c	e1a00004	 mov         r0, r4
  00130	eb000000	 bl          FreeLibrary

; 343  :         }
; 344  : 
; 345  : cleanUp:    

  00134	ea000003	 b           |$cleanUp$37516|
  00138		 |$LN3@IoCtlActiv|

; 337  :             goto cleanUp;
; 338  :             }
; 339  :         // Finally call it
; 340  :         rc = pfnEntry(const_cast<LPWSTR>((LPCWSTR)m_deviceRegistryKey));

  00138	e59a003c	 ldr         r0, [r10, #0x3C]
  0013c	e1a0e00f	 mov         lr, pc
  00140	e12fff13	 bx          r3

; 341  :         // Save handle for later use
; 342  :         m_hDevice = hDevice;

  00144	e58a40d0	 str         r4, [r10, #0xD0]
  00148		 |$cleanUp$37516|

; 346  :     if (m_hDevice == NULL)

  00148	e59a30d0	 ldr         r3, [r10, #0xD0]
  0014c	e3530000	 cmp         r3, #0
  00150	1a00000b	 bne         |$LN35@IoCtlActiv|

; 347  :         {
; 348  :         // If activation failed, set hardware back to D4
; 349  :         powerState = D4;
; 350  :         IoCtlSetPowerState(&powerState);

  00154	e59a3000	 ldr         r3, [r10]
  00158	e3a02004	 mov         r2, #4
  0015c	e28d1000	 add         r1, sp, #0
  00160	e593301c	 ldr         r3, [r3, #0x1C]
  00164	e1a0000a	 mov         r0, r10
  00168	e58d2000	 str         r2, [sp]
  0016c	e1a0e00f	 mov         lr, pc
  00170	e12fff13	 bx          r3

; 351  :         }
; 352  :     return (m_hDevice != NULL);

  00174	e59a30d0	 ldr         r3, [r10, #0xD0]
  00178	e3530000	 cmp         r3, #0
  0017c	03a00000	 moveq       r0, #0
  00180	0a000000	 beq         |$LN16@IoCtlActiv|
  00184		 |$LN35@IoCtlActiv|
  00184	e3a00001	 mov         r0, #1
  00188		 |$LN16@IoCtlActiv|

; 353  : }

  00188	e28dd040	 add         sp, sp, #0x40
  0018c	e8bd4ff0	 ldmia       sp!, {r4 - r11, lr}
  00190	e12fff1e	 bx          lr
  00194		 |$LN40@IoCtlActiv|
  00194		 |$LN41@IoCtlActiv|
  00194	00000000	 DCD         |??_C@_1BA@KDCCGFJM@?$AAB?$AAu?$AAs?$AAN?$AAa?$AAm?$AAe?$AA?$AA@|
  00198		 |$LN42@IoCtlActiv|
  00198	00000000	 DCD         |??_C@_1BM@MHMIAMLB@?$AAI?$AAn?$AAt?$AAe?$AAr?$AAf?$AAa?$AAc?$AAe?$AAT?$AAy?$AAp?$AAe?$AA?$AA@|
  0019c		 |$LN43@IoCtlActiv|
  0019c	00000000	 DCD         |??_C@_1BE@PMMIAJMN@?$AAB?$AAu?$AAs?$AAP?$AAa?$AAr?$AAe?$AAn?$AAt?$AA?$AA@|
  001a0		 |$M38841|

			 ENDP  ; |?IoCtlActivateChild@DefaultBusChild_t@@UAAHXZ|, DefaultBusChild_t::IoCtlActivateChild

	IMPORT	|DeactivateDevice|
; File c:\wince600\public\common\oak\inc\string.hxx

  00000			 AREA	 |.pdata|, PDATA
|$T38866| DCD	|$LN14@IoCtlDeact|
	DCD	0x40001f02
; Function compile flags: /Ogspy
; File c:\wince600\platform\common\src\soc\common_ti_v1\common_ti\bus\mdd\defaultbuschild.cpp

  00000			 AREA	 |.text|, CODE, ARM

  00000		 |?IoCtlDeactivateChild@DefaultBusChild_t@@UAAHXZ| PROC ; DefaultBusChild_t::IoCtlDeactivateChild

; 363  : {

  00000		 |$LN14@IoCtlDeact|
  00000	e92d4030	 stmdb       sp!, {r4, r5, lr}
  00004	e24dd004	 sub         sp, sp, #4
  00008		 |$M38863|
  00008	e1a05000	 mov         r5, r0

; 364  :     BOOL rc = FALSE;
; 365  :     CEDEVICE_POWER_STATE powerState;
; 366  : 
; 367  :     if (m_hDevice == NULL)

  0000c	e59530d0	 ldr         r3, [r5, #0xD0]
  00010	e3a04000	 mov         r4, #0
  00014	e1b00003	 movs        r0, r3
  00018	0a000013	 beq         |$cleanUp$37532|

; 368  :         {
; 369  :         goto cleanUp;
; 370  :         }
; 371  : 
; 372  :     // Depending on load scheme used
; 373  :     if (m_entryPoint.empty())

  0001c	e5953098	 ldr         r3, [r5, #0x98]
  00020	e3530000	 cmp         r3, #0
  00024	03a03001	 moveq       r3, #1
  00028	13a03000	 movne       r3, #0
  0002c	e21330ff	 ands        r3, r3, #0xFF

; 390  : 
; 391  : cleanUp:    
; 392  :     return rc;
; 393  : }

  00030	0a000001	 beq         |$LN2@IoCtlDeact|
  00034	eb000000	 bl          DeactivateDevice
  00038	ea000000	 b           |$LN11@IoCtlDeact|
  0003c		 |$LN2@IoCtlDeact|

; 374  :         {
; 375  :         // Ask device manager to unload child driver
; 376  :         rc = ::DeactivateDevice(m_hDevice);
; 377  :         }
; 378  :     else
; 379  :         {
; 380  :         // In theory we can do this...
; 381  :         rc = ::FreeLibrary(reinterpret_cast<HMODULE>(m_hDevice));

  0003c	eb000000	 bl          FreeLibrary
  00040		 |$LN11@IoCtlDeact|

; 382  :         }
; 383  : 
; 384  :     // Make sure that hardware is switched off
; 385  :     powerState = D4;
; 386  :     IoCtlSetPowerState(&powerState);

  00040	e5953000	 ldr         r3, [r5]
  00044	e3a02004	 mov         r2, #4
  00048	e1a04000	 mov         r4, r0
  0004c	e593301c	 ldr         r3, [r3, #0x1C]
  00050	e28d1000	 add         r1, sp, #0
  00054	e1a00005	 mov         r0, r5
  00058	e58d2000	 str         r2, [sp]
  0005c	e1a0e00f	 mov         lr, pc
  00060	e12fff13	 bx          r3

; 387  :     
; 388  :     // Even if unload fail, there isn't better way how to manage situation...
; 389  :     m_hDevice = NULL;

  00064	e3a03000	 mov         r3, #0
  00068	e58530d0	 str         r3, [r5, #0xD0]
  0006c		 |$cleanUp$37532|

; 390  : 
; 391  : cleanUp:    
; 392  :     return rc;
; 393  : }

  0006c	e1a00004	 mov         r0, r4
  00070	e28dd004	 add         sp, sp, #4
  00074	e8bd4030	 ldmia       sp!, {r4, r5, lr}
  00078	e12fff1e	 bx          lr
  0007c		 |$M38864|

			 ENDP  ; |?IoCtlDeactivateChild@DefaultBusChild_t@@UAAHXZ|, DefaultBusChild_t::IoCtlDeactivateChild

	EXPORT	|??1_buffer@?$_string_t@G$0BA@U?$char_traits@G@ce@@Vallocator@2@@ce@@QAA@XZ| ; ce::_string_t<unsigned short,16,ce::char_traits<unsigned short>,ce::allocator>::_buffer::~_buffer
; File c:\wince600\public\common\oak\inc\string.hxx

  00000			 AREA	 |.pdata|, PDATA
|$T38896| DCD	|$LN16@buffer@2|
	DCD	0x40001400
; Function compile flags: /Ogspy

  00000			 AREA	 |.text|, CODE, ARM

  00000		 |??1_buffer@?$_string_t@G$0BA@U?$char_traits@G@ce@@Vallocator@2@@ce@@QAA@XZ| PROC ; ce::_string_t<unsigned short,16,ce::char_traits<unsigned short>,ce::allocator>::_buffer::~_buffer

; 590  :             {_Str->_Eos(_Tr::length(_Str->_Ptr)); }

  00000		 |$LN16@buffer@2|
  00000		 |$M38893|
  00000	e5900000	 ldr         r0, [r0]
  00004	e5903000	 ldr         r3, [r0]
  00008	e1b01003	 movs        r1, r3
  0000c	0a000008	 beq         |$LN6@buffer@2|
  00010	e1d130b0	 ldrh        r3, [r1]
  00014	e1a02001	 mov         r2, r1
  00018	ea000000	 b           |$LN13@buffer@2|
  0001c		 |$LL5@buffer@2|
  0001c	e1f230b2	 ldrh        r3, [r2, #2]!
  00020		 |$LN13@buffer@2|
  00020	e3530000	 cmp         r3, #0
  00024	1afffffc	 bne         |$LL5@buffer@2|
  00028	e0423001	 sub         r3, r2, r1
  0002c	e1a020c3	 mov         r2, r3, asr #1
  00030	ea000000	 b           |$LN3@buffer@2|
  00034		 |$LN6@buffer@2|
  00034	e3a02000	 mov         r2, #0
  00038		 |$LN3@buffer@2|
  00038	e5903000	 ldr         r3, [r0]
  0003c	e3a01000	 mov         r1, #0
  00040	e5802028	 str         r2, [r0, #0x28]
  00044	e0833082	 add         r3, r3, r2, lsl #1
  00048	e1c310b0	 strh        r1, [r3]
  0004c	e12fff1e	 bx          lr
  00050		 |$M38894|

			 ENDP  ; |??1_buffer@?$_string_t@G$0BA@U?$char_traits@G@ce@@Vallocator@2@@ce@@QAA@XZ|, ce::_string_t<unsigned short,16,ce::char_traits<unsigned short>,ce::allocator>::_buffer::~_buffer

	EXPORT	|?_Init@?$_string_t@G$0BA@U?$char_traits@G@ce@@Vallocator@2@@ce@@IAAXXZ| ; ce::_string_t<unsigned short,16,ce::char_traits<unsigned short>,ce::allocator>::_Init

  00000			 AREA	 |.pdata|, PDATA
|$T38907| DCD	|$LN7@Init|
	DCD	0x40000a00
; Function compile flags: /Ogspy

  00000			 AREA	 |.text|, CODE, ARM

  00000		 |?_Init@?$_string_t@G$0BA@U?$char_traits@G@ce@@Vallocator@2@@ce@@IAAXXZ| PROC ; ce::_string_t<unsigned short,16,ce::char_traits<unsigned short>,ce::allocator>::_Init

; 512  :     {

  00000		 |$LN7@Init|
  00000		 |$M38904|

; 513  :         _Res = _BUF_SIZE;

  00000	e3a02010	 mov         r2, #0x10

; 514  :         _Ptr = _Buf;

  00004	e580202c	 str         r2, [r0, #0x2C]
  00008	e2803004	 add         r3, r0, #4

; 515  :         _Ptr[_Res] = T(0);

  0000c	e3a02000	 mov         r2, #0
  00010	e5803000	 str         r3, [r0]
  00014	e1c022b4	 strh        r2, [r0, #0x24]

; 516  :         _Eos(0);

  00018	e5903000	 ldr         r3, [r0]
  0001c	e5802028	 str         r2, [r0, #0x28]
  00020	e1c320b0	 strh        r2, [r3]

; 517  :     }

  00024	e12fff1e	 bx          lr
  00028		 |$M38905|

			 ENDP  ; |?_Init@?$_string_t@G$0BA@U?$char_traits@G@ce@@Vallocator@2@@ce@@IAAXXZ|, ce::_string_t<unsigned short,16,ce::char_traits<unsigned short>,ce::allocator>::_Init

	EXPORT	|?_Grow@?$_string_t@G$0BA@U?$char_traits@G@ce@@Vallocator@2@@ce@@IAA_NI@Z| ; ce::_string_t<unsigned short,16,ce::char_traits<unsigned short>,ce::allocator>::_Grow
; File c:\wince600\public\common\oak\inc\allocator.hxx

  00000			 AREA	 |.pdata|, PDATA
|$T38936| DCD	|$LN18@Grow|
	DCD	0x40002601
; Function compile flags: /Ogspy
; File c:\wince600\public\common\oak\inc\string.hxx

  00000			 AREA	 |.text|, CODE, ARM

  00000		 |?_Grow@?$_string_t@G$0BA@U?$char_traits@G@ce@@Vallocator@2@@ce@@IAA_NI@Z| PROC ; ce::_string_t<unsigned short,16,ce::char_traits<unsigned short>,ce::allocator>::_Grow

; 521  :     {

  00000		 |$LN18@Grow|
  00000	e92d41f0	 stmdb       sp!, {r4 - r8, lr}
  00004		 |$M38933|
  00004	e1a06001	 mov         r6, r1
  00008	e1a05000	 mov         r5, r0

; 522  :         if(_Res < _N)

  0000c	e595302c	 ldr         r3, [r5, #0x2C]
  00010	e1530006	 cmp         r3, r6
  00014	2a00001c	 bcs         |$LN5@Grow|

; 523  :         {
; 524  :             // try to grow exponentially
; 525  :             size_type _NewRes = _Res + _Res / 2;

  00018	e08340a3	 add         r4, r3, r3, lsr #1

; 526  :             
; 527  :             if(_NewRes < _N)

  0001c	e1540006	 cmp         r4, r6

; 528  :                 _NewRes = _N;

  00020	31a04006	 movcc       r4, r6

; 529  :             
; 530  :             T* _New = reinterpret_cast<T*>(allocate((_NewRes + 1) * sizeof(T)));

  00024	e1a08084	 mov         r8, r4, lsl #1
  00028	e2880002	 add         r0, r8, #2
  0002c	eb000000	 bl          |??2@YAPAXI@Z|
  00030	e1b07000	 movs        r7, r0

; 531  : 
; 532  :             if(!_New)

  00034	1a000007	 bne         |$LN2@Grow|

; 533  :             {
; 534  :                 // if allocation failed, retry with exact size required
; 535  :                 _New = reinterpret_cast<T*>(allocate(((_NewRes = _N) + 1) * sizeof(T)));

  00038	e1a08086	 mov         r8, r6, lsl #1
  0003c	e2880002	 add         r0, r8, #2
  00040	e1a04006	 mov         r4, r6
  00044	eb000000	 bl          |??2@YAPAXI@Z|
  00048	e1b07000	 movs        r7, r0

; 536  :                 
; 537  :                 if(!_New)
; 538  :                     return false;

  0004c	03a00000	 moveq       r0, #0

; 554  :     }

  00050	08bd41f0	 ldmeqia     sp!, {r4 - r8, lr}
  00054	012fff1e	 bxeq        lr
  00058		 |$LN2@Grow|

; 539  :             }
; 540  :             
; 541  :             _Tr::copy(_New, _Ptr, _Res);

  00058	e595302c	 ldr         r3, [r5, #0x2C]
  0005c	e5951000	 ldr         r1, [r5]
  00060	e1a00007	 mov         r0, r7
  00064	e1a02083	 mov         r2, r3, lsl #1
  00068	eb000000	 bl          memmove

; 542  : 
; 543  :             if(_Res != _BUF_SIZE)

  0006c	e595302c	 ldr         r3, [r5, #0x2C]
  00070	e3530010	 cmp         r3, #0x10

; 544  :                 deallocate(_Ptr, (_Res + 1) * sizeof(T));

  00074	15950000	 ldrne       r0, [r5]
  00078	1b000000	 blne        |??3@YAXPAX@Z|

; 545  : 
; 546  :             _Ptr = _New;
; 547  :             _Res = _NewRes;
; 548  :             _Ptr[_Res] = T(0);

  0007c	e3a03000	 mov         r3, #0
  00080	e5857000	 str         r7, [r5]
  00084	e585402c	 str         r4, [r5, #0x2C]
  00088	e18830b7	 strh        r3, [r8, +r7]
  0008c		 |$LN5@Grow|

; 549  :         }
; 550  :         
; 551  :         assert(_Res >= _N);
; 552  : 
; 553  :         return true;

  0008c	e3a00001	 mov         r0, #1

; 554  :     }

  00090	e8bd41f0	 ldmia       sp!, {r4 - r8, lr}
  00094	e12fff1e	 bx          lr
  00098		 |$M38934|

			 ENDP  ; |?_Grow@?$_string_t@G$0BA@U?$char_traits@G@ce@@Vallocator@2@@ce@@IAA_NI@Z|, ce::_string_t<unsigned short,16,ce::char_traits<unsigned short>,ce::allocator>::_Grow

	EXPORT	|?assign@?$_string_t@G$0BA@U?$char_traits@G@ce@@Vallocator@2@@ce@@QAA_NPBGII@Z| ; ce::_string_t<unsigned short,16,ce::char_traits<unsigned short>,ce::allocator>::assign

  00000			 AREA	 |.pdata|, PDATA
|$T38958| DCD	|$LN10@assign|
	DCD	0x40001c01
; Function compile flags: /Ogspy

  00000			 AREA	 |.text|, CODE, ARM

  00000		 |?assign@?$_string_t@G$0BA@U?$char_traits@G@ce@@Vallocator@2@@ce@@QAA_NPBGII@Z| PROC ; ce::_string_t<unsigned short,16,ce::char_traits<unsigned short>,ce::allocator>::assign

; 312  :     {

  00000		 |$LN10@assign|
  00000	e92d41f0	 stmdb       sp!, {r4 - r8, lr}
  00004		 |$M38955|
  00004	e1a07003	 mov         r7, r3
  00008	e1a06002	 mov         r6, r2
  0000c	e1a08001	 mov         r8, r1
  00010	e1a05000	 mov         r5, r0

; 313  :         if(_N + _Off >= _N &&   // protect against integer overflow 
; 314  :            _Grow(_N + _Off))

  00014	e0864007	 add         r4, r6, r7
  00018	e1540006	 cmp         r4, r6
  0001c	3a000010	 bcc         |$LN1@assign|
  00020	e1a01004	 mov         r1, r4
  00024	eb000000	 bl          |?_Grow@?$_string_t@G$0BA@U?$char_traits@G@ce@@Vallocator@2@@ce@@IAA_NI@Z|
  00028	e3500000	 cmp         r0, #0
  0002c	0a00000c	 beq         |$LN1@assign|

; 315  :         {
; 316  :             _Tr::copy(_Ptr + _Off, _S, _N);

  00030	e595e000	 ldr         lr, [r5]
  00034	e1a02086	 mov         r2, r6, lsl #1
  00038	e1a01008	 mov         r1, r8
  0003c	e08e0087	 add         r0, lr, r7, lsl #1
  00040	eb000000	 bl          memmove

; 317  :             _Eos(_N + _Off);

  00044	e5953000	 ldr         r3, [r5]
  00048	e3a02000	 mov         r2, #0
  0004c	e5854028	 str         r4, [r5, #0x28]
  00050	e0833084	 add         r3, r3, r4, lsl #1
  00054	e1c320b0	 strh        r2, [r3]

; 318  :             
; 319  :             return true;

  00058	e3a00001	 mov         r0, #1

; 323  :     }

  0005c	e8bd41f0	 ldmia       sp!, {r4 - r8, lr}
  00060	e12fff1e	 bx          lr
  00064		 |$LN1@assign|

; 320  :         }
; 321  : 
; 322  :         return false;

  00064	e3a00000	 mov         r0, #0

; 323  :     }

  00068	e8bd41f0	 ldmia       sp!, {r4 - r8, lr}
  0006c	e12fff1e	 bx          lr
  00070		 |$M38956|

			 ENDP  ; |?assign@?$_string_t@G$0BA@U?$char_traits@G@ce@@Vallocator@2@@ce@@QAA_NPBGII@Z|, ce::_string_t<unsigned short,16,ce::char_traits<unsigned short>,ce::allocator>::assign

	EXPORT	|??__Fcs@?1??get_lock@?$singleton@V?$free_list@$0GE@Vallocator@ce@@@ce@@$03V?$static_allocator@V?$free_list@$0GE@Vallocator@ce@@@ce@@$03@2@@ce@@KAAAVcritical_section@2@XZ@YAXXZ| ; `ce::singleton<ce::free_list<100,ce::allocator>,4,ce::static_allocator<ce::free_list<100,ce::allocator>,4> >::get_lock'::`2'::`dynamic atexit destructor for 'cs''
	EXPORT	|??_B?1??get_lock@?$singleton@V?$free_list@$0GE@Vallocator@ce@@@ce@@$03V?$static_allocator@V?$free_list@$0GE@Vallocator@ce@@@ce@@$03@2@@ce@@KAAAVcritical_section@2@XZ@51| [ DATA ] ; `ce::singleton<ce::free_list<100,ce::allocator>,4,ce::static_allocator<ce::free_list<100,ce::allocator>,4> >::get_lock'::`2'::`local static guard'
	EXPORT	|?get_lock@?$singleton@V?$free_list@$0GE@Vallocator@ce@@@ce@@$03V?$static_allocator@V?$free_list@$0GE@Vallocator@ce@@@ce@@$03@2@@ce@@KAAAVcritical_section@2@XZ| ; ce::singleton<ce::free_list<100,ce::allocator>,4,ce::static_allocator<ce::free_list<100,ce::allocator>,4> >::get_lock
	EXPORT	|?cs@?1??get_lock@?$singleton@V?$free_list@$0GE@Vallocator@ce@@@ce@@$03V?$static_allocator@V?$free_list@$0GE@Vallocator@ce@@@ce@@$03@2@@ce@@KAAAVcritical_section@3@XZ@4V43@A| [ DATA ] ; `ce::singleton<ce::free_list<100,ce::allocator>,4,ce::static_allocator<ce::free_list<100,ce::allocator>,4> >::get_lock'::`2'::cs
	IMPORT	|atexit|
; File c:\wince600\public\common\oak\inc\sync.hxx

  00000			 AREA	 |.bss|, NOINIT
|??_B?1??get_lock@?$singleton@V?$free_list@$0GE@Vallocator@ce@@@ce@@$03V?$static_allocator@V?$free_list@$0GE@Vallocator@ce@@@ce@@$03@2@@ce@@KAAAVcritical_section@2@XZ@51| % 0x4 ; `ce::singleton<ce::free_list<100,ce::allocator>,4,ce::static_allocator<ce::free_list<100,ce::allocator>,4> >::get_lock'::`2'::`local static guard'

  00000			 AREA	 |.bss|, NOINIT
|?cs@?1??get_lock@?$singleton@V?$free_list@$0GE@Vallocator@ce@@@ce@@$03V?$static_allocator@V?$free_list@$0GE@Vallocator@ce@@@ce@@$03@2@@ce@@KAAAVcritical_section@3@XZ@4V43@A| % 0x14 ; `ce::singleton<ce::free_list<100,ce::allocator>,4,ce::static_allocator<ce::free_list<100,ce::allocator>,4> >::get_lock'::`2'::cs

  00000			 AREA	 |.pdata|, PDATA
|$T38970| DCD	|$LN8@get_lock|
	DCD	0x40001602
; Function compile flags: /Ogspy
; File c:\wince600\public\common\oak\inc\singleton.hxx

  00000			 AREA	 |.text|, CODE, ARM

  00000		 |?get_lock@?$singleton@V?$free_list@$0GE@Vallocator@ce@@@ce@@$03V?$static_allocator@V?$free_list@$0GE@Vallocator@ce@@@ce@@$03@2@@ce@@KAAAVcritical_section@2@XZ| PROC ; ce::singleton<ce::free_list<100,ce::allocator>,4,ce::static_allocator<ce::free_list<100,ce::allocator>,4> >::get_lock

; 320  :     {

  00000		 |$LN8@get_lock|
  00000	e52de004	 str         lr, [sp, #-4]!
  00004	e24dd004	 sub         sp, sp, #4
  00008		 |$M38967|

; 321  :         static critical_section cs;

  00008	e59f2044	 ldr         r2, [pc, #0x44]
  0000c	e5923000	 ldr         r3, [r2]
  00010	e3130001	 tst         r3, #1
  00014	1a000005	 bne         |$LN1@get_lock|
  00018	e59f0028	 ldr         r0, [pc, #0x28]
  0001c	e3833001	 orr         r3, r3, #1
  00020	e5823000	 str         r3, [r2]
  00024	eb000000	 bl          InitializeCriticalSection
  00028	e59f0020	 ldr         r0, [pc, #0x20]
  0002c	eb000000	 bl          atexit
  00030		 |$LN1@get_lock|

; 322  :         
; 323  :         //
; 324  :         // This statement forces compiler to instantiate _factory member
; 325  :         // thus assuring that lock_factory ctor is called. 
; 326  :         //
; 327  :         lock_factory* volatile p = &_factory;

  00030	e59f3014	 ldr         r3, [pc, #0x14]

; 328  : 
; 329  :         return cs;
; 330  :     }

  00034	e59f000c	 ldr         r0, [pc, #0xC]
  00038	e58d3000	 str         r3, [sp]
  0003c	e28dd004	 add         sp, sp, #4
  00040	e49de004	 ldr         lr, [sp], #4
  00044	e12fff1e	 bx          lr
  00048		 |$LN9@get_lock|
  00048		 |$LN10@get_lock|
  00048	00000000	 DCD         |?cs@?1??get_lock@?$singleton@V?$free_list@$0GE@Vallocator@ce@@@ce@@$03V?$static_allocator@V?$free_list@$0GE@Vallocator@ce@@@ce@@$03@2@@ce@@KAAAVcritical_section@3@XZ@4V43@A|
  0004c		 |$LN11@get_lock|
  0004c	00000000	 DCD         |?_factory@?$singleton@V?$free_list@$0GE@Vallocator@ce@@@ce@@$03V?$static_allocator@V?$free_list@$0GE@Vallocator@ce@@@ce@@$03@2@@ce@@1Ulock_factory@12@A|
  00050		 |$LN12@get_lock|
  00050	00000000	 DCD         |??__Fcs@?1??get_lock@?$singleton@V?$free_list@$0GE@Vallocator@ce@@@ce@@$03V?$static_allocator@V?$free_list@$0GE@Vallocator@ce@@@ce@@$03@2@@ce@@KAAAVcritical_section@2@XZ@YAXXZ|
  00054		 |$LN13@get_lock|
  00054	00000000	 DCD         |??_B?1??get_lock@?$singleton@V?$free_list@$0GE@Vallocator@ce@@@ce@@$03V?$static_allocator@V?$free_list@$0GE@Vallocator@ce@@@ce@@$03@2@@ce@@KAAAVcritical_section@2@XZ@51|
  00058		 |$M38968|

			 ENDP  ; |?get_lock@?$singleton@V?$free_list@$0GE@Vallocator@ce@@@ce@@$03V?$static_allocator@V?$free_list@$0GE@Vallocator@ce@@@ce@@$03@2@@ce@@KAAAVcritical_section@2@XZ|, ce::singleton<ce::free_list<100,ce::allocator>,4,ce::static_allocator<ce::free_list<100,ce::allocator>,4> >::get_lock

	EXPORT	|?resize@?$_string_t@G$0BA@U?$char_traits@G@ce@@Vallocator@2@@ce@@QAA_NI@Z| ; ce::_string_t<unsigned short,16,ce::char_traits<unsigned short>,ce::allocator>::resize
; File c:\wince600\public\common\oak\inc\string.hxx

  00000			 AREA	 |.pdata|, PDATA
|$T38989| DCD	|$LN8@resize|
	DCD	0x40000f01
; Function compile flags: /Ogspy

  00000			 AREA	 |.text|, CODE, ARM

  00000		 |?resize@?$_string_t@G$0BA@U?$char_traits@G@ce@@Vallocator@2@@ce@@QAA_NI@Z| PROC ; ce::_string_t<unsigned short,16,ce::char_traits<unsigned short>,ce::allocator>::resize

; 383  :     {

  00000		 |$LN8@resize|
  00000	e92d4030	 stmdb       sp!, {r4, r5, lr}
  00004		 |$M38986|
  00004	e1a04001	 mov         r4, r1
  00008	e1a05000	 mov         r5, r0

; 384  :         if(_Grow(_N))

  0000c	eb000000	 bl          |?_Grow@?$_string_t@G$0BA@U?$char_traits@G@ce@@Vallocator@2@@ce@@IAA_NI@Z|
  00010	e3500000	 cmp         r0, #0

; 385  :         {
; 386  :             _Eos(_N);

  00014	15953000	 ldrne       r3, [r5]
  00018	13a02000	 movne       r2, #0
  0001c	15854028	 strne       r4, [r5, #0x28]
  00020	10833084	 addne       r3, r3, r4, lsl #1
  00024	11c320b0	 strneh      r2, [r3]

; 387  :             
; 388  :             return true;

  00028	13a00001	 movne       r0, #1

; 392  :     }

  0002c	18bd4030	 ldmneia     sp!, {r4, r5, lr}

; 389  :         }
; 390  :         
; 391  :         return false;

  00030	03a00000	 moveq       r0, #0

; 392  :     }

  00034	08bd4030	 ldmeqia     sp!, {r4, r5, lr}
  00038	e12fff1e	 bx          lr
  0003c		 |$M38987|

			 ENDP  ; |?resize@?$_string_t@G$0BA@U?$char_traits@G@ce@@Vallocator@2@@ce@@QAA_NI@Z|, ce::_string_t<unsigned short,16,ce::char_traits<unsigned short>,ce::allocator>::resize

	EXPORT	|??0lock_factory@?$singleton@V?$free_list@$0GE@Vallocator@ce@@@ce@@$03V?$static_allocator@V?$free_list@$0GE@Vallocator@ce@@@ce@@$03@2@@ce@@QAA@XZ| ; ce::singleton<ce::free_list<100,ce::allocator>,4,ce::static_allocator<ce::free_list<100,ce::allocator>,4> >::lock_factory::lock_factory
; File c:\wince600\public\common\oak\inc\singleton.hxx

  00000			 AREA	 |.pdata|, PDATA
|$T38999| DCD	|$LN5@lock_facto|
	DCD	0x40000601
; Function compile flags: /Ogspy

  00000			 AREA	 |.text|, CODE, ARM

  00000		 |??0lock_factory@?$singleton@V?$free_list@$0GE@Vallocator@ce@@@ce@@$03V?$static_allocator@V?$free_list@$0GE@Vallocator@ce@@@ce@@$03@2@@ce@@QAA@XZ| PROC ; ce::singleton<ce::free_list<100,ce::allocator>,4,ce::static_allocator<ce::free_list<100,ce::allocator>,4> >::lock_factory::lock_factory

; 339  :         lock_factory()

  00000		 |$LN5@lock_facto|
  00000	e92d4010	 stmdb       sp!, {r4, lr}
  00004		 |$M38996|
  00004	e1a04000	 mov         r4, r0
  00008	eb000000	 bl          |?get_lock@?$singleton@V?$free_list@$0GE@Vallocator@ce@@@ce@@$03V?$static_allocator@V?$free_list@$0GE@Vallocator@ce@@@ce@@$03@2@@ce@@KAAAVcritical_section@2@XZ|

; 340  :             {get_lock(); }

  0000c	e1a00004	 mov         r0, r4
  00010	e8bd4010	 ldmia       sp!, {r4, lr}
  00014	e12fff1e	 bx          lr
  00018		 |$M38997|

			 ENDP  ; |??0lock_factory@?$singleton@V?$free_list@$0GE@Vallocator@ce@@@ce@@$03V?$static_allocator@V?$free_list@$0GE@Vallocator@ce@@@ce@@$03@2@@ce@@QAA@XZ|, ce::singleton<ce::free_list<100,ce::allocator>,4,ce::static_allocator<ce::free_list<100,ce::allocator>,4> >::lock_factory::lock_factory


  00000			 AREA	 |.pdata|, PDATA
|$T39010| DCD	|$LN6@scalar@3|
	DCD	0x40000a01
; Function compile flags: /Ogspy

  00000			 AREA	 |.text|, CODE, ARM

  00000		 |??_GDefaultBusChild_t@@MAAPAXI@Z| PROC ; DefaultBusChild_t::`scalar deleting destructor'
  00000		 |$LN6@scalar@3|
  00000	e92d4030	 stmdb       sp!, {r4, r5, lr}
  00004		 |$M39007|
  00004	e1a04001	 mov         r4, r1
  00008	e1a05000	 mov         r5, r0
  0000c	eb000000	 bl          |??1DefaultBusChild_t@@MAA@XZ|
  00010	e3140001	 tst         r4, #1
  00014	11a00005	 movne       r0, r5
  00018	1b000000	 blne        |??3@YAXPAX@Z|
  0001c	e1a00005	 mov         r0, r5
  00020	e8bd4030	 ldmia       sp!, {r4, r5, lr}
  00024	e12fff1e	 bx          lr
  00028		 |$M39008|

			 ENDP  ; |??_GDefaultBusChild_t@@MAAPAXI@Z|, DefaultBusChild_t::`scalar deleting destructor'

	EXPORT	|??0?$_string_t@G$0BA@U?$char_traits@G@ce@@Vallocator@2@@ce@@QAA@XZ| ; ce::_string_t<unsigned short,16,ce::char_traits<unsigned short>,ce::allocator>::_string_t<unsigned short,16,ce::char_traits<unsigned short>,ce::allocator>
; File c:\wince600\public\common\oak\inc\string.hxx

  00000			 AREA	 |.pdata|, PDATA
|$T39028| DCD	|$LN9@string_t@2|
	DCD	0x40000a00
; Function compile flags: /Ogspy

  00000			 AREA	 |.text|, CODE, ARM

  00000		 |??0?$_string_t@G$0BA@U?$char_traits@G@ce@@Vallocator@2@@ce@@QAA@XZ| PROC ; ce::_string_t<unsigned short,16,ce::char_traits<unsigned short>,ce::allocator>::_string_t<unsigned short,16,ce::char_traits<unsigned short>,ce::allocator>

; 185  :     _string_t()

  00000		 |$LN9@string_t@2|
  00000		 |$M39025|
  00000	e3a02010	 mov         r2, #0x10
  00004	e580202c	 str         r2, [r0, #0x2C]
  00008	e2803004	 add         r3, r0, #4
  0000c	e3a02000	 mov         r2, #0
  00010	e5803000	 str         r3, [r0]
  00014	e1c022b4	 strh        r2, [r0, #0x24]
  00018	e5903000	 ldr         r3, [r0]
  0001c	e5802028	 str         r2, [r0, #0x28]

; 186  :         {_Init(); }

  00020	e1c320b0	 strh        r2, [r3]
  00024	e12fff1e	 bx          lr
  00028		 |$M39026|

			 ENDP  ; |??0?$_string_t@G$0BA@U?$char_traits@G@ce@@Vallocator@2@@ce@@QAA@XZ|, ce::_string_t<unsigned short,16,ce::char_traits<unsigned short>,ce::allocator>::_string_t<unsigned short,16,ce::char_traits<unsigned short>,ce::allocator>

	EXPORT	|?reserve@?$_string_t@G$0BA@U?$char_traits@G@ce@@Vallocator@2@@ce@@QAA_NI@Z| ; ce::_string_t<unsigned short,16,ce::char_traits<unsigned short>,ce::allocator>::reserve

  00000			 AREA	 |.pdata|, PDATA
|$T39039| DCD	|$LN5@reserve|
	DCD	0x40000401
; Function compile flags: /Ogspy

  00000			 AREA	 |.text|, CODE, ARM

  00000		 |?reserve@?$_string_t@G$0BA@U?$char_traits@G@ce@@Vallocator@2@@ce@@QAA_NI@Z| PROC ; ce::_string_t<unsigned short,16,ce::char_traits<unsigned short>,ce::allocator>::reserve

; 245  :         {return _Grow(_N); }

  00000		 |$LN5@reserve|
  00000	e52de004	 str         lr, [sp, #-4]!
  00004		 |$M39036|
  00004	eb000000	 bl          |?_Grow@?$_string_t@G$0BA@U?$char_traits@G@ce@@Vallocator@2@@ce@@IAA_NI@Z|
  00008	e49de004	 ldr         lr, [sp], #4
  0000c	e12fff1e	 bx          lr
  00010		 |$M39037|

			 ENDP  ; |?reserve@?$_string_t@G$0BA@U?$char_traits@G@ce@@Vallocator@2@@ce@@QAA_NI@Z|, ce::_string_t<unsigned short,16,ce::char_traits<unsigned short>,ce::allocator>::reserve

	EXPORT	|?get_buffer@?$_string_t@G$0BA@U?$char_traits@G@ce@@Vallocator@2@@ce@@QAA?AV_buffer@12@XZ| ; ce::_string_t<unsigned short,16,ce::char_traits<unsigned short>,ce::allocator>::get_buffer

  00000			 AREA	 |.pdata|, PDATA
|$T39053| DCD	|$LN7@get_buffer|
	DCD	0x40000300
; Function compile flags: /Ogspy

  00000			 AREA	 |.text|, CODE, ARM

  00000		 |?get_buffer@?$_string_t@G$0BA@U?$char_traits@G@ce@@Vallocator@2@@ce@@QAA?AV_buffer@12@XZ| PROC ; ce::_string_t<unsigned short,16,ce::char_traits<unsigned short>,ce::allocator>::get_buffer

; 396  :         {return this; }

  00000		 |$LN7@get_buffer|
  00000		 |$M39050|
  00000	e5810000	 str         r0, [r1]
  00004	e1a00001	 mov         r0, r1
  00008	e12fff1e	 bx          lr
  0000c		 |$M39051|

			 ENDP  ; |?get_buffer@?$_string_t@G$0BA@U?$char_traits@G@ce@@Vallocator@2@@ce@@QAA?AV_buffer@12@XZ|, ce::_string_t<unsigned short,16,ce::char_traits<unsigned short>,ce::allocator>::get_buffer

	EXPORT	|?assign@?$_string_t@G$0BA@U?$char_traits@G@ce@@Vallocator@2@@ce@@QAA_NABV12@@Z| ; ce::_string_t<unsigned short,16,ce::char_traits<unsigned short>,ce::allocator>::assign

  00000			 AREA	 |.pdata|, PDATA
|$T39068| DCD	|$LN7@assign@2|
	DCD	0x40000701
; Function compile flags: /Ogspy

  00000			 AREA	 |.text|, CODE, ARM

  00000		 |?assign@?$_string_t@G$0BA@U?$char_traits@G@ce@@Vallocator@2@@ce@@QAA_NABV12@@Z| PROC ; ce::_string_t<unsigned short,16,ce::char_traits<unsigned short>,ce::allocator>::assign

; 306  :         {return assign(_X._Ptr, _X.length()); }

  00000		 |$LN7@assign@2|
  00000	e52de004	 str         lr, [sp, #-4]!
  00004		 |$M39065|
  00004	e5912028	 ldr         r2, [r1, #0x28]
  00008	e5911000	 ldr         r1, [r1]
  0000c	e3a03000	 mov         r3, #0
  00010	eb000000	 bl          |?assign@?$_string_t@G$0BA@U?$char_traits@G@ce@@Vallocator@2@@ce@@QAA_NPBGII@Z|
  00014	e49de004	 ldr         lr, [sp], #4
  00018	e12fff1e	 bx          lr
  0001c		 |$M39066|

			 ENDP  ; |?assign@?$_string_t@G$0BA@U?$char_traits@G@ce@@Vallocator@2@@ce@@QAA_NABV12@@Z|, ce::_string_t<unsigned short,16,ce::char_traits<unsigned short>,ce::allocator>::assign

	EXPORT	|?assign@?$_string_t@G$0BA@U?$char_traits@G@ce@@Vallocator@2@@ce@@QAA_NPBG@Z| ; ce::_string_t<unsigned short,16,ce::char_traits<unsigned short>,ce::allocator>::assign

  00000			 AREA	 |.pdata|, PDATA
|$T39093| DCD	|$LN14@assign@3|
	DCD	0x40001101
; Function compile flags: /Ogspy

  00000			 AREA	 |.text|, CODE, ARM

  00000		 |?assign@?$_string_t@G$0BA@U?$char_traits@G@ce@@Vallocator@2@@ce@@QAA_NPBG@Z| PROC ; ce::_string_t<unsigned short,16,ce::char_traits<unsigned short>,ce::allocator>::assign

; 309  :         {return assign(_S, _Tr::length(_S)); }

  00000		 |$LN14@assign@3|
  00000	e52de004	 str         lr, [sp, #-4]!
  00004		 |$M39090|
  00004	e3510000	 cmp         r1, #0
  00008	0a000008	 beq         |$LN6@assign@3|
  0000c	e1d130b0	 ldrh        r3, [r1]
  00010	e1a02001	 mov         r2, r1
  00014	ea000000	 b           |$LN11@assign@3|
  00018		 |$LL5@assign@3|
  00018	e1f230b2	 ldrh        r3, [r2, #2]!
  0001c		 |$LN11@assign@3|
  0001c	e3530000	 cmp         r3, #0
  00020	1afffffc	 bne         |$LL5@assign@3|
  00024	e0423001	 sub         r3, r2, r1
  00028	e1a020c3	 mov         r2, r3, asr #1
  0002c	ea000000	 b           |$LN3@assign@3|
  00030		 |$LN6@assign@3|
  00030	e3a02000	 mov         r2, #0
  00034		 |$LN3@assign@3|
  00034	e3a03000	 mov         r3, #0
  00038	eb000000	 bl          |?assign@?$_string_t@G$0BA@U?$char_traits@G@ce@@Vallocator@2@@ce@@QAA_NPBGII@Z|
  0003c	e49de004	 ldr         lr, [sp], #4
  00040	e12fff1e	 bx          lr
  00044		 |$M39091|

			 ENDP  ; |?assign@?$_string_t@G$0BA@U?$char_traits@G@ce@@Vallocator@2@@ce@@QAA_NPBG@Z|, ce::_string_t<unsigned short,16,ce::char_traits<unsigned short>,ce::allocator>::assign

	EXPORT	|?append@?$_string_t@G$0BA@U?$char_traits@G@ce@@Vallocator@2@@ce@@QAA_NPBGI@Z| ; ce::_string_t<unsigned short,16,ce::char_traits<unsigned short>,ce::allocator>::append

  00000			 AREA	 |.pdata|, PDATA
|$T39105| DCD	|$LN5@append|
	DCD	0x40000501
; Function compile flags: /Ogspy

  00000			 AREA	 |.text|, CODE, ARM

  00000		 |?append@?$_string_t@G$0BA@U?$char_traits@G@ce@@Vallocator@2@@ce@@QAA_NPBGI@Z| PROC ; ce::_string_t<unsigned short,16,ce::char_traits<unsigned short>,ce::allocator>::append

; 299  :         {return assign(_S, _N, _Len); }

  00000		 |$LN5@append|
  00000	e52de004	 str         lr, [sp, #-4]!
  00004		 |$M39102|
  00004	e5903028	 ldr         r3, [r0, #0x28]
  00008	eb000000	 bl          |?assign@?$_string_t@G$0BA@U?$char_traits@G@ce@@Vallocator@2@@ce@@QAA_NPBGII@Z|
  0000c	e49de004	 ldr         lr, [sp], #4
  00010	e12fff1e	 bx          lr
  00014		 |$M39103|

			 ENDP  ; |?append@?$_string_t@G$0BA@U?$char_traits@G@ce@@Vallocator@2@@ce@@QAA_NPBGI@Z|, ce::_string_t<unsigned short,16,ce::char_traits<unsigned short>,ce::allocator>::append

	EXPORT	|??$RegQueryValue@$0BA@U?$char_traits@G@ce@@Vallocator@2@@ce@@YAJPAUHKEY__@@PBGAAV?$_string_t@G$0BA@U?$char_traits@G@ce@@Vallocator@2@@0@@Z| ; ce::RegQueryValue<16,ce::char_traits<unsigned short>,ce::allocator>

  00000			 AREA	 |.pdata|, PDATA
|$T39157| DCD	|$LN28@RegQueryVa@2|
	DCD	0x40003102
; Function compile flags: /Ogspy

  00000			 AREA	 |.text|, CODE, ARM

  00000		 |??$RegQueryValue@$0BA@U?$char_traits@G@ce@@Vallocator@2@@ce@@YAJPAUHKEY__@@PBGAAV?$_string_t@G$0BA@U?$char_traits@G@ce@@Vallocator@2@@0@@Z| PROC ; ce::RegQueryValue<16,ce::char_traits<unsigned short>,ce::allocator>

; 900  : {

  00000		 |$LN28@RegQueryVa@2|
  00000	e92d43f0	 stmdb       sp!, {r4 - r9, lr}
  00004	e24dd010	 sub         sp, sp, #0x10
  00008		 |$M39154|
  00008	e1a04002	 mov         r4, r2
  0000c	e1a07001	 mov         r7, r1
  00010	e1a08000	 mov         r8, r0

; 901  :     DWORD dwErr, cbSize = 0;
; 902  :     
; 903  :     while(ERROR_MORE_DATA == (dwErr = RegQueryValueEx(hkey, wszName, NULL, NULL, reinterpret_cast<LPBYTE>(static_cast<LPWSTR>(value.get_buffer())), &(cbSize = value.capacity() * sizeof(wchar_t)))))

  00014	e58d400c	 str         r4, [sp, #0xC]
  00018	e28d9008	 add         r9, sp, #8
  0001c		 |$LL4@RegQueryVa@2|
  0001c	e594e02c	 ldr         lr, [r4, #0x2C]
  00020	e3a03000	 mov         r3, #0
  00024	e3a02000	 mov         r2, #0
  00028	e1a0e08e	 mov         lr, lr, lsl #1
  0002c	e58de008	 str         lr, [sp, #8]
  00030	e594e000	 ldr         lr, [r4]
  00034	e1a01007	 mov         r1, r7
  00038	e1a00008	 mov         r0, r8
  0003c	e58de000	 str         lr, [sp]
  00040	e58d9004	 str         r9, [sp, #4]
  00044	eb000000	 bl          RegQueryValueExW
  00048	e1a06000	 mov         r6, r0
  0004c	e35600ea	 cmp         r6, #0xEA
  00050	03a05001	 moveq       r5, #1
  00054	e28d000c	 add         r0, sp, #0xC
  00058	13a05000	 movne       r5, #0
  0005c	eb000000	 bl          |??1_buffer@?$_string_t@G$0BA@U?$char_traits@G@ce@@Vallocator@2@@ce@@QAA@XZ|
  00060	e21530ff	 ands        r3, r5, #0xFF

; 909  :     
; 910  :     return dwErr;
; 911  : }

  00064	0a000005	 beq         |$LN25@RegQueryVa@2|
  00068	e59d3008	 ldr         r3, [sp, #8]
  0006c	e1a00004	 mov         r0, r4
  00070	e1a010a3	 mov         r1, r3, lsr #1
  00074	eb000000	 bl          |?_Grow@?$_string_t@G$0BA@U?$char_traits@G@ce@@Vallocator@2@@ce@@IAA_NI@Z|
  00078	e3500000	 cmp         r0, #0
  0007c	1affffe6	 bne         |$LL4@RegQueryVa@2|
  00080		 |$LN25@RegQueryVa@2|

; 904  :         if(!value.reserve(cbSize / sizeof(wchar_t)))
; 905  :             break;
; 906  :     
; 907  :     if(dwErr == ERROR_SUCCESS)

  00080	e3560000	 cmp         r6, #0
  00084	1a00000a	 bne         |$LN19@RegQueryVa@2|

; 908  :         value.resize(cbSize / sizeof(wchar_t));

  00088	e59d3008	 ldr         r3, [sp, #8]
  0008c	e1a00004	 mov         r0, r4
  00090	e1a050a3	 mov         r5, r3, lsr #1
  00094	e1a01005	 mov         r1, r5
  00098	eb000000	 bl          |?_Grow@?$_string_t@G$0BA@U?$char_traits@G@ce@@Vallocator@2@@ce@@IAA_NI@Z|
  0009c	e3500000	 cmp         r0, #0
  000a0	15943000	 ldrne       r3, [r4]
  000a4	13a02000	 movne       r2, #0
  000a8	15845028	 strne       r5, [r4, #0x28]
  000ac	10833085	 addne       r3, r3, r5, lsl #1
  000b0	11c320b0	 strneh      r2, [r3]
  000b4		 |$LN19@RegQueryVa@2|

; 909  :     
; 910  :     return dwErr;
; 911  : }

  000b4	e1a00006	 mov         r0, r6
  000b8	e28dd010	 add         sp, sp, #0x10
  000bc	e8bd43f0	 ldmia       sp!, {r4 - r9, lr}
  000c0	e12fff1e	 bx          lr
  000c4		 |$M39155|

			 ENDP  ; |??$RegQueryValue@$0BA@U?$char_traits@G@ce@@Vallocator@2@@ce@@YAJPAUHKEY__@@PBGAAV?$_string_t@G$0BA@U?$char_traits@G@ce@@Vallocator@2@@0@@Z|, ce::RegQueryValue<16,ce::char_traits<unsigned short>,ce::allocator>

	EXPORT	|??0DefaultBusChild_t@@IAA@PAVDefaultBus_t@@@Z| ; DefaultBusChild_t::DefaultBusChild_t
; File c:\wince600\platform\common\src\soc\common_ti_v1\common_ti\bus\inc\driver.hxx

  00000			 AREA	 |.pdata|, PDATA
|$T39248| DCD	|$LN35@DefaultBus@2|
	DCD	0x40003601
; Function compile flags: /Ogspy
; File c:\wince600\platform\common\src\soc\common_ti_v1\common_ti\bus\mdd\defaultbuschild.cpp

  00000			 AREA	 |.text|, CODE, ARM

  00000		 |??0DefaultBusChild_t@@IAA@PAVDefaultBus_t@@@Z| PROC ; DefaultBusChild_t::DefaultBusChild_t

; 32   : {

  00000		 |$LN35@DefaultBus@2|
  00000	e92d4030	 stmdb       sp!, {r4, r5, lr}
  00004		 |$M39245|
  00004	e1a04000	 mov         r4, r0
  00008	e59f30c4	 ldr         r3, [pc, #0xC4]
  0000c	e284e00c	 add         lr, r4, #0xC
  00010	e3a02001	 mov         r2, #1
  00014	e5843000	 str         r3, [r4]
  00018	e28e3004	 add         r3, lr, #4
  0001c	e3a00010	 mov         r0, #0x10
  00020	e5842004	 str         r2, [r4, #4]
  00024	e5841008	 str         r1, [r4, #8]
  00028	e3a05000	 mov         r5, #0
  0002c	e58e3000	 str         r3, [lr]
  00030	e58e002c	 str         r0, [lr, #0x2C]
  00034	e1ce52b4	 strh        r5, [lr, #0x24]
  00038	e59e3000	 ldr         r3, [lr]
  0003c	e284203c	 add         r2, r4, #0x3C
  00040	e58e5028	 str         r5, [lr, #0x28]
  00044	e1c350b0	 strh        r5, [r3]
  00048	e2823004	 add         r3, r2, #4
  0004c	e5823000	 str         r3, [r2]
  00050	e582002c	 str         r0, [r2, #0x2C]
  00054	e1c252b4	 strh        r5, [r2, #0x24]
  00058	e5923000	 ldr         r3, [r2]
  0005c	e2841070	 add         r1, r4, #0x70
  00060	e5825028	 str         r5, [r2, #0x28]
  00064	e1c350b0	 strh        r5, [r3]
  00068	e2813004	 add         r3, r1, #4
  0006c	e584506c	 str         r5, [r4, #0x6C]
  00070	e5813000	 str         r3, [r1]
  00074	e581002c	 str         r0, [r1, #0x2C]
  00078	e1c152b4	 strh        r5, [r1, #0x24]
  0007c	e5913000	 ldr         r3, [r1]
  00080	e28420a0	 add         r2, r4, #0xA0
  00084	e5815028	 str         r5, [r1, #0x28]
  00088	e1c350b0	 strh        r5, [r3]
  0008c	e2823004	 add         r3, r2, #4
  00090	e5823000	 str         r3, [r2]
  00094	e582002c	 str         r0, [r2, #0x2C]
  00098	e1c252b4	 strh        r5, [r2, #0x24]
  0009c	e5923000	 ldr         r3, [r2]
  000a0	e5825028	 str         r5, [r2, #0x28]
  000a4	e3e01000	 mvn         r1, #0
  000a8	e1c350b0	 strh        r5, [r3]

; 33   :     // We made copy of pointer
; 34   :     m_pBus->AddRef();

  000ac	e5943008	 ldr         r3, [r4, #8]
  000b0	e3a02c01	 mov         r2, #1, 24
  000b4	e58450d0	 str         r5, [r4, #0xD0]
  000b8	e2830004	 add         r0, r3, #4
  000bc	e58410d4	 str         r1, [r4, #0xD4]
  000c0	e58420d8	 str         r2, [r4, #0xD8]
  000c4	eb000000	 bl          InterlockedIncrement

; 35   : }

  000c8	e1a00004	 mov         r0, r4
  000cc	e8bd4030	 ldmia       sp!, {r4, r5, lr}
  000d0	e12fff1e	 bx          lr
  000d4		 |$LN36@DefaultBus@2|
  000d4		 |$LN37@DefaultBus@2|
  000d4	00000000	 DCD         |??_7DefaultBusChild_t@@6B@|
  000d8		 |$M39246|

			 ENDP  ; |??0DefaultBusChild_t@@IAA@PAVDefaultBus_t@@@Z|, DefaultBusChild_t::DefaultBusChild_t

	EXPORT	|??4?$_string_t@G$0BA@U?$char_traits@G@ce@@Vallocator@2@@ce@@QAAAAV01@PBG@Z| ; ce::_string_t<unsigned short,16,ce::char_traits<unsigned short>,ce::allocator>::operator=
; File c:\wince600\public\common\oak\inc\string.hxx

  00000			 AREA	 |.pdata|, PDATA
|$T39261| DCD	|$LN5@operator@3|
	DCD	0x40000601
; Function compile flags: /Ogspy

  00000			 AREA	 |.text|, CODE, ARM

  00000		 |??4?$_string_t@G$0BA@U?$char_traits@G@ce@@Vallocator@2@@ce@@QAAAAV01@PBG@Z| PROC ; ce::_string_t<unsigned short,16,ce::char_traits<unsigned short>,ce::allocator>::operator=

; 253  :         {assign(_S); return *this; }

  00000		 |$LN5@operator@3|
  00000	e92d4010	 stmdb       sp!, {r4, lr}
  00004		 |$M39258|
  00004	e1a04000	 mov         r4, r0
  00008	eb000000	 bl          |?assign@?$_string_t@G$0BA@U?$char_traits@G@ce@@Vallocator@2@@ce@@QAA_NPBG@Z|
  0000c	e1a00004	 mov         r0, r4
  00010	e8bd4010	 ldmia       sp!, {r4, lr}
  00014	e12fff1e	 bx          lr
  00018		 |$M39259|

			 ENDP  ; |??4?$_string_t@G$0BA@U?$char_traits@G@ce@@Vallocator@2@@ce@@QAAAAV01@PBG@Z|, ce::_string_t<unsigned short,16,ce::char_traits<unsigned short>,ce::allocator>::operator=

	EXPORT	|??4?$_string_t@G$0BA@U?$char_traits@G@ce@@Vallocator@2@@ce@@QAAAAV01@ABV01@@Z| ; ce::_string_t<unsigned short,16,ce::char_traits<unsigned short>,ce::allocator>::operator=

  00000			 AREA	 |.pdata|, PDATA
|$T39281| DCD	|$LN9@operator@4|
	DCD	0x40000901
; Function compile flags: /Ogspy

  00000			 AREA	 |.text|, CODE, ARM

  00000		 |??4?$_string_t@G$0BA@U?$char_traits@G@ce@@Vallocator@2@@ce@@QAAAAV01@ABV01@@Z| PROC ; ce::_string_t<unsigned short,16,ce::char_traits<unsigned short>,ce::allocator>::operator=

; 256  :         {assign(_X); return *this; }

  00000		 |$LN9@operator@4|
  00000	e92d4010	 stmdb       sp!, {r4, lr}
  00004		 |$M39278|
  00004	e1a04000	 mov         r4, r0
  00008	e5912028	 ldr         r2, [r1, #0x28]
  0000c	e5911000	 ldr         r1, [r1]
  00010	e3a03000	 mov         r3, #0
  00014	eb000000	 bl          |?assign@?$_string_t@G$0BA@U?$char_traits@G@ce@@Vallocator@2@@ce@@QAA_NPBGII@Z|
  00018	e1a00004	 mov         r0, r4
  0001c	e8bd4010	 ldmia       sp!, {r4, lr}
  00020	e12fff1e	 bx          lr
  00024		 |$M39279|

			 ENDP  ; |??4?$_string_t@G$0BA@U?$char_traits@G@ce@@Vallocator@2@@ce@@QAAAAV01@ABV01@@Z|, ce::_string_t<unsigned short,16,ce::char_traits<unsigned short>,ce::allocator>::operator=

	EXPORT	|?append@?$_string_t@G$0BA@U?$char_traits@G@ce@@Vallocator@2@@ce@@QAA_NABV12@@Z| ; ce::_string_t<unsigned short,16,ce::char_traits<unsigned short>,ce::allocator>::append

  00000			 AREA	 |.pdata|, PDATA
|$T39303| DCD	|$LN9@append@2|
	DCD	0x40000701
; Function compile flags: /Ogspy

  00000			 AREA	 |.text|, CODE, ARM

  00000		 |?append@?$_string_t@G$0BA@U?$char_traits@G@ce@@Vallocator@2@@ce@@QAA_NABV12@@Z| PROC ; ce::_string_t<unsigned short,16,ce::char_traits<unsigned short>,ce::allocator>::append

; 293  :         {return append(_X._Ptr, _X.length()); }

  00000		 |$LN9@append@2|
  00000	e52de004	 str         lr, [sp, #-4]!
  00004		 |$M39300|
  00004	e5912028	 ldr         r2, [r1, #0x28]
  00008	e5911000	 ldr         r1, [r1]
  0000c	e5903028	 ldr         r3, [r0, #0x28]
  00010	eb000000	 bl          |?assign@?$_string_t@G$0BA@U?$char_traits@G@ce@@Vallocator@2@@ce@@QAA_NPBGII@Z|
  00014	e49de004	 ldr         lr, [sp], #4
  00018	e12fff1e	 bx          lr
  0001c		 |$M39301|

			 ENDP  ; |?append@?$_string_t@G$0BA@U?$char_traits@G@ce@@Vallocator@2@@ce@@QAA_NABV12@@Z|, ce::_string_t<unsigned short,16,ce::char_traits<unsigned short>,ce::allocator>::append

	EXPORT	|??Y?$_string_t@G$0BA@U?$char_traits@G@ce@@Vallocator@2@@ce@@QAAAAV01@ABV01@@Z| ; ce::_string_t<unsigned short,16,ce::char_traits<unsigned short>,ce::allocator>::operator+=

  00000			 AREA	 |.pdata|, PDATA
|$T39330| DCD	|$LN11@operator@5|
	DCD	0x40000901
; Function compile flags: /Ogspy

  00000			 AREA	 |.text|, CODE, ARM

  00000		 |??Y?$_string_t@G$0BA@U?$char_traits@G@ce@@Vallocator@2@@ce@@QAAAAV01@ABV01@@Z| PROC ; ce::_string_t<unsigned short,16,ce::char_traits<unsigned short>,ce::allocator>::operator+=

; 260  :         {append(_X); return *this; }

  00000		 |$LN11@operator@5|
  00000	e92d4010	 stmdb       sp!, {r4, lr}
  00004		 |$M39327|
  00004	e1a04000	 mov         r4, r0
  00008	e5912028	 ldr         r2, [r1, #0x28]
  0000c	e5911000	 ldr         r1, [r1]
  00010	e5943028	 ldr         r3, [r4, #0x28]
  00014	eb000000	 bl          |?assign@?$_string_t@G$0BA@U?$char_traits@G@ce@@Vallocator@2@@ce@@QAA_NPBGII@Z|
  00018	e1a00004	 mov         r0, r4
  0001c	e8bd4010	 ldmia       sp!, {r4, lr}
  00020	e12fff1e	 bx          lr
  00024		 |$M39328|

			 ENDP  ; |??Y?$_string_t@G$0BA@U?$char_traits@G@ce@@Vallocator@2@@ce@@QAAAAV01@ABV01@@Z|, ce::_string_t<unsigned short,16,ce::char_traits<unsigned short>,ce::allocator>::operator+=

	EXPORT	|__$ArrayPad$| [ DATA ]
	EXPORT	|??_C@_1BA@FFJKPDNI@?$AA?$CF?$AAd?$AA_?$AA?$CF?$AAd?$AA_?$AA0?$AA?$AA@| [ DATA ] ; `string'
	EXPORT	|??_C@_17DJMMGLBL@?$AAD?$AAl?$AAl?$AA?$AA@| [ DATA ] ; `string'
	EXPORT	|??_C@_1M@JLADBBAF@?$AAE?$AAn?$AAt?$AAr?$AAy?$AA?$AA@| [ DATA ] ; `string'
	EXPORT	|??_C@_1BC@NNFDDHPK@?$AAD?$AAr?$AAi?$AAv?$AAe?$AAr?$AAI?$AAd?$AA?$AA@| [ DATA ] ; `string'
	EXPORT	|??_C@_1BG@GDBEHIKL@?$AAP?$AAo?$AAw?$AAe?$AAr?$AAF?$AAl?$AAa?$AAg?$AAs?$AA?$AA@| [ DATA ] ; `string'
	EXPORT	|??_C@_1M@OAJFFPML@?$AAF?$AAl?$AAa?$AAg?$AAs?$AA?$AA@| [ DATA ] ; `string'
	IMPORT	|RegCloseKey|
	IMPORT	|StringCchPrintfW|
	IMPORT	|RegOpenKeyExW|
	IMPORT	|__GSHandlerCheck|
	IMPORT	|__security_cookie|
	IMPORT	|__security_check_cookie|
; File c:\wince600\public\common\oak\inc\allocator.hxx

  00000			 AREA	 |.pdata|, PDATA
|$T39497| DCD	|$LN69@Init@2|
	DCD	0xc0009b02

  00000			 AREA	 |.xdata|, DATA
|$T39493| DCD	0xffffffdc

  00000			 AREA	 |.rdata|, DATA, READONLY
|??_C@_1BA@FFJKPDNI@?$AA?$CF?$AAd?$AA_?$AA?$CF?$AAd?$AA_?$AA0?$AA?$AA@| DCB "%"
	DCB	0x0, "d", 0x0, "_", 0x0, "%", 0x0, "d", 0x0, "_", 0x0, "0"
	DCB	0x0, 0x0, 0x0				; `string'

  00000			 AREA	 |.rdata|, DATA, READONLY
|??_C@_17DJMMGLBL@?$AAD?$AAl?$AAl?$AA?$AA@| DCB "D", 0x0, "l", 0x0, "l", 0x0
	DCB	0x0, 0x0				; `string'

  00000			 AREA	 |.rdata|, DATA, READONLY
|??_C@_1M@JLADBBAF@?$AAE?$AAn?$AAt?$AAr?$AAy?$AA?$AA@| DCB "E", 0x0, "n", 0x0
	DCB	"t", 0x0, "r", 0x0, "y", 0x0, 0x0, 0x0	; `string'

  00000			 AREA	 |.rdata|, DATA, READONLY
|??_C@_1BC@NNFDDHPK@?$AAD?$AAr?$AAi?$AAv?$AAe?$AAr?$AAI?$AAd?$AA?$AA@| DCB "D"
	DCB	0x0, "r", 0x0, "i", 0x0, "v", 0x0, "e", 0x0, "r", 0x0, "I"
	DCB	0x0, "d", 0x0, 0x0, 0x0			; `string'

  00000			 AREA	 |.rdata|, DATA, READONLY
|??_C@_1BG@GDBEHIKL@?$AAP?$AAo?$AAw?$AAe?$AAr?$AAF?$AAl?$AAa?$AAg?$AAs?$AA?$AA@| DCB "P"
	DCB	0x0, "o", 0x0, "w", 0x0, "e", 0x0, "r", 0x0, "F", 0x0, "l"
	DCB	0x0, "a", 0x0, "g", 0x0, "s", 0x0, 0x0, 0x0 ; `string'

  00000			 AREA	 |.rdata|, DATA, READONLY
|??_C@_1M@OAJFFPML@?$AAF?$AAl?$AAa?$AAg?$AAs?$AA?$AA@| DCB "F", 0x0, "l", 0x0
	DCB	"a", 0x0, "g", 0x0, "s", 0x0, 0x0, 0x0	; `string'
; Function compile flags: /Ogspy
; File c:\wince600\platform\common\src\soc\common_ti_v1\common_ti\bus\mdd\defaultbuschild.cpp

  00000			 AREA	 |.text|, CODE, ARM

  00000	00000000	 DCD         |__GSHandlerCheck|
  00004	00000000	 DCD         |$T39493|

  00008		 |?Init@DefaultBusChild_t@@UAAHKPBG@Z| PROC ; DefaultBusChild_t::Init

; 59   : {

  00008		 |$LN69@Init@2|
  00008	e92d47f0	 stmdb       sp!, {r4 - r10, lr}
  0000c	e24dd050	 sub         sp, sp, #0x50
  00010		 |$M39494|
  00010	e1a04002	 mov         r4, r2
  00014	e1a07001	 mov         r7, r1
  00018	e1a05000	 mov         r5, r0
  0001c	e59f324c	 ldr         r3, [pc, #0x24C]
  00020	e5933000	 ldr         r3, [r3]
  00024	e58d304c	 str         r3, [sp, #0x4C]

; 60   :     DWORD rc = FALSE;
; 61   :     LONG code;
; 62   :     HKEY hKey = NULL;

  00028	e3a02000	 mov         r2, #0

; 63   :     HANDLE hBus;
; 64   :     INTERFACE_TYPE busType;
; 65   :     DWORD busNumber;
; 66   :     ce::wstring name;

  0002c	e3a0e010	 mov         lr, #0x10
  00030	e28d3020	 add         r3, sp, #0x20
  00034	e3a08000	 mov         r8, #0
  00038	e3a09000	 mov         r9, #0
  0003c	e3a0a000	 mov         r10, #0

; 67   : 
; 68   : 
; 69   :     // Save device registry key for later use
; 70   :     m_deviceRegistryKey = deviceRegistryKey;

  00040	e1a01004	 mov         r1, r4
  00044	e285003c	 add         r0, r5, #0x3C
  00048	e58d200c	 str         r2, [sp, #0xC]
  0004c	e58de048	 str         lr, [sp, #0x48]
  00050	e58d301c	 str         r3, [sp, #0x1C]
  00054	e1cd84b0	 strh        r8, [sp, #0x40]
  00058	e58d9044	 str         r9, [sp, #0x44]
  0005c	e1cda2b0	 strh        r10, [sp, #0x20]
  00060	e3a06000	 mov         r6, #0
  00064	eb000000	 bl          |?assign@?$_string_t@G$0BA@U?$char_traits@G@ce@@Vallocator@2@@ce@@QAA_NPBG@Z|

; 71   : 
; 72   :     // Open device registry key
; 73   :     code = ::RegOpenKeyEx(
; 74   :         HKEY_LOCAL_MACHINE, deviceRegistryKey, 0, 0, &hKey
; 75   :         );

  00068	e28d300c	 add         r3, sp, #0xC
  0006c	e58d3000	 str         r3, [sp]
  00070	e3a03000	 mov         r3, #0
  00074	e3a02000	 mov         r2, #0
  00078	e1a01004	 mov         r1, r4
  0007c	e3a0010a	 mov         r0, #0xA, 2
  00080	eb000000	 bl          RegOpenKeyExW
  00084	e3500000	 cmp         r0, #0

; 76   :     if (code != ERROR_SUCCESS)

  00088	1a000065	 bne         |$cleanUp$37403|

; 77   :         {
; 78   :         goto cleanUp;
; 79   :         }
; 80   : 
; 81   :     // Read load flags
; 82   :     ce::RegQueryValue(hKey, DEVLOAD_FLAGS_VALNAME, m_flags, DEVFLAGS_NONE);

  0008c	e59f11d8	 ldr         r1, [pc, #0x1D8]
  00090	e59d000c	 ldr         r0, [sp, #0xC]
  00094	e285406c	 add         r4, r5, #0x6C
  00098	e3a08004	 mov         r8, #4
  0009c	e28de008	 add         lr, sp, #8
  000a0	e3a03000	 mov         r3, #0
  000a4	e3a02000	 mov         r2, #0
  000a8	e58d8008	 str         r8, [sp, #8]
  000ac	e58de004	 str         lr, [sp, #4]
  000b0	e58d4000	 str         r4, [sp]
  000b4	eb000000	 bl          RegQueryValueExW
  000b8	e3500000	 cmp         r0, #0
  000bc	e3a09000	 mov         r9, #0

; 83   : 
; 84   :     // Read power mask
; 85   :     ce::RegQueryValue(hKey, DEVLOADEX_POWERFLAGS_VALNAME, m_ffPower, POWERFLAGS_NONE);

  000c0	e59f11a0	 ldr         r1, [pc, #0x1A0]
  000c4	e59d000c	 ldr         r0, [sp, #0xC]
  000c8	15849000	 strne       r9, [r4]
  000cc	e28540d8	 add         r4, r5, #0xD8
  000d0	e3a08004	 mov         r8, #4
  000d4	e28de008	 add         lr, sp, #8
  000d8	e3a03000	 mov         r3, #0
  000dc	e3a02000	 mov         r2, #0
  000e0	e58d4000	 str         r4, [sp]
  000e4	e58d8008	 str         r8, [sp, #8]
  000e8	e58de004	 str         lr, [sp, #4]
  000ec	eb000000	 bl          RegQueryValueExW
  000f0	e3500000	 cmp         r0, #0

; 86   : 
; 87   :     // Read device id
; 88   :     ce::RegQueryValue(hKey, DEVICEID_VALNAME, m_driverId, (DWORD)-1);

  000f4	e59f1168	 ldr         r1, [pc, #0x168]
  000f8	e59d000c	 ldr         r0, [sp, #0xC]
  000fc	15849000	 strne       r9, [r4]
  00100	e28540d4	 add         r4, r5, #0xD4
  00104	e3a08004	 mov         r8, #4
  00108	e28de008	 add         lr, sp, #8
  0010c	e3a03000	 mov         r3, #0
  00110	e3a02000	 mov         r2, #0
  00114	e58d4000	 str         r4, [sp]
  00118	e58d8008	 str         r8, [sp, #8]
  0011c	e58de004	 str         lr, [sp, #4]
  00120	eb000000	 bl          RegQueryValueExW

; 89   : 
; 90   :     // Try read obsolete "Entry" value
; 91   :     code = ce::RegQueryValue(hKey, DEVLOAD_ENTRYPOINT_VALNAME, m_entryPoint);

  00124	e59f1134	 ldr         r1, [pc, #0x134]
  00128	e3500000	 cmp         r0, #0
  0012c	e59d000c	 ldr         r0, [sp, #0xC]
  00130	13e03000	 mvnne       r3, #0
  00134	e2852070	 add         r2, r5, #0x70
  00138	15843000	 strne       r3, [r4]
  0013c	eb000000	 bl          |??$RegQueryValue@$0BA@U?$char_traits@G@ce@@Vallocator@2@@ce@@YAJPAUHKEY__@@PBGAAV?$_string_t@G$0BA@U?$char_traits@G@ce@@Vallocator@2@@0@@Z|
  00140	e3500000	 cmp         r0, #0

; 92   :     if (code == ERROR_SUCCESS)

  00144	1a000005	 bne         |$LN5@Init@2|

; 93   :         {
; 94   :         // We find "Entry" so we must get DLL name also
; 95   :         code = ce::RegQueryValue(hKey, DEVLOAD_DLLNAME_VALNAME, m_dllName);

  00148	e59f110c	 ldr         r1, [pc, #0x10C]
  0014c	e59d000c	 ldr         r0, [sp, #0xC]
  00150	e28520a0	 add         r2, r5, #0xA0
  00154	eb000000	 bl          |??$RegQueryValue@$0BA@U?$char_traits@G@ce@@Vallocator@2@@ce@@YAJPAUHKEY__@@PBGAAV?$_string_t@G$0BA@U?$char_traits@G@ce@@Vallocator@2@@0@@Z|
  00158	e3500000	 cmp         r0, #0

; 96   :         if (code != ERROR_SUCCESS)

  0015c	1a000030	 bne         |$cleanUp$37403|
  00160		 |$LN5@Init@2|

; 97   :             {
; 98   :             goto cleanUp;
; 99   :             }
; 100  :         }
; 101  :     
; 102  :     // Get bus prefix
; 103  :     name.reserve(MAX_PATH);

  00160	e3a01f41	 mov         r1, #0x41, 30
  00164	e28d001c	 add         r0, sp, #0x1C
  00168	eb000000	 bl          |?_Grow@?$_string_t@G$0BA@U?$char_traits@G@ce@@Vallocator@2@@ce@@IAA_NI@Z|

; 104  :     if (m_pBus->IoCtlBusNamePrefix(name.get_buffer(), name.capacity()) == 0)

  0016c	e5950008	 ldr         r0, [r5, #8]
  00170	e59d2048	 ldr         r2, [sp, #0x48]
  00174	e59d101c	 ldr         r1, [sp, #0x1C]
  00178	e5903000	 ldr         r3, [r0]
  0017c	e28d401c	 add         r4, sp, #0x1C
  00180	e58d4008	 str         r4, [sp, #8]
  00184	e5933028	 ldr         r3, [r3, #0x28]
  00188	e1a0e00f	 mov         lr, pc
  0018c	e12fff13	 bx          r3
  00190	e3500000	 cmp         r0, #0
  00194	03a04001	 moveq       r4, #1
  00198	e28d0008	 add         r0, sp, #8
  0019c	13a04000	 movne       r4, #0
  001a0	eb000000	 bl          |??1_buffer@?$_string_t@G$0BA@U?$char_traits@G@ce@@Vallocator@2@@ce@@QAA@XZ|
  001a4	e21430ff	 ands        r3, r4, #0xFF

; 105  :         {
; 106  :         goto cleanUp;
; 107  :         }
; 108  :     // Start device name with bus prefix
; 109  :     m_deviceName = name;
; 110  : 
; 111  :     // Now create second part of device name
; 112  :     m_pBus->GetBusInfo(hBus, busType, busNumber);
; 113  :     StringCchPrintf(
; 114  :         name.get_buffer(), name.capacity()/sizeof(WCHAR), L"%d_%d_0",
; 115  :         busNumber, index
; 116  :         );
; 117  : 
; 118  :     // Attach it to device name
; 119  :     m_deviceName += name;
; 120  : 
; 121  :     // Done
; 122  :     rc = TRUE;
; 123  :     
; 124  : cleanUp:    
; 125  :     if (hKey != NULL) RegCloseKey(hKey);
; 126  :     return rc;
; 127  : }

  001a8	1a00001d	 bne         |$cleanUp$37403|
  001ac	e59d2044	 ldr         r2, [sp, #0x44]
  001b0	e59d101c	 ldr         r1, [sp, #0x1C]
  001b4	e285000c	 add         r0, r5, #0xC
  001b8	e3a03000	 mov         r3, #0
  001bc	eb000000	 bl          |?assign@?$_string_t@G$0BA@U?$char_traits@G@ce@@Vallocator@2@@ce@@QAA_NPBGII@Z|
  001c0	e5950008	 ldr         r0, [r5, #8]
  001c4	e28d3010	 add         r3, sp, #0x10
  001c8	e28d2018	 add         r2, sp, #0x18
  001cc	e590e000	 ldr         lr, [r0]
  001d0	e28d1014	 add         r1, sp, #0x14
  001d4	e59e4030	 ldr         r4, [lr, #0x30]
  001d8	e1a0e00f	 mov         lr, pc
  001dc	e12fff14	 bx          r4
  001e0	e59d1048	 ldr         r1, [sp, #0x48]
  001e4	e59d3010	 ldr         r3, [sp, #0x10]
  001e8	e59f2068	 ldr         r2, [pc, #0x68]
  001ec	e59d001c	 ldr         r0, [sp, #0x1C]
  001f0	e28de01c	 add         lr, sp, #0x1C
  001f4	e1a010a1	 mov         r1, r1, lsr #1
  001f8	e58de008	 str         lr, [sp, #8]
  001fc	e58d7000	 str         r7, [sp]
  00200	eb000000	 bl          StringCchPrintfW
  00204	e28d0008	 add         r0, sp, #8
  00208	eb000000	 bl          |??1_buffer@?$_string_t@G$0BA@U?$char_traits@G@ce@@Vallocator@2@@ce@@QAA@XZ|
  0020c	e5953034	 ldr         r3, [r5, #0x34]
  00210	e59d2044	 ldr         r2, [sp, #0x44]
  00214	e59d101c	 ldr         r1, [sp, #0x1C]
  00218	e285000c	 add         r0, r5, #0xC
  0021c	eb000000	 bl          |?assign@?$_string_t@G$0BA@U?$char_traits@G@ce@@Vallocator@2@@ce@@QAA_NPBGII@Z|
  00220	e3a06001	 mov         r6, #1
  00224		 |$cleanUp$37403|
  00224	e59d000c	 ldr         r0, [sp, #0xC]
  00228	e3500000	 cmp         r0, #0
  0022c	1b000000	 blne        RegCloseKey
  00230	e59d3048	 ldr         r3, [sp, #0x48]
  00234	e3530010	 cmp         r3, #0x10
  00238	159d001c	 ldrne       r0, [sp, #0x1C]
  0023c	1b000000	 blne        |??3@YAXPAX@Z|
  00240	e59d004c	 ldr         r0, [sp, #0x4C]
  00244	eb000000	 bl          __security_check_cookie
  00248	e1a00006	 mov         r0, r6
  0024c	e28dd050	 add         sp, sp, #0x50
  00250	e8bd47f0	 ldmia       sp!, {r4 - r10, lr}
  00254	e12fff1e	 bx          lr
  00258		 |$LN70@Init@2|
  00258		 |$LN71@Init@2|
  00258	00000000	 DCD         |??_C@_1BA@FFJKPDNI@?$AA?$CF?$AAd?$AA_?$AA?$CF?$AAd?$AA_?$AA0?$AA?$AA@|
  0025c		 |$LN72@Init@2|
  0025c	00000000	 DCD         |??_C@_17DJMMGLBL@?$AAD?$AAl?$AAl?$AA?$AA@|
  00260		 |$LN73@Init@2|
  00260	00000000	 DCD         |??_C@_1M@JLADBBAF@?$AAE?$AAn?$AAt?$AAr?$AAy?$AA?$AA@|
  00264		 |$LN74@Init@2|
  00264	00000000	 DCD         |??_C@_1BC@NNFDDHPK@?$AAD?$AAr?$AAi?$AAv?$AAe?$AAr?$AAI?$AAd?$AA?$AA@|
  00268		 |$LN75@Init@2|
  00268	00000000	 DCD         |??_C@_1BG@GDBEHIKL@?$AAP?$AAo?$AAw?$AAe?$AAr?$AAF?$AAl?$AAa?$AAg?$AAs?$AA?$AA@|
  0026c		 |$LN76@Init@2|
  0026c	00000000	 DCD         |??_C@_1M@OAJFFPML@?$AAF?$AAl?$AAa?$AAg?$AAs?$AA?$AA@|
  00270		 |$LN77@Init@2|
  00270	00000000	 DCD         |__security_cookie|
  00274		 |$M39495|

			 ENDP  ; |?Init@DefaultBusChild_t@@UAAHKPBG@Z|, DefaultBusChild_t::Init

; File c:\wince600\public\common\oak\inc\singleton.hxx

  00000			 AREA	 |.pdata|, PDATA
|$T39516| DCD	|$LN7@factory|
	DCD	0x40000401
; Function compile flags: /Ogspy

  00000			 AREA	 |.text$yc|, CODE, ARM

  00000		 |??__E?_factory@?$singleton@V?$free_list@$0GE@Vallocator@ce@@@ce@@$03V?$static_allocator@V?$free_list@$0GE@Vallocator@ce@@@ce@@$03@2@@ce@@1Ulock_factory@12@A@@YAXXZ| PROC ; `dynamic initializer for 'ce::singleton<ce::free_list<100,ce::allocator>,4,ce::static_allocator<ce::free_list<100,ce::allocator>,4> >::_factory''

; 390  :     {

  00000		 |$LN7@factory|
  00000	e52de004	 str         lr, [sp, #-4]!
  00004		 |$M39513|
  00004	eb000000	 bl          |?get_lock@?$singleton@V?$free_list@$0GE@Vallocator@ce@@@ce@@$03V?$static_allocator@V?$free_list@$0GE@Vallocator@ce@@@ce@@$03@2@@ce@@KAAAVcritical_section@2@XZ|
  00008	e49de004	 ldr         lr, [sp], #4
  0000c	e12fff1e	 bx          lr
  00010		 |$M39514|

			 ENDP  ; |??__E?_factory@?$singleton@V?$free_list@$0GE@Vallocator@ce@@@ce@@$03V?$static_allocator@V?$free_list@$0GE@Vallocator@ce@@@ce@@$03@2@@ce@@1Ulock_factory@12@A@@YAXXZ|, `dynamic initializer for 'ce::singleton<ce::free_list<100,ce::allocator>,4,ce::static_allocator<ce::free_list<100,ce::allocator>,4> >::_factory''


  00000			 AREA	 |.pdata|, PDATA
|$T39526| DCD	|$LN7@dynamic|
	DCD	0x40000601
; Function compile flags: /Ogspy

  00000			 AREA	 |.text$yd|, CODE, ARM

  00000		 |??__Fcs@?1??get_lock@?$singleton@V?$free_list@$0GE@Vallocator@ce@@@ce@@$03V?$static_allocator@V?$free_list@$0GE@Vallocator@ce@@@ce@@$03@2@@ce@@KAAAVcritical_section@2@XZ@YAXXZ| PROC ; `ce::singleton<ce::free_list<100,ce::allocator>,4,ce::static_allocator<ce::free_list<100,ce::allocator>,4> >::get_lock'::`2'::`dynamic atexit destructor for 'cs''
  00000		 |$LN7@dynamic|
  00000	e52de004	 str         lr, [sp, #-4]!
  00004		 |$M39523|
  00004	e59f0008	 ldr         r0, [pc, #8]
  00008	eb000000	 bl          DeleteCriticalSection
  0000c	e49de004	 ldr         lr, [sp], #4
  00010	e12fff1e	 bx          lr
  00014		 |$LN8@dynamic|
  00014		 |$LN9@dynamic|
  00014	00000000	 DCD         |?cs@?1??get_lock@?$singleton@V?$free_list@$0GE@Vallocator@ce@@@ce@@$03V?$static_allocator@V?$free_list@$0GE@Vallocator@ce@@@ce@@$03@2@@ce@@KAAAVcritical_section@3@XZ@4V43@A|
  00018		 |$M39524|

			 ENDP  ; |??__Fcs@?1??get_lock@?$singleton@V?$free_list@$0GE@Vallocator@ce@@@ce@@$03V?$static_allocator@V?$free_list@$0GE@Vallocator@ce@@@ce@@$03@2@@ce@@KAAAVcritical_section@2@XZ@YAXXZ|, `ce::singleton<ce::free_list<100,ce::allocator>,4,ce::static_allocator<ce::free_list<100,ce::allocator>,4> >::get_lock'::`2'::`dynamic atexit destructor for 'cs''

	EXPORT	|?_factory@?$singleton@V?$free_list@$0GE@Vallocator@ce@@@ce@@$03V?$static_allocator@V?$free_list@$0GE@Vallocator@ce@@@ce@@$03@2@@ce@@1Ulock_factory@12@A| [ DATA ] ; ce::singleton<ce::free_list<100,ce::allocator>,4,ce::static_allocator<ce::free_list<100,ce::allocator>,4> >::_factory

  00000			 AREA	 |.bss|, NOINIT
|?_factory@?$singleton@V?$free_list@$0GE@Vallocator@ce@@@ce@@$03V?$static_allocator@V?$free_list@$0GE@Vallocator@ce@@@ce@@$03@2@@ce@@1Ulock_factory@12@A| % 0x1 ; ce::singleton<ce::free_list<100,ce::allocator>,4,ce::static_allocator<ce::free_list<100,ce::allocator>,4> >::_factory

  00000			 AREA	 |.CRT$XCU|, DATA
|?_factory$initializer$@?$singleton@V?$free_list@$0GE@Vallocator@ce@@@ce@@$03V?$static_allocator@V?$free_list@$0GE@Vallocator@ce@@@ce@@$03@2@@ce@@1P6AXXZA| DCD |??__E?_factory@?$singleton@V?$free_list@$0GE@Vallocator@ce@@@ce@@$03V?$static_allocator@V?$free_list@$0GE@Vallocator@ce@@@ce@@$03@2@@ce@@1Ulock_factory@12@A@@YAXXZ| ; ce::singleton<ce::free_list<100,ce::allocator>,4,ce::static_allocator<ce::free_list<100,ce::allocator>,4> >::_factory$initializer$
	END
