; Listing generated by Microsoft (R) Optimizing Compiler Version 14.01.60511.01 

	TTL	C:\WINCE600\PLATFORM\Z2170P\SRC\test\FSTEST\main.cpp
	CODE32

  00000			 AREA	 |.drectve|, DRECTVE
	DCB	"-defaultlib:LIBCMT "
	DCB	"-defaultlib:OLDNAMES "

	EXPORT	|DllMain|
; File c:\wince600\platform\z2170p\src\test\fstest\main.cpp

  00000			 AREA	 |.pdata|, PDATA
|$T32857| DCD	|$LN5@DllMain|
	DCD	0x40000200
; Function compile flags: /Ogspy

  00000			 AREA	 |.text|, CODE, ARM

  00000		 |DllMain| PROC

; 44   : {

  00000		 |$LN5@DllMain|
  00000		 |$M32854|

; 45   :     // Any initialization code goes here.
; 46   : 	UNREFERENCED_PARAMETER(hInstance);
; 47   : 	UNREFERENCED_PARAMETER(dwReason);
; 48   : 	UNREFERENCED_PARAMETER(lpReserved);
; 49   : 
; 50   :     return TRUE;

  00000	e3a00001	 mov         r0, #1

; 51   : }

  00004	e12fff1e	 bx          lr
  00008		 |$M32855|

			 ENDP  ; |DllMain|

	EXPORT	|__$ArrayPad$| [ DATA ]
	EXPORT	|?Debug@@YAXPBGZZ|			; Debug
	EXPORT	|??_C@_15JNBOKNOG@?$AA?$AN?$AA?6?$AA?$AA@| [ DATA ] ; `string'
	IMPORT	|OutputDebugStringW|
	IMPORT	|wvsprintfW|
	IMPORT	|__GSHandlerCheck|
	IMPORT	|__security_cookie|
	IMPORT	|wcscat|
	IMPORT	|wcscpy|
	IMPORT	|__security_check_cookie|

  00000			 AREA	 |.pdata|, PDATA
|$T32872| DCD	|$LN5@Debug|
	DCD	0xc0002305

  00000			 AREA	 |.xdata|, DATA
|$T32868| DCD	0xffffffe0

  00000			 AREA	 |.data|, DATA
|?szHeader@?1??Debug@@YAXPBGZZ@4PAGA| DCB "C", 0x0, "E", 0x0, "T", 0x0, "K"
	DCB	0x0, "_", 0x0, "F", 0x0, "S", 0x0, "T", 0x0, "e", 0x0, "s"
	DCB	0x0, "t", 0x0, ":", 0x0, " ", 0x0, 0x0, 0x0 ; `Debug'::`2'::szHeader

  00000			 AREA	 |.rdata|, DATA, READONLY
|??_C@_15JNBOKNOG@?$AA?$AN?$AA?6?$AA?$AA@| DCB 0xd, 0x0, 0xa, 0x0, 0x0, 0x0 ; `string'
; Function compile flags: /Ogspy

  00000			 AREA	 |.text|, CODE, ARM

  00000	00000000	 DCD         |__GSHandlerCheck|
  00004	00000000	 DCD         |$T32868|

  00008		 |?Debug@@YAXPBGZZ| PROC		; Debug

; 66   : {

  00008		 |$LN5@Debug|
  00008	e1a0c00d	 mov         r12, sp
  0000c	e92d000f	 stmdb       sp!, {r0 - r3}
  00010	e92d5010	 stmdb       sp!, {r4, r12, lr}
  00014	e59fc074	 ldr         r12, [pc, #0x74]
  00018	e08dd00c	 add         sp, sp, r12
  0001c		 |$M32869|
  0001c	e1a04000	 mov         r4, r0
  00020	e58d4810	 str         r4, [sp, #0x810]
  00024	e59f3060	 ldr         r3, [pc, #0x60]
  00028	e5933000	 ldr         r3, [r3]
  0002c	e58d3800	 str         r3, [sp, #0x800]

; 67   :     static  TCHAR   szHeader[] = TEXT("CETK_FSTest: ");
; 68   :     TCHAR   szBuffer[1024];
; 69   : 
; 70   :     va_list pArgs;
; 71   :     va_start(pArgs, szFormat);
; 72   :     lstrcpy(szBuffer, szHeader);

  00030	e59f1050	 ldr         r1, [pc, #0x50]
  00034	e28d0000	 add         r0, sp, #0
  00038	eb000000	 bl          wcscpy

; 73   :     wvsprintf(
; 74   :         szBuffer + countof(szHeader) - 1,
; 75   :         szFormat,
; 76   :         pArgs);

  0003c	e3a02b02	 mov         r2, #2, 22
  00040	e3822014	 orr         r2, r2, #0x14
  00044	e08d2002	 add         r2, sp, r2
  00048	e1a01004	 mov         r1, r4
  0004c	e28d001a	 add         r0, sp, #0x1A
  00050	eb000000	 bl          wvsprintfW

; 77   :     va_end(pArgs);
; 78   : 
; 79   :     _tcscat(szBuffer, TEXT("\r\n"));

  00054	e59f1028	 ldr         r1, [pc, #0x28]
  00058	e28d0000	 add         r0, sp, #0
  0005c	eb000000	 bl          wcscat

; 80   : 
; 81   :     OutputDebugString(szBuffer);

  00060	e28d0000	 add         r0, sp, #0
  00064	eb000000	 bl          OutputDebugStringW
  00068	e59d0800	 ldr         r0, [sp, #0x800]
  0006c	eb000000	 bl          __security_check_cookie

; 82   : }

  00070	e3a0cb02	 mov         r12, #2, 22
  00074	e38cc004	 orr         r12, r12, #4
  00078	e08dd00c	 add         sp, sp, r12
  0007c	e89d6010	 ldmia       sp, {r4, sp, lr}
  00080	e12fff1e	 bx          lr
  00084		 |$LN6@Debug|
  00084		 |$LN7@Debug|
  00084	00000000	 DCD         |??_C@_15JNBOKNOG@?$AA?$AN?$AA?6?$AA?$AA@|
  00088		 |$LN8@Debug|
  00088	00000000	 DCD         |?szHeader@?1??Debug@@YAXPBGZZ@4PAGA|
  0008c		 |$LN9@Debug|
  0008c	00000000	 DCD         |__security_cookie|
  00090		 |$LN10@Debug|
  00090	fffff7fc	 DCD         0xfffff7fc
  00094		 |$M32870|

			 ENDP  ; |?Debug@@YAXPBGZZ|, Debug

	EXPORT	|??_C@_1CM@IPJJOHCJ@?$AAC?$AAo?$AAm?$AAm?$AAa?$AAn?$AAd?$AA?5?$AAL?$AAi?$AAn?$AAe?$AA?5?$AAO?$AAp?$AAt?$AAi?$AAo?$AAn?$AAs?$AA?3?$AA?$AA@| [ DATA ] ; `string'
	EXPORT	|??_C@_1HM@JBGHLOIB@?$AA?5?$AA?5?$AA?9?$AAr?$AA?5?$AA?5?$AA?8?$AAf?$AAi?$AAl?$AAe?$AAn?$AAa?$AAm?$AAe?$AA?8?$AA?5?$AA?5?$AA?5?$AAP?$AAe?$AAr?$AAf?$AAo?$AAr?$AAm?$AA?5?$AAr?$AAe?$AAa?$AAd?$AA?5@| [ DATA ] ; `string'
	EXPORT	|??_C@_1HO@IIABAMCD@?$AA?5?$AA?5?$AA?9?$AAw?$AA?5?$AA?5?$AA?8?$AAf?$AAi?$AAl?$AAe?$AAn?$AAa?$AAm?$AAe?$AA?8?$AA?5?$AA?5?$AA?5?$AAP?$AAe?$AAr?$AAf?$AAo?$AAr?$AAm?$AA?5?$AAw?$AAr?$AAi?$AAt?$AAe@| [ DATA ] ; `string'
	EXPORT	|??_C@_1JC@NIIHHJGA@?$AA?5?$AA?5?$AA?9?$AAw?$AAr?$AA?5?$AA?8?$AAf?$AAi?$AAl?$AAe?$AAn?$AAa?$AAm?$AAe?$AA?8?$AA?5?$AA?5?$AA?5?$AAP?$AAe?$AAr?$AAf?$AAo?$AAr?$AAm?$AA?5?$AAw?$AAr?$AAi?$AAt?$AAe@| [ DATA ] ; `string'
	EXPORT	|??_C@_1KA@BCHAEEBE@?$AA?5?$AA?5?$AA?9?$AAc?$AA?5?$AA?5?$AA?8?$AAd?$AAi?$AAr?$AAn?$AAa?$AAm?$AAe?$AA?8?$AA?5?$AA?5?$AA?5?$AA?5?$AAC?$AAr?$AAe?$AAa?$AAt?$AAe?$AA?5?$AAa?$AA?5?$AAf?$AAi?$AAl?$AAe@| [ DATA ] ; `string'
	EXPORT	|??_C@_1HA@DABILAHD@?$AA?5?$AA?5?$AA?5?$AA?5?$AA?5?$AA?5?$AA?5?$AA?5?$AA?5?$AA?5?$AA?5?$AA?5?$AA?5?$AA?5?$AA?5?$AA?5?$AA?5?$AA?5?$AA?5?$AA?5?$AA?$CI?$AAd?$AAo?$AA?5?$AAn?$AAo?$AAt?$AA?5?$AAi?$AAn?$AAc?$AAl@| [ DATA ] ; `string'
	EXPORT	|??_C@_1HC@NPCFPCMI@?$AA?5?$AA?5?$AA?9?$AAn?$AA?5?$AAN?$AAu?$AAm?$AAT?$AAe?$AAs?$AAt?$AAs?$AA?5?$AA?5?$AA?5?$AA?5?$AA?5?$AA?5?$AAN?$AAu?$AAm?$AAb?$AAe?$AAr?$AA?5?$AAo?$AAf?$AA?5?$AAt?$AAi?$AAm@| [ DATA ] ; `string'
	EXPORT	|??_C@_1IE@EIAMKBOF@?$AA?5?$AA?5?$AA?9?$AAs?$AA?5?$AAF?$AAi?$AAl?$AAe?$AAS?$AAi?$AAz?$AAe?$AA?5?$AA?5?$AA?5?$AA?5?$AA?5?$AA?5?$AAS?$AAi?$AAz?$AAe?$AA?5?$AAo?$AAf?$AA?5?$AAf?$AAi?$AAl?$AAe?$AA?$CI@| [ DATA ] ; `string'
	EXPORT	|??_C@_1HE@EOBALKKN@?$AA?5?$AA?5?$AA?5?$AA?5?$AA?5?$AA?5?$AA?5?$AA?5?$AA?5?$AA?5?$AA?5?$AA?5?$AA?5?$AA?5?$AA?5?$AA?5?$AA?5?$AA?5?$AA?5?$AA?5?$AA?$CI?$AAv?$AAa?$AAl?$AAi?$AAd?$AA?5?$AAr?$AAa?$AAn?$AAg?$AAe@| [ DATA ] ; `string'
	EXPORT	|??_C@_1JI@GOPDNCGM@?$AA?5?$AA?5?$AA?9?$AAb?$AA?5?$AAB?$AAu?$AAf?$AAf?$AAe?$AAr?$AAS?$AAi?$AAz?$AAe?$AA?5?$AA?5?$AA?5?$AA?5?$AAS?$AAi?$AAz?$AAe?$AA?5?$AAo?$AAf?$AA?5?$AAd?$AAa?$AAt?$AAa?$AA?5@| [ DATA ] ; `string'
	EXPORT	|??_C@_1JA@DENDPHNC@?$AA?5?$AA?5?$AA?5?$AA?5?$AA?5?$AA?5?$AA?5?$AA?5?$AA?5?$AA?5?$AA?5?$AA?5?$AA?5?$AA?5?$AA?5?$AA?5?$AA?5?$AA?5?$AA?5?$AA?5?$AA?$CI?$AAv?$AAa?$AAl?$AAi?$AAd?$AA?5?$AAr?$AAa?$AAn?$AAg?$AAe@| [ DATA ] ; `string'
	EXPORT	|??_C@_1EK@KDDAPFNH@?$AA?5?$AA?5?$AA?9?$AAa?$AA?5?$AA?5?$AA?5?$AA?5?$AA?5?$AA?5?$AA?5?$AA?5?$AA?5?$AA?5?$AA?5?$AA?5?$AA?5?$AA?5?$AA?5?$AAP?$AAe?$AAr?$AAf?$AAo?$AAr?$AAm?$AA?5?$AAa?$AAl?$AAl?$AA?5?$AAt@| [ DATA ] ; `string'
	EXPORT	|??_C@_1IO@PDMHDGGO@?$AA?5?$AA?5?$AA?5?$AA?5?$AA?5?$AA?5?$AA?5?$AA?5?$AA?5?$AA?5?$AA?5?$AA?5?$AA?5?$AA?5?$AA?5?$AA?5?$AA?5?$AA?5?$AA?5?$AA?5?$AA?$CI?$AAd?$AAe?$AAf?$AAa?$AAu?$AAl?$AAt?$AA?5?$AA?$DN?$AA?5?$AAu@| [ DATA ] ; `string'
	EXPORT	|??_C@_1GO@LLNJJLLC@?$AA?5?$AA?5?$AA?9?$AAn?$AAo?$AAc?$AAa?$AAc?$AAh?$AAe?$AA?5?$AA?5?$AA?5?$AA?5?$AA?5?$AA?5?$AA?5?$AA?5?$AA?5?$AAA?$AAc?$AAc?$AAe?$AAs?$AAs?$AA?5?$AAf?$AAi?$AAl?$AAe?$AAs?$AA?5@| [ DATA ] ; `string'
	EXPORT	|??_C@_1GO@PGHOACMK@?$AA?5?$AA?5?$AA?5?$AA?5?$AA?5?$AA?5?$AA?5?$AA?5?$AA?5?$AA?5?$AA?5?$AA?5?$AA?5?$AA?5?$AA?5?$AA?5?$AA?5?$AA?5?$AA?5?$AA?5?$AA?$CI?$AAd?$AAe?$AAf?$AAa?$AAu?$AAl?$AAt?$AA?5?$AA?$DN?$AA?5?$AAs@| [ DATA ] ; `string'
	EXPORT	|??_C@_1HA@MCOJHCAI@?$AA?5?$AA?5?$AA?9?$AAw?$AAr?$AAi?$AAt?$AAe?$AAt?$AAh?$AAr?$AAu?$AA?5?$AA?5?$AA?5?$AA?5?$AA?5?$AA?5?$AA?5?$AAW?$AAr?$AAi?$AAt?$AAe?$AA?5?$AAt?$AAh?$AAr?$AAo?$AAu?$AAg?$AAh@| [ DATA ] ; `string'
	EXPORT	|??_C@_1GI@KAIOBLAK@?$AA?5?$AA?5?$AA?5?$AA?5?$AA?5?$AA?5?$AA?5?$AA?5?$AA?5?$AA?5?$AA?5?$AA?5?$AA?5?$AA?5?$AA?5?$AA?5?$AA?5?$AA?5?$AA?5?$AA?5?$AA?$CI?$AAd?$AAe?$AAf?$AAa?$AAu?$AAl?$AAt?$AA?5?$AA?$DN?$AA?5?$AAL@| [ DATA ] ; `string'
	EXPORT	|??_C@_1HA@EDPBOLHD@?$AA?5?$AA?5?$AA?9?$AAf?$AAl?$AAu?$AAs?$AAh?$AAa?$AAl?$AAl?$AA?5?$AA?5?$AA?5?$AA?5?$AA?5?$AA?5?$AA?5?$AA?5?$AAF?$AAl?$AAu?$AAs?$AAh?$AA?5?$AAf?$AAi?$AAl?$AAe?$AA?5?$AAb?$AAu@| [ DATA ] ; `string'
	EXPORT	|??_C@_1HE@NPHODCBG@?$AA?5?$AA?5?$AA?9?$AAf?$AAl?$AAu?$AAs?$AAh?$AAe?$AAn?$AAd?$AA?5?$AA?5?$AA?5?$AA?5?$AA?5?$AA?5?$AA?5?$AA?5?$AAF?$AAl?$AAu?$AAs?$AAh?$AA?5?$AAf?$AAi?$AAl?$AAe?$AA?5?$AAb?$AAu@| [ DATA ] ; `string'
	EXPORT	|??_C@_1FM@GMBABNPH@?$AA?5?$AA?5?$AA?5?$AA?5?$AA?5?$AA?5?$AA?5?$AA?5?$AA?5?$AA?5?$AA?5?$AA?5?$AA?5?$AA?5?$AA?5?$AA?5?$AA?5?$AA?5?$AA?5?$AA?5?$AA?$CI?$AAd?$AAe?$AAf?$AAa?$AAu?$AAl?$AAt?$AA?5?$AA?$DN?$AA?5?$AAN@| [ DATA ] ; `string'
	EXPORT	|??_C@_1EE@BOMKGJIB@?$AA?5?$AA?5?$AA?9?$AAv?$AA?5?$AA?5?$AA?5?$AA?5?$AA?5?$AA?5?$AA?5?$AA?5?$AA?5?$AA?5?$AA?5?$AA?5?$AA?5?$AA?5?$AA?5?$AAV?$AAe?$AAr?$AAb?$AAo?$AAs?$AAe?$AA?5?$AAo?$AAu?$AAt?$AAp?$AAu@| [ DATA ] ; `string'
	EXPORT	|??_C@_1GC@ICMDADJM@?$AA?5?$AA?5?$AA?9?$AAh?$AA?5?$AA?5?$AA?5?$AA?5?$AA?5?$AA?5?$AA?5?$AA?5?$AA?5?$AA?5?$AA?5?$AA?5?$AA?5?$AA?5?$AA?5?$AAS?$AAh?$AAo?$AAw?$AA?5?$AAc?$AAo?$AAm?$AAm?$AAa?$AAn?$AAd?$AA?5@| [ DATA ] ; `string'
	EXPORT	|??_C@_1BE@PJNFGBCE@?$AAE?$AAx?$AAa?$AAm?$AAp?$AAl?$AAe?$AAs?$AA?3?$AA?$AA@| [ DATA ] ; `string'
	EXPORT	|??_C@_1DE@PGBKEMMP@?$AA?5?$AA?5?$AA?9?$AAr?$AA?5?$AA?8?$AA?2?$AAt?$AAe?$AAs?$AAt?$AA?4?$AAd?$AAa?$AAt?$AA?8?$AA?5?$AA?9?$AAn?$AA?5?$AA1?$AA0?$AA?5?$AA?9?$AAv?$AA?$AA@| [ DATA ] ; `string'
	EXPORT	|??_C@_1FI@OFNMGECA@?$AA?5?$AA?5?$AA?9?$AAw?$AA?5?$AA?8?$AA?2?$AAS?$AAt?$AAo?$AAr?$AAa?$AAg?$AAe?$AA?5?$AAC?$AAa?$AAr?$AAd?$AA?2?$AAt?$AAe?$AAs?$AAt?$AA?4?$AAd?$AAa?$AAt?$AA?8?$AA?5?$AA?9?$AAs@| [ DATA ] ; `string'
	EXPORT	|??_C@_1FO@BNJCFNKK@?$AA?5?$AA?5?$AA?9?$AAw?$AAr?$AA?5?$AA?8?$AA?2?$AAH?$AAa?$AAr?$AAd?$AA?5?$AAD?$AAi?$AAs?$AAk?$AA?2?$AAt?$AAe?$AAs?$AAt?$AA?4?$AAd?$AAa?$AAt?$AA?8?$AA?5?$AA?9?$AAb?$AA?5?$AA1@| [ DATA ] ; `string'
	EXPORT	|??_C@_1FA@IBCLAGCC@?$AA?5?$AA?5?$AA?9?$AAc?$AA?5?$AA?8?$AA?2?$AAN?$AAA?$AAN?$AAD?$AA?5?$AAF?$AAl?$AAa?$AAs?$AAh?$AA?8?$AA?5?$AA?9?$AAs?$AA?5?$AA1?$AA?5?$AA?9?$AAn?$AA?5?$AA3?$AA?5?$AA?9?$AAw?$AAr@| [ DATA ] ; `string'
	EXPORT	|??_C@_1O@ILCJDLKH@?$AAN?$AAo?$AAt?$AAe?$AAs?$AA?3?$AA?$AA@| [ DATA ] ; `string'
	EXPORT	|??_C@_1JK@PECHHOEG@?$AA?5?$AA?5?$AA?$CK?$AA?5?$AAW?$AAh?$AAe?$AAn?$AA?5?$AAt?$AAe?$AAs?$AAt?$AAi?$AAn?$AAg?$AA?5?$AAt?$AAh?$AAr?$AAo?$AAu?$AAg?$AAh?$AAp?$AAu?$AAt?$AA?5?$AAo?$AAn?$AA?5?$AAa@| [ DATA ] ; `string'
	EXPORT	|??_C@_1FC@HGNBCDB@?$AA?5?$AA?5?$AA?5?$AA?5?$AA?5?$AAt?$AAh?$AAa?$AAt?$AA?5?$AAt?$AAh?$AAe?$AA?5?$AA?9?$AAw?$AAr?$AAi?$AAt?$AAe?$AAt?$AAh?$AAr?$AAu?$AA?5?$AAo?$AAp?$AAt?$AAi?$AAo?$AAn?$AA?5@| [ DATA ] ; `string'
	EXPORT	|??_C@_1GM@BJJFKJAI@?$AA?5?$AA?5?$AA?$CK?$AA?5?$AAD?$AAo?$AA?5?$AAn?$AAo?$AAt?$AA?5?$AAc?$AAo?$AAm?$AAb?$AAi?$AAn?$AAe?$AA?5?$AAt?$AAh?$AAe?$AA?5?$AA?9?$AAn?$AAo?$AAc?$AAa?$AAc?$AAh?$AAe?$AA?5@| [ DATA ] ; `string'
	EXPORT	|??_C@_1JA@JPCOAGMN@?$AA?5?$AA?5?$AA?$CK?$AA?5?$AAW?$AAh?$AAe?$AAn?$AA?5?$AAc?$AAo?$AAm?$AAb?$AAi?$AAn?$AAi?$AAn?$AAg?$AA?5?$AAt?$AAh?$AAe?$AA?5?$AA?9?$AAb?$AA?5?$AAa?$AAn?$AAd?$AA?5?$AA?9?$AAa@| [ DATA ] ; `string'
	EXPORT	|??_C@_1JG@PLJPAIGD@?$AA?5?$AA?5?$AA?$CK?$AA?5?$AAO?$AAp?$AAt?$AAi?$AAo?$AAn?$AA?5?$AAi?$AAd?$AAe?$AAn?$AAt?$AAi?$AAf?$AAi?$AAe?$AAr?$AAs?$AA?5?$AA?$CI?$AA?9?$AAw?$AA?0?$AA?5?$AA?9?$AAh?$AA?5?$AAe@| [ DATA ] ; `string'
	EXPORT	|??_C@_11LOCGONAA@?$AA?$AA@| [ DATA ]	; `string'
	IMPORT	|?g_pKato@@3PAVCKato@@A|		; g_pKato
	IMPORT	|__imp_?Log@CKato@@QAAHKPBGZZ|

  00000			 AREA	 |.pdata|, PDATA
|$T32885| DCD	|$LN5@LogHelpInf|
	DCD	0x40013b02

  00000			 AREA	 |.rdata|, DATA, READONLY
|??_C@_1CM@IPJJOHCJ@?$AAC?$AAo?$AAm?$AAm?$AAa?$AAn?$AAd?$AA?5?$AAL?$AAi?$AAn?$AAe?$AA?5?$AAO?$AAp?$AAt?$AAi?$AAo?$AAn?$AAs?$AA?3?$AA?$AA@| DCB "C"
	DCB	0x0, "o", 0x0, "m", 0x0, "m", 0x0, "a", 0x0, "n", 0x0, "d"
	DCB	0x0, " ", 0x0, "L", 0x0, "i", 0x0, "n", 0x0, "e", 0x0, " "
	DCB	0x0, "O", 0x0, "p", 0x0, "t", 0x0, "i", 0x0, "o", 0x0, "n"
	DCB	0x0, "s", 0x0, ":", 0x0, 0x0, 0x0	; `string'

  00000			 AREA	 |.rdata|, DATA, READONLY
|??_C@_1HM@JBGHLOIB@?$AA?5?$AA?5?$AA?9?$AAr?$AA?5?$AA?5?$AA?8?$AAf?$AAi?$AAl?$AAe?$AAn?$AAa?$AAm?$AAe?$AA?8?$AA?5?$AA?5?$AA?5?$AAP?$AAe?$AAr?$AAf?$AAo?$AAr?$AAm?$AA?5?$AAr?$AAe?$AAa?$AAd?$AA?5@| DCB " "
	DCB	0x0, " ", 0x0, "-", 0x0, "r", 0x0, " ", 0x0, " ", 0x0, "'"
	DCB	0x0, "f", 0x0, "i", 0x0, "l", 0x0, "e", 0x0, "n", 0x0, "a"
	DCB	0x0, "m", 0x0, "e", 0x0, "'", 0x0, " ", 0x0, " ", 0x0, " "
	DCB	0x0, "P", 0x0, "e", 0x0, "r", 0x0, "f", 0x0, "o", 0x0, "r"
	DCB	0x0, "m", 0x0, " ", 0x0, "r", 0x0, "e", 0x0, "a", 0x0, "d"
	DCB	0x0, " ", 0x0, "s", 0x0, "p", 0x0, "e", 0x0, "e", 0x0, "d"
	DCB	0x0, " ", 0x0, "t", 0x0, "e", 0x0, "s", 0x0, "t", 0x0, "s"
	DCB	0x0, " ", 0x0, "o", 0x0, "n", 0x0, " ", 0x0, "t", 0x0, "h"
	DCB	0x0, "e", 0x0, " ", 0x0, "n", 0x0, "a", 0x0, "m", 0x0, "e"
	DCB	0x0, "d", 0x0, " ", 0x0, "f", 0x0, "i", 0x0, "l", 0x0, "e"
	DCB	0x0, 0x0, 0x0				; `string'

  00000			 AREA	 |.rdata|, DATA, READONLY
|??_C@_1HO@IIABAMCD@?$AA?5?$AA?5?$AA?9?$AAw?$AA?5?$AA?5?$AA?8?$AAf?$AAi?$AAl?$AAe?$AAn?$AAa?$AAm?$AAe?$AA?8?$AA?5?$AA?5?$AA?5?$AAP?$AAe?$AAr?$AAf?$AAo?$AAr?$AAm?$AA?5?$AAw?$AAr?$AAi?$AAt?$AAe@| DCB " "
	DCB	0x0, " ", 0x0, "-", 0x0, "w", 0x0, " ", 0x0, " ", 0x0, "'"
	DCB	0x0, "f", 0x0, "i", 0x0, "l", 0x0, "e", 0x0, "n", 0x0, "a"
	DCB	0x0, "m", 0x0, "e", 0x0, "'", 0x0, " ", 0x0, " ", 0x0, " "
	DCB	0x0, "P", 0x0, "e", 0x0, "r", 0x0, "f", 0x0, "o", 0x0, "r"
	DCB	0x0, "m", 0x0, " ", 0x0, "w", 0x0, "r", 0x0, "i", 0x0, "t"
	DCB	0x0, "e", 0x0, " ", 0x0, "s", 0x0, "p", 0x0, "e", 0x0, "e"
	DCB	0x0, "d", 0x0, " ", 0x0, "t", 0x0, "e", 0x0, "s", 0x0, "t"
	DCB	0x0, "s", 0x0, " ", 0x0, "o", 0x0, "n", 0x0, " ", 0x0, "t"
	DCB	0x0, "h", 0x0, "e", 0x0, " ", 0x0, "n", 0x0, "a", 0x0, "m"
	DCB	0x0, "e", 0x0, "d", 0x0, " ", 0x0, "f", 0x0, "i", 0x0, "l"
	DCB	0x0, "e", 0x0, 0x0, 0x0			; `string'

  00000			 AREA	 |.rdata|, DATA, READONLY
|??_C@_1JC@NIIHHJGA@?$AA?5?$AA?5?$AA?9?$AAw?$AAr?$AA?5?$AA?8?$AAf?$AAi?$AAl?$AAe?$AAn?$AAa?$AAm?$AAe?$AA?8?$AA?5?$AA?5?$AA?5?$AAP?$AAe?$AAr?$AAf?$AAo?$AAr?$AAm?$AA?5?$AAw?$AAr?$AAi?$AAt?$AAe@| DCB " "
	DCB	0x0, " ", 0x0, "-", 0x0, "w", 0x0, "r", 0x0, " ", 0x0, "'"
	DCB	0x0, "f", 0x0, "i", 0x0, "l", 0x0, "e", 0x0, "n", 0x0, "a"
	DCB	0x0, "m", 0x0, "e", 0x0, "'", 0x0, " ", 0x0, " ", 0x0, " "
	DCB	0x0, "P", 0x0, "e", 0x0, "r", 0x0, "f", 0x0, "o", 0x0, "r"
	DCB	0x0, "m", 0x0, " ", 0x0, "w", 0x0, "r", 0x0, "i", 0x0, "t"
	DCB	0x0, "e", 0x0, " ", 0x0, "t", 0x0, "h", 0x0, "e", 0x0, "n"
	DCB	0x0, " ", 0x0, "r", 0x0, "e", 0x0, "a", 0x0, "d", 0x0, " "
	DCB	0x0, "s", 0x0, "p", 0x0, "e", 0x0, "e", 0x0, "d", 0x0, " "
	DCB	0x0, "t", 0x0, "e", 0x0, "s", 0x0, "t", 0x0, "s", 0x0, " "
	DCB	0x0, "o", 0x0, "n", 0x0, " ", 0x0, "t", 0x0, "h", 0x0, "e"
	DCB	0x0, " ", 0x0, "n", 0x0, "a", 0x0, "m", 0x0, "e", 0x0, "d"
	DCB	0x0, " ", 0x0, "f", 0x0, "i", 0x0, "l", 0x0, "e", 0x0, 0x0
	DCB	0x0					; `string'

  00000			 AREA	 |.rdata|, DATA, READONLY
|??_C@_1KA@BCHAEEBE@?$AA?5?$AA?5?$AA?9?$AAc?$AA?5?$AA?5?$AA?8?$AAd?$AAi?$AAr?$AAn?$AAa?$AAm?$AAe?$AA?8?$AA?5?$AA?5?$AA?5?$AA?5?$AAC?$AAr?$AAe?$AAa?$AAt?$AAe?$AA?5?$AAa?$AA?5?$AAf?$AAi?$AAl?$AAe@| DCB " "
	DCB	0x0, " ", 0x0, "-", 0x0, "c", 0x0, " ", 0x0, " ", 0x0, "'"
	DCB	0x0, "d", 0x0, "i", 0x0, "r", 0x0, "n", 0x0, "a", 0x0, "m"
	DCB	0x0, "e", 0x0, "'", 0x0, " ", 0x0, " ", 0x0, " ", 0x0, " "
	DCB	0x0, "C", 0x0, "r", 0x0, "e", 0x0, "a", 0x0, "t", 0x0, "e"
	DCB	0x0, " ", 0x0, "a", 0x0, " ", 0x0, "f", 0x0, "i", 0x0, "l"
	DCB	0x0, "e", 0x0, " ", 0x0, "i", 0x0, "n", 0x0, " ", 0x0, "t"
	DCB	0x0, "h", 0x0, "e", 0x0, " ", 0x0, "n", 0x0, "a", 0x0, "m"
	DCB	0x0, "e", 0x0, "d", 0x0, " ", 0x0, "d", 0x0, "i", 0x0, "r"
	DCB	0x0, "e", 0x0, "c", 0x0, "t", 0x0, "o", 0x0, "r", 0x0, "y"
	DCB	0x0, " ", 0x0, "a", 0x0, "n", 0x0, "d", 0x0, " ", 0x0, "v"
	DCB	0x0, "e", 0x0, "r", 0x0, "i", 0x0, "f", 0x0, "y", 0x0, " "
	DCB	0x0, "i", 0x0, "t", 0x0, "s", 0x0, " ", 0x0, "c", 0x0, "o"
	DCB	0x0, "n", 0x0, "t", 0x0, "e", 0x0, "n", 0x0, "t", 0x0, "s"
	DCB	0x0, 0x0, 0x0				; `string'

  00000			 AREA	 |.rdata|, DATA, READONLY
|??_C@_1HA@DABILAHD@?$AA?5?$AA?5?$AA?5?$AA?5?$AA?5?$AA?5?$AA?5?$AA?5?$AA?5?$AA?5?$AA?5?$AA?5?$AA?5?$AA?5?$AA?5?$AA?5?$AA?5?$AA?5?$AA?5?$AA?5?$AA?$CI?$AAd?$AAo?$AA?5?$AAn?$AAo?$AAt?$AA?5?$AAi?$AAn?$AAc?$AAl@| DCB " "
	DCB	0x0, " ", 0x0, " ", 0x0, " ", 0x0, " ", 0x0, " ", 0x0, " "
	DCB	0x0, " ", 0x0, " ", 0x0, " ", 0x0, " ", 0x0, " ", 0x0, " "
	DCB	0x0, " ", 0x0, " ", 0x0, " ", 0x0, " ", 0x0, " ", 0x0, " "
	DCB	0x0, " ", 0x0, "(", 0x0, "d", 0x0, "o", 0x0, " ", 0x0, "n"
	DCB	0x0, "o", 0x0, "t", 0x0, " ", 0x0, "i", 0x0, "n", 0x0, "c"
	DCB	0x0, "l", 0x0, "u", 0x0, "d", 0x0, "e", 0x0, " ", 0x0, "t"
	DCB	0x0, "r", 0x0, "a", 0x0, "i", 0x0, "l", 0x0, "i", 0x0, "n"
	DCB	0x0, "g", 0x0, " ", 0x0, "b", 0x0, "a", 0x0, "c", 0x0, "k"
	DCB	0x0, "s", 0x0, "l", 0x0, "a", 0x0, "s", 0x0, "h", 0x0, ")"
	DCB	0x0, 0x0, 0x0				; `string'

  00000			 AREA	 |.rdata|, DATA, READONLY
|??_C@_1HC@NPCFPCMI@?$AA?5?$AA?5?$AA?9?$AAn?$AA?5?$AAN?$AAu?$AAm?$AAT?$AAe?$AAs?$AAt?$AAs?$AA?5?$AA?5?$AA?5?$AA?5?$AA?5?$AA?5?$AAN?$AAu?$AAm?$AAb?$AAe?$AAr?$AA?5?$AAo?$AAf?$AA?5?$AAt?$AAi?$AAm@| DCB " "
	DCB	0x0, " ", 0x0, "-", 0x0, "n", 0x0, " ", 0x0, "N", 0x0, "u"
	DCB	0x0, "m", 0x0, "T", 0x0, "e", 0x0, "s", 0x0, "t", 0x0, "s"
	DCB	0x0, " ", 0x0, " ", 0x0, " ", 0x0, " ", 0x0, " ", 0x0, " "
	DCB	0x0, "N", 0x0, "u", 0x0, "m", 0x0, "b", 0x0, "e", 0x0, "r"
	DCB	0x0, " ", 0x0, "o", 0x0, "f", 0x0, " ", 0x0, "t", 0x0, "i"
	DCB	0x0, "m", 0x0, "e", 0x0, "s", 0x0, " ", 0x0, "e", 0x0, "a"
	DCB	0x0, "c", 0x0, "h", 0x0, " ", 0x0, "t", 0x0, "e", 0x0, "s"
	DCB	0x0, "t", 0x0, " ", 0x0, "i", 0x0, "s", 0x0, " ", 0x0, "r"
	DCB	0x0, "e", 0x0, "p", 0x0, "e", 0x0, "a", 0x0, "t", 0x0, "e"
	DCB	0x0, "d", 0x0, 0x0, 0x0			; `string'

  00000			 AREA	 |.rdata|, DATA, READONLY
|??_C@_1IE@EIAMKBOF@?$AA?5?$AA?5?$AA?9?$AAs?$AA?5?$AAF?$AAi?$AAl?$AAe?$AAS?$AAi?$AAz?$AAe?$AA?5?$AA?5?$AA?5?$AA?5?$AA?5?$AA?5?$AAS?$AAi?$AAz?$AAe?$AA?5?$AAo?$AAf?$AA?5?$AAf?$AAi?$AAl?$AAe?$AA?$CI@| DCB " "
	DCB	0x0, " ", 0x0, "-", 0x0, "s", 0x0, " ", 0x0, "F", 0x0, "i"
	DCB	0x0, "l", 0x0, "e", 0x0, "S", 0x0, "i", 0x0, "z", 0x0, "e"
	DCB	0x0, " ", 0x0, " ", 0x0, " ", 0x0, " ", 0x0, " ", 0x0, " "
	DCB	0x0, "S", 0x0, "i", 0x0, "z", 0x0, "e", 0x0, " ", 0x0, "o"
	DCB	0x0, "f", 0x0, " ", 0x0, "f", 0x0, "i", 0x0, "l", 0x0, "e"
	DCB	0x0, "(", 0x0, "s", 0x0, ")", 0x0, " ", 0x0, "(", 0x0, "i"
	DCB	0x0, "n", 0x0, " ", 0x0, "M", 0x0, "B", 0x0, ")", 0x0, " "
	DCB	0x0, "t", 0x0, "o", 0x0, " ", 0x0, "c", 0x0, "r", 0x0, "e"
	DCB	0x0, "a", 0x0, "t", 0x0, "e", 0x0, " ", 0x0, "d", 0x0, "u"
	DCB	0x0, "r", 0x0, "i", 0x0, "n", 0x0, "g", 0x0, " ", 0x0, "t"
	DCB	0x0, "e", 0x0, "s", 0x0, "t", 0x0, "s", 0x0, 0x0, 0x0 ; `string'

  00000			 AREA	 |.rdata|, DATA, READONLY
|??_C@_1HE@EOBALKKN@?$AA?5?$AA?5?$AA?5?$AA?5?$AA?5?$AA?5?$AA?5?$AA?5?$AA?5?$AA?5?$AA?5?$AA?5?$AA?5?$AA?5?$AA?5?$AA?5?$AA?5?$AA?5?$AA?5?$AA?5?$AA?$CI?$AAv?$AAa?$AAl?$AAi?$AAd?$AA?5?$AAr?$AAa?$AAn?$AAg?$AAe@| DCB " "
	DCB	0x0, " ", 0x0, " ", 0x0, " ", 0x0, " ", 0x0, " ", 0x0, " "
	DCB	0x0, " ", 0x0, " ", 0x0, " ", 0x0, " ", 0x0, " ", 0x0, " "
	DCB	0x0, " ", 0x0, " ", 0x0, " ", 0x0, " ", 0x0, " ", 0x0, " "
	DCB	0x0, " ", 0x0, "(", 0x0, "v", 0x0, "a", 0x0, "l", 0x0, "i"
	DCB	0x0, "d", 0x0, " ", 0x0, "r", 0x0, "a", 0x0, "n", 0x0, "g"
	DCB	0x0, "e", 0x0, " ", 0x0, "=", 0x0, " ", 0x0, "%", 0x0, "d"
	DCB	0x0, " ", 0x0, "-", 0x0, " ", 0x0, "%", 0x0, "d", 0x0, ","
	DCB	0x0, " ", 0x0, "d", 0x0, "e", 0x0, "f", 0x0, "a", 0x0, "u"
	DCB	0x0, "l", 0x0, "t", 0x0, " ", 0x0, "=", 0x0, " ", 0x0, "%"
	DCB	0x0, "d", 0x0, ")", 0x0, 0x0, 0x0	; `string'

  00000			 AREA	 |.rdata|, DATA, READONLY
|??_C@_1JI@GOPDNCGM@?$AA?5?$AA?5?$AA?9?$AAb?$AA?5?$AAB?$AAu?$AAf?$AAf?$AAe?$AAr?$AAS?$AAi?$AAz?$AAe?$AA?5?$AA?5?$AA?5?$AA?5?$AAS?$AAi?$AAz?$AAe?$AA?5?$AAo?$AAf?$AA?5?$AAd?$AAa?$AAt?$AAa?$AA?5@| DCB " "
	DCB	0x0, " ", 0x0, "-", 0x0, "b", 0x0, " ", 0x0, "B", 0x0, "u"
	DCB	0x0, "f", 0x0, "f", 0x0, "e", 0x0, "r", 0x0, "S", 0x0, "i"
	DCB	0x0, "z", 0x0, "e", 0x0, " ", 0x0, " ", 0x0, " ", 0x0, " "
	DCB	0x0, "S", 0x0, "i", 0x0, "z", 0x0, "e", 0x0, " ", 0x0, "o"
	DCB	0x0, "f", 0x0, " ", 0x0, "d", 0x0, "a", 0x0, "t", 0x0, "a"
	DCB	0x0, " ", 0x0, "b", 0x0, "u", 0x0, "f", 0x0, "f", 0x0, "e"
	DCB	0x0, "r", 0x0, " ", 0x0, "(", 0x0, "i", 0x0, "n", 0x0, " "
	DCB	0x0, "b", 0x0, "y", 0x0, "t", 0x0, "e", 0x0, "s", 0x0, ")"
	DCB	0x0, " ", 0x0, "t", 0x0, "o", 0x0, " ", 0x0, "u", 0x0, "s"
	DCB	0x0, "e", 0x0, " ", 0x0, "d", 0x0, "u", 0x0, "r", 0x0, "i"
	DCB	0x0, "n", 0x0, "g", 0x0, " ", 0x0, "c", 0x0, "u", 0x0, "s"
	DCB	0x0, "t", 0x0, "o", 0x0, "m", 0x0, " ", 0x0, "t", 0x0, "e"
	DCB	0x0, "s", 0x0, "t", 0x0, 0x0, 0x0	; `string'

  00000			 AREA	 |.rdata|, DATA, READONLY
|??_C@_1JA@DENDPHNC@?$AA?5?$AA?5?$AA?5?$AA?5?$AA?5?$AA?5?$AA?5?$AA?5?$AA?5?$AA?5?$AA?5?$AA?5?$AA?5?$AA?5?$AA?5?$AA?5?$AA?5?$AA?5?$AA?5?$AA?5?$AA?$CI?$AAv?$AAa?$AAl?$AAi?$AAd?$AA?5?$AAr?$AAa?$AAn?$AAg?$AAe@| DCB " "
	DCB	0x0, " ", 0x0, " ", 0x0, " ", 0x0, " ", 0x0, " ", 0x0, " "
	DCB	0x0, " ", 0x0, " ", 0x0, " ", 0x0, " ", 0x0, " ", 0x0, " "
	DCB	0x0, " ", 0x0, " ", 0x0, " ", 0x0, " ", 0x0, " ", 0x0, " "
	DCB	0x0, " ", 0x0, "(", 0x0, "v", 0x0, "a", 0x0, "l", 0x0, "i"
	DCB	0x0, "d", 0x0, " ", 0x0, "r", 0x0, "a", 0x0, "n", 0x0, "g"
	DCB	0x0, "e", 0x0, " ", 0x0, "=", 0x0, " ", 0x0, "%", 0x0, "d"
	DCB	0x0, " ", 0x0, "-", 0x0, " ", 0x0, "%", 0x0, "d", 0x0, ","
	DCB	0x0, " ", 0x0, "d", 0x0, "e", 0x0, "f", 0x0, "a", 0x0, "u"
	DCB	0x0, "l", 0x0, "t", 0x0, " ", 0x0, "=", 0x0, " ", 0x0, "s"
	DCB	0x0, "k", 0x0, "i", 0x0, "p", 0x0, " ", 0x0, "c", 0x0, "u"
	DCB	0x0, "s", 0x0, "t", 0x0, "o", 0x0, "m", 0x0, " ", 0x0, "t"
	DCB	0x0, "e", 0x0, "s", 0x0, "t", 0x0, ")", 0x0, 0x0, 0x0 ; `string'

  00000			 AREA	 |.rdata|, DATA, READONLY
|??_C@_1EK@KDDAPFNH@?$AA?5?$AA?5?$AA?9?$AAa?$AA?5?$AA?5?$AA?5?$AA?5?$AA?5?$AA?5?$AA?5?$AA?5?$AA?5?$AA?5?$AA?5?$AA?5?$AA?5?$AA?5?$AA?5?$AAP?$AAe?$AAr?$AAf?$AAo?$AAr?$AAm?$AA?5?$AAa?$AAl?$AAl?$AA?5?$AAt@| DCB " "
	DCB	0x0, " ", 0x0, "-", 0x0, "a", 0x0, " ", 0x0, " ", 0x0, " "
	DCB	0x0, " ", 0x0, " ", 0x0, " ", 0x0, " ", 0x0, " ", 0x0, " "
	DCB	0x0, " ", 0x0, " ", 0x0, " ", 0x0, " ", 0x0, " ", 0x0, " "
	DCB	0x0, "P", 0x0, "e", 0x0, "r", 0x0, "f", 0x0, "o", 0x0, "r"
	DCB	0x0, "m", 0x0, " ", 0x0, "a", 0x0, "l", 0x0, "l", 0x0, " "
	DCB	0x0, "t", 0x0, "e", 0x0, "s", 0x0, "t", 0x0, "s", 0x0, 0x0
	DCB	0x0					; `string'

  00000			 AREA	 |.rdata|, DATA, READONLY
|??_C@_1IO@PDMHDGGO@?$AA?5?$AA?5?$AA?5?$AA?5?$AA?5?$AA?5?$AA?5?$AA?5?$AA?5?$AA?5?$AA?5?$AA?5?$AA?5?$AA?5?$AA?5?$AA?5?$AA?5?$AA?5?$AA?5?$AA?5?$AA?$CI?$AAd?$AAe?$AAf?$AAa?$AAu?$AAl?$AAt?$AA?5?$AA?$DN?$AA?5?$AAu@| DCB " "
	DCB	0x0, " ", 0x0, " ", 0x0, " ", 0x0, " ", 0x0, " ", 0x0, " "
	DCB	0x0, " ", 0x0, " ", 0x0, " ", 0x0, " ", 0x0, " ", 0x0, " "
	DCB	0x0, " ", 0x0, " ", 0x0, " ", 0x0, " ", 0x0, " ", 0x0, " "
	DCB	0x0, " ", 0x0, "(", 0x0, "d", 0x0, "e", 0x0, "f", 0x0, "a"
	DCB	0x0, "u", 0x0, "l", 0x0, "t", 0x0, " ", 0x0, "=", 0x0, " "
	DCB	0x0, "u", 0x0, "s", 0x0, "e", 0x0, " ", 0x0, "2", 0x0, "5"
	DCB	0x0, "6", 0x0, "B", 0x0, ",", 0x0, " ", 0x0, "8", 0x0, "K"
	DCB	0x0, " ", 0x0, "a", 0x0, "n", 0x0, "d", 0x0, " ", 0x0, "6"
	DCB	0x0, "4", 0x0, "K", 0x0, " ", 0x0, "d", 0x0, "a", 0x0, "t"
	DCB	0x0, "a", 0x0, " ", 0x0, "b", 0x0, "u", 0x0, "f", 0x0, "f"
	DCB	0x0, "e", 0x0, "r", 0x0, "s", 0x0, " ", 0x0, "o", 0x0, "n"
	DCB	0x0, "l", 0x0, "y", 0x0, ")", 0x0, 0x0, 0x0 ; `string'

  00000			 AREA	 |.rdata|, DATA, READONLY
|??_C@_1GO@LLNJJLLC@?$AA?5?$AA?5?$AA?9?$AAn?$AAo?$AAc?$AAa?$AAc?$AAh?$AAe?$AA?5?$AA?5?$AA?5?$AA?5?$AA?5?$AA?5?$AA?5?$AA?5?$AA?5?$AAA?$AAc?$AAc?$AAe?$AAs?$AAs?$AA?5?$AAf?$AAi?$AAl?$AAe?$AAs?$AA?5@| DCB " "
	DCB	0x0, " ", 0x0, "-", 0x0, "n", 0x0, "o", 0x0, "c", 0x0, "a"
	DCB	0x0, "c", 0x0, "h", 0x0, "e", 0x0, " ", 0x0, " ", 0x0, " "
	DCB	0x0, " ", 0x0, " ", 0x0, " ", 0x0, " ", 0x0, " ", 0x0, " "
	DCB	0x0, "A", 0x0, "c", 0x0, "c", 0x0, "e", 0x0, "s", 0x0, "s"
	DCB	0x0, " ", 0x0, "f", 0x0, "i", 0x0, "l", 0x0, "e", 0x0, "s"
	DCB	0x0, " ", 0x0, "w", 0x0, "i", 0x0, "t", 0x0, "h", 0x0, " "
	DCB	0x0, "n", 0x0, "o", 0x0, " ", 0x0, "s", 0x0, "y", 0x0, "s"
	DCB	0x0, "t", 0x0, "e", 0x0, "m", 0x0, " ", 0x0, "c", 0x0, "a"
	DCB	0x0, "c", 0x0, "h", 0x0, "i", 0x0, "n", 0x0, "g", 0x0, 0x0
	DCB	0x0					; `string'

  00000			 AREA	 |.rdata|, DATA, READONLY
|??_C@_1GO@PGHOACMK@?$AA?5?$AA?5?$AA?5?$AA?5?$AA?5?$AA?5?$AA?5?$AA?5?$AA?5?$AA?5?$AA?5?$AA?5?$AA?5?$AA?5?$AA?5?$AA?5?$AA?5?$AA?5?$AA?5?$AA?5?$AA?$CI?$AAd?$AAe?$AAf?$AAa?$AAu?$AAl?$AAt?$AA?5?$AA?$DN?$AA?5?$AAs@| DCB " "
	DCB	0x0, " ", 0x0, " ", 0x0, " ", 0x0, " ", 0x0, " ", 0x0, " "
	DCB	0x0, " ", 0x0, " ", 0x0, " ", 0x0, " ", 0x0, " ", 0x0, " "
	DCB	0x0, " ", 0x0, " ", 0x0, " ", 0x0, " ", 0x0, " ", 0x0, " "
	DCB	0x0, " ", 0x0, "(", 0x0, "d", 0x0, "e", 0x0, "f", 0x0, "a"
	DCB	0x0, "u", 0x0, "l", 0x0, "t", 0x0, " ", 0x0, "=", 0x0, " "
	DCB	0x0, "s", 0x0, "y", 0x0, "s", 0x0, "t", 0x0, "e", 0x0, "m"
	DCB	0x0, " ", 0x0, "c", 0x0, "a", 0x0, "c", 0x0, "h", 0x0, "i"
	DCB	0x0, "n", 0x0, "g", 0x0, " ", 0x0, "e", 0x0, "n", 0x0, "a"
	DCB	0x0, "b", 0x0, "l", 0x0, "e", 0x0, "d", 0x0, ")", 0x0, 0x0
	DCB	0x0					; `string'

  00000			 AREA	 |.rdata|, DATA, READONLY
|??_C@_1HA@MCOJHCAI@?$AA?5?$AA?5?$AA?9?$AAw?$AAr?$AAi?$AAt?$AAe?$AAt?$AAh?$AAr?$AAu?$AA?5?$AA?5?$AA?5?$AA?5?$AA?5?$AA?5?$AA?5?$AAW?$AAr?$AAi?$AAt?$AAe?$AA?5?$AAt?$AAh?$AAr?$AAo?$AAu?$AAg?$AAh@| DCB " "
	DCB	0x0, " ", 0x0, "-", 0x0, "w", 0x0, "r", 0x0, "i", 0x0, "t"
	DCB	0x0, "e", 0x0, "t", 0x0, "h", 0x0, "r", 0x0, "u", 0x0, " "
	DCB	0x0, " ", 0x0, " ", 0x0, " ", 0x0, " ", 0x0, " ", 0x0, " "
	DCB	0x0, "W", 0x0, "r", 0x0, "i", 0x0, "t", 0x0, "e", 0x0, " "
	DCB	0x0, "t", 0x0, "h", 0x0, "r", 0x0, "o", 0x0, "u", 0x0, "g"
	DCB	0x0, "h", 0x0, " ", 0x0, "a", 0x0, "n", 0x0, "y", 0x0, " "
	DCB	0x0, "i", 0x0, "n", 0x0, "t", 0x0, "e", 0x0, "r", 0x0, "m"
	DCB	0x0, "e", 0x0, "d", 0x0, "i", 0x0, "a", 0x0, "t", 0x0, "e"
	DCB	0x0, " ", 0x0, "c", 0x0, "a", 0x0, "c", 0x0, "h", 0x0, "e"
	DCB	0x0, 0x0, 0x0				; `string'

  00000			 AREA	 |.rdata|, DATA, READONLY
|??_C@_1GI@KAIOBLAK@?$AA?5?$AA?5?$AA?5?$AA?5?$AA?5?$AA?5?$AA?5?$AA?5?$AA?5?$AA?5?$AA?5?$AA?5?$AA?5?$AA?5?$AA?5?$AA?5?$AA?5?$AA?5?$AA?5?$AA?5?$AA?$CI?$AAd?$AAe?$AAf?$AAa?$AAu?$AAl?$AAt?$AA?5?$AA?$DN?$AA?5?$AAL@| DCB " "
	DCB	0x0, " ", 0x0, " ", 0x0, " ", 0x0, " ", 0x0, " ", 0x0, " "
	DCB	0x0, " ", 0x0, " ", 0x0, " ", 0x0, " ", 0x0, " ", 0x0, " "
	DCB	0x0, " ", 0x0, " ", 0x0, " ", 0x0, " ", 0x0, " ", 0x0, " "
	DCB	0x0, " ", 0x0, "(", 0x0, "d", 0x0, "e", 0x0, "f", 0x0, "a"
	DCB	0x0, "u", 0x0, "l", 0x0, "t", 0x0, " ", 0x0, "=", 0x0, " "
	DCB	0x0, "L", 0x0, "a", 0x0, "z", 0x0, "y", 0x0, " ", 0x0, "f"
	DCB	0x0, "l", 0x0, "u", 0x0, "s", 0x0, "h", 0x0, " ", 0x0, "p"
	DCB	0x0, "o", 0x0, "s", 0x0, "s", 0x0, "i", 0x0, "b", 0x0, "l"
	DCB	0x0, "e", 0x0, ")", 0x0, 0x0, 0x0	; `string'

  00000			 AREA	 |.rdata|, DATA, READONLY
|??_C@_1HA@EDPBOLHD@?$AA?5?$AA?5?$AA?9?$AAf?$AAl?$AAu?$AAs?$AAh?$AAa?$AAl?$AAl?$AA?5?$AA?5?$AA?5?$AA?5?$AA?5?$AA?5?$AA?5?$AA?5?$AAF?$AAl?$AAu?$AAs?$AAh?$AA?5?$AAf?$AAi?$AAl?$AAe?$AA?5?$AAb?$AAu@| DCB " "
	DCB	0x0, " ", 0x0, "-", 0x0, "f", 0x0, "l", 0x0, "u", 0x0, "s"
	DCB	0x0, "h", 0x0, "a", 0x0, "l", 0x0, "l", 0x0, " ", 0x0, " "
	DCB	0x0, " ", 0x0, " ", 0x0, " ", 0x0, " ", 0x0, " ", 0x0, " "
	DCB	0x0, "F", 0x0, "l", 0x0, "u", 0x0, "s", 0x0, "h", 0x0, " "
	DCB	0x0, "f", 0x0, "i", 0x0, "l", 0x0, "e", 0x0, " ", 0x0, "b"
	DCB	0x0, "u", 0x0, "f", 0x0, "f", 0x0, "e", 0x0, "r", 0x0, "s"
	DCB	0x0, " ", 0x0, "a", 0x0, "f", 0x0, "t", 0x0, "e", 0x0, "r"
	DCB	0x0, " ", 0x0, "e", 0x0, "v", 0x0, "e", 0x0, "r", 0x0, "y"
	DCB	0x0, " ", 0x0, "w", 0x0, "r", 0x0, "i", 0x0, "t", 0x0, "e"
	DCB	0x0, 0x0, 0x0				; `string'

  00000			 AREA	 |.rdata|, DATA, READONLY
|??_C@_1HE@NPHODCBG@?$AA?5?$AA?5?$AA?9?$AAf?$AAl?$AAu?$AAs?$AAh?$AAe?$AAn?$AAd?$AA?5?$AA?5?$AA?5?$AA?5?$AA?5?$AA?5?$AA?5?$AA?5?$AAF?$AAl?$AAu?$AAs?$AAh?$AA?5?$AAf?$AAi?$AAl?$AAe?$AA?5?$AAb?$AAu@| DCB " "
	DCB	0x0, " ", 0x0, "-", 0x0, "f", 0x0, "l", 0x0, "u", 0x0, "s"
	DCB	0x0, "h", 0x0, "e", 0x0, "n", 0x0, "d", 0x0, " ", 0x0, " "
	DCB	0x0, " ", 0x0, " ", 0x0, " ", 0x0, " ", 0x0, " ", 0x0, " "
	DCB	0x0, "F", 0x0, "l", 0x0, "u", 0x0, "s", 0x0, "h", 0x0, " "
	DCB	0x0, "f", 0x0, "i", 0x0, "l", 0x0, "e", 0x0, " ", 0x0, "b"
	DCB	0x0, "u", 0x0, "f", 0x0, "f", 0x0, "e", 0x0, "r", 0x0, "s"
	DCB	0x0, " ", 0x0, "b", 0x0, "e", 0x0, "f", 0x0, "o", 0x0, "r"
	DCB	0x0, "e", 0x0, " ", 0x0, "c", 0x0, "l", 0x0, "o", 0x0, "s"
	DCB	0x0, "i", 0x0, "n", 0x0, "g", 0x0, " ", 0x0, "f", 0x0, "i"
	DCB	0x0, "l", 0x0, "e", 0x0, 0x0, 0x0	; `string'

  00000			 AREA	 |.rdata|, DATA, READONLY
|??_C@_1FM@GMBABNPH@?$AA?5?$AA?5?$AA?5?$AA?5?$AA?5?$AA?5?$AA?5?$AA?5?$AA?5?$AA?5?$AA?5?$AA?5?$AA?5?$AA?5?$AA?5?$AA?5?$AA?5?$AA?5?$AA?5?$AA?5?$AA?$CI?$AAd?$AAe?$AAf?$AAa?$AAu?$AAl?$AAt?$AA?5?$AA?$DN?$AA?5?$AAN@| DCB " "
	DCB	0x0, " ", 0x0, " ", 0x0, " ", 0x0, " ", 0x0, " ", 0x0, " "
	DCB	0x0, " ", 0x0, " ", 0x0, " ", 0x0, " ", 0x0, " ", 0x0, " "
	DCB	0x0, " ", 0x0, " ", 0x0, " ", 0x0, " ", 0x0, " ", 0x0, " "
	DCB	0x0, " ", 0x0, "(", 0x0, "d", 0x0, "e", 0x0, "f", 0x0, "a"
	DCB	0x0, "u", 0x0, "l", 0x0, "t", 0x0, " ", 0x0, "=", 0x0, " "
	DCB	0x0, "N", 0x0, "o", 0x0, "t", 0x0, " ", 0x0, "p", 0x0, "e"
	DCB	0x0, "r", 0x0, "f", 0x0, "o", 0x0, "r", 0x0, "m", 0x0, "e"
	DCB	0x0, "d", 0x0, ")", 0x0, 0x0, 0x0	; `string'

  00000			 AREA	 |.rdata|, DATA, READONLY
|??_C@_1EE@BOMKGJIB@?$AA?5?$AA?5?$AA?9?$AAv?$AA?5?$AA?5?$AA?5?$AA?5?$AA?5?$AA?5?$AA?5?$AA?5?$AA?5?$AA?5?$AA?5?$AA?5?$AA?5?$AA?5?$AA?5?$AAV?$AAe?$AAr?$AAb?$AAo?$AAs?$AAe?$AA?5?$AAo?$AAu?$AAt?$AAp?$AAu@| DCB " "
	DCB	0x0, " ", 0x0, "-", 0x0, "v", 0x0, " ", 0x0, " ", 0x0, " "
	DCB	0x0, " ", 0x0, " ", 0x0, " ", 0x0, " ", 0x0, " ", 0x0, " "
	DCB	0x0, " ", 0x0, " ", 0x0, " ", 0x0, " ", 0x0, " ", 0x0, " "
	DCB	0x0, "V", 0x0, "e", 0x0, "r", 0x0, "b", 0x0, "o", 0x0, "s"
	DCB	0x0, "e", 0x0, " ", 0x0, "o", 0x0, "u", 0x0, "t", 0x0, "p"
	DCB	0x0, "u", 0x0, "t", 0x0, 0x0, 0x0	; `string'

  00000			 AREA	 |.rdata|, DATA, READONLY
|??_C@_1GC@ICMDADJM@?$AA?5?$AA?5?$AA?9?$AAh?$AA?5?$AA?5?$AA?5?$AA?5?$AA?5?$AA?5?$AA?5?$AA?5?$AA?5?$AA?5?$AA?5?$AA?5?$AA?5?$AA?5?$AA?5?$AAS?$AAh?$AAo?$AAw?$AA?5?$AAc?$AAo?$AAm?$AAm?$AAa?$AAn?$AAd?$AA?5@| DCB " "
	DCB	0x0, " ", 0x0, "-", 0x0, "h", 0x0, " ", 0x0, " ", 0x0, " "
	DCB	0x0, " ", 0x0, " ", 0x0, " ", 0x0, " ", 0x0, " ", 0x0, " "
	DCB	0x0, " ", 0x0, " ", 0x0, " ", 0x0, " ", 0x0, " ", 0x0, " "
	DCB	0x0, "S", 0x0, "h", 0x0, "o", 0x0, "w", 0x0, " ", 0x0, "c"
	DCB	0x0, "o", 0x0, "m", 0x0, "m", 0x0, "a", 0x0, "n", 0x0, "d"
	DCB	0x0, " ", 0x0, "l", 0x0, "i", 0x0, "n", 0x0, "e", 0x0, " "
	DCB	0x0, "o", 0x0, "p", 0x0, "t", 0x0, "i", 0x0, "o", 0x0, "n"
	DCB	0x0, " ", 0x0, "h", 0x0, "e", 0x0, "l", 0x0, "p", 0x0, 0x0
	DCB	0x0					; `string'

  00000			 AREA	 |.rdata|, DATA, READONLY
|??_C@_1BE@PJNFGBCE@?$AAE?$AAx?$AAa?$AAm?$AAp?$AAl?$AAe?$AAs?$AA?3?$AA?$AA@| DCB "E"
	DCB	0x0, "x", 0x0, "a", 0x0, "m", 0x0, "p", 0x0, "l", 0x0, "e"
	DCB	0x0, "s", 0x0, ":", 0x0, 0x0, 0x0	; `string'

  00000			 AREA	 |.rdata|, DATA, READONLY
|??_C@_1DE@PGBKEMMP@?$AA?5?$AA?5?$AA?9?$AAr?$AA?5?$AA?8?$AA?2?$AAt?$AAe?$AAs?$AAt?$AA?4?$AAd?$AAa?$AAt?$AA?8?$AA?5?$AA?9?$AAn?$AA?5?$AA1?$AA0?$AA?5?$AA?9?$AAv?$AA?$AA@| DCB " "
	DCB	0x0, " ", 0x0, "-", 0x0, "r", 0x0, " ", 0x0, "'", 0x0, "\\"
	DCB	0x0, "t", 0x0, "e", 0x0, "s", 0x0, "t", 0x0, ".", 0x0, "d"
	DCB	0x0, "a", 0x0, "t", 0x0, "'", 0x0, " ", 0x0, "-", 0x0, "n"
	DCB	0x0, " ", 0x0, "1", 0x0, "0", 0x0, " ", 0x0, "-", 0x0, "v"
	DCB	0x0, 0x0, 0x0				; `string'

  00000			 AREA	 |.rdata|, DATA, READONLY
|??_C@_1FI@OFNMGECA@?$AA?5?$AA?5?$AA?9?$AAw?$AA?5?$AA?8?$AA?2?$AAS?$AAt?$AAo?$AAr?$AAa?$AAg?$AAe?$AA?5?$AAC?$AAa?$AAr?$AAd?$AA?2?$AAt?$AAe?$AAs?$AAt?$AA?4?$AAd?$AAa?$AAt?$AA?8?$AA?5?$AA?9?$AAs@| DCB " "
	DCB	0x0, " ", 0x0, "-", 0x0, "w", 0x0, " ", 0x0, "'", 0x0, "\\"
	DCB	0x0, "S", 0x0, "t", 0x0, "o", 0x0, "r", 0x0, "a", 0x0, "g"
	DCB	0x0, "e", 0x0, " ", 0x0, "C", 0x0, "a", 0x0, "r", 0x0, "d"
	DCB	0x0, "\\", 0x0, "t", 0x0, "e", 0x0, "s", 0x0, "t", 0x0, "."
	DCB	0x0, "d", 0x0, "a", 0x0, "t", 0x0, "'", 0x0, " ", 0x0, "-"
	DCB	0x0, "s", 0x0, " ", 0x0, "4", 0x0, " ", 0x0, "-", 0x0, "n"
	DCB	0x0, "o", 0x0, "c", 0x0, "a", 0x0, "c", 0x0, "h", 0x0, "e"
	DCB	0x0, 0x0, 0x0				; `string'

  00000			 AREA	 |.rdata|, DATA, READONLY
|??_C@_1FO@BNJCFNKK@?$AA?5?$AA?5?$AA?9?$AAw?$AAr?$AA?5?$AA?8?$AA?2?$AAH?$AAa?$AAr?$AAd?$AA?5?$AAD?$AAi?$AAs?$AAk?$AA?2?$AAt?$AAe?$AAs?$AAt?$AA?4?$AAd?$AAa?$AAt?$AA?8?$AA?5?$AA?9?$AAb?$AA?5?$AA1@| DCB " "
	DCB	0x0, " ", 0x0, "-", 0x0, "w", 0x0, "r", 0x0, " ", 0x0, "'"
	DCB	0x0, "\\", 0x0, "H", 0x0, "a", 0x0, "r", 0x0, "d", 0x0, " "
	DCB	0x0, "D", 0x0, "i", 0x0, "s", 0x0, "k", 0x0, "\\", 0x0, "t"
	DCB	0x0, "e", 0x0, "s", 0x0, "t", 0x0, ".", 0x0, "d", 0x0, "a"
	DCB	0x0, "t", 0x0, "'", 0x0, " ", 0x0, "-", 0x0, "b", 0x0, " "
	DCB	0x0, "1", 0x0, "5", 0x0, "0", 0x0, "0", 0x0, "0", 0x0, " "
	DCB	0x0, "-", 0x0, "f", 0x0, "l", 0x0, "u", 0x0, "s", 0x0, "h"
	DCB	0x0, "a", 0x0, "l", 0x0, "l", 0x0, 0x0, 0x0 ; `string'

  00000			 AREA	 |.rdata|, DATA, READONLY
|??_C@_1FA@IBCLAGCC@?$AA?5?$AA?5?$AA?9?$AAc?$AA?5?$AA?8?$AA?2?$AAN?$AAA?$AAN?$AAD?$AA?5?$AAF?$AAl?$AAa?$AAs?$AAh?$AA?8?$AA?5?$AA?9?$AAs?$AA?5?$AA1?$AA?5?$AA?9?$AAn?$AA?5?$AA3?$AA?5?$AA?9?$AAw?$AAr@| DCB " "
	DCB	0x0, " ", 0x0, "-", 0x0, "c", 0x0, " ", 0x0, "'", 0x0, "\\"
	DCB	0x0, "N", 0x0, "A", 0x0, "N", 0x0, "D", 0x0, " ", 0x0, "F"
	DCB	0x0, "l", 0x0, "a", 0x0, "s", 0x0, "h", 0x0, "'", 0x0, " "
	DCB	0x0, "-", 0x0, "s", 0x0, " ", 0x0, "1", 0x0, " ", 0x0, "-"
	DCB	0x0, "n", 0x0, " ", 0x0, "3", 0x0, " ", 0x0, "-", 0x0, "w"
	DCB	0x0, "r", 0x0, "i", 0x0, "t", 0x0, "e", 0x0, "t", 0x0, "h"
	DCB	0x0, "r", 0x0, "u", 0x0, 0x0, 0x0	; `string'

  00000			 AREA	 |.rdata|, DATA, READONLY
|??_C@_1O@ILCJDLKH@?$AAN?$AAo?$AAt?$AAe?$AAs?$AA?3?$AA?$AA@| DCB "N", 0x0
	DCB	"o", 0x0, "t", 0x0, "e", 0x0, "s", 0x0, ":", 0x0, 0x0, 0x0 ; `string'

  00000			 AREA	 |.rdata|, DATA, READONLY
|??_C@_1JK@PECHHOEG@?$AA?5?$AA?5?$AA?$CK?$AA?5?$AAW?$AAh?$AAe?$AAn?$AA?5?$AAt?$AAe?$AAs?$AAt?$AAi?$AAn?$AAg?$AA?5?$AAt?$AAh?$AAr?$AAo?$AAu?$AAg?$AAh?$AAp?$AAu?$AAt?$AA?5?$AAo?$AAn?$AA?5?$AAa@| DCB " "
	DCB	0x0, " ", 0x0, "*", 0x0, " ", 0x0, "W", 0x0, "h", 0x0, "e"
	DCB	0x0, "n", 0x0, " ", 0x0, "t", 0x0, "e", 0x0, "s", 0x0, "t"
	DCB	0x0, "i", 0x0, "n", 0x0, "g", 0x0, " ", 0x0, "t", 0x0, "h"
	DCB	0x0, "r", 0x0, "o", 0x0, "u", 0x0, "g", 0x0, "h", 0x0, "p"
	DCB	0x0, "u", 0x0, "t", 0x0, " ", 0x0, "o", 0x0, "n", 0x0, " "
	DCB	0x0, "a", 0x0, " ", 0x0, "T", 0x0, "F", 0x0, "A", 0x0, "T"
	DCB	0x0, " ", 0x0, "f", 0x0, "i", 0x0, "l", 0x0, "e", 0x0, " "
	DCB	0x0, "s", 0x0, "y", 0x0, "s", 0x0, "t", 0x0, "e", 0x0, "m"
	DCB	0x0, " ", 0x0, "i", 0x0, "t", 0x0, " ", 0x0, "i", 0x0, "s"
	DCB	0x0, " ", 0x0, "s", 0x0, "t", 0x0, "r", 0x0, "o", 0x0, "n"
	DCB	0x0, "g", 0x0, "l", 0x0, "y", 0x0, " ", 0x0, "r", 0x0, "e"
	DCB	0x0, "c", 0x0, "o", 0x0, "m", 0x0, "m", 0x0, "e", 0x0, "n"
	DCB	0x0, "d", 0x0, "e", 0x0, "d", 0x0, 0x0, 0x0 ; `string'

  00000			 AREA	 |.rdata|, DATA, READONLY
|??_C@_1FC@HGNBCDB@?$AA?5?$AA?5?$AA?5?$AA?5?$AA?5?$AAt?$AAh?$AAa?$AAt?$AA?5?$AAt?$AAh?$AAe?$AA?5?$AA?9?$AAw?$AAr?$AAi?$AAt?$AAe?$AAt?$AAh?$AAr?$AAu?$AA?5?$AAo?$AAp?$AAt?$AAi?$AAo?$AAn?$AA?5@| DCB " "
	DCB	0x0, " ", 0x0, " ", 0x0, " ", 0x0, " ", 0x0, "t", 0x0, "h"
	DCB	0x0, "a", 0x0, "t", 0x0, " ", 0x0, "t", 0x0, "h", 0x0, "e"
	DCB	0x0, " ", 0x0, "-", 0x0, "w", 0x0, "r", 0x0, "i", 0x0, "t"
	DCB	0x0, "e", 0x0, "t", 0x0, "h", 0x0, "r", 0x0, "u", 0x0, " "
	DCB	0x0, "o", 0x0, "p", 0x0, "t", 0x0, "i", 0x0, "o", 0x0, "n"
	DCB	0x0, " ", 0x0, "i", 0x0, "s", 0x0, " ", 0x0, "u", 0x0, "s"
	DCB	0x0, "e", 0x0, "d", 0x0, ".", 0x0, 0x0, 0x0 ; `string'

  00000			 AREA	 |.rdata|, DATA, READONLY
|??_C@_1GM@BJJFKJAI@?$AA?5?$AA?5?$AA?$CK?$AA?5?$AAD?$AAo?$AA?5?$AAn?$AAo?$AAt?$AA?5?$AAc?$AAo?$AAm?$AAb?$AAi?$AAn?$AAe?$AA?5?$AAt?$AAh?$AAe?$AA?5?$AA?9?$AAn?$AAo?$AAc?$AAa?$AAc?$AAh?$AAe?$AA?5@| DCB " "
	DCB	0x0, " ", 0x0, "*", 0x0, " ", 0x0, "D", 0x0, "o", 0x0, " "
	DCB	0x0, "n", 0x0, "o", 0x0, "t", 0x0, " ", 0x0, "c", 0x0, "o"
	DCB	0x0, "m", 0x0, "b", 0x0, "i", 0x0, "n", 0x0, "e", 0x0, " "
	DCB	0x0, "t", 0x0, "h", 0x0, "e", 0x0, " ", 0x0, "-", 0x0, "n"
	DCB	0x0, "o", 0x0, "c", 0x0, "a", 0x0, "c", 0x0, "h", 0x0, "e"
	DCB	0x0, " ", 0x0, "a", 0x0, "n", 0x0, "d", 0x0, " ", 0x0, "-"
	DCB	0x0, "f", 0x0, "l", 0x0, "u", 0x0, "s", 0x0, "h", 0x0, "a"
	DCB	0x0, "l", 0x0, "l", 0x0, " ", 0x0, "o", 0x0, "p", 0x0, "t"
	DCB	0x0, "i", 0x0, "o", 0x0, "n", 0x0, "s", 0x0, 0x0, 0x0 ; `string'

  00000			 AREA	 |.rdata|, DATA, READONLY
|??_C@_1JA@JPCOAGMN@?$AA?5?$AA?5?$AA?$CK?$AA?5?$AAW?$AAh?$AAe?$AAn?$AA?5?$AAc?$AAo?$AAm?$AAb?$AAi?$AAn?$AAi?$AAn?$AAg?$AA?5?$AAt?$AAh?$AAe?$AA?5?$AA?9?$AAb?$AA?5?$AAa?$AAn?$AAd?$AA?5?$AA?9?$AAa@| DCB " "
	DCB	0x0, " ", 0x0, "*", 0x0, " ", 0x0, "W", 0x0, "h", 0x0, "e"
	DCB	0x0, "n", 0x0, " ", 0x0, "c", 0x0, "o", 0x0, "m", 0x0, "b"
	DCB	0x0, "i", 0x0, "n", 0x0, "i", 0x0, "n", 0x0, "g", 0x0, " "
	DCB	0x0, "t", 0x0, "h", 0x0, "e", 0x0, " ", 0x0, "-", 0x0, "b"
	DCB	0x0, " ", 0x0, "a", 0x0, "n", 0x0, "d", 0x0, " ", 0x0, "-"
	DCB	0x0, "a", 0x0, " ", 0x0, "o", 0x0, "p", 0x0, "t", 0x0, "i"
	DCB	0x0, "o", 0x0, "n", 0x0, "s", 0x0, ",", 0x0, " ", 0x0, "t"
	DCB	0x0, "h", 0x0, "e", 0x0, " ", 0x0, "-", 0x0, "a", 0x0, " "
	DCB	0x0, "o", 0x0, "p", 0x0, "t", 0x0, "i", 0x0, "o", 0x0, "n"
	DCB	0x0, " ", 0x0, "w", 0x0, "i", 0x0, "l", 0x0, "l", 0x0, " "
	DCB	0x0, "b", 0x0, "e", 0x0, " ", 0x0, "i", 0x0, "g", 0x0, "n"
	DCB	0x0, "o", 0x0, "r", 0x0, "e", 0x0, "d", 0x0, 0x0, 0x0 ; `string'

  00000			 AREA	 |.rdata|, DATA, READONLY
|??_C@_1JG@PLJPAIGD@?$AA?5?$AA?5?$AA?$CK?$AA?5?$AAO?$AAp?$AAt?$AAi?$AAo?$AAn?$AA?5?$AAi?$AAd?$AAe?$AAn?$AAt?$AAi?$AAf?$AAi?$AAe?$AAr?$AAs?$AA?5?$AA?$CI?$AA?9?$AAw?$AA?0?$AA?5?$AA?9?$AAh?$AA?5?$AAe@| DCB " "
	DCB	0x0, " ", 0x0, "*", 0x0, " ", 0x0, "O", 0x0, "p", 0x0, "t"
	DCB	0x0, "i", 0x0, "o", 0x0, "n", 0x0, " ", 0x0, "i", 0x0, "d"
	DCB	0x0, "e", 0x0, "n", 0x0, "t", 0x0, "i", 0x0, "f", 0x0, "i"
	DCB	0x0, "e", 0x0, "r", 0x0, "s", 0x0, " ", 0x0, "(", 0x0, "-"
	DCB	0x0, "w", 0x0, ",", 0x0, " ", 0x0, "-", 0x0, "h", 0x0, " "
	DCB	0x0, "e", 0x0, "t", 0x0, "c", 0x0, ")", 0x0, " ", 0x0, "m"
	DCB	0x0, "a", 0x0, "y", 0x0, " ", 0x0, "b", 0x0, "e", 0x0, " "
	DCB	0x0, "s", 0x0, "u", 0x0, "p", 0x0, "p", 0x0, "l", 0x0, "i"
	DCB	0x0, "e", 0x0, "d", 0x0, " ", 0x0, "i", 0x0, "n", 0x0, " "
	DCB	0x0, "u", 0x0, "p", 0x0, "p", 0x0, "e", 0x0, "r", 0x0, " "
	DCB	0x0, "o", 0x0, "r", 0x0, " ", 0x0, "l", 0x0, "o", 0x0, "w"
	DCB	0x0, "e", 0x0, "r", 0x0, " ", 0x0, "c", 0x0, "a", 0x0, "s"
	DCB	0x0, "e", 0x0, 0x0, 0x0			; `string'

  00000			 AREA	 |.rdata|, DATA, READONLY
|??_C@_11LOCGONAA@?$AA?$AA@| DCB 0x0, 0x0		; `string'
; Function compile flags: /Ogspy

  00000			 AREA	 |.text|, CODE, ARM

  00000		 |?LogHelpInfo@@YAXXZ| PROC		; LogHelpInfo

; 522  : {

  00000		 |$LN5@LogHelpInf|
  00000	e92d40f0	 stmdb       sp!, {r4 - r7, lr}
  00004	e24dd008	 sub         sp, sp, #8
  00008		 |$M32882|

; 523  :     g_pKato->Log(LOG_COMMENT, TEXT(""));

  00008	e59f64d8	 ldr         r6, [pc, #0x4D8]
  0000c	e59f344c	 ldr         r3, [pc, #0x44C]
  00010	e59f2444	 ldr         r2, [pc, #0x444]
  00014	e5960000	 ldr         r0, [r6]
  00018	e5933000	 ldr         r3, [r3]
  0001c	e3a0100e	 mov         r1, #0xE
  00020	e1a0e00f	 mov         lr, pc
  00024	e12fff13	 bx          r3

; 524  :     g_pKato->Log(LOG_COMMENT, TEXT("Command Line Options:"));

  00028	e59f3430	 ldr         r3, [pc, #0x430]
  0002c	e59f24b0	 ldr         r2, [pc, #0x4B0]
  00030	e5960000	 ldr         r0, [r6]
  00034	e5933000	 ldr         r3, [r3]
  00038	e3a0100e	 mov         r1, #0xE
  0003c	e1a0e00f	 mov         lr, pc
  00040	e12fff13	 bx          r3

; 525  :     g_pKato->Log(LOG_COMMENT, TEXT("  -r  'filename'   Perform read speed tests on the named file"));

  00044	e59f3414	 ldr         r3, [pc, #0x414]
  00048	e59f2490	 ldr         r2, [pc, #0x490]
  0004c	e5960000	 ldr         r0, [r6]
  00050	e5933000	 ldr         r3, [r3]
  00054	e3a0100e	 mov         r1, #0xE
  00058	e1a0e00f	 mov         lr, pc
  0005c	e12fff13	 bx          r3

; 526  :     g_pKato->Log(LOG_COMMENT, TEXT("  -w  'filename'   Perform write speed tests on the named file"));

  00060	e59f33f8	 ldr         r3, [pc, #0x3F8]
  00064	e59f2470	 ldr         r2, [pc, #0x470]
  00068	e5960000	 ldr         r0, [r6]
  0006c	e5933000	 ldr         r3, [r3]
  00070	e3a0100e	 mov         r1, #0xE
  00074	e1a0e00f	 mov         lr, pc
  00078	e12fff13	 bx          r3

; 527  :     g_pKato->Log(LOG_COMMENT, TEXT("  -wr 'filename'   Perform write then read speed tests on the named file"));

  0007c	e59f33dc	 ldr         r3, [pc, #0x3DC]
  00080	e59f2450	 ldr         r2, [pc, #0x450]
  00084	e5960000	 ldr         r0, [r6]
  00088	e5933000	 ldr         r3, [r3]
  0008c	e3a0100e	 mov         r1, #0xE
  00090	e1a0e00f	 mov         lr, pc
  00094	e12fff13	 bx          r3

; 528  :     g_pKato->Log(LOG_COMMENT, TEXT("  -c  'dirname'    Create a file in the named directory and verify its contents"));

  00098	e59f33c0	 ldr         r3, [pc, #0x3C0]
  0009c	e59f2430	 ldr         r2, [pc, #0x430]
  000a0	e5960000	 ldr         r0, [r6]
  000a4	e5933000	 ldr         r3, [r3]
  000a8	e3a0100e	 mov         r1, #0xE
  000ac	e1a0e00f	 mov         lr, pc
  000b0	e12fff13	 bx          r3

; 529  :     g_pKato->Log(LOG_COMMENT, TEXT("                    (do not include trailing backslash)"));

  000b4	e59f33a4	 ldr         r3, [pc, #0x3A4]
  000b8	e59f2410	 ldr         r2, [pc, #0x410]
  000bc	e5960000	 ldr         r0, [r6]
  000c0	e5933000	 ldr         r3, [r3]
  000c4	e3a0100e	 mov         r1, #0xE
  000c8	e1a0e00f	 mov         lr, pc
  000cc	e12fff13	 bx          r3

; 530  :     g_pKato->Log(LOG_COMMENT, TEXT("  -n NumTests      Number of times each test is repeated"));

  000d0	e59f3388	 ldr         r3, [pc, #0x388]
  000d4	e59f23f0	 ldr         r2, [pc, #0x3F0]
  000d8	e5960000	 ldr         r0, [r6]
  000dc	e5933000	 ldr         r3, [r3]
  000e0	e3a0100e	 mov         r1, #0xE
  000e4	e1a0e00f	 mov         lr, pc
  000e8	e12fff13	 bx          r3

; 531  :     g_pKato->Log(LOG_COMMENT, TEXT("                    (valid range = %d - %d, default = %d)"),
; 532  :                               NUM_TESTS_MIN, NUM_TESTS_MAX, NUM_TESTS_DEFAULT);

  000ec	e59f336c	 ldr         r3, [pc, #0x36C]
  000f0	e3a02c09	 mov         r2, #9, 24
  000f4	e5960000	 ldr         r0, [r6]
  000f8	e5935000	 ldr         r5, [r3]
  000fc	e3a07001	 mov         r7, #1
  00100	e38240c4	 orr         r4, r2, #0xC4
  00104	e59f23b8	 ldr         r2, [pc, #0x3B8]
  00108	e3a03001	 mov         r3, #1
  0010c	e3a0100e	 mov         r1, #0xE
  00110	e58d7004	 str         r7, [sp, #4]
  00114	e58d4000	 str         r4, [sp]
  00118	e1a0e00f	 mov         lr, pc
  0011c	e12fff15	 bx          r5

; 533  :     g_pKato->Log(LOG_COMMENT, TEXT("  -s FileSize      Size of file(s) (in MB) to create during tests"));

  00120	e59f3338	 ldr         r3, [pc, #0x338]
  00124	e59f239c	 ldr         r2, [pc, #0x39C]
  00128	e5960000	 ldr         r0, [r6]
  0012c	e5933000	 ldr         r3, [r3]
  00130	e3a0100e	 mov         r1, #0xE
  00134	e1a0e00f	 mov         lr, pc
  00138	e12fff13	 bx          r3

; 534  :     g_pKato->Log(LOG_COMMENT, TEXT("                    (valid range = %d - %d, default = %d)"),
; 535  :                               FILE_SIZE_MIN, FILE_SIZE_MAX, FILE_SIZE_DEFAULT);

  0013c	e3a03008	 mov         r3, #8
  00140	e58d3004	 str         r3, [sp, #4]
  00144	e59f3314	 ldr         r3, [pc, #0x314]
  00148	e5934000	 ldr         r4, [r3]
  0014c	e3a05c02	 mov         r5, #2, 24
  00150	e5960000	 ldr         r0, [r6]
  00154	e59f2368	 ldr         r2, [pc, #0x368]
  00158	e58d5000	 str         r5, [sp]
  0015c	e3a03001	 mov         r3, #1
  00160	e3a0100e	 mov         r1, #0xE
  00164	e1a0e00f	 mov         lr, pc
  00168	e12fff14	 bx          r4

; 536  :     g_pKato->Log(LOG_COMMENT, TEXT("  -b BufferSize    Size of data buffer (in bytes) to use during custom test"));

  0016c	e59f32ec	 ldr         r3, [pc, #0x2EC]
  00170	e59f2348	 ldr         r2, [pc, #0x348]
  00174	e5960000	 ldr         r0, [r6]
  00178	e5933000	 ldr         r3, [r3]
  0017c	e3a0100e	 mov         r1, #0xE
  00180	e1a0e00f	 mov         lr, pc
  00184	e12fff13	 bx          r3

; 537  :     g_pKato->Log(LOG_COMMENT, TEXT("                    (valid range = %d - %d, default = skip custom test)"),
; 538  :                               BLOCK_SIZE_MIN, BLOCK_SIZE_MAX);

  00188	e59f32d0	 ldr         r3, [pc, #0x2D0]
  0018c	e59f2328	 ldr         r2, [pc, #0x328]
  00190	e5960000	 ldr         r0, [r6]
  00194	e5934000	 ldr         r4, [r3]
  00198	e3a05701	 mov         r5, #1, 14
  0019c	e3a03080	 mov         r3, #0x80
  001a0	e3a0100e	 mov         r1, #0xE
  001a4	e58d5000	 str         r5, [sp]
  001a8	e1a0e00f	 mov         lr, pc
  001ac	e12fff14	 bx          r4

; 539  :     g_pKato->Log(LOG_COMMENT, TEXT("  -a               Perform all tests"));

  001b0	e59f32a8	 ldr         r3, [pc, #0x2A8]
  001b4	e59f22fc	 ldr         r2, [pc, #0x2FC]
  001b8	e5960000	 ldr         r0, [r6]
  001bc	e5933000	 ldr         r3, [r3]
  001c0	e3a0100e	 mov         r1, #0xE
  001c4	e1a0e00f	 mov         lr, pc
  001c8	e12fff13	 bx          r3

; 540  :     g_pKato->Log(LOG_COMMENT, TEXT("                    (default = use 256B, 8K and 64K data buffers only)"));

  001cc	e59f328c	 ldr         r3, [pc, #0x28C]
  001d0	e59f22dc	 ldr         r2, [pc, #0x2DC]
  001d4	e5960000	 ldr         r0, [r6]
  001d8	e5933000	 ldr         r3, [r3]
  001dc	e3a0100e	 mov         r1, #0xE
  001e0	e1a0e00f	 mov         lr, pc
  001e4	e12fff13	 bx          r3

; 541  :     g_pKato->Log(LOG_COMMENT, TEXT("  -nocache         Access files with no system caching"));

  001e8	e59f3270	 ldr         r3, [pc, #0x270]
  001ec	e59f22bc	 ldr         r2, [pc, #0x2BC]
  001f0	e5960000	 ldr         r0, [r6]
  001f4	e5933000	 ldr         r3, [r3]
  001f8	e3a0100e	 mov         r1, #0xE
  001fc	e1a0e00f	 mov         lr, pc
  00200	e12fff13	 bx          r3

; 542  :     g_pKato->Log(LOG_COMMENT, TEXT("                    (default = system caching enabled)"));

  00204	e59f3254	 ldr         r3, [pc, #0x254]
  00208	e59f229c	 ldr         r2, [pc, #0x29C]
  0020c	e5960000	 ldr         r0, [r6]
  00210	e5933000	 ldr         r3, [r3]
  00214	e3a0100e	 mov         r1, #0xE
  00218	e1a0e00f	 mov         lr, pc
  0021c	e12fff13	 bx          r3

; 543  :     g_pKato->Log(LOG_COMMENT, TEXT("  -writethru       Write through any intermediate cache"));

  00220	e59f3238	 ldr         r3, [pc, #0x238]
  00224	e59f227c	 ldr         r2, [pc, #0x27C]
  00228	e5960000	 ldr         r0, [r6]
  0022c	e5933000	 ldr         r3, [r3]
  00230	e3a0100e	 mov         r1, #0xE
  00234	e1a0e00f	 mov         lr, pc
  00238	e12fff13	 bx          r3

; 544  :     g_pKato->Log(LOG_COMMENT, TEXT("                    (default = Lazy flush possible)"));

  0023c	e59f321c	 ldr         r3, [pc, #0x21C]
  00240	e59f225c	 ldr         r2, [pc, #0x25C]
  00244	e5960000	 ldr         r0, [r6]
  00248	e5933000	 ldr         r3, [r3]
  0024c	e3a0100e	 mov         r1, #0xE
  00250	e1a0e00f	 mov         lr, pc
  00254	e12fff13	 bx          r3

; 545  :     g_pKato->Log(LOG_COMMENT, TEXT("  -flushall        Flush file buffers after every write"));

  00258	e59f3200	 ldr         r3, [pc, #0x200]
  0025c	e59f223c	 ldr         r2, [pc, #0x23C]
  00260	e5960000	 ldr         r0, [r6]
  00264	e5933000	 ldr         r3, [r3]
  00268	e3a0100e	 mov         r1, #0xE
  0026c	e1a0e00f	 mov         lr, pc
  00270	e12fff13	 bx          r3

; 546  :     g_pKato->Log(LOG_COMMENT, TEXT("                    (default = Not performed)"));

  00274	e59f31e4	 ldr         r3, [pc, #0x1E4]
  00278	e5960000	 ldr         r0, [r6]
  0027c	e59f2214	 ldr         r2, [pc, #0x214]
  00280	e5933000	 ldr         r3, [r3]
  00284	e3a0100e	 mov         r1, #0xE
  00288	e1a0e00f	 mov         lr, pc
  0028c	e12fff13	 bx          r3

; 547  :     g_pKato->Log(LOG_COMMENT, TEXT("  -flushend        Flush file buffers before closing file"));

  00290	e59f31c8	 ldr         r3, [pc, #0x1C8]
  00294	e59f2200	 ldr         r2, [pc, #0x200]
  00298	e5960000	 ldr         r0, [r6]
  0029c	e5933000	 ldr         r3, [r3]
  002a0	e3a0100e	 mov         r1, #0xE
  002a4	e1a0e00f	 mov         lr, pc
  002a8	e12fff13	 bx          r3

; 548  :     g_pKato->Log(LOG_COMMENT, TEXT("                    (default = Not performed)"));

  002ac	e59f31ac	 ldr         r3, [pc, #0x1AC]
  002b0	e5960000	 ldr         r0, [r6]
  002b4	e59f21dc	 ldr         r2, [pc, #0x1DC]
  002b8	e5933000	 ldr         r3, [r3]
  002bc	e3a0100e	 mov         r1, #0xE
  002c0	e1a0e00f	 mov         lr, pc
  002c4	e12fff13	 bx          r3

; 549  :     g_pKato->Log(LOG_COMMENT, TEXT("  -v               Verbose output"));

  002c8	e59f3190	 ldr         r3, [pc, #0x190]
  002cc	e59f21c0	 ldr         r2, [pc, #0x1C0]
  002d0	e5960000	 ldr         r0, [r6]
  002d4	e5933000	 ldr         r3, [r3]
  002d8	e3a0100e	 mov         r1, #0xE
  002dc	e1a0e00f	 mov         lr, pc
  002e0	e12fff13	 bx          r3

; 550  :     g_pKato->Log(LOG_COMMENT, TEXT("  -h               Show command line option help"));

  002e4	e59f3174	 ldr         r3, [pc, #0x174]
  002e8	e59f21a0	 ldr         r2, [pc, #0x1A0]
  002ec	e5960000	 ldr         r0, [r6]
  002f0	e5933000	 ldr         r3, [r3]
  002f4	e3a0100e	 mov         r1, #0xE
  002f8	e1a0e00f	 mov         lr, pc
  002fc	e12fff13	 bx          r3

; 551  :     g_pKato->Log(LOG_COMMENT, TEXT("Examples:"));

  00300	e59f3158	 ldr         r3, [pc, #0x158]
  00304	e59f2180	 ldr         r2, [pc, #0x180]
  00308	e5960000	 ldr         r0, [r6]
  0030c	e5933000	 ldr         r3, [r3]
  00310	e3a0100e	 mov         r1, #0xE
  00314	e1a0e00f	 mov         lr, pc
  00318	e12fff13	 bx          r3

; 552  :     g_pKato->Log(LOG_COMMENT, TEXT("  -r '\\test.dat' -n 10 -v"));

  0031c	e59f313c	 ldr         r3, [pc, #0x13C]
  00320	e59f2160	 ldr         r2, [pc, #0x160]
  00324	e5960000	 ldr         r0, [r6]
  00328	e5933000	 ldr         r3, [r3]
  0032c	e3a0100e	 mov         r1, #0xE
  00330	e1a0e00f	 mov         lr, pc
  00334	e12fff13	 bx          r3

; 553  :     g_pKato->Log(LOG_COMMENT, TEXT("  -w '\\Storage Card\\test.dat' -s 4 -nocache"));

  00338	e59f3120	 ldr         r3, [pc, #0x120]
  0033c	e59f2140	 ldr         r2, [pc, #0x140]
  00340	e5960000	 ldr         r0, [r6]
  00344	e5933000	 ldr         r3, [r3]
  00348	e3a0100e	 mov         r1, #0xE
  0034c	e1a0e00f	 mov         lr, pc
  00350	e12fff13	 bx          r3

; 554  :     g_pKato->Log(LOG_COMMENT, TEXT("  -wr '\\Hard Disk\\test.dat' -b 15000 -flushall"));

  00354	e59f3104	 ldr         r3, [pc, #0x104]
  00358	e59f2120	 ldr         r2, [pc, #0x120]
  0035c	e5960000	 ldr         r0, [r6]
  00360	e5933000	 ldr         r3, [r3]
  00364	e3a0100e	 mov         r1, #0xE
  00368	e1a0e00f	 mov         lr, pc
  0036c	e12fff13	 bx          r3

; 555  :     g_pKato->Log(LOG_COMMENT, TEXT("  -c '\\NAND Flash' -s 1 -n 3 -writethru"));

  00370	e59f30e8	 ldr         r3, [pc, #0xE8]
  00374	e59f2100	 ldr         r2, [pc, #0x100]
  00378	e5960000	 ldr         r0, [r6]
  0037c	e5933000	 ldr         r3, [r3]
  00380	e3a0100e	 mov         r1, #0xE
  00384	e1a0e00f	 mov         lr, pc
  00388	e12fff13	 bx          r3

; 556  :     g_pKato->Log(LOG_COMMENT, TEXT("Notes:"));

  0038c	e59f30cc	 ldr         r3, [pc, #0xCC]
  00390	e59f20e0	 ldr         r2, [pc, #0xE0]
  00394	e5960000	 ldr         r0, [r6]
  00398	e5933000	 ldr         r3, [r3]
  0039c	e3a0100e	 mov         r1, #0xE
  003a0	e1a0e00f	 mov         lr, pc
  003a4	e12fff13	 bx          r3

; 557  :     g_pKato->Log(LOG_COMMENT, TEXT("  * When testing throughput on a TFAT file system it is strongly recommended"));

  003a8	e59f30b0	 ldr         r3, [pc, #0xB0]
  003ac	e59f20c0	 ldr         r2, [pc, #0xC0]
  003b0	e5960000	 ldr         r0, [r6]
  003b4	e5933000	 ldr         r3, [r3]
  003b8	e3a0100e	 mov         r1, #0xE
  003bc	e1a0e00f	 mov         lr, pc
  003c0	e12fff13	 bx          r3

; 558  :     g_pKato->Log(LOG_COMMENT, TEXT("     that the -writethru option is used."));

  003c4	e59f20a4	 ldr         r2, [pc, #0xA4]
  003c8	e59f3090	 ldr         r3, [pc, #0x90]
  003cc	e5960000	 ldr         r0, [r6]
  003d0	e5933000	 ldr         r3, [r3]
  003d4	e3a0100e	 mov         r1, #0xE
  003d8	e1a0e00f	 mov         lr, pc
  003dc	e12fff13	 bx          r3

; 559  :     g_pKato->Log(LOG_COMMENT, TEXT("  * Do not combine the -nocache and -flushall options"));

  003e0	e59f3078	 ldr         r3, [pc, #0x78]
  003e4	e59f2080	 ldr         r2, [pc, #0x80]
  003e8	e5960000	 ldr         r0, [r6]
  003ec	e5933000	 ldr         r3, [r3]
  003f0	e3a0100e	 mov         r1, #0xE
  003f4	e1a0e00f	 mov         lr, pc
  003f8	e12fff13	 bx          r3

; 560  :     g_pKato->Log(LOG_COMMENT, TEXT("  * When combining the -b and -a options, the -a option will be ignored"));

  003fc	e59f305c	 ldr         r3, [pc, #0x5C]
  00400	e59f2060	 ldr         r2, [pc, #0x60]
  00404	e5960000	 ldr         r0, [r6]
  00408	e5933000	 ldr         r3, [r3]
  0040c	e3a0100e	 mov         r1, #0xE
  00410	e1a0e00f	 mov         lr, pc
  00414	e12fff13	 bx          r3

; 561  :     g_pKato->Log(LOG_COMMENT, TEXT("  * Option identifiers (-w, -h etc) may be supplied in upper or lower case"));

  00418	e59f3040	 ldr         r3, [pc, #0x40]
  0041c	e59f2040	 ldr         r2, [pc, #0x40]
  00420	e5960000	 ldr         r0, [r6]
  00424	e5933000	 ldr         r3, [r3]
  00428	e3a0100e	 mov         r1, #0xE
  0042c	e1a0e00f	 mov         lr, pc
  00430	e12fff13	 bx          r3

; 562  :     g_pKato->Log(LOG_COMMENT, TEXT(""));

  00434	e59f3024	 ldr         r3, [pc, #0x24]
  00438	e5960000	 ldr         r0, [r6]
  0043c	e59f2018	 ldr         r2, [pc, #0x18]
  00440	e5933000	 ldr         r3, [r3]
  00444	e3a0100e	 mov         r1, #0xE
  00448	e1a0e00f	 mov         lr, pc
  0044c	e12fff13	 bx          r3

; 563  : }

  00450	e28dd008	 add         sp, sp, #8
  00454	e8bd40f0	 ldmia       sp!, {r4 - r7, lr}
  00458	e12fff1e	 bx          lr
  0045c		 |$LN6@LogHelpInf|
  0045c		 |$LN7@LogHelpInf|
  0045c	00000000	 DCD         |??_C@_11LOCGONAA@?$AA?$AA@|
  00460		 |$LN8@LogHelpInf|
  00460	00000000	 DCD         |__imp_?Log@CKato@@QAAHKPBGZZ|
  00464		 |$LN9@LogHelpInf|
  00464	00000000	 DCD         |??_C@_1JG@PLJPAIGD@?$AA?5?$AA?5?$AA?$CK?$AA?5?$AAO?$AAp?$AAt?$AAi?$AAo?$AAn?$AA?5?$AAi?$AAd?$AAe?$AAn?$AAt?$AAi?$AAf?$AAi?$AAe?$AAr?$AAs?$AA?5?$AA?$CI?$AA?9?$AAw?$AA?0?$AA?5?$AA?9?$AAh?$AA?5?$AAe@|
  00468		 |$LN10@LogHelpInf|
  00468	00000000	 DCD         |??_C@_1JA@JPCOAGMN@?$AA?5?$AA?5?$AA?$CK?$AA?5?$AAW?$AAh?$AAe?$AAn?$AA?5?$AAc?$AAo?$AAm?$AAb?$AAi?$AAn?$AAi?$AAn?$AAg?$AA?5?$AAt?$AAh?$AAe?$AA?5?$AA?9?$AAb?$AA?5?$AAa?$AAn?$AAd?$AA?5?$AA?9?$AAa@|
  0046c		 |$LN11@LogHelpInf|
  0046c	00000000	 DCD         |??_C@_1GM@BJJFKJAI@?$AA?5?$AA?5?$AA?$CK?$AA?5?$AAD?$AAo?$AA?5?$AAn?$AAo?$AAt?$AA?5?$AAc?$AAo?$AAm?$AAb?$AAi?$AAn?$AAe?$AA?5?$AAt?$AAh?$AAe?$AA?5?$AA?9?$AAn?$AAo?$AAc?$AAa?$AAc?$AAh?$AAe?$AA?5@|
  00470		 |$LN12@LogHelpInf|
  00470	00000000	 DCD         |??_C@_1FC@HGNBCDB@?$AA?5?$AA?5?$AA?5?$AA?5?$AA?5?$AAt?$AAh?$AAa?$AAt?$AA?5?$AAt?$AAh?$AAe?$AA?5?$AA?9?$AAw?$AAr?$AAi?$AAt?$AAe?$AAt?$AAh?$AAr?$AAu?$AA?5?$AAo?$AAp?$AAt?$AAi?$AAo?$AAn?$AA?5@|
  00474		 |$LN13@LogHelpInf|
  00474	00000000	 DCD         |??_C@_1JK@PECHHOEG@?$AA?5?$AA?5?$AA?$CK?$AA?5?$AAW?$AAh?$AAe?$AAn?$AA?5?$AAt?$AAe?$AAs?$AAt?$AAi?$AAn?$AAg?$AA?5?$AAt?$AAh?$AAr?$AAo?$AAu?$AAg?$AAh?$AAp?$AAu?$AAt?$AA?5?$AAo?$AAn?$AA?5?$AAa@|
  00478		 |$LN14@LogHelpInf|
  00478	00000000	 DCD         |??_C@_1O@ILCJDLKH@?$AAN?$AAo?$AAt?$AAe?$AAs?$AA?3?$AA?$AA@|
  0047c		 |$LN15@LogHelpInf|
  0047c	00000000	 DCD         |??_C@_1FA@IBCLAGCC@?$AA?5?$AA?5?$AA?9?$AAc?$AA?5?$AA?8?$AA?2?$AAN?$AAA?$AAN?$AAD?$AA?5?$AAF?$AAl?$AAa?$AAs?$AAh?$AA?8?$AA?5?$AA?9?$AAs?$AA?5?$AA1?$AA?5?$AA?9?$AAn?$AA?5?$AA3?$AA?5?$AA?9?$AAw?$AAr@|
  00480		 |$LN16@LogHelpInf|
  00480	00000000	 DCD         |??_C@_1FO@BNJCFNKK@?$AA?5?$AA?5?$AA?9?$AAw?$AAr?$AA?5?$AA?8?$AA?2?$AAH?$AAa?$AAr?$AAd?$AA?5?$AAD?$AAi?$AAs?$AAk?$AA?2?$AAt?$AAe?$AAs?$AAt?$AA?4?$AAd?$AAa?$AAt?$AA?8?$AA?5?$AA?9?$AAb?$AA?5?$AA1@|
  00484		 |$LN17@LogHelpInf|
  00484	00000000	 DCD         |??_C@_1FI@OFNMGECA@?$AA?5?$AA?5?$AA?9?$AAw?$AA?5?$AA?8?$AA?2?$AAS?$AAt?$AAo?$AAr?$AAa?$AAg?$AAe?$AA?5?$AAC?$AAa?$AAr?$AAd?$AA?2?$AAt?$AAe?$AAs?$AAt?$AA?4?$AAd?$AAa?$AAt?$AA?8?$AA?5?$AA?9?$AAs@|
  00488		 |$LN18@LogHelpInf|
  00488	00000000	 DCD         |??_C@_1DE@PGBKEMMP@?$AA?5?$AA?5?$AA?9?$AAr?$AA?5?$AA?8?$AA?2?$AAt?$AAe?$AAs?$AAt?$AA?4?$AAd?$AAa?$AAt?$AA?8?$AA?5?$AA?9?$AAn?$AA?5?$AA1?$AA0?$AA?5?$AA?9?$AAv?$AA?$AA@|
  0048c		 |$LN19@LogHelpInf|
  0048c	00000000	 DCD         |??_C@_1BE@PJNFGBCE@?$AAE?$AAx?$AAa?$AAm?$AAp?$AAl?$AAe?$AAs?$AA?3?$AA?$AA@|
  00490		 |$LN20@LogHelpInf|
  00490	00000000	 DCD         |??_C@_1GC@ICMDADJM@?$AA?5?$AA?5?$AA?9?$AAh?$AA?5?$AA?5?$AA?5?$AA?5?$AA?5?$AA?5?$AA?5?$AA?5?$AA?5?$AA?5?$AA?5?$AA?5?$AA?5?$AA?5?$AA?5?$AAS?$AAh?$AAo?$AAw?$AA?5?$AAc?$AAo?$AAm?$AAm?$AAa?$AAn?$AAd?$AA?5@|
  00494		 |$LN21@LogHelpInf|
  00494	00000000	 DCD         |??_C@_1EE@BOMKGJIB@?$AA?5?$AA?5?$AA?9?$AAv?$AA?5?$AA?5?$AA?5?$AA?5?$AA?5?$AA?5?$AA?5?$AA?5?$AA?5?$AA?5?$AA?5?$AA?5?$AA?5?$AA?5?$AA?5?$AAV?$AAe?$AAr?$AAb?$AAo?$AAs?$AAe?$AA?5?$AAo?$AAu?$AAt?$AAp?$AAu@|
  00498		 |$LN22@LogHelpInf|
  00498	00000000	 DCD         |??_C@_1FM@GMBABNPH@?$AA?5?$AA?5?$AA?5?$AA?5?$AA?5?$AA?5?$AA?5?$AA?5?$AA?5?$AA?5?$AA?5?$AA?5?$AA?5?$AA?5?$AA?5?$AA?5?$AA?5?$AA?5?$AA?5?$AA?5?$AA?$CI?$AAd?$AAe?$AAf?$AAa?$AAu?$AAl?$AAt?$AA?5?$AA?$DN?$AA?5?$AAN@|
  0049c		 |$LN23@LogHelpInf|
  0049c	00000000	 DCD         |??_C@_1HE@NPHODCBG@?$AA?5?$AA?5?$AA?9?$AAf?$AAl?$AAu?$AAs?$AAh?$AAe?$AAn?$AAd?$AA?5?$AA?5?$AA?5?$AA?5?$AA?5?$AA?5?$AA?5?$AA?5?$AAF?$AAl?$AAu?$AAs?$AAh?$AA?5?$AAf?$AAi?$AAl?$AAe?$AA?5?$AAb?$AAu@|
  004a0		 |$LN24@LogHelpInf|
  004a0	00000000	 DCD         |??_C@_1HA@EDPBOLHD@?$AA?5?$AA?5?$AA?9?$AAf?$AAl?$AAu?$AAs?$AAh?$AAa?$AAl?$AAl?$AA?5?$AA?5?$AA?5?$AA?5?$AA?5?$AA?5?$AA?5?$AA?5?$AAF?$AAl?$AAu?$AAs?$AAh?$AA?5?$AAf?$AAi?$AAl?$AAe?$AA?5?$AAb?$AAu@|
  004a4		 |$LN25@LogHelpInf|
  004a4	00000000	 DCD         |??_C@_1GI@KAIOBLAK@?$AA?5?$AA?5?$AA?5?$AA?5?$AA?5?$AA?5?$AA?5?$AA?5?$AA?5?$AA?5?$AA?5?$AA?5?$AA?5?$AA?5?$AA?5?$AA?5?$AA?5?$AA?5?$AA?5?$AA?5?$AA?$CI?$AAd?$AAe?$AAf?$AAa?$AAu?$AAl?$AAt?$AA?5?$AA?$DN?$AA?5?$AAL@|
  004a8		 |$LN26@LogHelpInf|
  004a8	00000000	 DCD         |??_C@_1HA@MCOJHCAI@?$AA?5?$AA?5?$AA?9?$AAw?$AAr?$AAi?$AAt?$AAe?$AAt?$AAh?$AAr?$AAu?$AA?5?$AA?5?$AA?5?$AA?5?$AA?5?$AA?5?$AA?5?$AAW?$AAr?$AAi?$AAt?$AAe?$AA?5?$AAt?$AAh?$AAr?$AAo?$AAu?$AAg?$AAh@|
  004ac		 |$LN27@LogHelpInf|
  004ac	00000000	 DCD         |??_C@_1GO@PGHOACMK@?$AA?5?$AA?5?$AA?5?$AA?5?$AA?5?$AA?5?$AA?5?$AA?5?$AA?5?$AA?5?$AA?5?$AA?5?$AA?5?$AA?5?$AA?5?$AA?5?$AA?5?$AA?5?$AA?5?$AA?5?$AA?$CI?$AAd?$AAe?$AAf?$AAa?$AAu?$AAl?$AAt?$AA?5?$AA?$DN?$AA?5?$AAs@|
  004b0		 |$LN28@LogHelpInf|
  004b0	00000000	 DCD         |??_C@_1GO@LLNJJLLC@?$AA?5?$AA?5?$AA?9?$AAn?$AAo?$AAc?$AAa?$AAc?$AAh?$AAe?$AA?5?$AA?5?$AA?5?$AA?5?$AA?5?$AA?5?$AA?5?$AA?5?$AA?5?$AAA?$AAc?$AAc?$AAe?$AAs?$AAs?$AA?5?$AAf?$AAi?$AAl?$AAe?$AAs?$AA?5@|
  004b4		 |$LN29@LogHelpInf|
  004b4	00000000	 DCD         |??_C@_1IO@PDMHDGGO@?$AA?5?$AA?5?$AA?5?$AA?5?$AA?5?$AA?5?$AA?5?$AA?5?$AA?5?$AA?5?$AA?5?$AA?5?$AA?5?$AA?5?$AA?5?$AA?5?$AA?5?$AA?5?$AA?5?$AA?5?$AA?$CI?$AAd?$AAe?$AAf?$AAa?$AAu?$AAl?$AAt?$AA?5?$AA?$DN?$AA?5?$AAu@|
  004b8		 |$LN30@LogHelpInf|
  004b8	00000000	 DCD         |??_C@_1EK@KDDAPFNH@?$AA?5?$AA?5?$AA?9?$AAa?$AA?5?$AA?5?$AA?5?$AA?5?$AA?5?$AA?5?$AA?5?$AA?5?$AA?5?$AA?5?$AA?5?$AA?5?$AA?5?$AA?5?$AA?5?$AAP?$AAe?$AAr?$AAf?$AAo?$AAr?$AAm?$AA?5?$AAa?$AAl?$AAl?$AA?5?$AAt@|
  004bc		 |$LN31@LogHelpInf|
  004bc	00000000	 DCD         |??_C@_1JA@DENDPHNC@?$AA?5?$AA?5?$AA?5?$AA?5?$AA?5?$AA?5?$AA?5?$AA?5?$AA?5?$AA?5?$AA?5?$AA?5?$AA?5?$AA?5?$AA?5?$AA?5?$AA?5?$AA?5?$AA?5?$AA?5?$AA?$CI?$AAv?$AAa?$AAl?$AAi?$AAd?$AA?5?$AAr?$AAa?$AAn?$AAg?$AAe@|
  004c0		 |$LN32@LogHelpInf|
  004c0	00000000	 DCD         |??_C@_1JI@GOPDNCGM@?$AA?5?$AA?5?$AA?9?$AAb?$AA?5?$AAB?$AAu?$AAf?$AAf?$AAe?$AAr?$AAS?$AAi?$AAz?$AAe?$AA?5?$AA?5?$AA?5?$AA?5?$AAS?$AAi?$AAz?$AAe?$AA?5?$AAo?$AAf?$AA?5?$AAd?$AAa?$AAt?$AAa?$AA?5@|
  004c4		 |$LN33@LogHelpInf|
  004c4	00000000	 DCD         |??_C@_1HE@EOBALKKN@?$AA?5?$AA?5?$AA?5?$AA?5?$AA?5?$AA?5?$AA?5?$AA?5?$AA?5?$AA?5?$AA?5?$AA?5?$AA?5?$AA?5?$AA?5?$AA?5?$AA?5?$AA?5?$AA?5?$AA?5?$AA?$CI?$AAv?$AAa?$AAl?$AAi?$AAd?$AA?5?$AAr?$AAa?$AAn?$AAg?$AAe@|
  004c8		 |$LN34@LogHelpInf|
  004c8	00000000	 DCD         |??_C@_1IE@EIAMKBOF@?$AA?5?$AA?5?$AA?9?$AAs?$AA?5?$AAF?$AAi?$AAl?$AAe?$AAS?$AAi?$AAz?$AAe?$AA?5?$AA?5?$AA?5?$AA?5?$AA?5?$AA?5?$AAS?$AAi?$AAz?$AAe?$AA?5?$AAo?$AAf?$AA?5?$AAf?$AAi?$AAl?$AAe?$AA?$CI@|
  004cc		 |$LN35@LogHelpInf|
  004cc	00000000	 DCD         |??_C@_1HC@NPCFPCMI@?$AA?5?$AA?5?$AA?9?$AAn?$AA?5?$AAN?$AAu?$AAm?$AAT?$AAe?$AAs?$AAt?$AAs?$AA?5?$AA?5?$AA?5?$AA?5?$AA?5?$AA?5?$AAN?$AAu?$AAm?$AAb?$AAe?$AAr?$AA?5?$AAo?$AAf?$AA?5?$AAt?$AAi?$AAm@|
  004d0		 |$LN36@LogHelpInf|
  004d0	00000000	 DCD         |??_C@_1HA@DABILAHD@?$AA?5?$AA?5?$AA?5?$AA?5?$AA?5?$AA?5?$AA?5?$AA?5?$AA?5?$AA?5?$AA?5?$AA?5?$AA?5?$AA?5?$AA?5?$AA?5?$AA?5?$AA?5?$AA?5?$AA?5?$AA?$CI?$AAd?$AAo?$AA?5?$AAn?$AAo?$AAt?$AA?5?$AAi?$AAn?$AAc?$AAl@|
  004d4		 |$LN37@LogHelpInf|
  004d4	00000000	 DCD         |??_C@_1KA@BCHAEEBE@?$AA?5?$AA?5?$AA?9?$AAc?$AA?5?$AA?5?$AA?8?$AAd?$AAi?$AAr?$AAn?$AAa?$AAm?$AAe?$AA?8?$AA?5?$AA?5?$AA?5?$AA?5?$AAC?$AAr?$AAe?$AAa?$AAt?$AAe?$AA?5?$AAa?$AA?5?$AAf?$AAi?$AAl?$AAe@|
  004d8		 |$LN38@LogHelpInf|
  004d8	00000000	 DCD         |??_C@_1JC@NIIHHJGA@?$AA?5?$AA?5?$AA?9?$AAw?$AAr?$AA?5?$AA?8?$AAf?$AAi?$AAl?$AAe?$AAn?$AAa?$AAm?$AAe?$AA?8?$AA?5?$AA?5?$AA?5?$AAP?$AAe?$AAr?$AAf?$AAo?$AAr?$AAm?$AA?5?$AAw?$AAr?$AAi?$AAt?$AAe@|
  004dc		 |$LN39@LogHelpInf|
  004dc	00000000	 DCD         |??_C@_1HO@IIABAMCD@?$AA?5?$AA?5?$AA?9?$AAw?$AA?5?$AA?5?$AA?8?$AAf?$AAi?$AAl?$AAe?$AAn?$AAa?$AAm?$AAe?$AA?8?$AA?5?$AA?5?$AA?5?$AAP?$AAe?$AAr?$AAf?$AAo?$AAr?$AAm?$AA?5?$AAw?$AAr?$AAi?$AAt?$AAe@|
  004e0		 |$LN40@LogHelpInf|
  004e0	00000000	 DCD         |??_C@_1HM@JBGHLOIB@?$AA?5?$AA?5?$AA?9?$AAr?$AA?5?$AA?5?$AA?8?$AAf?$AAi?$AAl?$AAe?$AAn?$AAa?$AAm?$AAe?$AA?8?$AA?5?$AA?5?$AA?5?$AAP?$AAe?$AAr?$AAf?$AAo?$AAr?$AAm?$AA?5?$AAr?$AAe?$AAa?$AAd?$AA?5@|
  004e4		 |$LN41@LogHelpInf|
  004e4	00000000	 DCD         |??_C@_1CM@IPJJOHCJ@?$AAC?$AAo?$AAm?$AAm?$AAa?$AAn?$AAd?$AA?5?$AAL?$AAi?$AAn?$AAe?$AA?5?$AAO?$AAp?$AAt?$AAi?$AAo?$AAn?$AAs?$AA?3?$AA?$AA@|
  004e8		 |$LN42@LogHelpInf|
  004e8	00000000	 DCD         |?g_pKato@@3PAVCKato@@A|
  004ec		 |$M32883|

			 ENDP  ; |?LogHelpInfo@@YAXXZ|, LogHelpInfo

	EXPORT	|__$ArrayPad$| [ DATA ]
	EXPORT	|??_C@_1DM@JCBNLFOC@?$AAE?$AAR?$AAR?$AAO?$AAR?$AA?3?$AA?5?$AAN?$AAo?$AA?5?$AAf?$AAi?$AAl?$AAe?$AA?5?$AAi?$AAn?$AAf?$AAo?$AA?5?$AAs?$AAp?$AAe?$AAc?$AAi?$AAf?$AAi?$AAe?$AAd?$AA?$AA@| [ DATA ] ; `string'
	EXPORT	|??_C@_1GO@CFNBEBID@?$AAE?$AAR?$AAR?$AAO?$AAR?$AA?3?$AA?5?$AAM?$AAu?$AAs?$AAt?$AA?5?$AAs?$AAu?$AAp?$AAp?$AAl?$AAy?$AA?5?$AAe?$AAi?$AAt?$AAh?$AAe?$AAr?$AA?5?$AAt?$AAh?$AAe?$AA?5?$AA?9?$AAr@| [ DATA ] ; `string'
	EXPORT	|??_C@_13FPGAJAPJ@?$AA?2?$AA?$AA@| [ DATA ] ; `string'
	EXPORT	|??_C@_13ODFOLHGE@?$AA?8?$AA?$AA@| [ DATA ] ; `string'
	EXPORT	|??_C@_1FE@IKLPMNED@?$AAE?$AAR?$AAR?$AAO?$AAR?$AA?3?$AA?5?$AAE?$AAR?$AAR?$AAO?$AAR?$AA?3?$AA?5?$AAI?$AAl?$AAl?$AAe?$AAg?$AAa?$AAl?$AA?5?$AAf?$AAi?$AAl?$AAe?$AA?5?$AAi?$AAn?$AAf?$AAo?$AA?5@| [ DATA ] ; `string'
	EXPORT	|??_C@_1FC@LHIMFLPJ@?$AAE?$AAR?$AAR?$AAO?$AAR?$AA?3?$AA?5?$AAI?$AAn?$AAv?$AAa?$AAl?$AAi?$AAd?$AA?5?$AAr?$AAo?$AAo?$AAt?$AA?5?$AAd?$AAi?$AAr?$AA?5?$AAi?$AAn?$AAf?$AAo?$AA?5?$AAs?$AAp?$AAe@| [ DATA ] ; `string'
	EXPORT	|??_C@_15GJHBPMFF@?$AA?8?$AA?8?$AA?$AA@| [ DATA ] ; `string'
	EXPORT	|??_C@_1EC@FKGECEGJ@?$AAE?$AAR?$AAR?$AAO?$AAR?$AA?3?$AA?5?$AAF?$AAi?$AAl?$AAe?$AA?5?$AAi?$AAn?$AAf?$AAo?$AA?5?$AAn?$AAo?$AAt?$AA?5?$AAs?$AAp?$AAe?$AAc?$AAi?$AAf?$AAi?$AAe?$AAd?$AA?$AN?$AA?6@| [ DATA ] ; `string'
	EXPORT	|??_C@_1HA@CNLOCPGF@?$AAE?$AAR?$AAR?$AAO?$AAR?$AA?3?$AA?5?$AAI?$AAl?$AAl?$AAe?$AAg?$AAa?$AAl?$AA?5?$AAc?$AAo?$AAm?$AAb?$AAi?$AAn?$AAa?$AAt?$AAi?$AAo?$AAn?$AA?5?$AAo?$AAf?$AA?5?$AA?9?$AAr@| [ DATA ] ; `string'
	EXPORT	|??_C@_1DO@EEFEDPCG@?$AAE?$AAR?$AAR?$AAO?$AAR?$AA?3?$AA?5?$AAU?$AAn?$AAr?$AAe?$AAc?$AAo?$AAg?$AAn?$AAi?$AAs?$AAe?$AAd?$AA?5?$AAo?$AAp?$AAt?$AAi?$AAo?$AAn?$AA?3?$AA?5?$AA?$CF?$AAs?$AA?$AA@| [ DATA ] ; `string'
	EXPORT	|??_C@_15LJNJHFI@?$AA?9?$AAh?$AA?$AA@| [ DATA ] ; `string'
	EXPORT	|??_C@_15LLFLLHPE@?$AA?9?$AAv?$AA?$AA@| [ DATA ] ; `string'
	EXPORT	|??_C@_15HGJFNINC@?$AA?9?$AAa?$AA?$AA@| [ DATA ] ; `string'
	EXPORT	|??_C@_1GM@BPMJKPHH@?$AAE?$AAR?$AAR?$AAO?$AAR?$AA?3?$AA?5?$AAB?$AAl?$AAo?$AAc?$AAk?$AAs?$AAi?$AAz?$AAe?$AA?5?$AAo?$AAu?$AAt?$AAs?$AAi?$AAd?$AAe?$AA?5?$AAa?$AAc?$AAc?$AAe?$AAp?$AAt?$AAa@| [ DATA ] ; `string'
	EXPORT	|??_C@_1EC@JNHPDFLK@?$AAE?$AAR?$AAR?$AAO?$AAR?$AA?3?$AA?5?$AAB?$AAl?$AAo?$AAc?$AAk?$AAs?$AAi?$AAz?$AAe?$AA?5?$AAn?$AAo?$AAt?$AA?5?$AAs?$AAp?$AAe?$AAc?$AAi?$AAf?$AAi?$AAe?$AAd?$AA?$AN?$AA?6@| [ DATA ] ; `string'
	EXPORT	|??_C@_15GECAHHDM@?$AA?9?$AAb?$AA?$AA@| [ DATA ] ; `string'
	EXPORT	|??_C@_1HI@NNIGCGEL@?$AAE?$AAR?$AAR?$AAO?$AAR?$AA?3?$AA?5?$AAN?$AAu?$AAm?$AAb?$AAe?$AAr?$AA?5?$AAo?$AAf?$AA?5?$AAt?$AAe?$AAs?$AAt?$AAs?$AA?5?$AAo?$AAu?$AAt?$AAs?$AAi?$AAd?$AAe?$AA?5?$AAa@| [ DATA ] ; `string'
	EXPORT	|??_C@_1EO@EBBFGBPI@?$AAE?$AAR?$AAR?$AAO?$AAR?$AA?3?$AA?5?$AAN?$AAu?$AAm?$AAb?$AAe?$AAr?$AA?5?$AAo?$AAf?$AA?5?$AAt?$AAe?$AAs?$AAt?$AAs?$AA?5?$AAn?$AAo?$AAt?$AA?5?$AAs?$AAp?$AAe?$AAc?$AAi@| [ DATA ] ; `string'
	EXPORT	|??_C@_15COPGMIIE@?$AA?9?$AAn?$AA?$AA@| [ DATA ] ; `string'
	EXPORT	|??_C@_1GM@NPKDJEOF@?$AAE?$AAR?$AAR?$AAO?$AAR?$AA?3?$AA?5?$AAF?$AAi?$AAl?$AAe?$AA?5?$AAs?$AAi?$AAz?$AAe?$AA?5?$AAo?$AAu?$AAt?$AAs?$AAi?$AAd?$AAe?$AA?5?$AAa?$AAc?$AAc?$AAe?$AAp?$AAt?$AAa@| [ DATA ] ; `string'
	EXPORT	|??_C@_1EC@PLKFGPIP@?$AAE?$AAR?$AAR?$AAO?$AAR?$AA?3?$AA?5?$AAF?$AAi?$AAl?$AAe?$AA?5?$AAs?$AAi?$AAz?$AAe?$AA?5?$AAn?$AAo?$AAt?$AA?5?$AAs?$AAp?$AAe?$AAc?$AAi?$AAf?$AAi?$AAe?$AAd?$AA?$AN?$AA?6@| [ DATA ] ; `string'
	EXPORT	|??_C@_15IMIFEHMG@?$AA?9?$AAs?$AA?$AA@| [ DATA ] ; `string'
	EXPORT	|??_C@_15DOHNAJB@?$AA?9?$AAw?$AA?$AA@| [ DATA ] ; `string'
	EXPORT	|??_C@_15DEDJCAKD@?$AA?9?$AAr?$AA?$AA@| [ DATA ] ; `string'
	EXPORT	|??_C@_15NMJMBAFJ@?$AA?9?$AAc?$AA?$AA@| [ DATA ] ; `string'
	EXPORT	|??_C@_17CPLPACHP@?$AA?9?$AAw?$AAr?$AA?$AA@| [ DATA ] ; `string'
	EXPORT	|??_C@_1BE@MKMKHCEH@?$AA?9?$AAf?$AAl?$AAu?$AAs?$AAh?$AAe?$AAn?$AAd?$AA?$AA@| [ DATA ] ; `string'
	EXPORT	|??_C@_1BE@MGPMPFFJ@?$AA?9?$AAf?$AAl?$AAu?$AAs?$AAh?$AAa?$AAl?$AAl?$AA?$AA@| [ DATA ] ; `string'
	EXPORT	|??_C@_1BG@IOBGMJOL@?$AA?9?$AAw?$AAr?$AAi?$AAt?$AAe?$AAt?$AAh?$AAr?$AAu?$AA?$AA@| [ DATA ] ; `string'
	EXPORT	|??_C@_1BC@CCFBPLHC@?$AA?9?$AAn?$AAo?$AAc?$AAa?$AAc?$AAh?$AAe?$AA?$AA@| [ DATA ] ; `string'
	EXPORT	|??_C@_15DEJJBEOA@?$AA?5?$AA?7?$AA?$AA@| [ DATA ] ; `string'
	EXPORT	|??_C@_1DA@BLHPMAPB@?$AAP?$AAa?$AAr?$AAs?$AAe?$AAC?$AAo?$AAm?$AAm?$AAa?$AAn?$AAd?$AAL?$AAi?$AAn?$AAe?$AA?3?$AA?5?$AA?$CF?$AAs?$AA?5?$AA?$AN?$AA?6?$AA?$AA@| [ DATA ] ; `string'
	IMPORT	|_wcsdup|
	IMPORT	|?g_bVerboseOutput@@3_NA|		; g_bVerboseOutput
	IMPORT	|?g_bDoAllTests@@3_NA|			; g_bDoAllTests
	IMPORT	|?g_dwBlockSize@@3KA|			; g_dwBlockSize
	IMPORT	|?g_dwNumTests@@3KA|			; g_dwNumTests
	IMPORT	|_wtol|
	IMPORT	|?g_bFlushBuffersOnClose@@3_NA|		; g_bFlushBuffersOnClose
	IMPORT	|?g_bFlushBuffersOnWrite@@3_NA|		; g_bFlushBuffersOnWrite
	IMPORT	|?g_bWriteThrough@@3_NA|		; g_bWriteThrough
	IMPORT	|?g_bNoCaching@@3_NA|			; g_bNoCaching
	IMPORT	|_wcsicmp|
	IMPORT	|?g_dwTestFileSize@@3KA|		; g_dwTestFileSize
	IMPORT	|?g_dwMode@@3KA|			; g_dwMode
	IMPORT	|?g_pFileName@@3PAGA|			; g_pFileName
	IMPORT	|wcstok_s|
	IMPORT	|wcslen|

  00000			 AREA	 |.pdata|, PDATA
|$T32957| DCD	|$LN81@ParseComma|
	DCD	0xc001ac02

  00000			 AREA	 |.xdata|, DATA
|$T32953| DCD	0xffffffd8

  00000			 AREA	 |.rdata|, DATA, READONLY
|??_C@_1DM@JCBNLFOC@?$AAE?$AAR?$AAR?$AAO?$AAR?$AA?3?$AA?5?$AAN?$AAo?$AA?5?$AAf?$AAi?$AAl?$AAe?$AA?5?$AAi?$AAn?$AAf?$AAo?$AA?5?$AAs?$AAp?$AAe?$AAc?$AAi?$AAf?$AAi?$AAe?$AAd?$AA?$AA@| DCB "E"
	DCB	0x0, "R", 0x0, "R", 0x0, "O", 0x0, "R", 0x0, ":", 0x0, " "
	DCB	0x0, "N", 0x0, "o", 0x0, " ", 0x0, "f", 0x0, "i", 0x0, "l"
	DCB	0x0, "e", 0x0, " ", 0x0, "i", 0x0, "n", 0x0, "f", 0x0, "o"
	DCB	0x0, " ", 0x0, "s", 0x0, "p", 0x0, "e", 0x0, "c", 0x0, "i"
	DCB	0x0, "f", 0x0, "i", 0x0, "e", 0x0, "d", 0x0, 0x0, 0x0 ; `string'

  00000			 AREA	 |.rdata|, DATA, READONLY
|??_C@_1GO@CFNBEBID@?$AAE?$AAR?$AAR?$AAO?$AAR?$AA?3?$AA?5?$AAM?$AAu?$AAs?$AAt?$AA?5?$AAs?$AAu?$AAp?$AAp?$AAl?$AAy?$AA?5?$AAe?$AAi?$AAt?$AAh?$AAe?$AAr?$AA?5?$AAt?$AAh?$AAe?$AA?5?$AA?9?$AAr@| DCB "E"
	DCB	0x0, "R", 0x0, "R", 0x0, "O", 0x0, "R", 0x0, ":", 0x0, " "
	DCB	0x0, "M", 0x0, "u", 0x0, "s", 0x0, "t", 0x0, " ", 0x0, "s"
	DCB	0x0, "u", 0x0, "p", 0x0, "p", 0x0, "l", 0x0, "y", 0x0, " "
	DCB	0x0, "e", 0x0, "i", 0x0, "t", 0x0, "h", 0x0, "e", 0x0, "r"
	DCB	0x0, " ", 0x0, "t", 0x0, "h", 0x0, "e", 0x0, " ", 0x0, "-"
	DCB	0x0, "r", 0x0, ",", 0x0, " ", 0x0, "-", 0x0, "w", 0x0, ","
	DCB	0x0, " ", 0x0, "-", 0x0, "w", 0x0, "r", 0x0, " ", 0x0, "o"
	DCB	0x0, "r", 0x0, " ", 0x0, "-", 0x0, "c", 0x0, " ", 0x0, "o"
	DCB	0x0, "p", 0x0, "t", 0x0, "i", 0x0, "o", 0x0, "n", 0x0, 0x0
	DCB	0x0					; `string'

  00000			 AREA	 |.rdata|, DATA, READONLY
|??_C@_13FPGAJAPJ@?$AA?2?$AA?$AA@| DCB "\\", 0x0, 0x0, 0x0 ; `string'

  00000			 AREA	 |.rdata|, DATA, READONLY
|??_C@_13ODFOLHGE@?$AA?8?$AA?$AA@| DCB "'", 0x0, 0x0, 0x0 ; `string'

  00000			 AREA	 |.rdata|, DATA, READONLY
|??_C@_1FE@IKLPMNED@?$AAE?$AAR?$AAR?$AAO?$AAR?$AA?3?$AA?5?$AAE?$AAR?$AAR?$AAO?$AAR?$AA?3?$AA?5?$AAI?$AAl?$AAl?$AAe?$AAg?$AAa?$AAl?$AA?5?$AAf?$AAi?$AAl?$AAe?$AA?5?$AAi?$AAn?$AAf?$AAo?$AA?5@| DCB "E"
	DCB	0x0, "R", 0x0, "R", 0x0, "O", 0x0, "R", 0x0, ":", 0x0, " "
	DCB	0x0, "E", 0x0, "R", 0x0, "R", 0x0, "O", 0x0, "R", 0x0, ":"
	DCB	0x0, " ", 0x0, "I", 0x0, "l", 0x0, "l", 0x0, "e", 0x0, "g"
	DCB	0x0, "a", 0x0, "l", 0x0, " ", 0x0, "f", 0x0, "i", 0x0, "l"
	DCB	0x0, "e", 0x0, " ", 0x0, "i", 0x0, "n", 0x0, "f", 0x0, "o"
	DCB	0x0, " ", 0x0, "s", 0x0, "p", 0x0, "e", 0x0, "c", 0x0, "i"
	DCB	0x0, "f", 0x0, "i", 0x0, "e", 0x0, "d", 0x0, 0x0, 0x0 ; `string'

  00000			 AREA	 |.rdata|, DATA, READONLY
|??_C@_1FC@LHIMFLPJ@?$AAE?$AAR?$AAR?$AAO?$AAR?$AA?3?$AA?5?$AAI?$AAn?$AAv?$AAa?$AAl?$AAi?$AAd?$AA?5?$AAr?$AAo?$AAo?$AAt?$AA?5?$AAd?$AAi?$AAr?$AA?5?$AAi?$AAn?$AAf?$AAo?$AA?5?$AAs?$AAp?$AAe@| DCB "E"
	DCB	0x0, "R", 0x0, "R", 0x0, "O", 0x0, "R", 0x0, ":", 0x0, " "
	DCB	0x0, "I", 0x0, "n", 0x0, "v", 0x0, "a", 0x0, "l", 0x0, "i"
	DCB	0x0, "d", 0x0, " ", 0x0, "r", 0x0, "o", 0x0, "o", 0x0, "t"
	DCB	0x0, " ", 0x0, "d", 0x0, "i", 0x0, "r", 0x0, " ", 0x0, "i"
	DCB	0x0, "n", 0x0, "f", 0x0, "o", 0x0, " ", 0x0, "s", 0x0, "p"
	DCB	0x0, "e", 0x0, "c", 0x0, "i", 0x0, "f", 0x0, "i", 0x0, "e"
	DCB	0x0, "d", 0x0, 0xd, 0x0, 0xa, 0x0, 0x0, 0x0 ; `string'

  00000			 AREA	 |.rdata|, DATA, READONLY
|??_C@_15GJHBPMFF@?$AA?8?$AA?8?$AA?$AA@| DCB "'", 0x0, "'", 0x0, 0x0, 0x0 ; `string'

  00000			 AREA	 |.rdata|, DATA, READONLY
|??_C@_1EC@FKGECEGJ@?$AAE?$AAR?$AAR?$AAO?$AAR?$AA?3?$AA?5?$AAF?$AAi?$AAl?$AAe?$AA?5?$AAi?$AAn?$AAf?$AAo?$AA?5?$AAn?$AAo?$AAt?$AA?5?$AAs?$AAp?$AAe?$AAc?$AAi?$AAf?$AAi?$AAe?$AAd?$AA?$AN?$AA?6@| DCB "E"
	DCB	0x0, "R", 0x0, "R", 0x0, "O", 0x0, "R", 0x0, ":", 0x0, " "
	DCB	0x0, "F", 0x0, "i", 0x0, "l", 0x0, "e", 0x0, " ", 0x0, "i"
	DCB	0x0, "n", 0x0, "f", 0x0, "o", 0x0, " ", 0x0, "n", 0x0, "o"
	DCB	0x0, "t", 0x0, " ", 0x0, "s", 0x0, "p", 0x0, "e", 0x0, "c"
	DCB	0x0, "i", 0x0, "f", 0x0, "i", 0x0, "e", 0x0, "d", 0x0, 0xd
	DCB	0x0, 0xa, 0x0, 0x0, 0x0			; `string'

  00000			 AREA	 |.rdata|, DATA, READONLY
|??_C@_1HA@CNLOCPGF@?$AAE?$AAR?$AAR?$AAO?$AAR?$AA?3?$AA?5?$AAI?$AAl?$AAl?$AAe?$AAg?$AAa?$AAl?$AA?5?$AAc?$AAo?$AAm?$AAb?$AAi?$AAn?$AAa?$AAt?$AAi?$AAo?$AAn?$AA?5?$AAo?$AAf?$AA?5?$AA?9?$AAr@| DCB "E"
	DCB	0x0, "R", 0x0, "R", 0x0, "O", 0x0, "R", 0x0, ":", 0x0, " "
	DCB	0x0, "I", 0x0, "l", 0x0, "l", 0x0, "e", 0x0, "g", 0x0, "a"
	DCB	0x0, "l", 0x0, " ", 0x0, "c", 0x0, "o", 0x0, "m", 0x0, "b"
	DCB	0x0, "i", 0x0, "n", 0x0, "a", 0x0, "t", 0x0, "i", 0x0, "o"
	DCB	0x0, "n", 0x0, " ", 0x0, "o", 0x0, "f", 0x0, " ", 0x0, "-"
	DCB	0x0, "r", 0x0, ",", 0x0, " ", 0x0, "-", 0x0, "w", 0x0, ","
	DCB	0x0, " ", 0x0, "-", 0x0, "w", 0x0, "r", 0x0, " ", 0x0, "o"
	DCB	0x0, "r", 0x0, " ", 0x0, "-", 0x0, "c", 0x0, " ", 0x0, "o"
	DCB	0x0, "p", 0x0, "t", 0x0, "i", 0x0, "o", 0x0, "n", 0x0, "s"
	DCB	0x0, 0x0, 0x0				; `string'

  00000			 AREA	 |.rdata|, DATA, READONLY
|??_C@_1DO@EEFEDPCG@?$AAE?$AAR?$AAR?$AAO?$AAR?$AA?3?$AA?5?$AAU?$AAn?$AAr?$AAe?$AAc?$AAo?$AAg?$AAn?$AAi?$AAs?$AAe?$AAd?$AA?5?$AAo?$AAp?$AAt?$AAi?$AAo?$AAn?$AA?3?$AA?5?$AA?$CF?$AAs?$AA?$AA@| DCB "E"
	DCB	0x0, "R", 0x0, "R", 0x0, "O", 0x0, "R", 0x0, ":", 0x0, " "
	DCB	0x0, "U", 0x0, "n", 0x0, "r", 0x0, "e", 0x0, "c", 0x0, "o"
	DCB	0x0, "g", 0x0, "n", 0x0, "i", 0x0, "s", 0x0, "e", 0x0, "d"
	DCB	0x0, " ", 0x0, "o", 0x0, "p", 0x0, "t", 0x0, "i", 0x0, "o"
	DCB	0x0, "n", 0x0, ":", 0x0, " ", 0x0, "%", 0x0, "s", 0x0, 0x0
	DCB	0x0					; `string'

  00000			 AREA	 |.rdata|, DATA, READONLY
|??_C@_15LJNJHFI@?$AA?9?$AAh?$AA?$AA@| DCB "-", 0x0, "h", 0x0, 0x0, 0x0 ; `string'

  00000			 AREA	 |.rdata|, DATA, READONLY
|??_C@_15LLFLLHPE@?$AA?9?$AAv?$AA?$AA@| DCB "-", 0x0, "v", 0x0, 0x0, 0x0 ; `string'

  00000			 AREA	 |.rdata|, DATA, READONLY
|??_C@_15HGJFNINC@?$AA?9?$AAa?$AA?$AA@| DCB "-", 0x0, "a", 0x0, 0x0, 0x0 ; `string'

  00000			 AREA	 |.rdata|, DATA, READONLY
|??_C@_1GM@BPMJKPHH@?$AAE?$AAR?$AAR?$AAO?$AAR?$AA?3?$AA?5?$AAB?$AAl?$AAo?$AAc?$AAk?$AAs?$AAi?$AAz?$AAe?$AA?5?$AAo?$AAu?$AAt?$AAs?$AAi?$AAd?$AAe?$AA?5?$AAa?$AAc?$AAc?$AAe?$AAp?$AAt?$AAa@| DCB "E"
	DCB	0x0, "R", 0x0, "R", 0x0, "O", 0x0, "R", 0x0, ":", 0x0, " "
	DCB	0x0, "B", 0x0, "l", 0x0, "o", 0x0, "c", 0x0, "k", 0x0, "s"
	DCB	0x0, "i", 0x0, "z", 0x0, "e", 0x0, " ", 0x0, "o", 0x0, "u"
	DCB	0x0, "t", 0x0, "s", 0x0, "i", 0x0, "d", 0x0, "e", 0x0, " "
	DCB	0x0, "a", 0x0, "c", 0x0, "c", 0x0, "e", 0x0, "p", 0x0, "t"
	DCB	0x0, "a", 0x0, "b", 0x0, "l", 0x0, "e", 0x0, " ", 0x0, "r"
	DCB	0x0, "a", 0x0, "n", 0x0, "g", 0x0, "e", 0x0, " ", 0x0, "("
	DCB	0x0, "%", 0x0, "d", 0x0, " ", 0x0, "-", 0x0, " ", 0x0, "%"
	DCB	0x0, "d", 0x0, ")", 0x0, 0xd, 0x0, 0xa, 0x0, 0x0, 0x0 ; `string'

  00000			 AREA	 |.rdata|, DATA, READONLY
|??_C@_1EC@JNHPDFLK@?$AAE?$AAR?$AAR?$AAO?$AAR?$AA?3?$AA?5?$AAB?$AAl?$AAo?$AAc?$AAk?$AAs?$AAi?$AAz?$AAe?$AA?5?$AAn?$AAo?$AAt?$AA?5?$AAs?$AAp?$AAe?$AAc?$AAi?$AAf?$AAi?$AAe?$AAd?$AA?$AN?$AA?6@| DCB "E"
	DCB	0x0, "R", 0x0, "R", 0x0, "O", 0x0, "R", 0x0, ":", 0x0, " "
	DCB	0x0, "B", 0x0, "l", 0x0, "o", 0x0, "c", 0x0, "k", 0x0, "s"
	DCB	0x0, "i", 0x0, "z", 0x0, "e", 0x0, " ", 0x0, "n", 0x0, "o"
	DCB	0x0, "t", 0x0, " ", 0x0, "s", 0x0, "p", 0x0, "e", 0x0, "c"
	DCB	0x0, "i", 0x0, "f", 0x0, "i", 0x0, "e", 0x0, "d", 0x0, 0xd
	DCB	0x0, 0xa, 0x0, 0x0, 0x0			; `string'

  00000			 AREA	 |.rdata|, DATA, READONLY
|??_C@_15GECAHHDM@?$AA?9?$AAb?$AA?$AA@| DCB "-", 0x0, "b", 0x0, 0x0, 0x0 ; `string'

  00000			 AREA	 |.rdata|, DATA, READONLY
|??_C@_1HI@NNIGCGEL@?$AAE?$AAR?$AAR?$AAO?$AAR?$AA?3?$AA?5?$AAN?$AAu?$AAm?$AAb?$AAe?$AAr?$AA?5?$AAo?$AAf?$AA?5?$AAt?$AAe?$AAs?$AAt?$AAs?$AA?5?$AAo?$AAu?$AAt?$AAs?$AAi?$AAd?$AAe?$AA?5?$AAa@| DCB "E"
	DCB	0x0, "R", 0x0, "R", 0x0, "O", 0x0, "R", 0x0, ":", 0x0, " "
	DCB	0x0, "N", 0x0, "u", 0x0, "m", 0x0, "b", 0x0, "e", 0x0, "r"
	DCB	0x0, " ", 0x0, "o", 0x0, "f", 0x0, " ", 0x0, "t", 0x0, "e"
	DCB	0x0, "s", 0x0, "t", 0x0, "s", 0x0, " ", 0x0, "o", 0x0, "u"
	DCB	0x0, "t", 0x0, "s", 0x0, "i", 0x0, "d", 0x0, "e", 0x0, " "
	DCB	0x0, "a", 0x0, "c", 0x0, "c", 0x0, "e", 0x0, "p", 0x0, "t"
	DCB	0x0, "a", 0x0, "b", 0x0, "l", 0x0, "e", 0x0, " ", 0x0, "r"
	DCB	0x0, "a", 0x0, "n", 0x0, "g", 0x0, "e", 0x0, " ", 0x0, "("
	DCB	0x0, "%", 0x0, "d", 0x0, " ", 0x0, "-", 0x0, " ", 0x0, "%"
	DCB	0x0, "d", 0x0, ")", 0x0, 0xd, 0x0, 0xa, 0x0, 0x0, 0x0 ; `string'

  00000			 AREA	 |.rdata|, DATA, READONLY
|??_C@_1EO@EBBFGBPI@?$AAE?$AAR?$AAR?$AAO?$AAR?$AA?3?$AA?5?$AAN?$AAu?$AAm?$AAb?$AAe?$AAr?$AA?5?$AAo?$AAf?$AA?5?$AAt?$AAe?$AAs?$AAt?$AAs?$AA?5?$AAn?$AAo?$AAt?$AA?5?$AAs?$AAp?$AAe?$AAc?$AAi@| DCB "E"
	DCB	0x0, "R", 0x0, "R", 0x0, "O", 0x0, "R", 0x0, ":", 0x0, " "
	DCB	0x0, "N", 0x0, "u", 0x0, "m", 0x0, "b", 0x0, "e", 0x0, "r"
	DCB	0x0, " ", 0x0, "o", 0x0, "f", 0x0, " ", 0x0, "t", 0x0, "e"
	DCB	0x0, "s", 0x0, "t", 0x0, "s", 0x0, " ", 0x0, "n", 0x0, "o"
	DCB	0x0, "t", 0x0, " ", 0x0, "s", 0x0, "p", 0x0, "e", 0x0, "c"
	DCB	0x0, "i", 0x0, "f", 0x0, "i", 0x0, "e", 0x0, "d", 0x0, 0xd
	DCB	0x0, 0xa, 0x0, 0x0, 0x0			; `string'

  00000			 AREA	 |.rdata|, DATA, READONLY
|??_C@_15COPGMIIE@?$AA?9?$AAn?$AA?$AA@| DCB "-", 0x0, "n", 0x0, 0x0, 0x0 ; `string'

  00000			 AREA	 |.rdata|, DATA, READONLY
|??_C@_1GM@NPKDJEOF@?$AAE?$AAR?$AAR?$AAO?$AAR?$AA?3?$AA?5?$AAF?$AAi?$AAl?$AAe?$AA?5?$AAs?$AAi?$AAz?$AAe?$AA?5?$AAo?$AAu?$AAt?$AAs?$AAi?$AAd?$AAe?$AA?5?$AAa?$AAc?$AAc?$AAe?$AAp?$AAt?$AAa@| DCB "E"
	DCB	0x0, "R", 0x0, "R", 0x0, "O", 0x0, "R", 0x0, ":", 0x0, " "
	DCB	0x0, "F", 0x0, "i", 0x0, "l", 0x0, "e", 0x0, " ", 0x0, "s"
	DCB	0x0, "i", 0x0, "z", 0x0, "e", 0x0, " ", 0x0, "o", 0x0, "u"
	DCB	0x0, "t", 0x0, "s", 0x0, "i", 0x0, "d", 0x0, "e", 0x0, " "
	DCB	0x0, "a", 0x0, "c", 0x0, "c", 0x0, "e", 0x0, "p", 0x0, "t"
	DCB	0x0, "a", 0x0, "b", 0x0, "l", 0x0, "e", 0x0, " ", 0x0, "r"
	DCB	0x0, "a", 0x0, "n", 0x0, "g", 0x0, "e", 0x0, " ", 0x0, "("
	DCB	0x0, "%", 0x0, "d", 0x0, " ", 0x0, "-", 0x0, " ", 0x0, "%"
	DCB	0x0, "d", 0x0, ")", 0x0, 0xd, 0x0, 0xa, 0x0, 0x0, 0x0 ; `string'

  00000			 AREA	 |.rdata|, DATA, READONLY
|??_C@_1EC@PLKFGPIP@?$AAE?$AAR?$AAR?$AAO?$AAR?$AA?3?$AA?5?$AAF?$AAi?$AAl?$AAe?$AA?5?$AAs?$AAi?$AAz?$AAe?$AA?5?$AAn?$AAo?$AAt?$AA?5?$AAs?$AAp?$AAe?$AAc?$AAi?$AAf?$AAi?$AAe?$AAd?$AA?$AN?$AA?6@| DCB "E"
	DCB	0x0, "R", 0x0, "R", 0x0, "O", 0x0, "R", 0x0, ":", 0x0, " "
	DCB	0x0, "F", 0x0, "i", 0x0, "l", 0x0, "e", 0x0, " ", 0x0, "s"
	DCB	0x0, "i", 0x0, "z", 0x0, "e", 0x0, " ", 0x0, "n", 0x0, "o"
	DCB	0x0, "t", 0x0, " ", 0x0, "s", 0x0, "p", 0x0, "e", 0x0, "c"
	DCB	0x0, "i", 0x0, "f", 0x0, "i", 0x0, "e", 0x0, "d", 0x0, 0xd
	DCB	0x0, 0xa, 0x0, 0x0, 0x0			; `string'

  00000			 AREA	 |.rdata|, DATA, READONLY
|??_C@_15IMIFEHMG@?$AA?9?$AAs?$AA?$AA@| DCB "-", 0x0, "s", 0x0, 0x0, 0x0 ; `string'

  00000			 AREA	 |.rdata|, DATA, READONLY
|??_C@_15DOHNAJB@?$AA?9?$AAw?$AA?$AA@| DCB "-", 0x0, "w", 0x0, 0x0, 0x0 ; `string'

  00000			 AREA	 |.rdata|, DATA, READONLY
|??_C@_15DEDJCAKD@?$AA?9?$AAr?$AA?$AA@| DCB "-", 0x0, "r", 0x0, 0x0, 0x0 ; `string'

  00000			 AREA	 |.rdata|, DATA, READONLY
|??_C@_15NMJMBAFJ@?$AA?9?$AAc?$AA?$AA@| DCB "-", 0x0, "c", 0x0, 0x0, 0x0 ; `string'

  00000			 AREA	 |.rdata|, DATA, READONLY
|??_C@_17CPLPACHP@?$AA?9?$AAw?$AAr?$AA?$AA@| DCB "-", 0x0, "w", 0x0, "r", 0x0
	DCB	0x0, 0x0				; `string'

  00000			 AREA	 |.rdata|, DATA, READONLY
|??_C@_1BE@MKMKHCEH@?$AA?9?$AAf?$AAl?$AAu?$AAs?$AAh?$AAe?$AAn?$AAd?$AA?$AA@| DCB "-"
	DCB	0x0, "f", 0x0, "l", 0x0, "u", 0x0, "s", 0x0, "h", 0x0, "e"
	DCB	0x0, "n", 0x0, "d", 0x0, 0x0, 0x0	; `string'

  00000			 AREA	 |.rdata|, DATA, READONLY
|??_C@_1BE@MGPMPFFJ@?$AA?9?$AAf?$AAl?$AAu?$AAs?$AAh?$AAa?$AAl?$AAl?$AA?$AA@| DCB "-"
	DCB	0x0, "f", 0x0, "l", 0x0, "u", 0x0, "s", 0x0, "h", 0x0, "a"
	DCB	0x0, "l", 0x0, "l", 0x0, 0x0, 0x0	; `string'

  00000			 AREA	 |.rdata|, DATA, READONLY
|??_C@_1BG@IOBGMJOL@?$AA?9?$AAw?$AAr?$AAi?$AAt?$AAe?$AAt?$AAh?$AAr?$AAu?$AA?$AA@| DCB "-"
	DCB	0x0, "w", 0x0, "r", 0x0, "i", 0x0, "t", 0x0, "e", 0x0, "t"
	DCB	0x0, "h", 0x0, "r", 0x0, "u", 0x0, 0x0, 0x0 ; `string'

  00000			 AREA	 |.rdata|, DATA, READONLY
|??_C@_1BC@CCFBPLHC@?$AA?9?$AAn?$AAo?$AAc?$AAa?$AAc?$AAh?$AAe?$AA?$AA@| DCB "-"
	DCB	0x0, "n", 0x0, "o", 0x0, "c", 0x0, "a", 0x0, "c", 0x0, "h"
	DCB	0x0, "e", 0x0, 0x0, 0x0			; `string'

  00000			 AREA	 |.rdata|, DATA, READONLY
|??_C@_15DEJJBEOA@?$AA?5?$AA?7?$AA?$AA@| DCB " ", 0x0, 0x9, 0x0, 0x0, 0x0 ; `string'

  00000			 AREA	 |.rdata|, DATA, READONLY
|??_C@_1DA@BLHPMAPB@?$AAP?$AAa?$AAr?$AAs?$AAe?$AAC?$AAo?$AAm?$AAm?$AAa?$AAn?$AAd?$AAL?$AAi?$AAn?$AAe?$AA?3?$AA?5?$AA?$CF?$AAs?$AA?5?$AA?$AN?$AA?6?$AA?$AA@| DCB "P"
	DCB	0x0, "a", 0x0, "r", 0x0, "s", 0x0, "e", 0x0, "C", 0x0, "o"
	DCB	0x0, "m", 0x0, "m", 0x0, "a", 0x0, "n", 0x0, "d", 0x0, "L"
	DCB	0x0, "i", 0x0, "n", 0x0, "e", 0x0, ":", 0x0, " ", 0x0, "%"
	DCB	0x0, "s", 0x0, " ", 0x0, 0xd, 0x0, 0xa, 0x0, 0x0, 0x0 ; `string'
; Function compile flags: /Ogspy

  00000			 AREA	 |.text|, CODE, ARM

  00000	00000000	 DCD         |__GSHandlerCheck|
  00004	00000000	 DCD         |$T32953|

  00008		 |?ParseCommandLine@@YA_NPAG@Z| PROC	; ParseCommandLine

; 263  : {

  00008		 |$LN81@ParseComma|
  00008	e92d4ff0	 stmdb       sp!, {r4 - r11, lr}
  0000c	e24dd018	 sub         sp, sp, #0x18
  00010		 |$M32954|
  00010	e1a04000	 mov         r4, r0
  00014	e59f3698	 ldr         r3, [pc, #0x698]
  00018	e5933000	 ldr         r3, [r3]
  0001c	e58d3014	 str         r3, [sp, #0x14]

; 264  :     PTSTR pCmdLineOpt;
; 265  :     TCHAR ws[] = TEXT(" \t");

  00020	e59f2688	 ldr         r2, [pc, #0x688]

; 266  :     bool success = TRUE;
; 267  :     bool showHelp = FALSE;
; 268  :     wchar_t *cmdLineContext=NULL;
; 269  :     bool bGetFileName;
; 270  :     DWORD dwMode=MODE_NONE;
; 271  :     DWORD minSize;
; 272  :     DWORD maxSize;
; 273  :     
; 274  :     Debug(TEXT("ParseCommandLine: %s \r\n"),szCmdLine);

  00024	e59f0680	 ldr         r0, [pc, #0x680]
  00028	e3a0e000	 mov         lr, #0
  0002c	e5923000	 ldr         r3, [r2]
  00030	e1d220b4	 ldrh        r2, [r2, #4]
  00034	e1a01004	 mov         r1, r4
  00038	e58d300c	 str         r3, [sp, #0xC]
  0003c	e3a03000	 mov         r3, #0
  00040	e58d3004	 str         r3, [sp, #4]
  00044	e1cd21b0	 strh        r2, [sp, #0x10]
  00048	e3a06001	 mov         r6, #1
  0004c	e3a0b000	 mov         r11, #0
  00050	e58de008	 str         lr, [sp, #8]
  00054	eb000000	 bl          |?Debug@@YAXPBGZZ|

; 275  :     // Get first parameter
; 276  :     pCmdLineOpt = wcstok_s(szCmdLine, ws, &cmdLineContext);

  00058	e28d2008	 add         r2, sp, #8
  0005c	e28d100c	 add         r1, sp, #0xC
  00060	e1a00004	 mov         r0, r4
  00064	eb000000	 bl          wcstok_s
  00068	e59fa638	 ldr         r10, [pc, #0x638]
  0006c	e59f9630	 ldr         r9, [pc, #0x630]
  00070	e59f7628	 ldr         r7, [pc, #0x628]
  00074	e1b05000	 movs        r5, r0

; 277  :     while ( pCmdLineOpt != NULL )

  00078	0a00013e	 beq         |$LN66@ParseComma|
  0007c	e59f4584	 ldr         r4, [pc, #0x584]
  00080		 |$LL67@ParseComma|

; 278  :     {
; 279  :         bGetFileName = FALSE;
; 280  :         
; 281  :         // Check multi-letter options first
; 282  :         if (wcsicmp(pCmdLineOpt, TEXT("-nocache")) == 0)

  00080	e59f1614	 ldr         r1, [pc, #0x614]
  00084	e1a00005	 mov         r0, r5
  00088	e3a08000	 mov         r8, #0
  0008c	eb000000	 bl          _wcsicmp
  00090	e3500000	 cmp         r0, #0
  00094	1a000003	 bne         |$LN65@ParseComma|

; 283  :         {
; 284  :             g_bNoCaching = TRUE;

  00098	e59f35f8	 ldr         r3, [pc, #0x5F8]
  0009c		 |$LN74@ParseComma|
  0009c	e3a02001	 mov         r2, #1
  000a0	e5c32000	 strb        r2, [r3]
  000a4	ea0000ba	 b           |$LN73@ParseComma|
  000a8		 |$LN65@ParseComma|

; 285  :         }
; 286  :         else if (wcsicmp(pCmdLineOpt, TEXT("-writethru")) == 0)

  000a8	e59f15e4	 ldr         r1, [pc, #0x5E4]
  000ac	e1a00005	 mov         r0, r5
  000b0	eb000000	 bl          _wcsicmp
  000b4	e3500000	 cmp         r0, #0

; 287  :         {
; 288  :             g_bWriteThrough = TRUE;

  000b8	059f35d0	 ldreq       r3, [pc, #0x5D0]
  000bc	0afffff6	 beq         |$LN74@ParseComma|

; 289  :         }
; 290  :         else if (wcsicmp(pCmdLineOpt, TEXT("-flushall")) == 0)

  000c0	e59f15c4	 ldr         r1, [pc, #0x5C4]
  000c4	e1a00005	 mov         r0, r5
  000c8	eb000000	 bl          _wcsicmp
  000cc	e3500000	 cmp         r0, #0

; 291  :         {
; 292  :             g_bFlushBuffersOnWrite = TRUE;

  000d0	059f35b0	 ldreq       r3, [pc, #0x5B0]
  000d4	0afffff0	 beq         |$LN74@ParseComma|

; 293  :         }
; 294  :         else if (wcsicmp(pCmdLineOpt, TEXT("-flushend")) == 0)

  000d8	e59f15a4	 ldr         r1, [pc, #0x5A4]
  000dc	e1a00005	 mov         r0, r5
  000e0	eb000000	 bl          _wcsicmp
  000e4	e3500000	 cmp         r0, #0

; 295  :         {
; 296  :             g_bFlushBuffersOnClose = TRUE;

  000e8	059f3590	 ldreq       r3, [pc, #0x590]
  000ec	0affffea	 beq         |$LN74@ParseComma|

; 297  :         }
; 298  :         else if (wcsicmp(pCmdLineOpt, TEXT("-wr")) == 0)

  000f0	e59f1584	 ldr         r1, [pc, #0x584]
  000f4	e1a00005	 mov         r0, r5
  000f8	eb000000	 bl          _wcsicmp
  000fc	e3500000	 cmp         r0, #0

; 299  :         {
; 300  :             dwMode = MODE_WRITEREAD;

  00100	03a02003	 moveq       r2, #3
  00104	0a000011	 beq         |$LN76@ParseComma|

; 301  :             bGetFileName = TRUE;
; 302  :         }
; 303  :         
; 304  :         // Now check single letter options
; 305  :         else if (wcsicmp(pCmdLineOpt, TEXT("-c")) == 0)

  00108	e59f1568	 ldr         r1, [pc, #0x568]
  0010c	e1a00005	 mov         r0, r5
  00110	eb000000	 bl          _wcsicmp
  00114	e3500000	 cmp         r0, #0

; 306  :         {
; 307  :             dwMode = MODE_VERIFY;

  00118	03a02004	 moveq       r2, #4
  0011c	0a00000b	 beq         |$LN76@ParseComma|

; 308  :             bGetFileName = TRUE;
; 309  :         }
; 310  :         else if (wcsicmp(pCmdLineOpt, TEXT("-r")) == 0)

  00120	e59f154c	 ldr         r1, [pc, #0x54C]
  00124	e1a00005	 mov         r0, r5
  00128	eb000000	 bl          _wcsicmp
  0012c	e3500000	 cmp         r0, #0

; 311  :         {
; 312  :             dwMode = MODE_READ;

  00130	03a02001	 moveq       r2, #1
  00134	0a000005	 beq         |$LN76@ParseComma|

; 313  :             bGetFileName = TRUE;
; 314  :         }
; 315  :         else if (wcsicmp(pCmdLineOpt, TEXT("-w")) == 0)

  00138	e59f1530	 ldr         r1, [pc, #0x530]
  0013c	e1a00005	 mov         r0, r5
  00140	eb000000	 bl          _wcsicmp
  00144	e3500000	 cmp         r0, #0
  00148	1a000003	 bne         |$LN51@ParseComma|

; 316  :         {
; 317  :             dwMode = MODE_WRITE;

  0014c	e3a02002	 mov         r2, #2
  00150		 |$LN76@ParseComma|
  00150	e58d2004	 str         r2, [sp, #4]

; 318  :             bGetFileName = TRUE;

  00154	e3a08001	 mov         r8, #1
  00158	ea00008e	 b           |$LN25@ParseComma|
  0015c		 |$LN51@ParseComma|

; 319  :         }
; 320  :         else if (wcsicmp(pCmdLineOpt, TEXT("-s")) == 0)

  0015c	e59f1508	 ldr         r1, [pc, #0x508]
  00160	e1a00005	 mov         r0, r5
  00164	eb000000	 bl          _wcsicmp
  00168	e3500000	 cmp         r0, #0
  0016c	1a000020	 bne         |$LN49@ParseComma|

; 321  :         {
; 322  :             pCmdLineOpt = wcstok_s(NULL, ws, &cmdLineContext);

  00170	e28d2008	 add         r2, sp, #8
  00174	e28d100c	 add         r1, sp, #0xC
  00178	e3a00000	 mov         r0, #0
  0017c	eb000000	 bl          wcstok_s
  00180	e3500000	 cmp         r0, #0

; 323  :             if ( pCmdLineOpt == NULL )

  00184	1a000007	 bne         |$LN48@ParseComma|

; 324  :             {
; 325  :                 g_pKato->Log(LOG_FAIL,
; 326  :                              TEXT("ERROR: File size not specified\r\n"));

  00188	e59f3470	 ldr         r3, [pc, #0x470]
  0018c	e5970000	 ldr         r0, [r7]
  00190	e59f24d0	 ldr         r2, [pc, #0x4D0]
  00194	e5933000	 ldr         r3, [r3]
  00198	e3a01002	 mov         r1, #2
  0019c	e1a0e00f	 mov         lr, pc
  001a0	e12fff13	 bx          r3

; 327  :                 success = FALSE;
; 328  :             }
; 329  :             else

  001a4	ea000079	 b           |$LN75@ParseComma|
  001a8		 |$LN48@ParseComma|

; 330  :             {
; 331  :                 minSize = FILE_SIZE_MIN;
; 332  :                 maxSize = FILE_SIZE_MAX;
; 333  :                 g_dwTestFileSize = _ttoi(pCmdLineOpt);

  001a8	eb000000	 bl          _wtol
  001ac	e5840000	 str         r0, [r4]

; 334  :                 if (g_dwTestFileSize < minSize || g_dwTestFileSize > maxSize)

  001b0	e3500001	 cmp         r0, #1
  001b4	3a000003	 bcc         |$LN45@ParseComma|
  001b8	e3500c02	 cmp         r0, #2, 24

; 339  :                     success = FALSE;
; 340  :                 }
; 341  :                 else 
; 342  :                 {
; 343  :                     g_dwTestFileSize *= (1024 * 1024);

  001bc	91a03a00	 movls       r3, r0, lsl #20
  001c0	95843000	 strls       r3, [r4]
  001c4	9a000072	 bls         |$LN73@ParseComma|
  001c8		 |$LN45@ParseComma|

; 335  :                 {
; 336  :                     g_pKato->Log(LOG_FAIL,
; 337  :                                  TEXT("ERROR: File size outside acceptable range (%d - %d)\r\n"),
; 338  :                                  minSize, maxSize);

  001c8	e59f3430	 ldr         r3, [pc, #0x430]
  001cc	e5970000	 ldr         r0, [r7]
  001d0	e59f248c	 ldr         r2, [pc, #0x48C]
  001d4	e5934000	 ldr         r4, [r3]
  001d8	e3a05c02	 mov         r5, #2, 24
  001dc	e3a03001	 mov         r3, #1
  001e0	e3a01002	 mov         r1, #2
  001e4	e58d5000	 str         r5, [sp]
  001e8	e1a0e00f	 mov         lr, pc
  001ec	e12fff14	 bx          r4

; 344  :                 }
; 345  :             }

  001f0	ea000066	 b           |$LN75@ParseComma|
  001f4		 |$LN49@ParseComma|

; 346  : 
; 347  :         }
; 348  :         else if (wcsicmp(pCmdLineOpt, TEXT("-n")) == 0)

  001f4	e59f1464	 ldr         r1, [pc, #0x464]
  001f8	e1a00005	 mov         r0, r5
  001fc	eb000000	 bl          _wcsicmp
  00200	e3500000	 cmp         r0, #0
  00204	1a000022	 bne         |$LN42@ParseComma|

; 349  :         {
; 350  :             pCmdLineOpt = wcstok_s(NULL, ws, &cmdLineContext);

  00208	e28d2008	 add         r2, sp, #8
  0020c	e28d100c	 add         r1, sp, #0xC
  00210	e3a00000	 mov         r0, #0
  00214	eb000000	 bl          wcstok_s
  00218	e3500000	 cmp         r0, #0

; 351  :             if ( pCmdLineOpt == NULL )

  0021c	1a000007	 bne         |$LN41@ParseComma|

; 352  :             {
; 353  :                 g_pKato->Log(LOG_FAIL,
; 354  :                              TEXT("ERROR: Number of tests not specified\r\n"));

  00220	e59f33d8	 ldr         r3, [pc, #0x3D8]
  00224	e5970000	 ldr         r0, [r7]
  00228	e59f242c	 ldr         r2, [pc, #0x42C]
  0022c	e5933000	 ldr         r3, [r3]
  00230	e3a01002	 mov         r1, #2
  00234	e1a0e00f	 mov         lr, pc
  00238	e12fff13	 bx          r3

; 355  :                 success = FALSE;
; 356  :             }
; 357  :             else

  0023c	ea000053	 b           |$LN75@ParseComma|
  00240		 |$LN41@ParseComma|

; 358  :             {
; 359  :                 minSize = NUM_TESTS_MIN;
; 360  :                 maxSize = NUM_TESTS_MAX;
; 361  :                 g_dwNumTests = _ttoi(pCmdLineOpt);

  00240	eb000000	 bl          _wtol
  00244	e59f340c	 ldr         r3, [pc, #0x40C]

; 362  :                 if (g_dwNumTests < minSize || g_dwNumTests > maxSize)

  00248	e3500001	 cmp         r0, #1
  0024c	e5830000	 str         r0, [r3]
  00250	3a000003	 bcc         |$LN38@ParseComma|
  00254	e3a02c09	 mov         r2, #9, 24
  00258	e38230c4	 orr         r3, r2, #0xC4
  0025c	e1500003	 cmp         r0, r3
  00260	9a00004b	 bls         |$LN73@ParseComma|
  00264		 |$LN38@ParseComma|

; 363  :                 {
; 364  :                     g_pKato->Log(LOG_FAIL,
; 365  :                                  TEXT("ERROR: Number of tests outside acceptable range (%d - %d)\r\n"),
; 366  :                                  minSize, maxSize);

  00264	e59f3394	 ldr         r3, [pc, #0x394]
  00268	e3a06c09	 mov         r6, #9, 24
  0026c	e5970000	 ldr         r0, [r7]
  00270	e5934000	 ldr         r4, [r3]
  00274	e59f23d8	 ldr         r2, [pc, #0x3D8]
  00278	e38650c4	 orr         r5, r6, #0xC4
  0027c	e3a03001	 mov         r3, #1
  00280	e3a01002	 mov         r1, #2
  00284	e58d5000	 str         r5, [sp]
  00288	e1a0e00f	 mov         lr, pc
  0028c	e12fff14	 bx          r4

; 367  :                     success = FALSE;
; 368  :                 }
; 369  :             }

  00290	ea00003e	 b           |$LN75@ParseComma|
  00294		 |$LN42@ParseComma|

; 370  :         }
; 371  :         else if (wcsicmp(pCmdLineOpt, TEXT("-b")) == 0)

  00294	e59f13b4	 ldr         r1, [pc, #0x3B4]
  00298	e1a00005	 mov         r0, r5
  0029c	eb000000	 bl          _wcsicmp
  002a0	e3500000	 cmp         r0, #0
  002a4	1a00001f	 bne         |$LN36@ParseComma|

; 372  :         {
; 373  :             pCmdLineOpt = wcstok_s(NULL, ws, &cmdLineContext);

  002a8	e28d2008	 add         r2, sp, #8
  002ac	e28d100c	 add         r1, sp, #0xC
  002b0	e3a00000	 mov         r0, #0
  002b4	eb000000	 bl          wcstok_s
  002b8	e3500000	 cmp         r0, #0

; 374  :             if ( pCmdLineOpt == NULL )

  002bc	1a000007	 bne         |$LN35@ParseComma|

; 375  :             {
; 376  :                 g_pKato->Log(LOG_FAIL,
; 377  :                              TEXT("ERROR: Blocksize not specified\r\n"));

  002c0	e59f3338	 ldr         r3, [pc, #0x338]
  002c4	e5970000	 ldr         r0, [r7]
  002c8	e59f237c	 ldr         r2, [pc, #0x37C]
  002cc	e5933000	 ldr         r3, [r3]
  002d0	e3a01002	 mov         r1, #2
  002d4	e1a0e00f	 mov         lr, pc
  002d8	e12fff13	 bx          r3

; 378  :                 success = FALSE;
; 379  :             }
; 380  :             else

  002dc	ea00002b	 b           |$LN75@ParseComma|
  002e0		 |$LN35@ParseComma|

; 381  :             {
; 382  :                 minSize = BLOCK_SIZE_MIN;
; 383  :                 maxSize = BLOCK_SIZE_MAX;
; 384  :                 g_dwBlockSize = _ttoi(pCmdLineOpt);

  002e0	eb000000	 bl          _wtol
  002e4	e59f335c	 ldr         r3, [pc, #0x35C]

; 385  :                 if (g_dwBlockSize < minSize || g_dwBlockSize > maxSize)

  002e8	e3500080	 cmp         r0, #0x80
  002ec	e5830000	 str         r0, [r3]
  002f0	3a000001	 bcc         |$LN32@ParseComma|
  002f4	e3500701	 cmp         r0, #1, 14
  002f8	9a000025	 bls         |$LN73@ParseComma|
  002fc		 |$LN32@ParseComma|

; 386  :                 {
; 387  :                     g_pKato->Log(LOG_FAIL,
; 388  :                                  TEXT("ERROR: Blocksize outside acceptable range (%d - %d)\r\n"),
; 389  :                                  minSize, maxSize);

  002fc	e59f32fc	 ldr         r3, [pc, #0x2FC]
  00300	e5970000	 ldr         r0, [r7]
  00304	e59f2338	 ldr         r2, [pc, #0x338]
  00308	e5934000	 ldr         r4, [r3]
  0030c	e3a05701	 mov         r5, #1, 14
  00310	e3a03080	 mov         r3, #0x80
  00314	e3a01002	 mov         r1, #2
  00318	e58d5000	 str         r5, [sp]
  0031c	e1a0e00f	 mov         lr, pc
  00320	e12fff14	 bx          r4

; 390  :                     success = FALSE;
; 391  :                 }
; 392  :             }

  00324	ea000019	 b           |$LN75@ParseComma|
  00328		 |$LN36@ParseComma|

; 393  :         }
; 394  :         else if (wcsicmp(pCmdLineOpt, TEXT("-a")) == 0)

  00328	e59f1310	 ldr         r1, [pc, #0x310]
  0032c	e1a00005	 mov         r0, r5
  00330	eb000000	 bl          _wcsicmp
  00334	e3500000	 cmp         r0, #0

; 395  :         {
; 396  :             g_bDoAllTests = TRUE;

  00338	059f32fc	 ldreq       r3, [pc, #0x2FC]
  0033c	0affff56	 beq         |$LN74@ParseComma|

; 397  :         }
; 398  :         else if (wcsicmp(pCmdLineOpt, TEXT("-v")) == 0)

  00340	e59f12f0	 ldr         r1, [pc, #0x2F0]
  00344	e1a00005	 mov         r0, r5
  00348	eb000000	 bl          _wcsicmp
  0034c	e3500000	 cmp         r0, #0

; 399  :         {
; 400  :             g_bVerboseOutput = TRUE;

  00350	059f32dc	 ldreq       r3, [pc, #0x2DC]
  00354	0affff50	 beq         |$LN74@ParseComma|

; 401  :         }
; 402  :         else if (wcsicmp(pCmdLineOpt, TEXT("-h")) == 0)

  00358	e59f12d0	 ldr         r1, [pc, #0x2D0]
  0035c	e1a00005	 mov         r0, r5
  00360	eb000000	 bl          _wcsicmp
  00364	e3500000	 cmp         r0, #0

; 403  :         {
; 404  :             showHelp = TRUE;

  00368	03a0b001	 moveq       r11, #1
  0036c	0a000008	 beq         |$LN73@ParseComma|

; 405  :         }
; 406  :         else
; 407  :         {
; 408  :             g_pKato->Log(LOG_FAIL,
; 409  :                          TEXT("ERROR: Unrecognised option: %s"),
; 410  :                          pCmdLineOpt);

  00370	e59f3288	 ldr         r3, [pc, #0x288]
  00374	e5970000	 ldr         r0, [r7]
  00378	e59f22ac	 ldr         r2, [pc, #0x2AC]
  0037c	e5934000	 ldr         r4, [r3]
  00380	e1a03005	 mov         r3, r5
  00384	e3a01002	 mov         r1, #2
  00388	e1a0e00f	 mov         lr, pc
  0038c	e12fff14	 bx          r4
  00390		 |$LN75@ParseComma|

; 411  :             success = FALSE;

  00390	e3a06000	 mov         r6, #0
  00394		 |$LN73@ParseComma|

; 355  :                 success = FALSE;
; 356  :             }
; 357  :             else

  00394	e59d2004	 ldr         r2, [sp, #4]

; 411  :             success = FALSE;

  00398		 |$LN25@ParseComma|

; 412  :         }
; 413  : 
; 414  :         if ( bGetFileName )

  00398	e3580000	 cmp         r8, #0
  0039c	0a00006e	 beq         |$LN6@ParseComma|

; 415  :         {
; 416  :             if ( g_dwMode != MODE_NONE )

  003a0	e5993000	 ldr         r3, [r9]
  003a4	e3530000	 cmp         r3, #0
  003a8	0a000008	 beq         |$LN23@ParseComma|

; 417  :             {
; 418  :                 g_pKato->Log(LOG_FAIL,
; 419  :                          TEXT("ERROR: Illegal combination of -r, -w, -wr or -c options"));

  003ac	e59f324c	 ldr         r3, [pc, #0x24C]
  003b0	e5970000	 ldr         r0, [r7]
  003b4	e59f226c	 ldr         r2, [pc, #0x26C]
  003b8	e5933000	 ldr         r3, [r3]
  003bc	e3a01002	 mov         r1, #2
  003c0	e1a0e00f	 mov         lr, pc
  003c4	e12fff13	 bx          r3

; 471  :                         success = FALSE;

  003c8	e3a06000	 mov         r6, #0
  003cc	ea000062	 b           |$LN6@ParseComma|
  003d0		 |$LN23@ParseComma|

; 420  :                 success = FALSE;
; 421  :             }
; 422  :             else
; 423  :             {
; 424  :                 g_dwMode = dwMode;
; 425  : 
; 426  :                 if ( wcslen(cmdLineContext) < 2 )

  003d0	e59d4008	 ldr         r4, [sp, #8]
  003d4	e5892000	 str         r2, [r9]
  003d8	e1a00004	 mov         r0, r4
  003dc	eb000000	 bl          wcslen
  003e0	e3500002	 cmp         r0, #2
  003e4	2a000008	 bcs         |$LN21@ParseComma|

; 427  :                 {
; 428  :                     g_pKato->Log(LOG_FAIL,
; 429  :                                  TEXT("ERROR: File info not specified\r\n"));

  003e8	e59f3210	 ldr         r3, [pc, #0x210]
  003ec	e5970000	 ldr         r0, [r7]
  003f0	e59f2220	 ldr         r2, [pc, #0x220]
  003f4	e5933000	 ldr         r3, [r3]
  003f8	e3a01002	 mov         r1, #2
  003fc	e1a0e00f	 mov         lr, pc
  00400	e12fff13	 bx          r3

; 471  :                         success = FALSE;

  00404	e3a06000	 mov         r6, #0
  00408	ea000053	 b           |$LN6@ParseComma|
  0040c		 |$LN21@ParseComma|

; 430  :                     success = FALSE;
; 431  :                 }
; 432  :                 else if ( (cmdLineContext[0] == '\'') &&
; 433  :                           (cmdLineContext[1] == '\'') )

  0040c	e1d430b0	 ldrh        r3, [r4]
  00410	e3530027	 cmp         r3, #0x27
  00414	1a00002a	 bne         |$LN19@ParseComma|
  00418	e1d430b2	 ldrh        r3, [r4, #2]
  0041c	e3530027	 cmp         r3, #0x27
  00420	1a000027	 bne         |$LN19@ParseComma|

; 434  :                 {
; 435  :                     pCmdLineOpt = wcstok_s(NULL, ws, &cmdLineContext);

  00424	e28d2008	 add         r2, sp, #8
  00428	e28d100c	 add         r1, sp, #0xC
  0042c	e3a00000	 mov         r0, #0
  00430	eb000000	 bl          wcstok_s
  00434	e3500000	 cmp         r0, #0

; 436  :                     if ( pCmdLineOpt == NULL )

  00438	1a000008	 bne         |$LN18@ParseComma|

; 437  :                     {
; 438  :                         g_pKato->Log(LOG_FAIL,
; 439  :                                      TEXT("ERROR: File info not specified\r\n"));

  0043c	e59f31bc	 ldr         r3, [pc, #0x1BC]
  00440	e5970000	 ldr         r0, [r7]
  00444	e59f21cc	 ldr         r2, [pc, #0x1CC]
  00448	e5933000	 ldr         r3, [r3]
  0044c	e3a01002	 mov         r1, #2
  00450	e1a0e00f	 mov         lr, pc
  00454	e12fff13	 bx          r3

; 471  :                         success = FALSE;

  00458	e3a06000	 mov         r6, #0
  0045c	ea00003e	 b           |$LN6@ParseComma|
  00460		 |$LN18@ParseComma|

; 440  :                         success = FALSE;
; 441  : 
; 442  :                     }
; 443  :                     else if ( wcsicmp(pCmdLineOpt, TEXT("''")) != 0 )

  00460	e59f11bc	 ldr         r1, [pc, #0x1BC]
  00464	eb000000	 bl          _wcsicmp
  00468	e3500000	 cmp         r0, #0
  0046c	0a000008	 beq         |$LN16@ParseComma|

; 444  :                     {
; 445  :                         g_pKato->Log(LOG_FAIL,
; 446  :                                      TEXT("ERROR: Invalid root dir info specified\r\n"));

  00470	e59f3188	 ldr         r3, [pc, #0x188]
  00474	e5970000	 ldr         r0, [r7]
  00478	e59f21a0	 ldr         r2, [pc, #0x1A0]
  0047c	e5933000	 ldr         r3, [r3]
  00480	e3a01002	 mov         r1, #2
  00484	e1a0e00f	 mov         lr, pc
  00488	e12fff13	 bx          r3

; 471  :                         success = FALSE;

  0048c	e3a06000	 mov         r6, #0
  00490	ea000031	 b           |$LN6@ParseComma|
  00494		 |$LN16@ParseComma|

; 447  :                         success = FALSE;
; 448  :                     }
; 449  :                     else
; 450  :                     {
; 451  :                         // Root dir supplied (special case)
; 452  :                         if ( g_dwMode != MODE_VERIFY )

  00494	e5993000	 ldr         r3, [r9]
  00498	e3530004	 cmp         r3, #4
  0049c	0a000028	 beq         |$LN8@ParseComma|

; 453  :                         {
; 454  :                             g_pKato->Log(LOG_FAIL,
; 455  :                                  TEXT("ERROR: ERROR: Illegal file info specified"));

  004a0	e59f3158	 ldr         r3, [pc, #0x158]
  004a4	e5970000	 ldr         r0, [r7]
  004a8	e59f2160	 ldr         r2, [pc, #0x160]
  004ac	e5933000	 ldr         r3, [r3]
  004b0	e3a01002	 mov         r1, #2
  004b4	e1a0e00f	 mov         lr, pc
  004b8	e12fff13	 bx          r3

; 471  :                         success = FALSE;

  004bc	e3a06000	 mov         r6, #0
  004c0	ea000025	 b           |$LN6@ParseComma|
  004c4		 |$LN19@ParseComma|

; 456  :                             success = FALSE;
; 457  :                         }
; 458  :                         else
; 459  :                         {
; 460  :                             g_pFileName = TEXT("");
; 461  :                         }
; 462  :                     }
; 463  :                 }
; 464  :                 else
; 465  :                 {
; 466  :                     pCmdLineOpt = wcstok_s(NULL, TEXT("'"), &cmdLineContext);

  004c4	e59f1150	 ldr         r1, [pc, #0x150]
  004c8	e28d2008	 add         r2, sp, #8
  004cc	e3a00000	 mov         r0, #0
  004d0	eb000000	 bl          wcstok_s
  004d4	e1b04000	 movs        r4, r0

; 467  :                     if ( pCmdLineOpt == NULL )

  004d8	1a000008	 bne         |$LN11@ParseComma|

; 468  :                     {
; 469  :                         g_pKato->Log(LOG_FAIL,
; 470  :                                      TEXT("ERROR: File info not specified\r\n"));

  004dc	e59f311c	 ldr         r3, [pc, #0x11C]
  004e0	e5970000	 ldr         r0, [r7]
  004e4	e59f212c	 ldr         r2, [pc, #0x12C]
  004e8	e5933000	 ldr         r3, [r3]
  004ec	e3a01002	 mov         r1, #2
  004f0	e1a0e00f	 mov         lr, pc
  004f4	e12fff13	 bx          r3

; 471  :                         success = FALSE;

  004f8	e3a06000	 mov         r6, #0
  004fc	ea000016	 b           |$LN6@ParseComma|
  00500		 |$LN11@ParseComma|

; 472  :                     }
; 473  :                     else if ( wcsicmp(pCmdLineOpt, TEXT("\\")) == 0 )

  00500	e59f110c	 ldr         r1, [pc, #0x10C]
  00504	e1a00004	 mov         r0, r4
  00508	eb000000	 bl          _wcsicmp
  0050c	e3500000	 cmp         r0, #0
  00510	1a00000e	 bne         |$LN9@ParseComma|

; 474  :                     {
; 475  :                         if ( g_dwMode != MODE_VERIFY )

  00514	e5993000	 ldr         r3, [r9]
  00518	e3530004	 cmp         r3, #4
  0051c	0a000008	 beq         |$LN8@ParseComma|

; 476  :                         {
; 477  :                             g_pKato->Log(LOG_FAIL,
; 478  :                                  TEXT("ERROR: ERROR: Illegal file info specified"));

  00520	e59f30d8	 ldr         r3, [pc, #0xD8]
  00524	e5970000	 ldr         r0, [r7]
  00528	e59f20e0	 ldr         r2, [pc, #0xE0]
  0052c	e5933000	 ldr         r3, [r3]
  00530	e3a01002	 mov         r1, #2
  00534	e1a0e00f	 mov         lr, pc
  00538	e12fff13	 bx          r3
  0053c	e3a06000	 mov         r6, #0
  00540	ea000005	 b           |$LN6@ParseComma|
  00544		 |$LN8@ParseComma|

; 479  :                             success = FALSE;
; 480  :                         }
; 481  :                         else
; 482  :                         {
; 483  :                             g_pFileName = TEXT("");

  00544	e59f30c0	 ldr         r3, [pc, #0xC0]
  00548	e58a3000	 str         r3, [r10]

; 484  :                         }
; 485  :                     }
; 486  :                     else

  0054c	ea000002	 b           |$LN6@ParseComma|
  00550		 |$LN9@ParseComma|

; 487  :                     {
; 488  :                         g_pFileName = _wcsdup(pCmdLineOpt);

  00550	e1a00004	 mov         r0, r4
  00554	eb000000	 bl          _wcsdup
  00558	e58a0000	 str         r0, [r10]
  0055c		 |$LN6@ParseComma|

; 489  :                     }
; 490  :                 }
; 491  :             }
; 492  :         }
; 493  : 
; 494  :         // Get next parameter
; 495  :         pCmdLineOpt = wcstok_s(NULL, ws, &cmdLineContext);

  0055c	e28d2008	 add         r2, sp, #8
  00560	e28d100c	 add         r1, sp, #0xC
  00564	e3a00000	 mov         r0, #0
  00568	eb000000	 bl          wcstok_s
  0056c	e59f4094	 ldr         r4, [pc, #0x94]
  00570	e1b05000	 movs        r5, r0
  00574	1afffec1	 bne         |$LL67@ParseComma|
  00578		 |$LN66@ParseComma|

; 496  : 
; 497  :     }
; 498  : 
; 499  :     if ( g_dwMode == MODE_NONE )

  00578	e5993000	 ldr         r3, [r9]
  0057c	e3530000	 cmp         r3, #0
  00580	1a000007	 bne         |$LN5@ParseComma|

; 500  :     {
; 501  :         g_pKato->Log(LOG_FAIL,
; 502  :                      TEXT("ERROR: Must supply either the -r, -w, -wr or -c option"));

  00584	e59f3074	 ldr         r3, [pc, #0x74]
  00588	e59f2074	 ldr         r2, [pc, #0x74]
  0058c	e5970000	 ldr         r0, [r7]
  00590	e5933000	 ldr         r3, [r3]
  00594	e3a01002	 mov         r1, #2
  00598	e1a0e00f	 mov         lr, pc
  0059c	e12fff13	 bx          r3

; 503  :         success = FALSE;

  005a0	ea000009	 b           |$LN78@ParseComma|
  005a4		 |$LN5@ParseComma|

; 504  :     }
; 505  :     else if ( g_pFileName == NULL )

  005a4	e59a3000	 ldr         r3, [r10]
  005a8	e3530000	 cmp         r3, #0
  005ac	1a000007	 bne         |$LN3@ParseComma|

; 506  :     {
; 507  :         g_pKato->Log(LOG_FAIL,
; 508  :                      TEXT("ERROR: No file info specified"));

  005b0	e59f3048	 ldr         r3, [pc, #0x48]
  005b4	e59f2040	 ldr         r2, [pc, #0x40]
  005b8	e5970000	 ldr         r0, [r7]
  005bc	e5933000	 ldr         r3, [r3]
  005c0	e3a01002	 mov         r1, #2
  005c4	e1a0e00f	 mov         lr, pc
  005c8	e12fff13	 bx          r3
  005cc		 |$LN78@ParseComma|

; 509  :         success = FALSE;

  005cc	e3a06000	 mov         r6, #0
  005d0		 |$LN3@ParseComma|

; 510  :     }
; 511  : 
; 512  : 
; 513  :     if ( showHelp || !success )

  005d0	e35b0000	 cmp         r11, #0
  005d4	1a000001	 bne         |$LN1@ParseComma|
  005d8	e3560000	 cmp         r6, #0
  005dc	1a000000	 bne         |$LN2@ParseComma|
  005e0		 |$LN1@ParseComma|

; 514  :     {
; 515  :         LogHelpInfo();

  005e0	eb000000	 bl          |?LogHelpInfo@@YAXXZ|
  005e4		 |$LN2@ParseComma|

; 516  :     }
; 517  : 
; 518  :     return success;

  005e4	e59d0014	 ldr         r0, [sp, #0x14]
  005e8	eb000000	 bl          __security_check_cookie

; 519  : }

  005ec	e1a00006	 mov         r0, r6
  005f0	e28dd018	 add         sp, sp, #0x18
  005f4	e8bd4ff0	 ldmia       sp!, {r4 - r11, lr}
  005f8	e12fff1e	 bx          lr
  005fc		 |$LN82@ParseComma|
  005fc		 |$LN83@ParseComma|
  005fc	00000000	 DCD         |??_C@_1DM@JCBNLFOC@?$AAE?$AAR?$AAR?$AAO?$AAR?$AA?3?$AA?5?$AAN?$AAo?$AA?5?$AAf?$AAi?$AAl?$AAe?$AA?5?$AAi?$AAn?$AAf?$AAo?$AA?5?$AAs?$AAp?$AAe?$AAc?$AAi?$AAf?$AAi?$AAe?$AAd?$AA?$AA@|
  00600		 |$LN84@ParseComma|
  00600	00000000	 DCD         |__imp_?Log@CKato@@QAAHKPBGZZ|
  00604		 |$LN85@ParseComma|
  00604	00000000	 DCD         |??_C@_1GO@CFNBEBID@?$AAE?$AAR?$AAR?$AAO?$AAR?$AA?3?$AA?5?$AAM?$AAu?$AAs?$AAt?$AA?5?$AAs?$AAu?$AAp?$AAp?$AAl?$AAy?$AA?5?$AAe?$AAi?$AAt?$AAh?$AAe?$AAr?$AA?5?$AAt?$AAh?$AAe?$AA?5?$AA?9?$AAr@|
  00608		 |$LN86@ParseComma|
  00608	00000000	 DCD         |?g_dwTestFileSize@@3KA|
  0060c		 |$LN87@ParseComma|
  0060c	00000000	 DCD         |??_C@_11LOCGONAA@?$AA?$AA@|
  00610		 |$LN88@ParseComma|
  00610	00000000	 DCD         |??_C@_1FE@IKLPMNED@?$AAE?$AAR?$AAR?$AAO?$AAR?$AA?3?$AA?5?$AAE?$AAR?$AAR?$AAO?$AAR?$AA?3?$AA?5?$AAI?$AAl?$AAl?$AAe?$AAg?$AAa?$AAl?$AA?5?$AAf?$AAi?$AAl?$AAe?$AA?5?$AAi?$AAn?$AAf?$AAo?$AA?5@|
  00614		 |$LN89@ParseComma|
  00614	00000000	 DCD         |??_C@_13FPGAJAPJ@?$AA?2?$AA?$AA@|
  00618		 |$LN90@ParseComma|
  00618	00000000	 DCD         |??_C@_1EC@FKGECEGJ@?$AAE?$AAR?$AAR?$AAO?$AAR?$AA?3?$AA?5?$AAF?$AAi?$AAl?$AAe?$AA?5?$AAi?$AAn?$AAf?$AAo?$AA?5?$AAn?$AAo?$AAt?$AA?5?$AAs?$AAp?$AAe?$AAc?$AAi?$AAf?$AAi?$AAe?$AAd?$AA?$AN?$AA?6@|
  0061c		 |$LN91@ParseComma|
  0061c	00000000	 DCD         |??_C@_13ODFOLHGE@?$AA?8?$AA?$AA@|
  00620		 |$LN92@ParseComma|
  00620	00000000	 DCD         |??_C@_1FC@LHIMFLPJ@?$AAE?$AAR?$AAR?$AAO?$AAR?$AA?3?$AA?5?$AAI?$AAn?$AAv?$AAa?$AAl?$AAi?$AAd?$AA?5?$AAr?$AAo?$AAo?$AAt?$AA?5?$AAd?$AAi?$AAr?$AA?5?$AAi?$AAn?$AAf?$AAo?$AA?5?$AAs?$AAp?$AAe@|
  00624		 |$LN93@ParseComma|
  00624	00000000	 DCD         |??_C@_15GJHBPMFF@?$AA?8?$AA?8?$AA?$AA@|
  00628		 |$LN94@ParseComma|
  00628	00000000	 DCD         |??_C@_1HA@CNLOCPGF@?$AAE?$AAR?$AAR?$AAO?$AAR?$AA?3?$AA?5?$AAI?$AAl?$AAl?$AAe?$AAg?$AAa?$AAl?$AA?5?$AAc?$AAo?$AAm?$AAb?$AAi?$AAn?$AAa?$AAt?$AAi?$AAo?$AAn?$AA?5?$AAo?$AAf?$AA?5?$AA?9?$AAr@|
  0062c		 |$LN95@ParseComma|
  0062c	00000000	 DCD         |??_C@_1DO@EEFEDPCG@?$AAE?$AAR?$AAR?$AAO?$AAR?$AA?3?$AA?5?$AAU?$AAn?$AAr?$AAe?$AAc?$AAo?$AAg?$AAn?$AAi?$AAs?$AAe?$AAd?$AA?5?$AAo?$AAp?$AAt?$AAi?$AAo?$AAn?$AA?3?$AA?5?$AA?$CF?$AAs?$AA?$AA@|
  00630		 |$LN96@ParseComma|
  00630	00000000	 DCD         |??_C@_15LJNJHFI@?$AA?9?$AAh?$AA?$AA@|
  00634		 |$LN97@ParseComma|
  00634	00000000	 DCD         |?g_bVerboseOutput@@3_NA|
  00638		 |$LN98@ParseComma|
  00638	00000000	 DCD         |??_C@_15LLFLLHPE@?$AA?9?$AAv?$AA?$AA@|
  0063c		 |$LN99@ParseComma|
  0063c	00000000	 DCD         |?g_bDoAllTests@@3_NA|
  00640		 |$LN100@ParseComma|
  00640	00000000	 DCD         |??_C@_15HGJFNINC@?$AA?9?$AAa?$AA?$AA@|
  00644		 |$LN101@ParseComma|
  00644	00000000	 DCD         |??_C@_1GM@BPMJKPHH@?$AAE?$AAR?$AAR?$AAO?$AAR?$AA?3?$AA?5?$AAB?$AAl?$AAo?$AAc?$AAk?$AAs?$AAi?$AAz?$AAe?$AA?5?$AAo?$AAu?$AAt?$AAs?$AAi?$AAd?$AAe?$AA?5?$AAa?$AAc?$AAc?$AAe?$AAp?$AAt?$AAa@|
  00648		 |$LN102@ParseComma|
  00648	00000000	 DCD         |?g_dwBlockSize@@3KA|
  0064c		 |$LN103@ParseComma|
  0064c	00000000	 DCD         |??_C@_1EC@JNHPDFLK@?$AAE?$AAR?$AAR?$AAO?$AAR?$AA?3?$AA?5?$AAB?$AAl?$AAo?$AAc?$AAk?$AAs?$AAi?$AAz?$AAe?$AA?5?$AAn?$AAo?$AAt?$AA?5?$AAs?$AAp?$AAe?$AAc?$AAi?$AAf?$AAi?$AAe?$AAd?$AA?$AN?$AA?6@|
  00650		 |$LN104@ParseComma|
  00650	00000000	 DCD         |??_C@_15GECAHHDM@?$AA?9?$AAb?$AA?$AA@|
  00654		 |$LN105@ParseComma|
  00654	00000000	 DCD         |??_C@_1HI@NNIGCGEL@?$AAE?$AAR?$AAR?$AAO?$AAR?$AA?3?$AA?5?$AAN?$AAu?$AAm?$AAb?$AAe?$AAr?$AA?5?$AAo?$AAf?$AA?5?$AAt?$AAe?$AAs?$AAt?$AAs?$AA?5?$AAo?$AAu?$AAt?$AAs?$AAi?$AAd?$AAe?$AA?5?$AAa@|
  00658		 |$LN106@ParseComma|
  00658	00000000	 DCD         |?g_dwNumTests@@3KA|
  0065c		 |$LN107@ParseComma|
  0065c	00000000	 DCD         |??_C@_1EO@EBBFGBPI@?$AAE?$AAR?$AAR?$AAO?$AAR?$AA?3?$AA?5?$AAN?$AAu?$AAm?$AAb?$AAe?$AAr?$AA?5?$AAo?$AAf?$AA?5?$AAt?$AAe?$AAs?$AAt?$AAs?$AA?5?$AAn?$AAo?$AAt?$AA?5?$AAs?$AAp?$AAe?$AAc?$AAi@|
  00660		 |$LN108@ParseComma|
  00660	00000000	 DCD         |??_C@_15COPGMIIE@?$AA?9?$AAn?$AA?$AA@|
  00664		 |$LN109@ParseComma|
  00664	00000000	 DCD         |??_C@_1GM@NPKDJEOF@?$AAE?$AAR?$AAR?$AAO?$AAR?$AA?3?$AA?5?$AAF?$AAi?$AAl?$AAe?$AA?5?$AAs?$AAi?$AAz?$AAe?$AA?5?$AAo?$AAu?$AAt?$AAs?$AAi?$AAd?$AAe?$AA?5?$AAa?$AAc?$AAc?$AAe?$AAp?$AAt?$AAa@|
  00668		 |$LN110@ParseComma|
  00668	00000000	 DCD         |??_C@_1EC@PLKFGPIP@?$AAE?$AAR?$AAR?$AAO?$AAR?$AA?3?$AA?5?$AAF?$AAi?$AAl?$AAe?$AA?5?$AAs?$AAi?$AAz?$AAe?$AA?5?$AAn?$AAo?$AAt?$AA?5?$AAs?$AAp?$AAe?$AAc?$AAi?$AAf?$AAi?$AAe?$AAd?$AA?$AN?$AA?6@|
  0066c		 |$LN111@ParseComma|
  0066c	00000000	 DCD         |??_C@_15IMIFEHMG@?$AA?9?$AAs?$AA?$AA@|
  00670		 |$LN112@ParseComma|
  00670	00000000	 DCD         |??_C@_15DOHNAJB@?$AA?9?$AAw?$AA?$AA@|
  00674		 |$LN113@ParseComma|
  00674	00000000	 DCD         |??_C@_15DEDJCAKD@?$AA?9?$AAr?$AA?$AA@|
  00678		 |$LN114@ParseComma|
  00678	00000000	 DCD         |??_C@_15NMJMBAFJ@?$AA?9?$AAc?$AA?$AA@|
  0067c		 |$LN115@ParseComma|
  0067c	00000000	 DCD         |??_C@_17CPLPACHP@?$AA?9?$AAw?$AAr?$AA?$AA@|
  00680		 |$LN116@ParseComma|
  00680	00000000	 DCD         |?g_bFlushBuffersOnClose@@3_NA|
  00684		 |$LN117@ParseComma|
  00684	00000000	 DCD         |??_C@_1BE@MKMKHCEH@?$AA?9?$AAf?$AAl?$AAu?$AAs?$AAh?$AAe?$AAn?$AAd?$AA?$AA@|
  00688		 |$LN118@ParseComma|
  00688	00000000	 DCD         |?g_bFlushBuffersOnWrite@@3_NA|
  0068c		 |$LN119@ParseComma|
  0068c	00000000	 DCD         |??_C@_1BE@MGPMPFFJ@?$AA?9?$AAf?$AAl?$AAu?$AAs?$AAh?$AAa?$AAl?$AAl?$AA?$AA@|
  00690		 |$LN120@ParseComma|
  00690	00000000	 DCD         |?g_bWriteThrough@@3_NA|
  00694		 |$LN121@ParseComma|
  00694	00000000	 DCD         |??_C@_1BG@IOBGMJOL@?$AA?9?$AAw?$AAr?$AAi?$AAt?$AAe?$AAt?$AAh?$AAr?$AAu?$AA?$AA@|
  00698		 |$LN122@ParseComma|
  00698	00000000	 DCD         |?g_bNoCaching@@3_NA|
  0069c		 |$LN123@ParseComma|
  0069c	00000000	 DCD         |??_C@_1BC@CCFBPLHC@?$AA?9?$AAn?$AAo?$AAc?$AAa?$AAc?$AAh?$AAe?$AA?$AA@|
  006a0		 |$LN124@ParseComma|
  006a0	00000000	 DCD         |?g_pKato@@3PAVCKato@@A|
  006a4		 |$LN125@ParseComma|
  006a4	00000000	 DCD         |?g_dwMode@@3KA|
  006a8		 |$LN126@ParseComma|
  006a8	00000000	 DCD         |?g_pFileName@@3PAGA|
  006ac		 |$LN127@ParseComma|
  006ac	00000000	 DCD         |??_C@_1DA@BLHPMAPB@?$AAP?$AAa?$AAr?$AAs?$AAe?$AAC?$AAo?$AAm?$AAm?$AAa?$AAn?$AAd?$AAL?$AAi?$AAn?$AAe?$AA?3?$AA?5?$AA?$CF?$AAs?$AA?5?$AA?$AN?$AA?6?$AA?$AA@|
  006b0		 |$LN128@ParseComma|
  006b0	00000000	 DCD         |??_C@_15DEJJBEOA@?$AA?5?$AA?7?$AA?$AA@|
  006b4		 |$LN129@ParseComma|
  006b4	00000000	 DCD         |__security_cookie|
  006b8		 |$M32955|

			 ENDP  ; |?ParseCommandLine@@YA_NPAG@Z|, ParseCommandLine

	EXPORT	|ShellProc|
	EXPORT	|??_C@_1EK@DIIDMDAD@?$AAS?$AAh?$AAe?$AAl?$AAl?$AAP?$AAr?$AAo?$AAc?$AA?$CI?$AAS?$AAP?$AAM?$AA_?$AAE?$AAX?$AAC?$AAE?$AAP?$AAT?$AAI?$AAO?$AAN?$AA?0?$AA?5?$AA?4?$AA?4?$AA?4?$AA?$CJ?$AA?5?$AAc?$AAa@| [ DATA ] ; `string'
	EXPORT	|??_C@_1CI@KACAOMDA@?$AAE?$AAx?$AAc?$AAe?$AAp?$AAt?$AAi?$AAo?$AAn?$AA?5?$AAo?$AAc?$AAc?$AAu?$AAr?$AAr?$AAe?$AAd?$AA?$CB?$AA?$AA@| [ DATA ] ; `string'
	EXPORT	|??_C@_1EC@KDFHODIP@?$AAE?$AAN?$AAD?$AA?5?$AAT?$AAE?$AAS?$AAT?$AA?3?$AA?5?$AA?$CC?$AA?$CF?$AAs?$AA?$CC?$AA?0?$AA?5?$AA?$CF?$AAs?$AA?0?$AA?5?$AAT?$AAi?$AAm?$AAe?$AA?$DN?$AA?$CF?$AAu?$AA?4?$AA?$CF?$AA0?$AA3?$AAu@| [ DATA ] ; `string'
	EXPORT	|??_C@_1BA@FGBMDHOA@?$AAA?$AAB?$AAO?$AAR?$AAT?$AAE?$AAD?$AA?$AA@| [ DATA ] ; `string'
	EXPORT	|??_C@_1O@GLIHGOJN@?$AAF?$AAA?$AAI?$AAL?$AAE?$AAD?$AA?$AA@| [ DATA ] ; `string'
	EXPORT	|??_C@_1O@GAOACLOB@?$AAP?$AAA?$AAS?$AAS?$AAE?$AAD?$AA?$AA@| [ DATA ] ; `string'
	EXPORT	|??_C@_1BA@PGEPKIHK@?$AAS?$AAK?$AAI?$AAP?$AAP?$AAE?$AAD?$AA?$AA@| [ DATA ] ; `string'
	EXPORT	|??_C@_1EI@LEDNBHEI@?$AAS?$AAh?$AAe?$AAl?$AAl?$AAP?$AAr?$AAo?$AAc?$AA?$CI?$AAS?$AAP?$AAM?$AA_?$AAE?$AAN?$AAD?$AA_?$AAT?$AAE?$AAS?$AAT?$AA?0?$AA?5?$AA?4?$AA?4?$AA?4?$AA?$CJ?$AA?5?$AAc?$AAa?$AAl@| [ DATA ] ; `string'
	EXPORT	|??_C@_1EM@FHMCMOKK@?$AAS?$AAh?$AAe?$AAl?$AAl?$AAP?$AAr?$AAo?$AAc?$AA?$CI?$AAS?$AAP?$AAM?$AA_?$AAB?$AAE?$AAG?$AAI?$AAN?$AA_?$AAT?$AAE?$AAS?$AAT?$AA?0?$AA?5?$AA?4?$AA?4?$AA?4?$AA?$CJ?$AA?5?$AAc@| [ DATA ] ; `string'
	EXPORT	|??_C@_1EM@FOHJMLNM@?$AAB?$AAE?$AAG?$AAI?$AAN?$AA?5?$AAT?$AAE?$AAS?$AAT?$AA?3?$AA?5?$AA?$CC?$AA?$CF?$AAs?$AA?$CC?$AA?0?$AA?5?$AAT?$AAh?$AAr?$AAe?$AAa?$AAd?$AAs?$AA?$DN?$AA?$CF?$AAu?$AA?0?$AA?5?$AAS?$AAe@| [ DATA ] ; `string'
	EXPORT	|??_C@_1EK@GHDGMMPI@?$AAS?$AAh?$AAe?$AAl?$AAl?$AAP?$AAr?$AAo?$AAc?$AA?$CI?$AAS?$AAP?$AAM?$AA_?$AAE?$AAN?$AAD?$AA_?$AAG?$AAR?$AAO?$AAU?$AAP?$AA?0?$AA?5?$AA?4?$AA?4?$AA?4?$AA?$CJ?$AA?5?$AAc?$AAa@| [ DATA ] ; `string'
	EXPORT	|??_C@_1DG@KFLGKHPF@?$AAE?$AAN?$AAD?$AA?5?$AAG?$AAR?$AAO?$AAU?$AAP?$AA?3?$AA?5?$AAC?$AAE?$AAT?$AAK?$AA_?$AAF?$AAS?$AAT?$AAe?$AAs?$AAt?$AA?4?$AAD?$AAL?$AAL?$AA?$AA@| [ DATA ] ; `string'
	EXPORT	|??_C@_1EO@PEHBNEBJ@?$AAS?$AAh?$AAe?$AAl?$AAl?$AAP?$AAr?$AAo?$AAc?$AA?$CI?$AAS?$AAP?$AAM?$AA_?$AAB?$AAE?$AAG?$AAI?$AAN?$AA_?$AAG?$AAR?$AAO?$AAU?$AAP?$AA?0?$AA?5?$AA?4?$AA?4?$AA?4?$AA?$CJ?$AA?5@| [ DATA ] ; `string'
	EXPORT	|??_C@_1DK@EKMPPNEH@?$AAB?$AAE?$AAG?$AAI?$AAN?$AA?5?$AAG?$AAR?$AAO?$AAU?$AAP?$AA?3?$AA?5?$AAC?$AAE?$AAT?$AAK?$AA_?$AAF?$AAS?$AAT?$AAe?$AAs?$AAt?$AA?4?$AAD?$AAL?$AAL?$AA?$AA@| [ DATA ] ; `string'
	EXPORT	|??_C@_1EO@MABEFEBO@?$AAS?$AAh?$AAe?$AAl?$AAl?$AAP?$AAr?$AAo?$AAc?$AA?$CI?$AAS?$AAP?$AAM?$AA_?$AAS?$AAT?$AAO?$AAP?$AA_?$AAS?$AAC?$AAR?$AAI?$AAP?$AAT?$AA?0?$AA?5?$AA?4?$AA?4?$AA?4?$AA?$CJ?$AA?5@| [ DATA ] ; `string'
	EXPORT	|??_C@_1FA@IPECFONB@?$AAS?$AAh?$AAe?$AAl?$AAl?$AAP?$AAr?$AAo?$AAc?$AA?$CI?$AAS?$AAP?$AAM?$AA_?$AAS?$AAT?$AAA?$AAR?$AAT?$AA_?$AAS?$AAC?$AAR?$AAI?$AAP?$AAT?$AA?0?$AA?5?$AA?4?$AA?4?$AA?4?$AA?$CJ@| [ DATA ] ; `string'
	EXPORT	|??_C@_1EI@BIFLJGHA@?$AAS?$AAh?$AAe?$AAl?$AAl?$AAP?$AAr?$AAo?$AAc?$AA?$CI?$AAS?$AAP?$AAM?$AA_?$AAR?$AAE?$AAG?$AAI?$AAS?$AAT?$AAE?$AAR?$AA?0?$AA?5?$AA?4?$AA?4?$AA?4?$AA?$CJ?$AA?5?$AAc?$AAa?$AAl@| [ DATA ] ; `string'
	EXPORT	|??_C@_1EM@LCENFKIH@?$AAS?$AAh?$AAe?$AAl?$AAl?$AAP?$AAr?$AAo?$AAc?$AA?$CI?$AAS?$AAP?$AAM?$AA_?$AAS?$AAH?$AAE?$AAL?$AAL?$AA_?$AAI?$AAN?$AAF?$AAO?$AA?0?$AA?5?$AA?4?$AA?4?$AA?4?$AA?$CJ?$AA?5?$AAc@| [ DATA ] ; `string'
	EXPORT	|??_C@_1EM@DHBFOELL@?$AAS?$AAh?$AAe?$AAl?$AAl?$AAP?$AAr?$AAo?$AAc?$AA?$CI?$AAS?$AAP?$AAM?$AA_?$AAU?$AAN?$AAL?$AAO?$AAA?$AAD?$AA_?$AAD?$AAL?$AAL?$AA?0?$AA?5?$AA?4?$AA?4?$AA?4?$AA?$CJ?$AA?5?$AAc@| [ DATA ] ; `string'
	EXPORT	|??_C@_1EI@LLGCEHFM@?$AAS?$AAh?$AAe?$AAl?$AAl?$AAP?$AAr?$AAo?$AAc?$AA?$CI?$AAS?$AAP?$AAM?$AA_?$AAL?$AAO?$AAA?$AAD?$AA_?$AAD?$AAL?$AAL?$AA?0?$AA?5?$AA?4?$AA?4?$AA?4?$AA?$CJ?$AA?5?$AAc?$AAa?$AAl@| [ DATA ] ; `string'
	IMPORT	|?g_pShellInfo@@3PAU_SPS_SHELL_INFO@@A|	; g_pShellInfo
	IMPORT	|KatoGetDefaultObject|
	IMPORT	|__imp_?EndLevel@CKato@@QAAHPBGZZ|
	IMPORT	|__imp_?BeginLevel@CKato@@QAAHKPBGZZ|
	IMPORT	|?g_lpFTE@@3PAU_FUNCTION_TABLE_ENTRY@@A| ; g_lpFTE

  00000			 AREA	 |.pdata|, PDATA
|$T33037| DCD	|$LN40@ShellProc|
	DCD	0x4000a602

  00000			 AREA	 |.rdata|, DATA, READONLY
|??_C@_1EK@DIIDMDAD@?$AAS?$AAh?$AAe?$AAl?$AAl?$AAP?$AAr?$AAo?$AAc?$AA?$CI?$AAS?$AAP?$AAM?$AA_?$AAE?$AAX?$AAC?$AAE?$AAP?$AAT?$AAI?$AAO?$AAN?$AA?0?$AA?5?$AA?4?$AA?4?$AA?4?$AA?$CJ?$AA?5?$AAc?$AAa@| DCB "S"
	DCB	0x0, "h", 0x0, "e", 0x0, "l", 0x0, "l", 0x0, "P", 0x0, "r"
	DCB	0x0, "o", 0x0, "c", 0x0, "(", 0x0, "S", 0x0, "P", 0x0, "M"
	DCB	0x0, "_", 0x0, "E", 0x0, "X", 0x0, "C", 0x0, "E", 0x0, "P"
	DCB	0x0, "T", 0x0, "I", 0x0, "O", 0x0, "N", 0x0, ",", 0x0, " "
	DCB	0x0, ".", 0x0, ".", 0x0, ".", 0x0, ")", 0x0, " ", 0x0, "c"
	DCB	0x0, "a", 0x0, "l", 0x0, "l", 0x0, "e", 0x0, "d", 0x0, 0x0
	DCB	0x0					; `string'

  00000			 AREA	 |.rdata|, DATA, READONLY
|??_C@_1CI@KACAOMDA@?$AAE?$AAx?$AAc?$AAe?$AAp?$AAt?$AAi?$AAo?$AAn?$AA?5?$AAo?$AAc?$AAc?$AAu?$AAr?$AAr?$AAe?$AAd?$AA?$CB?$AA?$AA@| DCB "E"
	DCB	0x0, "x", 0x0, "c", 0x0, "e", 0x0, "p", 0x0, "t", 0x0, "i"
	DCB	0x0, "o", 0x0, "n", 0x0, " ", 0x0, "o", 0x0, "c", 0x0, "c"
	DCB	0x0, "u", 0x0, "r", 0x0, "r", 0x0, "e", 0x0, "d", 0x0, "!"
	DCB	0x0, 0x0, 0x0				; `string'

  00000			 AREA	 |.rdata|, DATA, READONLY
|??_C@_1EC@KDFHODIP@?$AAE?$AAN?$AAD?$AA?5?$AAT?$AAE?$AAS?$AAT?$AA?3?$AA?5?$AA?$CC?$AA?$CF?$AAs?$AA?$CC?$AA?0?$AA?5?$AA?$CF?$AAs?$AA?0?$AA?5?$AAT?$AAi?$AAm?$AAe?$AA?$DN?$AA?$CF?$AAu?$AA?4?$AA?$CF?$AA0?$AA3?$AAu@| DCB "E"
	DCB	0x0, "N", 0x0, "D", 0x0, " ", 0x0, "T", 0x0, "E", 0x0, "S"
	DCB	0x0, "T", 0x0, ":", 0x0, " ", 0x0, """", 0x0, "%", 0x0, "s"
	DCB	0x0, """", 0x0, ",", 0x0, " ", 0x0, "%", 0x0, "s", 0x0, ","
	DCB	0x0, " ", 0x0, "T", 0x0, "i", 0x0, "m", 0x0, "e", 0x0, "="
	DCB	0x0, "%", 0x0, "u", 0x0, ".", 0x0, "%", 0x0, "0", 0x0, "3"
	DCB	0x0, "u", 0x0, 0x0, 0x0			; `string'

  00000			 AREA	 |.rdata|, DATA, READONLY
|??_C@_1BA@FGBMDHOA@?$AAA?$AAB?$AAO?$AAR?$AAT?$AAE?$AAD?$AA?$AA@| DCB "A", 0x0
	DCB	"B", 0x0, "O", 0x0, "R", 0x0, "T", 0x0, "E", 0x0, "D", 0x0
	DCB	0x0, 0x0				; `string'

  00000			 AREA	 |.rdata|, DATA, READONLY
|??_C@_1O@GLIHGOJN@?$AAF?$AAA?$AAI?$AAL?$AAE?$AAD?$AA?$AA@| DCB "F", 0x0, "A"
	DCB	0x0, "I", 0x0, "L", 0x0, "E", 0x0, "D", 0x0, 0x0, 0x0 ; `string'

  00000			 AREA	 |.rdata|, DATA, READONLY
|??_C@_1O@GAOACLOB@?$AAP?$AAA?$AAS?$AAS?$AAE?$AAD?$AA?$AA@| DCB "P", 0x0, "A"
	DCB	0x0, "S", 0x0, "S", 0x0, "E", 0x0, "D", 0x0, 0x0, 0x0 ; `string'

  00000			 AREA	 |.rdata|, DATA, READONLY
|??_C@_1BA@PGEPKIHK@?$AAS?$AAK?$AAI?$AAP?$AAP?$AAE?$AAD?$AA?$AA@| DCB "S", 0x0
	DCB	"K", 0x0, "I", 0x0, "P", 0x0, "P", 0x0, "E", 0x0, "D", 0x0
	DCB	0x0, 0x0				; `string'

  00000			 AREA	 |.rdata|, DATA, READONLY
|??_C@_1EI@LEDNBHEI@?$AAS?$AAh?$AAe?$AAl?$AAl?$AAP?$AAr?$AAo?$AAc?$AA?$CI?$AAS?$AAP?$AAM?$AA_?$AAE?$AAN?$AAD?$AA_?$AAT?$AAE?$AAS?$AAT?$AA?0?$AA?5?$AA?4?$AA?4?$AA?4?$AA?$CJ?$AA?5?$AAc?$AAa?$AAl@| DCB "S"
	DCB	0x0, "h", 0x0, "e", 0x0, "l", 0x0, "l", 0x0, "P", 0x0, "r"
	DCB	0x0, "o", 0x0, "c", 0x0, "(", 0x0, "S", 0x0, "P", 0x0, "M"
	DCB	0x0, "_", 0x0, "E", 0x0, "N", 0x0, "D", 0x0, "_", 0x0, "T"
	DCB	0x0, "E", 0x0, "S", 0x0, "T", 0x0, ",", 0x0, " ", 0x0, "."
	DCB	0x0, ".", 0x0, ".", 0x0, ")", 0x0, " ", 0x0, "c", 0x0, "a"
	DCB	0x0, "l", 0x0, "l", 0x0, "e", 0x0, "d", 0x0, 0x0, 0x0 ; `string'

  00000			 AREA	 |.rdata|, DATA, READONLY
|??_C@_1EM@FHMCMOKK@?$AAS?$AAh?$AAe?$AAl?$AAl?$AAP?$AAr?$AAo?$AAc?$AA?$CI?$AAS?$AAP?$AAM?$AA_?$AAB?$AAE?$AAG?$AAI?$AAN?$AA_?$AAT?$AAE?$AAS?$AAT?$AA?0?$AA?5?$AA?4?$AA?4?$AA?4?$AA?$CJ?$AA?5?$AAc@| DCB "S"
	DCB	0x0, "h", 0x0, "e", 0x0, "l", 0x0, "l", 0x0, "P", 0x0, "r"
	DCB	0x0, "o", 0x0, "c", 0x0, "(", 0x0, "S", 0x0, "P", 0x0, "M"
	DCB	0x0, "_", 0x0, "B", 0x0, "E", 0x0, "G", 0x0, "I", 0x0, "N"
	DCB	0x0, "_", 0x0, "T", 0x0, "E", 0x0, "S", 0x0, "T", 0x0, ","
	DCB	0x0, " ", 0x0, ".", 0x0, ".", 0x0, ".", 0x0, ")", 0x0, " "
	DCB	0x0, "c", 0x0, "a", 0x0, "l", 0x0, "l", 0x0, "e", 0x0, "d"
	DCB	0x0, 0x0, 0x0				; `string'

  00000			 AREA	 |.rdata|, DATA, READONLY
|??_C@_1EM@FOHJMLNM@?$AAB?$AAE?$AAG?$AAI?$AAN?$AA?5?$AAT?$AAE?$AAS?$AAT?$AA?3?$AA?5?$AA?$CC?$AA?$CF?$AAs?$AA?$CC?$AA?0?$AA?5?$AAT?$AAh?$AAr?$AAe?$AAa?$AAd?$AAs?$AA?$DN?$AA?$CF?$AAu?$AA?0?$AA?5?$AAS?$AAe@| DCB "B"
	DCB	0x0, "E", 0x0, "G", 0x0, "I", 0x0, "N", 0x0, " ", 0x0, "T"
	DCB	0x0, "E", 0x0, "S", 0x0, "T", 0x0, ":", 0x0, " ", 0x0, """"
	DCB	0x0, "%", 0x0, "s", 0x0, """", 0x0, ",", 0x0, " ", 0x0, "T"
	DCB	0x0, "h", 0x0, "r", 0x0, "e", 0x0, "a", 0x0, "d", 0x0, "s"
	DCB	0x0, "=", 0x0, "%", 0x0, "u", 0x0, ",", 0x0, " ", 0x0, "S"
	DCB	0x0, "e", 0x0, "e", 0x0, "d", 0x0, "=", 0x0, "%", 0x0, "u"
	DCB	0x0, 0x0, 0x0				; `string'

  00000			 AREA	 |.rdata|, DATA, READONLY
|??_C@_1EK@GHDGMMPI@?$AAS?$AAh?$AAe?$AAl?$AAl?$AAP?$AAr?$AAo?$AAc?$AA?$CI?$AAS?$AAP?$AAM?$AA_?$AAE?$AAN?$AAD?$AA_?$AAG?$AAR?$AAO?$AAU?$AAP?$AA?0?$AA?5?$AA?4?$AA?4?$AA?4?$AA?$CJ?$AA?5?$AAc?$AAa@| DCB "S"
	DCB	0x0, "h", 0x0, "e", 0x0, "l", 0x0, "l", 0x0, "P", 0x0, "r"
	DCB	0x0, "o", 0x0, "c", 0x0, "(", 0x0, "S", 0x0, "P", 0x0, "M"
	DCB	0x0, "_", 0x0, "E", 0x0, "N", 0x0, "D", 0x0, "_", 0x0, "G"
	DCB	0x0, "R", 0x0, "O", 0x0, "U", 0x0, "P", 0x0, ",", 0x0, " "
	DCB	0x0, ".", 0x0, ".", 0x0, ".", 0x0, ")", 0x0, " ", 0x0, "c"
	DCB	0x0, "a", 0x0, "l", 0x0, "l", 0x0, "e", 0x0, "d", 0x0, 0x0
	DCB	0x0					; `string'

  00000			 AREA	 |.rdata|, DATA, READONLY
|??_C@_1DG@KFLGKHPF@?$AAE?$AAN?$AAD?$AA?5?$AAG?$AAR?$AAO?$AAU?$AAP?$AA?3?$AA?5?$AAC?$AAE?$AAT?$AAK?$AA_?$AAF?$AAS?$AAT?$AAe?$AAs?$AAt?$AA?4?$AAD?$AAL?$AAL?$AA?$AA@| DCB "E"
	DCB	0x0, "N", 0x0, "D", 0x0, " ", 0x0, "G", 0x0, "R", 0x0, "O"
	DCB	0x0, "U", 0x0, "P", 0x0, ":", 0x0, " ", 0x0, "C", 0x0, "E"
	DCB	0x0, "T", 0x0, "K", 0x0, "_", 0x0, "F", 0x0, "S", 0x0, "T"
	DCB	0x0, "e", 0x0, "s", 0x0, "t", 0x0, ".", 0x0, "D", 0x0, "L"
	DCB	0x0, "L", 0x0, 0x0, 0x0			; `string'

  00000			 AREA	 |.rdata|, DATA, READONLY
|??_C@_1EO@PEHBNEBJ@?$AAS?$AAh?$AAe?$AAl?$AAl?$AAP?$AAr?$AAo?$AAc?$AA?$CI?$AAS?$AAP?$AAM?$AA_?$AAB?$AAE?$AAG?$AAI?$AAN?$AA_?$AAG?$AAR?$AAO?$AAU?$AAP?$AA?0?$AA?5?$AA?4?$AA?4?$AA?4?$AA?$CJ?$AA?5@| DCB "S"
	DCB	0x0, "h", 0x0, "e", 0x0, "l", 0x0, "l", 0x0, "P", 0x0, "r"
	DCB	0x0, "o", 0x0, "c", 0x0, "(", 0x0, "S", 0x0, "P", 0x0, "M"
	DCB	0x0, "_", 0x0, "B", 0x0, "E", 0x0, "G", 0x0, "I", 0x0, "N"
	DCB	0x0, "_", 0x0, "G", 0x0, "R", 0x0, "O", 0x0, "U", 0x0, "P"
	DCB	0x0, ",", 0x0, " ", 0x0, ".", 0x0, ".", 0x0, ".", 0x0, ")"
	DCB	0x0, " ", 0x0, "c", 0x0, "a", 0x0, "l", 0x0, "l", 0x0, "e"
	DCB	0x0, "d", 0x0, 0x0, 0x0			; `string'

  00000			 AREA	 |.rdata|, DATA, READONLY
|??_C@_1DK@EKMPPNEH@?$AAB?$AAE?$AAG?$AAI?$AAN?$AA?5?$AAG?$AAR?$AAO?$AAU?$AAP?$AA?3?$AA?5?$AAC?$AAE?$AAT?$AAK?$AA_?$AAF?$AAS?$AAT?$AAe?$AAs?$AAt?$AA?4?$AAD?$AAL?$AAL?$AA?$AA@| DCB "B"
	DCB	0x0, "E", 0x0, "G", 0x0, "I", 0x0, "N", 0x0, " ", 0x0, "G"
	DCB	0x0, "R", 0x0, "O", 0x0, "U", 0x0, "P", 0x0, ":", 0x0, " "
	DCB	0x0, "C", 0x0, "E", 0x0, "T", 0x0, "K", 0x0, "_", 0x0, "F"
	DCB	0x0, "S", 0x0, "T", 0x0, "e", 0x0, "s", 0x0, "t", 0x0, "."
	DCB	0x0, "D", 0x0, "L", 0x0, "L", 0x0, 0x0, 0x0 ; `string'

  00000			 AREA	 |.rdata|, DATA, READONLY
|??_C@_1EO@MABEFEBO@?$AAS?$AAh?$AAe?$AAl?$AAl?$AAP?$AAr?$AAo?$AAc?$AA?$CI?$AAS?$AAP?$AAM?$AA_?$AAS?$AAT?$AAO?$AAP?$AA_?$AAS?$AAC?$AAR?$AAI?$AAP?$AAT?$AA?0?$AA?5?$AA?4?$AA?4?$AA?4?$AA?$CJ?$AA?5@| DCB "S"
	DCB	0x0, "h", 0x0, "e", 0x0, "l", 0x0, "l", 0x0, "P", 0x0, "r"
	DCB	0x0, "o", 0x0, "c", 0x0, "(", 0x0, "S", 0x0, "P", 0x0, "M"
	DCB	0x0, "_", 0x0, "S", 0x0, "T", 0x0, "O", 0x0, "P", 0x0, "_"
	DCB	0x0, "S", 0x0, "C", 0x0, "R", 0x0, "I", 0x0, "P", 0x0, "T"
	DCB	0x0, ",", 0x0, " ", 0x0, ".", 0x0, ".", 0x0, ".", 0x0, ")"
	DCB	0x0, " ", 0x0, "c", 0x0, "a", 0x0, "l", 0x0, "l", 0x0, "e"
	DCB	0x0, "d", 0x0, 0x0, 0x0			; `string'

  00000			 AREA	 |.rdata|, DATA, READONLY
|??_C@_1FA@IPECFONB@?$AAS?$AAh?$AAe?$AAl?$AAl?$AAP?$AAr?$AAo?$AAc?$AA?$CI?$AAS?$AAP?$AAM?$AA_?$AAS?$AAT?$AAA?$AAR?$AAT?$AA_?$AAS?$AAC?$AAR?$AAI?$AAP?$AAT?$AA?0?$AA?5?$AA?4?$AA?4?$AA?4?$AA?$CJ@| DCB "S"
	DCB	0x0, "h", 0x0, "e", 0x0, "l", 0x0, "l", 0x0, "P", 0x0, "r"
	DCB	0x0, "o", 0x0, "c", 0x0, "(", 0x0, "S", 0x0, "P", 0x0, "M"
	DCB	0x0, "_", 0x0, "S", 0x0, "T", 0x0, "A", 0x0, "R", 0x0, "T"
	DCB	0x0, "_", 0x0, "S", 0x0, "C", 0x0, "R", 0x0, "I", 0x0, "P"
	DCB	0x0, "T", 0x0, ",", 0x0, " ", 0x0, ".", 0x0, ".", 0x0, "."
	DCB	0x0, ")", 0x0, " ", 0x0, "c", 0x0, "a", 0x0, "l", 0x0, "l"
	DCB	0x0, "e", 0x0, "d", 0x0, 0x0, 0x0	; `string'

  00000			 AREA	 |.rdata|, DATA, READONLY
|??_C@_1EI@BIFLJGHA@?$AAS?$AAh?$AAe?$AAl?$AAl?$AAP?$AAr?$AAo?$AAc?$AA?$CI?$AAS?$AAP?$AAM?$AA_?$AAR?$AAE?$AAG?$AAI?$AAS?$AAT?$AAE?$AAR?$AA?0?$AA?5?$AA?4?$AA?4?$AA?4?$AA?$CJ?$AA?5?$AAc?$AAa?$AAl@| DCB "S"
	DCB	0x0, "h", 0x0, "e", 0x0, "l", 0x0, "l", 0x0, "P", 0x0, "r"
	DCB	0x0, "o", 0x0, "c", 0x0, "(", 0x0, "S", 0x0, "P", 0x0, "M"
	DCB	0x0, "_", 0x0, "R", 0x0, "E", 0x0, "G", 0x0, "I", 0x0, "S"
	DCB	0x0, "T", 0x0, "E", 0x0, "R", 0x0, ",", 0x0, " ", 0x0, "."
	DCB	0x0, ".", 0x0, ".", 0x0, ")", 0x0, " ", 0x0, "c", 0x0, "a"
	DCB	0x0, "l", 0x0, "l", 0x0, "e", 0x0, "d", 0x0, 0x0, 0x0 ; `string'

  00000			 AREA	 |.rdata|, DATA, READONLY
|??_C@_1EM@LCENFKIH@?$AAS?$AAh?$AAe?$AAl?$AAl?$AAP?$AAr?$AAo?$AAc?$AA?$CI?$AAS?$AAP?$AAM?$AA_?$AAS?$AAH?$AAE?$AAL?$AAL?$AA_?$AAI?$AAN?$AAF?$AAO?$AA?0?$AA?5?$AA?4?$AA?4?$AA?4?$AA?$CJ?$AA?5?$AAc@| DCB "S"
	DCB	0x0, "h", 0x0, "e", 0x0, "l", 0x0, "l", 0x0, "P", 0x0, "r"
	DCB	0x0, "o", 0x0, "c", 0x0, "(", 0x0, "S", 0x0, "P", 0x0, "M"
	DCB	0x0, "_", 0x0, "S", 0x0, "H", 0x0, "E", 0x0, "L", 0x0, "L"
	DCB	0x0, "_", 0x0, "I", 0x0, "N", 0x0, "F", 0x0, "O", 0x0, ","
	DCB	0x0, " ", 0x0, ".", 0x0, ".", 0x0, ".", 0x0, ")", 0x0, " "
	DCB	0x0, "c", 0x0, "a", 0x0, "l", 0x0, "l", 0x0, "e", 0x0, "d"
	DCB	0x0, 0x0, 0x0				; `string'

  00000			 AREA	 |.rdata|, DATA, READONLY
|??_C@_1EM@DHBFOELL@?$AAS?$AAh?$AAe?$AAl?$AAl?$AAP?$AAr?$AAo?$AAc?$AA?$CI?$AAS?$AAP?$AAM?$AA_?$AAU?$AAN?$AAL?$AAO?$AAA?$AAD?$AA_?$AAD?$AAL?$AAL?$AA?0?$AA?5?$AA?4?$AA?4?$AA?4?$AA?$CJ?$AA?5?$AAc@| DCB "S"
	DCB	0x0, "h", 0x0, "e", 0x0, "l", 0x0, "l", 0x0, "P", 0x0, "r"
	DCB	0x0, "o", 0x0, "c", 0x0, "(", 0x0, "S", 0x0, "P", 0x0, "M"
	DCB	0x0, "_", 0x0, "U", 0x0, "N", 0x0, "L", 0x0, "O", 0x0, "A"
	DCB	0x0, "D", 0x0, "_", 0x0, "D", 0x0, "L", 0x0, "L", 0x0, ","
	DCB	0x0, " ", 0x0, ".", 0x0, ".", 0x0, ".", 0x0, ")", 0x0, " "
	DCB	0x0, "c", 0x0, "a", 0x0, "l", 0x0, "l", 0x0, "e", 0x0, "d"
	DCB	0x0, 0x0, 0x0				; `string'

  00000			 AREA	 |.rdata|, DATA, READONLY
|??_C@_1EI@LLGCEHFM@?$AAS?$AAh?$AAe?$AAl?$AAl?$AAP?$AAr?$AAo?$AAc?$AA?$CI?$AAS?$AAP?$AAM?$AA_?$AAL?$AAO?$AAA?$AAD?$AA_?$AAD?$AAL?$AAL?$AA?0?$AA?5?$AA?4?$AA?4?$AA?4?$AA?$CJ?$AA?5?$AAc?$AAa?$AAl@| DCB "S"
	DCB	0x0, "h", 0x0, "e", 0x0, "l", 0x0, "l", 0x0, "P", 0x0, "r"
	DCB	0x0, "o", 0x0, "c", 0x0, "(", 0x0, "S", 0x0, "P", 0x0, "M"
	DCB	0x0, "_", 0x0, "L", 0x0, "O", 0x0, "A", 0x0, "D", 0x0, "_"
	DCB	0x0, "D", 0x0, "L", 0x0, "L", 0x0, ",", 0x0, " ", 0x0, "."
	DCB	0x0, ".", 0x0, ".", 0x0, ")", 0x0, " ", 0x0, "c", 0x0, "a"
	DCB	0x0, "l", 0x0, "l", 0x0, "e", 0x0, "d", 0x0, 0x0, 0x0 ; `string'
; Function compile flags: /Ogspy

  00000			 AREA	 |.text|, CODE, ARM

  00000		 |ShellProc| PROC

; 96   : {

  00000		 |$LN40@ShellProc|
  00000	e92d41f0	 stmdb       sp!, {r4 - r8, lr}
  00004	e24dd008	 sub         sp, sp, #8
  00008		 |$M33034|
  00008	e1a04001	 mov         r4, r1

; 97   :     LPSPS_BEGIN_TEST    pBT;
; 98   :     LPSPS_END_TEST      pET;
; 99   : 
; 100  :     switch (uMsg)

  0000c	e2402001	 sub         r2, r0, #1
  00010	e352000a	 cmp         r2, #0xA
  00014	8a000080	 bhi         |$LN1@ShellProc|
  00018	e1a03082	 mov         r3, r2, lsl #1
  0001c	e083300f	 add         r3, r3, pc
  00020	e1d330b4	 ldrh        r3, [r3, #4]
  00024	e08ff003	 add         pc, pc, r3
  00028		 |$LN26@ShellProc|
  00028		 |$LN25@ShellProc|
  00028		 |$LN27@ShellProc|
  00028	0014		 DCW         0x14
  0002a		 |$LN28@ShellProc|
  0002a	0038		 DCW         0x38
  0002c		 |$LN29@ShellProc|
  0002c	008c		 DCW         0x8c
  0002e		 |$LN30@ShellProc|
  0002e	0094		 DCW         0x94
  00030		 |$LN31@ShellProc|
  00030	009c		 DCW         0x9c
  00032		 |$LN32@ShellProc|
  00032	00cc		 DCW         0xcc
  00034		 |$LN33@ShellProc|
  00034	0048		 DCW         0x48
  00036		 |$LN34@ShellProc|
  00036	0070		 DCW         0x70
  00038		 |$LN35@ShellProc|
  00038	01c0		 DCW         0x1c0
  0003a		 |$LN36@ShellProc|
  0003a	00f8		 DCW         0xf8
  0003c		 |$LN37@ShellProc|
  0003c	0140		 DCW         0x140
  0003e		 |$LN69@ShellProc|

; 259  : }

  0003e	0140		 DCW         0x140
  00040		 |$LN13@ShellProc|

; 101  :     {
; 102  :     case SPM_LOAD_DLL:
; 103  :         // Sent once to the DLL immediately after it is loaded. The spParam
; 104  :         // parameter will contain a pointer to a SPS_LOAD_DLL structure. The
; 105  :         // DLL should set the fUnicode member of this structure to TRUE if the
; 106  :         // DLL is built with the UNICODE flag set. If you set this flag, Tux
; 107  :         // will ensure that all strings passed to your DLL will be in UNICODE
; 108  :         // format, and all strings within your function table will be processed
; 109  :         // by Tux as UNICODE. The DLL may return SPR_FAIL to prevent the DLL
; 110  :         // from continuing to load.
; 111  :         Debug(TEXT("ShellProc(SPM_LOAD_DLL, ...) called"));

  00040	e59f024c	 ldr         r0, [pc, #0x24C]
  00044	eb000000	 bl          |?Debug@@YAXPBGZZ|

; 112  : 
; 113  :         // If we are UNICODE, then tell Tux this by setting the following flag.
; 114  : #ifdef UNICODE
; 115  :         ((LPSPS_LOAD_DLL)spParam)->fUnicode = TRUE;

  00048	e3a03001	 mov         r3, #1
  0004c	e5843000	 str         r3, [r4]

; 116  : #endif // UNICODE
; 117  :         g_pKato = (CKato*)KatoGetDefaultObject();

  00050	eb000000	 bl          KatoGetDefaultObject
  00054	e59f31d8	 ldr         r3, [pc, #0x1D8]
  00058	e5830000	 str         r0, [r3]

; 256  :     }
; 257  : 
; 258  :     return SPR_HANDLED;

  0005c	e3a00001	 mov         r0, #1
  00060	ea00006e	 b           |$LN16@ShellProc|
  00064		 |$LN12@ShellProc|

; 118  :         break;
; 119  : 
; 120  :     case SPM_UNLOAD_DLL:
; 121  :         // Sent once to the DLL immediately before it is unloaded.
; 122  :         Debug(TEXT("ShellProc(SPM_UNLOAD_DLL, ...) called"));

  00064	e59f0224	 ldr         r0, [pc, #0x224]
  00068		 |$LN24@ShellProc|
  00068	eb000000	 bl          |?Debug@@YAXPBGZZ|

; 256  :     }
; 257  : 
; 258  :     return SPR_HANDLED;

  0006c	e3a00001	 mov         r0, #1
  00070	ea00006a	 b           |$LN16@ShellProc|
  00074		 |$LN11@ShellProc|

; 123  :         break;
; 124  : 
; 125  :     case SPM_SHELL_INFO:
; 126  :         // Sent once to the DLL immediately after SPM_LOAD_DLL to give the DLL
; 127  :         // some useful information about its parent shell and environment. The
; 128  :         // spParam parameter will contain a pointer to a SPS_SHELL_INFO
; 129  :         // structure. The pointer to the structure may be stored for later use
; 130  :         // as it will remain valid for the life of this Tux Dll. The DLL may
; 131  :         // return SPR_FAIL to prevent the DLL from continuing to load.
; 132  :         Debug(TEXT("ShellProc(SPM_SHELL_INFO, ...) called"));

  00074	e59f0210	 ldr         r0, [pc, #0x210]
  00078	eb000000	 bl          |?Debug@@YAXPBGZZ|

; 133  : 
; 134  :         // Store a pointer to our shell info for later use.
; 135  :         g_pShellInfo = (LPSPS_SHELL_INFO)spParam;

  0007c	e59f3204	 ldr         r3, [pc, #0x204]
  00080	e5834000	 str         r4, [r3]

; 136  :         
; 137  :         // Parse the command line parameters
; 138  :         // This can be done here or in each test using
; 139  :         //  the global g_pShellInfo pointer
; 140  :         if ( !ParseCommandLine((LPTSTR)g_pShellInfo->szDllCmdLine) )

  00084	e5940014	 ldr         r0, [r4, #0x14]
  00088	eb000000	 bl          |?ParseCommandLine@@YA_NPAG@Z|
  0008c	e3500000	 cmp         r0, #0
  00090	1a00005f	 bne         |$LN14@ShellProc|

; 141  :         {
; 142  :             return SPR_FAIL;

  00094	e3a00003	 mov         r0, #3
  00098	ea000060	 b           |$LN16@ShellProc|
  0009c		 |$LN9@ShellProc|

; 143  :         }
; 144  :         break;
; 145  : 
; 146  :     case SPM_REGISTER:
; 147  :         // This is the only ShellProc() message that a DLL is required to
; 148  :         // handle (except for SPM_LOAD_DLL if you are UNICODE). This message is
; 149  :         // sent once to the DLL immediately after the SPM_SHELL_INFO message to
; 150  :         // query the DLL for its function table. The spParam will contain a
; 151  :         // pointer to a SPS_REGISTER structure. The DLL should store its
; 152  :         // function table in the lpFunctionTable member of the SPS_REGISTER
; 153  :         // structure. The DLL may return SPR_FAIL to prevent the DLL from
; 154  :         // continuing to load.
; 155  :         Debug(TEXT("ShellProc(SPM_REGISTER, ...) called"));

  0009c	e59f01e0	 ldr         r0, [pc, #0x1E0]
  000a0	eb000000	 bl          |?Debug@@YAXPBGZZ|

; 156  :         ((LPSPS_REGISTER)spParam)->lpFunctionTable = g_lpFTE;

  000a4	e59f31d4	 ldr         r3, [pc, #0x1D4]
  000a8	e3a02801	 mov         r2, #1, 16

; 157  : #ifdef UNICODE
; 158  :         return SPR_HANDLED | SPF_UNICODE;

  000ac	e3820001	 orr         r0, r2, #1
  000b0	e5843000	 str         r3, [r4]
  000b4	ea000059	 b           |$LN16@ShellProc|
  000b8		 |$LN8@ShellProc|

; 159  : #else // UNICODE
; 160  :         return SPR_HANDLED;
; 161  : #endif // UNICODE
; 162  :         break;
; 163  : 
; 164  :     case SPM_START_SCRIPT:
; 165  :         // Sent to the DLL immediately before a script is started. It is sent
; 166  :         // to all Tux DLLs, including loaded Tux DLLs that are not in the
; 167  :         // script. All DLLs will receive this message before the first
; 168  :         // TestProc() in the script is called.
; 169  :         Debug(TEXT("ShellProc(SPM_START_SCRIPT, ...) called"));

  000b8	e59f01bc	 ldr         r0, [pc, #0x1BC]

; 170  :         break;

  000bc	eaffffe9	 b           |$LN24@ShellProc|
  000c0		 |$LN7@ShellProc|

; 171  : 
; 172  :     case SPM_STOP_SCRIPT:
; 173  :         // Sent to the DLL when the script has stopped. This message is sent
; 174  :         // when the script reaches its end, or because the user pressed
; 175  :         // stopped prior to the end of the script. This message is sent to
; 176  :         // all Tux DLLs, including loaded Tux DLLs that are not in the script.
; 177  :         Debug(TEXT("ShellProc(SPM_STOP_SCRIPT, ...) called"));

  000c0	e59f01b0	 ldr         r0, [pc, #0x1B0]

; 178  :         break;

  000c4	eaffffe7	 b           |$LN24@ShellProc|
  000c8		 |$LN6@ShellProc|

; 179  : 
; 180  :     case SPM_BEGIN_GROUP:
; 181  :         // Sent to the DLL before a group of tests from that DLL is about to
; 182  :         // be executed. This gives the DLL a time to initialize or allocate
; 183  :         // data for the tests to follow. Only the DLL that is next to run
; 184  :         // receives this message. The prior DLL, if any, will first receive
; 185  :         // a SPM_END_GROUP message. For global initialization and
; 186  :         // de-initialization, the DLL should probably use SPM_START_SCRIPT
; 187  :         // and SPM_STOP_SCRIPT, or even SPM_LOAD_DLL and SPM_UNLOAD_DLL.
; 188  :         Debug(TEXT("ShellProc(SPM_BEGIN_GROUP, ...) called"));

  000c8	e59f01a4	 ldr         r0, [pc, #0x1A4]
  000cc	eb000000	 bl          |?Debug@@YAXPBGZZ|

; 189  :         g_pKato->BeginLevel(0, TEXT("BEGIN GROUP: CETK_FSTest.DLL"));

  000d0	e59f315c	 ldr         r3, [pc, #0x15C]
  000d4	e59f1184	 ldr         r1, [pc, #0x184]
  000d8	e59f2190	 ldr         r2, [pc, #0x190]
  000dc	e5930000	 ldr         r0, [r3]
  000e0	e5913000	 ldr         r3, [r1]
  000e4	e3a01000	 mov         r1, #0
  000e8	e1a0e00f	 mov         lr, pc
  000ec	e12fff13	 bx          r3

; 256  :     }
; 257  : 
; 258  :     return SPR_HANDLED;

  000f0	e3a00001	 mov         r0, #1
  000f4	ea000049	 b           |$LN16@ShellProc|
  000f8		 |$LN5@ShellProc|

; 190  :         break;
; 191  : 
; 192  :     case SPM_END_GROUP:
; 193  :         // Sent to the DLL after a group of tests from that DLL has completed
; 194  :         // running. This gives the DLL a time to cleanup after it has been
; 195  :         // run. This message does not mean that the DLL will not be called
; 196  :         // again; it just means that the next test to run belongs to a
; 197  :         // different DLL. SPM_BEGIN_GROUP and SPM_END_GROUP allow the DLL
; 198  :         // to track when it is active and when it is not active.
; 199  :         Debug(TEXT("ShellProc(SPM_END_GROUP, ...) called"));

  000f8	e59f016c	 ldr         r0, [pc, #0x16C]
  000fc	eb000000	 bl          |?Debug@@YAXPBGZZ|

; 200  :         g_pKato->EndLevel(TEXT("END GROUP: CETK_FSTest.DLL"));

  00100	e59f312c	 ldr         r3, [pc, #0x12C]
  00104	e59f2134	 ldr         r2, [pc, #0x134]
  00108	e59f1158	 ldr         r1, [pc, #0x158]
  0010c	e5930000	 ldr         r0, [r3]
  00110	e5923000	 ldr         r3, [r2]
  00114	e1a0e00f	 mov         lr, pc
  00118	e12fff13	 bx          r3

; 256  :     }
; 257  : 
; 258  :     return SPR_HANDLED;

  0011c	e3a00001	 mov         r0, #1
  00120	ea00003e	 b           |$LN16@ShellProc|
  00124		 |$LN4@ShellProc|

; 201  :         break;
; 202  : 
; 203  :     case SPM_BEGIN_TEST:
; 204  :         // Sent to the DLL immediately before a test executes. This gives
; 205  :         // the DLL a chance to perform any common action that occurs at the
; 206  :         // beginning of each test, such as entering a new logging level.
; 207  :         // The spParam parameter will contain a pointer to a SPS_BEGIN_TEST
; 208  :         // structure, which contains the function table entry and some other
; 209  :         // useful information for the next test to execute. If the ShellProc
; 210  :         // function returns SPR_SKIP, then the test case will not execute.
; 211  :         Debug(TEXT("ShellProc(SPM_BEGIN_TEST, ...) called"));

  00124	e59f0138	 ldr         r0, [pc, #0x138]
  00128	eb000000	 bl          |?Debug@@YAXPBGZZ|

; 212  :         // Start our logging level.
; 213  :         pBT = (LPSPS_BEGIN_TEST)spParam;
; 214  :         g_pKato->BeginLevel(
; 215  :             pBT->lpFTE->dwUniqueID,
; 216  :             TEXT("BEGIN TEST: \"%s\", Threads=%u, Seed=%u"),
; 217  :             pBT->lpFTE->lpDescription,
; 218  :             pBT->dwThreadCount,
; 219  :             pBT->dwRandomSeed);

  0012c	e5942000	 ldr         r2, [r4]
  00130	e59fe128	 ldr         lr, [pc, #0x128]
  00134	e59f00f8	 ldr         r0, [pc, #0xF8]
  00138	e5945004	 ldr         r5, [r4, #4]
  0013c	e5946008	 ldr         r6, [r4, #8]
  00140	e5923000	 ldr         r3, [r2]
  00144	e592100c	 ldr         r1, [r2, #0xC]
  00148	e59e4000	 ldr         r4, [lr]
  0014c	e59f2108	 ldr         r2, [pc, #0x108]
  00150	e5900000	 ldr         r0, [r0]
  00154	e58d5004	 str         r5, [sp, #4]
  00158	e58d6000	 str         r6, [sp]
  0015c	e1a0e00f	 mov         lr, pc
  00160	e12fff14	 bx          r4

; 256  :     }
; 257  : 
; 258  :     return SPR_HANDLED;

  00164	e3a00001	 mov         r0, #1
  00168	ea00002c	 b           |$LN16@ShellProc|
  0016c		 |$LN3@ShellProc|

; 220  :         break;
; 221  : 
; 222  :     case SPM_END_TEST:
; 223  :         // Sent to the DLL after a single test executes from the DLL.
; 224  :         // This gives the DLL a time perform any common action that occurs at
; 225  :         // the completion of each test, such as exiting the current logging
; 226  :         // level. The spParam parameter will contain a pointer to a
; 227  :         // SPS_END_TEST structure, which contains the function table entry and
; 228  :         // some other useful information for the test that just completed. If
; 229  :         // the ShellProc returned SPR_SKIP for a given test case, then the
; 230  :         // ShellProc() will not receive a SPM_END_TEST for that given test case.
; 231  :         Debug(TEXT("ShellProc(SPM_END_TEST, ...) called"));

  0016c	e59f00e4	 ldr         r0, [pc, #0xE4]
  00170	eb000000	 bl          |?Debug@@YAXPBGZZ|

; 232  :         // End our logging level.
; 233  :         pET = (LPSPS_END_TEST)spParam;
; 234  :         g_pKato->EndLevel(
; 235  :             TEXT("END TEST: \"%s\", %s, Time=%u.%03u"),
; 236  :             pET->lpFTE->lpDescription,
; 237  :             pET->dwResult == TPR_SKIP ? TEXT("SKIPPED") :
; 238  :             pET->dwResult == TPR_PASS ? TEXT("PASSED") :
; 239  :             pET->dwResult == TPR_FAIL ? TEXT("FAILED") : TEXT("ABORTED"),
; 240  :             pET->dwExecutionTime / 1000, pET->dwExecutionTime % 1000);

  00174	e5943004	 ldr         r3, [r4, #4]
  00178	e3530002	 cmp         r3, #2
  0017c	059f30d0	 ldreq       r3, [pc, #0xD0]
  00180	0a000005	 beq         |$LN19@ShellProc|
  00184	e3530003	 cmp         r3, #3
  00188	059f30c0	 ldreq       r3, [pc, #0xC0]
  0018c	0a000002	 beq         |$LN19@ShellProc|
  00190	e3530004	 cmp         r3, #4
  00194	059f30b0	 ldreq       r3, [pc, #0xB0]
  00198	159f30a8	 ldrne       r3, [pc, #0xA8]
  0019c		 |$LN19@ShellProc|
  0019c	e5948010	 ldr         r8, [r4, #0x10]
  001a0	e59f209c	 ldr         r2, [pc, #0x9C]
  001a4	e3a0effa	 mov         lr, #0xFA, 30
  001a8	e5941000	 ldr         r1, [r4]
  001ac	e0807298	 umull       r7, r0, r8, r2
  001b0	e59f407c	 ldr         r4, [pc, #0x7C]
  001b4	e59f5084	 ldr         r5, [pc, #0x84]
  001b8	e5912000	 ldr         r2, [r1]
  001bc	e1a06320	 mov         r6, r0, lsr #6
  001c0	e00e0e96	 mul         lr, r6, lr
  001c4	e5940000	 ldr         r0, [r4]
  001c8	e59f106c	 ldr         r1, [pc, #0x6C]
  001cc	e048e00e	 sub         lr, r8, lr
  001d0	e5954000	 ldr         r4, [r5]
  001d4	e58de004	 str         lr, [sp, #4]
  001d8	e58d6000	 str         r6, [sp]
  001dc	e1a0e00f	 mov         lr, pc
  001e0	e12fff14	 bx          r4

; 256  :     }
; 257  : 
; 258  :     return SPR_HANDLED;

  001e4	e3a00001	 mov         r0, #1
  001e8	ea00000c	 b           |$LN16@ShellProc|
  001ec		 |$LN2@ShellProc|

; 241  :         break;
; 242  : 
; 243  :     case SPM_EXCEPTION:
; 244  :         // Sent to the DLL whenever code execution in the DLL causes and
; 245  :         // exception fault. TUX traps all exceptions that occur while
; 246  :         // executing code inside a test DLL.
; 247  :         Debug(TEXT("ShellProc(SPM_EXCEPTION, ...) called"));

  001ec	e59f0044	 ldr         r0, [pc, #0x44]
  001f0	eb000000	 bl          |?Debug@@YAXPBGZZ|

; 248  :         g_pKato->Log(LOG_EXCEPTION, TEXT("Exception occurred!"));

  001f4	e59f3038	 ldr         r3, [pc, #0x38]
  001f8	e59f1030	 ldr         r1, [pc, #0x30]
  001fc	e59f2028	 ldr         r2, [pc, #0x28]
  00200	e5930000	 ldr         r0, [r3]
  00204	e5913000	 ldr         r3, [r1]
  00208	e3a01000	 mov         r1, #0
  0020c	e1a0e00f	 mov         lr, pc
  00210	e12fff13	 bx          r3
  00214		 |$LN14@ShellProc|

; 256  :     }
; 257  : 
; 258  :     return SPR_HANDLED;

  00214	e3a00001	 mov         r0, #1
  00218	ea000000	 b           |$LN16@ShellProc|
  0021c		 |$LN1@ShellProc|

; 249  :         break;
; 250  : 
; 251  :     default:
; 252  :         // Any messages that we haven't processed must, by default, cause us
; 253  :         // to return SPR_NOT_HANDLED. This preserves compatibility with future
; 254  :         // versions of the TUX shell protocol, even if new messages are added.
; 255  :         return SPR_NOT_HANDLED;

  0021c	e3a00000	 mov         r0, #0
  00220		 |$LN16@ShellProc|

; 259  : }

  00220	e28dd008	 add         sp, sp, #8
  00224	e8bd41f0	 ldmia       sp!, {r4 - r8, lr}
  00228	e12fff1e	 bx          lr
  0022c		 |$LN41@ShellProc|
  0022c		 |$LN42@ShellProc|
  0022c	00000000	 DCD         |??_C@_1CI@KACAOMDA@?$AAE?$AAx?$AAc?$AAe?$AAp?$AAt?$AAi?$AAo?$AAn?$AA?5?$AAo?$AAc?$AAc?$AAu?$AAr?$AAr?$AAe?$AAd?$AA?$CB?$AA?$AA@|
  00230		 |$LN43@ShellProc|
  00230	00000000	 DCD         |__imp_?Log@CKato@@QAAHKPBGZZ|
  00234		 |$LN44@ShellProc|
  00234	00000000	 DCD         |?g_pKato@@3PAVCKato@@A|
  00238		 |$LN45@ShellProc|
  00238	00000000	 DCD         |??_C@_1EK@DIIDMDAD@?$AAS?$AAh?$AAe?$AAl?$AAl?$AAP?$AAr?$AAo?$AAc?$AA?$CI?$AAS?$AAP?$AAM?$AA_?$AAE?$AAX?$AAC?$AAE?$AAP?$AAT?$AAI?$AAO?$AAN?$AA?0?$AA?5?$AA?4?$AA?4?$AA?4?$AA?$CJ?$AA?5?$AAc?$AAa@|
  0023c		 |$LN46@ShellProc|
  0023c	00000000	 DCD         |??_C@_1EC@KDFHODIP@?$AAE?$AAN?$AAD?$AA?5?$AAT?$AAE?$AAS?$AAT?$AA?3?$AA?5?$AA?$CC?$AA?$CF?$AAs?$AA?$CC?$AA?0?$AA?5?$AA?$CF?$AAs?$AA?0?$AA?5?$AAT?$AAi?$AAm?$AAe?$AA?$DN?$AA?$CF?$AAu?$AA?4?$AA?$CF?$AA0?$AA3?$AAu@|
  00240		 |$LN47@ShellProc|
  00240	00000000	 DCD         |__imp_?EndLevel@CKato@@QAAHPBGZZ|
  00244		 |$LN48@ShellProc|
  00244	10624dd3	 DCD         0x10624dd3
  00248		 |$LN49@ShellProc|
  00248	00000000	 DCD         |??_C@_1BA@FGBMDHOA@?$AAA?$AAB?$AAO?$AAR?$AAT?$AAE?$AAD?$AA?$AA@|
  0024c		 |$LN50@ShellProc|
  0024c	00000000	 DCD         |??_C@_1O@GLIHGOJN@?$AAF?$AAA?$AAI?$AAL?$AAE?$AAD?$AA?$AA@|
  00250		 |$LN51@ShellProc|
  00250	00000000	 DCD         |??_C@_1O@GAOACLOB@?$AAP?$AAA?$AAS?$AAS?$AAE?$AAD?$AA?$AA@|
  00254		 |$LN52@ShellProc|
  00254	00000000	 DCD         |??_C@_1BA@PGEPKIHK@?$AAS?$AAK?$AAI?$AAP?$AAP?$AAE?$AAD?$AA?$AA@|
  00258		 |$LN53@ShellProc|
  00258	00000000	 DCD         |??_C@_1EI@LEDNBHEI@?$AAS?$AAh?$AAe?$AAl?$AAl?$AAP?$AAr?$AAo?$AAc?$AA?$CI?$AAS?$AAP?$AAM?$AA_?$AAE?$AAN?$AAD?$AA_?$AAT?$AAE?$AAS?$AAT?$AA?0?$AA?5?$AA?4?$AA?4?$AA?4?$AA?$CJ?$AA?5?$AAc?$AAa?$AAl@|
  0025c		 |$LN54@ShellProc|
  0025c	00000000	 DCD         |??_C@_1EM@FOHJMLNM@?$AAB?$AAE?$AAG?$AAI?$AAN?$AA?5?$AAT?$AAE?$AAS?$AAT?$AA?3?$AA?5?$AA?$CC?$AA?$CF?$AAs?$AA?$CC?$AA?0?$AA?5?$AAT?$AAh?$AAr?$AAe?$AAa?$AAd?$AAs?$AA?$DN?$AA?$CF?$AAu?$AA?0?$AA?5?$AAS?$AAe@|
  00260		 |$LN55@ShellProc|
  00260	00000000	 DCD         |__imp_?BeginLevel@CKato@@QAAHKPBGZZ|
  00264		 |$LN56@ShellProc|
  00264	00000000	 DCD         |??_C@_1EM@FHMCMOKK@?$AAS?$AAh?$AAe?$AAl?$AAl?$AAP?$AAr?$AAo?$AAc?$AA?$CI?$AAS?$AAP?$AAM?$AA_?$AAB?$AAE?$AAG?$AAI?$AAN?$AA_?$AAT?$AAE?$AAS?$AAT?$AA?0?$AA?5?$AA?4?$AA?4?$AA?4?$AA?$CJ?$AA?5?$AAc@|
  00268		 |$LN57@ShellProc|
  00268	00000000	 DCD         |??_C@_1DG@KFLGKHPF@?$AAE?$AAN?$AAD?$AA?5?$AAG?$AAR?$AAO?$AAU?$AAP?$AA?3?$AA?5?$AAC?$AAE?$AAT?$AAK?$AA_?$AAF?$AAS?$AAT?$AAe?$AAs?$AAt?$AA?4?$AAD?$AAL?$AAL?$AA?$AA@|
  0026c		 |$LN58@ShellProc|
  0026c	00000000	 DCD         |??_C@_1EK@GHDGMMPI@?$AAS?$AAh?$AAe?$AAl?$AAl?$AAP?$AAr?$AAo?$AAc?$AA?$CI?$AAS?$AAP?$AAM?$AA_?$AAE?$AAN?$AAD?$AA_?$AAG?$AAR?$AAO?$AAU?$AAP?$AA?0?$AA?5?$AA?4?$AA?4?$AA?4?$AA?$CJ?$AA?5?$AAc?$AAa@|
  00270		 |$LN59@ShellProc|
  00270	00000000	 DCD         |??_C@_1DK@EKMPPNEH@?$AAB?$AAE?$AAG?$AAI?$AAN?$AA?5?$AAG?$AAR?$AAO?$AAU?$AAP?$AA?3?$AA?5?$AAC?$AAE?$AAT?$AAK?$AA_?$AAF?$AAS?$AAT?$AAe?$AAs?$AAt?$AA?4?$AAD?$AAL?$AAL?$AA?$AA@|
  00274		 |$LN60@ShellProc|
  00274	00000000	 DCD         |??_C@_1EO@PEHBNEBJ@?$AAS?$AAh?$AAe?$AAl?$AAl?$AAP?$AAr?$AAo?$AAc?$AA?$CI?$AAS?$AAP?$AAM?$AA_?$AAB?$AAE?$AAG?$AAI?$AAN?$AA_?$AAG?$AAR?$AAO?$AAU?$AAP?$AA?0?$AA?5?$AA?4?$AA?4?$AA?4?$AA?$CJ?$AA?5@|
  00278		 |$LN61@ShellProc|
  00278	00000000	 DCD         |??_C@_1EO@MABEFEBO@?$AAS?$AAh?$AAe?$AAl?$AAl?$AAP?$AAr?$AAo?$AAc?$AA?$CI?$AAS?$AAP?$AAM?$AA_?$AAS?$AAT?$AAO?$AAP?$AA_?$AAS?$AAC?$AAR?$AAI?$AAP?$AAT?$AA?0?$AA?5?$AA?4?$AA?4?$AA?4?$AA?$CJ?$AA?5@|
  0027c		 |$LN62@ShellProc|
  0027c	00000000	 DCD         |??_C@_1FA@IPECFONB@?$AAS?$AAh?$AAe?$AAl?$AAl?$AAP?$AAr?$AAo?$AAc?$AA?$CI?$AAS?$AAP?$AAM?$AA_?$AAS?$AAT?$AAA?$AAR?$AAT?$AA_?$AAS?$AAC?$AAR?$AAI?$AAP?$AAT?$AA?0?$AA?5?$AA?4?$AA?4?$AA?4?$AA?$CJ@|
  00280		 |$LN63@ShellProc|
  00280	00000000	 DCD         |?g_lpFTE@@3PAU_FUNCTION_TABLE_ENTRY@@A|
  00284		 |$LN64@ShellProc|
  00284	00000000	 DCD         |??_C@_1EI@BIFLJGHA@?$AAS?$AAh?$AAe?$AAl?$AAl?$AAP?$AAr?$AAo?$AAc?$AA?$CI?$AAS?$AAP?$AAM?$AA_?$AAR?$AAE?$AAG?$AAI?$AAS?$AAT?$AAE?$AAR?$AA?0?$AA?5?$AA?4?$AA?4?$AA?4?$AA?$CJ?$AA?5?$AAc?$AAa?$AAl@|
  00288		 |$LN65@ShellProc|
  00288	00000000	 DCD         |?g_pShellInfo@@3PAU_SPS_SHELL_INFO@@A|
  0028c		 |$LN66@ShellProc|
  0028c	00000000	 DCD         |??_C@_1EM@LCENFKIH@?$AAS?$AAh?$AAe?$AAl?$AAl?$AAP?$AAr?$AAo?$AAc?$AA?$CI?$AAS?$AAP?$AAM?$AA_?$AAS?$AAH?$AAE?$AAL?$AAL?$AA_?$AAI?$AAN?$AAF?$AAO?$AA?0?$AA?5?$AA?4?$AA?4?$AA?4?$AA?$CJ?$AA?5?$AAc@|
  00290		 |$LN67@ShellProc|
  00290	00000000	 DCD         |??_C@_1EM@DHBFOELL@?$AAS?$AAh?$AAe?$AAl?$AAl?$AAP?$AAr?$AAo?$AAc?$AA?$CI?$AAS?$AAP?$AAM?$AA_?$AAU?$AAN?$AAL?$AAO?$AAA?$AAD?$AA_?$AAD?$AAL?$AAL?$AA?0?$AA?5?$AA?4?$AA?4?$AA?4?$AA?$CJ?$AA?5?$AAc@|
  00294		 |$LN68@ShellProc|
  00294	00000000	 DCD         |??_C@_1EI@LLGCEHFM@?$AAS?$AAh?$AAe?$AAl?$AAl?$AAP?$AAr?$AAo?$AAc?$AA?$CI?$AAS?$AAP?$AAM?$AA_?$AAL?$AAO?$AAA?$AAD?$AA_?$AAD?$AAL?$AAL?$AA?0?$AA?5?$AA?4?$AA?4?$AA?4?$AA?$CJ?$AA?5?$AAc?$AAa?$AAl@|
  00298		 |$M33035|

			 ENDP  ; |ShellProc|

	END
