; Listing generated by Microsoft (R) Optimizing Compiler Version 14.01.60511.01 

	TTL	C:\WINCE600\PLATFORM\Z2170P\SRC\BOOTLOADER\DISPLAY\bsp_logo.c
	CODE32

  00000			 AREA	 |.drectve|, DRECTVE
	DCB	"-defaultlib:LIBCMT "
	DCB	"-defaultlib:OLDNAMES "


  00000			 AREA	 |.data|, DATA
	 COMMON	|g_dwLogoWidth|, 0x4

	 COMMON	|g_dwLogoHeight|, 0x4

	 COMMON	|g_dwLogoPosY|, 0x4

	 COMMON	|g_dwLogoPosX|, 0x4


  00000			 AREA	 |.rdata|, DATA, READONLY
|EdbgVendorIds| DCW 0x0
	DCW	0x0
	DCD	0x4033
	DCB	0x1
	DCB	"AD", 0x0
	DCW	0x1050
	DCW	0x940
	DCD	0x4005
	DCB	0x1
	DCB	"LS", 0x0
	DCW	0x1050
	DCW	0x940
	DCD	0x2078
	DCB	0x1
	DCB	"LS", 0x0
	DCW	0x10ec
	DCW	0x8029
	DCD	0xc0f0
	DCB	0x1
	DCB	"KS", 0x0
	DCW	0x10ec
	DCW	0x8129
	DCD	0x0
	DCB	0x4
	DCB	"RT", 0x0
	DCW	0x10ec
	DCW	0x8139
	DCD	0x900b
	DCB	0x4
	DCB	"RT", 0x0
	DCW	0x10ec
	DCW	0x8139
	DCD	0xd0c9
	DCB	0x4
	DCB	"RT", 0x0
	DCW	0x10ec
	DCW	0x8139
	DCD	0xe04c
	DCB	0x4
	DCB	"RT", 0x0
	DCW	0x1186
	DCW	0x1300
	DCD	0x50ba
	DCB	0x4
	DCB	"DL", 0x0
	DCW	0x100b
	DCW	0x20
	DCD	0xa0cc
	DCB	0x5
	DCB	"NG", 0x0
	DCW	0x10b7
	DCW	0x9050
	DCD	0x6008
	DCB	0x6
	DCB	"3C", 0x0
	DCW	0x10b7
	DCW	0x9200
	DCD	0x476
	DCB	0x6
	DCB	"3C", 0x0
	IMPORT	|TWLWriteRegs|
; File c:\wince600\platform\common\src\soc\common_ti_v1\triton\inc\twl.h

  00000			 AREA	 |.pdata|, PDATA
|$T48520| DCD	|$LN5@TWLWriteBy|
	DCD	0x40000803
; Function compile flags: /Ogspy

  00000			 AREA	 |.text|, CODE, ARM

  00000		 |TWLWriteByteReg| PROC

; 57   : {

  00000		 |$LN5@TWLWriteBy|
  00000	e1a0c00d	 mov         r12, sp
  00004	e92d000f	 stmdb       sp!, {r0 - r3}
  00008	e92d5000	 stmdb       sp!, {r12, lr}
  0000c		 |$M48517|

; 58   :     return TWLWriteRegs(hTWL,address,&data,sizeof(data));

  0000c	e3a03001	 mov         r3, #1
  00010	e28d2010	 add         r2, sp, #0x10
  00014	eb000000	 bl          TWLWriteRegs

; 59   : }

  00018	e89d6000	 ldmia       sp, {sp, lr}
  0001c	e12fff1e	 bx          lr
  00020		 |$M48518|

			 ENDP  ; |TWLWriteByteReg|

	IMPORT	|memcpy|
; File c:\wince600\platform\z2170p\src\bootloader\display\bsp_logo.c

  00000			 AREA	 |.pdata|, PDATA
|$T48536| DCD	|$LN10@FlipFrameB|
	DCD	0x40001a01
; Function compile flags: /Ogspy

  00000			 AREA	 |.text|, CODE, ARM

  00000		 |FlipFrameBuffer| PROC

; 79   : {

  00000		 |$LN10@FlipFrameB|
  00000	e92d41f0	 stmdb       sp!, {r4 - r8, lr}
  00004		 |$M48533|
  00004	e1a07003	 mov         r7, r3
  00008	e1a04002	 mov         r4, r2
  0000c	e1a05000	 mov         r5, r0

; 80   :     DWORD y;
; 81   :     PUCHAR top;
; 82   :     PUCHAR bottom;
; 83   : 
; 84   :     top = fb;
; 85   :     bottom = fb + ((h-1)*lineSize);

  00010	e241e001	 sub         lr, r1, #1
  00014	e026549e	 mla         r6, lr, r4, r5

; 86   :     
; 87   :     for (y=0;y<h/2;y++)

  00018	e1b080a1	 movs        r8, r1, lsr #1
  0001c	0a00000f	 beq         |$LN1@FlipFrameB|
  00020		 |$LL3@FlipFrameB|

; 88   :     {
; 89   :         memcpy(temporaryBuffer,top,lineSize);

  00020	e1a02004	 mov         r2, r4
  00024	e1a01005	 mov         r1, r5
  00028	e1a00007	 mov         r0, r7
  0002c	eb000000	 bl          memcpy

; 90   :         memcpy(top,bottom,lineSize);

  00030	e1a02004	 mov         r2, r4
  00034	e1a01006	 mov         r1, r6
  00038	e1a00005	 mov         r0, r5
  0003c	eb000000	 bl          memcpy

; 91   :         memcpy(bottom,temporaryBuffer,lineSize);

  00040	e1a02004	 mov         r2, r4
  00044	e1a01007	 mov         r1, r7
  00048	e1a00006	 mov         r0, r6
  0004c	eb000000	 bl          memcpy

; 92   :         top += lineSize;

  00050	e0855004	 add         r5, r5, r4

; 93   :         bottom -= lineSize;

  00054	e0466004	 sub         r6, r6, r4
  00058	e2588001	 subs        r8, r8, #1
  0005c	1affffef	 bne         |$LL3@FlipFrameB|
  00060		 |$LN1@FlipFrameB|

; 94   :     }
; 95   : }

  00060	e8bd41f0	 ldmia       sp!, {r4 - r8, lr}
  00064	e12fff1e	 bx          lr
  00068		 |$M48534|

			 ENDP  ; |FlipFrameBuffer|

	EXPORT	|reset_display_controller|
	EXPORT	|??_C@_1DI@KLJGKAKC@?$AAr?$AAe?$AAs?$AAe?$AAt?$AA_?$AAd?$AAi?$AAs?$AAp?$AAl?$AAa?$AAy?$AA_?$AAc?$AAo?$AAn?$AAt?$AAr?$AAo?$AAl?$AAl?$AAe?$AAr?$AA?9?$AA?$AN?$AA?6?$AA?$AA@| [ DATA ] ; `string'
	EXPORT	|??_C@_1DI@GNPJKJCF@?$AAr?$AAe?$AAs?$AAe?$AAt?$AA_?$AAd?$AAi?$AAs?$AAp?$AAl?$AAa?$AAy?$AA_?$AAc?$AAo?$AAn?$AAt?$AAr?$AAo?$AAl?$AAl?$AAe?$AAr?$AA?$CL?$AA?$AN?$AA?6?$AA?$AA@| [ DATA ] ; `string'
	IMPORT	|NKDbgPrintfW|
	IMPORT	|dpCurSettings|
	IMPORT	|OALPAtoVA|

  00000			 AREA	 |.pdata|, PDATA
|$T48563| DCD	|$LN22@reset_disp|
	DCD	0x40003601

  00000			 AREA	 |.rdata|, DATA, READONLY
|??_C@_1DI@KLJGKAKC@?$AAr?$AAe?$AAs?$AAe?$AAt?$AA_?$AAd?$AAi?$AAs?$AAp?$AAl?$AAa?$AAy?$AA_?$AAc?$AAo?$AAn?$AAt?$AAr?$AAo?$AAl?$AAl?$AAe?$AAr?$AA?9?$AA?$AN?$AA?6?$AA?$AA@| DCB "r"
	DCB	0x0, "e", 0x0, "s", 0x0, "e", 0x0, "t", 0x0, "_", 0x0, "d"
	DCB	0x0, "i", 0x0, "s", 0x0, "p", 0x0, "l", 0x0, "a", 0x0, "y"
	DCB	0x0, "_", 0x0, "c", 0x0, "o", 0x0, "n", 0x0, "t", 0x0, "r"
	DCB	0x0, "o", 0x0, "l", 0x0, "l", 0x0, "e", 0x0, "r", 0x0, "-"
	DCB	0x0, 0xd, 0x0, 0xa, 0x0, 0x0, 0x0	; `string'

  00000			 AREA	 |.rdata|, DATA, READONLY
|??_C@_1DI@GNPJKJCF@?$AAr?$AAe?$AAs?$AAe?$AAt?$AA_?$AAd?$AAi?$AAs?$AAp?$AAl?$AAa?$AAy?$AA_?$AAc?$AAo?$AAn?$AAt?$AAr?$AAo?$AAl?$AAl?$AAe?$AAr?$AA?$CL?$AA?$AN?$AA?6?$AA?$AA@| DCB "r"
	DCB	0x0, "e", 0x0, "s", 0x0, "e", 0x0, "t", 0x0, "_", 0x0, "d"
	DCB	0x0, "i", 0x0, "s", 0x0, "p", 0x0, "l", 0x0, "a", 0x0, "y"
	DCB	0x0, "_", 0x0, "c", 0x0, "o", 0x0, "n", 0x0, "t", 0x0, "r"
	DCB	0x0, "o", 0x0, "l", 0x0, "l", 0x0, "e", 0x0, "r", 0x0, "+"
	DCB	0x0, 0xd, 0x0, 0xa, 0x0, 0x0, 0x0	; `string'
; Function compile flags: /Ogspy

  00000			 AREA	 |.text|, CODE, ARM

  00000		 |reset_display_controller| PROC

; 300  : {

  00000		 |$LN22@reset_disp|
  00000	e92d4070	 stmdb       sp!, {r4 - r6, lr}
  00004		 |$M48560|
  00004	e3a03312	 mov         r3, #0x12, 6

; 301  :     
; 302  :     UINT32 reg_val;
; 303  :     UINT16 count;
; 304  :     UINT32 timeout;
; 305  :     UINT32 fclk, iclk;
; 306  :     OMAP_PRCM_DSS_CM_REGS *pPrcmRegs = OALPAtoUA(OMAP_PRCM_DSS_CM_REGS_PA);

  00008	e3830c4e	 orr         r0, r3, #0x4E, 24
  0000c	e3a01000	 mov         r1, #0
  00010	eb000000	 bl          OALPAtoVA
  00014	e1a05000	 mov         r5, r0

; 307  :     OMAP_DISPC_REGS  *pDisplayRegs = OALPAtoUA(OMAP_DISC1_REGS_PA);

  00018	e59f00b4	 ldr         r0, [pc, #0xB4]
  0001c	e3a01000	 mov         r1, #0
  00020	eb000000	 bl          OALPAtoVA

; 308  :     
; 309  : 	OALMSG(OAL_INFO, (L"reset_display_controller+\r\n"));

  00024	e59f60a4	 ldr         r6, [pc, #0xA4]
  00028	e1a04000	 mov         r4, r0
  0002c	e5963440	 ldr         r3, [r6, #0x440]
  00030	e3130008	 tst         r3, #8
  00034	159f0090	 ldrne       r0, [pc, #0x90]
  00038	1b000000	 blne        NKDbgPrintfW

; 310  : 
; 311  :     // enable all display clocks
; 312  :     fclk = INREG32(&pPrcmRegs->CM_FCLKEN_DSS); // functional clock
; 313  :     iclk = INREG32(&pPrcmRegs->CM_ICLKEN_DSS); // interconnect clock

  0003c	e5950000	 ldr         r0, [r5]
  00040	e1a01005	 mov         r1, r5
  00044	e5b1e010	 ldr         lr, [r1, #0x10]!

; 314  : 
; 315  :     OUTREG32(&pPrcmRegs->CM_FCLKEN_DSS, (fclk | CM_CLKEN_DSS1 | CM_CLKEN_DSS2));
; 316  :     OUTREG32(&pPrcmRegs->CM_ICLKEN_DSS, (iclk | CM_CLKEN_DSS));
; 317  :   
; 318  :     // disable the display controller
; 319  :     //disable_dss();
; 320  : 
; 321  :     // reset the display controller
; 322  :     OUTREG32(&pDisplayRegs->DISPC_SYSCONFIG, DISPC_SYSCONFIG_SOFTRESET);

  00048	e3803003	 orr         r3, r0, #3
  0004c	e5853000	 str         r3, [r5]

; 323  :     
; 324  :     // wait until reset completes OR timeout occurs
; 325  :     timeout=10000;
; 326  :     while(!((reg_val=INREG32(&pDisplayRegs->DISPC_SYSSTATUS)) & DISPC_SYSSTATUS_RESETDONE) && (timeout > 0))

  00050	e3a02c27	 mov         r2, #0x27, 24
  00054	e38e3001	 orr         r3, lr, #1
  00058	e5813000	 str         r3, [r1]
  0005c	e3a03002	 mov         r3, #2
  00060	e5843010	 str         r3, [r4, #0x10]
  00064	e3822010	 orr         r2, r2, #0x10
  00068	ea000008	 b           |$LN19@reset_disp|
  0006c		 |$LL6@reset_disp|
  0006c	e3520000	 cmp         r2, #0
  00070	0a000009	 beq         |$LN17@reset_disp|

; 327  :     {
; 328  :         // delay
; 329  :         for(count=0;count<DELAY_COUNT;++count);

  00074	e3a03000	 mov         r3, #0
  00078		 |$LL4@reset_disp|
  00078	e2833001	 add         r3, r3, #1
  0007c	e1a03803	 mov         r3, r3, lsl #16
  00080	e1a03823	 mov         r3, r3, lsr #16
  00084	e3530064	 cmp         r3, #0x64
  00088	3afffffa	 bcc         |$LL4@reset_disp|

; 330  :         timeout--;

  0008c	e2422001	 sub         r2, r2, #1
  00090		 |$LN19@reset_disp|

; 327  :     {
; 328  :         // delay
; 329  :         for(count=0;count<DELAY_COUNT;++count);

  00090	e5943014	 ldr         r3, [r4, #0x14]

; 330  :         timeout--;

  00094	e3130001	 tst         r3, #1
  00098	0afffff3	 beq         |$LL6@reset_disp|
  0009c		 |$LN17@reset_disp|

; 331  :     }
; 332  : 
; 333  :     if(!(reg_val & DISPC_SYSSTATUS_RESETDONE))
; 334  :     {
; 335  :         // OALMSG(OAL_INFO, (L"reset_display_controller: DSS reset timeout\r\n"));
; 336  :     }
; 337  :     
; 338  :     reg_val=INREG32(&pDisplayRegs->DISPC_SYSCONFIG);

  0009c	e5943010	 ldr         r3, [r4, #0x10]

; 339  :     reg_val &=~(DISPC_SYSCONFIG_SOFTRESET);

  000a0	e3c33002	 bic         r3, r3, #2

; 340  :     OUTREG32(&pDisplayRegs->DISPC_SYSCONFIG,reg_val);

  000a4	e5843010	 str         r3, [r4, #0x10]

; 341  : 
; 342  : 
; 343  :     // restore old clock settings
; 344  :     OUTREG32(&pPrcmRegs->CM_FCLKEN_DSS, fclk);

  000a8	e5850000	 str         r0, [r5]

; 345  :     OUTREG32(&pPrcmRegs->CM_ICLKEN_DSS, iclk);

  000ac	e581e000	 str         lr, [r1]

; 346  :     
; 347  : 	OALMSG(OAL_INFO, (L"reset_display_controller-\r\n"));

  000b0	e5963440	 ldr         r3, [r6, #0x440]
  000b4	e3130008	 tst         r3, #8
  000b8	159f0008	 ldrne       r0, [pc, #8]
  000bc	1b000000	 blne        NKDbgPrintfW

; 348  : }

  000c0	e8bd4070	 ldmia       sp!, {r4 - r6, lr}
  000c4	e12fff1e	 bx          lr
  000c8		 |$LN23@reset_disp|
  000c8		 |$LN24@reset_disp|
  000c8	00000000	 DCD         |??_C@_1DI@KLJGKAKC@?$AAr?$AAe?$AAs?$AAe?$AAt?$AA_?$AAd?$AAi?$AAs?$AAp?$AAl?$AAa?$AAy?$AA_?$AAc?$AAo?$AAn?$AAt?$AAr?$AAo?$AAl?$AAl?$AAe?$AAr?$AA?9?$AA?$AN?$AA?6?$AA?$AA@|
  000cc		 |$LN25@reset_disp|
  000cc	00000000	 DCD         |??_C@_1DI@GNPJKJCF@?$AAr?$AAe?$AAs?$AAe?$AAt?$AA_?$AAd?$AAi?$AAs?$AAp?$AAl?$AAa?$AAy?$AA_?$AAc?$AAo?$AAn?$AAt?$AAr?$AAo?$AAl?$AAl?$AAe?$AAr?$AA?$CL?$AA?$AN?$AA?6?$AA?$AA@|
  000d0		 |$LN26@reset_disp|
  000d0	00000000	 DCD         |dpCurSettings|
  000d4		 |$LN27@reset_disp|
  000d4	48050400	 DCD         0x48050400
  000d8		 |$M48561|

			 ENDP  ; |reset_display_controller|

	EXPORT	|disable_dss|

  00000			 AREA	 |.pdata|, PDATA
|$T48575| DCD	|$LN5@disable_ds|
	DCD	0x40000100
; Function compile flags: /Ogspy

  00000			 AREA	 |.text|, CODE, ARM

  00000		 |disable_dss| PROC

; 394  : {

  00000		 |$LN5@disable_ds|
  00000		 |$M48572|

; 395  :      //OALMSG(OAL_INFO, (L"disable_dss+\r\n"));
; 396  : 
; 397  :      //OALMSG(OAL_INFO, (L"disable_dss-\r\n"));
; 398  : }

  00000	e12fff1e	 bx          lr
  00004		 |$M48573|

			 ENDP  ; |disable_dss|

	EXPORT	|enable_lcd_power|
	EXPORT	|??_C@_1EG@LOGBCLGD@?$AAe?$AAn?$AAa?$AAb?$AAl?$AAe?$AA?5?$AAD?$AAS?$AAS?$AA_?$AAL?$AA3?$AA_?$AAI?$AAC?$AAL?$AAK?$AA?0?$AA?5?$AAD?$AAS?$AAS?$AA_?$AAL?$AA4?$AA_?$AAI?$AAC?$AAL?$AAK?$AA?0@| [ DATA ] ; `string'
	EXPORT	|??_C@_1FG@DIGPAKMB@?$AAe?$AAn?$AAa?$AAb?$AAl?$AAe?$AA?5?$AAD?$AAS?$AAS?$AA1?$AA_?$AAA?$AAL?$AAW?$AAO?$AAN?$AA_?$AAF?$AAC?$AAL?$AAK?$AA?0?$AA?5?$AAD?$AAS?$AAS?$AA2?$AA_?$AAA?$AAL?$AAW@| [ DATA ] ; `string'

  00000			 AREA	 |.pdata|, PDATA
|$T48589| DCD	|$LN9@enable_lcd|
	DCD	0x40001c01

  00000			 AREA	 |.rdata|, DATA, READONLY
|??_C@_1EG@LOGBCLGD@?$AAe?$AAn?$AAa?$AAb?$AAl?$AAe?$AA?5?$AAD?$AAS?$AAS?$AA_?$AAL?$AA3?$AA_?$AAI?$AAC?$AAL?$AAK?$AA?0?$AA?5?$AAD?$AAS?$AAS?$AA_?$AAL?$AA4?$AA_?$AAI?$AAC?$AAL?$AAK?$AA?0@| DCB "e"
	DCB	0x0, "n", 0x0, "a", 0x0, "b", 0x0, "l", 0x0, "e", 0x0, " "
	DCB	0x0, "D", 0x0, "S", 0x0, "S", 0x0, "_", 0x0, "L", 0x0, "3"
	DCB	0x0, "_", 0x0, "I", 0x0, "C", 0x0, "L", 0x0, "K", 0x0, ","
	DCB	0x0, " ", 0x0, "D", 0x0, "S", 0x0, "S", 0x0, "_", 0x0, "L"
	DCB	0x0, "4", 0x0, "_", 0x0, "I", 0x0, "C", 0x0, "L", 0x0, "K"
	DCB	0x0, ",", 0x0, 0xd, 0x0, 0xa, 0x0, 0x0, 0x0 ; `string'

  00000			 AREA	 |.rdata|, DATA, READONLY
|??_C@_1FG@DIGPAKMB@?$AAe?$AAn?$AAa?$AAb?$AAl?$AAe?$AA?5?$AAD?$AAS?$AAS?$AA1?$AA_?$AAA?$AAL?$AAW?$AAO?$AAN?$AA_?$AAF?$AAC?$AAL?$AAK?$AA?0?$AA?5?$AAD?$AAS?$AAS?$AA2?$AA_?$AAA?$AAL?$AAW@| DCB "e"
	DCB	0x0, "n", 0x0, "a", 0x0, "b", 0x0, "l", 0x0, "e", 0x0, " "
	DCB	0x0, "D", 0x0, "S", 0x0, "S", 0x0, "1", 0x0, "_", 0x0, "A"
	DCB	0x0, "L", 0x0, "W", 0x0, "O", 0x0, "N", 0x0, "_", 0x0, "F"
	DCB	0x0, "C", 0x0, "L", 0x0, "K", 0x0, ",", 0x0, " ", 0x0, "D"
	DCB	0x0, "S", 0x0, "S", 0x0, "2", 0x0, "_", 0x0, "A", 0x0, "L"
	DCB	0x0, "W", 0x0, "O", 0x0, "N", 0x0, "_", 0x0, "F", 0x0, "C"
	DCB	0x0, "L", 0x0, "K", 0x0, ",", 0x0, 0xd, 0x0, 0xa, 0x0, 0x0
	DCB	0x0					; `string'
; Function compile flags: /Ogspy

  00000			 AREA	 |.text|, CODE, ARM

  00000		 |enable_lcd_power| PROC

; 407  : {

  00000		 |$LN9@enable_lcd|
  00000	e92d4030	 stmdb       sp!, {r4, r5, lr}
  00004		 |$M48586|
  00004	e3a03312	 mov         r3, #0x12, 6

; 408  :     OMAP_PRCM_DSS_CM_REGS *pPrcmRegs = OALPAtoUA(OMAP_PRCM_DSS_CM_REGS_PA);

  00008	e3830c4e	 orr         r0, r3, #0x4E, 24
  0000c	e3a01000	 mov         r1, #0
  00010	eb000000	 bl          OALPAtoVA

; 409  :     
; 410  : 	OALMSG(OAL_INFO, (L"enable DSS1_ALWON_FCLK, DSS2_ALWON_FCLK,\r\n"));

  00014	e59f5050	 ldr         r5, [pc, #0x50]
  00018	e1a04000	 mov         r4, r0
  0001c	e5953440	 ldr         r3, [r5, #0x440]
  00020	e3130008	 tst         r3, #8
  00024	0a000002	 beq         |$LN3@enable_lcd|
  00028	e59f0038	 ldr         r0, [pc, #0x38]
  0002c	eb000000	 bl          NKDbgPrintfW
  00030	e5953440	 ldr         r3, [r5, #0x440]
  00034		 |$LN3@enable_lcd|

; 411  : 	OALMSG(OAL_INFO, (L"enable DSS_L3_ICLK, DSS_L4_ICLK,\r\n"));

  00034	e3130008	 tst         r3, #8
  00038	159f0024	 ldrne       r0, [pc, #0x24]
  0003c	1b000000	 blne        NKDbgPrintfW

; 412  :     SETREG32(&pPrcmRegs->CM_FCLKEN_DSS, (CM_CLKEN_DSS1 | CM_CLKEN_DSS2));

  00040	e5943000	 ldr         r3, [r4]

; 413  :     SETREG32(&pPrcmRegs->CM_ICLKEN_DSS, (CM_CLKEN_DSS));
; 414  : 
; 415  : 	//OALMSG(OAL_INFO, (L"enable_lcd_power-\r\n"));
; 416  : 
; 417  :     return ERROR_SUCCESS;

  00044	e3a00000	 mov         r0, #0
  00048	e3833003	 orr         r3, r3, #3
  0004c	e5843000	 str         r3, [r4]
  00050	e5b43010	 ldr         r3, [r4, #0x10]!
  00054	e3833001	 orr         r3, r3, #1
  00058	e5843000	 str         r3, [r4]

; 418  : }

  0005c	e8bd4030	 ldmia       sp!, {r4, r5, lr}
  00060	e12fff1e	 bx          lr
  00064		 |$LN10@enable_lcd|
  00064		 |$LN11@enable_lcd|
  00064	00000000	 DCD         |??_C@_1EG@LOGBCLGD@?$AAe?$AAn?$AAa?$AAb?$AAl?$AAe?$AA?5?$AAD?$AAS?$AAS?$AA_?$AAL?$AA3?$AA_?$AAI?$AAC?$AAL?$AAK?$AA?0?$AA?5?$AAD?$AAS?$AAS?$AA_?$AAL?$AA4?$AA_?$AAI?$AAC?$AAL?$AAK?$AA?0@|
  00068		 |$LN12@enable_lcd|
  00068	00000000	 DCD         |??_C@_1FG@DIGPAKMB@?$AAe?$AAn?$AAa?$AAb?$AAl?$AAe?$AA?5?$AAD?$AAS?$AAS?$AA1?$AA_?$AAA?$AAL?$AAW?$AAO?$AAN?$AA_?$AAF?$AAC?$AAL?$AAK?$AA?0?$AA?5?$AAD?$AAS?$AAS?$AA2?$AA_?$AAA?$AAL?$AAW@|
  0006c		 |$LN13@enable_lcd|
  0006c	00000000	 DCD         |dpCurSettings|
  00070		 |$M48587|

			 ENDP  ; |enable_lcd_power|

	EXPORT	|disable_lcd_power|

  00000			 AREA	 |.pdata|, PDATA
|$T48603| DCD	|$LN5@disable_lc|
	DCD	0x40000f01
; Function compile flags: /Ogspy

  00000			 AREA	 |.text|, CODE, ARM

  00000		 |disable_lcd_power| PROC

; 427  : {

  00000		 |$LN5@disable_lc|
  00000	e52de004	 str         lr, [sp, #-4]!
  00004		 |$M48600|
  00004	e3a03312	 mov         r3, #0x12, 6

; 428  :     OMAP_PRCM_DSS_CM_REGS *pPrcmRegs = OALPAtoUA(OMAP_PRCM_DSS_CM_REGS_PA);

  00008	e3830c4e	 orr         r0, r3, #0x4E, 24
  0000c	e3a01000	 mov         r1, #0
  00010	eb000000	 bl          OALPAtoVA
  00014	e1a02000	 mov         r2, r0

; 429  : 
; 430  :      //OALMSG(OAL_INFO, (L"disable_lcd_power+\r\n"));
; 431  : 
; 432  :     CLRREG32(&pPrcmRegs->CM_FCLKEN_DSS, (CM_CLKEN_DSS1 | CM_CLKEN_DSS2));

  00018	e5923000	 ldr         r3, [r2]

; 433  :     CLRREG32(&pPrcmRegs->CM_ICLKEN_DSS, (CM_CLKEN_DSS));
; 434  :     
; 435  :      //OALMSG(OAL_INFO, (L"disable_lcd_power-\r\n"));
; 436  :     return ERROR_SUCCESS;

  0001c	e3a00000	 mov         r0, #0
  00020	e3c33003	 bic         r3, r3, #3
  00024	e5823000	 str         r3, [r2]
  00028	e5b23010	 ldr         r3, [r2, #0x10]!
  0002c	e3c33001	 bic         r3, r3, #1
  00030	e5823000	 str         r3, [r2]

; 437  : }

  00034	e49de004	 ldr         lr, [sp], #4
  00038	e12fff1e	 bx          lr
  0003c		 |$M48601|

			 ENDP  ; |disable_lcd_power|

	EXPORT	|enable_lcd_backlight|
	EXPORT	|??_C@_1DA@ILMFHDEF@?$AAe?$AAn?$AAa?$AAb?$AAl?$AAe?$AA_?$AAl?$AAc?$AAd?$AA_?$AAb?$AAa?$AAc?$AAk?$AAl?$AAi?$AAg?$AAh?$AAt?$AA?$CL?$AA?$AN?$AA?6?$AA?$AA@| [ DATA ] ; `string'
	IMPORT	|TWLClose|
	IMPORT	|TWLOpen|
; File c:\wince600\platform\common\src\soc\common_ti_v1\triton\inc\twl.h

  00000			 AREA	 |.pdata|, PDATA
|$T48631| DCD	|$LN15@enable_lcd@2|
	DCD	0x40002e02

  00000			 AREA	 |.rdata|, DATA, READONLY
|??_C@_1DA@ILMFHDEF@?$AAe?$AAn?$AAa?$AAb?$AAl?$AAe?$AA_?$AAl?$AAc?$AAd?$AA_?$AAb?$AAa?$AAc?$AAk?$AAl?$AAi?$AAg?$AAh?$AAt?$AA?$CL?$AA?$AN?$AA?6?$AA?$AA@| DCB "e"
	DCB	0x0, "n", 0x0, "a", 0x0, "b", 0x0, "l", 0x0, "e", 0x0, "_"
	DCB	0x0, "l", 0x0, "c", 0x0, "d", 0x0, "_", 0x0, "b", 0x0, "a"
	DCB	0x0, "c", 0x0, "k", 0x0, "l", 0x0, "i", 0x0, "g", 0x0, "h"
	DCB	0x0, "t", 0x0, "+", 0x0, 0xd, 0x0, 0xa, 0x0, 0x0, 0x0 ; `string'
; Function compile flags: /Ogspy
; File c:\wince600\platform\z2170p\src\bootloader\display\bsp_logo.c

  00000			 AREA	 |.text|, CODE, ARM

  00000		 |enable_lcd_backlight| PROC

; 446  : {

  00000		 |$LN15@enable_lcd@2|
  00000	e92d4030	 stmdb       sp!, {r4, r5, lr}
  00004	e24dd004	 sub         sp, sp, #4
  00008		 |$M48628|

; 447  :     void* hTwl;
; 448  :     
; 449  : 	OALMSG(OAL_INFO, (L"enable_lcd_backlight+\r\n"));

  00008	e59f30a4	 ldr         r3, [pc, #0xA4]
  0000c	e5933440	 ldr         r3, [r3, #0x440]
  00010	e3130008	 tst         r3, #8
  00014	159f0094	 ldrne       r0, [pc, #0x94]
  00018	1b000000	 blne        NKDbgPrintfW

; 450  : 
; 451  :     // Enable LEDA on TPS659XX
; 452  :     hTwl = TWLOpen();

  0001c	eb000000	 bl          TWLOpen
  00020	e3a05801	 mov         r5, #1, 16

; 453  : 
; 454  : 	TWLWriteByteReg(hTwl, TWL_PMBR1, 0x04); // PWM0 function is enabled

  00024	e3a0e004	 mov         lr, #4
  00028	e3851092	 orr         r1, r5, #0x92
  0002c	e3a03001	 mov         r3, #1
  00030	e28d2000	 add         r2, sp, #0
  00034	e5cde000	 strb        lr, [sp]
  00038	e1a04000	 mov         r4, r0
  0003c	eb000000	 bl          TWLWriteRegs

; 455  : 	TWLWriteByteReg(hTwl, TWL_GPBR1, 0x05); // PWM0_ENABLE & PWM0_CLK_ENABLE

  00040	e3a03005	 mov         r3, #5
  00044	e5cd3000	 strb        r3, [sp]
  00048	e3a03001	 mov         r3, #1
  0004c	e28d2000	 add         r2, sp, #0
  00050	e3851091	 orr         r1, r5, #0x91
  00054	e1a00004	 mov         r0, r4
  00058	eb000000	 bl          TWLWriteRegs
  0005c	e3a05802	 mov         r5, #2, 16

; 456  : 	TWLWriteByteReg(hTwl, TWL_PWM0OFF, 0x7F);

  00060	e3a0e07f	 mov         lr, #0x7F
  00064	e38510f9	 orr         r1, r5, #0xF9
  00068	e3a03001	 mov         r3, #1
  0006c	e28d2000	 add         r2, sp, #0
  00070	e1a00004	 mov         r0, r4
  00074	e5cde000	 strb        lr, [sp]
  00078	eb000000	 bl          TWLWriteRegs

; 457  : 	TWLWriteByteReg(hTwl, TWL_PWM0ON, 0x40);

  0007c	e3a03040	 mov         r3, #0x40
  00080	e5cd3000	 strb        r3, [sp]
  00084	e3a03001	 mov         r3, #1
  00088	e28d2000	 add         r2, sp, #0
  0008c	e38510f8	 orr         r1, r5, #0xF8
  00090	e1a00004	 mov         r0, r4
  00094	eb000000	 bl          TWLWriteRegs

; 458  : /*#ifdef BSP_EVM2
; 459  :     TWLWriteByteReg(hTwl, TWL_LEDEN, 0x11);
; 460  :     // Set PWM registers to same value to trigger 100% duty cycle
; 461  :     TWLWriteByteReg(hTwl, TWL_PWMAOFF, 0x00);
; 462  :     TWLWriteByteReg(hTwl, TWL_PWMAON, 0x00);
; 463  : #else
; 464  :     // The hardware design is completely backwards.  
; 465  :     // In order to get 100% brightness, the LEDPWM must 
; 466  :     // be disabled.
; 467  :     // Clear LEDAON, LEDAPWM
; 468  :     TWLWriteByteReg(hTwl, TWL_LEDEN, 0x00);
; 469  : #endif */   
; 470  :     TWLClose(hTwl);

  00098	e1a00004	 mov         r0, r4
  0009c	eb000000	 bl          TWLClose

; 471  :     
; 472  :      //OALMSG(OAL_INFO, (L"enable_lcd_backlight-\r\n"));
; 473  :     return ERROR_SUCCESS;

  000a0	e3a00000	 mov         r0, #0

; 474  : }

  000a4	e28dd004	 add         sp, sp, #4
  000a8	e8bd4030	 ldmia       sp!, {r4, r5, lr}
  000ac	e12fff1e	 bx          lr
  000b0		 |$LN16@enable_lcd@2|
  000b0		 |$LN17@enable_lcd@2|
  000b0	00000000	 DCD         |??_C@_1DA@ILMFHDEF@?$AAe?$AAn?$AAa?$AAb?$AAl?$AAe?$AA_?$AAl?$AAc?$AAd?$AA_?$AAb?$AAa?$AAc?$AAk?$AAl?$AAi?$AAg?$AAh?$AAt?$AA?$CL?$AA?$AN?$AA?6?$AA?$AA@|
  000b4		 |$LN18@enable_lcd@2|
  000b4	00000000	 DCD         |dpCurSettings|
  000b8		 |$M48629|

			 ENDP  ; |enable_lcd_backlight|

	EXPORT	|disable_lcd_backlight|
	EXPORT	|??_C@_1DC@LNCCCMGG@?$AAd?$AAi?$AAs?$AAa?$AAb?$AAl?$AAe?$AA_?$AAl?$AAc?$AAd?$AA_?$AAb?$AAa?$AAc?$AAk?$AAl?$AAi?$AAg?$AAh?$AAt?$AA?$CL?$AA?$AN?$AA?6?$AA?$AA@| [ DATA ] ; `string'
; File c:\wince600\platform\common\src\soc\common_ti_v1\triton\inc\twl.h

  00000			 AREA	 |.pdata|, PDATA
|$T48658| DCD	|$LN13@disable_lc@2|
	DCD	0x40002702

  00000			 AREA	 |.rdata|, DATA, READONLY
|??_C@_1DC@LNCCCMGG@?$AAd?$AAi?$AAs?$AAa?$AAb?$AAl?$AAe?$AA_?$AAl?$AAc?$AAd?$AA_?$AAb?$AAa?$AAc?$AAk?$AAl?$AAi?$AAg?$AAh?$AAt?$AA?$CL?$AA?$AN?$AA?6?$AA?$AA@| DCB "d"
	DCB	0x0, "i", 0x0, "s", 0x0, "a", 0x0, "b", 0x0, "l", 0x0, "e"
	DCB	0x0, "_", 0x0, "l", 0x0, "c", 0x0, "d", 0x0, "_", 0x0, "b"
	DCB	0x0, "a", 0x0, "c", 0x0, "k", 0x0, "l", 0x0, "i", 0x0, "g"
	DCB	0x0, "h", 0x0, "t", 0x0, "+", 0x0, 0xd, 0x0, 0xa, 0x0, 0x0
	DCB	0x0					; `string'
; Function compile flags: /Ogspy
; File c:\wince600\platform\z2170p\src\bootloader\display\bsp_logo.c

  00000			 AREA	 |.text|, CODE, ARM

  00000		 |disable_lcd_backlight| PROC

; 483  : {

  00000		 |$LN13@disable_lc@2|
  00000	e92d4030	 stmdb       sp!, {r4, r5, lr}
  00004	e24dd004	 sub         sp, sp, #4
  00008		 |$M48655|

; 484  :     HANDLE hTwl;
; 485  : 
; 486  : 	OALMSG(OAL_INFO, (L"disable_lcd_backlight+\r\n"));

  00008	e59f3088	 ldr         r3, [pc, #0x88]
  0000c	e5933440	 ldr         r3, [r3, #0x440]
  00010	e3130008	 tst         r3, #8
  00014	159f0078	 ldrne       r0, [pc, #0x78]
  00018	1b000000	 blne        NKDbgPrintfW

; 487  :     // Enable LEDA on TPS659XX
; 488  :     hTwl = TWLOpen();

  0001c	eb000000	 bl          TWLOpen
  00020	e3a05801	 mov         r5, #1, 16

; 489  : 	TWLWriteByteReg(hTwl, TWL_PMBR1, 0x00);

  00024	e3a0e000	 mov         lr, #0
  00028	e3851092	 orr         r1, r5, #0x92
  0002c	e3a03001	 mov         r3, #1
  00030	e28d2000	 add         r2, sp, #0
  00034	e5cde000	 strb        lr, [sp]
  00038	e1a04000	 mov         r4, r0
  0003c	eb000000	 bl          TWLWriteRegs

; 490  : 	TWLWriteByteReg(hTwl, TWL_GPBR1, 0x00);

  00040	e3a03000	 mov         r3, #0
  00044	e5cd3000	 strb        r3, [sp]
  00048	e3a03001	 mov         r3, #1
  0004c	e28d2000	 add         r2, sp, #0
  00050	e3851091	 orr         r1, r5, #0x91
  00054	e1a00004	 mov         r0, r4
  00058	eb000000	 bl          TWLWriteRegs
  0005c	e3a03802	 mov         r3, #2, 16

; 491  : 	TWLWriteByteReg(hTwl, TWL_PWM0OFF, 0x7F);

  00060	e38310f9	 orr         r1, r3, #0xF9
  00064	e3a0e07f	 mov         lr, #0x7F
  00068	e3a03001	 mov         r3, #1
  0006c	e28d2000	 add         r2, sp, #0
  00070	e1a00004	 mov         r0, r4
  00074	e5cde000	 strb        lr, [sp]
  00078	eb000000	 bl          TWLWriteRegs

; 492  : /*#ifdef BSP_EVM2
; 493  :     TWLWriteByteReg(hTwl, TWL_LEDEN, 0x00);
; 494  : #else
; 495  :     // The hardware design is completely backwards.  In order
; 496  :     // to disable the LED control signal, the LEDPWM signal must 
; 497  :     // be enabled 100%
; 498  :     // Set LEDAON, LEDAPWM
; 499  :     TWLWriteByteReg(hTwl, TWL_LEDEN, 0x11);
; 500  :     // Set PWM registers to same value to trigger 100% duty cycle
; 501  :     TWLWriteByteReg(hTwl, TWL_PWMAOFF, 0x00);
; 502  :     TWLWriteByteReg(hTwl, TWL_PWMAON, 0x00);
; 503  : #endif
; 504  : */    
; 505  :     TWLClose(hTwl);

  0007c	e1a00004	 mov         r0, r4
  00080	eb000000	 bl          TWLClose

; 506  :      //OALMSG(OAL_INFO, (L"disable_lcd_backlight-\r\n"));
; 507  :     return ERROR_SUCCESS;

  00084	e3a00000	 mov         r0, #0

; 508  : }

  00088	e28dd004	 add         sp, sp, #4
  0008c	e8bd4030	 ldmia       sp!, {r4, r5, lr}
  00090	e12fff1e	 bx          lr
  00094		 |$LN14@disable_lc@2|
  00094		 |$LN15@disable_lc@2|
  00094	00000000	 DCD         |??_C@_1DC@LNCCCMGG@?$AAd?$AAi?$AAs?$AAa?$AAb?$AAl?$AAe?$AA_?$AAl?$AAc?$AAd?$AA_?$AAb?$AAa?$AAc?$AAk?$AAl?$AAi?$AAg?$AAh?$AAt?$AA?$CL?$AA?$AN?$AA?6?$AA?$AA@|
  00098		 |$LN16@disable_lc@2|
  00098	00000000	 DCD         |dpCurSettings|
  0009c		 |$M48656|

			 ENDP  ; |disable_lcd_backlight|

	EXPORT	|configure_dss|
	EXPORT	|??_C@_1CC@JGDIOEGJ@?$AAc?$AAo?$AAn?$AAf?$AAi?$AAg?$AAu?$AAr?$AAe?$AA_?$AAd?$AAs?$AAs?$AA?9?$AA?$AN?$AA?6?$AA?$AA@| [ DATA ] ; `string'
	EXPORT	|??_C@_1CG@GJLGPOAN@?$AA?$AN?$AA?6?$AAc?$AAo?$AAn?$AAf?$AAi?$AAg?$AAu?$AAr?$AAe?$AA_?$AAd?$AAs?$AAs?$AA?$CL?$AA?$AN?$AA?6?$AA?$AA@| [ DATA ] ; `string'
	IMPORT	|GPIOClose|
	IMPORT	|LcdPdd_LCD_Initialize|
	IMPORT	|GPIOOpen|

  00000			 AREA	 |.pdata|, PDATA
|$T48677| DCD	|$LN9@configure_|
	DCD	0x40004d01

  00000			 AREA	 |.rdata|, DATA, READONLY
|??_C@_1CC@JGDIOEGJ@?$AAc?$AAo?$AAn?$AAf?$AAi?$AAg?$AAu?$AAr?$AAe?$AA_?$AAd?$AAs?$AAs?$AA?9?$AA?$AN?$AA?6?$AA?$AA@| DCB "c"
	DCB	0x0, "o", 0x0, "n", 0x0, "f", 0x0, "i", 0x0, "g", 0x0, "u"
	DCB	0x0, "r", 0x0, "e", 0x0, "_", 0x0, "d", 0x0, "s", 0x0, "s"
	DCB	0x0, "-", 0x0, 0xd, 0x0, 0xa, 0x0, 0x0, 0x0 ; `string'

  00000			 AREA	 |.rdata|, DATA, READONLY
|??_C@_1CG@GJLGPOAN@?$AA?$AN?$AA?6?$AAc?$AAo?$AAn?$AAf?$AAi?$AAg?$AAu?$AAr?$AAe?$AA_?$AAd?$AAs?$AAs?$AA?$CL?$AA?$AN?$AA?6?$AA?$AA@| DCB 0xd
	DCB	0x0, 0xa, 0x0, "c", 0x0, "o", 0x0, "n", 0x0, "f", 0x0, "i"
	DCB	0x0, "g", 0x0, "u", 0x0, "r", 0x0, "e", 0x0, "_", 0x0, "d"
	DCB	0x0, "s", 0x0, "s", 0x0, "+", 0x0, 0xd, 0x0, 0xa, 0x0, 0x0
	DCB	0x0					; `string'
; Function compile flags: /Ogspy

  00000			 AREA	 |.text|, CODE, ARM

  00000		 |configure_dss| PROC

; 517  : {

  00000		 |$LN9@configure_|
  00000	e92d4ff0	 stmdb       sp!, {r4 - r11, lr}
  00004		 |$M48674|
  00004	e1a08000	 mov         r8, r0
  00008	e3a03312	 mov         r3, #0x12, 6

; 518  :     OMAP_DSS_REGS   *pDSSRegs = OALPAtoUA(OMAP_DSS1_REGS_PA);

  0000c	e3830805	 orr         r0, r3, #5, 16
  00010	e3a01000	 mov         r1, #0
  00014	eb000000	 bl          OALPAtoVA
  00018	e1a07000	 mov         r7, r0

; 519  :     OMAP_DISPC_REGS *pDisplayRegs = OALPAtoUA(OMAP_DISC1_REGS_PA);

  0001c	e59f010c	 ldr         r0, [pc, #0x10C]
  00020	e3a01000	 mov         r1, #0
  00024	eb000000	 bl          OALPAtoVA
  00028	e1a06000	 mov         r6, r0

; 520  :     OMAP_RFBI_REGS *pRfbiRegs = OALPAtoUA(OMAP_RFBI1_REGS_PA);

  0002c	e59f00f8	 ldr         r0, [pc, #0xF8]
  00030	e3a01000	 mov         r1, #0
  00034	eb000000	 bl          OALPAtoVA
  00038	e1a09000	 mov         r9, r0

; 521  :     HANDLE hGpio = GPIOOpen();

  0003c	eb000000	 bl          GPIOOpen

; 522  : 
; 523  : 	OALMSG(OAL_INFO, (L"\r\nconfigure_dss+\r\n"));

  00040	e59f50e0	 ldr         r5, [pc, #0xE0]
  00044	e1a04000	 mov         r4, r0
  00048	e5953440	 ldr         r3, [r5, #0x440]
  0004c	e3130008	 tst         r3, #8
  00050	159f00cc	 ldrne       r0, [pc, #0xCC]
  00054	1b000000	 blne        NKDbgPrintfW

; 524  : 
; 525  :     //  Configure the clock source
; 526  :     OUTREG32( &pDSSRegs->DSS_CONTROL, 
; 527  : 			DSS_CONTROL_DISPC_CLK_SWITCH_DSS1_ALWON | DSS_CONTROL_DSI_CLK_SWITCH_DSS1_ALWON);

  00058	e3a03a01	 mov         r3, #1, 20
  0005c	e3a0b000	 mov         r11, #0

; 528  :     
; 529  :     //  Configure interconnect parameters
; 530  :     OUTREG32( &pDSSRegs->DSS_SYSCONFIG, DISPC_SYSCONFIG_AUTOIDLE );
; 531  :     OUTREG32( &pDisplayRegs->DISPC_SYSCONFIG, DISPC_SYSCONFIG_AUTOIDLE|SYSCONFIG_NOIDLE|SYSCONFIG_NOSTANDBY );

  00060	e3a0a001	 mov         r10, #1
  00064	e587b040	 str         r11, [r7, #0x40]
  00068	e3833009	 orr         r3, r3, #9
  0006c	e587a010	 str         r10, [r7, #0x10]
  00070	e5863010	 str         r3, [r6, #0x10]

; 532  : 
; 533  :     // Not enabling any interrupts
; 534  :     OUTREG32( &pDisplayRegs->DISPC_IRQENABLE, 0x00000000 );
; 535  :     
; 536  :     //  Configure the LCD
; 537  :     LcdPdd_LCD_Initialize( pDSSRegs, pDisplayRegs, pRfbiRegs, NULL);

  00074	e3a03000	 mov         r3, #0
  00078	e1a02009	 mov         r2, r9
  0007c	e1a01006	 mov         r1, r6
  00080	e1a00007	 mov         r0, r7
  00084	e586b01c	 str         r11, [r6, #0x1C]
  00088	eb000000	 bl          LcdPdd_LCD_Initialize

; 538  :     	
; 539  :     //  Over-ride default LCD config
; 540  :     OUTREG32(&pDisplayRegs->DISPC_CONFIG,BSP_LCD_CONFIG);
; 541  :     
; 542  :     
; 543  :     // Configure Graphics Window
; 544  :     //--------------------------
; 545  :     
; 546  :     OUTREG32(&pDisplayRegs->DISPC_GFX_BA0 ,framebuffer );
; 547  :  
; 548  :     // configure the position of graphics window
; 549  :     OUTREG32(&pDisplayRegs->DISPC_GFX_POSITION,BSP_GFX_POS);

  0008c	e59f308c	 ldr         r3, [pc, #0x8C]
  00090	e59f2084	 ldr         r2, [pc, #0x84]
  00094	e3a01f81	 mov         r1, #0x81, 30
  00098	e5861044	 str         r1, [r6, #0x44]
  0009c	e5868080	 str         r8, [r6, #0x80]
  000a0	e5931000	 ldr         r1, [r3]
  000a4	e5923000	 ldr         r3, [r2]

; 550  :     
; 551  :     // size of graphics window
; 552  :     OUTREG32(&pDisplayRegs->DISPC_GFX_SIZE,BSP_GFX_SIZE);

  000a8	e59f2068	 ldr         r2, [pc, #0x68]
  000ac	e59f0060	 ldr         r0, [pc, #0x60]
  000b0	e1813803	 orr         r3, r1, r3, lsl #16
  000b4	e5863088	 str         r3, [r6, #0x88]
  000b8	e5922000	 ldr         r2, [r2]
  000bc	e5903000	 ldr         r3, [r0]
  000c0	e2422001	 sub         r2, r2, #1
  000c4	e2433001	 sub         r3, r3, #1
  000c8	e1833802	 orr         r3, r3, r2, lsl #16
  000cc	e586308c	 str         r3, [r6, #0x8C]

; 553  :     
; 554  :     // GW Enabled, RGB24 packed, Little Endian
; 555  :     OUTREG32(&pDisplayRegs->DISPC_GFX_ATTRIBUTES,LOGO_GFX_ATTRIBUTES);

  000d0	e3a03013	 mov         r3, #0x13
  000d4	e3a0273f	 mov         r2, #0x3F, 14
  000d8	e58630a0	 str         r3, [r6, #0xA0]

; 556  :     
; 557  :     OUTREG32(&pDisplayRegs->DISPC_GFX_FIFO_THRESHOLD,BSP_GFX_FIFO_THRESHOLD);

  000dc	e38230c0	 orr         r3, r2, #0xC0
  000e0	e58630a4	 str         r3, [r6, #0xA4]

; 558  :     OUTREG32(&pDisplayRegs->DISPC_GFX_ROW_INC,BSP_GFX_ROW_INC); 

  000e4	e586a0ac	 str         r10, [r6, #0xAC]

; 559  :     OUTREG32(&pDisplayRegs->DISPC_GFX_PIXEL_INC,BSP_GFX_PIXEL_INC); 

  000e8	e586a0b0	 str         r10, [r6, #0xB0]

; 560  :     OUTREG32(&pDisplayRegs->DISPC_GFX_WINDOW_SKIP,BSP_GFX_WINDOW_SKIP);

  000ec	e586b0b4	 str         r11, [r6, #0xB4]

; 561  : 
; 562  :     OALMSG(OAL_INFO, (L"configure_dss-\r\n"));

  000f0	e5953440	 ldr         r3, [r5, #0x440]
  000f4	e3130008	 tst         r3, #8
  000f8	159f0010	 ldrne       r0, [pc, #0x10]
  000fc	1b000000	 blne        NKDbgPrintfW

; 563  : 
; 564  : 	GPIOClose(hGpio);

  00100	e1a00004	 mov         r0, r4
  00104	eb000000	 bl          GPIOClose

; 565  : }

  00108	e8bd4ff0	 ldmia       sp!, {r4 - r11, lr}
  0010c	e12fff1e	 bx          lr
  00110		 |$LN10@configure_|
  00110		 |$LN11@configure_|
  00110	00000000	 DCD         |??_C@_1CC@JGDIOEGJ@?$AAc?$AAo?$AAn?$AAf?$AAi?$AAg?$AAu?$AAr?$AAe?$AA_?$AAd?$AAs?$AAs?$AA?9?$AA?$AN?$AA?6?$AA?$AA@|
  00114		 |$LN12@configure_|
  00114	00000000	 DCD         |g_dwLogoWidth|
  00118		 |$LN13@configure_|
  00118	00000000	 DCD         |g_dwLogoHeight|
  0011c		 |$LN14@configure_|
  0011c	00000000	 DCD         |g_dwLogoPosY|
  00120		 |$LN15@configure_|
  00120	00000000	 DCD         |g_dwLogoPosX|
  00124		 |$LN16@configure_|
  00124	00000000	 DCD         |??_C@_1CG@GJLGPOAN@?$AA?$AN?$AA?6?$AAc?$AAo?$AAn?$AAf?$AAi?$AAg?$AAu?$AAr?$AAe?$AA_?$AAd?$AAs?$AAs?$AA?$CL?$AA?$AN?$AA?6?$AA?$AA@|
  00128		 |$LN17@configure_|
  00128	00000000	 DCD         |dpCurSettings|
  0012c		 |$LN18@configure_|
  0012c	48050800	 DCD         0x48050800
  00130		 |$LN19@configure_|
  00130	48050400	 DCD         0x48050400
  00134		 |$M48675|

			 ENDP  ; |configure_dss|

	EXPORT	|display_lcd_image|
	IMPORT	|LcdPdd_SetPowerLevel|

  00000			 AREA	 |.pdata|, PDATA
|$T48701| DCD	|$LN15@display_lc|
	DCD	0x40001901
; Function compile flags: /Ogspy

  00000			 AREA	 |.text|, CODE, ARM

  00000		 |display_lcd_image| PROC

; 574  : {

  00000		 |$LN15@display_lc|
  00000	e92d4010	 stmdb       sp!, {r4, lr}
  00004		 |$M48698|

; 575  :     UINT8  count, timeout = DELAY_COUNT  ;
; 576  :     UINT16 ctrl;
; 577  :     OMAP_DISPC_REGS *pDisplayRegs = OALPAtoUA(OMAP_DISC1_REGS_PA);

  00004	e59f0054	 ldr         r0, [pc, #0x54]
  00008	e3a01000	 mov         r1, #0
  0000c	e3a04064	 mov         r4, #0x64
  00010	eb000000	 bl          OALPAtoVA

; 578  :     
; 579  :     // Apply display configuration
; 580  :     SETREG32(&pDisplayRegs->DISPC_CONTROL,DISPC_CONTROL_GOLCD);

  00014	e5903040	 ldr         r3, [r0, #0x40]
  00018	e3833020	 orr         r3, r3, #0x20
  0001c	e5803040	 str         r3, [r0, #0x40]
  00020		 |$LL7@display_lc|

; 581  :     
; 582  :     // wait for configuration to take effect
; 583  :     do
; 584  :     {
; 585  :         for(count=0;count<DELAY_COUNT;++count);

  00020	e3a03000	 mov         r3, #0
  00024		 |$LL4@display_lc|
  00024	e2833001	 add         r3, r3, #1
  00028	e20330ff	 and         r3, r3, #0xFF
  0002c	e3530064	 cmp         r3, #0x64
  00030	3afffffb	 bcc         |$LL4@display_lc|

; 586  :         ctrl=INREG16(&pDisplayRegs->DISPC_CONTROL);

  00034	e1d024b0	 ldrh        r2, [r0, #0x40]

; 587  :         timeout-- ;

  00038	e28430ff	 add         r3, r4, #0xFF
  0003c	e20340ff	 and         r4, r3, #0xFF

; 588  :     }
; 589  :     while((ctrl & DISPC_CONTROL_GOLCD) && (timeout > 0));

  00040	e3120020	 tst         r2, #0x20
  00044	0a000001	 beq         |$LN1@display_lc|
  00048	e3540000	 cmp         r4, #0
  0004c	1afffff3	 bne         |$LL7@display_lc|
  00050		 |$LN1@display_lc|

; 590  :     
; 591  :     // Power up and start scanning
; 592  :     LcdPdd_SetPowerLevel(D0);   

  00050	e3a00000	 mov         r0, #0
  00054	eb000000	 bl          LcdPdd_SetPowerLevel

; 593  :     
; 594  :      //OALMSG(OAL_INFO, (L"display_lcd_image-\r\n"));
; 595  : }

  00058	e8bd4010	 ldmia       sp!, {r4, lr}
  0005c	e12fff1e	 bx          lr
  00060		 |$LN16@display_lc|
  00060		 |$LN17@display_lc|
  00060	48050400	 DCD         0x48050400
  00064		 |$M48699|

			 ENDP  ; |display_lcd_image|

	EXPORT	|LcdStall|
	IMPORT	|OALStall|

  00000			 AREA	 |.pdata|, PDATA
|$T48711| DCD	|$LN5@LcdStall|
	DCD	0x40000401
; Function compile flags: /Ogspy

  00000			 AREA	 |.text|, CODE, ARM

  00000		 |LcdStall| PROC

; 599  : {

  00000		 |$LN5@LcdStall|
  00000	e52de004	 str         lr, [sp, #-4]!
  00004		 |$M48708|

; 600  :     OALStall(dwMicroseconds);

  00004	eb000000	 bl          OALStall

; 601  : }

  00008	e49de004	 ldr         lr, [sp], #4
  0000c	e12fff1e	 bx          lr
  00010		 |$M48709|

			 ENDP  ; |LcdStall|

	EXPORT	|LcdSleep|

  00000			 AREA	 |.pdata|, PDATA
|$T48719| DCD	|$LN5@LcdSleep|
	DCD	0x40000601
; Function compile flags: /Ogspy

  00000			 AREA	 |.text|, CODE, ARM

  00000		 |LcdSleep| PROC

; 604  : {

  00000		 |$LN5@LcdSleep|
  00000	e52de004	 str         lr, [sp, #-4]!
  00004		 |$M48716|

; 605  :     OALStall(1000 * dwMilliseconds);

  00004	e3a02ffa	 mov         r2, #0xFA, 30
  00008	e0000092	 mul         r0, r2, r0
  0000c	eb000000	 bl          OALStall

; 606  : }

  00010	e49de004	 ldr         lr, [sp], #4
  00014	e12fff1e	 bx          lr
  00018		 |$M48717|

			 ENDP  ; |LcdSleep|

	EXPORT	|lcd_config|

  00000			 AREA	 |.pdata|, PDATA
|$T48727| DCD	|$LN5@lcd_config|
	DCD	0x40000a01
; Function compile flags: /Ogspy

  00000			 AREA	 |.text|, CODE, ARM

  00000		 |lcd_config| PROC

; 357  : {    

  00000		 |$LN5@lcd_config|
  00000	e92d4010	 stmdb       sp!, {r4, lr}
  00004		 |$M48724|
  00004	e1a04000	 mov         r4, r0

; 358  :     reset_display_controller();

  00008	eb000000	 bl          reset_display_controller

; 359  : 
; 360  :     // Enable LCD clocks
; 361  :     enable_lcd_power();

  0000c	eb000000	 bl          enable_lcd_power

; 362  : 
; 363  :     // Configure the DSS registers
; 364  :     configure_dss(framebuffer);

  00010	e1a00004	 mov         r0, r4
  00014	eb000000	 bl          configure_dss

; 365  :       
; 366  :     // Display data on LCD
; 367  :     display_lcd_image() ;

  00018	eb000000	 bl          display_lcd_image

; 368  :     
; 369  : 	// Turn on backlight last
; 370  : 	enable_lcd_backlight();

  0001c	eb000000	 bl          enable_lcd_backlight

; 371  : 
; 372  : }

  00020	e8bd4010	 ldmia       sp!, {r4, lr}
  00024	e12fff1e	 bx          lr
  00028		 |$M48725|

			 ENDP  ; |lcd_config|

	EXPORT	|lcd_shutdown|

  00000			 AREA	 |.pdata|, PDATA
|$T48734| DCD	|$LN5@lcd_shutdo|
	DCD	0x40000701
; Function compile flags: /Ogspy

  00000			 AREA	 |.text|, CODE, ARM

  00000		 |lcd_shutdown| PROC

; 381  : {

  00000		 |$LN5@lcd_shutdo|
  00000	e52de004	 str         lr, [sp, #-4]!
  00004		 |$M48731|

; 382  :     disable_lcd_backlight();

  00004	eb000000	 bl          disable_lcd_backlight

; 383  :     LcdPdd_SetPowerLevel(D4);

  00008	e3a00004	 mov         r0, #4
  0000c	eb000000	 bl          LcdPdd_SetPowerLevel

; 384  :     disable_lcd_power();

  00010	eb000000	 bl          disable_lcd_power

; 385  : }   

  00014	e49de004	 ldr         lr, [sp], #4
  00018	e12fff1e	 bx          lr
  0001c		 |$M48732|

			 ENDP  ; |lcd_shutdown|

	EXPORT	|ShowLogo|
	IMPORT	|OALFlashStoreClose|
	IMPORT	|OALFlashStoreBufferedRead|
	IMPORT	|OALFlashStoreOpen|
	IMPORT	|LcdPdd_GetMemory|
	IMPORT	|LcdPdd_LCD_GetMode|

  00000			 AREA	 |.pdata|, PDATA
|$T48775| DCD	|$LN29@ShowLogo|
	DCD	0x40008902
; Function compile flags: /Ogspy

  00000			 AREA	 |.text|, CODE, ARM

  00000		 |ShowLogo| PROC

; 104  : {

  00000		 |$LN29@ShowLogo|
  00000	e92d4ff0	 stmdb       sp!, {r4 - r11, lr}
  00004	e24dd018	 sub         sp, sp, #0x18
  00008		 |$M48772|
  00008	e1a06001	 mov         r6, r1
  0000c	e1a05000	 mov         r5, r0

; 105  :     HANDLE  hFlash = NULL;
; 106  :     DWORD  framebuffer;
; 107  :     DWORD  framebufferPA;
; 108  :     PUCHAR  pChar;
; 109  :     ULONG   x, y;
; 110  :     WORD    wSignature = 0;

  00010	e3a03000	 mov         r3, #0

; 111  :     DWORD   dwOffset = 0;

  00014	e3a02000	 mov         r2, #0
  00018	e1cd30b4	 strh        r3, [sp, #4]
  0001c	e58d2010	 str         r2, [sp, #0x10]

; 112  :     DWORD   dwLcdWidth,
; 113  :             dwLcdHeight;
; 114  :     DWORD   dwLength;
; 115  : 	
; 116  : 	//  Get the LCD width and height
; 117  :     LcdPdd_LCD_GetMode( NULL, &dwLcdWidth, &dwLcdHeight, NULL );

  00020	e3a03000	 mov         r3, #0
  00024	e28d200c	 add         r2, sp, #0xC
  00028	e28d1008	 add         r1, sp, #8
  0002c	e3a00000	 mov         r0, #0
  00030	eb000000	 bl          LcdPdd_LCD_GetMode

; 118  : 	
; 119  :     dwLength = BYTES_PER_PIXEL * LOGO_WIDTH * LOGO_HEIGHT;
; 120  : 
; 121  :     //  Get the video memory
; 122  :     LcdPdd_GetMemory( NULL, &framebufferPA );

  00034	e28d1014	 add         r1, sp, #0x14
  00038	e3a00000	 mov         r0, #0
  0003c	eb000000	 bl          LcdPdd_GetMemory

; 123  :     framebuffer = (DWORD) OALPAtoUA(framebufferPA);

  00040	e59d0014	 ldr         r0, [sp, #0x14]
  00044	e3a01000	 mov         r1, #0
  00048	eb000000	 bl          OALPAtoVA

; 124  :     pChar = (PUCHAR)framebuffer;
; 125  :     
; 126  :    if (flashAddr != -1)

  0004c	e3a03c4d	 mov         r3, #0x4D, 24
  00050	e59f91c8	 ldr         r9, [pc, #0x1C8]
  00054	e59fa1c0	 ldr         r10, [pc, #0x1C0]
  00058	e59fb1b8	 ldr         r11, [pc, #0x1B8]
  0005c	e59f81b0	 ldr         r8, [pc, #0x1B0]
  00060	e3837042	 orr         r7, r3, #0x42
  00064	e1a04000	 mov         r4, r0
  00068	e3a0e000	 mov         lr, #0
  0006c	e3750001	 cmn         r5, #1
  00070	0a000040	 beq         |$LN13@ShowLogo|

; 127  :     {
; 128  :         // Open flash storage
; 129  :         hFlash = OALFlashStoreOpen(flashAddr);

  00074	e1a00005	 mov         r0, r5
  00078	eb000000	 bl          OALFlashStoreOpen
  0007c	e1b05000	 movs        r5, r0

; 130  :         if( hFlash != NULL )
; 131  :         {
; 132  :             //  The LOGO reserved NAND flash region contains the BMP file
; 133  :             OALFlashStoreBufferedRead( hFlash, offset, (UCHAR*) &wSignature, sizeof(wSignature), FALSE );

  00080	e3a0e000	 mov         lr, #0
  00084	0a00003b	 beq         |$LN13@ShowLogo|
  00088	e3a03002	 mov         r3, #2
  0008c	e28d2004	 add         r2, sp, #4
  00090	e1a01006	 mov         r1, r6
  00094	e1a00005	 mov         r0, r5
  00098	e58de000	 str         lr, [sp]
  0009c	eb000000	 bl          OALFlashStoreBufferedRead

; 134  : 
; 135  :             //  Check for 'BM' signature
; 136  :             if( wSignature == 0x4D42 )  

  000a0	e1dd30b4	 ldrh        r3, [sp, #4]
  000a4	e1530007	 cmp         r3, r7
  000a8	1a00000e	 bne         |$LN8@ShowLogo|

; 137  :             {
; 138  :                 //  Read the offset to the pixel data
; 139  :                 OALFlashStoreBufferedRead( hFlash, offset + 10, (UCHAR*) &dwOffset, sizeof(dwOffset), FALSE );

  000ac	e3a0e000	 mov         lr, #0
  000b0	e3a03004	 mov         r3, #4
  000b4	e28d2010	 add         r2, sp, #0x10
  000b8	e286100a	 add         r1, r6, #0xA
  000bc	e1a00005	 mov         r0, r5
  000c0	e58de000	 str         lr, [sp]
  000c4	eb000000	 bl          OALFlashStoreBufferedRead

; 140  : 
; 141  :                 //  Read the pixel data with the given offset
; 142  :                 OALFlashStoreBufferedRead( hFlash, offset + dwOffset, pChar, dwLength, FALSE );

  000c8	e59d1010	 ldr         r1, [sp, #0x10]
  000cc	e3a0e000	 mov         lr, #0
  000d0	e3a03be1	 mov         r3, #0xE1, 22
  000d4	e0811006	 add         r1, r1, r6
  000d8	e1a02004	 mov         r2, r4
  000dc	e1a00005	 mov         r0, r5
  000e0	e58de000	 str         lr, [sp]
  000e4	eb000000	 bl          OALFlashStoreBufferedRead
  000e8		 |$LN8@ShowLogo|

; 143  :             }
; 144  :            
; 145  :             //  Close store
; 146  :             OALFlashStoreClose(hFlash);

  000e8	e1a00005	 mov         r0, r5
  000ec	eb000000	 bl          OALFlashStoreClose

; 147  :         
; 148  :             //  Compute position and size of logo image 
; 149  :             g_dwLogoPosX   = (dwLcdWidth - LOGO_WIDTH)/2;

  000f0	e59d3008	 ldr         r3, [sp, #8]

; 150  :             g_dwLogoPosY   = (dwLcdHeight - LOGO_HEIGHT)/2;

  000f4	e59d200c	 ldr         r2, [sp, #0xC]

; 151  :             g_dwLogoWidth  = LOGO_WIDTH;

  000f8	e3a0ed05	 mov         lr, #5, 26
  000fc	e2433d05	 sub         r3, r3, #5, 26
  00100	e24220f0	 sub         r2, r2, #0xF0
  00104	e1a030a3	 mov         r3, r3, lsr #1
  00108	e1a020a2	 mov         r2, r2, lsr #1

; 152  :             g_dwLogoHeight = LOGO_HEIGHT;

  0010c	e3a000f0	 mov         r0, #0xF0

; 153  :             
; 154  :             //As BMP are stored upside down, we need to flip the frame buffer's content
; 155  :             FlipFrameBuffer((PUCHAR)framebuffer, LOGO_HEIGHT,LOGO_WIDTH*BYTES_PER_PIXEL, (PUCHAR)framebuffer + dwLength);

  00110	e284190e	 add         r1, r4, #0xE, 18
  00114	e5883000	 str         r3, [r8]
  00118	e3a08078	 mov         r8, #0x78
  0011c	e58b2000	 str         r2, [r11]
  00120	e58ae000	 str         lr, [r10]
  00124	e5890000	 str         r0, [r9]
  00128	e1a05004	 mov         r5, r4
  0012c	e2816040	 add         r6, r1, #0x40
  00130		 |$LL15@ShowLogo|
  00130	e3a02d0f	 mov         r2, #0xF, 26
  00134	e1a01005	 mov         r1, r5
  00138	e2840be1	 add         r0, r4, #0xE1, 22
  0013c	eb000000	 bl          memcpy
  00140	e3a02d0f	 mov         r2, #0xF, 26
  00144	e1a01006	 mov         r1, r6
  00148	e1a00005	 mov         r0, r5
  0014c	eb000000	 bl          memcpy
  00150	e3a02d0f	 mov         r2, #0xF, 26
  00154	e2841be1	 add         r1, r4, #0xE1, 22
  00158	e1a00006	 mov         r0, r6
  0015c	eb000000	 bl          memcpy
  00160	e2855d0f	 add         r5, r5, #0xF, 26
  00164	e2466d0f	 sub         r6, r6, #0xF, 26
  00168	e2588001	 subs        r8, r8, #1
  0016c	1affffef	 bne         |$LL15@ShowLogo|
  00170	e59f809c	 ldr         r8, [pc, #0x9C]
  00174	e3a0e000	 mov         lr, #0
  00178		 |$LN13@ShowLogo|

; 156  :         }
; 157  :     }
; 158  : 
; 159  :     //  If bitmap signature is valid, display the logo, otherwise fill screen with pattern
; 160  :     // if( wSignature == 0x4D42 )			Ray 13-08-01 
; 161  :    if( wSignature != 0x4D42 )		

  00178	e1dd30b4	 ldrh        r3, [sp, #4]
  0017c	e1530007	 cmp         r3, r7
  00180	0a000019	 beq         |$LN4@ShowLogo|

; 162  : 	{
; 163  :    
; 164  : 		//  Adjust color bars to LCD size
; 165  : 		g_dwLogoPosX   = 0;
; 166  :         g_dwLogoPosY   = 0;
; 167  :         g_dwLogoWidth  = dwLcdWidth;

  00184	e59d2008	 ldr         r2, [sp, #8]

; 168  :         g_dwLogoHeight = dwLcdHeight;

  00188	e59d300c	 ldr         r3, [sp, #0xC]
  0018c	e3a00000	 mov         r0, #0
  00190	e3a01000	 mov         r1, #0
  00194	e58b0000	 str         r0, [r11]
  00198	e58a2000	 str         r2, [r10]
  0019c	e5893000	 str         r3, [r9]

; 169  :         
; 170  :         for (y= 0; y < dwLcdHeight; y++)

  001a0	e3530000	 cmp         r3, #0
  001a4	e5881000	 str         r1, [r8]
  001a8	e3a00000	 mov         r0, #0
  001ac	0a00000e	 beq         |$LN4@ShowLogo|
  001b0	e3a050ff	 mov         r5, #0xFF
  001b4		 |$LL6@ShowLogo|

; 171  :         {
; 172  :             for( x = 0; x < dwLcdWidth; x++ )

  001b4	e3a01000	 mov         r1, #0
  001b8	e3520000	 cmp         r2, #0
  001bc	0a000007	 beq         |$LN5@ShowLogo|
  001c0		 |$LL3@ShowLogo|

; 173  :             {
; 174  : 				 *pChar++ = 0x00;    //  Blue	

  001c0	e4c4e001	 strb        lr, [r4], #1
  001c4	e2811001	 add         r1, r1, #1

; 175  :                  *pChar++ = 0x00;    //  Green

  001c8	e4c4e001	 strb        lr, [r4], #1

; 176  :                  *pChar++ = 0xFF;    //  Red

  001cc	e4c45001	 strb        r5, [r4], #1
  001d0	e59d2008	 ldr         r2, [sp, #8]
  001d4	e1510002	 cmp         r1, r2
  001d8	3afffff8	 bcc         |$LL3@ShowLogo|

; 171  :         {
; 172  :             for( x = 0; x < dwLcdWidth; x++ )

  001dc	e59d300c	 ldr         r3, [sp, #0xC]
  001e0		 |$LN5@ShowLogo|

; 169  :         
; 170  :         for (y= 0; y < dwLcdHeight; y++)

  001e0	e2800001	 add         r0, r0, #1
  001e4	e1500003	 cmp         r0, r3
  001e8	3afffff1	 bcc         |$LL6@ShowLogo|
  001ec		 |$LN4@ShowLogo|

; 177  : 				/*if( y < dwLcdHeight/2 )
; 178  :                 {
; 179  :                     if( x < dwLcdWidth/2 )
; 180  :                     {
; 181  :                        *pChar++ = 0x00;    //  Blue	
; 182  :                         *pChar++ = 0x00;    //  Green
; 183  :                         *pChar++ = 0xFF;    //  Red
; 184  : 						//*pChar++ = 0x00;    //  Blue	//Ray 13-07-31
; 185  :                        // *pChar++ = 0x00;    //  Green
; 186  :                        // *pChar++ = 0x00;    //  Red
; 187  : 
; 188  :                     }
; 189  :                     else
; 190  :                     {
; 191  :                         /**pChar++ = 0x00;    //  Blue	
; 192  :                         *pChar++ = 0xFF;    //  Green
; 193  :                         *pChar++ = 0x00;    //  Red*/
; 194  : 						/**pChar++ = 0x00;    //  Blue	//Ray 13-07-31
; 195  :                         *pChar++ = 0x00;    //  Green
; 196  :                         *pChar++ = 0xFF;    //  Red
; 197  :                     }
; 198  :                 }
; 199  :                 else
; 200  :                 {
; 201  :                     if( x < dwLcdWidth/2 )
; 202  :                     {
; 203  :                         /**pChar++ = 0xFF;    //  Blue	
; 204  :                         *pChar++ = 0x00;    //  Green
; 205  :                         *pChar++ = 0x00;    //  Red*/
; 206  : 						/**pChar++ = 0x00;    //  Blue	//Ray 13-07-31
; 207  :                         *pChar++ = 0x00;    //  Green
; 208  :                         *pChar++ = 0xFF;    //  Red
; 209  :                     }
; 210  :                     else
; 211  :                     {
; 212  : 						/**pChar++ = 0x00;    //  Blue	
; 213  :                         *pChar++ = 0xFF;    //  Green
; 214  :                         *pChar++ = 0xFF;    //  Red*/
; 215  : 						/**pChar++ = 0x00;    //  Blue	//Ray 13-07-31
; 216  :                         *pChar++ = 0x00;    //  Green
; 217  :                         *pChar++ = 0xFF;    //  Red
; 218  : 				    }
; 219  :                 }*/
; 220  :             }
; 221  :         }
; 222  :     }
; 223  : 
; 224  :     //  Fire up the LCD
; 225  :     lcd_config(framebufferPA); 

  001ec	e59d4014	 ldr         r4, [sp, #0x14]
  001f0	eb000000	 bl          reset_display_controller
  001f4	eb000000	 bl          enable_lcd_power
  001f8	e1a00004	 mov         r0, r4
  001fc	eb000000	 bl          configure_dss
  00200	eb000000	 bl          display_lcd_image
  00204	eb000000	 bl          enable_lcd_backlight

; 226  : }

  00208	e28dd018	 add         sp, sp, #0x18
  0020c	e8bd4ff0	 ldmia       sp!, {r4 - r11, lr}
  00210	e12fff1e	 bx          lr
  00214		 |$LN30@ShowLogo|
  00214		 |$LN31@ShowLogo|
  00214	00000000	 DCD         |g_dwLogoPosX|
  00218		 |$LN32@ShowLogo|
  00218	00000000	 DCD         |g_dwLogoPosY|
  0021c		 |$LN33@ShowLogo|
  0021c	00000000	 DCD         |g_dwLogoWidth|
  00220		 |$LN34@ShowLogo|
  00220	00000000	 DCD         |g_dwLogoHeight|
  00224		 |$M48773|

			 ENDP  ; |ShowLogo|

	EXPORT	|ShowSDLogo|
	EXPORT	|??_C@_1GK@BOLHCJDJ@?$AAS?$AAh?$AAo?$AAw?$AAS?$AAD?$AAL?$AAo?$AAg?$AAo?$AA?3?$AA?5?$AAg?$AA_?$AAd?$AAw?$AAL?$AAo?$AAg?$AAo?$AAW?$AAi?$AAd?$AAt?$AAh?$AA?5?$AA?$DN?$AA?5?$AA?$CF?$AAd?$AA?0?$AAg@| [ DATA ] ; `string'
	EXPORT	|??_C@_1GE@MOPAKJBC@?$AAS?$AAh?$AAo?$AAw?$AAS?$AAD?$AAL?$AAo?$AAg?$AAo?$AA?3?$AA?5?$AAg?$AA_?$AAd?$AAw?$AAL?$AAo?$AAg?$AAo?$AAP?$AAo?$AAs?$AAX?$AA?5?$AA?$DN?$AA?5?$AA?$CF?$AAd?$AA?0?$AAg?$AA_@| [ DATA ] ; `string'
	EXPORT	|??_C@_1BC@OEIIPFBF@?$AAL?$AAO?$AAG?$AAO?$AA?4?$AAb?$AAm?$AAp?$AA?$AA@| [ DATA ] ; `string'
	EXPORT	|??_C@_1DA@IPAEADDN@?$AAS?$AAh?$AAo?$AAw?$AAS?$AAD?$AAL?$AAo?$AAg?$AAo?$AA?3?$AA?5?$AAs?$AAi?$AAz?$AAe?$AA?5?$AA?$DN?$AA?5?$AA?$CF?$AAd?$AA?$AN?$AA?6?$AA?$AA@| [ DATA ] ; `string'
	EXPORT	|??_C@_1DO@ENJNNPID@?$AAS?$AAh?$AAo?$AAw?$AAS?$AAD?$AAL?$AAo?$AAg?$AAo?$AA?3?$AA?5?$AAL?$AAO?$AAG?$AAO?$AA_?$AAH?$AAE?$AAI?$AAG?$AAH?$AAT?$AA?5?$AA?$DN?$AA?5?$AA?$CF?$AAd?$AA?$AN?$AA?6?$AA?$AA@| [ DATA ] ; `string'
	EXPORT	|??_C@_1DM@PDMEKHDN@?$AAS?$AAh?$AAo?$AAw?$AAS?$AAD?$AAL?$AAo?$AAg?$AAo?$AA?3?$AA?5?$AAL?$AAO?$AAG?$AAO?$AA_?$AAW?$AAI?$AAD?$AAT?$AAH?$AA?5?$AA?$DN?$AA?5?$AA?$CF?$AAd?$AA?$AN?$AA?6?$AA?$AA@| [ DATA ] ; `string'
	EXPORT	|??_C@_1EG@DJLDILPN@?$AAS?$AAh?$AAo?$AAw?$AAS?$AAD?$AAL?$AAo?$AAg?$AAo?$AA?3?$AA?5?$AAB?$AAY?$AAT?$AAE?$AAS?$AA_?$AAP?$AAE?$AAR?$AA_?$AAP?$AAI?$AAX?$AAE?$AAL?$AA?5?$AA?$DN?$AA?5?$AA?$CF?$AAd@| [ DATA ] ; `string'
	EXPORT	|??_C@_1FG@OMGJIHIC@?$AAS?$AAh?$AAo?$AAw?$AAS?$AAD?$AAL?$AAo?$AAg?$AAo?$AA?3?$AA?5?$AAf?$AAr?$AAa?$AAm?$AAe?$AAb?$AAu?$AAf?$AAf?$AAe?$AAr?$AA?5?$AAO?$AAA?$AAL?$AAP?$AAA?$AAt?$AAo?$AAU@| [ DATA ] ; `string'
	EXPORT	|??_C@_1EC@EIHFLIJH@?$AAS?$AAh?$AAo?$AAw?$AAS?$AAD?$AAL?$AAo?$AAg?$AAo?$AA?3?$AA?5?$AAf?$AAr?$AAa?$AAm?$AAe?$AAb?$AAu?$AAf?$AAf?$AAe?$AAr?$AA?5?$AA?$DN?$AA?5?$AA0?$AAx?$AA?$CF?$AAx?$AA?$AN?$AA?6@| [ DATA ] ; `string'
	EXPORT	|??_C@_1GA@FFGKMOGE@?$AAS?$AAh?$AAo?$AAw?$AAS?$AAD?$AAL?$AAo?$AAg?$AAo?$AA?3?$AA?5?$AAd?$AAw?$AAL?$AAc?$AAd?$AAW?$AAi?$AAd?$AAt?$AAh?$AA?5?$AA?$DN?$AA?5?$AA?$CF?$AAd?$AA?0?$AA?5?$AAd?$AAw?$AAL@| [ DATA ] ; `string'
	IMPORT	|BLSDCardReadLogo|

  00000			 AREA	 |.pdata|, PDATA
|$T48828| DCD	|$LN33@ShowSDLogo|
	DCD	0x40008f02

  00000			 AREA	 |.rdata|, DATA, READONLY
|??_C@_1GK@BOLHCJDJ@?$AAS?$AAh?$AAo?$AAw?$AAS?$AAD?$AAL?$AAo?$AAg?$AAo?$AA?3?$AA?5?$AAg?$AA_?$AAd?$AAw?$AAL?$AAo?$AAg?$AAo?$AAW?$AAi?$AAd?$AAt?$AAh?$AA?5?$AA?$DN?$AA?5?$AA?$CF?$AAd?$AA?0?$AAg@| DCB "S"
	DCB	0x0, "h", 0x0, "o", 0x0, "w", 0x0, "S", 0x0, "D", 0x0, "L"
	DCB	0x0, "o", 0x0, "g", 0x0, "o", 0x0, ":", 0x0, " ", 0x0, "g"
	DCB	0x0, "_", 0x0, "d", 0x0, "w", 0x0, "L", 0x0, "o", 0x0, "g"
	DCB	0x0, "o", 0x0, "W", 0x0, "i", 0x0, "d", 0x0, "t", 0x0, "h"
	DCB	0x0, " ", 0x0, "=", 0x0, " ", 0x0, "%", 0x0, "d", 0x0, ","
	DCB	0x0, "g", 0x0, "_", 0x0, "d", 0x0, "w", 0x0, "L", 0x0, "o"
	DCB	0x0, "g", 0x0, "o", 0x0, "H", 0x0, "e", 0x0, "i", 0x0, "g"
	DCB	0x0, "h", 0x0, "t", 0x0, " ", 0x0, "=", 0x0, " ", 0x0, "%"
	DCB	0x0, "d", 0x0, 0xd, 0x0, 0xa, 0x0, 0x0, 0x0 ; `string'

  00000			 AREA	 |.rdata|, DATA, READONLY
|??_C@_1GE@MOPAKJBC@?$AAS?$AAh?$AAo?$AAw?$AAS?$AAD?$AAL?$AAo?$AAg?$AAo?$AA?3?$AA?5?$AAg?$AA_?$AAd?$AAw?$AAL?$AAo?$AAg?$AAo?$AAP?$AAo?$AAs?$AAX?$AA?5?$AA?$DN?$AA?5?$AA?$CF?$AAd?$AA?0?$AAg?$AA_@| DCB "S"
	DCB	0x0, "h", 0x0, "o", 0x0, "w", 0x0, "S", 0x0, "D", 0x0, "L"
	DCB	0x0, "o", 0x0, "g", 0x0, "o", 0x0, ":", 0x0, " ", 0x0, "g"
	DCB	0x0, "_", 0x0, "d", 0x0, "w", 0x0, "L", 0x0, "o", 0x0, "g"
	DCB	0x0, "o", 0x0, "P", 0x0, "o", 0x0, "s", 0x0, "X", 0x0, " "
	DCB	0x0, "=", 0x0, " ", 0x0, "%", 0x0, "d", 0x0, ",", 0x0, "g"
	DCB	0x0, "_", 0x0, "d", 0x0, "w", 0x0, "L", 0x0, "o", 0x0, "g"
	DCB	0x0, "o", 0x0, "P", 0x0, "o", 0x0, "s", 0x0, "Y", 0x0, " "
	DCB	0x0, "=", 0x0, " ", 0x0, "%", 0x0, "d", 0x0, 0xd, 0x0, 0xa
	DCB	0x0, 0x0, 0x0				; `string'

  00000			 AREA	 |.rdata|, DATA, READONLY
|??_C@_1BC@OEIIPFBF@?$AAL?$AAO?$AAG?$AAO?$AA?4?$AAb?$AAm?$AAp?$AA?$AA@| DCB "L"
	DCB	0x0, "O", 0x0, "G", 0x0, "O", 0x0, ".", 0x0, "b", 0x0, "m"
	DCB	0x0, "p", 0x0, 0x0, 0x0			; `string'

  00000			 AREA	 |.rdata|, DATA, READONLY
|??_C@_1DA@IPAEADDN@?$AAS?$AAh?$AAo?$AAw?$AAS?$AAD?$AAL?$AAo?$AAg?$AAo?$AA?3?$AA?5?$AAs?$AAi?$AAz?$AAe?$AA?5?$AA?$DN?$AA?5?$AA?$CF?$AAd?$AA?$AN?$AA?6?$AA?$AA@| DCB "S"
	DCB	0x0, "h", 0x0, "o", 0x0, "w", 0x0, "S", 0x0, "D", 0x0, "L"
	DCB	0x0, "o", 0x0, "g", 0x0, "o", 0x0, ":", 0x0, " ", 0x0, "s"
	DCB	0x0, "i", 0x0, "z", 0x0, "e", 0x0, " ", 0x0, "=", 0x0, " "
	DCB	0x0, "%", 0x0, "d", 0x0, 0xd, 0x0, 0xa, 0x0, 0x0, 0x0 ; `string'

  00000			 AREA	 |.rdata|, DATA, READONLY
|??_C@_1DO@ENJNNPID@?$AAS?$AAh?$AAo?$AAw?$AAS?$AAD?$AAL?$AAo?$AAg?$AAo?$AA?3?$AA?5?$AAL?$AAO?$AAG?$AAO?$AA_?$AAH?$AAE?$AAI?$AAG?$AAH?$AAT?$AA?5?$AA?$DN?$AA?5?$AA?$CF?$AAd?$AA?$AN?$AA?6?$AA?$AA@| DCB "S"
	DCB	0x0, "h", 0x0, "o", 0x0, "w", 0x0, "S", 0x0, "D", 0x0, "L"
	DCB	0x0, "o", 0x0, "g", 0x0, "o", 0x0, ":", 0x0, " ", 0x0, "L"
	DCB	0x0, "O", 0x0, "G", 0x0, "O", 0x0, "_", 0x0, "H", 0x0, "E"
	DCB	0x0, "I", 0x0, "G", 0x0, "H", 0x0, "T", 0x0, " ", 0x0, "="
	DCB	0x0, " ", 0x0, "%", 0x0, "d", 0x0, 0xd, 0x0, 0xa, 0x0, 0x0
	DCB	0x0					; `string'

  00000			 AREA	 |.rdata|, DATA, READONLY
|??_C@_1DM@PDMEKHDN@?$AAS?$AAh?$AAo?$AAw?$AAS?$AAD?$AAL?$AAo?$AAg?$AAo?$AA?3?$AA?5?$AAL?$AAO?$AAG?$AAO?$AA_?$AAW?$AAI?$AAD?$AAT?$AAH?$AA?5?$AA?$DN?$AA?5?$AA?$CF?$AAd?$AA?$AN?$AA?6?$AA?$AA@| DCB "S"
	DCB	0x0, "h", 0x0, "o", 0x0, "w", 0x0, "S", 0x0, "D", 0x0, "L"
	DCB	0x0, "o", 0x0, "g", 0x0, "o", 0x0, ":", 0x0, " ", 0x0, "L"
	DCB	0x0, "O", 0x0, "G", 0x0, "O", 0x0, "_", 0x0, "W", 0x0, "I"
	DCB	0x0, "D", 0x0, "T", 0x0, "H", 0x0, " ", 0x0, "=", 0x0, " "
	DCB	0x0, "%", 0x0, "d", 0x0, 0xd, 0x0, 0xa, 0x0, 0x0, 0x0 ; `string'

  00000			 AREA	 |.rdata|, DATA, READONLY
|??_C@_1EG@DJLDILPN@?$AAS?$AAh?$AAo?$AAw?$AAS?$AAD?$AAL?$AAo?$AAg?$AAo?$AA?3?$AA?5?$AAB?$AAY?$AAT?$AAE?$AAS?$AA_?$AAP?$AAE?$AAR?$AA_?$AAP?$AAI?$AAX?$AAE?$AAL?$AA?5?$AA?$DN?$AA?5?$AA?$CF?$AAd@| DCB "S"
	DCB	0x0, "h", 0x0, "o", 0x0, "w", 0x0, "S", 0x0, "D", 0x0, "L"
	DCB	0x0, "o", 0x0, "g", 0x0, "o", 0x0, ":", 0x0, " ", 0x0, "B"
	DCB	0x0, "Y", 0x0, "T", 0x0, "E", 0x0, "S", 0x0, "_", 0x0, "P"
	DCB	0x0, "E", 0x0, "R", 0x0, "_", 0x0, "P", 0x0, "I", 0x0, "X"
	DCB	0x0, "E", 0x0, "L", 0x0, " ", 0x0, "=", 0x0, " ", 0x0, "%"
	DCB	0x0, "d", 0x0, 0xd, 0x0, 0xa, 0x0, 0x0, 0x0 ; `string'

  00000			 AREA	 |.rdata|, DATA, READONLY
|??_C@_1FG@OMGJIHIC@?$AAS?$AAh?$AAo?$AAw?$AAS?$AAD?$AAL?$AAo?$AAg?$AAo?$AA?3?$AA?5?$AAf?$AAr?$AAa?$AAm?$AAe?$AAb?$AAu?$AAf?$AAf?$AAe?$AAr?$AA?5?$AAO?$AAA?$AAL?$AAP?$AAA?$AAt?$AAo?$AAU@| DCB "S"
	DCB	0x0, "h", 0x0, "o", 0x0, "w", 0x0, "S", 0x0, "D", 0x0, "L"
	DCB	0x0, "o", 0x0, "g", 0x0, "o", 0x0, ":", 0x0, " ", 0x0, "f"
	DCB	0x0, "r", 0x0, "a", 0x0, "m", 0x0, "e", 0x0, "b", 0x0, "u"
	DCB	0x0, "f", 0x0, "f", 0x0, "e", 0x0, "r", 0x0, " ", 0x0, "O"
	DCB	0x0, "A", 0x0, "L", 0x0, "P", 0x0, "A", 0x0, "t", 0x0, "o"
	DCB	0x0, "U", 0x0, "A", 0x0, " ", 0x0, "=", 0x0, " ", 0x0, "0"
	DCB	0x0, "x", 0x0, "%", 0x0, "x", 0x0, 0xd, 0x0, 0xa, 0x0, 0x0
	DCB	0x0					; `string'

  00000			 AREA	 |.rdata|, DATA, READONLY
|??_C@_1EC@EIHFLIJH@?$AAS?$AAh?$AAo?$AAw?$AAS?$AAD?$AAL?$AAo?$AAg?$AAo?$AA?3?$AA?5?$AAf?$AAr?$AAa?$AAm?$AAe?$AAb?$AAu?$AAf?$AAf?$AAe?$AAr?$AA?5?$AA?$DN?$AA?5?$AA0?$AAx?$AA?$CF?$AAx?$AA?$AN?$AA?6@| DCB "S"
	DCB	0x0, "h", 0x0, "o", 0x0, "w", 0x0, "S", 0x0, "D", 0x0, "L"
	DCB	0x0, "o", 0x0, "g", 0x0, "o", 0x0, ":", 0x0, " ", 0x0, "f"
	DCB	0x0, "r", 0x0, "a", 0x0, "m", 0x0, "e", 0x0, "b", 0x0, "u"
	DCB	0x0, "f", 0x0, "f", 0x0, "e", 0x0, "r", 0x0, " ", 0x0, "="
	DCB	0x0, " ", 0x0, "0", 0x0, "x", 0x0, "%", 0x0, "x", 0x0, 0xd
	DCB	0x0, 0xa, 0x0, 0x0, 0x0			; `string'

  00000			 AREA	 |.rdata|, DATA, READONLY
|??_C@_1GA@FFGKMOGE@?$AAS?$AAh?$AAo?$AAw?$AAS?$AAD?$AAL?$AAo?$AAg?$AAo?$AA?3?$AA?5?$AAd?$AAw?$AAL?$AAc?$AAd?$AAW?$AAi?$AAd?$AAt?$AAh?$AA?5?$AA?$DN?$AA?5?$AA?$CF?$AAd?$AA?0?$AA?5?$AAd?$AAw?$AAL@| DCB "S"
	DCB	0x0, "h", 0x0, "o", 0x0, "w", 0x0, "S", 0x0, "D", 0x0, "L"
	DCB	0x0, "o", 0x0, "g", 0x0, "o", 0x0, ":", 0x0, " ", 0x0, "d"
	DCB	0x0, "w", 0x0, "L", 0x0, "c", 0x0, "d", 0x0, "W", 0x0, "i"
	DCB	0x0, "d", 0x0, "t", 0x0, "h", 0x0, " ", 0x0, "=", 0x0, " "
	DCB	0x0, "%", 0x0, "d", 0x0, ",", 0x0, " ", 0x0, "d", 0x0, "w"
	DCB	0x0, "L", 0x0, "c", 0x0, "d", 0x0, "H", 0x0, "e", 0x0, "i"
	DCB	0x0, "g", 0x0, "h", 0x0, "t", 0x0, " ", 0x0, "=", 0x0, " "
	DCB	0x0, "%", 0x0, "d", 0x0, 0xd, 0x0, 0xa, 0x0, 0x0, 0x0 ; `string'
; Function compile flags: /Ogspy

  00000			 AREA	 |.text|, CODE, ARM

  00000		 |ShowSDLogo| PROC

; 236  : {

  00000		 |$LN33@ShowSDLogo|
  00000	e92d43f0	 stmdb       sp!, {r4 - r9, lr}
  00004	e24dd00c	 sub         sp, sp, #0xC
  00008		 |$M48825|

; 237  :     DWORD	framebuffer = 0;
; 238  :     DWORD	framebufferPA = 0;

  00008	e3a03000	 mov         r3, #0

; 239  :     DWORD	dwLcdWidth = 0;

  0000c	e3a02000	 mov         r2, #0

; 240  :     DWORD	dwLcdHeight = 0;

  00010	e3a01000	 mov         r1, #0
  00014	e58d3008	 str         r3, [sp, #8]
  00018	e58d2000	 str         r2, [sp]
  0001c	e58d1004	 str         r1, [sp, #4]

; 241  : 	DWORD	dwLength = 0;
; 242  : 	
; 243  :     // Get the LCD width and height
; 244  :     LcdPdd_LCD_GetMode( NULL, &dwLcdWidth, &dwLcdHeight, NULL );

  00020	e3a03000	 mov         r3, #0
  00024	e28d2004	 add         r2, sp, #4
  00028	e28d1000	 add         r1, sp, #0
  0002c	e3a00000	 mov         r0, #0
  00030	eb000000	 bl          LcdPdd_LCD_GetMode

; 245  : 	OALMSG(OAL_INFO, (L"ShowSDLogo: dwLcdWidth = %d, dwLcdHeight = %d\r\n",dwLcdWidth,dwLcdHeight));

  00034	e59f41fc	 ldr         r4, [pc, #0x1FC]
  00038	e5943440	 ldr         r3, [r4, #0x440]
  0003c	e3130008	 tst         r3, #8
  00040	159d2004	 ldrne       r2, [sp, #4]
  00044	159d1000	 ldrne       r1, [sp]
  00048	159f01e4	 ldrne       r0, [pc, #0x1E4]
  0004c	1b000000	 blne        NKDbgPrintfW

; 246  : 	
; 247  : 	// Get the frame buffer
; 248  : 	LcdPdd_GetMemory( NULL, &framebufferPA );

  00050	e28d1008	 add         r1, sp, #8
  00054	e3a00000	 mov         r0, #0
  00058	eb000000	 bl          LcdPdd_GetMemory

; 249  : 	OALMSG(OAL_INFO, (L"ShowSDLogo: framebuffer = 0x%x\r\n",framebuffer));

  0005c	e5943440	 ldr         r3, [r4, #0x440]
  00060	e3130008	 tst         r3, #8
  00064	159f01c4	 ldrne       r0, [pc, #0x1C4]
  00068	13a01000	 movne       r1, #0
  0006c	1b000000	 blne        NKDbgPrintfW

; 250  :     framebuffer = (DWORD) OALPAtoUA(framebufferPA);

  00070	e59d0008	 ldr         r0, [sp, #8]
  00074	e3a01000	 mov         r1, #0
  00078	eb000000	 bl          OALPAtoVA

; 251  : 	OALMSG(OAL_INFO, (L"ShowSDLogo: framebuffer OALPAtoUA = 0x%x\r\n",framebuffer));

  0007c	e5943440	 ldr         r3, [r4, #0x440]
  00080	e1a05000	 mov         r5, r0
  00084	e3130008	 tst         r3, #8
  00088	0a000003	 beq         |$LN8@ShowSDLogo|
  0008c	e59f0198	 ldr         r0, [pc, #0x198]
  00090	e1a01005	 mov         r1, r5
  00094	eb000000	 bl          NKDbgPrintfW
  00098	e5943440	 ldr         r3, [r4, #0x440]
  0009c		 |$LN8@ShowSDLogo|

; 252  : 	
; 253  : 	// Compute the size
; 254  : 	dwLength = BYTES_PER_PIXEL * LOGO_WIDTH * LOGO_HEIGHT;
; 255  : 	OALMSG(OAL_INFO, (L"ShowSDLogo: BYTES_PER_PIXEL = %d\r\n",BYTES_PER_PIXEL));

  0009c	e3130008	 tst         r3, #8
  000a0	0a000003	 beq         |$LN10@ShowSDLogo|
  000a4	e59f017c	 ldr         r0, [pc, #0x17C]
  000a8	e3a01003	 mov         r1, #3
  000ac	eb000000	 bl          NKDbgPrintfW
  000b0	e5943440	 ldr         r3, [r4, #0x440]
  000b4		 |$LN10@ShowSDLogo|

; 256  : 	OALMSG(OAL_INFO, (L"ShowSDLogo: LOGO_WIDTH = %d\r\n",LOGO_WIDTH));

  000b4	e3130008	 tst         r3, #8
  000b8	0a000003	 beq         |$LN12@ShowSDLogo|
  000bc	e59f0160	 ldr         r0, [pc, #0x160]
  000c0	e3a01d05	 mov         r1, #5, 26
  000c4	eb000000	 bl          NKDbgPrintfW
  000c8	e5943440	 ldr         r3, [r4, #0x440]
  000cc		 |$LN12@ShowSDLogo|

; 257  : 	OALMSG(OAL_INFO, (L"ShowSDLogo: LOGO_HEIGHT = %d\r\n",LOGO_HEIGHT));

  000cc	e3130008	 tst         r3, #8
  000d0	0a000003	 beq         |$LN14@ShowSDLogo|
  000d4	e59f0144	 ldr         r0, [pc, #0x144]
  000d8	e3a010f0	 mov         r1, #0xF0
  000dc	eb000000	 bl          NKDbgPrintfW
  000e0	e5943440	 ldr         r3, [r4, #0x440]
  000e4		 |$LN14@ShowSDLogo|

; 258  : 	OALMSG(OAL_INFO, (L"ShowSDLogo: size = %d\r\n",dwLength));

  000e4	e3130008	 tst         r3, #8
  000e8	159f012c	 ldrne       r0, [pc, #0x12C]
  000ec	13a01be1	 movne       r1, #0xE1, 22
  000f0	1b000000	 blne        NKDbgPrintfW

; 259  : 	
; 260  : 	if (!BLSDCardReadLogo(L"LOGO.bmp", (UCHAR*)framebuffer, dwLength))	//Loadin file name(LOGO.bmp), Ray 13-08-01

  000f4	e59f011c	 ldr         r0, [pc, #0x11C]
  000f8	e3a02be1	 mov         r2, #0xE1, 22
  000fc	e1a01005	 mov         r1, r5
  00100	eb000000	 bl          BLSDCardReadLogo
  00104	e3500000	 cmp         r0, #0

; 261  : 	{
; 262  : 		return FALSE;

  00108	03a00000	 moveq       r0, #0
  0010c	0a000038	 beq         |$LN2@ShowSDLogo|

; 263  : 	}
; 264  : 
; 265  :     //  Compute position and size of logo image 
; 266  :     g_dwLogoPosX   = (dwLcdWidth - LOGO_WIDTH)/2;
; 267  :     g_dwLogoPosY   = (dwLcdHeight - LOGO_HEIGHT)/2;

  00110	e59d2004	 ldr         r2, [sp, #4]
  00114	e59d3000	 ldr         r3, [sp]
  00118	e59fe0f4	 ldr         lr, [pc, #0xF4]
  0011c	e59f00ec	 ldr         r0, [pc, #0xEC]

; 268  :     g_dwLogoWidth  = LOGO_WIDTH;

  00120	e59f70e4	 ldr         r7, [pc, #0xE4]

; 269  :     g_dwLogoHeight = LOGO_HEIGHT;

  00124	e59f80dc	 ldr         r8, [pc, #0xDC]

; 270  : 	OALMSG(OAL_INFO, (L"ShowSDLogo: g_dwLogoPosX = %d,g_dwLogoPosY = %d\r\n",g_dwLogoPosX,g_dwLogoPosY));

  00128	e5946440	 ldr         r6, [r4, #0x440]
  0012c	e24220f0	 sub         r2, r2, #0xF0
  00130	e2433d05	 sub         r3, r3, #5, 26
  00134	e1a090a2	 mov         r9, r2, lsr #1
  00138	e3a020f0	 mov         r2, #0xF0
  0013c	e1a030a3	 mov         r3, r3, lsr #1
  00140	e3a01d05	 mov         r1, #5, 26
  00144	e5882000	 str         r2, [r8]
  00148	e58e3000	 str         r3, [lr]
  0014c	e5809000	 str         r9, [r0]
  00150	e5871000	 str         r1, [r7]
  00154	e3160008	 tst         r6, #8
  00158	0a000006	 beq         |$LN18@ShowSDLogo|
  0015c	e59f00a0	 ldr         r0, [pc, #0xA0]
  00160	e1a02009	 mov         r2, r9
  00164	e1a01003	 mov         r1, r3
  00168	eb000000	 bl          NKDbgPrintfW
  0016c	e5946440	 ldr         r6, [r4, #0x440]
  00170	e5971000	 ldr         r1, [r7]
  00174	e5982000	 ldr         r2, [r8]
  00178		 |$LN18@ShowSDLogo|

; 271  : 	OALMSG(OAL_INFO, (L"ShowSDLogo: g_dwLogoWidth = %d,g_dwLogoHeight = %d\r\n",g_dwLogoWidth,g_dwLogoHeight));

  00178	e3160008	 tst         r6, #8
  0017c	159f007c	 ldrne       r0, [pc, #0x7C]
  00180	1b000000	 blne        NKDbgPrintfW

; 272  :     //As BMP are stored upside down, we need to flip the frame buffer's content
; 273  :     FlipFrameBuffer((PUCHAR)framebuffer,LOGO_HEIGHT,LOGO_WIDTH*BYTES_PER_PIXEL,(PUCHAR)framebuffer + dwLength);

  00184	e285390e	 add         r3, r5, #0xE, 18
  00188	e2834040	 add         r4, r3, #0x40
  0018c	e2856be1	 add         r6, r5, #0xE1, 22
  00190	e3a07078	 mov         r7, #0x78
  00194		 |$LL24@ShowSDLogo|
  00194	e3a02d0f	 mov         r2, #0xF, 26
  00198	e1a01005	 mov         r1, r5
  0019c	e1a00006	 mov         r0, r6
  001a0	eb000000	 bl          memcpy
  001a4	e3a02d0f	 mov         r2, #0xF, 26
  001a8	e1a01004	 mov         r1, r4
  001ac	e1a00005	 mov         r0, r5
  001b0	eb000000	 bl          memcpy
  001b4	e3a02d0f	 mov         r2, #0xF, 26
  001b8	e1a01006	 mov         r1, r6
  001bc	e1a00004	 mov         r0, r4
  001c0	eb000000	 bl          memcpy
  001c4	e2855d0f	 add         r5, r5, #0xF, 26
  001c8	e2444d0f	 sub         r4, r4, #0xF, 26
  001cc	e2577001	 subs        r7, r7, #1
  001d0	1affffef	 bne         |$LL24@ShowSDLogo|

; 274  : 
; 275  :     //  Fire up the LCD
; 276  :     lcd_config(framebufferPA);

  001d4	e59d4008	 ldr         r4, [sp, #8]
  001d8	eb000000	 bl          reset_display_controller
  001dc	eb000000	 bl          enable_lcd_power
  001e0	e1a00004	 mov         r0, r4
  001e4	eb000000	 bl          configure_dss
  001e8	eb000000	 bl          display_lcd_image
  001ec	eb000000	 bl          enable_lcd_backlight

; 277  : 	
; 278  : 	return TRUE;

  001f0	e3a00001	 mov         r0, #1
  001f4		 |$LN2@ShowSDLogo|

; 279  : 	//return FALSE;
; 280  : }

  001f4	e28dd00c	 add         sp, sp, #0xC
  001f8	e8bd43f0	 ldmia       sp!, {r4 - r9, lr}
  001fc	e12fff1e	 bx          lr
  00200		 |$LN34@ShowSDLogo|
  00200		 |$LN35@ShowSDLogo|
  00200	00000000	 DCD         |??_C@_1GK@BOLHCJDJ@?$AAS?$AAh?$AAo?$AAw?$AAS?$AAD?$AAL?$AAo?$AAg?$AAo?$AA?3?$AA?5?$AAg?$AA_?$AAd?$AAw?$AAL?$AAo?$AAg?$AAo?$AAW?$AAi?$AAd?$AAt?$AAh?$AA?5?$AA?$DN?$AA?5?$AA?$CF?$AAd?$AA?0?$AAg@|
  00204		 |$LN36@ShowSDLogo|
  00204	00000000	 DCD         |??_C@_1GE@MOPAKJBC@?$AAS?$AAh?$AAo?$AAw?$AAS?$AAD?$AAL?$AAo?$AAg?$AAo?$AA?3?$AA?5?$AAg?$AA_?$AAd?$AAw?$AAL?$AAo?$AAg?$AAo?$AAP?$AAo?$AAs?$AAX?$AA?5?$AA?$DN?$AA?5?$AA?$CF?$AAd?$AA?0?$AAg?$AA_@|
  00208		 |$LN37@ShowSDLogo|
  00208	00000000	 DCD         |g_dwLogoHeight|
  0020c		 |$LN38@ShowSDLogo|
  0020c	00000000	 DCD         |g_dwLogoWidth|
  00210		 |$LN39@ShowSDLogo|
  00210	00000000	 DCD         |g_dwLogoPosY|
  00214		 |$LN40@ShowSDLogo|
  00214	00000000	 DCD         |g_dwLogoPosX|
  00218		 |$LN41@ShowSDLogo|
  00218	00000000	 DCD         |??_C@_1BC@OEIIPFBF@?$AAL?$AAO?$AAG?$AAO?$AA?4?$AAb?$AAm?$AAp?$AA?$AA@|
  0021c		 |$LN42@ShowSDLogo|
  0021c	00000000	 DCD         |??_C@_1DA@IPAEADDN@?$AAS?$AAh?$AAo?$AAw?$AAS?$AAD?$AAL?$AAo?$AAg?$AAo?$AA?3?$AA?5?$AAs?$AAi?$AAz?$AAe?$AA?5?$AA?$DN?$AA?5?$AA?$CF?$AAd?$AA?$AN?$AA?6?$AA?$AA@|
  00220		 |$LN43@ShowSDLogo|
  00220	00000000	 DCD         |??_C@_1DO@ENJNNPID@?$AAS?$AAh?$AAo?$AAw?$AAS?$AAD?$AAL?$AAo?$AAg?$AAo?$AA?3?$AA?5?$AAL?$AAO?$AAG?$AAO?$AA_?$AAH?$AAE?$AAI?$AAG?$AAH?$AAT?$AA?5?$AA?$DN?$AA?5?$AA?$CF?$AAd?$AA?$AN?$AA?6?$AA?$AA@|
  00224		 |$LN44@ShowSDLogo|
  00224	00000000	 DCD         |??_C@_1DM@PDMEKHDN@?$AAS?$AAh?$AAo?$AAw?$AAS?$AAD?$AAL?$AAo?$AAg?$AAo?$AA?3?$AA?5?$AAL?$AAO?$AAG?$AAO?$AA_?$AAW?$AAI?$AAD?$AAT?$AAH?$AA?5?$AA?$DN?$AA?5?$AA?$CF?$AAd?$AA?$AN?$AA?6?$AA?$AA@|
  00228		 |$LN45@ShowSDLogo|
  00228	00000000	 DCD         |??_C@_1EG@DJLDILPN@?$AAS?$AAh?$AAo?$AAw?$AAS?$AAD?$AAL?$AAo?$AAg?$AAo?$AA?3?$AA?5?$AAB?$AAY?$AAT?$AAE?$AAS?$AA_?$AAP?$AAE?$AAR?$AA_?$AAP?$AAI?$AAX?$AAE?$AAL?$AA?5?$AA?$DN?$AA?5?$AA?$CF?$AAd@|
  0022c		 |$LN46@ShowSDLogo|
  0022c	00000000	 DCD         |??_C@_1FG@OMGJIHIC@?$AAS?$AAh?$AAo?$AAw?$AAS?$AAD?$AAL?$AAo?$AAg?$AAo?$AA?3?$AA?5?$AAf?$AAr?$AAa?$AAm?$AAe?$AAb?$AAu?$AAf?$AAf?$AAe?$AAr?$AA?5?$AAO?$AAA?$AAL?$AAP?$AAA?$AAt?$AAo?$AAU@|
  00230		 |$LN47@ShowSDLogo|
  00230	00000000	 DCD         |??_C@_1EC@EIHFLIJH@?$AAS?$AAh?$AAo?$AAw?$AAS?$AAD?$AAL?$AAo?$AAg?$AAo?$AA?3?$AA?5?$AAf?$AAr?$AAa?$AAm?$AAe?$AAb?$AAu?$AAf?$AAf?$AAe?$AAr?$AA?5?$AA?$DN?$AA?5?$AA0?$AAx?$AA?$CF?$AAx?$AA?$AN?$AA?6@|
  00234		 |$LN48@ShowSDLogo|
  00234	00000000	 DCD         |??_C@_1GA@FFGKMOGE@?$AAS?$AAh?$AAo?$AAw?$AAS?$AAD?$AAL?$AAo?$AAg?$AAo?$AA?3?$AA?5?$AAd?$AAw?$AAL?$AAc?$AAd?$AAW?$AAi?$AAd?$AAt?$AAh?$AA?5?$AA?$DN?$AA?5?$AA?$CF?$AAd?$AA?0?$AA?5?$AAd?$AAw?$AAL@|
  00238		 |$LN49@ShowSDLogo|
  00238	00000000	 DCD         |dpCurSettings|
  0023c		 |$M48826|

			 ENDP  ; |ShowSDLogo|

	EXPORT	|HideLogo|

  00000			 AREA	 |.pdata|, PDATA
|$T48854| DCD	|$LN7@HideLogo|
	DCD	0x40000701
; Function compile flags: /Ogspy

  00000			 AREA	 |.text|, CODE, ARM

  00000		 |HideLogo| PROC

; 289  : {

  00000		 |$LN7@HideLogo|
  00000	e52de004	 str         lr, [sp, #-4]!
  00004		 |$M48851|

; 290  :     lcd_shutdown();

  00004	eb000000	 bl          disable_lcd_backlight
  00008	e3a00004	 mov         r0, #4
  0000c	eb000000	 bl          LcdPdd_SetPowerLevel
  00010	eb000000	 bl          disable_lcd_power

; 291  : }

  00014	e49de004	 ldr         lr, [sp], #4
  00018	e12fff1e	 bx          lr
  0001c		 |$M48852|

			 ENDP  ; |HideLogo|

	END
