; Listing generated by Microsoft (R) Optimizing Compiler Version 14.01.60511.01 

	TTL	C:\WINCE600\PLATFORM\COMMON\SRC\SOC\COMMON_TI_V1\COMMON_TI\MCBSP\debug.cpp
	CODE32

  00000			 AREA	 |.drectve|, DRECTVE
	DCB	"-defaultlib:LIBCMT "
	DCB	"-defaultlib:OLDNAMES "

	EXPORT	|?dpCurSettings@@3U_DBGPARAM@@A| [ DATA ] ; dpCurSettings

  00000			 AREA	 |.data|, DATA
|?dpCurSettings@@3U_DBGPARAM@@A| DCB "M", 0x0, "C", 0x0, "B", 0x0, "S", 0x0
	DCB	"P", 0x0, 0x0, 0x0			; dpCurSettings
	%	52
	DCB	"E", 0x0, "r", 0x0, "r", 0x0, "o", 0x0, "r", 0x0, "s", 0x0
	DCB	0x0, 0x0
	%	50
	DCB	"W", 0x0, "a", 0x0, "r", 0x0, "n", 0x0, "i", 0x0, "n", 0x0
	DCB	"g", 0x0, "s", 0x0, 0x0, 0x0
	%	46
	DCB	"F", 0x0, "u", 0x0, "n", 0x0, "c", 0x0, "t", 0x0, "i", 0x0
	DCB	"o", 0x0, "n", 0x0, 0x0, 0x0
	%	46
	DCB	"I", 0x0, "n", 0x0, "i", 0x0, "t", 0x0, 0x0, 0x0
	%	54
	DCB	"I", 0x0, "n", 0x0, "f", 0x0, "o", 0x0, 0x0, 0x0
	%	54
	DCB	"I", 0x0, "n", 0x0, "t", 0x0, "e", 0x0, "r", 0x0, "r", 0x0
	DCB	"u", 0x0, "p", 0x0, "t", 0x0, "s", 0x0, 0x0, 0x0
	%	42
	DCB	"U", 0x0, "n", 0x0, "d", 0x0, "e", 0x0, "f", 0x0, "i", 0x0
	DCB	"n", 0x0, "e", 0x0, "d", 0x0, 0x0, 0x0
	%	44
	DCB	"U", 0x0, "n", 0x0, "d", 0x0, "e", 0x0, "f", 0x0, "i", 0x0
	DCB	"n", 0x0, "e", 0x0, "d", 0x0, 0x0, 0x0
	%	44
	DCB	"U", 0x0, "n", 0x0, "d", 0x0, "e", 0x0, "f", 0x0, "i", 0x0
	DCB	"n", 0x0, "e", 0x0, "d", 0x0, 0x0, 0x0
	%	44
	DCB	"U", 0x0, "n", 0x0, "d", 0x0, "e", 0x0, "f", 0x0, "i", 0x0
	DCB	"n", 0x0, "e", 0x0, "d", 0x0, 0x0, 0x0
	%	44
	DCB	"U", 0x0, "n", 0x0, "d", 0x0, "e", 0x0, "f", 0x0, "i", 0x0
	DCB	"n", 0x0, "e", 0x0, "d", 0x0, 0x0, 0x0
	%	44
	DCB	"U", 0x0, "n", 0x0, "d", 0x0, "e", 0x0, "f", 0x0, "i", 0x0
	DCB	"n", 0x0, "e", 0x0, "d", 0x0, 0x0, 0x0
	%	44
	DCB	"U", 0x0, "n", 0x0, "d", 0x0, "e", 0x0, "f", 0x0, "i", 0x0
	DCB	"n", 0x0, "e", 0x0, "d", 0x0, 0x0, 0x0
	%	44
	DCB	"U", 0x0, "n", 0x0, "d", 0x0, "e", 0x0, "f", 0x0, "i", 0x0
	DCB	"n", 0x0, "e", 0x0, "d", 0x0, 0x0, 0x0
	%	44
	DCB	"U", 0x0, "n", 0x0, "d", 0x0, "e", 0x0, "f", 0x0, "i", 0x0
	DCB	"n", 0x0, "e", 0x0, "d", 0x0, 0x0, 0x0
	%	44
	DCB	"U", 0x0, "n", 0x0, "d", 0x0, "e", 0x0, "f", 0x0, "i", 0x0
	DCB	"n", 0x0, "e", 0x0, "d", 0x0, 0x0, 0x0
	%	44
	DCD	0x3
	END
