; Listing generated by Microsoft (R) Optimizing Compiler Version 14.01.60511.01 

	TTL	C:\WINCE600\PLATFORM\COMMON\SRC\SOC\COMMON_TI_V1\COMMON_TI\MCBSP\mcbspprofile.cpp
	CODE32

  00000			 AREA	 |.drectve|, DRECTVE
	DCB	"-defaultlib:LIBCMT "
	DCB	"-defaultlib:OLDNAMES "

	EXPORT	|?Initialize@McbspProfile_t@@UAAXXZ|	; McbspProfile_t::Initialize
	IMPORT	|mcbsp_ConfigCommonRegisters|
; File c:\wince600\platform\common\src\soc\common_ti_v1\common_ti\mcbsp\mcbspprofile.cpp

  00000			 AREA	 |.pdata|, PDATA
|$T36499| DCD	|$LN5@Initialize|
	DCD	0x40000501
; Function compile flags: /Ogspy

  00000			 AREA	 |.text|, CODE, ARM

  00000		 |?Initialize@McbspProfile_t@@UAAXXZ| PROC ; McbspProfile_t::Initialize

; 41   : {

  00000		 |$LN5@Initialize|
  00000	e52de004	 str         lr, [sp, #-4]!
  00004		 |$M36496|

; 42   :     DEBUGMSG(ZONE_FUNCTION, (L"MCP:+%S\r\n", __FUNCTION__));
; 43   : 
; 44   :     mcbsp_ConfigCommonRegisters(m_pDevice);

  00004	e5900004	 ldr         r0, [r0, #4]
  00008	eb000000	 bl          mcbsp_ConfigCommonRegisters

; 45   : 
; 46   :     DEBUGMSG(ZONE_FUNCTION, (L"MCP:-%S\r\n", __FUNCTION__));
; 47   : }

  0000c	e49de004	 ldr         lr, [sp], #4
  00010	e12fff1e	 bx          lr
  00014		 |$M36497|

			 ENDP  ; |?Initialize@McbspProfile_t@@UAAXXZ|, McbspProfile_t::Initialize

	EXPORT	|?ContextRestore@McbspProfile_t@@UAAXXZ| ; McbspProfile_t::ContextRestore
	IMPORT	|mcbsp_UpdateRegisters|

  00000			 AREA	 |.pdata|, PDATA
|$T36507| DCD	|$LN5@ContextRes|
	DCD	0x40000501
; Function compile flags: /Ogspy

  00000			 AREA	 |.text|, CODE, ARM

  00000		 |?ContextRestore@McbspProfile_t@@UAAXXZ| PROC ; McbspProfile_t::ContextRestore

; 56   : {

  00000		 |$LN5@ContextRes|
  00000	e52de004	 str         lr, [sp, #-4]!
  00004		 |$M36504|

; 57   :     DEBUGMSG(ZONE_FUNCTION, (L"MCP:+%S\r\n", __FUNCTION__));
; 58   : 
; 59   :     mcbsp_UpdateRegisters(m_pDevice);

  00004	e5900004	 ldr         r0, [r0, #4]
  00008	eb000000	 bl          mcbsp_UpdateRegisters

; 60   : 
; 61   :     DEBUGMSG(ZONE_FUNCTION, (L"MCP:-%S\r\n", __FUNCTION__));
; 62   : }

  0000c	e49de004	 ldr         lr, [sp], #4
  00010	e12fff1e	 bx          lr
  00014		 |$M36505|

			 ENDP  ; |?ContextRestore@McbspProfile_t@@UAAXXZ|, McbspProfile_t::ContextRestore

	EXPORT	|?EnableSampleRateGenerator@McbspProfile_t@@UAAXXZ| ; McbspProfile_t::EnableSampleRateGenerator
	IMPORT	|mcbsp_EnableSampleRateGenerator|

  00000			 AREA	 |.pdata|, PDATA
|$T36515| DCD	|$LN5@EnableSamp|
	DCD	0x40000501
; Function compile flags: /Ogspy

  00000			 AREA	 |.text|, CODE, ARM

  00000		 |?EnableSampleRateGenerator@McbspProfile_t@@UAAXXZ| PROC ; McbspProfile_t::EnableSampleRateGenerator

; 72   : {

  00000		 |$LN5@EnableSamp|
  00000	e52de004	 str         lr, [sp, #-4]!
  00004		 |$M36512|

; 73   :     DEBUGMSG(ZONE_FUNCTION, (L"MCP:+%S\r\n", __FUNCTION__));
; 74   : 
; 75   :     mcbsp_EnableSampleRateGenerator(m_pDevice);

  00004	e5900004	 ldr         r0, [r0, #4]
  00008	eb000000	 bl          mcbsp_EnableSampleRateGenerator

; 76   : 
; 77   :     DEBUGMSG(ZONE_FUNCTION, (L"MCP:-%S\r\n", __FUNCTION__));
; 78   : }

  0000c	e49de004	 ldr         lr, [sp], #4
  00010	e12fff1e	 bx          lr
  00014		 |$M36513|

			 ENDP  ; |?EnableSampleRateGenerator@McbspProfile_t@@UAAXXZ|, McbspProfile_t::EnableSampleRateGenerator

	EXPORT	|?EnableTransmitter@McbspProfile_t@@UAAXXZ| ; McbspProfile_t::EnableTransmitter
	IMPORT	|mcbsp_EnableTransmitter|

  00000			 AREA	 |.pdata|, PDATA
|$T36523| DCD	|$LN5@EnableTran|
	DCD	0x40000501
; Function compile flags: /Ogspy

  00000			 AREA	 |.text|, CODE, ARM

  00000		 |?EnableTransmitter@McbspProfile_t@@UAAXXZ| PROC ; McbspProfile_t::EnableTransmitter

; 87   : {

  00000		 |$LN5@EnableTran|
  00000	e52de004	 str         lr, [sp, #-4]!
  00004		 |$M36520|

; 88   :     DEBUGMSG(ZONE_FUNCTION, (L"MCP:+%S\r\n", __FUNCTION__));
; 89   : 
; 90   :     mcbsp_EnableTransmitter(m_pDevice);

  00004	e5900004	 ldr         r0, [r0, #4]
  00008	eb000000	 bl          mcbsp_EnableTransmitter

; 91   : 
; 92   :     DEBUGMSG(ZONE_FUNCTION, (L"MCP:-%S\r\n", __FUNCTION__));
; 93   : }

  0000c	e49de004	 ldr         lr, [sp], #4
  00010	e12fff1e	 bx          lr
  00014		 |$M36521|

			 ENDP  ; |?EnableTransmitter@McbspProfile_t@@UAAXXZ|, McbspProfile_t::EnableTransmitter

	EXPORT	|?EnableReceiver@McbspProfile_t@@UAAXXZ| ; McbspProfile_t::EnableReceiver
	IMPORT	|mcbsp_EnableReceiver|

  00000			 AREA	 |.pdata|, PDATA
|$T36531| DCD	|$LN5@EnableRece|
	DCD	0x40000501
; Function compile flags: /Ogspy

  00000			 AREA	 |.text|, CODE, ARM

  00000		 |?EnableReceiver@McbspProfile_t@@UAAXXZ| PROC ; McbspProfile_t::EnableReceiver

; 103  : {

  00000		 |$LN5@EnableRece|
  00000	e52de004	 str         lr, [sp, #-4]!
  00004		 |$M36528|

; 104  :     DEBUGMSG(ZONE_FUNCTION, (L"MCP:+%S\r\n", __FUNCTION__));
; 105  : 
; 106  :     mcbsp_EnableReceiver(m_pDevice);

  00004	e5900004	 ldr         r0, [r0, #4]
  00008	eb000000	 bl          mcbsp_EnableReceiver

; 107  : 
; 108  :     DEBUGMSG(ZONE_FUNCTION, (L"MCP:-%S\r\n", __FUNCTION__));
; 109  : }

  0000c	e49de004	 ldr         lr, [sp], #4
  00010	e12fff1e	 bx          lr
  00014		 |$M36529|

			 ENDP  ; |?EnableReceiver@McbspProfile_t@@UAAXXZ|, McbspProfile_t::EnableReceiver

	EXPORT	|?ResetSampleRateGenerator@McbspProfile_t@@UAAXXZ| ; McbspProfile_t::ResetSampleRateGenerator
	IMPORT	|mcbsp_ResetSampleRateGenerator|

  00000			 AREA	 |.pdata|, PDATA
|$T36539| DCD	|$LN5@ResetSampl|
	DCD	0x40000501
; Function compile flags: /Ogspy

  00000			 AREA	 |.text|, CODE, ARM

  00000		 |?ResetSampleRateGenerator@McbspProfile_t@@UAAXXZ| PROC ; McbspProfile_t::ResetSampleRateGenerator

; 119  : {

  00000		 |$LN5@ResetSampl|
  00000	e52de004	 str         lr, [sp, #-4]!
  00004		 |$M36536|

; 120  :     DEBUGMSG(ZONE_FUNCTION, (L"MCP:+%S\r\n", __FUNCTION__));
; 121  : 
; 122  :     mcbsp_ResetSampleRateGenerator(m_pDevice);

  00004	e5900004	 ldr         r0, [r0, #4]
  00008	eb000000	 bl          mcbsp_ResetSampleRateGenerator

; 123  : 
; 124  :     DEBUGMSG(ZONE_FUNCTION, (L"MCP:-%S\r\n", __FUNCTION__));
; 125  : }

  0000c	e49de004	 ldr         lr, [sp], #4
  00010	e12fff1e	 bx          lr
  00014		 |$M36537|

			 ENDP  ; |?ResetSampleRateGenerator@McbspProfile_t@@UAAXXZ|, McbspProfile_t::ResetSampleRateGenerator

	EXPORT	|?ResetTransmitter@McbspProfile_t@@UAAXXZ| ; McbspProfile_t::ResetTransmitter
	IMPORT	|mcbsp_ResetTransmitter|

  00000			 AREA	 |.pdata|, PDATA
|$T36547| DCD	|$LN5@ResetTrans|
	DCD	0x40000501
; Function compile flags: /Ogspy

  00000			 AREA	 |.text|, CODE, ARM

  00000		 |?ResetTransmitter@McbspProfile_t@@UAAXXZ| PROC ; McbspProfile_t::ResetTransmitter

; 135  : {

  00000		 |$LN5@ResetTrans|
  00000	e52de004	 str         lr, [sp, #-4]!
  00004		 |$M36544|

; 136  :     DEBUGMSG(ZONE_FUNCTION, (L"MCP:+%S\r\n", __FUNCTION__));
; 137  : 
; 138  :     mcbsp_ResetTransmitter(m_pDevice);

  00004	e5900004	 ldr         r0, [r0, #4]
  00008	eb000000	 bl          mcbsp_ResetTransmitter

; 139  : 
; 140  :     DEBUGMSG(ZONE_FUNCTION, (L"MCP:-%S\r\n", __FUNCTION__));
; 141  : }

  0000c	e49de004	 ldr         lr, [sp], #4
  00010	e12fff1e	 bx          lr
  00014		 |$M36545|

			 ENDP  ; |?ResetTransmitter@McbspProfile_t@@UAAXXZ|, McbspProfile_t::ResetTransmitter

	EXPORT	|?ResetReceiver@McbspProfile_t@@UAAXXZ|	; McbspProfile_t::ResetReceiver
	IMPORT	|mcbsp_ResetReceiver|

  00000			 AREA	 |.pdata|, PDATA
|$T36555| DCD	|$LN5@ResetRecei|
	DCD	0x40000501
; Function compile flags: /Ogspy

  00000			 AREA	 |.text|, CODE, ARM

  00000		 |?ResetReceiver@McbspProfile_t@@UAAXXZ| PROC ; McbspProfile_t::ResetReceiver

; 151  : {

  00000		 |$LN5@ResetRecei|
  00000	e52de004	 str         lr, [sp, #-4]!
  00004		 |$M36552|

; 152  :     DEBUGMSG(ZONE_FUNCTION, (L"MCP:+%S\r\n", __FUNCTION__));
; 153  : 
; 154  :     mcbsp_ResetReceiver(m_pDevice);

  00004	e5900004	 ldr         r0, [r0, #4]
  00008	eb000000	 bl          mcbsp_ResetReceiver

; 155  : 
; 156  :     DEBUGMSG(ZONE_FUNCTION, (L"MCP:-%S\r\n", __FUNCTION__));
; 157  : }

  0000c	e49de004	 ldr         lr, [sp], #4
  00010	e12fff1e	 bx          lr
  00014		 |$M36553|

			 ENDP  ; |?ResetReceiver@McbspProfile_t@@UAAXXZ|, McbspProfile_t::ResetReceiver

	EXPORT	|?ClearIRQStatus@McbspProfile_t@@UAAXXZ| ; McbspProfile_t::ClearIRQStatus
	IMPORT	|mcbsp_ClearIRQStatus|

  00000			 AREA	 |.pdata|, PDATA
|$T36563| DCD	|$LN5@ClearIRQSt|
	DCD	0x40000501
; Function compile flags: /Ogspy

  00000			 AREA	 |.text|, CODE, ARM

  00000		 |?ClearIRQStatus@McbspProfile_t@@UAAXXZ| PROC ; McbspProfile_t::ClearIRQStatus

; 167  : {

  00000		 |$LN5@ClearIRQSt|
  00000	e52de004	 str         lr, [sp, #-4]!
  00004		 |$M36560|

; 168  :     DEBUGMSG(ZONE_FUNCTION, (L"MCP:+%S\r\n", __FUNCTION__));
; 169  : 
; 170  :     mcbsp_ClearIRQStatus(m_pDevice);

  00004	e5900004	 ldr         r0, [r0, #4]
  00008	eb000000	 bl          mcbsp_ClearIRQStatus

; 171  : 
; 172  :     DEBUGMSG(ZONE_FUNCTION, (L"MCP:-%S\r\n", __FUNCTION__));
; 173  : }

  0000c	e49de004	 ldr         lr, [sp], #4
  00010	e12fff1e	 bx          lr
  00014		 |$M36561|

			 ENDP  ; |?ClearIRQStatus@McbspProfile_t@@UAAXXZ|, McbspProfile_t::ClearIRQStatus

	EXPORT	|?Initialize@I2SSlaveProfile_t@@UAAXXZ|	; I2SSlaveProfile_t::Initialize
	IMPORT	|mcbsp_ConfigI2SProfile|
	IMPORT	|mcbsp_ConfigureReceiver|
	IMPORT	|mcbsp_ConfigureTransmitter|
	IMPORT	|mcbsp_ConfigureSampleRateGenerator|
	IMPORT	|mcbsp_GetRegistryValues|
	IMPORT	|mcbsp_ResetShadowRegisters|

  00000			 AREA	 |.pdata|, PDATA
|$T36571| DCD	|$LN6@Initialize@2|
	DCD	0x40001c01
; Function compile flags: /Ogspy

  00000			 AREA	 |.text|, CODE, ARM

  00000		 |?Initialize@I2SSlaveProfile_t@@UAAXXZ| PROC ; I2SSlaveProfile_t::Initialize

; 187  : {

  00000		 |$LN6@Initialize@2|
  00000	e92d4010	 stmdb       sp!, {r4, lr}
  00004		 |$M36568|
  00004	e1a04000	 mov         r4, r0

; 188  :     DEBUGMSG(ZONE_FUNCTION, (L"MCP:+%S\r\n", __FUNCTION__));
; 189  : 
; 190  :     // initialize shadow registers
; 191  :     //
; 192  :     mcbsp_ResetShadowRegisters(m_pDevice);

  00008	e5940004	 ldr         r0, [r4, #4]
  0000c	eb000000	 bl          mcbsp_ResetShadowRegisters

; 193  : 
; 194  :     // overwrite default configuration with registry values
; 195  :     //
; 196  :     if (m_pDevice->useRegistryForMcbsp)

  00010	e5940004	 ldr         r0, [r4, #4]
  00014	e59030c0	 ldr         r3, [r0, #0xC0]
  00018	e3530000	 cmp         r3, #0

; 197  :         {
; 198  :         mcbsp_GetRegistryValues(m_pDevice);

  0001c	1b000000	 blne        mcbsp_GetRegistryValues

; 199  :         }
; 200  : 
; 201  :     mcbsp_ResetSampleRateGenerator(m_pDevice);

  00020	e5940004	 ldr         r0, [r4, #4]
  00024	eb000000	 bl          mcbsp_ResetSampleRateGenerator

; 202  :     mcbsp_ResetTransmitter(m_pDevice);

  00028	e5940004	 ldr         r0, [r4, #4]
  0002c	eb000000	 bl          mcbsp_ResetTransmitter

; 203  :     mcbsp_ResetReceiver(m_pDevice);

  00030	e5940004	 ldr         r0, [r4, #4]
  00034	eb000000	 bl          mcbsp_ResetReceiver

; 204  : 
; 205  :     mcbsp_ConfigureSampleRateGenerator(m_pDevice);

  00038	e5940004	 ldr         r0, [r4, #4]
  0003c	eb000000	 bl          mcbsp_ConfigureSampleRateGenerator

; 206  :     mcbsp_ConfigureTransmitter(m_pDevice);

  00040	e5940004	 ldr         r0, [r4, #4]
  00044	eb000000	 bl          mcbsp_ConfigureTransmitter

; 207  :     mcbsp_ConfigureReceiver(m_pDevice);

  00048	e5940004	 ldr         r0, [r4, #4]
  0004c	eb000000	 bl          mcbsp_ConfigureReceiver

; 208  :     mcbsp_ClearIRQStatus(m_pDevice);

  00050	e5940004	 ldr         r0, [r4, #4]
  00054	eb000000	 bl          mcbsp_ClearIRQStatus

; 209  :     mcbsp_UpdateRegisters(m_pDevice);

  00058	e5940004	 ldr         r0, [r4, #4]
  0005c	eb000000	 bl          mcbsp_UpdateRegisters

; 210  : 
; 211  :     // Do I2S specific configuration
; 212  :     mcbsp_ConfigI2SProfile(m_pDevice);

  00060	e5940004	 ldr         r0, [r4, #4]
  00064	eb000000	 bl          mcbsp_ConfigI2SProfile

; 213  : 
; 214  : #ifdef DEBUG
; 215  :     //mcbsp_DumpReg(m_pDevice, L"After configuration");
; 216  :     RETAILMSG(1,(TEXT("McBSP is in Slave mode\r\n")));
; 217  : #endif
; 218  : 
; 219  :     DEBUGMSG(ZONE_FUNCTION, (L"MCP:-%S\r\n", __FUNCTION__));
; 220  : }

  00068	e8bd4010	 ldmia       sp!, {r4, lr}
  0006c	e12fff1e	 bx          lr
  00070		 |$M36569|

			 ENDP  ; |?Initialize@I2SSlaveProfile_t@@UAAXXZ|, I2SSlaveProfile_t::Initialize

	EXPORT	|?ContextRestore@I2SSlaveProfile_t@@UAAXXZ| ; I2SSlaveProfile_t::ContextRestore

  00000			 AREA	 |.pdata|, PDATA
|$T36582| DCD	|$LN7@ContextRes@2|
	DCD	0x40000801
; Function compile flags: /Ogspy

  00000			 AREA	 |.text|, CODE, ARM

  00000		 |?ContextRestore@I2SSlaveProfile_t@@UAAXXZ| PROC ; I2SSlaveProfile_t::ContextRestore

; 230  : {

  00000		 |$LN7@ContextRes@2|
  00000	e92d4010	 stmdb       sp!, {r4, lr}
  00004		 |$M36579|
  00004	e1a04000	 mov         r4, r0

; 231  :     DEBUGMSG(ZONE_FUNCTION, (L"MCP:+%S\r\n", __FUNCTION__));
; 232  : 
; 233  :     // Call base class function
; 234  :     McbspProfile_t::ContextRestore();

  00008	e5940004	 ldr         r0, [r4, #4]
  0000c	eb000000	 bl          mcbsp_UpdateRegisters

; 235  : 
; 236  :     // Do I2S specific configuration
; 237  :     mcbsp_ConfigI2SProfile(m_pDevice);

  00010	e5940004	 ldr         r0, [r4, #4]
  00014	eb000000	 bl          mcbsp_ConfigI2SProfile

; 238  : 
; 239  : #ifdef DEBUG
; 240  :     mcbsp_DumpReg(m_pDevice, L"After context restore configuration");
; 241  : #endif
; 242  : 
; 243  :     DEBUGMSG(ZONE_FUNCTION, (L"MCP:-%S\r\n", __FUNCTION__));
; 244  : }

  00018	e8bd4010	 ldmia       sp!, {r4, lr}
  0001c	e12fff1e	 bx          lr
  00020		 |$M36580|

			 ENDP  ; |?ContextRestore@I2SSlaveProfile_t@@UAAXXZ|, I2SSlaveProfile_t::ContextRestore

	EXPORT	|?Initialize@I2SMasterProfile_t@@UAAXXZ| ; I2SMasterProfile_t::Initialize
	IMPORT	|mcbsp_ConfigureForMaster|

  00000			 AREA	 |.pdata|, PDATA
|$T36590| DCD	|$LN6@Initialize@3|
	DCD	0x40001e01
; Function compile flags: /Ogspy

  00000			 AREA	 |.text|, CODE, ARM

  00000		 |?Initialize@I2SMasterProfile_t@@UAAXXZ| PROC ; I2SMasterProfile_t::Initialize

; 257  : {

  00000		 |$LN6@Initialize@3|
  00000	e92d4010	 stmdb       sp!, {r4, lr}
  00004		 |$M36587|
  00004	e1a04000	 mov         r4, r0

; 258  :     DEBUGMSG(ZONE_FUNCTION, (L"MCP:+%S\r\n", __FUNCTION__));
; 259  : 
; 260  :     // initialize shadow registers
; 261  :     //
; 262  :     mcbsp_ResetShadowRegisters(m_pDevice);

  00008	e5940004	 ldr         r0, [r4, #4]
  0000c	eb000000	 bl          mcbsp_ResetShadowRegisters

; 263  : 
; 264  :     // Configure for MASTER mode
; 265  :     //
; 266  :     mcbsp_ConfigureForMaster(m_pDevice);

  00010	e5940004	 ldr         r0, [r4, #4]
  00014	eb000000	 bl          mcbsp_ConfigureForMaster

; 267  : 
; 268  :     // overwrite default configuration with registry values
; 269  :     //
; 270  :     if (m_pDevice->useRegistryForMcbsp)

  00018	e5940004	 ldr         r0, [r4, #4]
  0001c	e59030c0	 ldr         r3, [r0, #0xC0]
  00020	e3530000	 cmp         r3, #0

; 271  :     {
; 272  :         mcbsp_GetRegistryValues(m_pDevice);

  00024	1b000000	 blne        mcbsp_GetRegistryValues

; 273  :     }
; 274  : 
; 275  :     mcbsp_ResetSampleRateGenerator(m_pDevice);

  00028	e5940004	 ldr         r0, [r4, #4]
  0002c	eb000000	 bl          mcbsp_ResetSampleRateGenerator

; 276  :     mcbsp_ResetTransmitter(m_pDevice);

  00030	e5940004	 ldr         r0, [r4, #4]
  00034	eb000000	 bl          mcbsp_ResetTransmitter

; 277  :     mcbsp_ResetReceiver(m_pDevice);

  00038	e5940004	 ldr         r0, [r4, #4]
  0003c	eb000000	 bl          mcbsp_ResetReceiver

; 278  : 
; 279  :     mcbsp_ConfigureSampleRateGenerator(m_pDevice);

  00040	e5940004	 ldr         r0, [r4, #4]
  00044	eb000000	 bl          mcbsp_ConfigureSampleRateGenerator

; 280  :     mcbsp_ConfigureTransmitter(m_pDevice);

  00048	e5940004	 ldr         r0, [r4, #4]
  0004c	eb000000	 bl          mcbsp_ConfigureTransmitter

; 281  :     mcbsp_ConfigureReceiver(m_pDevice);

  00050	e5940004	 ldr         r0, [r4, #4]
  00054	eb000000	 bl          mcbsp_ConfigureReceiver

; 282  : 
; 283  :     mcbsp_ClearIRQStatus(m_pDevice);

  00058	e5940004	 ldr         r0, [r4, #4]
  0005c	eb000000	 bl          mcbsp_ClearIRQStatus

; 284  :     mcbsp_UpdateRegisters(m_pDevice);

  00060	e5940004	 ldr         r0, [r4, #4]
  00064	eb000000	 bl          mcbsp_UpdateRegisters

; 285  : 
; 286  :     // Do I2S specific configuration
; 287  :     mcbsp_ConfigI2SProfile(m_pDevice);

  00068	e5940004	 ldr         r0, [r4, #4]
  0006c	eb000000	 bl          mcbsp_ConfigI2SProfile

; 288  : 
; 289  : #ifdef DEBUG
; 290  :     //mcbsp_DumpReg(m_pDevice, L"After configuration");
; 291  :     RETAILMSG(1,(TEXT("McBSP is in Master mode\r\n")));
; 292  : #endif
; 293  : 
; 294  :     DEBUGMSG(ZONE_FUNCTION, (L"MCP:-%S\r\n", __FUNCTION__));
; 295  : }

  00070	e8bd4010	 ldmia       sp!, {r4, lr}
  00074	e12fff1e	 bx          lr
  00078		 |$M36588|

			 ENDP  ; |?Initialize@I2SMasterProfile_t@@UAAXXZ|, I2SMasterProfile_t::Initialize

	EXPORT	|?ContextRestore@I2SMasterProfile_t@@UAAXXZ| ; I2SMasterProfile_t::ContextRestore

  00000			 AREA	 |.pdata|, PDATA
|$T36601| DCD	|$LN7@ContextRes@3|
	DCD	0x40000801
; Function compile flags: /Ogspy

  00000			 AREA	 |.text|, CODE, ARM

  00000		 |?ContextRestore@I2SMasterProfile_t@@UAAXXZ| PROC ; I2SMasterProfile_t::ContextRestore

; 305  : {

  00000		 |$LN7@ContextRes@3|
  00000	e92d4010	 stmdb       sp!, {r4, lr}
  00004		 |$M36598|
  00004	e1a04000	 mov         r4, r0

; 306  :     DEBUGMSG(ZONE_FUNCTION, (L"MCP:+%S\r\n", __FUNCTION__));
; 307  : 
; 308  :     // Call base class function
; 309  :     McbspProfile_t::ContextRestore();

  00008	e5940004	 ldr         r0, [r4, #4]
  0000c	eb000000	 bl          mcbsp_UpdateRegisters

; 310  : 
; 311  :     // Do I2S specific configuration
; 312  :     mcbsp_ConfigI2SProfile(m_pDevice);

  00010	e5940004	 ldr         r0, [r4, #4]
  00014	eb000000	 bl          mcbsp_ConfigI2SProfile

; 313  : 
; 314  : #ifdef DEBUG
; 315  :     mcbsp_DumpReg(m_pDevice, L"After context restore configuration");
; 316  : #endif
; 317  : 
; 318  :     DEBUGMSG(ZONE_FUNCTION, (L"MCP:-%S\r\n", __FUNCTION__));
; 319  : }

  00018	e8bd4010	 ldmia       sp!, {r4, lr}
  0001c	e12fff1e	 bx          lr
  00020		 |$M36599|

			 ENDP  ; |?ContextRestore@I2SMasterProfile_t@@UAAXXZ|, I2SMasterProfile_t::ContextRestore

	EXPORT	|?Initialize@TDMProfile_t@@UAAXXZ|	; TDMProfile_t::Initialize
	IMPORT	|mcbsp_ConfigTDMProfile|

  00000			 AREA	 |.pdata|, PDATA
|$T36612| DCD	|$LN7@Initialize@4|
	DCD	0x40000801
; Function compile flags: /Ogspy

  00000			 AREA	 |.text|, CODE, ARM

  00000		 |?Initialize@TDMProfile_t@@UAAXXZ| PROC ; TDMProfile_t::Initialize

; 332  : {

  00000		 |$LN7@Initialize@4|
  00000	e92d4010	 stmdb       sp!, {r4, lr}
  00004		 |$M36609|
  00004	e1a04000	 mov         r4, r0

; 333  :     DEBUGMSG(ZONE_FUNCTION, (L"MCP:+%S\r\n", __FUNCTION__));
; 334  : 
; 335  :     // Call base class function
; 336  :     McbspProfile_t::Initialize();

  00008	e5940004	 ldr         r0, [r4, #4]
  0000c	eb000000	 bl          mcbsp_ConfigCommonRegisters

; 337  : 
; 338  :     // Do TDM specific configuration
; 339  :     mcbsp_ConfigTDMProfile(m_pDevice);

  00010	e5940004	 ldr         r0, [r4, #4]
  00014	eb000000	 bl          mcbsp_ConfigTDMProfile

; 340  : 
; 341  :     DEBUGMSG(ZONE_FUNCTION, (L"MCP:-%S\r\n", __FUNCTION__));
; 342  : }

  00018	e8bd4010	 ldmia       sp!, {r4, lr}
  0001c	e12fff1e	 bx          lr
  00020		 |$M36610|

			 ENDP  ; |?Initialize@TDMProfile_t@@UAAXXZ|, TDMProfile_t::Initialize

	EXPORT	|?ContextRestore@TDMProfile_t@@UAAXXZ|	; TDMProfile_t::ContextRestore

  00000			 AREA	 |.pdata|, PDATA
|$T36623| DCD	|$LN7@ContextRes@4|
	DCD	0x40000801
; Function compile flags: /Ogspy

  00000			 AREA	 |.text|, CODE, ARM

  00000		 |?ContextRestore@TDMProfile_t@@UAAXXZ| PROC ; TDMProfile_t::ContextRestore

; 352  : {

  00000		 |$LN7@ContextRes@4|
  00000	e92d4010	 stmdb       sp!, {r4, lr}
  00004		 |$M36620|
  00004	e1a04000	 mov         r4, r0

; 353  :     DEBUGMSG(ZONE_FUNCTION, (L"MCP:+%S\r\n", __FUNCTION__));
; 354  : 
; 355  :     // Call base class function
; 356  :     McbspProfile_t::ContextRestore();

  00008	e5940004	 ldr         r0, [r4, #4]
  0000c	eb000000	 bl          mcbsp_UpdateRegisters

; 357  : 
; 358  :     // Do TDM specific configuration
; 359  :     mcbsp_ConfigTDMProfile(m_pDevice);

  00010	e5940004	 ldr         r0, [r4, #4]
  00014	eb000000	 bl          mcbsp_ConfigTDMProfile

; 360  : 
; 361  :     DEBUGMSG(ZONE_FUNCTION, (L"MCP:-%S\r\n", __FUNCTION__));
; 362  : }

  00018	e8bd4010	 ldmia       sp!, {r4, lr}
  0001c	e12fff1e	 bx          lr
  00020		 |$M36621|

			 ENDP  ; |?ContextRestore@TDMProfile_t@@UAAXXZ|, TDMProfile_t::ContextRestore

	EXPORT	|?SetTxChannelsRequested@TDMProfile_t@@UAAXXZ| ; TDMProfile_t::SetTxChannelsRequested
	IMPORT	|mcbsp_ConfigTDMTxChannels|

  00000			 AREA	 |.pdata|, PDATA
|$T36631| DCD	|$LN5@SetTxChann|
	DCD	0x40000501
; Function compile flags: /Ogspy

  00000			 AREA	 |.text|, CODE, ARM

  00000		 |?SetTxChannelsRequested@TDMProfile_t@@UAAXXZ| PROC ; TDMProfile_t::SetTxChannelsRequested

; 372  : {

  00000		 |$LN5@SetTxChann|
  00000	e52de004	 str         lr, [sp, #-4]!
  00004		 |$M36628|

; 373  :     DEBUGMSG(ZONE_FUNCTION, (L"MCP:+%S\r\n", __FUNCTION__));
; 374  : 
; 375  :     mcbsp_ConfigTDMTxChannels(m_pDevice);

  00004	e5900004	 ldr         r0, [r0, #4]
  00008	eb000000	 bl          mcbsp_ConfigTDMTxChannels

; 376  : 
; 377  :     DEBUGMSG(ZONE_FUNCTION, (L"MCP:-%S\r\n", __FUNCTION__));
; 378  : }

  0000c	e49de004	 ldr         lr, [sp], #4
  00010	e12fff1e	 bx          lr
  00014		 |$M36629|

			 ENDP  ; |?SetTxChannelsRequested@TDMProfile_t@@UAAXXZ|, TDMProfile_t::SetTxChannelsRequested

	EXPORT	|?SetRxChannelsRequested@TDMProfile_t@@UAAXXZ| ; TDMProfile_t::SetRxChannelsRequested
	IMPORT	|mcbsp_ConfigTDMRxChannels|

  00000			 AREA	 |.pdata|, PDATA
|$T36639| DCD	|$LN5@SetRxChann|
	DCD	0x40000501
; Function compile flags: /Ogspy

  00000			 AREA	 |.text|, CODE, ARM

  00000		 |?SetRxChannelsRequested@TDMProfile_t@@UAAXXZ| PROC ; TDMProfile_t::SetRxChannelsRequested

; 387  : {

  00000		 |$LN5@SetRxChann|
  00000	e52de004	 str         lr, [sp, #-4]!
  00004		 |$M36636|

; 388  :     DEBUGMSG(ZONE_FUNCTION, (L"MCP:+%S\r\n", __FUNCTION__));
; 389  : 
; 390  :     mcbsp_ConfigTDMRxChannels(m_pDevice);

  00004	e5900004	 ldr         r0, [r0, #4]
  00008	eb000000	 bl          mcbsp_ConfigTDMRxChannels

; 391  : 
; 392  :     DEBUGMSG(ZONE_FUNCTION, (L"MCP:-%S\r\n", __FUNCTION__));
; 393  : }

  0000c	e49de004	 ldr         lr, [sp], #4
  00010	e12fff1e	 bx          lr
  00014		 |$M36637|

			 ENDP  ; |?SetRxChannelsRequested@TDMProfile_t@@UAAXXZ|, TDMProfile_t::SetRxChannelsRequested

	END
