; Listing generated by Microsoft (R) Optimizing Compiler Version 14.01.60511.01 

	TTL	C:\WINCE600\platform\Z2170P\src\APP\common\log.cxx
	CODE32

  00000			 AREA	 |.drectve|, DRECTVE
	DCB	"-defaultlib:LIBCMT "
	DCB	"-defaultlib:OLDNAMES "

	EXPORT	|??_C@_13CCGINPHD@?$AAU?$AA?$AA@| [ DATA ] ; `string'
	EXPORT	|??_C@_13OPKGLAFF@?$AAB?$AA?$AA@| [ DATA ] ; `string'
	EXPORT	|??_C@_13HADIAKP@?$AAS?$AA?$AA@| [ DATA ] ; `string'
	EXPORT	|??_C@_13GAMECHAC@?$AAF?$AA?$AA@| [ DATA ] ; `string'
	EXPORT	|??_C@_13BFLGCPEB@?$AAP?$AA?$AA@| [ DATA ] ; `string'
	EXPORT	|??_C@_1M@KFHCAPLH@?$AAV?$AAb?$AAs?$AA?3?$AA?5?$AA?$AA@| [ DATA ] ; `string'
	EXPORT	|??_C@_1M@LNKAEDAF@?$AAD?$AAb?$AAg?$AA?3?$AA?5?$AA?$AA@| [ DATA ] ; `string'
	EXPORT	|??_C@_1M@OIGFJDEC@?$AAM?$AAs?$AAg?$AA?3?$AA?5?$AA?$AA@| [ DATA ] ; `string'
	EXPORT	|??_C@_1M@POMHOGMK@?$AAW?$AAr?$AAn?$AA?3?$AA?5?$AA?$AA@| [ DATA ] ; `string'
	EXPORT	|??_C@_1BA@CMCHHHIG@?$AAE?$AAR?$AAR?$AAO?$AAR?$AA?3?$AA?5?$AA?$AA@| [ DATA ] ; `string'

  00000			 AREA	 |.rdata|, DATA, READONLY
|??_C@_13CCGINPHD@?$AAU?$AA?$AA@| DCB "U", 0x0, 0x0, 0x0 ; `string'

  00000			 AREA	 |.rdata|, DATA, READONLY
|??_C@_13OPKGLAFF@?$AAB?$AA?$AA@| DCB "B", 0x0, 0x0, 0x0 ; `string'

  00000			 AREA	 |.rdata|, DATA, READONLY
|??_C@_13HADIAKP@?$AAS?$AA?$AA@| DCB "S", 0x0, 0x0, 0x0	; `string'

  00000			 AREA	 |.rdata|, DATA, READONLY
|??_C@_13GAMECHAC@?$AAF?$AA?$AA@| DCB "F", 0x0, 0x0, 0x0 ; `string'

  00000			 AREA	 |.rdata|, DATA, READONLY
|??_C@_13BFLGCPEB@?$AAP?$AA?$AA@| DCB "P", 0x0, 0x0, 0x0 ; `string'

  00000			 AREA	 |.rdata|, DATA, READONLY
|??_C@_1M@KFHCAPLH@?$AAV?$AAb?$AAs?$AA?3?$AA?5?$AA?$AA@| DCB "V", 0x0, "b"
	DCB	0x0, "s", 0x0, ":", 0x0, " ", 0x0, 0x0, 0x0 ; `string'

  00000			 AREA	 |.rdata|, DATA, READONLY
|??_C@_1M@LNKAEDAF@?$AAD?$AAb?$AAg?$AA?3?$AA?5?$AA?$AA@| DCB "D", 0x0, "b"
	DCB	0x0, "g", 0x0, ":", 0x0, " ", 0x0, 0x0, 0x0 ; `string'

  00000			 AREA	 |.rdata|, DATA, READONLY
|??_C@_1M@OIGFJDEC@?$AAM?$AAs?$AAg?$AA?3?$AA?5?$AA?$AA@| DCB "M", 0x0, "s"
	DCB	0x0, "g", 0x0, ":", 0x0, " ", 0x0, 0x0, 0x0 ; `string'

  00000			 AREA	 |.rdata|, DATA, READONLY
|??_C@_1M@POMHOGMK@?$AAW?$AAr?$AAn?$AA?3?$AA?5?$AA?$AA@| DCB "W", 0x0, "r"
	DCB	0x0, "n", 0x0, ":", 0x0, " ", 0x0, 0x0, 0x0 ; `string'

  00000			 AREA	 |.rdata|, DATA, READONLY
|??_C@_1BA@CMCHHHIG@?$AAE?$AAR?$AAR?$AAO?$AAR?$AA?3?$AA?5?$AA?$AA@| DCB "E"
	DCB	0x0, "R", 0x0, "R", 0x0, "O", 0x0, "R", 0x0, ":", 0x0, " "
	DCB	0x0, 0x0, 0x0				; `string'

  00000			 AREA	 |.data|, DATA
|g_LogInfo| DCD	0x0
	DCD	0x0
	DCD	0xa
	DCD	0x0
	DCB	0x0, 0x0
	%	4094
	DCD	0x0
	DCD	0x0
	DCD	0x0
	DCD	0x0
	DCD	0x0
	%	20
|g_LogPrefix| DCD |??_C@_1BA@CMCHHHIG@?$AAE?$AAR?$AAR?$AAO?$AAR?$AA?3?$AA?5?$AA?$AA@|
	DCD	|??_C@_1BA@CMCHHHIG@?$AAE?$AAR?$AAR?$AAO?$AAR?$AA?3?$AA?5?$AA?$AA@|
	DCD	|??_C@_1BA@CMCHHHIG@?$AAE?$AAR?$AAR?$AAO?$AAR?$AA?3?$AA?5?$AA?$AA@|
	DCD	|??_C@_1M@POMHOGMK@?$AAW?$AAr?$AAn?$AA?3?$AA?5?$AA?$AA@|
	DCD	|??_C@_1M@POMHOGMK@?$AAW?$AAr?$AAn?$AA?3?$AA?5?$AA?$AA@|
	DCD	|??_C@_1M@POMHOGMK@?$AAW?$AAr?$AAn?$AA?3?$AA?5?$AA?$AA@|
	DCD	|??_C@_1M@POMHOGMK@?$AAW?$AAr?$AAn?$AA?3?$AA?5?$AA?$AA@|
	DCD	|??_C@_1M@POMHOGMK@?$AAW?$AAr?$AAn?$AA?3?$AA?5?$AA?$AA@|
	DCD	|??_C@_1M@POMHOGMK@?$AAW?$AAr?$AAn?$AA?3?$AA?5?$AA?$AA@|
	DCD	|??_C@_1M@POMHOGMK@?$AAW?$AAr?$AAn?$AA?3?$AA?5?$AA?$AA@|
	DCD	|??_C@_1M@OIGFJDEC@?$AAM?$AAs?$AAg?$AA?3?$AA?5?$AA?$AA@|
	DCD	|??_C@_1M@OIGFJDEC@?$AAM?$AAs?$AAg?$AA?3?$AA?5?$AA?$AA@|
	DCD	|??_C@_1M@LNKAEDAF@?$AAD?$AAb?$AAg?$AA?3?$AA?5?$AA?$AA@|
	DCD	|??_C@_1M@LNKAEDAF@?$AAD?$AAb?$AAg?$AA?3?$AA?5?$AA?$AA@|
	DCD	|??_C@_1M@KFHCAPLH@?$AAV?$AAb?$AAs?$AA?3?$AA?5?$AA?$AA@|
	DCD	|??_C@_1M@KFHCAPLH@?$AAV?$AAb?$AAs?$AA?3?$AA?5?$AA?$AA@|
|g_CSSDTestResults| DCD |??_C@_13BFLGCPEB@?$AAP?$AA?$AA@|
	DCD	|??_C@_13GAMECHAC@?$AAF?$AA?$AA@|
	DCD	|??_C@_13HADIAKP@?$AAS?$AA?$AA@|
	DCD	|??_C@_13OPKGLAFF@?$AAB?$AA?$AA@|
	DCD	|??_C@_13CCGINPHD@?$AAU?$AA?$AA@|
	EXPORT	|GetCurrentThreadId|
	IMPORT	|__GetUserKData|
; File c:\wince600\public\common\sdk\inc\kfuncs.h

  00000			 AREA	 |.pdata|, PDATA
|$T32566| DCD	|$LN5@GetCurrent|
	DCD	0x40000501
; Function compile flags: /Ogspy

  00000			 AREA	 |.text|, CODE, ARM

  00000		 |GetCurrentThreadId| PROC

; 369  : _inline DWORD GetCurrentThreadId(void) {

  00000		 |$LN5@GetCurrent|
  00000	e52de004	 str         lr, [sp, #-4]!
  00004		 |$M32563|

; 370  :     return __GetUserKData (SYSHANDLE_OFFSET + (SH_CURTHREAD * sizeof(HANDLE)));

  00004	e3a00008	 mov         r0, #8
  00008	eb000000	 bl          __GetUserKData

; 371  : }

  0000c	e49de004	 ldr         lr, [sp], #4
  00010	e12fff1e	 bx          lr
  00014		 |$M32564|

			 ENDP  ; |GetCurrentThreadId|

	EXPORT	|LogStartup|
	EXPORT	|??_C@_1BG@FJGLOEHI@?$AA0?$AA0?$AA0?$AA0?$AA0?$AA0?$AA0?$AA0?$AA?3?$AA?5?$AA?$AA@| [ DATA ] ; `string'
	EXPORT	|??_C@_13HOIJIPNN@?$AA?5?$AA?$AA@| [ DATA ] ; `string'
	IMPORT	|LeaveCriticalSection|
	IMPORT	|GetTickCount|
	IMPORT	|EnterCriticalSection|
	IMPORT	|InitializeCriticalSection|
	IMPORT	|wcslen|
	IMPORT	|wcscat|
	IMPORT	|wcscpy|
; File c:\wince600\platform\z2170p\src\app\common\log.cxx

  00000			 AREA	 |.pdata|, PDATA
|$T32580| DCD	|$LN5@LogStartup|
	DCD	0x40002e01

  00000			 AREA	 |.rdata|, DATA, READONLY
|??_C@_1BG@FJGLOEHI@?$AA0?$AA0?$AA0?$AA0?$AA0?$AA0?$AA0?$AA0?$AA?3?$AA?5?$AA?$AA@| DCB "0"
	DCB	0x0, "0", 0x0, "0", 0x0, "0", 0x0, "0", 0x0, "0", 0x0, "0"
	DCB	0x0, "0", 0x0, ":", 0x0, " ", 0x0, 0x0, 0x0 ; `string'

  00000			 AREA	 |.rdata|, DATA, READONLY
|??_C@_13HOIJIPNN@?$AA?5?$AA?$AA@| DCB " ", 0x0, 0x0, 0x0 ; `string'
; Function compile flags: /Ogspy

  00000			 AREA	 |.text|, CODE, ARM

  00000		 |LogStartup| PROC

; 63   : {

  00000		 |$LN5@LogStartup|
  00000	e92d40f0	 stmdb       sp!, {r4 - r7, lr}
  00004		 |$M32577|
  00004	e1a05002	 mov         r5, r2
  00008	e1a04001	 mov         r4, r1
  0000c	e1a06000	 mov         r6, r0

; 64   :    DWORD nLength = 0;
; 65   : 
; 66   :    ASSERT(!g_LogInfo.m_bStartup);
; 67   : 
; 68   :    InitializeCriticalSection(&g_LogInfo.m_cs);

  00010	e59f709c	 ldr         r7, [pc, #0x9C]
  00014	e2873a01	 add         r3, r7, #1, 20
  00018	e2830024	 add         r0, r3, #0x24
  0001c	eb000000	 bl          InitializeCriticalSection

; 69   :    EnterCriticalSection(&g_LogInfo.m_cs);

  00020	e2873a01	 add         r3, r7, #1, 20
  00024	e2830024	 add         r0, r3, #0x24
  00028	eb000000	 bl          EnterCriticalSection

; 70   :    
; 71   :    g_LogInfo.m_bStartup = TRUE;

  0002c	e3a03001	 mov         r3, #1
  00030	e5873000	 str         r3, [r7]

; 72   :    g_LogInfo.m_bWATTOutput = FALSE;

  00034	e3a03000	 mov         r3, #0
  00038	e5873004	 str         r3, [r7, #4]

; 73   :    g_LogInfo.m_dwLogLevel = dwLogLevel;

  0003c	e5874008	 str         r4, [r7, #8]

; 74   :    g_LogInfo.m_dwStartTick = GetTickCount();

  00040	eb000000	 bl          GetTickCount

; 75   :    g_LogInfo.m_pLogFce = pLogFce;
; 76   :    
; 77   :    lstrcpy(g_LogInfo.m_szBuffer, _T("00000000: "));

  00044	e59f1064	 ldr         r1, [pc, #0x64]
  00048	e587000c	 str         r0, [r7, #0xC]
  0004c	e2874a01	 add         r4, r7, #1, 20
  00050	e2870010	 add         r0, r7, #0x10
  00054	e5845020	 str         r5, [r4, #0x20]
  00058	eb000000	 bl          wcscpy

; 78   :    lstrcpy(g_LogInfo.m_szBuffer + 10, szTestName);

  0005c	e1a01006	 mov         r1, r6
  00060	e2870024	 add         r0, r7, #0x24
  00064	eb000000	 bl          wcscpy

; 79   :    lstrcat(g_LogInfo.m_szBuffer, _T(" "));

  00068	e59f103c	 ldr         r1, [pc, #0x3C]
  0006c	e2870010	 add         r0, r7, #0x10
  00070	eb000000	 bl          wcscat

; 80   : 
; 81   :    nLength = lstrlen(g_LogInfo.m_szBuffer);

  00074	e2870010	 add         r0, r7, #0x10
  00078	eb000000	 bl          wcslen
  0007c	e3a02c07	 mov         r2, #7, 24

; 82   :    g_LogInfo.m_szBufferTail = g_LogInfo.m_szBuffer + nLength;

  00080	e2873010	 add         r3, r7, #0x10

; 83   :    g_LogInfo.m_cbBufferTail = BUFFER_SIZE - nLength - 3;

  00084	e38220fd	 orr         r2, r2, #0xFD
  00088	e0833080	 add         r3, r3, r0, lsl #1

; 84   : 
; 85   :    LeaveCriticalSection(&g_LogInfo.m_cs);

  0008c	e2871a01	 add         r1, r7, #1, 20
  00090	e0602002	 rsb         r2, r0, r2
  00094	e2810024	 add         r0, r1, #0x24
  00098	e5843010	 str         r3, [r4, #0x10]
  0009c	e5842014	 str         r2, [r4, #0x14]
  000a0	eb000000	 bl          LeaveCriticalSection

; 86   : }

  000a4	e8bd40f0	 ldmia       sp!, {r4 - r7, lr}
  000a8	e12fff1e	 bx          lr
  000ac		 |$LN6@LogStartup|
  000ac		 |$LN7@LogStartup|
  000ac	00000000	 DCD         |??_C@_13HOIJIPNN@?$AA?5?$AA?$AA@|
  000b0		 |$LN8@LogStartup|
  000b0	00000000	 DCD         |??_C@_1BG@FJGLOEHI@?$AA0?$AA0?$AA0?$AA0?$AA0?$AA0?$AA0?$AA0?$AA?3?$AA?5?$AA?$AA@|
  000b4		 |$LN9@LogStartup|
  000b4	00000000	 DCD         |g_LogInfo|
  000b8		 |$M32578|

			 ENDP  ; |LogStartup|

	EXPORT	|?LogV@@YAXKPBGPAD@Z|			; LogV
	EXPORT	|??_C@_19HGGOABND@?$AA?$CF?$AA0?$AA8?$AAx?$AA?$AA@| [ DATA ] ; `string'
	IMPORT	|OutputDebugStringW|
	IMPORT	|wvsprintfW|
	IMPORT	|wsprintfW|
; File c:\wince600\public\common\sdk\inc\kfuncs.h

  00000			 AREA	 |.pdata|, PDATA
|$T32598| DCD	|$LN14@LogV|
	DCD	0x40004201

  00000			 AREA	 |.rdata|, DATA, READONLY
|??_C@_19HGGOABND@?$AA?$CF?$AA0?$AA8?$AAx?$AA?$AA@| DCB "%", 0x0, "0", 0x0
	DCB	"8", 0x0, "x", 0x0, 0x0, 0x0		; `string'
; Function compile flags: /Ogspy
; File c:\wince600\platform\z2170p\src\app\common\log.cxx

  00000			 AREA	 |.text|, CODE, ARM

  00000		 |?LogV@@YAXKPBGPAD@Z| PROC		; LogV

; 127  : {

  00000		 |$LN14@LogV|
  00000	e92d47f0	 stmdb       sp!, {r4 - r10, lr}
  00004		 |$M32595|
  00004	e1a09002	 mov         r9, r2
  00008	e1a0a001	 mov         r10, r1
  0000c	e1a08000	 mov         r8, r0

; 128  : 	#pragma warning(push)
; 129  : 	#pragma warning(disable:6385)
; 130  :    LONG nCount = 0;
; 131  : 
; 132  :    ASSERT(g_LogInfo.m_bStartup);
; 133  : 
; 134  :    EnterCriticalSection(&g_LogInfo.m_cs);

  00010	e59f70ec	 ldr         r7, [pc, #0xEC]
  00014	e2873a01	 add         r3, r7, #1, 20
  00018	e2830024	 add         r0, r3, #0x24
  0001c	eb000000	 bl          EnterCriticalSection

; 135  : 
; 136  :    if (dwLevel > g_LogInfo.m_dwLogLevel) goto cleanUp;

  00020	e5973008	 ldr         r3, [r7, #8]
  00024	e1580003	 cmp         r8, r3
  00028	8a00002e	 bhi         |$cleanUp$32408|

; 137  : 
; 138  :    if (dwLevel <= LOG_FAIL) g_LogInfo.m_nErrorCount++;

  0002c	e3580002	 cmp         r8, #2
  00030	92873a01	 addls       r3, r7, #1, 20
  00034	95933018	 ldrls       r3, [r3, #0x18]
  00038	9287ea01	 addls       lr, r7, #1, 20
  0003c	92833001	 addls       r3, r3, #1
  00040	958e3018	 strls       r3, [lr, #0x18]
  00044	9a000005	 bls         |$LN3@LogV|

; 139  :    else if (dwLevel <= LOG_WARNING) g_LogInfo.m_nWarningCount++;

  00048	e3580003	 cmp         r8, #3
  0004c	92873a01	 addls       r3, r7, #1, 20
  00050	9593301c	 ldrls       r3, [r3, #0x1C]
  00054	92872a01	 addls       r2, r7, #1, 20
  00058	92833001	 addls       r3, r3, #1
  0005c	9582301c	 strls       r3, [r2, #0x1C]
  00060		 |$LN3@LogV|

; 140  : 
; 141  :    wsprintf(g_LogInfo.m_szBuffer, _T("%08x"), GetCurrentThreadId());

  00060	e3a00008	 mov         r0, #8
  00064	eb000000	 bl          __GetUserKData
  00068	e59f1090	 ldr         r1, [pc, #0x90]
  0006c	e1a02000	 mov         r2, r0
  00070	e2870010	 add         r0, r7, #0x10
  00074	eb000000	 bl          wsprintfW

; 142  :    g_LogInfo.m_szBuffer[8] = _T(':');
; 143  : 
; 144  :    nCount = lstrlen(g_LogPrefix[dwLevel]);

  00078	e59f307c	 ldr         r3, [pc, #0x7C]
  0007c	e3a0203a	 mov         r2, #0x3A
  00080	e1c722b0	 strh        r2, [r7, #0x20]
  00084	e7934108	 ldr         r4, [r3, +r8, lsl #2]
  00088	e1a00004	 mov         r0, r4
  0008c	eb000000	 bl          wcslen

; 145  :    lstrcpy(g_LogInfo.m_szBufferTail, g_LogPrefix[dwLevel]);

  00090	e2876a01	 add         r6, r7, #1, 20
  00094	e1a05000	 mov         r5, r0
  00098	e5960010	 ldr         r0, [r6, #0x10]
  0009c	e1a01004	 mov         r1, r4
  000a0	eb000000	 bl          wcscpy

; 146  : 
; 147  :    wvsprintf(g_LogInfo.m_szBufferTail + nCount, szFormat, pArgs);

  000a4	e5963010	 ldr         r3, [r6, #0x10]
  000a8	e1a02009	 mov         r2, r9
  000ac	e1a0100a	 mov         r1, r10
  000b0	e0830085	 add         r0, r3, r5, lsl #1
  000b4	eb000000	 bl          wvsprintfW

; 148  :    if (g_LogInfo.m_pLogFce == NULL) {

  000b8	e5963020	 ldr         r3, [r6, #0x20]
  000bc	e3530000	 cmp         r3, #0
  000c0	1a000002	 bne         |$LN2@LogV|

; 149  :       OutputDebugString(g_LogInfo.m_szBuffer);

  000c4	e2870010	 add         r0, r7, #0x10
  000c8	eb000000	 bl          OutputDebugStringW

; 150  :    } else {

  000cc	ea000005	 b           |$cleanUp$32408|
  000d0		 |$LN2@LogV|

; 151  :       g_LogInfo.m_pLogFce(dwLevel, g_LogInfo.m_szBuffer);

  000d0	e2873a01	 add         r3, r7, #1, 20
  000d4	e5933020	 ldr         r3, [r3, #0x20]
  000d8	e2871010	 add         r1, r7, #0x10
  000dc	e1a00008	 mov         r0, r8
  000e0	e1a0e00f	 mov         lr, pc
  000e4	e12fff13	 bx          r3
  000e8		 |$cleanUp$32408|

; 152  :    }
; 153  : 
; 154  : cleanUp:
; 155  :    LeaveCriticalSection(&g_LogInfo.m_cs);

  000e8	e2873a01	 add         r3, r7, #1, 20
  000ec	e2830024	 add         r0, r3, #0x24
  000f0	eb000000	 bl          LeaveCriticalSection

; 156  :    #pragma warning(pop)
; 157  : }

  000f4	e8bd47f0	 ldmia       sp!, {r4 - r10, lr}
  000f8	e12fff1e	 bx          lr
  000fc		 |$LN15@LogV|
  000fc		 |$LN16@LogV|
  000fc	00000000	 DCD         |g_LogPrefix|
  00100		 |$LN17@LogV|
  00100	00000000	 DCD         |??_C@_19HGGOABND@?$AA?$CF?$AA0?$AA8?$AAx?$AA?$AA@|
  00104		 |$LN18@LogV|
  00104	00000000	 DCD         |g_LogInfo|
  00108		 |$M32596|

			 ENDP  ; |?LogV@@YAXKPBGPAD@Z|, LogV

	EXPORT	|Log|

  00000			 AREA	 |.pdata|, PDATA
|$T32611| DCD	|$LN5@Log|
	DCD	0x40000803
; Function compile flags: /Ogspy

  00000			 AREA	 |.text|, CODE, ARM

  00000		 |Log|	 PROC

; 162  : {

  00000		 |$LN5@Log|
  00000	e1a0c00d	 mov         r12, sp
  00004	e92d000f	 stmdb       sp!, {r0 - r3}
  00008	e92d5000	 stmdb       sp!, {r12, lr}
  0000c		 |$M32608|
  0000c	e58d100c	 str         r1, [sp, #0xC]

; 163  :    va_list pArgs;
; 164  :    
; 165  :    va_start(pArgs, szFormat);
; 166  :    LogV(dwLevel, szFormat, pArgs);

  00010	e28d2010	 add         r2, sp, #0x10
  00014	eb000000	 bl          |?LogV@@YAXKPBGPAD@Z|

; 167  :    va_end(pArgs);
; 168  : }

  00018	e89d6000	 ldmia       sp, {sp, lr}
  0001c	e12fff1e	 bx          lr
  00020		 |$M32609|

			 ENDP  ; |Log|

	EXPORT	|LogErr|

  00000			 AREA	 |.pdata|, PDATA
|$T32619| DCD	|$LN5@LogErr|
	DCD	0x40000a03
; Function compile flags: /Ogspy

  00000			 AREA	 |.text|, CODE, ARM

  00000		 |LogErr| PROC

; 173  : {

  00000		 |$LN5@LogErr|
  00000	e1a0c00d	 mov         r12, sp
  00004	e92d000f	 stmdb       sp!, {r0 - r3}
  00008	e92d5000	 stmdb       sp!, {r12, lr}
  0000c		 |$M32616|
  0000c	e58d0008	 str         r0, [sp, #8]

; 174  :    va_list pArgs;
; 175  :    
; 176  :    va_start(pArgs, szFormat);
; 177  :    LogV(LOG_FAIL, szFormat, pArgs);

  00010	e1a01000	 mov         r1, r0
  00014	e3a00002	 mov         r0, #2
  00018	e28d200c	 add         r2, sp, #0xC
  0001c	eb000000	 bl          |?LogV@@YAXKPBGPAD@Z|

; 178  :    va_end(pArgs);
; 179  : }

  00020	e89d6000	 ldmia       sp, {sp, lr}
  00024	e12fff1e	 bx          lr
  00028		 |$M32617|

			 ENDP  ; |LogErr|

	EXPORT	|LogWrn|

  00000			 AREA	 |.pdata|, PDATA
|$T32627| DCD	|$LN5@LogWrn|
	DCD	0x40000a03
; Function compile flags: /Ogspy

  00000			 AREA	 |.text|, CODE, ARM

  00000		 |LogWrn| PROC

; 184  : {

  00000		 |$LN5@LogWrn|
  00000	e1a0c00d	 mov         r12, sp
  00004	e92d000f	 stmdb       sp!, {r0 - r3}
  00008	e92d5000	 stmdb       sp!, {r12, lr}
  0000c		 |$M32624|
  0000c	e58d0008	 str         r0, [sp, #8]

; 185  :    va_list pArgs;
; 186  :    
; 187  :    va_start(pArgs, szFormat);
; 188  :    LogV(LOG_WARNING, szFormat, pArgs);

  00010	e1a01000	 mov         r1, r0
  00014	e3a00003	 mov         r0, #3
  00018	e28d200c	 add         r2, sp, #0xC
  0001c	eb000000	 bl          |?LogV@@YAXKPBGPAD@Z|

; 189  :    va_end(pArgs);
; 190  : }

  00020	e89d6000	 ldmia       sp, {sp, lr}
  00024	e12fff1e	 bx          lr
  00028		 |$M32625|

			 ENDP  ; |LogWrn|

	EXPORT	|LogMsg|

  00000			 AREA	 |.pdata|, PDATA
|$T32635| DCD	|$LN5@LogMsg|
	DCD	0x40000a03
; Function compile flags: /Ogspy

  00000			 AREA	 |.text|, CODE, ARM

  00000		 |LogMsg| PROC

; 195  : {

  00000		 |$LN5@LogMsg|
  00000	e1a0c00d	 mov         r12, sp
  00004	e92d000f	 stmdb       sp!, {r0 - r3}
  00008	e92d5000	 stmdb       sp!, {r12, lr}
  0000c		 |$M32632|
  0000c	e58d0008	 str         r0, [sp, #8]

; 196  :    va_list pArgs;
; 197  :    
; 198  :    va_start(pArgs, szFormat);
; 199  :    LogV(LOG_PASS, szFormat, pArgs);

  00010	e1a01000	 mov         r1, r0
  00014	e3a0000a	 mov         r0, #0xA
  00018	e28d200c	 add         r2, sp, #0xC
  0001c	eb000000	 bl          |?LogV@@YAXKPBGPAD@Z|

; 200  :    va_end(pArgs);
; 201  : }

  00020	e89d6000	 ldmia       sp, {sp, lr}
  00024	e12fff1e	 bx          lr
  00028		 |$M32633|

			 ENDP  ; |LogMsg|

	EXPORT	|LogDbg|

  00000			 AREA	 |.pdata|, PDATA
|$T32643| DCD	|$LN5@LogDbg|
	DCD	0x40000a03
; Function compile flags: /Ogspy

  00000			 AREA	 |.text|, CODE, ARM

  00000		 |LogDbg| PROC

; 206  : {

  00000		 |$LN5@LogDbg|
  00000	e1a0c00d	 mov         r12, sp
  00004	e92d000f	 stmdb       sp!, {r0 - r3}
  00008	e92d5000	 stmdb       sp!, {r12, lr}
  0000c		 |$M32640|
  0000c	e58d0008	 str         r0, [sp, #8]

; 207  :    va_list pArgs;
; 208  :    
; 209  :    va_start(pArgs, szFormat);
; 210  :    LogV(LOG_DETAIL, szFormat, pArgs);

  00010	e1a01000	 mov         r1, r0
  00014	e3a0000c	 mov         r0, #0xC
  00018	e28d200c	 add         r2, sp, #0xC
  0001c	eb000000	 bl          |?LogV@@YAXKPBGPAD@Z|

; 211  :    va_end(pArgs);
; 212  : }

  00020	e89d6000	 ldmia       sp, {sp, lr}
  00024	e12fff1e	 bx          lr
  00028		 |$M32641|

			 ENDP  ; |LogDbg|

	EXPORT	|LogVbs|

  00000			 AREA	 |.pdata|, PDATA
|$T32651| DCD	|$LN5@LogVbs|
	DCD	0x40000a03
; Function compile flags: /Ogspy

  00000			 AREA	 |.text|, CODE, ARM

  00000		 |LogVbs| PROC

; 217  : {

  00000		 |$LN5@LogVbs|
  00000	e1a0c00d	 mov         r12, sp
  00004	e92d000f	 stmdb       sp!, {r0 - r3}
  00008	e92d5000	 stmdb       sp!, {r12, lr}
  0000c		 |$M32648|
  0000c	e58d0008	 str         r0, [sp, #8]

; 218  :    va_list pArgs;
; 219  :    
; 220  :    va_start(pArgs, szFormat);
; 221  :    LogV(LOG_COMMENT, szFormat, pArgs);

  00010	e1a01000	 mov         r1, r0
  00014	e3a0000e	 mov         r0, #0xE
  00018	e28d200c	 add         r2, sp, #0xC
  0001c	eb000000	 bl          |?LogV@@YAXKPBGPAD@Z|

; 222  :    va_end(pArgs);
; 223  : }

  00020	e89d6000	 ldmia       sp, {sp, lr}
  00024	e12fff1e	 bx          lr
  00028		 |$M32649|

			 ENDP  ; |LogVbs|

	EXPORT	|LogGetErrorCount|

  00000			 AREA	 |.pdata|, PDATA
|$T32660| DCD	|$LN5@LogGetErro|
	DCD	0x40000500
; Function compile flags: /Ogspy

  00000			 AREA	 |.text|, CODE, ARM

  00000		 |LogGetErrorCount| PROC

; 228  : {

  00000		 |$LN5@LogGetErro|
  00000		 |$M32657|

; 229  :    return g_LogInfo.m_nErrorCount;

  00000	e59f3008	 ldr         r3, [pc, #8]
  00004	e2833a01	 add         r3, r3, #1, 20
  00008	e5930018	 ldr         r0, [r3, #0x18]

; 230  : }

  0000c	e12fff1e	 bx          lr
  00010		 |$LN6@LogGetErro|
  00010		 |$LN7@LogGetErro|
  00010	00000000	 DCD         |g_LogInfo|
  00014		 |$M32658|

			 ENDP  ; |LogGetErrorCount|

	EXPORT	|LogGetWarningCount|

  00000			 AREA	 |.pdata|, PDATA
|$T32671| DCD	|$LN5@LogGetWarn|
	DCD	0x40000500
; Function compile flags: /Ogspy

  00000			 AREA	 |.text|, CODE, ARM

  00000		 |LogGetWarningCount| PROC

; 235  : {

  00000		 |$LN5@LogGetWarn|
  00000		 |$M32668|

; 236  :    return g_LogInfo.m_nWarningCount;

  00000	e59f3008	 ldr         r3, [pc, #8]
  00004	e2833a01	 add         r3, r3, #1, 20
  00008	e593001c	 ldr         r0, [r3, #0x1C]

; 237  : }

  0000c	e12fff1e	 bx          lr
  00010		 |$LN6@LogGetWarn|
  00010		 |$LN7@LogGetWarn|
  00010	00000000	 DCD         |g_LogInfo|
  00014		 |$M32669|

			 ENDP  ; |LogGetWarningCount|

	EXPORT	|LogSetWATTOutput|

  00000			 AREA	 |.pdata|, PDATA
|$T32681| DCD	|$LN5@LogSetWATT|
	DCD	0x40000400
; Function compile flags: /Ogspy

  00000			 AREA	 |.text|, CODE, ARM

  00000		 |LogSetWATTOutput| PROC

; 242  : {

  00000		 |$LN5@LogSetWATT|
  00000		 |$M32678|

; 243  :    g_LogInfo.m_bWATTOutput = bWATTOutput;

  00000	e59f3004	 ldr         r3, [pc, #4]
  00004	e5830004	 str         r0, [r3, #4]

; 244  : }

  00008	e12fff1e	 bx          lr
  0000c		 |$LN6@LogSetWATT|
  0000c		 |$LN7@LogSetWATT|
  0000c	00000000	 DCD         |g_LogInfo|
  00010		 |$M32679|

			 ENDP  ; |LogSetWATTOutput|

	EXPORT	|LogSetLevel|

  00000			 AREA	 |.pdata|, PDATA
|$T32691| DCD	|$LN5@LogSetLeve|
	DCD	0x40000400
; Function compile flags: /Ogspy

  00000			 AREA	 |.text|, CODE, ARM

  00000		 |LogSetLevel| PROC

; 249  : {

  00000		 |$LN5@LogSetLeve|
  00000		 |$M32688|

; 250  :    g_LogInfo.m_dwLogLevel = dwLogLevel;

  00000	e59f3004	 ldr         r3, [pc, #4]
  00004	e5830008	 str         r0, [r3, #8]

; 251  : }

  00008	e12fff1e	 bx          lr
  0000c		 |$LN6@LogSetLeve|
  0000c		 |$LN7@LogSetLeve|
  0000c	00000000	 DCD         |g_LogInfo|
  00010		 |$M32689|

			 ENDP  ; |LogSetLevel|

	EXPORT	|LogGetLevel|

  00000			 AREA	 |.pdata|, PDATA
|$T32702| DCD	|$LN5@LogGetLeve|
	DCD	0x40000400
; Function compile flags: /Ogspy

  00000			 AREA	 |.text|, CODE, ARM

  00000		 |LogGetLevel| PROC

; 256  : {

  00000		 |$LN5@LogGetLeve|
  00000		 |$M32699|

; 257  :    return g_LogInfo.m_dwLogLevel;

  00000	e59f3004	 ldr         r3, [pc, #4]
  00004	e5930008	 ldr         r0, [r3, #8]

; 258  : }

  00008	e12fff1e	 bx          lr
  0000c		 |$LN6@LogGetLeve|
  0000c		 |$LN7@LogGetLeve|
  0000c	00000000	 DCD         |g_LogInfo|
  00010		 |$M32700|

			 ENDP  ; |LogGetLevel|

	EXPORT	|LogCSSDTestResult|
	EXPORT	|??_C@_1CO@PHJPOGIH@?$AAC?$AAS?$AAS?$AAD?$AA?5?$AAT?$AAe?$AAs?$AAt?$AA?3?$AA?5?$AA?$CF?$AAs?$AA?0?$AA?5?$AA?$CF?$AAs?$AA?0?$AA?0?$AA?5?$AA?$CF?$AAs?$AA?$AA@| [ DATA ] ; `string'

  00000			 AREA	 |.pdata|, PDATA
|$T32713| DCD	|$LN5@LogCSSDTes|
	DCD	0x40000c01

  00000			 AREA	 |.rdata|, DATA, READONLY
|??_C@_1CO@PHJPOGIH@?$AAC?$AAS?$AAS?$AAD?$AA?5?$AAT?$AAe?$AAs?$AAt?$AA?3?$AA?5?$AA?$CF?$AAs?$AA?0?$AA?5?$AA?$CF?$AAs?$AA?0?$AA?0?$AA?5?$AA?$CF?$AAs?$AA?$AA@| DCB "C"
	DCB	0x0, "S", 0x0, "S", 0x0, "D", 0x0, " ", 0x0, "T", 0x0, "e"
	DCB	0x0, "s", 0x0, "t", 0x0, ":", 0x0, " ", 0x0, "%", 0x0, "s"
	DCB	0x0, ",", 0x0, " ", 0x0, "%", 0x0, "s", 0x0, ",", 0x0, ","
	DCB	0x0, " ", 0x0, "%", 0x0, "s", 0x0, 0x0, 0x0 ; `string'
; Function compile flags: /Ogspy

  00000			 AREA	 |.text|, CODE, ARM

  00000		 |LogCSSDTestResult| PROC

; 263  : {

  00000		 |$LN5@LogCSSDTes|
  00000	e52de004	 str         lr, [sp, #-4]!
  00004		 |$M32710|
  00004	e1a0e001	 mov         lr, r1

; 264  :     //  Log the CSSD test result
; 265  :     //  Format:
; 266  :     //
; 267  :     //      CSSD Test: TestCaseID, Descrip,, Status
; 268  :     //
; 269  :     LogMsg(TEXT("CSSD Test: %s, %s,, %s"), 
; 270  :         lpTestEntry->lpTestCaseID,
; 271  :         lpTestEntry->lpDescription,
; 272  :         g_CSSDTestResults[dwStatus]);

  00008	e59f301c	 ldr         r3, [pc, #0x1C]
  0000c	e5902004	 ldr         r2, [r0, #4]
  00010	e5901000	 ldr         r1, [r0]
  00014	e793310e	 ldr         r3, [r3, +lr, lsl #2]
  00018	e59f0008	 ldr         r0, [pc, #8]
  0001c	eb000000	 bl          LogMsg

; 273  : }

  00020	e49de004	 ldr         lr, [sp], #4
  00024	e12fff1e	 bx          lr
  00028		 |$LN6@LogCSSDTes|
  00028		 |$LN7@LogCSSDTes|
  00028	00000000	 DCD         |??_C@_1CO@PHJPOGIH@?$AAC?$AAS?$AAS?$AAD?$AA?5?$AAT?$AAe?$AAs?$AAt?$AA?3?$AA?5?$AA?$CF?$AAs?$AA?0?$AA?5?$AA?$CF?$AAs?$AA?0?$AA?0?$AA?5?$AA?$CF?$AAs?$AA?$AA@|
  0002c		 |$LN8@LogCSSDTes|
  0002c	00000000	 DCD         |g_CSSDTestResults|
  00030		 |$M32711|

			 ENDP  ; |LogCSSDTestResult|

	EXPORT	|__$ArrayPad$| [ DATA ]
	EXPORT	|LogCleanup|
	EXPORT	|??_C@_1BG@GDLPJODK@?$AA?$EA?$AA?$EA?$AA?$EA?$AA?$EA?$AA?$EA?$AA?$EA?$AA?$CF?$AAd?$AA?$AN?$AA?6?$AA?$AA@| [ DATA ] ; `string'
	EXPORT	|??_C@_1O@GAOACLOB@?$AAP?$AAA?$AAS?$AAS?$AAE?$AAD?$AA?$AA@| [ DATA ] ; `string'
	EXPORT	|??_C@_1O@GLIHGOJN@?$AAF?$AAA?$AAI?$AAL?$AAE?$AAD?$AA?$AA@| [ DATA ] ; `string'
	EXPORT	|??_C@_11LOCGONAA@?$AA?$AA@| [ DATA ]	; `string'
	IMPORT	|DeleteCriticalSection|
	IMPORT	|__GSHandlerCheck|
	IMPORT	|__security_cookie|
	IMPORT	|memset|
	IMPORT	|__security_check_cookie|

  00000			 AREA	 |.pdata|, PDATA
|$T32747| DCD	|$LN16@LogCleanup|
	DCD	0xc0005202

  00000			 AREA	 |.xdata|, DATA
|$T32743| DCD	0xffffffdc

  00000			 AREA	 |.rdata|, DATA, READONLY
|??_C@_1BG@GDLPJODK@?$AA?$EA?$AA?$EA?$AA?$EA?$AA?$EA?$AA?$EA?$AA?$EA?$AA?$CF?$AAd?$AA?$AN?$AA?6?$AA?$AA@| DCB "@"
	DCB	0x0, "@", 0x0, "@", 0x0, "@", 0x0, "@", 0x0, "@", 0x0, "%"
	DCB	0x0, "d", 0x0, 0xd, 0x0, 0xa, 0x0, 0x0, 0x0 ; `string'

  00000			 AREA	 |.rdata|, DATA, READONLY
|??_C@_1O@GAOACLOB@?$AAP?$AAA?$AAS?$AAS?$AAE?$AAD?$AA?$AA@| DCB "P", 0x0, "A"
	DCB	0x0, "S", 0x0, "S", 0x0, "E", 0x0, "D", 0x0, 0x0, 0x0 ; `string'

  00000			 AREA	 |.rdata|, DATA, READONLY
|??_C@_1O@GLIHGOJN@?$AAF?$AAA?$AAI?$AAL?$AAE?$AAD?$AA?$AA@| DCB "F", 0x0, "A"
	DCB	0x0, "I", 0x0, "L", 0x0, "E", 0x0, "D", 0x0, 0x0, 0x0 ; `string'

  00000			 AREA	 |.rdata|, DATA, READONLY
|??_C@_11LOCGONAA@?$AA?$AA@| DCB 0x0, 0x0		; `string'
; Function compile flags: /Ogspy

  00000			 AREA	 |.text|, CODE, ARM

  00000	00000000	 DCD         |__GSHandlerCheck|
  00004	00000000	 DCD         |$T32743|

  00008		 |LogCleanup| PROC

; 91   : {

  00008		 |$LN16@LogCleanup|
  00008	e92d47f0	 stmdb       sp!, {r4 - r10, lr}
  0000c	e24dd060	 sub         sp, sp, #0x60
  00010		 |$M32744|
  00010	e59f3134	 ldr         r3, [pc, #0x134]
  00014	e5933000	 ldr         r3, [r3]
  00018	e58d305c	 str         r3, [sp, #0x5C]

; 92   :    DWORD dwTime, dw;
; 93   :    UINT uiHours, uiMinutes, uiSeconds;
; 94   :    TCHAR szBuffer[41] = _T("");

  0001c	e3a03000	 mov         r3, #0
  00020	e3a02050	 mov         r2, #0x50
  00024	e3a01000	 mov         r1, #0
  00028	e28d000a	 add         r0, sp, #0xA
  0002c	e1cd30b8	 strh        r3, [sp, #8]
  00030	eb000000	 bl          memset

; 95   : 
; 96   :    ASSERT(g_LogInfo.m_bStartup);
; 97   :    
; 98   :    EnterCriticalSection(&g_LogInfo.m_cs);

  00034	e59fa10c	 ldr         r10, [pc, #0x10C]
  00038	e28a3a01	 add         r3, r10, #1, 20
  0003c	e2830024	 add         r0, r3, #0x24
  00040	eb000000	 bl          EnterCriticalSection

; 99   : 
; 100  :    if (g_LogInfo.m_bWATTOutput) {

  00044	e59a3004	 ldr         r3, [r10, #4]
  00048	e3530000	 cmp         r3, #0
  0004c	0a000029	 beq         |$LN1@LogCleanup|

; 101  :       dw = dwTime = GetTickCount() - g_LogInfo.m_dwStartTick;

  00050	eb000000	 bl          GetTickCount
  00054	e59a200c	 ldr         r2, [r10, #0xC]

; 102  :       uiHours = dw / MILLISEC_PER_HOUR;

  00058	e59f30e4	 ldr         r3, [pc, #0xE4]
  0005c	e3a019db	 mov         r1, #0xDB, 18
  00060	e0409002	 sub         r9, r0, r2
  00064	e0838399	 umull       r8, r3, r9, r3

; 103  :       dw -= uiHours * MILLISEC_PER_HOUR;
; 104  :       uiMinutes = dw / MILLISEC_PER_MINUTE;

  00068	e3a00cea	 mov         r0, #0xEA, 24
  0006c	e1a02aa3	 mov         r2, r3, lsr #21
  00070	e3813dba	 orr         r3, r1, #0xBA, 26
  00074	e0030392	 mul         r3, r2, r3
  00078	e59f10c0	 ldr         r1, [pc, #0xC0]

; 105  :       dw -= uiMinutes * MILLISEC_PER_MINUTE;
; 106  :       uiSeconds = dw / 1000;
; 107  : 
; 108  :       Log(LOG_PASS, _T(""), uiHours, uiMinutes, uiSeconds, dwTime);

  0007c	e58d9004	 str         r9, [sp, #4]
  00080	e0497003	 sub         r7, r9, r3
  00084	e0836197	 umull       r6, r3, r7, r1
  00088	e3801060	 orr         r1, r0, #0x60
  0008c	e1a03723	 mov         r3, r3, lsr #14
  00090	e0010193	 mul         r1, r3, r1
  00094	e59f00a0	 ldr         r0, [pc, #0xA0]
  00098	e0475001	 sub         r5, r7, r1
  0009c	e0814095	 umull       r4, r1, r5, r0
  000a0	e3a0000a	 mov         r0, #0xA
  000a4	e1a0e321	 mov         lr, r1, lsr #6
  000a8	e59f1080	 ldr         r1, [pc, #0x80]
  000ac	e58de000	 str         lr, [sp]
  000b0	eb000000	 bl          Log

; 109  :       Log(
; 110  :          LOG_PASS, _T(""), 
; 111  :          LogGetErrorCount() ? _T("FAILED") : _T("PASSED"), 
; 112  :          LogGetErrorCount(), LogGetWarningCount()
; 113  :       );

  000b4	e28a3a01	 add         r3, r10, #1, 20
  000b8	e5933018	 ldr         r3, [r3, #0x18]
  000bc	e28a4a01	 add         r4, r10, #1, 20
  000c0	e594001c	 ldr         r0, [r4, #0x1C]
  000c4	e3530000	 cmp         r3, #0
  000c8	159f2068	 ldrne       r2, [pc, #0x68]
  000cc	059f2060	 ldreq       r2, [pc, #0x60]
  000d0	e59f1058	 ldr         r1, [pc, #0x58]
  000d4	e58d0000	 str         r0, [sp]
  000d8	e3a0000a	 mov         r0, #0xA
  000dc	eb000000	 bl          Log

; 114  : 
; 115  :       wsprintf(szBuffer, _T("@@@@@@%d\r\n"), LogGetErrorCount());

  000e0	e5942018	 ldr         r2, [r4, #0x18]
  000e4	e59f1040	 ldr         r1, [pc, #0x40]
  000e8	e28d0008	 add         r0, sp, #8
  000ec	eb000000	 bl          wsprintfW

; 116  :       OutputDebugString(szBuffer);

  000f0	e28d0008	 add         r0, sp, #8
  000f4	eb000000	 bl          OutputDebugStringW
  000f8		 |$LN1@LogCleanup|

; 117  :    }
; 118  : 
; 119  :    g_LogInfo.m_bStartup = FALSE;
; 120  :    LeaveCriticalSection(&g_LogInfo.m_cs);        

  000f8	e28a3a01	 add         r3, r10, #1, 20
  000fc	e3a02000	 mov         r2, #0
  00100	e2830024	 add         r0, r3, #0x24
  00104	e58a2000	 str         r2, [r10]
  00108	eb000000	 bl          LeaveCriticalSection

; 121  :    DeleteCriticalSection(&g_LogInfo.m_cs);

  0010c	e28a3a01	 add         r3, r10, #1, 20
  00110	e2830024	 add         r0, r3, #0x24
  00114	eb000000	 bl          DeleteCriticalSection
  00118	e59d005c	 ldr         r0, [sp, #0x5C]
  0011c	eb000000	 bl          __security_check_cookie

; 122  : }

  00120	e28dd060	 add         sp, sp, #0x60
  00124	e8bd47f0	 ldmia       sp!, {r4 - r10, lr}
  00128	e12fff1e	 bx          lr
  0012c		 |$LN17@LogCleanup|
  0012c		 |$LN18@LogCleanup|
  0012c	00000000	 DCD         |??_C@_1BG@GDLPJODK@?$AA?$EA?$AA?$EA?$AA?$EA?$AA?$EA?$AA?$EA?$AA?$EA?$AA?$CF?$AAd?$AA?$AN?$AA?6?$AA?$AA@|
  00130		 |$LN19@LogCleanup|
  00130	00000000	 DCD         |??_C@_11LOCGONAA@?$AA?$AA@|
  00134		 |$LN20@LogCleanup|
  00134	00000000	 DCD         |??_C@_1O@GAOACLOB@?$AAP?$AAA?$AAS?$AAS?$AAE?$AAD?$AA?$AA@|
  00138		 |$LN21@LogCleanup|
  00138	00000000	 DCD         |??_C@_1O@GLIHGOJN@?$AAF?$AAA?$AAI?$AAL?$AAE?$AAD?$AA?$AA@|
  0013c		 |$LN22@LogCleanup|
  0013c	10624dd3	 DCD         0x10624dd3
  00140		 |$LN23@LogCleanup|
  00140	45e7b273	 DCD         0x45e7b273
  00144		 |$LN24@LogCleanup|
  00144	95217cb1	 DCD         0x95217cb1
  00148		 |$LN25@LogCleanup|
  00148	00000000	 DCD         |g_LogInfo|
  0014c		 |$LN26@LogCleanup|
  0014c	00000000	 DCD         |__security_cookie|
  00150		 |$M32745|

			 ENDP  ; |LogCleanup|

	END
