; Listing generated by Microsoft (R) Optimizing Compiler Version 14.01.60511.01 

	TTL	C:\WINCE600\PLATFORM\Z2170P\SRC\APP\SHELL\utils.cxx
	CODE32

  00000			 AREA	 |.drectve|, DRECTVE
	DCB	"-defaultlib:LIBCMT "
	DCB	"-defaultlib:OLDNAMES "

	EXPORT	|??_C@_1BI@EJBCNOLJ@?$AAE?$AAX?$AAT?$AA_?$AAS?$AAY?$AAS?$AA_?$AAC?$AAL?$AAK?$AA?$AA@| [ DATA ] ; `string'
	EXPORT	|??_C@_1CA@KPICPENJ@?$AAD?$AAP?$AAL?$AAL?$AA5?$AA_?$AAC?$AAL?$AAK?$AAO?$AAU?$AAT?$AA_?$AAM?$AA2?$AA?$AA@| [ DATA ] ; `string'
	EXPORT	|??_C@_1CE@JJENCAPI@?$AAD?$AAP?$AAL?$AAL?$AA4?$AA_?$AAC?$AAL?$AAK?$AAO?$AAU?$AAT?$AA_?$AAM?$AA6?$AAX?$AA2?$AA?$AA@| [ DATA ] ; `string'
	EXPORT	|??_C@_1CE@BHMCCHBL@?$AAD?$AAP?$AAL?$AAL?$AA4?$AA_?$AAC?$AAL?$AAK?$AAO?$AAU?$AAT?$AA_?$AAM?$AA5?$AAX?$AA2?$AA?$AA@| [ DATA ] ; `string'
	EXPORT	|??_C@_1CE@NLGICHIF@?$AAD?$AAP?$AAL?$AAL?$AA4?$AA_?$AAC?$AAL?$AAK?$AAO?$AAU?$AAT?$AA_?$AAM?$AA4?$AAX?$AA2?$AA?$AA@| [ DATA ] ; `string'
	EXPORT	|??_C@_1CE@NBKNCOJM@?$AAD?$AAP?$AAL?$AAL?$AA4?$AA_?$AAC?$AAL?$AAK?$AAO?$AAU?$AAT?$AA_?$AAM?$AA3?$AAX?$AA2?$AA?$AA@| [ DATA ] ; `string'
	EXPORT	|??_C@_1CE@BNAHCOAC@?$AAD?$AAP?$AAL?$AAL?$AA4?$AA_?$AAC?$AAL?$AAK?$AAO?$AAU?$AAT?$AA_?$AAM?$AA2?$AAX?$AA2?$AA?$AA@| [ DATA ] ; `string'
	EXPORT	|??_C@_1CE@NFKENNMP@?$AAD?$AAP?$AAL?$AAL?$AA3?$AA_?$AAC?$AAL?$AAK?$AAO?$AAU?$AAT?$AA_?$AAM?$AA3?$AAX?$AA2?$AA?$AA@| [ DATA ] ; `string'
	EXPORT	|??_C@_1CE@BJAONNFB@?$AAD?$AAP?$AAL?$AAL?$AA3?$AA_?$AAC?$AAL?$AAK?$AAO?$AAU?$AAT?$AA_?$AAM?$AA2?$AAX?$AA2?$AA?$AA@| [ DATA ] ; `string'
	EXPORT	|??_C@_1CA@BPLPKGIJ@?$AAD?$AAP?$AAL?$AAL?$AA3?$AA_?$AAC?$AAL?$AAK?$AAO?$AAU?$AAT?$AA_?$AAM?$AA2?$AA?$AA@| [ DATA ] ; `string'
	EXPORT	|??_C@_1CA@JOJKMDKO@?$AAD?$AAP?$AAL?$AAL?$AA2?$AA_?$AAC?$AAL?$AAK?$AAO?$AAU?$AAT?$AA_?$AAM?$AA2?$AA?$AA@| [ DATA ] ; `string'
	EXPORT	|??_C@_1CE@BKGFCHGL@?$AAD?$AAP?$AAL?$AAL?$AA1?$AA_?$AAC?$AAL?$AAK?$AAO?$AAU?$AAT?$AA_?$AAM?$AA2?$AAX?$AA2?$AA?$AA@| [ DATA ] ; `string'
	EXPORT	|??_C@_1BE@DMCNGCAK@?$AAE?$AAX?$AAT?$AA_?$AA3?$AA2?$AAK?$AAH?$AAZ?$AA?$AA@| [ DATA ] ; `string'
	EXPORT	|??_C@_1BC@DCGNMADO@?$AAD?$AAP?$AAL?$AAL?$AA_?$AAE?$AAX?$AAT?$AA?$AA@| [ DATA ] ; `string'
	EXPORT	|??_C@_1BC@NBGNPOOD@?$AAM?$AAM?$AAC?$AA_?$AAV?$AAD?$AAD?$AAS?$AA?$AA@| [ DATA ] ; `string'
	EXPORT	|??_C@_1BA@GOCMOCGM@?$AAV?$AAD?$AAD?$AA_?$AAE?$AAX?$AAT?$AA?$AA@| [ DATA ] ; `string'
	EXPORT	|??_C@_1M@KONPKJLO@?$AAU?$AAA?$AAR?$AAT?$AA4?$AA?$AA@| [ DATA ] ; `string'
	EXPORT	|??_C@_1BC@FOIAEGEP@?$AAU?$AAS?$AAB?$AAH?$AAO?$AAS?$AAT?$AA3?$AA?$AA@| [ DATA ] ; `string'
	EXPORT	|??_C@_1BC@OGDMCBCK@?$AAU?$AAS?$AAB?$AAH?$AAO?$AAS?$AAT?$AA2?$AA?$AA@| [ DATA ] ; `string'
	EXPORT	|??_C@_1BC@PEIJIOME@?$AAU?$AAS?$AAB?$AAH?$AAO?$AAS?$AAT?$AA1?$AA?$AA@| [ DATA ] ; `string'
	EXPORT	|??_C@_17FNJAMJCK@?$AAS?$AAG?$AAX?$AA?$AA@| [ DATA ] ; `string'
	EXPORT	|??_C@_15NIKFOEDF@?$AA3?$AAD?$AA?$AA@| [ DATA ] ; `string'
	EXPORT	|??_C@_15BDPJDHJA@?$AA2?$AAD?$AA?$AA@| [ DATA ] ; `string'
	EXPORT	|??_C@_17HGBNJJHK@?$AAD?$AAS?$AAP?$AA?$AA@| [ DATA ] ; `string'
	EXPORT	|??_C@_19MACELEIB@?$AAC?$AAS?$AAI?$AA2?$AA?$AA@| [ DATA ] ; `string'
	EXPORT	|??_C@_1O@NAINHJLA@?$AAC?$AAA?$AAM?$AAE?$AAR?$AAA?$AA?$AA@| [ DATA ] ; `string'
	EXPORT	|??_C@_1M@OHMMHPBM@?$AAT?$AAV?$AAO?$AAU?$AAT?$AA?$AA@| [ DATA ] ; `string'
	EXPORT	|??_C@_19IALFIOAF@?$AAD?$AAS?$AAS?$AA2?$AA?$AA@| [ DATA ] ; `string'
	EXPORT	|??_C@_19JCAACBOL@?$AAD?$AAS?$AAS?$AA1?$AA?$AA@| [ DATA ] ; `string'
	EXPORT	|??_C@_17GEKIDGJE@?$AAD?$AAS?$AAS?$AA?$AA@| [ DATA ] ; `string'
	EXPORT	|??_C@_19JPOLNLAB@?$AAW?$AAD?$AAT?$AA3?$AA?$AA@| [ DATA ] ; `string'
	EXPORT	|??_C@_1M@DDAIJBAH@?$AAU?$AAA?$AAR?$AAT?$AA3?$AA?$AA@| [ DATA ] ; `string'
	EXPORT	|??_C@_1BC@FOCPBFHL@?$AAG?$AAP?$AAT?$AAI?$AAM?$AAE?$AAR?$AA9?$AA?$AA@| [ DATA ] ; `string'
	EXPORT	|??_C@_1BC@OGJDHCBO@?$AAG?$AAP?$AAT?$AAI?$AAM?$AAE?$AAR?$AA8?$AA?$AA@| [ DATA ] ; `string'
	EXPORT	|??_C@_1BC@LOPAGCEI@?$AAG?$AAP?$AAT?$AAI?$AAM?$AAE?$AAR?$AA7?$AA?$AA@| [ DATA ] ; `string'
	EXPORT	|??_C@_1BC@GEMAFCN@?$AAG?$AAP?$AAT?$AAI?$AAM?$AAE?$AAR?$AA6?$AA?$AA@| [ DATA ] ; `string'
	EXPORT	|??_C@_1BC@BEPJKKMD@?$AAG?$AAP?$AAT?$AAI?$AAM?$AAE?$AAR?$AA5?$AA?$AA@| [ DATA ] ; `string'
	EXPORT	|??_C@_1BC@KMEFMNKG@?$AAG?$AAP?$AAT?$AAI?$AAM?$AAE?$AAR?$AA4?$AA?$AA@| [ DATA ] ; `string'
	EXPORT	|??_C@_1BC@DBJCPFBP@?$AAG?$AAP?$AAT?$AAI?$AAM?$AAE?$AAR?$AA3?$AA?$AA@| [ DATA ] ; `string'
	EXPORT	|??_C@_1BC@IJCOJCHK@?$AAG?$AAP?$AAT?$AAI?$AAM?$AAE?$AAR?$AA2?$AA?$AA@| [ DATA ] ; `string'
	EXPORT	|??_C@_1O@KNNLCACL@?$AAM?$AAC?$AAB?$AAS?$AAP?$AA4?$AA?$AA@| [ DATA ] ; `string'
	EXPORT	|??_C@_1O@DAAMBIJC@?$AAM?$AAC?$AAB?$AAS?$AAP?$AA3?$AA?$AA@| [ DATA ] ; `string'
	EXPORT	|??_C@_1O@IILAHPPH@?$AAM?$AAC?$AAB?$AAS?$AAP?$AA2?$AA?$AA@| [ DATA ] ; `string'
	EXPORT	|??_C@_1M@GEFJCHKF@?$AAG?$AAP?$AAI?$AAO?$AA6?$AA?$AA@| [ DATA ] ; `string'
	EXPORT	|??_C@_1M@HGOMIIEL@?$AAG?$AAP?$AAI?$AAO?$AA5?$AA?$AA@| [ DATA ] ; `string'
	EXPORT	|??_C@_1M@MOFAOPCO@?$AAG?$AAP?$AAI?$AAO?$AA4?$AA?$AA@| [ DATA ] ; `string'
	EXPORT	|??_C@_1M@FDIHNHJH@?$AAG?$AAP?$AAI?$AAO?$AA3?$AA?$AA@| [ DATA ] ; `string'
	EXPORT	|??_C@_1M@OLDLLAPC@?$AAG?$AAP?$AAI?$AAO?$AA2?$AA?$AA@| [ DATA ] ; `string'
	EXPORT	|??_C@_19NJMIPFOE@?$AAU?$AAS?$AAI?$AAM?$AA?$AA@| [ DATA ] ; `string'
	EXPORT	|??_C@_17FKBAENGF@?$AAS?$AAR?$AA2?$AA?$AA@| [ DATA ] ; `string'
	EXPORT	|??_C@_17EIKFOCIL@?$AAS?$AAR?$AA1?$AA?$AA@| [ DATA ] ; `string'
	EXPORT	|??_C@_1M@PJIOBPBM@?$AAG?$AAP?$AAI?$AAO?$AA1?$AA?$AA@| [ DATA ] ; `string'
	EXPORT	|??_C@_19CHFHLMGE@?$AAW?$AAD?$AAT?$AA2?$AA?$AA@| [ DATA ] ; `string'
	EXPORT	|??_C@_19DFOCBDIK@?$AAW?$AAD?$AAT?$AA1?$AA?$AA@| [ DATA ] ; `string'
	EXPORT	|??_C@_1BA@GEGEJPDF@?$AA3?$AA2?$AAK?$AAS?$AAY?$AAN?$AAC?$AA?$AA@| [ DATA ] ; `string'
	EXPORT	|??_C@_1BE@BHGHKILO@?$AAG?$AAP?$AAT?$AAI?$AAM?$AAE?$AAR?$AA1?$AA2?$AA?$AA@| [ DATA ] ; `string'
	EXPORT	|??_C@_1BC@JLJLDNJE@?$AAG?$AAP?$AAT?$AAI?$AAM?$AAE?$AAR?$AA1?$AA?$AA@| [ DATA ] ; `string'
	EXPORT	|??_C@_1O@DDNPEFEM@?$AAE?$AAF?$AAU?$AAL?$AAS?$AAE?$AA?$AA@| [ DATA ] ; `string'
	EXPORT	|??_C@_15JKLEPB@?$AAT?$AAS?$AA?$AA@| [ DATA ] ; `string'
	EXPORT	|??_C@_1O@CEHCKMAH@?$AAU?$AAS?$AAB?$AAT?$AAL?$AAL?$AA?$AA@| [ DATA ] ; `string'
	EXPORT	|??_C@_17IJMMBGKH@?$AAP?$AAK?$AAA?$AA?$AA@| [ DATA ] ; `string'
	EXPORT	|??_C@_19MOPNNCAD@?$AAA?$AAE?$AAS?$AA1?$AA?$AA@| [ DATA ] ; `string'
	EXPORT	|??_C@_17LOEPNPLF@?$AAR?$AAN?$AAG?$AA?$AA@| [ DATA ] ; `string'
	EXPORT	|??_C@_1M@CACEHPIH@?$AAS?$AAH?$AAA?$AA1?$AA1?$AA?$AA@| [ DATA ] ; `string'
	EXPORT	|??_C@_19CINEBJEH@?$AAD?$AAE?$AAS?$AA1?$AA?$AA@| [ DATA ] ; `string'
	EXPORT	|??_C@_17EEMHEGLL@?$AAI?$AAC?$AAR?$AA?$AA@| [ DATA ] ; `string'
	EXPORT	|??_C@_19NMEIHNON@?$AAA?$AAE?$AAS?$AA2?$AA?$AA@| [ DATA ] ; `string'
	EXPORT	|??_C@_1M@DCJBNAGJ@?$AAS?$AAH?$AAA?$AA1?$AA2?$AA?$AA@| [ DATA ] ; `string'
	EXPORT	|??_C@_19DKGBLGKJ@?$AAD?$AAE?$AAS?$AA2?$AA?$AA@| [ DATA ] ; `string'
	EXPORT	|??_C@_19KOPLODCI@?$AAM?$AAM?$AAC?$AA3?$AA?$AA@| [ DATA ] ; `string'
	EXPORT	|??_C@_19BGEHIEEN@?$AAM?$AAM?$AAC?$AA2?$AA?$AA@| [ DATA ] ; `string'
	EXPORT	|??_C@_19EPCCLKD@?$AAM?$AAM?$AAC?$AA1?$AA?$AA@| [ DATA ] ; `string'
	EXPORT	|??_C@_1M@KPNCKAJE@?$AAM?$AAS?$AAP?$AAR?$AAO?$AA?$AA@| [ DATA ] ; `string'
	EXPORT	|??_C@_17IHNNNJHD@?$AAH?$AAD?$AAQ?$AA?$AA@| [ DATA ] ; `string'
	EXPORT	|??_C@_1O@MPOBJOEN@?$AAM?$AAC?$AAS?$AAP?$AAI?$AA4?$AA?$AA@| [ DATA ] ; `string'
	EXPORT	|??_C@_1O@FCDGKGPE@?$AAM?$AAC?$AAS?$AAP?$AAI?$AA3?$AA?$AA@| [ DATA ] ; `string'
	EXPORT	|??_C@_1O@OKIKMBJB@?$AAM?$AAC?$AAS?$AAP?$AAI?$AA2?$AA?$AA@| [ DATA ] ; `string'
	EXPORT	|??_C@_1O@PIDPGOHP@?$AAM?$AAC?$AAS?$AAP?$AAI?$AA1?$AA?$AA@| [ DATA ] ; `string'
	EXPORT	|??_C@_19NCGAMAGO@?$AAI?$AA2?$AAC?$AA3?$AA?$AA@| [ DATA ] ; `string'
	EXPORT	|??_C@_19GKNMKHAL@?$AAI?$AA2?$AAC?$AA2?$AA?$AA@| [ DATA ] ; `string'
	EXPORT	|??_C@_19HIGJAIOF@?$AAI?$AA2?$AAC?$AA1?$AA?$AA@| [ DATA ] ; `string'
	EXPORT	|??_C@_1M@ILLEPGGC@?$AAU?$AAA?$AAR?$AAT?$AA2?$AA?$AA@| [ DATA ] ; `string'
	EXPORT	|??_C@_1M@JJABFJIM@?$AAU?$AAA?$AAR?$AAT?$AA1?$AA?$AA@| [ DATA ] ; `string'
	EXPORT	|??_C@_1BE@FNCAHFA@?$AAG?$AAP?$AAT?$AAI?$AAM?$AAE?$AAR?$AA1?$AA1?$AA?$AA@| [ DATA ] ; `string'
	EXPORT	|??_C@_1BE@LNGOGADF@?$AAG?$AAP?$AAT?$AAI?$AAM?$AAE?$AAR?$AA1?$AA0?$AA?$AA@| [ DATA ] ; `string'
	EXPORT	|??_C@_1O@BFGHEHEO@?$AAM?$AAC?$AAB?$AAS?$AAP?$AA5?$AA?$AA@| [ DATA ] ; `string'
	EXPORT	|??_C@_1O@JKAFNABJ@?$AAM?$AAC?$AAB?$AAS?$AAP?$AA1?$AA?$AA@| [ DATA ] ; `string'
	EXPORT	|??_C@_1BE@NBCDMBC@?$AAM?$AAA?$AAI?$AAL?$AAB?$AAO?$AAX?$AAE?$AAS?$AA?$AA@| [ DATA ] ; `string'
	EXPORT	|??_C@_1BC@CHIKBDHE@?$AAO?$AAM?$AAA?$AAP?$AAC?$AAT?$AAR?$AAL?$AA?$AA@| [ DATA ] ; `string'
	EXPORT	|??_C@_1BC@CGFOLLKI@?$AAH?$AAS?$AAO?$AAT?$AAG?$AAU?$AAS?$AAB?$AA?$AA@| [ DATA ] ; `string'
	EXPORT	|??_C@_17GKMOIFEN@?$AAD?$AA2?$AAD?$AA?$AA@| [ DATA ] ; `string'
	EXPORT	|??_C@_19CLGGDIPK@?$AAS?$AAD?$AAR?$AAC?$AA?$AA@| [ DATA ] ; `string'
	EXPORT	|??_C@_17CNHCLJFN@?$AAS?$AAS?$AAI?$AA?$AA@| [ DATA ] ; `string'
	EXPORT	|??_C@_1BA@HCPGGPNM@?$AAV?$AAD?$AAD?$AAA?$AAD?$AAA?$AAC?$AA?$AA@| [ DATA ] ; `string'
	EXPORT	|??_C@_1O@KJMHPDBC@?$AAV?$AAD?$AAD?$AAP?$AAL?$AAL?$AA?$AA@| [ DATA ] ; `string'
	EXPORT	|??_C@_19EINJEFKH@?$AAV?$AAD?$AAD?$AAS?$AA?$AA@| [ DATA ] ; `string'
	EXPORT	|??_C@_19FGJEONHI@?$AAV?$AAD?$AAD?$AA5?$AA?$AA@| [ DATA ] ; `string'
	EXPORT	|??_C@_19OOCIIKBN@?$AAV?$AAD?$AAD?$AA4?$AA?$AA@| [ DATA ] ; `string'
	EXPORT	|??_C@_19HDPPLCKE@?$AAV?$AAD?$AAD?$AA3?$AA?$AA@| [ DATA ] ; `string'
	EXPORT	|??_C@_19MLEDNFMB@?$AAV?$AAD?$AAD?$AA2?$AA?$AA@| [ DATA ] ; `string'
	EXPORT	|??_C@_19NJPGHKCP@?$AAV?$AAD?$AAD?$AA1?$AA?$AA@| [ DATA ] ; `string'
	EXPORT	|??_C@_1M@MPAGCGHB@?$AAD?$AAP?$AAL?$AAL?$AA5?$AA?$AA@| [ DATA ] ; `string'
	EXPORT	|??_C@_1M@HHLKEBBE@?$AAD?$AAP?$AAL?$AAL?$AA4?$AA?$AA@| [ DATA ] ; `string'
	EXPORT	|??_C@_1M@OKGNHJKN@?$AAD?$AAP?$AAL?$AAL?$AA3?$AA?$AA@| [ DATA ] ; `string'
	EXPORT	|??_C@_1M@FCNBBOMI@?$AAD?$AAP?$AAL?$AAL?$AA2?$AA?$AA@| [ DATA ] ; `string'
	EXPORT	|??_C@_1M@EAGELBCG@?$AAD?$AAP?$AAL?$AAL?$AA1?$AA?$AA@| [ DATA ] ; `string'
	EXPORT	|??_C@_1BC@KMFBFJEN@?$AAE?$AAx?$AAt?$AAe?$AAr?$AAn?$AAa?$AAl?$AA?$AA@| [ DATA ] ; `string'
	EXPORT	|??_C@_1BA@OOAHAPIC@?$AAI?$AAN?$AAT?$AA_?$AAO?$AAS?$AAC?$AA?$AA@| [ DATA ] ; `string'
	EXPORT	|??_C@_1BC@FDLMCPLJ@?$AAE?$AAX?$AAT?$AA_?$AAM?$AAI?$AAS?$AAC?$AA?$AA@| [ DATA ] ; `string'
	EXPORT	|??_C@_1BA@PNJBGGMK@?$AAE?$AAX?$AAT?$AA_?$AAA?$AAL?$AAT?$AA?$AA@| [ DATA ] ; `string'
	EXPORT	|??_C@_1BI@NEMFOGAA@?$AAE?$AAX?$AAT?$AA_?$AAS?$AAY?$AAS?$AA_?$AAC?$AAL?$AAL?$AA?$AA@| [ DATA ] ; `string'
	EXPORT	|??_C@_1CA@FCHLAMKM@?$AAD?$AAP?$AAL?$AAL?$AA5?$AA_?$AAC?$AAL?$AAL?$AAO?$AAU?$AAT?$AA_?$AAM?$AA2?$AA?$AA@| [ DATA ] ; `string'
	EXPORT	|??_C@_1CE@HIAJIGGL@?$AAD?$AAP?$AAL?$AAL?$AA4?$AA_?$AAC?$AAL?$AAL?$AAO?$AAU?$AAT?$AA_?$AAM?$AA6?$AAX?$AA2?$AA?$AA@| [ DATA ] ; `string'
	EXPORT	|??_C@_1CE@PGIGIBII@?$AAD?$AAP?$AAL?$AAL?$AA4?$AA_?$AAC?$AAL?$AAL?$AAO?$AAU?$AAT?$AA_?$AAM?$AA5?$AAX?$AA2?$AA?$AA@| [ DATA ] ; `string'
	EXPORT	|??_C@_1CE@DKCMIBBG@?$AAD?$AAP?$AAL?$AAL?$AA4?$AA_?$AAC?$AAL?$AAL?$AAO?$AAU?$AAT?$AA_?$AAM?$AA4?$AAX?$AA2?$AA?$AA@| [ DATA ] ; `string'
	EXPORT	|??_C@_1CE@DAOJIIAP@?$AAD?$AAP?$AAL?$AAL?$AA4?$AA_?$AAC?$AAL?$AAL?$AAO?$AAU?$AAT?$AA_?$AAM?$AA3?$AAX?$AA2?$AA?$AA@| [ DATA ] ; `string'
	EXPORT	|??_C@_1CE@PMEDIIJB@?$AAD?$AAP?$AAL?$AAL?$AA4?$AA_?$AAC?$AAL?$AAL?$AAO?$AAU?$AAT?$AA_?$AAM?$AA2?$AAX?$AA2?$AA?$AA@| [ DATA ] ; `string'
	EXPORT	|??_C@_1CE@DEOAHLFM@?$AAD?$AAP?$AAL?$AAL?$AA3?$AA_?$AAC?$AAL?$AAL?$AAO?$AAU?$AAT?$AA_?$AAM?$AA3?$AAX?$AA2?$AA?$AA@| [ DATA ] ; `string'
	EXPORT	|??_C@_1CE@PIEKHLMC@?$AAD?$AAP?$AAL?$AAL?$AA3?$AA_?$AAC?$AAL?$AAL?$AAO?$AAU?$AAT?$AA_?$AAM?$AA2?$AAX?$AA2?$AA?$AA@| [ DATA ] ; `string'
	EXPORT	|??_C@_1CA@OCEGFOPM@?$AAD?$AAP?$AAL?$AAL?$AA3?$AA_?$AAC?$AAL?$AAL?$AAO?$AAU?$AAT?$AA_?$AAM?$AA2?$AA?$AA@| [ DATA ] ; `string'
	EXPORT	|??_C@_1CA@GDGDDLNL@?$AAD?$AAP?$AAL?$AAL?$AA2?$AA_?$AAC?$AAL?$AAL?$AAO?$AAU?$AAT?$AA_?$AAM?$AA2?$AA?$AA@| [ DATA ] ; `string'
	EXPORT	|??_C@_1CE@PLCBIBPI@?$AAD?$AAP?$AAL?$AAL?$AA1?$AA_?$AAC?$AAL?$AAL?$AAO?$AAU?$AAT?$AA_?$AAM?$AA2?$AAX?$AA2?$AA?$AA@| [ DATA ] ; `string'
	EXPORT	|??_C@_1BE@DGOIGLBD@?$AAE?$AAX?$AAT?$AA_?$AA3?$AA2?$AAL?$AAH?$AAZ?$AA?$AA@| [ DATA ] ; `string'
	EXPORT	|??_C@_1BG@JFIGLANK@?$AAG?$AAP?$AAT?$AA1?$AA1?$AA_?$AAF?$AAC?$AAL?$AAK?$AA?$AA@| [ DATA ] ; `string'
	EXPORT	|??_C@_1BG@IIJFBKM@?$AAG?$AAP?$AAT?$AA1?$AA0?$AA_?$AAF?$AAC?$AAL?$AAK?$AA?$AA@| [ DATA ] ; `string'
	EXPORT	|??_C@_1CA@DEAGOIIH@?$AAG?$AAP?$AAT?$AA9?$AA_?$AAA?$AAL?$AAW?$AAO?$AAN?$AA_?$AAF?$AAC?$AAL?$AAK?$AA?$AA@| [ DATA ] ; `string'
	EXPORT	|??_C@_1CA@NDBLEOBA@?$AAG?$AAP?$AAT?$AA8?$AA_?$AAA?$AAL?$AAW?$AAO?$AAN?$AA_?$AAF?$AAC?$AAL?$AAK?$AA?$AA@| [ DATA ] ; `string'
	EXPORT	|??_C@_1CA@FOPBBIIK@?$AAG?$AAP?$AAT?$AA7?$AA_?$AAA?$AAL?$AAW?$AAO?$AAN?$AA_?$AAF?$AAC?$AAL?$AAK?$AA?$AA@| [ DATA ] ; `string'
	EXPORT	|??_C@_1CA@LJOMLOBN@?$AAG?$AAP?$AAT?$AA6?$AA_?$AAA?$AAL?$AAW?$AAO?$AAN?$AA_?$AAF?$AAC?$AAL?$AAK?$AA?$AA@| [ DATA ] ; `string'
	EXPORT	|??_C@_1CA@ELLLFDOF@?$AAG?$AAP?$AAT?$AA5?$AA_?$AAA?$AAL?$AAW?$AAO?$AAN?$AA_?$AAF?$AAC?$AAL?$AAK?$AA?$AA@| [ DATA ] ; `string'
	EXPORT	|??_C@_1CA@KMKGPFHC@?$AAG?$AAP?$AAT?$AA4?$AA_?$AAA?$AAL?$AAW?$AAO?$AAN?$AA_?$AAF?$AAC?$AAL?$AAK?$AA?$AA@| [ DATA ] ; `string'
	EXPORT	|??_C@_1CA@HEGFIOFE@?$AAG?$AAP?$AAT?$AA3?$AA_?$AAA?$AAL?$AAW?$AAO?$AAN?$AA_?$AAF?$AAC?$AAL?$AAK?$AA?$AA@| [ DATA ] ; `string'
	EXPORT	|??_C@_1CA@JDHICIMD@?$AAG?$AAP?$AAT?$AA2?$AA_?$AAA?$AAL?$AAW?$AAO?$AAN?$AA_?$AAF?$AAC?$AAL?$AAK?$AA?$AA@| [ DATA ] ; `string'
	EXPORT	|??_C@_1BE@NENPANBB@?$AAG?$AAP?$AAT?$AA1?$AA_?$AAF?$AAC?$AAL?$AAK?$AA?$AA@| [ DATA ] ; `string'
	EXPORT	|??_C@_1BC@GPEPHIDD@?$AAS?$AAG?$AAX?$AA_?$AAF?$AAC?$AAL?$AAK?$AA?$AA@| [ DATA ] ; `string'
	EXPORT	|??_C@_1BC@JCEHFJAM@?$AA5?$AA4?$AAM?$AA_?$AAF?$AAC?$AAL?$AAK?$AA?$AA@| [ DATA ] ; `string'
	EXPORT	|??_C@_1BC@NKDHDMCF@?$AA4?$AA8?$AAM?$AA_?$AAF?$AAC?$AAL?$AAK?$AA?$AA@| [ DATA ] ; `string'
	EXPORT	|??_C@_1BC@JBOAFGF@?$AA9?$AA6?$AAM?$AA_?$AAF?$AAC?$AAL?$AAK?$AA?$AA@| [ DATA ] ; `string'
	EXPORT	|??_C@_1BE@DLKGFDHF@?$AAU?$AAS?$AAI?$AAM?$AA_?$AAF?$AAC?$AAL?$AAK?$AA?$AA@| [ DATA ] ; `string'
	EXPORT	|??_C@_1BI@LIDNGNBB@?$AAC?$AAM?$AA_?$AAU?$AAS?$AAI?$AAM?$AA_?$AAC?$AAL?$AAK?$AA?$AA@| [ DATA ] ; `string'
	EXPORT	|??_C@_1CE@IOEFPMHG@?$AAU?$AAS?$AAB?$AAH?$AAO?$AAS?$AAT?$AA_?$AA1?$AA2?$AA0?$AAM?$AA_?$AAF?$AAC?$AAL?$AAK?$AA?$AA@| [ DATA ] ; `string'
	EXPORT	|??_C@_1BI@NMJEDNGN@?$AAD?$AAS?$AAS?$AA_?$AAT?$AAV?$AA_?$AAF?$AAC?$AAL?$AAK?$AA?$AA@| [ DATA ] ; `string'
	EXPORT	|??_C@_1BM@KDGOMIAG@?$AAC?$AAO?$AAR?$AAE?$AA_?$AA1?$AA2?$AAM?$AA_?$AAF?$AAC?$AAL?$AAK?$AA?$AA@| [ DATA ] ; `string'
	EXPORT	|??_C@_1BC@MKHOOHOO@?$AA1?$AA2?$AAM?$AA_?$AAF?$AAC?$AAL?$AAK?$AA?$AA@| [ DATA ] ; `string'
	EXPORT	|??_C@_1BK@FGPPKLNI@?$AAP?$AAE?$AAR?$AA_?$AA4?$AA8?$AAM?$AA_?$AAF?$AAC?$AAL?$AAK?$AA?$AA@| [ DATA ] ; `string'
	EXPORT	|??_C@_1CC@IGGLCLAN@?$AAU?$AAS?$AAB?$AAH?$AAO?$AAS?$AAT?$AA_?$AA4?$AA8?$AAM?$AA_?$AAF?$AAC?$AAL?$AAK?$AA?$AA@| [ DATA ] ; `string'
	EXPORT	|??_C@_1BM@LDCHBDMN@?$AAC?$AAO?$AAR?$AAE?$AA_?$AA4?$AA8?$AAM?$AA_?$AAF?$AAC?$AAL?$AAK?$AA?$AA@| [ DATA ] ; `string'
	EXPORT	|??_C@_1BM@MOGGOFDJ@?$AAC?$AAS?$AAI?$AA2?$AA_?$AA9?$AA6?$AAM?$AA_?$AAF?$AAC?$AAL?$AAK?$AA?$AA@| [ DATA ] ; `string'
	EXPORT	|??_C@_1BK@NNGOBGJD@?$AAD?$AAS?$AAS?$AA_?$AA9?$AA6?$AAM?$AA_?$AAF?$AAC?$AAL?$AAK?$AA?$AA@| [ DATA ] ; `string'
	EXPORT	|??_C@_1BM@GAAOCKIN@?$AAC?$AAO?$AAR?$AAE?$AA_?$AA9?$AA6?$AAM?$AA_?$AAF?$AAC?$AAL?$AAK?$AA?$AA@| [ DATA ] ; `string'
	EXPORT	|??_C@_1BK@OPKJANGO@?$AAS?$AAS?$AAI?$AA_?$AAS?$AAS?$AAT?$AA_?$AAF?$AAC?$AAL?$AAK?$AA?$AA@| [ DATA ] ; `string'
	EXPORT	|??_C@_1BK@BHGLEGNI@?$AAS?$AAS?$AAI?$AA_?$AAS?$AAS?$AAR?$AA_?$AAF?$AAC?$AAL?$AAK?$AA?$AA@| [ DATA ] ; `string'
	EXPORT	|??_C@_1BG@PEENKINJ@?$AAS?$AAR?$AA_?$AAL?$AA4?$AA_?$AAI?$AAC?$AAL?$AAK?$AA?$AA@| [ DATA ] ; `string'
	EXPORT	|??_C@_1BI@HNBEEGFA@?$AAP?$AAE?$AAR?$AA_?$AAL?$AA4?$AA_?$AAI?$AAC?$AAL?$AAK?$AA?$AA@| [ DATA ] ; `string'
	EXPORT	|??_C@_1CA@DPIDPCEG@?$AAU?$AAS?$AAB?$AAH?$AAO?$AAS?$AAT?$AA_?$AAL?$AA4?$AA_?$AAI?$AAC?$AAL?$AAK?$AA?$AA@| [ DATA ] ; `string'
	EXPORT	|??_C@_1CA@FKEOFIIG@?$AAU?$AAS?$AAB?$AAH?$AAO?$AAS?$AAT?$AA_?$AAL?$AA3?$AA_?$AAI?$AAC?$AAL?$AAK?$AA?$AA@| [ DATA ] ; `string'
	EXPORT	|??_C@_1BI@JKJJNIEB@?$AAC?$AAA?$AAM?$AA_?$AAL?$AA4?$AA_?$AAI?$AAC?$AAL?$AAK?$AA?$AA@| [ DATA ] ; `string'
	EXPORT	|??_C@_1BI@PPFEHCIB@?$AAC?$AAA?$AAM?$AA_?$AAL?$AA3?$AA_?$AAI?$AAC?$AAL?$AAK?$AA?$AA@| [ DATA ] ; `string'
	EXPORT	|??_C@_1BI@NFBIIMLF@?$AAD?$AAS?$AAS?$AA_?$AAL?$AA4?$AA_?$AAI?$AAC?$AAL?$AAK?$AA?$AA@| [ DATA ] ; `string'
	EXPORT	|??_C@_1BI@LANFCGHF@?$AAD?$AAS?$AAS?$AA_?$AAL?$AA3?$AA_?$AAI?$AAC?$AAL?$AAK?$AA?$AA@| [ DATA ] ; `string'
	EXPORT	|??_C@_1BI@CMLIMPOE@?$AAS?$AAS?$AAI?$AA_?$AAL?$AA4?$AA_?$AAI?$AAC?$AAL?$AAK?$AA?$AA@| [ DATA ] ; `string'
	EXPORT	|??_C@_1BI@DJICCMAG@?$AAS?$AAG?$AAX?$AA_?$AAL?$AA3?$AA_?$AAI?$AAC?$AAL?$AAK?$AA?$AA@| [ DATA ] ; `string'
	EXPORT	|??_C@_1CE@CGIFCMMB@?$AAS?$AAE?$AAC?$AAU?$AAR?$AAI?$AAT?$AAY?$AA_?$AAL?$AA4?$AA_?$AAI?$AAC?$AAL?$AAK?$AA2?$AA?$AA@| [ DATA ] ; `string'
	EXPORT	|??_C@_1CE@DEDAIDCP@?$AAS?$AAE?$AAC?$AAU?$AAR?$AAI?$AAT?$AAY?$AA_?$AAL?$AA4?$AA_?$AAI?$AAC?$AAL?$AAK?$AA1?$AA?$AA@| [ DATA ] ; `string'
	EXPORT	|??_C@_1CC@CHLKMKAK@?$AAS?$AAE?$AAC?$AAU?$AAR?$AAI?$AAT?$AAY?$AA_?$AAL?$AA3?$AA_?$AAI?$AAC?$AAL?$AAK?$AA?$AA@| [ DATA ] ; `string'
	EXPORT	|??_C@_1BK@BGGGLFNK@?$AAC?$AAO?$AAR?$AAE?$AA_?$AAL?$AA4?$AA_?$AAI?$AAC?$AAL?$AAK?$AA?$AA@| [ DATA ] ; `string'
	EXPORT	|??_C@_1BK@HDKLBPBK@?$AAC?$AAO?$AAR?$AAE?$AA_?$AAL?$AA3?$AA_?$AAI?$AAC?$AAL?$AAK?$AA?$AA@| [ DATA ] ; `string'
	EXPORT	|??_C@_1BG@DPEBDLBF@?$AAD?$AAP?$AAL?$AAL?$AA2?$AA_?$AAF?$AAC?$AAL?$AAK?$AA?$AA@| [ DATA ] ; `string'
	EXPORT	|??_C@_1BG@EDCABOMO@?$AAD?$AAP?$AAL?$AAL?$AA1?$AA_?$AAF?$AAC?$AAL?$AAK?$AA?$AA@| [ DATA ] ; `string'
	EXPORT	|??_C@_1BA@BFCDOHDF@?$AAR?$AAM?$AA_?$AAI?$AAC?$AAL?$AAK?$AA?$AA@| [ DATA ] ; `string'
	EXPORT	|??_C@_1BI@KOPHAGMM@?$AAU?$AAS?$AAB?$AA_?$AAL?$AA4?$AA_?$AAI?$AAC?$AAL?$AAK?$AA?$AA@| [ DATA ] ; `string'
	EXPORT	|??_C@_1BA@JHLPGDAF@?$AAL?$AA4?$AA_?$AAI?$AAC?$AAL?$AAK?$AA?$AA@| [ DATA ] ; `string'
	EXPORT	|??_C@_1BA@PCHCMJMF@?$AAL?$AA3?$AA_?$AAI?$AAC?$AAL?$AAK?$AA?$AA@| [ DATA ] ; `string'
	EXPORT	|??_C@_1BO@IOJFFNAE@?$AA9?$AA6?$AAM?$AA_?$AAA?$AAL?$AAW?$AAO?$AAN?$AA_?$AAF?$AAC?$AAL?$AAK?$AA?$AA@| [ DATA ] ; `string'
	EXPORT	|??_C@_1BI@CCCDNKIA@?$AAC?$AAM?$AA_?$AA9?$AA6?$AAM?$AA_?$AAF?$AAC?$AAL?$AAK?$AA?$AA@| [ DATA ] ; `string'
	EXPORT	|??_C@_1BO@GNLNKGOK@?$AAC?$AAO?$AAR?$AAE?$AA_?$AA1?$AA2?$AA0?$AAM?$AA_?$AAF?$AAC?$AAL?$AAK?$AA?$AA@| [ DATA ] ; `string'
	EXPORT	|??_C@_1CG@DGCMBKPD@?$AAP?$AAE?$AAR?$AA_?$AA3?$AA2?$AAK?$AA_?$AAA?$AAL?$AAW?$AAO?$AAN?$AA_?$AAF?$AAC?$AAL?$AAK?$AA?$AA@| [ DATA ] ; `string'
	EXPORT	|??_C@_1BM@LKACNBLP@?$AAW?$AAK?$AAU?$AAP?$AA_?$AA3?$AA2?$AAK?$AA_?$AAF?$AAC?$AAL?$AAK?$AA?$AA@| [ DATA ] ; `string'
	EXPORT	|??_C@_1BM@FOHIOIDD@?$AAC?$AAO?$AAR?$AAE?$AA_?$AA3?$AA2?$AAK?$AA_?$AAF?$AAC?$AAL?$AAK?$AA?$AA@| [ DATA ] ; `string'
	EXPORT	|??_C@_1BG@ENADIBCF@?$AAC?$AAM?$AA_?$AA3?$AA2?$AAK?$AA_?$AAC?$AAL?$AAK?$AA?$AA@| [ DATA ] ; `string'
	EXPORT	|??_C@_1BK@FBDDKDFJ@?$AAW?$AAK?$AAU?$AAP?$AA_?$AAL?$AA4?$AA_?$AAI?$AAC?$AAL?$AAK?$AA?$AA@| [ DATA ] ; `string'
	EXPORT	|??_C@_1CA@BKMPPGDH@?$AAD?$AAS?$AAS?$AA2?$AA_?$AAA?$AAL?$AAW?$AAO?$AAN?$AA_?$AAF?$AAC?$AAL?$AAK?$AA?$AA@| [ DATA ] ; `string'
	EXPORT	|??_C@_1BG@LNLDCDGE@?$AAC?$AAM?$AA_?$AAS?$AAY?$AAS?$AA_?$AAC?$AAL?$AAK?$AA?$AA@| [ DATA ] ; `string'
	EXPORT	|??_C@_1CC@BNDEKDFB@?$AAD?$AAP?$AAL?$AAL?$AA5?$AA_?$AAA?$AAL?$AAW?$AAO?$AAN?$AA_?$AAF?$AAC?$AAL?$AAK?$AA?$AA@| [ DATA ] ; `string'
	EXPORT	|??_C@_1CC@PKCJAFMG@?$AAD?$AAP?$AAL?$AAL?$AA4?$AA_?$AAA?$AAL?$AAW?$AAO?$AAN?$AA_?$AAF?$AAC?$AAL?$AAK?$AA?$AA@| [ DATA ] ; `string'
	EXPORT	|??_C@_1CC@CCOKHOOA@?$AAD?$AAP?$AAL?$AAL?$AA3?$AA_?$AAA?$AAL?$AAW?$AAO?$AAN?$AA_?$AAF?$AAC?$AAL?$AAK?$AA?$AA@| [ DATA ] ; `string'
	EXPORT	|??_C@_1CC@MFPHNIHH@?$AAD?$AAP?$AAL?$AAL?$AA2?$AA_?$AAA?$AAL?$AAW?$AAO?$AAN?$AA_?$AAF?$AAC?$AAL?$AAK?$AA?$AA@| [ DATA ] ; `string'
	EXPORT	|??_C@_1CC@DHKADFIP@?$AAD?$AAP?$AAL?$AAL?$AA1?$AA_?$AAA?$AAL?$AAW?$AAO?$AAN?$AA_?$AAF?$AAC?$AAL?$AAK?$AA?$AA@| [ DATA ] ; `string'
	EXPORT	|??_C@_1BM@OANJENDM@?$AAS?$AAR?$AA_?$AAA?$AAL?$AAW?$AAO?$AAN?$AA_?$AAF?$AAC?$AAL?$AAK?$AA?$AA@| [ DATA ] ; `string'
	EXPORT	|??_C@_1CC@OKPOAMDL@?$AAE?$AAF?$AAU?$AAS?$AAE?$AA_?$AAA?$AAL?$AAW?$AAO?$AAN?$AA_?$AAF?$AAC?$AAL?$AAK?$AA?$AA@| [ DATA ] ; `string'
	EXPORT	|??_C@_1CC@LCLFNMGE@?$AAU?$AAS?$AAB?$AAH?$AAO?$AAS?$AAT?$AA_?$AAS?$AAA?$AAR?$AA_?$AAF?$AAC?$AAL?$AAK?$AA?$AA@| [ DATA ] ; `string'
	EXPORT	|??_C@_1CA@GFMKNGEM@?$AAU?$AAS?$AAB?$AAT?$AAL?$AAL?$AA_?$AAS?$AAA?$AAR?$AA_?$AAF?$AAC?$AAL?$AAK?$AA?$AA@| [ DATA ] ; `string'
	EXPORT	|??_C@_1BG@HFLHAJLD@?$AAM?$AAC?$AAB?$AAS?$AAP?$AA_?$AAC?$AAL?$AAK?$AAS?$AA?$AA@| [ DATA ] ; `string'
	EXPORT	|??_C@_1CA@FJDCLDEP@?$AAS?$AAE?$AAC?$AAU?$AAR?$AAE?$AA_?$AA3?$AA2?$AAK?$AA_?$AAF?$AAC?$AAL?$AAK?$AA?$AA@| [ DATA ] ; `string'
	EXPORT	|??_C@_1BG@NCDDCILL@?$AAS?$AAY?$AAS?$AA_?$AAA?$AAL?$AAT?$AAC?$AAL?$AAK?$AA?$AA@| [ DATA ] ; `string'
	EXPORT	|??_C@_1BA@OLOPHJPN@?$AAS?$AAY?$AAS?$AA_?$AAC?$AAL?$AAK?$AA?$AA@| [ DATA ] ; `string'
	EXPORT	|??_C@_1BC@DHGIMHNL@?$AA3?$AA2?$AAK?$AA_?$AAF?$AAC?$AAL?$AAK?$AA?$AA@| [ DATA ] ; `string'
	EXPORT	|??_C@_1BE@FAMLILEH@?$AA1?$AA2?$AA0?$AAM?$AA_?$AAF?$AAC?$AAL?$AAK?$AA?$AA@| [ DATA ] ; `string'
	EXPORT	|??_C@_1CG@HFAMOILM@?$AAE?$AAM?$AAU?$AAL?$AA_?$AAP?$AAE?$AAR?$AA_?$AAA?$AAL?$AAW?$AAO?$AAN?$AA_?$AAC?$AAL?$AAK?$AA?$AA@| [ DATA ] ; `string'
	EXPORT	|??_C@_1BC@IIMOEDJ@?$AAC?$AAA?$AAM?$AA_?$AAM?$AAC?$AAL?$AAK?$AA?$AA@| [ DATA ] ; `string'
	EXPORT	|??_C@_1CA@OIJIBLMP@?$AAD?$AAS?$AAS?$AA1?$AA_?$AAA?$AAL?$AAW?$AAO?$AAN?$AA_?$AAF?$AAC?$AAL?$AAK?$AA?$AA@| [ DATA ] ; `string'
	EXPORT	|??_C@_1BO@DEHFKHHM@?$AAD?$AAP?$AAL?$AAL?$AA4?$AA_?$AAM?$AA3?$AAX?$AA2?$AA_?$AAC?$AAL?$AAK?$AA?$AA@| [ DATA ] ; `string'
	EXPORT	|??_C@_1CE@BJAPKP@?$AAP?$AAR?$AAM?$AA_?$AA9?$AA6?$AAM?$AA_?$AAA?$AAL?$AAW?$AAO?$AAN?$AA_?$AAC?$AAL?$AAK?$AA?$AA@| [ DATA ] ; `string'
	EXPORT	|??_C@_1CI@IFDBBING@?$AAE?$AAM?$AAU?$AAL?$AA_?$AAC?$AAO?$AAR?$AAE?$AA_?$AAA?$AAL?$AAW?$AAO?$AAN?$AA_?$AAC?$AAL?$AAK?$AA?$AA@| [ DATA ] ; `string'
	EXPORT	|??_C@_1BG@BPJIAMGI@?$AAC?$AAO?$AAR?$AAE?$AAX?$AA2?$AA_?$AAC?$AAL?$AAK?$AA?$AA@| [ DATA ] ; `string'
	EXPORT	|??_C@_1BC@NNFMMOEA@?$AAC?$AAO?$AAR?$AAE?$AA_?$AAC?$AAL?$AAK?$AA?$AA@| [ DATA ] ; `string'
	EXPORT	|??_C@_1BK@MLNJDMKG@?$AAD?$AAP?$AAL?$AAL?$AA2?$AA_?$AAM?$AA2?$AA_?$AAC?$AAL?$AAK?$AA?$AA@| [ DATA ] ; `string'
	EXPORT	|??_C@_1BO@NBJEMBCN@?$AAD?$AAP?$AAL?$AAL?$AA1?$AA_?$AAM?$AA2?$AAX?$AA2?$AA_?$AAC?$AAL?$AAK?$AA?$AA@| [ DATA ] ; `string'
	EXPORT	|?_rgDeviceClockNames@@3PAPBGA| [ DATA ] ; _rgDeviceClockNames
	EXPORT	|?_rgDpllClockNames@@3PAPBGA| [ DATA ]	; _rgDpllClockNames
	EXPORT	|?_rgDpllNames@@3PAPBGA| [ DATA ]	; _rgDpllNames
	EXPORT	|?_rgVddNames@@3PAPBGA| [ DATA ]	; _rgVddNames
	EXPORT	|?_rgOmapDeviceMap@@3PAUOMAP_CLOCK_MAP@@A| [ DATA ] ; _rgOmapDeviceMap
	EXPORT	|?_rgVddMap@@3PAPBGA| [ DATA ]		; _rgVddMap
	EXPORT	|?_rgDpllMap@@3PAPBGA| [ DATA ]		; _rgDpllMap
	EXPORT	|?_rgDpllClkOutMap@@3PAPBGA| [ DATA ]	; _rgDpllClkOutMap
	EXPORT	|?_rgClockMap@@3PAPAPBGA| [ DATA ]	; _rgClockMap

  00000			 AREA	 |.rdata|, DATA, READONLY
|??_C@_1BI@EJBCNOLJ@?$AAE?$AAX?$AAT?$AA_?$AAS?$AAY?$AAS?$AA_?$AAC?$AAL?$AAK?$AA?$AA@| DCB "E"
	DCB	0x0, "X", 0x0, "T", 0x0, "_", 0x0, "S", 0x0, "Y", 0x0, "S"
	DCB	0x0, "_", 0x0, "C", 0x0, "L", 0x0, "K", 0x0, 0x0, 0x0 ; `string'

  00000			 AREA	 |.rdata|, DATA, READONLY
|??_C@_1CA@KPICPENJ@?$AAD?$AAP?$AAL?$AAL?$AA5?$AA_?$AAC?$AAL?$AAK?$AAO?$AAU?$AAT?$AA_?$AAM?$AA2?$AA?$AA@| DCB "D"
	DCB	0x0, "P", 0x0, "L", 0x0, "L", 0x0, "5", 0x0, "_", 0x0, "C"
	DCB	0x0, "L", 0x0, "K", 0x0, "O", 0x0, "U", 0x0, "T", 0x0, "_"
	DCB	0x0, "M", 0x0, "2", 0x0, 0x0, 0x0	; `string'

  00000			 AREA	 |.rdata|, DATA, READONLY
|??_C@_1CE@JJENCAPI@?$AAD?$AAP?$AAL?$AAL?$AA4?$AA_?$AAC?$AAL?$AAK?$AAO?$AAU?$AAT?$AA_?$AAM?$AA6?$AAX?$AA2?$AA?$AA@| DCB "D"
	DCB	0x0, "P", 0x0, "L", 0x0, "L", 0x0, "4", 0x0, "_", 0x0, "C"
	DCB	0x0, "L", 0x0, "K", 0x0, "O", 0x0, "U", 0x0, "T", 0x0, "_"
	DCB	0x0, "M", 0x0, "6", 0x0, "X", 0x0, "2", 0x0, 0x0, 0x0 ; `string'

  00000			 AREA	 |.rdata|, DATA, READONLY
|??_C@_1CE@BHMCCHBL@?$AAD?$AAP?$AAL?$AAL?$AA4?$AA_?$AAC?$AAL?$AAK?$AAO?$AAU?$AAT?$AA_?$AAM?$AA5?$AAX?$AA2?$AA?$AA@| DCB "D"
	DCB	0x0, "P", 0x0, "L", 0x0, "L", 0x0, "4", 0x0, "_", 0x0, "C"
	DCB	0x0, "L", 0x0, "K", 0x0, "O", 0x0, "U", 0x0, "T", 0x0, "_"
	DCB	0x0, "M", 0x0, "5", 0x0, "X", 0x0, "2", 0x0, 0x0, 0x0 ; `string'

  00000			 AREA	 |.rdata|, DATA, READONLY
|??_C@_1CE@NLGICHIF@?$AAD?$AAP?$AAL?$AAL?$AA4?$AA_?$AAC?$AAL?$AAK?$AAO?$AAU?$AAT?$AA_?$AAM?$AA4?$AAX?$AA2?$AA?$AA@| DCB "D"
	DCB	0x0, "P", 0x0, "L", 0x0, "L", 0x0, "4", 0x0, "_", 0x0, "C"
	DCB	0x0, "L", 0x0, "K", 0x0, "O", 0x0, "U", 0x0, "T", 0x0, "_"
	DCB	0x0, "M", 0x0, "4", 0x0, "X", 0x0, "2", 0x0, 0x0, 0x0 ; `string'

  00000			 AREA	 |.rdata|, DATA, READONLY
|??_C@_1CE@NBKNCOJM@?$AAD?$AAP?$AAL?$AAL?$AA4?$AA_?$AAC?$AAL?$AAK?$AAO?$AAU?$AAT?$AA_?$AAM?$AA3?$AAX?$AA2?$AA?$AA@| DCB "D"
	DCB	0x0, "P", 0x0, "L", 0x0, "L", 0x0, "4", 0x0, "_", 0x0, "C"
	DCB	0x0, "L", 0x0, "K", 0x0, "O", 0x0, "U", 0x0, "T", 0x0, "_"
	DCB	0x0, "M", 0x0, "3", 0x0, "X", 0x0, "2", 0x0, 0x0, 0x0 ; `string'

  00000			 AREA	 |.rdata|, DATA, READONLY
|??_C@_1CE@BNAHCOAC@?$AAD?$AAP?$AAL?$AAL?$AA4?$AA_?$AAC?$AAL?$AAK?$AAO?$AAU?$AAT?$AA_?$AAM?$AA2?$AAX?$AA2?$AA?$AA@| DCB "D"
	DCB	0x0, "P", 0x0, "L", 0x0, "L", 0x0, "4", 0x0, "_", 0x0, "C"
	DCB	0x0, "L", 0x0, "K", 0x0, "O", 0x0, "U", 0x0, "T", 0x0, "_"
	DCB	0x0, "M", 0x0, "2", 0x0, "X", 0x0, "2", 0x0, 0x0, 0x0 ; `string'

  00000			 AREA	 |.rdata|, DATA, READONLY
|??_C@_1CE@NFKENNMP@?$AAD?$AAP?$AAL?$AAL?$AA3?$AA_?$AAC?$AAL?$AAK?$AAO?$AAU?$AAT?$AA_?$AAM?$AA3?$AAX?$AA2?$AA?$AA@| DCB "D"
	DCB	0x0, "P", 0x0, "L", 0x0, "L", 0x0, "3", 0x0, "_", 0x0, "C"
	DCB	0x0, "L", 0x0, "K", 0x0, "O", 0x0, "U", 0x0, "T", 0x0, "_"
	DCB	0x0, "M", 0x0, "3", 0x0, "X", 0x0, "2", 0x0, 0x0, 0x0 ; `string'

  00000			 AREA	 |.rdata|, DATA, READONLY
|??_C@_1CE@BJAONNFB@?$AAD?$AAP?$AAL?$AAL?$AA3?$AA_?$AAC?$AAL?$AAK?$AAO?$AAU?$AAT?$AA_?$AAM?$AA2?$AAX?$AA2?$AA?$AA@| DCB "D"
	DCB	0x0, "P", 0x0, "L", 0x0, "L", 0x0, "3", 0x0, "_", 0x0, "C"
	DCB	0x0, "L", 0x0, "K", 0x0, "O", 0x0, "U", 0x0, "T", 0x0, "_"
	DCB	0x0, "M", 0x0, "2", 0x0, "X", 0x0, "2", 0x0, 0x0, 0x0 ; `string'

  00000			 AREA	 |.rdata|, DATA, READONLY
|??_C@_1CA@BPLPKGIJ@?$AAD?$AAP?$AAL?$AAL?$AA3?$AA_?$AAC?$AAL?$AAK?$AAO?$AAU?$AAT?$AA_?$AAM?$AA2?$AA?$AA@| DCB "D"
	DCB	0x0, "P", 0x0, "L", 0x0, "L", 0x0, "3", 0x0, "_", 0x0, "C"
	DCB	0x0, "L", 0x0, "K", 0x0, "O", 0x0, "U", 0x0, "T", 0x0, "_"
	DCB	0x0, "M", 0x0, "2", 0x0, 0x0, 0x0	; `string'

  00000			 AREA	 |.rdata|, DATA, READONLY
|??_C@_1CA@JOJKMDKO@?$AAD?$AAP?$AAL?$AAL?$AA2?$AA_?$AAC?$AAL?$AAK?$AAO?$AAU?$AAT?$AA_?$AAM?$AA2?$AA?$AA@| DCB "D"
	DCB	0x0, "P", 0x0, "L", 0x0, "L", 0x0, "2", 0x0, "_", 0x0, "C"
	DCB	0x0, "L", 0x0, "K", 0x0, "O", 0x0, "U", 0x0, "T", 0x0, "_"
	DCB	0x0, "M", 0x0, "2", 0x0, 0x0, 0x0	; `string'

  00000			 AREA	 |.rdata|, DATA, READONLY
|??_C@_1CE@BKGFCHGL@?$AAD?$AAP?$AAL?$AAL?$AA1?$AA_?$AAC?$AAL?$AAK?$AAO?$AAU?$AAT?$AA_?$AAM?$AA2?$AAX?$AA2?$AA?$AA@| DCB "D"
	DCB	0x0, "P", 0x0, "L", 0x0, "L", 0x0, "1", 0x0, "_", 0x0, "C"
	DCB	0x0, "L", 0x0, "K", 0x0, "O", 0x0, "U", 0x0, "T", 0x0, "_"
	DCB	0x0, "M", 0x0, "2", 0x0, "X", 0x0, "2", 0x0, 0x0, 0x0 ; `string'

  00000			 AREA	 |.rdata|, DATA, READONLY
|??_C@_1BE@DMCNGCAK@?$AAE?$AAX?$AAT?$AA_?$AA3?$AA2?$AAK?$AAH?$AAZ?$AA?$AA@| DCB "E"
	DCB	0x0, "X", 0x0, "T", 0x0, "_", 0x0, "3", 0x0, "2", 0x0, "K"
	DCB	0x0, "H", 0x0, "Z", 0x0, 0x0, 0x0	; `string'

  00000			 AREA	 |.rdata|, DATA, READONLY
|??_C@_1BC@DCGNMADO@?$AAD?$AAP?$AAL?$AAL?$AA_?$AAE?$AAX?$AAT?$AA?$AA@| DCB "D"
	DCB	0x0, "P", 0x0, "L", 0x0, "L", 0x0, "_", 0x0, "E", 0x0, "X"
	DCB	0x0, "T", 0x0, 0x0, 0x0			; `string'

  00000			 AREA	 |.rdata|, DATA, READONLY
|??_C@_1BC@NBGNPOOD@?$AAM?$AAM?$AAC?$AA_?$AAV?$AAD?$AAD?$AAS?$AA?$AA@| DCB "M"
	DCB	0x0, "M", 0x0, "C", 0x0, "_", 0x0, "V", 0x0, "D", 0x0, "D"
	DCB	0x0, "S", 0x0, 0x0, 0x0			; `string'

  00000			 AREA	 |.rdata|, DATA, READONLY
|??_C@_1BA@GOCMOCGM@?$AAV?$AAD?$AAD?$AA_?$AAE?$AAX?$AAT?$AA?$AA@| DCB "V", 0x0
	DCB	"D", 0x0, "D", 0x0, "_", 0x0, "E", 0x0, "X", 0x0, "T", 0x0
	DCB	0x0, 0x0				; `string'

  00000			 AREA	 |.rdata|, DATA, READONLY
|??_C@_1M@KONPKJLO@?$AAU?$AAA?$AAR?$AAT?$AA4?$AA?$AA@| DCB "U", 0x0, "A", 0x0
	DCB	"R", 0x0, "T", 0x0, "4", 0x0, 0x0, 0x0	; `string'

  00000			 AREA	 |.rdata|, DATA, READONLY
|??_C@_1BC@FOIAEGEP@?$AAU?$AAS?$AAB?$AAH?$AAO?$AAS?$AAT?$AA3?$AA?$AA@| DCB "U"
	DCB	0x0, "S", 0x0, "B", 0x0, "H", 0x0, "O", 0x0, "S", 0x0, "T"
	DCB	0x0, "3", 0x0, 0x0, 0x0			; `string'

  00000			 AREA	 |.rdata|, DATA, READONLY
|??_C@_1BC@OGDMCBCK@?$AAU?$AAS?$AAB?$AAH?$AAO?$AAS?$AAT?$AA2?$AA?$AA@| DCB "U"
	DCB	0x0, "S", 0x0, "B", 0x0, "H", 0x0, "O", 0x0, "S", 0x0, "T"
	DCB	0x0, "2", 0x0, 0x0, 0x0			; `string'

  00000			 AREA	 |.rdata|, DATA, READONLY
|??_C@_1BC@PEIJIOME@?$AAU?$AAS?$AAB?$AAH?$AAO?$AAS?$AAT?$AA1?$AA?$AA@| DCB "U"
	DCB	0x0, "S", 0x0, "B", 0x0, "H", 0x0, "O", 0x0, "S", 0x0, "T"
	DCB	0x0, "1", 0x0, 0x0, 0x0			; `string'

  00000			 AREA	 |.rdata|, DATA, READONLY
|??_C@_17FNJAMJCK@?$AAS?$AAG?$AAX?$AA?$AA@| DCB "S", 0x0, "G", 0x0, "X", 0x0
	DCB	0x0, 0x0				; `string'

  00000			 AREA	 |.rdata|, DATA, READONLY
|??_C@_15NIKFOEDF@?$AA3?$AAD?$AA?$AA@| DCB "3", 0x0, "D", 0x0, 0x0, 0x0 ; `string'

  00000			 AREA	 |.rdata|, DATA, READONLY
|??_C@_15BDPJDHJA@?$AA2?$AAD?$AA?$AA@| DCB "2", 0x0, "D", 0x0, 0x0, 0x0 ; `string'

  00000			 AREA	 |.rdata|, DATA, READONLY
|??_C@_17HGBNJJHK@?$AAD?$AAS?$AAP?$AA?$AA@| DCB "D", 0x0, "S", 0x0, "P", 0x0
	DCB	0x0, 0x0				; `string'

  00000			 AREA	 |.rdata|, DATA, READONLY
|??_C@_19MACELEIB@?$AAC?$AAS?$AAI?$AA2?$AA?$AA@| DCB "C", 0x0, "S", 0x0, "I"
	DCB	0x0, "2", 0x0, 0x0, 0x0			; `string'

  00000			 AREA	 |.rdata|, DATA, READONLY
|??_C@_1O@NAINHJLA@?$AAC?$AAA?$AAM?$AAE?$AAR?$AAA?$AA?$AA@| DCB "C", 0x0, "A"
	DCB	0x0, "M", 0x0, "E", 0x0, "R", 0x0, "A", 0x0, 0x0, 0x0 ; `string'

  00000			 AREA	 |.rdata|, DATA, READONLY
|??_C@_1M@OHMMHPBM@?$AAT?$AAV?$AAO?$AAU?$AAT?$AA?$AA@| DCB "T", 0x0, "V", 0x0
	DCB	"O", 0x0, "U", 0x0, "T", 0x0, 0x0, 0x0	; `string'

  00000			 AREA	 |.rdata|, DATA, READONLY
|??_C@_19IALFIOAF@?$AAD?$AAS?$AAS?$AA2?$AA?$AA@| DCB "D", 0x0, "S", 0x0, "S"
	DCB	0x0, "2", 0x0, 0x0, 0x0			; `string'

  00000			 AREA	 |.rdata|, DATA, READONLY
|??_C@_19JCAACBOL@?$AAD?$AAS?$AAS?$AA1?$AA?$AA@| DCB "D", 0x0, "S", 0x0, "S"
	DCB	0x0, "1", 0x0, 0x0, 0x0			; `string'

  00000			 AREA	 |.rdata|, DATA, READONLY
|??_C@_17GEKIDGJE@?$AAD?$AAS?$AAS?$AA?$AA@| DCB "D", 0x0, "S", 0x0, "S", 0x0
	DCB	0x0, 0x0				; `string'

  00000			 AREA	 |.rdata|, DATA, READONLY
|??_C@_19JPOLNLAB@?$AAW?$AAD?$AAT?$AA3?$AA?$AA@| DCB "W", 0x0, "D", 0x0, "T"
	DCB	0x0, "3", 0x0, 0x0, 0x0			; `string'

  00000			 AREA	 |.rdata|, DATA, READONLY
|??_C@_1M@DDAIJBAH@?$AAU?$AAA?$AAR?$AAT?$AA3?$AA?$AA@| DCB "U", 0x0, "A", 0x0
	DCB	"R", 0x0, "T", 0x0, "3", 0x0, 0x0, 0x0	; `string'

  00000			 AREA	 |.rdata|, DATA, READONLY
|??_C@_1BC@FOCPBFHL@?$AAG?$AAP?$AAT?$AAI?$AAM?$AAE?$AAR?$AA9?$AA?$AA@| DCB "G"
	DCB	0x0, "P", 0x0, "T", 0x0, "I", 0x0, "M", 0x0, "E", 0x0, "R"
	DCB	0x0, "9", 0x0, 0x0, 0x0			; `string'

  00000			 AREA	 |.rdata|, DATA, READONLY
|??_C@_1BC@OGJDHCBO@?$AAG?$AAP?$AAT?$AAI?$AAM?$AAE?$AAR?$AA8?$AA?$AA@| DCB "G"
	DCB	0x0, "P", 0x0, "T", 0x0, "I", 0x0, "M", 0x0, "E", 0x0, "R"
	DCB	0x0, "8", 0x0, 0x0, 0x0			; `string'

  00000			 AREA	 |.rdata|, DATA, READONLY
|??_C@_1BC@LOPAGCEI@?$AAG?$AAP?$AAT?$AAI?$AAM?$AAE?$AAR?$AA7?$AA?$AA@| DCB "G"
	DCB	0x0, "P", 0x0, "T", 0x0, "I", 0x0, "M", 0x0, "E", 0x0, "R"
	DCB	0x0, "7", 0x0, 0x0, 0x0			; `string'

  00000			 AREA	 |.rdata|, DATA, READONLY
|??_C@_1BC@GEMAFCN@?$AAG?$AAP?$AAT?$AAI?$AAM?$AAE?$AAR?$AA6?$AA?$AA@| DCB "G"
	DCB	0x0, "P", 0x0, "T", 0x0, "I", 0x0, "M", 0x0, "E", 0x0, "R"
	DCB	0x0, "6", 0x0, 0x0, 0x0			; `string'

  00000			 AREA	 |.rdata|, DATA, READONLY
|??_C@_1BC@BEPJKKMD@?$AAG?$AAP?$AAT?$AAI?$AAM?$AAE?$AAR?$AA5?$AA?$AA@| DCB "G"
	DCB	0x0, "P", 0x0, "T", 0x0, "I", 0x0, "M", 0x0, "E", 0x0, "R"
	DCB	0x0, "5", 0x0, 0x0, 0x0			; `string'

  00000			 AREA	 |.rdata|, DATA, READONLY
|??_C@_1BC@KMEFMNKG@?$AAG?$AAP?$AAT?$AAI?$AAM?$AAE?$AAR?$AA4?$AA?$AA@| DCB "G"
	DCB	0x0, "P", 0x0, "T", 0x0, "I", 0x0, "M", 0x0, "E", 0x0, "R"
	DCB	0x0, "4", 0x0, 0x0, 0x0			; `string'

  00000			 AREA	 |.rdata|, DATA, READONLY
|??_C@_1BC@DBJCPFBP@?$AAG?$AAP?$AAT?$AAI?$AAM?$AAE?$AAR?$AA3?$AA?$AA@| DCB "G"
	DCB	0x0, "P", 0x0, "T", 0x0, "I", 0x0, "M", 0x0, "E", 0x0, "R"
	DCB	0x0, "3", 0x0, 0x0, 0x0			; `string'

  00000			 AREA	 |.rdata|, DATA, READONLY
|??_C@_1BC@IJCOJCHK@?$AAG?$AAP?$AAT?$AAI?$AAM?$AAE?$AAR?$AA2?$AA?$AA@| DCB "G"
	DCB	0x0, "P", 0x0, "T", 0x0, "I", 0x0, "M", 0x0, "E", 0x0, "R"
	DCB	0x0, "2", 0x0, 0x0, 0x0			; `string'

  00000			 AREA	 |.rdata|, DATA, READONLY
|??_C@_1O@KNNLCACL@?$AAM?$AAC?$AAB?$AAS?$AAP?$AA4?$AA?$AA@| DCB "M", 0x0, "C"
	DCB	0x0, "B", 0x0, "S", 0x0, "P", 0x0, "4", 0x0, 0x0, 0x0 ; `string'

  00000			 AREA	 |.rdata|, DATA, READONLY
|??_C@_1O@DAAMBIJC@?$AAM?$AAC?$AAB?$AAS?$AAP?$AA3?$AA?$AA@| DCB "M", 0x0, "C"
	DCB	0x0, "B", 0x0, "S", 0x0, "P", 0x0, "3", 0x0, 0x0, 0x0 ; `string'

  00000			 AREA	 |.rdata|, DATA, READONLY
|??_C@_1O@IILAHPPH@?$AAM?$AAC?$AAB?$AAS?$AAP?$AA2?$AA?$AA@| DCB "M", 0x0, "C"
	DCB	0x0, "B", 0x0, "S", 0x0, "P", 0x0, "2", 0x0, 0x0, 0x0 ; `string'

  00000			 AREA	 |.rdata|, DATA, READONLY
|??_C@_1M@GEFJCHKF@?$AAG?$AAP?$AAI?$AAO?$AA6?$AA?$AA@| DCB "G", 0x0, "P", 0x0
	DCB	"I", 0x0, "O", 0x0, "6", 0x0, 0x0, 0x0	; `string'

  00000			 AREA	 |.rdata|, DATA, READONLY
|??_C@_1M@HGOMIIEL@?$AAG?$AAP?$AAI?$AAO?$AA5?$AA?$AA@| DCB "G", 0x0, "P", 0x0
	DCB	"I", 0x0, "O", 0x0, "5", 0x0, 0x0, 0x0	; `string'

  00000			 AREA	 |.rdata|, DATA, READONLY
|??_C@_1M@MOFAOPCO@?$AAG?$AAP?$AAI?$AAO?$AA4?$AA?$AA@| DCB "G", 0x0, "P", 0x0
	DCB	"I", 0x0, "O", 0x0, "4", 0x0, 0x0, 0x0	; `string'

  00000			 AREA	 |.rdata|, DATA, READONLY
|??_C@_1M@FDIHNHJH@?$AAG?$AAP?$AAI?$AAO?$AA3?$AA?$AA@| DCB "G", 0x0, "P", 0x0
	DCB	"I", 0x0, "O", 0x0, "3", 0x0, 0x0, 0x0	; `string'

  00000			 AREA	 |.rdata|, DATA, READONLY
|??_C@_1M@OLDLLAPC@?$AAG?$AAP?$AAI?$AAO?$AA2?$AA?$AA@| DCB "G", 0x0, "P", 0x0
	DCB	"I", 0x0, "O", 0x0, "2", 0x0, 0x0, 0x0	; `string'

  00000			 AREA	 |.rdata|, DATA, READONLY
|??_C@_19NJMIPFOE@?$AAU?$AAS?$AAI?$AAM?$AA?$AA@| DCB "U", 0x0, "S", 0x0, "I"
	DCB	0x0, "M", 0x0, 0x0, 0x0			; `string'

  00000			 AREA	 |.rdata|, DATA, READONLY
|??_C@_17FKBAENGF@?$AAS?$AAR?$AA2?$AA?$AA@| DCB "S", 0x0, "R", 0x0, "2", 0x0
	DCB	0x0, 0x0				; `string'

  00000			 AREA	 |.rdata|, DATA, READONLY
|??_C@_17EIKFOCIL@?$AAS?$AAR?$AA1?$AA?$AA@| DCB "S", 0x0, "R", 0x0, "1", 0x0
	DCB	0x0, 0x0				; `string'

  00000			 AREA	 |.rdata|, DATA, READONLY
|??_C@_1M@PJIOBPBM@?$AAG?$AAP?$AAI?$AAO?$AA1?$AA?$AA@| DCB "G", 0x0, "P", 0x0
	DCB	"I", 0x0, "O", 0x0, "1", 0x0, 0x0, 0x0	; `string'

  00000			 AREA	 |.rdata|, DATA, READONLY
|??_C@_19CHFHLMGE@?$AAW?$AAD?$AAT?$AA2?$AA?$AA@| DCB "W", 0x0, "D", 0x0, "T"
	DCB	0x0, "2", 0x0, 0x0, 0x0			; `string'

  00000			 AREA	 |.rdata|, DATA, READONLY
|??_C@_19DFOCBDIK@?$AAW?$AAD?$AAT?$AA1?$AA?$AA@| DCB "W", 0x0, "D", 0x0, "T"
	DCB	0x0, "1", 0x0, 0x0, 0x0			; `string'

  00000			 AREA	 |.rdata|, DATA, READONLY
|??_C@_1BA@GEGEJPDF@?$AA3?$AA2?$AAK?$AAS?$AAY?$AAN?$AAC?$AA?$AA@| DCB "3", 0x0
	DCB	"2", 0x0, "K", 0x0, "S", 0x0, "Y", 0x0, "N", 0x0, "C", 0x0
	DCB	0x0, 0x0				; `string'

  00000			 AREA	 |.rdata|, DATA, READONLY
|??_C@_1BE@BHGHKILO@?$AAG?$AAP?$AAT?$AAI?$AAM?$AAE?$AAR?$AA1?$AA2?$AA?$AA@| DCB "G"
	DCB	0x0, "P", 0x0, "T", 0x0, "I", 0x0, "M", 0x0, "E", 0x0, "R"
	DCB	0x0, "1", 0x0, "2", 0x0, 0x0, 0x0	; `string'

  00000			 AREA	 |.rdata|, DATA, READONLY
|??_C@_1BC@JLJLDNJE@?$AAG?$AAP?$AAT?$AAI?$AAM?$AAE?$AAR?$AA1?$AA?$AA@| DCB "G"
	DCB	0x0, "P", 0x0, "T", 0x0, "I", 0x0, "M", 0x0, "E", 0x0, "R"
	DCB	0x0, "1", 0x0, 0x0, 0x0			; `string'

  00000			 AREA	 |.rdata|, DATA, READONLY
|??_C@_1O@DDNPEFEM@?$AAE?$AAF?$AAU?$AAL?$AAS?$AAE?$AA?$AA@| DCB "E", 0x0, "F"
	DCB	0x0, "U", 0x0, "L", 0x0, "S", 0x0, "E", 0x0, 0x0, 0x0 ; `string'

  00000			 AREA	 |.rdata|, DATA, READONLY
|??_C@_15JKLEPB@?$AAT?$AAS?$AA?$AA@| DCB "T", 0x0, "S", 0x0, 0x0, 0x0 ; `string'

  00000			 AREA	 |.rdata|, DATA, READONLY
|??_C@_1O@CEHCKMAH@?$AAU?$AAS?$AAB?$AAT?$AAL?$AAL?$AA?$AA@| DCB "U", 0x0, "S"
	DCB	0x0, "B", 0x0, "T", 0x0, "L", 0x0, "L", 0x0, 0x0, 0x0 ; `string'

  00000			 AREA	 |.rdata|, DATA, READONLY
|??_C@_17IJMMBGKH@?$AAP?$AAK?$AAA?$AA?$AA@| DCB "P", 0x0, "K", 0x0, "A", 0x0
	DCB	0x0, 0x0				; `string'

  00000			 AREA	 |.rdata|, DATA, READONLY
|??_C@_19MOPNNCAD@?$AAA?$AAE?$AAS?$AA1?$AA?$AA@| DCB "A", 0x0, "E", 0x0, "S"
	DCB	0x0, "1", 0x0, 0x0, 0x0			; `string'

  00000			 AREA	 |.rdata|, DATA, READONLY
|??_C@_17LOEPNPLF@?$AAR?$AAN?$AAG?$AA?$AA@| DCB "R", 0x0, "N", 0x0, "G", 0x0
	DCB	0x0, 0x0				; `string'

  00000			 AREA	 |.rdata|, DATA, READONLY
|??_C@_1M@CACEHPIH@?$AAS?$AAH?$AAA?$AA1?$AA1?$AA?$AA@| DCB "S", 0x0, "H", 0x0
	DCB	"A", 0x0, "1", 0x0, "1", 0x0, 0x0, 0x0	; `string'

  00000			 AREA	 |.rdata|, DATA, READONLY
|??_C@_19CINEBJEH@?$AAD?$AAE?$AAS?$AA1?$AA?$AA@| DCB "D", 0x0, "E", 0x0, "S"
	DCB	0x0, "1", 0x0, 0x0, 0x0			; `string'

  00000			 AREA	 |.rdata|, DATA, READONLY
|??_C@_17EEMHEGLL@?$AAI?$AAC?$AAR?$AA?$AA@| DCB "I", 0x0, "C", 0x0, "R", 0x0
	DCB	0x0, 0x0				; `string'

  00000			 AREA	 |.rdata|, DATA, READONLY
|??_C@_19NMEIHNON@?$AAA?$AAE?$AAS?$AA2?$AA?$AA@| DCB "A", 0x0, "E", 0x0, "S"
	DCB	0x0, "2", 0x0, 0x0, 0x0			; `string'

  00000			 AREA	 |.rdata|, DATA, READONLY
|??_C@_1M@DCJBNAGJ@?$AAS?$AAH?$AAA?$AA1?$AA2?$AA?$AA@| DCB "S", 0x0, "H", 0x0
	DCB	"A", 0x0, "1", 0x0, "2", 0x0, 0x0, 0x0	; `string'

  00000			 AREA	 |.rdata|, DATA, READONLY
|??_C@_19DKGBLGKJ@?$AAD?$AAE?$AAS?$AA2?$AA?$AA@| DCB "D", 0x0, "E", 0x0, "S"
	DCB	0x0, "2", 0x0, 0x0, 0x0			; `string'

  00000			 AREA	 |.rdata|, DATA, READONLY
|??_C@_19KOPLODCI@?$AAM?$AAM?$AAC?$AA3?$AA?$AA@| DCB "M", 0x0, "M", 0x0, "C"
	DCB	0x0, "3", 0x0, 0x0, 0x0			; `string'

  00000			 AREA	 |.rdata|, DATA, READONLY
|??_C@_19BGEHIEEN@?$AAM?$AAM?$AAC?$AA2?$AA?$AA@| DCB "M", 0x0, "M", 0x0, "C"
	DCB	0x0, "2", 0x0, 0x0, 0x0			; `string'

  00000			 AREA	 |.rdata|, DATA, READONLY
|??_C@_19EPCCLKD@?$AAM?$AAM?$AAC?$AA1?$AA?$AA@| DCB "M", 0x0, "M", 0x0, "C"
	DCB	0x0, "1", 0x0, 0x0, 0x0			; `string'

  00000			 AREA	 |.rdata|, DATA, READONLY
|??_C@_1M@KPNCKAJE@?$AAM?$AAS?$AAP?$AAR?$AAO?$AA?$AA@| DCB "M", 0x0, "S", 0x0
	DCB	"P", 0x0, "R", 0x0, "O", 0x0, 0x0, 0x0	; `string'

  00000			 AREA	 |.rdata|, DATA, READONLY
|??_C@_17IHNNNJHD@?$AAH?$AAD?$AAQ?$AA?$AA@| DCB "H", 0x0, "D", 0x0, "Q", 0x0
	DCB	0x0, 0x0				; `string'

  00000			 AREA	 |.rdata|, DATA, READONLY
|??_C@_1O@MPOBJOEN@?$AAM?$AAC?$AAS?$AAP?$AAI?$AA4?$AA?$AA@| DCB "M", 0x0, "C"
	DCB	0x0, "S", 0x0, "P", 0x0, "I", 0x0, "4", 0x0, 0x0, 0x0 ; `string'

  00000			 AREA	 |.rdata|, DATA, READONLY
|??_C@_1O@FCDGKGPE@?$AAM?$AAC?$AAS?$AAP?$AAI?$AA3?$AA?$AA@| DCB "M", 0x0, "C"
	DCB	0x0, "S", 0x0, "P", 0x0, "I", 0x0, "3", 0x0, 0x0, 0x0 ; `string'

  00000			 AREA	 |.rdata|, DATA, READONLY
|??_C@_1O@OKIKMBJB@?$AAM?$AAC?$AAS?$AAP?$AAI?$AA2?$AA?$AA@| DCB "M", 0x0, "C"
	DCB	0x0, "S", 0x0, "P", 0x0, "I", 0x0, "2", 0x0, 0x0, 0x0 ; `string'

  00000			 AREA	 |.rdata|, DATA, READONLY
|??_C@_1O@PIDPGOHP@?$AAM?$AAC?$AAS?$AAP?$AAI?$AA1?$AA?$AA@| DCB "M", 0x0, "C"
	DCB	0x0, "S", 0x0, "P", 0x0, "I", 0x0, "1", 0x0, 0x0, 0x0 ; `string'

  00000			 AREA	 |.rdata|, DATA, READONLY
|??_C@_19NCGAMAGO@?$AAI?$AA2?$AAC?$AA3?$AA?$AA@| DCB "I", 0x0, "2", 0x0, "C"
	DCB	0x0, "3", 0x0, 0x0, 0x0			; `string'

  00000			 AREA	 |.rdata|, DATA, READONLY
|??_C@_19GKNMKHAL@?$AAI?$AA2?$AAC?$AA2?$AA?$AA@| DCB "I", 0x0, "2", 0x0, "C"
	DCB	0x0, "2", 0x0, 0x0, 0x0			; `string'

  00000			 AREA	 |.rdata|, DATA, READONLY
|??_C@_19HIGJAIOF@?$AAI?$AA2?$AAC?$AA1?$AA?$AA@| DCB "I", 0x0, "2", 0x0, "C"
	DCB	0x0, "1", 0x0, 0x0, 0x0			; `string'

  00000			 AREA	 |.rdata|, DATA, READONLY
|??_C@_1M@ILLEPGGC@?$AAU?$AAA?$AAR?$AAT?$AA2?$AA?$AA@| DCB "U", 0x0, "A", 0x0
	DCB	"R", 0x0, "T", 0x0, "2", 0x0, 0x0, 0x0	; `string'

  00000			 AREA	 |.rdata|, DATA, READONLY
|??_C@_1M@JJABFJIM@?$AAU?$AAA?$AAR?$AAT?$AA1?$AA?$AA@| DCB "U", 0x0, "A", 0x0
	DCB	"R", 0x0, "T", 0x0, "1", 0x0, 0x0, 0x0	; `string'

  00000			 AREA	 |.rdata|, DATA, READONLY
|??_C@_1BE@FNCAHFA@?$AAG?$AAP?$AAT?$AAI?$AAM?$AAE?$AAR?$AA1?$AA1?$AA?$AA@| DCB "G"
	DCB	0x0, "P", 0x0, "T", 0x0, "I", 0x0, "M", 0x0, "E", 0x0, "R"
	DCB	0x0, "1", 0x0, "1", 0x0, 0x0, 0x0	; `string'

  00000			 AREA	 |.rdata|, DATA, READONLY
|??_C@_1BE@LNGOGADF@?$AAG?$AAP?$AAT?$AAI?$AAM?$AAE?$AAR?$AA1?$AA0?$AA?$AA@| DCB "G"
	DCB	0x0, "P", 0x0, "T", 0x0, "I", 0x0, "M", 0x0, "E", 0x0, "R"
	DCB	0x0, "1", 0x0, "0", 0x0, 0x0, 0x0	; `string'

  00000			 AREA	 |.rdata|, DATA, READONLY
|??_C@_1O@BFGHEHEO@?$AAM?$AAC?$AAB?$AAS?$AAP?$AA5?$AA?$AA@| DCB "M", 0x0, "C"
	DCB	0x0, "B", 0x0, "S", 0x0, "P", 0x0, "5", 0x0, 0x0, 0x0 ; `string'

  00000			 AREA	 |.rdata|, DATA, READONLY
|??_C@_1O@JKAFNABJ@?$AAM?$AAC?$AAB?$AAS?$AAP?$AA1?$AA?$AA@| DCB "M", 0x0, "C"
	DCB	0x0, "B", 0x0, "S", 0x0, "P", 0x0, "1", 0x0, 0x0, 0x0 ; `string'

  00000			 AREA	 |.rdata|, DATA, READONLY
|??_C@_1BE@NBCDMBC@?$AAM?$AAA?$AAI?$AAL?$AAB?$AAO?$AAX?$AAE?$AAS?$AA?$AA@| DCB "M"
	DCB	0x0, "A", 0x0, "I", 0x0, "L", 0x0, "B", 0x0, "O", 0x0, "X"
	DCB	0x0, "E", 0x0, "S", 0x0, 0x0, 0x0	; `string'

  00000			 AREA	 |.rdata|, DATA, READONLY
|??_C@_1BC@CHIKBDHE@?$AAO?$AAM?$AAA?$AAP?$AAC?$AAT?$AAR?$AAL?$AA?$AA@| DCB "O"
	DCB	0x0, "M", 0x0, "A", 0x0, "P", 0x0, "C", 0x0, "T", 0x0, "R"
	DCB	0x0, "L", 0x0, 0x0, 0x0			; `string'

  00000			 AREA	 |.rdata|, DATA, READONLY
|??_C@_1BC@CGFOLLKI@?$AAH?$AAS?$AAO?$AAT?$AAG?$AAU?$AAS?$AAB?$AA?$AA@| DCB "H"
	DCB	0x0, "S", 0x0, "O", 0x0, "T", 0x0, "G", 0x0, "U", 0x0, "S"
	DCB	0x0, "B", 0x0, 0x0, 0x0			; `string'

  00000			 AREA	 |.rdata|, DATA, READONLY
|??_C@_17GKMOIFEN@?$AAD?$AA2?$AAD?$AA?$AA@| DCB "D", 0x0, "2", 0x0, "D", 0x0
	DCB	0x0, 0x0				; `string'

  00000			 AREA	 |.rdata|, DATA, READONLY
|??_C@_19CLGGDIPK@?$AAS?$AAD?$AAR?$AAC?$AA?$AA@| DCB "S", 0x0, "D", 0x0, "R"
	DCB	0x0, "C", 0x0, 0x0, 0x0			; `string'

  00000			 AREA	 |.rdata|, DATA, READONLY
|??_C@_17CNHCLJFN@?$AAS?$AAS?$AAI?$AA?$AA@| DCB "S", 0x0, "S", 0x0, "I", 0x0
	DCB	0x0, 0x0				; `string'

  00000			 AREA	 |.rdata|, DATA, READONLY
|??_C@_1BA@HCPGGPNM@?$AAV?$AAD?$AAD?$AAA?$AAD?$AAA?$AAC?$AA?$AA@| DCB "V", 0x0
	DCB	"D", 0x0, "D", 0x0, "A", 0x0, "D", 0x0, "A", 0x0, "C", 0x0
	DCB	0x0, 0x0				; `string'

  00000			 AREA	 |.rdata|, DATA, READONLY
|??_C@_1O@KJMHPDBC@?$AAV?$AAD?$AAD?$AAP?$AAL?$AAL?$AA?$AA@| DCB "V", 0x0, "D"
	DCB	0x0, "D", 0x0, "P", 0x0, "L", 0x0, "L", 0x0, 0x0, 0x0 ; `string'

  00000			 AREA	 |.rdata|, DATA, READONLY
|??_C@_19EINJEFKH@?$AAV?$AAD?$AAD?$AAS?$AA?$AA@| DCB "V", 0x0, "D", 0x0, "D"
	DCB	0x0, "S", 0x0, 0x0, 0x0			; `string'

  00000			 AREA	 |.rdata|, DATA, READONLY
|??_C@_19FGJEONHI@?$AAV?$AAD?$AAD?$AA5?$AA?$AA@| DCB "V", 0x0, "D", 0x0, "D"
	DCB	0x0, "5", 0x0, 0x0, 0x0			; `string'

  00000			 AREA	 |.rdata|, DATA, READONLY
|??_C@_19OOCIIKBN@?$AAV?$AAD?$AAD?$AA4?$AA?$AA@| DCB "V", 0x0, "D", 0x0, "D"
	DCB	0x0, "4", 0x0, 0x0, 0x0			; `string'

  00000			 AREA	 |.rdata|, DATA, READONLY
|??_C@_19HDPPLCKE@?$AAV?$AAD?$AAD?$AA3?$AA?$AA@| DCB "V", 0x0, "D", 0x0, "D"
	DCB	0x0, "3", 0x0, 0x0, 0x0			; `string'

  00000			 AREA	 |.rdata|, DATA, READONLY
|??_C@_19MLEDNFMB@?$AAV?$AAD?$AAD?$AA2?$AA?$AA@| DCB "V", 0x0, "D", 0x0, "D"
	DCB	0x0, "2", 0x0, 0x0, 0x0			; `string'

  00000			 AREA	 |.rdata|, DATA, READONLY
|??_C@_19NJPGHKCP@?$AAV?$AAD?$AAD?$AA1?$AA?$AA@| DCB "V", 0x0, "D", 0x0, "D"
	DCB	0x0, "1", 0x0, 0x0, 0x0			; `string'

  00000			 AREA	 |.rdata|, DATA, READONLY
|??_C@_1M@MPAGCGHB@?$AAD?$AAP?$AAL?$AAL?$AA5?$AA?$AA@| DCB "D", 0x0, "P", 0x0
	DCB	"L", 0x0, "L", 0x0, "5", 0x0, 0x0, 0x0	; `string'

  00000			 AREA	 |.rdata|, DATA, READONLY
|??_C@_1M@HHLKEBBE@?$AAD?$AAP?$AAL?$AAL?$AA4?$AA?$AA@| DCB "D", 0x0, "P", 0x0
	DCB	"L", 0x0, "L", 0x0, "4", 0x0, 0x0, 0x0	; `string'

  00000			 AREA	 |.rdata|, DATA, READONLY
|??_C@_1M@OKGNHJKN@?$AAD?$AAP?$AAL?$AAL?$AA3?$AA?$AA@| DCB "D", 0x0, "P", 0x0
	DCB	"L", 0x0, "L", 0x0, "3", 0x0, 0x0, 0x0	; `string'

  00000			 AREA	 |.rdata|, DATA, READONLY
|??_C@_1M@FCNBBOMI@?$AAD?$AAP?$AAL?$AAL?$AA2?$AA?$AA@| DCB "D", 0x0, "P", 0x0
	DCB	"L", 0x0, "L", 0x0, "2", 0x0, 0x0, 0x0	; `string'

  00000			 AREA	 |.rdata|, DATA, READONLY
|??_C@_1M@EAGELBCG@?$AAD?$AAP?$AAL?$AAL?$AA1?$AA?$AA@| DCB "D", 0x0, "P", 0x0
	DCB	"L", 0x0, "L", 0x0, "1", 0x0, 0x0, 0x0	; `string'

  00000			 AREA	 |.rdata|, DATA, READONLY
|??_C@_1BC@KMFBFJEN@?$AAE?$AAx?$AAt?$AAe?$AAr?$AAn?$AAa?$AAl?$AA?$AA@| DCB "E"
	DCB	0x0, "x", 0x0, "t", 0x0, "e", 0x0, "r", 0x0, "n", 0x0, "a"
	DCB	0x0, "l", 0x0, 0x0, 0x0			; `string'

  00000			 AREA	 |.rdata|, DATA, READONLY
|??_C@_1BA@OOAHAPIC@?$AAI?$AAN?$AAT?$AA_?$AAO?$AAS?$AAC?$AA?$AA@| DCB "I", 0x0
	DCB	"N", 0x0, "T", 0x0, "_", 0x0, "O", 0x0, "S", 0x0, "C", 0x0
	DCB	0x0, 0x0				; `string'

  00000			 AREA	 |.rdata|, DATA, READONLY
|??_C@_1BC@FDLMCPLJ@?$AAE?$AAX?$AAT?$AA_?$AAM?$AAI?$AAS?$AAC?$AA?$AA@| DCB "E"
	DCB	0x0, "X", 0x0, "T", 0x0, "_", 0x0, "M", 0x0, "I", 0x0, "S"
	DCB	0x0, "C", 0x0, 0x0, 0x0			; `string'

  00000			 AREA	 |.rdata|, DATA, READONLY
|??_C@_1BA@PNJBGGMK@?$AAE?$AAX?$AAT?$AA_?$AAA?$AAL?$AAT?$AA?$AA@| DCB "E", 0x0
	DCB	"X", 0x0, "T", 0x0, "_", 0x0, "A", 0x0, "L", 0x0, "T", 0x0
	DCB	0x0, 0x0				; `string'

  00000			 AREA	 |.rdata|, DATA, READONLY
|??_C@_1BI@NEMFOGAA@?$AAE?$AAX?$AAT?$AA_?$AAS?$AAY?$AAS?$AA_?$AAC?$AAL?$AAL?$AA?$AA@| DCB "E"
	DCB	0x0, "X", 0x0, "T", 0x0, "_", 0x0, "S", 0x0, "Y", 0x0, "S"
	DCB	0x0, "_", 0x0, "C", 0x0, "L", 0x0, "L", 0x0, 0x0, 0x0 ; `string'

  00000			 AREA	 |.rdata|, DATA, READONLY
|??_C@_1CA@FCHLAMKM@?$AAD?$AAP?$AAL?$AAL?$AA5?$AA_?$AAC?$AAL?$AAL?$AAO?$AAU?$AAT?$AA_?$AAM?$AA2?$AA?$AA@| DCB "D"
	DCB	0x0, "P", 0x0, "L", 0x0, "L", 0x0, "5", 0x0, "_", 0x0, "C"
	DCB	0x0, "L", 0x0, "L", 0x0, "O", 0x0, "U", 0x0, "T", 0x0, "_"
	DCB	0x0, "M", 0x0, "2", 0x0, 0x0, 0x0	; `string'

  00000			 AREA	 |.rdata|, DATA, READONLY
|??_C@_1CE@HIAJIGGL@?$AAD?$AAP?$AAL?$AAL?$AA4?$AA_?$AAC?$AAL?$AAL?$AAO?$AAU?$AAT?$AA_?$AAM?$AA6?$AAX?$AA2?$AA?$AA@| DCB "D"
	DCB	0x0, "P", 0x0, "L", 0x0, "L", 0x0, "4", 0x0, "_", 0x0, "C"
	DCB	0x0, "L", 0x0, "L", 0x0, "O", 0x0, "U", 0x0, "T", 0x0, "_"
	DCB	0x0, "M", 0x0, "6", 0x0, "X", 0x0, "2", 0x0, 0x0, 0x0 ; `string'

  00000			 AREA	 |.rdata|, DATA, READONLY
|??_C@_1CE@PGIGIBII@?$AAD?$AAP?$AAL?$AAL?$AA4?$AA_?$AAC?$AAL?$AAL?$AAO?$AAU?$AAT?$AA_?$AAM?$AA5?$AAX?$AA2?$AA?$AA@| DCB "D"
	DCB	0x0, "P", 0x0, "L", 0x0, "L", 0x0, "4", 0x0, "_", 0x0, "C"
	DCB	0x0, "L", 0x0, "L", 0x0, "O", 0x0, "U", 0x0, "T", 0x0, "_"
	DCB	0x0, "M", 0x0, "5", 0x0, "X", 0x0, "2", 0x0, 0x0, 0x0 ; `string'

  00000			 AREA	 |.rdata|, DATA, READONLY
|??_C@_1CE@DKCMIBBG@?$AAD?$AAP?$AAL?$AAL?$AA4?$AA_?$AAC?$AAL?$AAL?$AAO?$AAU?$AAT?$AA_?$AAM?$AA4?$AAX?$AA2?$AA?$AA@| DCB "D"
	DCB	0x0, "P", 0x0, "L", 0x0, "L", 0x0, "4", 0x0, "_", 0x0, "C"
	DCB	0x0, "L", 0x0, "L", 0x0, "O", 0x0, "U", 0x0, "T", 0x0, "_"
	DCB	0x0, "M", 0x0, "4", 0x0, "X", 0x0, "2", 0x0, 0x0, 0x0 ; `string'

  00000			 AREA	 |.rdata|, DATA, READONLY
|??_C@_1CE@DAOJIIAP@?$AAD?$AAP?$AAL?$AAL?$AA4?$AA_?$AAC?$AAL?$AAL?$AAO?$AAU?$AAT?$AA_?$AAM?$AA3?$AAX?$AA2?$AA?$AA@| DCB "D"
	DCB	0x0, "P", 0x0, "L", 0x0, "L", 0x0, "4", 0x0, "_", 0x0, "C"
	DCB	0x0, "L", 0x0, "L", 0x0, "O", 0x0, "U", 0x0, "T", 0x0, "_"
	DCB	0x0, "M", 0x0, "3", 0x0, "X", 0x0, "2", 0x0, 0x0, 0x0 ; `string'

  00000			 AREA	 |.rdata|, DATA, READONLY
|??_C@_1CE@PMEDIIJB@?$AAD?$AAP?$AAL?$AAL?$AA4?$AA_?$AAC?$AAL?$AAL?$AAO?$AAU?$AAT?$AA_?$AAM?$AA2?$AAX?$AA2?$AA?$AA@| DCB "D"
	DCB	0x0, "P", 0x0, "L", 0x0, "L", 0x0, "4", 0x0, "_", 0x0, "C"
	DCB	0x0, "L", 0x0, "L", 0x0, "O", 0x0, "U", 0x0, "T", 0x0, "_"
	DCB	0x0, "M", 0x0, "2", 0x0, "X", 0x0, "2", 0x0, 0x0, 0x0 ; `string'

  00000			 AREA	 |.rdata|, DATA, READONLY
|??_C@_1CE@DEOAHLFM@?$AAD?$AAP?$AAL?$AAL?$AA3?$AA_?$AAC?$AAL?$AAL?$AAO?$AAU?$AAT?$AA_?$AAM?$AA3?$AAX?$AA2?$AA?$AA@| DCB "D"
	DCB	0x0, "P", 0x0, "L", 0x0, "L", 0x0, "3", 0x0, "_", 0x0, "C"
	DCB	0x0, "L", 0x0, "L", 0x0, "O", 0x0, "U", 0x0, "T", 0x0, "_"
	DCB	0x0, "M", 0x0, "3", 0x0, "X", 0x0, "2", 0x0, 0x0, 0x0 ; `string'

  00000			 AREA	 |.rdata|, DATA, READONLY
|??_C@_1CE@PIEKHLMC@?$AAD?$AAP?$AAL?$AAL?$AA3?$AA_?$AAC?$AAL?$AAL?$AAO?$AAU?$AAT?$AA_?$AAM?$AA2?$AAX?$AA2?$AA?$AA@| DCB "D"
	DCB	0x0, "P", 0x0, "L", 0x0, "L", 0x0, "3", 0x0, "_", 0x0, "C"
	DCB	0x0, "L", 0x0, "L", 0x0, "O", 0x0, "U", 0x0, "T", 0x0, "_"
	DCB	0x0, "M", 0x0, "2", 0x0, "X", 0x0, "2", 0x0, 0x0, 0x0 ; `string'

  00000			 AREA	 |.rdata|, DATA, READONLY
|??_C@_1CA@OCEGFOPM@?$AAD?$AAP?$AAL?$AAL?$AA3?$AA_?$AAC?$AAL?$AAL?$AAO?$AAU?$AAT?$AA_?$AAM?$AA2?$AA?$AA@| DCB "D"
	DCB	0x0, "P", 0x0, "L", 0x0, "L", 0x0, "3", 0x0, "_", 0x0, "C"
	DCB	0x0, "L", 0x0, "L", 0x0, "O", 0x0, "U", 0x0, "T", 0x0, "_"
	DCB	0x0, "M", 0x0, "2", 0x0, 0x0, 0x0	; `string'

  00000			 AREA	 |.rdata|, DATA, READONLY
|??_C@_1CA@GDGDDLNL@?$AAD?$AAP?$AAL?$AAL?$AA2?$AA_?$AAC?$AAL?$AAL?$AAO?$AAU?$AAT?$AA_?$AAM?$AA2?$AA?$AA@| DCB "D"
	DCB	0x0, "P", 0x0, "L", 0x0, "L", 0x0, "2", 0x0, "_", 0x0, "C"
	DCB	0x0, "L", 0x0, "L", 0x0, "O", 0x0, "U", 0x0, "T", 0x0, "_"
	DCB	0x0, "M", 0x0, "2", 0x0, 0x0, 0x0	; `string'

  00000			 AREA	 |.rdata|, DATA, READONLY
|??_C@_1CE@PLCBIBPI@?$AAD?$AAP?$AAL?$AAL?$AA1?$AA_?$AAC?$AAL?$AAL?$AAO?$AAU?$AAT?$AA_?$AAM?$AA2?$AAX?$AA2?$AA?$AA@| DCB "D"
	DCB	0x0, "P", 0x0, "L", 0x0, "L", 0x0, "1", 0x0, "_", 0x0, "C"
	DCB	0x0, "L", 0x0, "L", 0x0, "O", 0x0, "U", 0x0, "T", 0x0, "_"
	DCB	0x0, "M", 0x0, "2", 0x0, "X", 0x0, "2", 0x0, 0x0, 0x0 ; `string'

  00000			 AREA	 |.rdata|, DATA, READONLY
|??_C@_1BE@DGOIGLBD@?$AAE?$AAX?$AAT?$AA_?$AA3?$AA2?$AAL?$AAH?$AAZ?$AA?$AA@| DCB "E"
	DCB	0x0, "X", 0x0, "T", 0x0, "_", 0x0, "3", 0x0, "2", 0x0, "L"
	DCB	0x0, "H", 0x0, "Z", 0x0, 0x0, 0x0	; `string'

  00000			 AREA	 |.data|, DATA
|?_rgDeviceClockNames@@3PAPBGA| DCD |??_C@_1BO@NBJEMBCN@?$AAD?$AAP?$AAL?$AAL?$AA1?$AA_?$AAM?$AA2?$AAX?$AA2?$AA_?$AAC?$AAL?$AAK?$AA?$AA@| ; _rgDeviceClockNames
	DCD	|??_C@_1BK@MLNJDMKG@?$AAD?$AAP?$AAL?$AAL?$AA2?$AA_?$AAM?$AA2?$AA_?$AAC?$AAL?$AAK?$AA?$AA@|
	DCD	|??_C@_1BC@NNFMMOEA@?$AAC?$AAO?$AAR?$AAE?$AA_?$AAC?$AAL?$AAK?$AA?$AA@|
	DCD	|??_C@_1BG@BPJIAMGI@?$AAC?$AAO?$AAR?$AAE?$AAX?$AA2?$AA_?$AAC?$AAL?$AAK?$AA?$AA@|
	DCD	|??_C@_1CI@IFDBBING@?$AAE?$AAM?$AAU?$AAL?$AA_?$AAC?$AAO?$AAR?$AAE?$AA_?$AAA?$AAL?$AAW?$AAO?$AAN?$AA_?$AAC?$AAL?$AAK?$AA?$AA@|
	DCD	|??_C@_1CE@BJAPKP@?$AAP?$AAR?$AAM?$AA_?$AA9?$AA6?$AAM?$AA_?$AAA?$AAL?$AAW?$AAO?$AAN?$AA_?$AAC?$AAL?$AAK?$AA?$AA@|
	DCD	|??_C@_1BO@DEHFKHHM@?$AAD?$AAP?$AAL?$AAL?$AA4?$AA_?$AAM?$AA3?$AAX?$AA2?$AA_?$AAC?$AAL?$AAK?$AA?$AA@|
	DCD	|??_C@_1CA@OIJIBLMP@?$AAD?$AAS?$AAS?$AA1?$AA_?$AAA?$AAL?$AAW?$AAO?$AAN?$AA_?$AAF?$AAC?$AAL?$AAK?$AA?$AA@|
	DCD	|??_C@_1BC@IIMOEDJ@?$AAC?$AAA?$AAM?$AA_?$AAM?$AAC?$AAL?$AAK?$AA?$AA@|
	DCD	|??_C@_1CG@HFAMOILM@?$AAE?$AAM?$AAU?$AAL?$AA_?$AAP?$AAE?$AAR?$AA_?$AAA?$AAL?$AAW?$AAO?$AAN?$AA_?$AAC?$AAL?$AAK?$AA?$AA@|
	DCD	|??_C@_1BE@FAMLILEH@?$AA1?$AA2?$AA0?$AAM?$AA_?$AAF?$AAC?$AAL?$AAK?$AA?$AA@|
	DCD	|??_C@_1BC@DHGIMHNL@?$AA3?$AA2?$AAK?$AA_?$AAF?$AAC?$AAL?$AAK?$AA?$AA@|
	DCD	|??_C@_1BA@OLOPHJPN@?$AAS?$AAY?$AAS?$AA_?$AAC?$AAL?$AAK?$AA?$AA@|
	DCD	|??_C@_1BG@NCDDCILL@?$AAS?$AAY?$AAS?$AA_?$AAA?$AAL?$AAT?$AAC?$AAL?$AAK?$AA?$AA@|
	DCD	|??_C@_1CA@FJDCLDEP@?$AAS?$AAE?$AAC?$AAU?$AAR?$AAE?$AA_?$AA3?$AA2?$AAK?$AA_?$AAF?$AAC?$AAL?$AAK?$AA?$AA@|
	DCD	|??_C@_1BG@HFLHAJLD@?$AAM?$AAC?$AAB?$AAS?$AAP?$AA_?$AAC?$AAL?$AAK?$AAS?$AA?$AA@|
	DCD	|??_C@_1CA@GFMKNGEM@?$AAU?$AAS?$AAB?$AAT?$AAL?$AAL?$AA_?$AAS?$AAA?$AAR?$AA_?$AAF?$AAC?$AAL?$AAK?$AA?$AA@|
	DCD	|??_C@_1CC@LCLFNMGE@?$AAU?$AAS?$AAB?$AAH?$AAO?$AAS?$AAT?$AA_?$AAS?$AAA?$AAR?$AA_?$AAF?$AAC?$AAL?$AAK?$AA?$AA@|
	DCD	|??_C@_1CC@OKPOAMDL@?$AAE?$AAF?$AAU?$AAS?$AAE?$AA_?$AAA?$AAL?$AAW?$AAO?$AAN?$AA_?$AAF?$AAC?$AAL?$AAK?$AA?$AA@|
	DCD	|??_C@_1BM@OANJENDM@?$AAS?$AAR?$AA_?$AAA?$AAL?$AAW?$AAO?$AAN?$AA_?$AAF?$AAC?$AAL?$AAK?$AA?$AA@|
	DCD	|??_C@_1CC@DHKADFIP@?$AAD?$AAP?$AAL?$AAL?$AA1?$AA_?$AAA?$AAL?$AAW?$AAO?$AAN?$AA_?$AAF?$AAC?$AAL?$AAK?$AA?$AA@|
	DCD	|??_C@_1CC@MFPHNIHH@?$AAD?$AAP?$AAL?$AAL?$AA2?$AA_?$AAA?$AAL?$AAW?$AAO?$AAN?$AA_?$AAF?$AAC?$AAL?$AAK?$AA?$AA@|
	DCD	|??_C@_1CC@CCOKHOOA@?$AAD?$AAP?$AAL?$AAL?$AA3?$AA_?$AAA?$AAL?$AAW?$AAO?$AAN?$AA_?$AAF?$AAC?$AAL?$AAK?$AA?$AA@|
	DCD	|??_C@_1CC@PKCJAFMG@?$AAD?$AAP?$AAL?$AAL?$AA4?$AA_?$AAA?$AAL?$AAW?$AAO?$AAN?$AA_?$AAF?$AAC?$AAL?$AAK?$AA?$AA@|
	DCD	|??_C@_1CC@BNDEKDFB@?$AAD?$AAP?$AAL?$AAL?$AA5?$AA_?$AAA?$AAL?$AAW?$AAO?$AAN?$AA_?$AAF?$AAC?$AAL?$AAK?$AA?$AA@|
	DCD	|??_C@_1BG@LNLDCDGE@?$AAC?$AAM?$AA_?$AAS?$AAY?$AAS?$AA_?$AAC?$AAL?$AAK?$AA?$AA@|
	DCD	|??_C@_1CA@BKMPPGDH@?$AAD?$AAS?$AAS?$AA2?$AA_?$AAA?$AAL?$AAW?$AAO?$AAN?$AA_?$AAF?$AAC?$AAL?$AAK?$AA?$AA@|
	DCD	|??_C@_1BK@FBDDKDFJ@?$AAW?$AAK?$AAU?$AAP?$AA_?$AAL?$AA4?$AA_?$AAI?$AAC?$AAL?$AAK?$AA?$AA@|
	DCD	|??_C@_1BG@ENADIBCF@?$AAC?$AAM?$AA_?$AA3?$AA2?$AAK?$AA_?$AAC?$AAL?$AAK?$AA?$AA@|
	DCD	|??_C@_1BM@FOHIOIDD@?$AAC?$AAO?$AAR?$AAE?$AA_?$AA3?$AA2?$AAK?$AA_?$AAF?$AAC?$AAL?$AAK?$AA?$AA@|
	DCD	|??_C@_1BM@LKACNBLP@?$AAW?$AAK?$AAU?$AAP?$AA_?$AA3?$AA2?$AAK?$AA_?$AAF?$AAC?$AAL?$AAK?$AA?$AA@|
	DCD	|??_C@_1CG@DGCMBKPD@?$AAP?$AAE?$AAR?$AA_?$AA3?$AA2?$AAK?$AA_?$AAA?$AAL?$AAW?$AAO?$AAN?$AA_?$AAF?$AAC?$AAL?$AAK?$AA?$AA@|
	DCD	|??_C@_1BO@GNLNKGOK@?$AAC?$AAO?$AAR?$AAE?$AA_?$AA1?$AA2?$AA0?$AAM?$AA_?$AAF?$AAC?$AAL?$AAK?$AA?$AA@|
	DCD	|??_C@_1BI@CCCDNKIA@?$AAC?$AAM?$AA_?$AA9?$AA6?$AAM?$AA_?$AAF?$AAC?$AAL?$AAK?$AA?$AA@|
	DCD	|??_C@_1BO@IOJFFNAE@?$AA9?$AA6?$AAM?$AA_?$AAA?$AAL?$AAW?$AAO?$AAN?$AA_?$AAF?$AAC?$AAL?$AAK?$AA?$AA@|
	DCD	|??_C@_1BA@PCHCMJMF@?$AAL?$AA3?$AA_?$AAI?$AAC?$AAL?$AAK?$AA?$AA@|
	DCD	|??_C@_1BA@JHLPGDAF@?$AAL?$AA4?$AA_?$AAI?$AAC?$AAL?$AAK?$AA?$AA@|
	DCD	|??_C@_1BI@KOPHAGMM@?$AAU?$AAS?$AAB?$AA_?$AAL?$AA4?$AA_?$AAI?$AAC?$AAL?$AAK?$AA?$AA@|
	DCD	|??_C@_1BA@BFCDOHDF@?$AAR?$AAM?$AA_?$AAI?$AAC?$AAL?$AAK?$AA?$AA@|
	DCD	|??_C@_1BG@EDCABOMO@?$AAD?$AAP?$AAL?$AAL?$AA1?$AA_?$AAF?$AAC?$AAL?$AAK?$AA?$AA@|
	DCD	|??_C@_1BG@DPEBDLBF@?$AAD?$AAP?$AAL?$AAL?$AA2?$AA_?$AAF?$AAC?$AAL?$AAK?$AA?$AA@|
	DCD	|??_C@_1BK@HDKLBPBK@?$AAC?$AAO?$AAR?$AAE?$AA_?$AAL?$AA3?$AA_?$AAI?$AAC?$AAL?$AAK?$AA?$AA@|
	DCD	|??_C@_1BK@BGGGLFNK@?$AAC?$AAO?$AAR?$AAE?$AA_?$AAL?$AA4?$AA_?$AAI?$AAC?$AAL?$AAK?$AA?$AA@|
	DCD	|??_C@_1CC@CHLKMKAK@?$AAS?$AAE?$AAC?$AAU?$AAR?$AAI?$AAT?$AAY?$AA_?$AAL?$AA3?$AA_?$AAI?$AAC?$AAL?$AAK?$AA?$AA@|
	DCD	|??_C@_1CE@DEDAIDCP@?$AAS?$AAE?$AAC?$AAU?$AAR?$AAI?$AAT?$AAY?$AA_?$AAL?$AA4?$AA_?$AAI?$AAC?$AAL?$AAK?$AA1?$AA?$AA@|
	DCD	|??_C@_1CE@CGIFCMMB@?$AAS?$AAE?$AAC?$AAU?$AAR?$AAI?$AAT?$AAY?$AA_?$AAL?$AA4?$AA_?$AAI?$AAC?$AAL?$AAK?$AA2?$AA?$AA@|
	DCD	|??_C@_1BI@DJICCMAG@?$AAS?$AAG?$AAX?$AA_?$AAL?$AA3?$AA_?$AAI?$AAC?$AAL?$AAK?$AA?$AA@|
	DCD	|??_C@_1BI@CMLIMPOE@?$AAS?$AAS?$AAI?$AA_?$AAL?$AA4?$AA_?$AAI?$AAC?$AAL?$AAK?$AA?$AA@|
	DCD	|??_C@_1BI@LANFCGHF@?$AAD?$AAS?$AAS?$AA_?$AAL?$AA3?$AA_?$AAI?$AAC?$AAL?$AAK?$AA?$AA@|
	DCD	|??_C@_1BI@NFBIIMLF@?$AAD?$AAS?$AAS?$AA_?$AAL?$AA4?$AA_?$AAI?$AAC?$AAL?$AAK?$AA?$AA@|
	DCD	|??_C@_1BI@PPFEHCIB@?$AAC?$AAA?$AAM?$AA_?$AAL?$AA3?$AA_?$AAI?$AAC?$AAL?$AAK?$AA?$AA@|
	DCD	|??_C@_1BI@JKJJNIEB@?$AAC?$AAA?$AAM?$AA_?$AAL?$AA4?$AA_?$AAI?$AAC?$AAL?$AAK?$AA?$AA@|
	DCD	|??_C@_1CA@FKEOFIIG@?$AAU?$AAS?$AAB?$AAH?$AAO?$AAS?$AAT?$AA_?$AAL?$AA3?$AA_?$AAI?$AAC?$AAL?$AAK?$AA?$AA@|
	DCD	|??_C@_1CA@DPIDPCEG@?$AAU?$AAS?$AAB?$AAH?$AAO?$AAS?$AAT?$AA_?$AAL?$AA4?$AA_?$AAI?$AAC?$AAL?$AAK?$AA?$AA@|
	DCD	|??_C@_1BI@HNBEEGFA@?$AAP?$AAE?$AAR?$AA_?$AAL?$AA4?$AA_?$AAI?$AAC?$AAL?$AAK?$AA?$AA@|
	DCD	|??_C@_1BG@PEENKINJ@?$AAS?$AAR?$AA_?$AAL?$AA4?$AA_?$AAI?$AAC?$AAL?$AAK?$AA?$AA@|
	DCD	|??_C@_1BK@BHGLEGNI@?$AAS?$AAS?$AAI?$AA_?$AAS?$AAS?$AAR?$AA_?$AAF?$AAC?$AAL?$AAK?$AA?$AA@|
	DCD	|??_C@_1BK@OPKJANGO@?$AAS?$AAS?$AAI?$AA_?$AAS?$AAS?$AAT?$AA_?$AAF?$AAC?$AAL?$AAK?$AA?$AA@|
	DCD	|??_C@_1BM@GAAOCKIN@?$AAC?$AAO?$AAR?$AAE?$AA_?$AA9?$AA6?$AAM?$AA_?$AAF?$AAC?$AAL?$AAK?$AA?$AA@|
	DCD	|??_C@_1BK@NNGOBGJD@?$AAD?$AAS?$AAS?$AA_?$AA9?$AA6?$AAM?$AA_?$AAF?$AAC?$AAL?$AAK?$AA?$AA@|
	DCD	|??_C@_1BM@MOGGOFDJ@?$AAC?$AAS?$AAI?$AA2?$AA_?$AA9?$AA6?$AAM?$AA_?$AAF?$AAC?$AAL?$AAK?$AA?$AA@|
	DCD	|??_C@_1BM@LDCHBDMN@?$AAC?$AAO?$AAR?$AAE?$AA_?$AA4?$AA8?$AAM?$AA_?$AAF?$AAC?$AAL?$AAK?$AA?$AA@|
	DCD	|??_C@_1CC@IGGLCLAN@?$AAU?$AAS?$AAB?$AAH?$AAO?$AAS?$AAT?$AA_?$AA4?$AA8?$AAM?$AA_?$AAF?$AAC?$AAL?$AAK?$AA?$AA@|
	DCD	|??_C@_1BK@FGPPKLNI@?$AAP?$AAE?$AAR?$AA_?$AA4?$AA8?$AAM?$AA_?$AAF?$AAC?$AAL?$AAK?$AA?$AA@|
	DCD	|??_C@_1BC@MKHOOHOO@?$AA1?$AA2?$AAM?$AA_?$AAF?$AAC?$AAL?$AAK?$AA?$AA@|
	DCD	|??_C@_1BM@KDGOMIAG@?$AAC?$AAO?$AAR?$AAE?$AA_?$AA1?$AA2?$AAM?$AA_?$AAF?$AAC?$AAL?$AAK?$AA?$AA@|
	DCD	|??_C@_1BI@NMJEDNGN@?$AAD?$AAS?$AAS?$AA_?$AAT?$AAV?$AA_?$AAF?$AAC?$AAL?$AAK?$AA?$AA@|
	DCD	|??_C@_1CE@IOEFPMHG@?$AAU?$AAS?$AAB?$AAH?$AAO?$AAS?$AAT?$AA_?$AA1?$AA2?$AA0?$AAM?$AA_?$AAF?$AAC?$AAL?$AAK?$AA?$AA@|
	DCD	|??_C@_1BI@LIDNGNBB@?$AAC?$AAM?$AA_?$AAU?$AAS?$AAI?$AAM?$AA_?$AAC?$AAL?$AAK?$AA?$AA@|
	DCD	|??_C@_1BE@DLKGFDHF@?$AAU?$AAS?$AAI?$AAM?$AA_?$AAF?$AAC?$AAL?$AAK?$AA?$AA@|
	DCD	|??_C@_1BC@JBOAFGF@?$AA9?$AA6?$AAM?$AA_?$AAF?$AAC?$AAL?$AAK?$AA?$AA@|
	DCD	|??_C@_1BC@NKDHDMCF@?$AA4?$AA8?$AAM?$AA_?$AAF?$AAC?$AAL?$AAK?$AA?$AA@|
	DCD	|??_C@_1BC@JCEHFJAM@?$AA5?$AA4?$AAM?$AA_?$AAF?$AAC?$AAL?$AAK?$AA?$AA@|
	DCD	|??_C@_1BC@GPEPHIDD@?$AAS?$AAG?$AAX?$AA_?$AAF?$AAC?$AAL?$AAK?$AA?$AA@|
	DCD	|??_C@_1BE@NENPANBB@?$AAG?$AAP?$AAT?$AA1?$AA_?$AAF?$AAC?$AAL?$AAK?$AA?$AA@|
	DCD	|??_C@_1CA@JDHICIMD@?$AAG?$AAP?$AAT?$AA2?$AA_?$AAA?$AAL?$AAW?$AAO?$AAN?$AA_?$AAF?$AAC?$AAL?$AAK?$AA?$AA@|
	DCD	|??_C@_1CA@HEGFIOFE@?$AAG?$AAP?$AAT?$AA3?$AA_?$AAA?$AAL?$AAW?$AAO?$AAN?$AA_?$AAF?$AAC?$AAL?$AAK?$AA?$AA@|
	DCD	|??_C@_1CA@KMKGPFHC@?$AAG?$AAP?$AAT?$AA4?$AA_?$AAA?$AAL?$AAW?$AAO?$AAN?$AA_?$AAF?$AAC?$AAL?$AAK?$AA?$AA@|
	DCD	|??_C@_1CA@ELLLFDOF@?$AAG?$AAP?$AAT?$AA5?$AA_?$AAA?$AAL?$AAW?$AAO?$AAN?$AA_?$AAF?$AAC?$AAL?$AAK?$AA?$AA@|
	DCD	|??_C@_1CA@LJOMLOBN@?$AAG?$AAP?$AAT?$AA6?$AA_?$AAA?$AAL?$AAW?$AAO?$AAN?$AA_?$AAF?$AAC?$AAL?$AAK?$AA?$AA@|
	DCD	|??_C@_1CA@FOPBBIIK@?$AAG?$AAP?$AAT?$AA7?$AA_?$AAA?$AAL?$AAW?$AAO?$AAN?$AA_?$AAF?$AAC?$AAL?$AAK?$AA?$AA@|
	DCD	|??_C@_1CA@NDBLEOBA@?$AAG?$AAP?$AAT?$AA8?$AA_?$AAA?$AAL?$AAW?$AAO?$AAN?$AA_?$AAF?$AAC?$AAL?$AAK?$AA?$AA@|
	DCD	|??_C@_1CA@DEAGOIIH@?$AAG?$AAP?$AAT?$AA9?$AA_?$AAA?$AAL?$AAW?$AAO?$AAN?$AA_?$AAF?$AAC?$AAL?$AAK?$AA?$AA@|
	DCD	|??_C@_1BG@IIJFBKM@?$AAG?$AAP?$AAT?$AA1?$AA0?$AA_?$AAF?$AAC?$AAL?$AAK?$AA?$AA@|
	DCD	|??_C@_1BG@JFIGLANK@?$AAG?$AAP?$AAT?$AA1?$AA1?$AA_?$AAF?$AAC?$AAL?$AAK?$AA?$AA@|
	DCD	0x0
|?_rgDpllClockNames@@3PAPBGA| DCD |??_C@_1BE@DGOIGLBD@?$AAE?$AAX?$AAT?$AA_?$AA3?$AA2?$AAL?$AAH?$AAZ?$AA?$AA@| ; _rgDpllClockNames
	DCD	|??_C@_1CE@PLCBIBPI@?$AAD?$AAP?$AAL?$AAL?$AA1?$AA_?$AAC?$AAL?$AAL?$AAO?$AAU?$AAT?$AA_?$AAM?$AA2?$AAX?$AA2?$AA?$AA@|
	DCD	|??_C@_1CA@GDGDDLNL@?$AAD?$AAP?$AAL?$AAL?$AA2?$AA_?$AAC?$AAL?$AAL?$AAO?$AAU?$AAT?$AA_?$AAM?$AA2?$AA?$AA@|
	DCD	|??_C@_1CA@OCEGFOPM@?$AAD?$AAP?$AAL?$AAL?$AA3?$AA_?$AAC?$AAL?$AAL?$AAO?$AAU?$AAT?$AA_?$AAM?$AA2?$AA?$AA@|
	DCD	|??_C@_1CE@PIEKHLMC@?$AAD?$AAP?$AAL?$AAL?$AA3?$AA_?$AAC?$AAL?$AAL?$AAO?$AAU?$AAT?$AA_?$AAM?$AA2?$AAX?$AA2?$AA?$AA@|
	DCD	|??_C@_1CE@DEOAHLFM@?$AAD?$AAP?$AAL?$AAL?$AA3?$AA_?$AAC?$AAL?$AAL?$AAO?$AAU?$AAT?$AA_?$AAM?$AA3?$AAX?$AA2?$AA?$AA@|
	DCD	|??_C@_1CE@PMEDIIJB@?$AAD?$AAP?$AAL?$AAL?$AA4?$AA_?$AAC?$AAL?$AAL?$AAO?$AAU?$AAT?$AA_?$AAM?$AA2?$AAX?$AA2?$AA?$AA@|
	DCD	|??_C@_1CE@DAOJIIAP@?$AAD?$AAP?$AAL?$AAL?$AA4?$AA_?$AAC?$AAL?$AAL?$AAO?$AAU?$AAT?$AA_?$AAM?$AA3?$AAX?$AA2?$AA?$AA@|
	DCD	|??_C@_1CE@DKCMIBBG@?$AAD?$AAP?$AAL?$AAL?$AA4?$AA_?$AAC?$AAL?$AAL?$AAO?$AAU?$AAT?$AA_?$AAM?$AA4?$AAX?$AA2?$AA?$AA@|
	DCD	|??_C@_1CE@PGIGIBII@?$AAD?$AAP?$AAL?$AAL?$AA4?$AA_?$AAC?$AAL?$AAL?$AAO?$AAU?$AAT?$AA_?$AAM?$AA5?$AAX?$AA2?$AA?$AA@|
	DCD	|??_C@_1CE@HIAJIGGL@?$AAD?$AAP?$AAL?$AAL?$AA4?$AA_?$AAC?$AAL?$AAL?$AAO?$AAU?$AAT?$AA_?$AAM?$AA6?$AAX?$AA2?$AA?$AA@|
	DCD	|??_C@_1CA@FCHLAMKM@?$AAD?$AAP?$AAL?$AAL?$AA5?$AA_?$AAC?$AAL?$AAL?$AAO?$AAU?$AAT?$AA_?$AAM?$AA2?$AA?$AA@|
	DCD	|??_C@_1BI@NEMFOGAA@?$AAE?$AAX?$AAT?$AA_?$AAS?$AAY?$AAS?$AA_?$AAC?$AAL?$AAL?$AA?$AA@|
	DCD	|??_C@_1BA@PNJBGGMK@?$AAE?$AAX?$AAT?$AA_?$AAA?$AAL?$AAT?$AA?$AA@|
	DCD	|??_C@_1BC@FDLMCPLJ@?$AAE?$AAX?$AAT?$AA_?$AAM?$AAI?$AAS?$AAC?$AA?$AA@|
	DCD	|??_C@_1BA@OOAHAPIC@?$AAI?$AAN?$AAT?$AA_?$AAO?$AAS?$AAC?$AA?$AA@|
|?_rgDpllNames@@3PAPBGA| DCD |??_C@_1BC@KMFBFJEN@?$AAE?$AAx?$AAt?$AAe?$AAr?$AAn?$AAa?$AAl?$AA?$AA@| ; _rgDpllNames
	DCD	|??_C@_1M@EAGELBCG@?$AAD?$AAP?$AAL?$AAL?$AA1?$AA?$AA@|
	DCD	|??_C@_1M@FCNBBOMI@?$AAD?$AAP?$AAL?$AAL?$AA2?$AA?$AA@|
	DCD	|??_C@_1M@OKGNHJKN@?$AAD?$AAP?$AAL?$AAL?$AA3?$AA?$AA@|
	DCD	|??_C@_1M@HHLKEBBE@?$AAD?$AAP?$AAL?$AAL?$AA4?$AA?$AA@|
	DCD	|??_C@_1M@MPAGCGHB@?$AAD?$AAP?$AAL?$AAL?$AA5?$AA?$AA@|
|?_rgVddNames@@3PAPBGA| DCD |??_C@_1BC@KMFBFJEN@?$AAE?$AAx?$AAt?$AAe?$AAr?$AAn?$AAa?$AAl?$AA?$AA@| ; _rgVddNames
	DCD	|??_C@_19NJPGHKCP@?$AAV?$AAD?$AAD?$AA1?$AA?$AA@|
	DCD	|??_C@_19MLEDNFMB@?$AAV?$AAD?$AAD?$AA2?$AA?$AA@|
	DCD	|??_C@_19HDPPLCKE@?$AAV?$AAD?$AAD?$AA3?$AA?$AA@|
	DCD	|??_C@_19OOCIIKBN@?$AAV?$AAD?$AAD?$AA4?$AA?$AA@|
	DCD	|??_C@_19FGJEONHI@?$AAV?$AAD?$AAD?$AA5?$AA?$AA@|
	DCD	|??_C@_19EINJEFKH@?$AAV?$AAD?$AAD?$AAS?$AA?$AA@|
	DCD	|??_C@_1O@KJMHPDBC@?$AAV?$AAD?$AAD?$AAP?$AAL?$AAL?$AA?$AA@|
	DCD	|??_C@_1BA@HCPGGPNM@?$AAV?$AAD?$AAD?$AAA?$AAD?$AAA?$AAC?$AA?$AA@|
|?_rgVddMap@@3PAPBGA| DCD |??_C@_19NJPGHKCP@?$AAV?$AAD?$AAD?$AA1?$AA?$AA@| ; _rgVddMap
	DCD	|??_C@_19MLEDNFMB@?$AAV?$AAD?$AAD?$AA2?$AA?$AA@|
	DCD	|??_C@_19HDPPLCKE@?$AAV?$AAD?$AAD?$AA3?$AA?$AA@|
	DCD	|??_C@_19OOCIIKBN@?$AAV?$AAD?$AAD?$AA4?$AA?$AA@|
	DCD	|??_C@_19FGJEONHI@?$AAV?$AAD?$AAD?$AA5?$AA?$AA@|
	DCD	|??_C@_1BA@GOCMOCGM@?$AAV?$AAD?$AAD?$AA_?$AAE?$AAX?$AAT?$AA?$AA@|
	DCD	|??_C@_19EINJEFKH@?$AAV?$AAD?$AAD?$AAS?$AA?$AA@|
	DCD	|??_C@_1O@KJMHPDBC@?$AAV?$AAD?$AAD?$AAP?$AAL?$AAL?$AA?$AA@|
	DCD	|??_C@_1BA@HCPGGPNM@?$AAV?$AAD?$AAD?$AAA?$AAD?$AAA?$AAC?$AA?$AA@|
	DCD	|??_C@_1BC@NBGNPOOD@?$AAM?$AAM?$AAC?$AA_?$AAV?$AAD?$AAD?$AAS?$AA?$AA@|
	DCD	0x0
|?_rgOmapDeviceMap@@3PAUOMAP_CLOCK_MAP@@A| DCD 0x0	; _rgOmapDeviceMap
	DCD	|??_C@_17CNHCLJFN@?$AAS?$AAS?$AAI?$AA?$AA@|
	DCD	0x1
	DCD	|??_C@_19CLGGDIPK@?$AAS?$AAD?$AAR?$AAC?$AA?$AA@|
	DCD	0x2
	DCD	|??_C@_17GKMOIFEN@?$AAD?$AA2?$AAD?$AA?$AA@|
	DCD	0x3
	DCD	|??_C@_1BC@CGFOLLKI@?$AAH?$AAS?$AAO?$AAT?$AAG?$AAU?$AAS?$AAB?$AA?$AA@|
	DCD	0x4
	DCD	|??_C@_1BC@CHIKBDHE@?$AAO?$AAM?$AAA?$AAP?$AAC?$AAT?$AAR?$AAL?$AA?$AA@|
	DCD	0x5
	DCD	|??_C@_1BE@NBCDMBC@?$AAM?$AAA?$AAI?$AAL?$AAB?$AAO?$AAX?$AAE?$AAS?$AA?$AA@|
	DCD	0x6
	DCD	|??_C@_1O@JKAFNABJ@?$AAM?$AAC?$AAB?$AAS?$AAP?$AA1?$AA?$AA@|
	DCD	0x7
	DCD	|??_C@_1O@BFGHEHEO@?$AAM?$AAC?$AAB?$AAS?$AAP?$AA5?$AA?$AA@|
	DCD	0x8
	DCD	|??_C@_1BE@LNGOGADF@?$AAG?$AAP?$AAT?$AAI?$AAM?$AAE?$AAR?$AA1?$AA0?$AA?$AA@|
	DCD	0x9
	DCD	|??_C@_1BE@FNCAHFA@?$AAG?$AAP?$AAT?$AAI?$AAM?$AAE?$AAR?$AA1?$AA1?$AA?$AA@|
	DCD	0xa
	DCD	|??_C@_1M@JJABFJIM@?$AAU?$AAA?$AAR?$AAT?$AA1?$AA?$AA@|
	DCD	0xb
	DCD	|??_C@_1M@ILLEPGGC@?$AAU?$AAA?$AAR?$AAT?$AA2?$AA?$AA@|
	DCD	0xc
	DCD	|??_C@_19HIGJAIOF@?$AAI?$AA2?$AAC?$AA1?$AA?$AA@|
	DCD	0xd
	DCD	|??_C@_19GKNMKHAL@?$AAI?$AA2?$AAC?$AA2?$AA?$AA@|
	DCD	0xe
	DCD	|??_C@_19NCGAMAGO@?$AAI?$AA2?$AAC?$AA3?$AA?$AA@|
	DCD	0xf
	DCD	|??_C@_1O@PIDPGOHP@?$AAM?$AAC?$AAS?$AAP?$AAI?$AA1?$AA?$AA@|
	DCD	0x10
	DCD	|??_C@_1O@OKIKMBJB@?$AAM?$AAC?$AAS?$AAP?$AAI?$AA2?$AA?$AA@|
	DCD	0x11
	DCD	|??_C@_1O@FCDGKGPE@?$AAM?$AAC?$AAS?$AAP?$AAI?$AA3?$AA?$AA@|
	DCD	0x12
	DCD	|??_C@_1O@MPOBJOEN@?$AAM?$AAC?$AAS?$AAP?$AAI?$AA4?$AA?$AA@|
	DCD	0x13
	DCD	|??_C@_17IHNNNJHD@?$AAH?$AAD?$AAQ?$AA?$AA@|
	DCD	0x14
	DCD	|??_C@_1M@KPNCKAJE@?$AAM?$AAS?$AAP?$AAR?$AAO?$AA?$AA@|
	DCD	0x15
	DCD	|??_C@_19EPCCLKD@?$AAM?$AAM?$AAC?$AA1?$AA?$AA@|
	DCD	0x16
	DCD	|??_C@_19BGEHIEEN@?$AAM?$AAM?$AAC?$AA2?$AA?$AA@|
	DCD	0x17
	DCD	|??_C@_19KOPLODCI@?$AAM?$AAM?$AAC?$AA3?$AA?$AA@|
	DCD	0x18
	DCD	|??_C@_19DKGBLGKJ@?$AAD?$AAE?$AAS?$AA2?$AA?$AA@|
	DCD	0x19
	DCD	|??_C@_1M@DCJBNAGJ@?$AAS?$AAH?$AAA?$AA1?$AA2?$AA?$AA@|
	DCD	0x1a
	DCD	|??_C@_19NMEIHNON@?$AAA?$AAE?$AAS?$AA2?$AA?$AA@|
	DCD	0x1b
	DCD	|??_C@_17EEMHEGLL@?$AAI?$AAC?$AAR?$AA?$AA@|
	DCD	0x1c
	DCD	|??_C@_19CINEBJEH@?$AAD?$AAE?$AAS?$AA1?$AA?$AA@|
	DCD	0x1d
	DCD	|??_C@_1M@CACEHPIH@?$AAS?$AAH?$AAA?$AA1?$AA1?$AA?$AA@|
	DCD	0x1e
	DCD	|??_C@_17LOEPNPLF@?$AAR?$AAN?$AAG?$AA?$AA@|
	DCD	0x1f
	DCD	|??_C@_19MOPNNCAD@?$AAA?$AAE?$AAS?$AA1?$AA?$AA@|
	DCD	0x20
	DCD	|??_C@_17IJMMBGKH@?$AAP?$AAK?$AAA?$AA?$AA@|
	DCD	0x21
	DCD	|??_C@_1O@CEHCKMAH@?$AAU?$AAS?$AAB?$AAT?$AAL?$AAL?$AA?$AA@|
	DCD	0x22
	DCD	|??_C@_15JKLEPB@?$AAT?$AAS?$AA?$AA@|
	DCD	0x23
	DCD	|??_C@_1O@DDNPEFEM@?$AAE?$AAF?$AAU?$AAL?$AAS?$AAE?$AA?$AA@|
	DCD	0x24
	DCD	|??_C@_1BC@JLJLDNJE@?$AAG?$AAP?$AAT?$AAI?$AAM?$AAE?$AAR?$AA1?$AA?$AA@|
	DCD	0x25
	DCD	|??_C@_1BE@BHGHKILO@?$AAG?$AAP?$AAT?$AAI?$AAM?$AAE?$AAR?$AA1?$AA2?$AA?$AA@|
	DCD	0x26
	DCD	|??_C@_1BA@GEGEJPDF@?$AA3?$AA2?$AAK?$AAS?$AAY?$AAN?$AAC?$AA?$AA@|
	DCD	0x27
	DCD	|??_C@_19DFOCBDIK@?$AAW?$AAD?$AAT?$AA1?$AA?$AA@|
	DCD	0x28
	DCD	|??_C@_19CHFHLMGE@?$AAW?$AAD?$AAT?$AA2?$AA?$AA@|
	DCD	0x29
	DCD	|??_C@_1M@PJIOBPBM@?$AAG?$AAP?$AAI?$AAO?$AA1?$AA?$AA@|
	DCD	0x2a
	DCD	|??_C@_17EIKFOCIL@?$AAS?$AAR?$AA1?$AA?$AA@|
	DCD	0x2b
	DCD	|??_C@_17FKBAENGF@?$AAS?$AAR?$AA2?$AA?$AA@|
	DCD	0x2c
	DCD	|??_C@_19NJMIPFOE@?$AAU?$AAS?$AAI?$AAM?$AA?$AA@|
	DCD	0x2d
	DCD	|??_C@_1M@OLDLLAPC@?$AAG?$AAP?$AAI?$AAO?$AA2?$AA?$AA@|
	DCD	0x2e
	DCD	|??_C@_1M@FDIHNHJH@?$AAG?$AAP?$AAI?$AAO?$AA3?$AA?$AA@|
	DCD	0x2f
	DCD	|??_C@_1M@MOFAOPCO@?$AAG?$AAP?$AAI?$AAO?$AA4?$AA?$AA@|
	DCD	0x30
	DCD	|??_C@_1M@HGOMIIEL@?$AAG?$AAP?$AAI?$AAO?$AA5?$AA?$AA@|
	DCD	0x31
	DCD	|??_C@_1M@GEFJCHKF@?$AAG?$AAP?$AAI?$AAO?$AA6?$AA?$AA@|
	DCD	0x32
	DCD	|??_C@_1O@IILAHPPH@?$AAM?$AAC?$AAB?$AAS?$AAP?$AA2?$AA?$AA@|
	DCD	0x33
	DCD	|??_C@_1O@DAAMBIJC@?$AAM?$AAC?$AAB?$AAS?$AAP?$AA3?$AA?$AA@|
	DCD	0x34
	DCD	|??_C@_1O@KNNLCACL@?$AAM?$AAC?$AAB?$AAS?$AAP?$AA4?$AA?$AA@|
	DCD	0x35
	DCD	|??_C@_1BC@IJCOJCHK@?$AAG?$AAP?$AAT?$AAI?$AAM?$AAE?$AAR?$AA2?$AA?$AA@|
	DCD	0x36
	DCD	|??_C@_1BC@DBJCPFBP@?$AAG?$AAP?$AAT?$AAI?$AAM?$AAE?$AAR?$AA3?$AA?$AA@|
	DCD	0x37
	DCD	|??_C@_1BC@KMEFMNKG@?$AAG?$AAP?$AAT?$AAI?$AAM?$AAE?$AAR?$AA4?$AA?$AA@|
	DCD	0x38
	DCD	|??_C@_1BC@BEPJKKMD@?$AAG?$AAP?$AAT?$AAI?$AAM?$AAE?$AAR?$AA5?$AA?$AA@|
	DCD	0x39
	DCD	|??_C@_1BC@GEMAFCN@?$AAG?$AAP?$AAT?$AAI?$AAM?$AAE?$AAR?$AA6?$AA?$AA@|
	DCD	0x3a
	DCD	|??_C@_1BC@LOPAGCEI@?$AAG?$AAP?$AAT?$AAI?$AAM?$AAE?$AAR?$AA7?$AA?$AA@|
	DCD	0x3b
	DCD	|??_C@_1BC@OGJDHCBO@?$AAG?$AAP?$AAT?$AAI?$AAM?$AAE?$AAR?$AA8?$AA?$AA@|
	DCD	0x3c
	DCD	|??_C@_1BC@FOCPBFHL@?$AAG?$AAP?$AAT?$AAI?$AAM?$AAE?$AAR?$AA9?$AA?$AA@|
	DCD	0x3d
	DCD	|??_C@_1M@DDAIJBAH@?$AAU?$AAA?$AAR?$AAT?$AA3?$AA?$AA@|
	DCD	0x3e
	DCD	|??_C@_19JPOLNLAB@?$AAW?$AAD?$AAT?$AA3?$AA?$AA@|
	DCD	0x3f
	DCD	|??_C@_17GEKIDGJE@?$AAD?$AAS?$AAS?$AA?$AA@|
	DCD	0x40
	DCD	|??_C@_19JCAACBOL@?$AAD?$AAS?$AAS?$AA1?$AA?$AA@|
	DCD	0x41
	DCD	|??_C@_19IALFIOAF@?$AAD?$AAS?$AAS?$AA2?$AA?$AA@|
	DCD	0x42
	DCD	|??_C@_1M@OHMMHPBM@?$AAT?$AAV?$AAO?$AAU?$AAT?$AA?$AA@|
	DCD	0x43
	DCD	|??_C@_1O@NAINHJLA@?$AAC?$AAA?$AAM?$AAE?$AAR?$AAA?$AA?$AA@|
	DCD	0x44
	DCD	|??_C@_19MACELEIB@?$AAC?$AAS?$AAI?$AA2?$AA?$AA@|
	DCD	0x45
	DCD	|??_C@_17HGBNJJHK@?$AAD?$AAS?$AAP?$AA?$AA@|
	DCD	0x46
	DCD	|??_C@_15BDPJDHJA@?$AA2?$AAD?$AA?$AA@|
	DCD	0x47
	DCD	|??_C@_15NIKFOEDF@?$AA3?$AAD?$AA?$AA@|
	DCD	0x48
	DCD	|??_C@_17FNJAMJCK@?$AAS?$AAG?$AAX?$AA?$AA@|
	DCD	0x4b
	DCD	|??_C@_1BC@PEIJIOME@?$AAU?$AAS?$AAB?$AAH?$AAO?$AAS?$AAT?$AA1?$AA?$AA@|
	DCD	0x4c
	DCD	|??_C@_1BC@OGDMCBCK@?$AAU?$AAS?$AAB?$AAH?$AAO?$AAS?$AAT?$AA2?$AA?$AA@|
	DCD	0x4d
	DCD	|??_C@_1BC@FOIAEGEP@?$AAU?$AAS?$AAB?$AAH?$AAO?$AAS?$AAT?$AA3?$AA?$AA@|
	DCD	0x4f
	DCD	|??_C@_1M@KONPKJLO@?$AAU?$AAA?$AAR?$AAT?$AA4?$AA?$AA@|
	DCD	0xffffffff
	DCD	0x0
|?_rgDpllMap@@3PAPBGA| DCD |??_C@_1M@EAGELBCG@?$AAD?$AAP?$AAL?$AAL?$AA1?$AA?$AA@| ; _rgDpllMap
	DCD	|??_C@_1M@FCNBBOMI@?$AAD?$AAP?$AAL?$AAL?$AA2?$AA?$AA@|
	DCD	|??_C@_1M@OKGNHJKN@?$AAD?$AAP?$AAL?$AAL?$AA3?$AA?$AA@|
	DCD	|??_C@_1M@HHLKEBBE@?$AAD?$AAP?$AAL?$AAL?$AA4?$AA?$AA@|
	DCD	|??_C@_1M@MPAGCGHB@?$AAD?$AAP?$AAL?$AAL?$AA5?$AA?$AA@|
	DCD	|??_C@_1BC@DCGNMADO@?$AAD?$AAP?$AAL?$AAL?$AA_?$AAE?$AAX?$AAT?$AA?$AA@|
	DCD	0x0
	%	4
|?_rgDpllClkOutMap@@3PAPBGA| DCD |??_C@_1BE@DMCNGCAK@?$AAE?$AAX?$AAT?$AA_?$AA3?$AA2?$AAK?$AAH?$AAZ?$AA?$AA@| ; _rgDpllClkOutMap
	DCD	|??_C@_1CE@BKGFCHGL@?$AAD?$AAP?$AAL?$AAL?$AA1?$AA_?$AAC?$AAL?$AAK?$AAO?$AAU?$AAT?$AA_?$AAM?$AA2?$AAX?$AA2?$AA?$AA@|
	DCD	|??_C@_1CA@JOJKMDKO@?$AAD?$AAP?$AAL?$AAL?$AA2?$AA_?$AAC?$AAL?$AAK?$AAO?$AAU?$AAT?$AA_?$AAM?$AA2?$AA?$AA@|
	DCD	|??_C@_1CA@BPLPKGIJ@?$AAD?$AAP?$AAL?$AAL?$AA3?$AA_?$AAC?$AAL?$AAK?$AAO?$AAU?$AAT?$AA_?$AAM?$AA2?$AA?$AA@|
	DCD	|??_C@_1CE@BJAONNFB@?$AAD?$AAP?$AAL?$AAL?$AA3?$AA_?$AAC?$AAL?$AAK?$AAO?$AAU?$AAT?$AA_?$AAM?$AA2?$AAX?$AA2?$AA?$AA@|
	DCD	|??_C@_1CE@NFKENNMP@?$AAD?$AAP?$AAL?$AAL?$AA3?$AA_?$AAC?$AAL?$AAK?$AAO?$AAU?$AAT?$AA_?$AAM?$AA3?$AAX?$AA2?$AA?$AA@|
	DCD	|??_C@_1CE@BNAHCOAC@?$AAD?$AAP?$AAL?$AAL?$AA4?$AA_?$AAC?$AAL?$AAK?$AAO?$AAU?$AAT?$AA_?$AAM?$AA2?$AAX?$AA2?$AA?$AA@|
	DCD	|??_C@_1CE@NBKNCOJM@?$AAD?$AAP?$AAL?$AAL?$AA4?$AA_?$AAC?$AAL?$AAK?$AAO?$AAU?$AAT?$AA_?$AAM?$AA3?$AAX?$AA2?$AA?$AA@|
	DCD	|??_C@_1CE@NLGICHIF@?$AAD?$AAP?$AAL?$AAL?$AA4?$AA_?$AAC?$AAL?$AAK?$AAO?$AAU?$AAT?$AA_?$AAM?$AA4?$AAX?$AA2?$AA?$AA@|
	DCD	|??_C@_1CE@BHMCCHBL@?$AAD?$AAP?$AAL?$AAL?$AA4?$AA_?$AAC?$AAL?$AAK?$AAO?$AAU?$AAT?$AA_?$AAM?$AA5?$AAX?$AA2?$AA?$AA@|
	DCD	|??_C@_1CE@JJENCAPI@?$AAD?$AAP?$AAL?$AAL?$AA4?$AA_?$AAC?$AAL?$AAK?$AAO?$AAU?$AAT?$AA_?$AAM?$AA6?$AAX?$AA2?$AA?$AA@|
	DCD	|??_C@_1CA@KPICPENJ@?$AAD?$AAP?$AAL?$AAL?$AA5?$AA_?$AAC?$AAL?$AAK?$AAO?$AAU?$AAT?$AA_?$AAM?$AA2?$AA?$AA@|
	DCD	|??_C@_1BI@EJBCNOLJ@?$AAE?$AAX?$AAT?$AA_?$AAS?$AAY?$AAS?$AA_?$AAC?$AAL?$AAK?$AA?$AA@|
	DCD	|??_C@_1BA@PNJBGGMK@?$AAE?$AAX?$AAT?$AA_?$AAA?$AAL?$AAT?$AA?$AA@|
	DCD	|??_C@_1BC@FDLMCPLJ@?$AAE?$AAX?$AAT?$AA_?$AAM?$AAI?$AAS?$AAC?$AA?$AA@|
	DCD	|??_C@_1BA@OOAHAPIC@?$AAI?$AAN?$AAT?$AA_?$AAO?$AAS?$AAC?$AA?$AA@|
	DCD	0x0
|?_rgClockMap@@3PAPAPBGA| DCD |?_rgDeviceClockNames@@3PAPBGA| ; _rgClockMap
	DCD	|?_rgDpllClkOutMap@@3PAPBGA|
	DCD	|?_rgDpllMap@@3PAPBGA|
	DCD	|?_rgVddMap@@3PAPBGA|

  00000			 AREA	 |.rdata|, DATA, READONLY
|??_C@_1BG@JFIGLANK@?$AAG?$AAP?$AAT?$AA1?$AA1?$AA_?$AAF?$AAC?$AAL?$AAK?$AA?$AA@| DCB "G"
	DCB	0x0, "P", 0x0, "T", 0x0, "1", 0x0, "1", 0x0, "_", 0x0, "F"
	DCB	0x0, "C", 0x0, "L", 0x0, "K", 0x0, 0x0, 0x0 ; `string'

  00000			 AREA	 |.rdata|, DATA, READONLY
|??_C@_1BG@IIJFBKM@?$AAG?$AAP?$AAT?$AA1?$AA0?$AA_?$AAF?$AAC?$AAL?$AAK?$AA?$AA@| DCB "G"
	DCB	0x0, "P", 0x0, "T", 0x0, "1", 0x0, "0", 0x0, "_", 0x0, "F"
	DCB	0x0, "C", 0x0, "L", 0x0, "K", 0x0, 0x0, 0x0 ; `string'

  00000			 AREA	 |.rdata|, DATA, READONLY
|??_C@_1CA@DEAGOIIH@?$AAG?$AAP?$AAT?$AA9?$AA_?$AAA?$AAL?$AAW?$AAO?$AAN?$AA_?$AAF?$AAC?$AAL?$AAK?$AA?$AA@| DCB "G"
	DCB	0x0, "P", 0x0, "T", 0x0, "9", 0x0, "_", 0x0, "A", 0x0, "L"
	DCB	0x0, "W", 0x0, "O", 0x0, "N", 0x0, "_", 0x0, "F", 0x0, "C"
	DCB	0x0, "L", 0x0, "K", 0x0, 0x0, 0x0	; `string'

  00000			 AREA	 |.rdata|, DATA, READONLY
|??_C@_1CA@NDBLEOBA@?$AAG?$AAP?$AAT?$AA8?$AA_?$AAA?$AAL?$AAW?$AAO?$AAN?$AA_?$AAF?$AAC?$AAL?$AAK?$AA?$AA@| DCB "G"
	DCB	0x0, "P", 0x0, "T", 0x0, "8", 0x0, "_", 0x0, "A", 0x0, "L"
	DCB	0x0, "W", 0x0, "O", 0x0, "N", 0x0, "_", 0x0, "F", 0x0, "C"
	DCB	0x0, "L", 0x0, "K", 0x0, 0x0, 0x0	; `string'

  00000			 AREA	 |.rdata|, DATA, READONLY
|??_C@_1CA@FOPBBIIK@?$AAG?$AAP?$AAT?$AA7?$AA_?$AAA?$AAL?$AAW?$AAO?$AAN?$AA_?$AAF?$AAC?$AAL?$AAK?$AA?$AA@| DCB "G"
	DCB	0x0, "P", 0x0, "T", 0x0, "7", 0x0, "_", 0x0, "A", 0x0, "L"
	DCB	0x0, "W", 0x0, "O", 0x0, "N", 0x0, "_", 0x0, "F", 0x0, "C"
	DCB	0x0, "L", 0x0, "K", 0x0, 0x0, 0x0	; `string'

  00000			 AREA	 |.rdata|, DATA, READONLY
|??_C@_1CA@LJOMLOBN@?$AAG?$AAP?$AAT?$AA6?$AA_?$AAA?$AAL?$AAW?$AAO?$AAN?$AA_?$AAF?$AAC?$AAL?$AAK?$AA?$AA@| DCB "G"
	DCB	0x0, "P", 0x0, "T", 0x0, "6", 0x0, "_", 0x0, "A", 0x0, "L"
	DCB	0x0, "W", 0x0, "O", 0x0, "N", 0x0, "_", 0x0, "F", 0x0, "C"
	DCB	0x0, "L", 0x0, "K", 0x0, 0x0, 0x0	; `string'

  00000			 AREA	 |.rdata|, DATA, READONLY
|??_C@_1CA@ELLLFDOF@?$AAG?$AAP?$AAT?$AA5?$AA_?$AAA?$AAL?$AAW?$AAO?$AAN?$AA_?$AAF?$AAC?$AAL?$AAK?$AA?$AA@| DCB "G"
	DCB	0x0, "P", 0x0, "T", 0x0, "5", 0x0, "_", 0x0, "A", 0x0, "L"
	DCB	0x0, "W", 0x0, "O", 0x0, "N", 0x0, "_", 0x0, "F", 0x0, "C"
	DCB	0x0, "L", 0x0, "K", 0x0, 0x0, 0x0	; `string'

  00000			 AREA	 |.rdata|, DATA, READONLY
|??_C@_1CA@KMKGPFHC@?$AAG?$AAP?$AAT?$AA4?$AA_?$AAA?$AAL?$AAW?$AAO?$AAN?$AA_?$AAF?$AAC?$AAL?$AAK?$AA?$AA@| DCB "G"
	DCB	0x0, "P", 0x0, "T", 0x0, "4", 0x0, "_", 0x0, "A", 0x0, "L"
	DCB	0x0, "W", 0x0, "O", 0x0, "N", 0x0, "_", 0x0, "F", 0x0, "C"
	DCB	0x0, "L", 0x0, "K", 0x0, 0x0, 0x0	; `string'

  00000			 AREA	 |.rdata|, DATA, READONLY
|??_C@_1CA@HEGFIOFE@?$AAG?$AAP?$AAT?$AA3?$AA_?$AAA?$AAL?$AAW?$AAO?$AAN?$AA_?$AAF?$AAC?$AAL?$AAK?$AA?$AA@| DCB "G"
	DCB	0x0, "P", 0x0, "T", 0x0, "3", 0x0, "_", 0x0, "A", 0x0, "L"
	DCB	0x0, "W", 0x0, "O", 0x0, "N", 0x0, "_", 0x0, "F", 0x0, "C"
	DCB	0x0, "L", 0x0, "K", 0x0, 0x0, 0x0	; `string'

  00000			 AREA	 |.rdata|, DATA, READONLY
|??_C@_1CA@JDHICIMD@?$AAG?$AAP?$AAT?$AA2?$AA_?$AAA?$AAL?$AAW?$AAO?$AAN?$AA_?$AAF?$AAC?$AAL?$AAK?$AA?$AA@| DCB "G"
	DCB	0x0, "P", 0x0, "T", 0x0, "2", 0x0, "_", 0x0, "A", 0x0, "L"
	DCB	0x0, "W", 0x0, "O", 0x0, "N", 0x0, "_", 0x0, "F", 0x0, "C"
	DCB	0x0, "L", 0x0, "K", 0x0, 0x0, 0x0	; `string'

  00000			 AREA	 |.rdata|, DATA, READONLY
|??_C@_1BE@NENPANBB@?$AAG?$AAP?$AAT?$AA1?$AA_?$AAF?$AAC?$AAL?$AAK?$AA?$AA@| DCB "G"
	DCB	0x0, "P", 0x0, "T", 0x0, "1", 0x0, "_", 0x0, "F", 0x0, "C"
	DCB	0x0, "L", 0x0, "K", 0x0, 0x0, 0x0	; `string'

  00000			 AREA	 |.rdata|, DATA, READONLY
|??_C@_1BC@GPEPHIDD@?$AAS?$AAG?$AAX?$AA_?$AAF?$AAC?$AAL?$AAK?$AA?$AA@| DCB "S"
	DCB	0x0, "G", 0x0, "X", 0x0, "_", 0x0, "F", 0x0, "C", 0x0, "L"
	DCB	0x0, "K", 0x0, 0x0, 0x0			; `string'

  00000			 AREA	 |.rdata|, DATA, READONLY
|??_C@_1BC@JCEHFJAM@?$AA5?$AA4?$AAM?$AA_?$AAF?$AAC?$AAL?$AAK?$AA?$AA@| DCB "5"
	DCB	0x0, "4", 0x0, "M", 0x0, "_", 0x0, "F", 0x0, "C", 0x0, "L"
	DCB	0x0, "K", 0x0, 0x0, 0x0			; `string'

  00000			 AREA	 |.rdata|, DATA, READONLY
|??_C@_1BC@NKDHDMCF@?$AA4?$AA8?$AAM?$AA_?$AAF?$AAC?$AAL?$AAK?$AA?$AA@| DCB "4"
	DCB	0x0, "8", 0x0, "M", 0x0, "_", 0x0, "F", 0x0, "C", 0x0, "L"
	DCB	0x0, "K", 0x0, 0x0, 0x0			; `string'

  00000			 AREA	 |.rdata|, DATA, READONLY
|??_C@_1BC@JBOAFGF@?$AA9?$AA6?$AAM?$AA_?$AAF?$AAC?$AAL?$AAK?$AA?$AA@| DCB "9"
	DCB	0x0, "6", 0x0, "M", 0x0, "_", 0x0, "F", 0x0, "C", 0x0, "L"
	DCB	0x0, "K", 0x0, 0x0, 0x0			; `string'

  00000			 AREA	 |.rdata|, DATA, READONLY
|??_C@_1BE@DLKGFDHF@?$AAU?$AAS?$AAI?$AAM?$AA_?$AAF?$AAC?$AAL?$AAK?$AA?$AA@| DCB "U"
	DCB	0x0, "S", 0x0, "I", 0x0, "M", 0x0, "_", 0x0, "F", 0x0, "C"
	DCB	0x0, "L", 0x0, "K", 0x0, 0x0, 0x0	; `string'

  00000			 AREA	 |.rdata|, DATA, READONLY
|??_C@_1BI@LIDNGNBB@?$AAC?$AAM?$AA_?$AAU?$AAS?$AAI?$AAM?$AA_?$AAC?$AAL?$AAK?$AA?$AA@| DCB "C"
	DCB	0x0, "M", 0x0, "_", 0x0, "U", 0x0, "S", 0x0, "I", 0x0, "M"
	DCB	0x0, "_", 0x0, "C", 0x0, "L", 0x0, "K", 0x0, 0x0, 0x0 ; `string'

  00000			 AREA	 |.rdata|, DATA, READONLY
|??_C@_1CE@IOEFPMHG@?$AAU?$AAS?$AAB?$AAH?$AAO?$AAS?$AAT?$AA_?$AA1?$AA2?$AA0?$AAM?$AA_?$AAF?$AAC?$AAL?$AAK?$AA?$AA@| DCB "U"
	DCB	0x0, "S", 0x0, "B", 0x0, "H", 0x0, "O", 0x0, "S", 0x0, "T"
	DCB	0x0, "_", 0x0, "1", 0x0, "2", 0x0, "0", 0x0, "M", 0x0, "_"
	DCB	0x0, "F", 0x0, "C", 0x0, "L", 0x0, "K", 0x0, 0x0, 0x0 ; `string'

  00000			 AREA	 |.rdata|, DATA, READONLY
|??_C@_1BI@NMJEDNGN@?$AAD?$AAS?$AAS?$AA_?$AAT?$AAV?$AA_?$AAF?$AAC?$AAL?$AAK?$AA?$AA@| DCB "D"
	DCB	0x0, "S", 0x0, "S", 0x0, "_", 0x0, "T", 0x0, "V", 0x0, "_"
	DCB	0x0, "F", 0x0, "C", 0x0, "L", 0x0, "K", 0x0, 0x0, 0x0 ; `string'

  00000			 AREA	 |.rdata|, DATA, READONLY
|??_C@_1BM@KDGOMIAG@?$AAC?$AAO?$AAR?$AAE?$AA_?$AA1?$AA2?$AAM?$AA_?$AAF?$AAC?$AAL?$AAK?$AA?$AA@| DCB "C"
	DCB	0x0, "O", 0x0, "R", 0x0, "E", 0x0, "_", 0x0, "1", 0x0, "2"
	DCB	0x0, "M", 0x0, "_", 0x0, "F", 0x0, "C", 0x0, "L", 0x0, "K"
	DCB	0x0, 0x0, 0x0				; `string'

  00000			 AREA	 |.rdata|, DATA, READONLY
|??_C@_1BC@MKHOOHOO@?$AA1?$AA2?$AAM?$AA_?$AAF?$AAC?$AAL?$AAK?$AA?$AA@| DCB "1"
	DCB	0x0, "2", 0x0, "M", 0x0, "_", 0x0, "F", 0x0, "C", 0x0, "L"
	DCB	0x0, "K", 0x0, 0x0, 0x0			; `string'

  00000			 AREA	 |.rdata|, DATA, READONLY
|??_C@_1BK@FGPPKLNI@?$AAP?$AAE?$AAR?$AA_?$AA4?$AA8?$AAM?$AA_?$AAF?$AAC?$AAL?$AAK?$AA?$AA@| DCB "P"
	DCB	0x0, "E", 0x0, "R", 0x0, "_", 0x0, "4", 0x0, "8", 0x0, "M"
	DCB	0x0, "_", 0x0, "F", 0x0, "C", 0x0, "L", 0x0, "K", 0x0, 0x0
	DCB	0x0					; `string'

  00000			 AREA	 |.rdata|, DATA, READONLY
|??_C@_1CC@IGGLCLAN@?$AAU?$AAS?$AAB?$AAH?$AAO?$AAS?$AAT?$AA_?$AA4?$AA8?$AAM?$AA_?$AAF?$AAC?$AAL?$AAK?$AA?$AA@| DCB "U"
	DCB	0x0, "S", 0x0, "B", 0x0, "H", 0x0, "O", 0x0, "S", 0x0, "T"
	DCB	0x0, "_", 0x0, "4", 0x0, "8", 0x0, "M", 0x0, "_", 0x0, "F"
	DCB	0x0, "C", 0x0, "L", 0x0, "K", 0x0, 0x0, 0x0 ; `string'

  00000			 AREA	 |.rdata|, DATA, READONLY
|??_C@_1BM@LDCHBDMN@?$AAC?$AAO?$AAR?$AAE?$AA_?$AA4?$AA8?$AAM?$AA_?$AAF?$AAC?$AAL?$AAK?$AA?$AA@| DCB "C"
	DCB	0x0, "O", 0x0, "R", 0x0, "E", 0x0, "_", 0x0, "4", 0x0, "8"
	DCB	0x0, "M", 0x0, "_", 0x0, "F", 0x0, "C", 0x0, "L", 0x0, "K"
	DCB	0x0, 0x0, 0x0				; `string'

  00000			 AREA	 |.rdata|, DATA, READONLY
|??_C@_1BM@MOGGOFDJ@?$AAC?$AAS?$AAI?$AA2?$AA_?$AA9?$AA6?$AAM?$AA_?$AAF?$AAC?$AAL?$AAK?$AA?$AA@| DCB "C"
	DCB	0x0, "S", 0x0, "I", 0x0, "2", 0x0, "_", 0x0, "9", 0x0, "6"
	DCB	0x0, "M", 0x0, "_", 0x0, "F", 0x0, "C", 0x0, "L", 0x0, "K"
	DCB	0x0, 0x0, 0x0				; `string'

  00000			 AREA	 |.rdata|, DATA, READONLY
|??_C@_1BK@NNGOBGJD@?$AAD?$AAS?$AAS?$AA_?$AA9?$AA6?$AAM?$AA_?$AAF?$AAC?$AAL?$AAK?$AA?$AA@| DCB "D"
	DCB	0x0, "S", 0x0, "S", 0x0, "_", 0x0, "9", 0x0, "6", 0x0, "M"
	DCB	0x0, "_", 0x0, "F", 0x0, "C", 0x0, "L", 0x0, "K", 0x0, 0x0
	DCB	0x0					; `string'

  00000			 AREA	 |.rdata|, DATA, READONLY
|??_C@_1BM@GAAOCKIN@?$AAC?$AAO?$AAR?$AAE?$AA_?$AA9?$AA6?$AAM?$AA_?$AAF?$AAC?$AAL?$AAK?$AA?$AA@| DCB "C"
	DCB	0x0, "O", 0x0, "R", 0x0, "E", 0x0, "_", 0x0, "9", 0x0, "6"
	DCB	0x0, "M", 0x0, "_", 0x0, "F", 0x0, "C", 0x0, "L", 0x0, "K"
	DCB	0x0, 0x0, 0x0				; `string'

  00000			 AREA	 |.rdata|, DATA, READONLY
|??_C@_1BK@OPKJANGO@?$AAS?$AAS?$AAI?$AA_?$AAS?$AAS?$AAT?$AA_?$AAF?$AAC?$AAL?$AAK?$AA?$AA@| DCB "S"
	DCB	0x0, "S", 0x0, "I", 0x0, "_", 0x0, "S", 0x0, "S", 0x0, "T"
	DCB	0x0, "_", 0x0, "F", 0x0, "C", 0x0, "L", 0x0, "K", 0x0, 0x0
	DCB	0x0					; `string'

  00000			 AREA	 |.rdata|, DATA, READONLY
|??_C@_1BK@BHGLEGNI@?$AAS?$AAS?$AAI?$AA_?$AAS?$AAS?$AAR?$AA_?$AAF?$AAC?$AAL?$AAK?$AA?$AA@| DCB "S"
	DCB	0x0, "S", 0x0, "I", 0x0, "_", 0x0, "S", 0x0, "S", 0x0, "R"
	DCB	0x0, "_", 0x0, "F", 0x0, "C", 0x0, "L", 0x0, "K", 0x0, 0x0
	DCB	0x0					; `string'

  00000			 AREA	 |.rdata|, DATA, READONLY
|??_C@_1BG@PEENKINJ@?$AAS?$AAR?$AA_?$AAL?$AA4?$AA_?$AAI?$AAC?$AAL?$AAK?$AA?$AA@| DCB "S"
	DCB	0x0, "R", 0x0, "_", 0x0, "L", 0x0, "4", 0x0, "_", 0x0, "I"
	DCB	0x0, "C", 0x0, "L", 0x0, "K", 0x0, 0x0, 0x0 ; `string'

  00000			 AREA	 |.rdata|, DATA, READONLY
|??_C@_1BI@HNBEEGFA@?$AAP?$AAE?$AAR?$AA_?$AAL?$AA4?$AA_?$AAI?$AAC?$AAL?$AAK?$AA?$AA@| DCB "P"
	DCB	0x0, "E", 0x0, "R", 0x0, "_", 0x0, "L", 0x0, "4", 0x0, "_"
	DCB	0x0, "I", 0x0, "C", 0x0, "L", 0x0, "K", 0x0, 0x0, 0x0 ; `string'

  00000			 AREA	 |.rdata|, DATA, READONLY
|??_C@_1CA@DPIDPCEG@?$AAU?$AAS?$AAB?$AAH?$AAO?$AAS?$AAT?$AA_?$AAL?$AA4?$AA_?$AAI?$AAC?$AAL?$AAK?$AA?$AA@| DCB "U"
	DCB	0x0, "S", 0x0, "B", 0x0, "H", 0x0, "O", 0x0, "S", 0x0, "T"
	DCB	0x0, "_", 0x0, "L", 0x0, "4", 0x0, "_", 0x0, "I", 0x0, "C"
	DCB	0x0, "L", 0x0, "K", 0x0, 0x0, 0x0	; `string'

  00000			 AREA	 |.rdata|, DATA, READONLY
|??_C@_1CA@FKEOFIIG@?$AAU?$AAS?$AAB?$AAH?$AAO?$AAS?$AAT?$AA_?$AAL?$AA3?$AA_?$AAI?$AAC?$AAL?$AAK?$AA?$AA@| DCB "U"
	DCB	0x0, "S", 0x0, "B", 0x0, "H", 0x0, "O", 0x0, "S", 0x0, "T"
	DCB	0x0, "_", 0x0, "L", 0x0, "3", 0x0, "_", 0x0, "I", 0x0, "C"
	DCB	0x0, "L", 0x0, "K", 0x0, 0x0, 0x0	; `string'

  00000			 AREA	 |.rdata|, DATA, READONLY
|??_C@_1BI@JKJJNIEB@?$AAC?$AAA?$AAM?$AA_?$AAL?$AA4?$AA_?$AAI?$AAC?$AAL?$AAK?$AA?$AA@| DCB "C"
	DCB	0x0, "A", 0x0, "M", 0x0, "_", 0x0, "L", 0x0, "4", 0x0, "_"
	DCB	0x0, "I", 0x0, "C", 0x0, "L", 0x0, "K", 0x0, 0x0, 0x0 ; `string'

  00000			 AREA	 |.rdata|, DATA, READONLY
|??_C@_1BI@PPFEHCIB@?$AAC?$AAA?$AAM?$AA_?$AAL?$AA3?$AA_?$AAI?$AAC?$AAL?$AAK?$AA?$AA@| DCB "C"
	DCB	0x0, "A", 0x0, "M", 0x0, "_", 0x0, "L", 0x0, "3", 0x0, "_"
	DCB	0x0, "I", 0x0, "C", 0x0, "L", 0x0, "K", 0x0, 0x0, 0x0 ; `string'

  00000			 AREA	 |.rdata|, DATA, READONLY
|??_C@_1BI@NFBIIMLF@?$AAD?$AAS?$AAS?$AA_?$AAL?$AA4?$AA_?$AAI?$AAC?$AAL?$AAK?$AA?$AA@| DCB "D"
	DCB	0x0, "S", 0x0, "S", 0x0, "_", 0x0, "L", 0x0, "4", 0x0, "_"
	DCB	0x0, "I", 0x0, "C", 0x0, "L", 0x0, "K", 0x0, 0x0, 0x0 ; `string'

  00000			 AREA	 |.rdata|, DATA, READONLY
|??_C@_1BI@LANFCGHF@?$AAD?$AAS?$AAS?$AA_?$AAL?$AA3?$AA_?$AAI?$AAC?$AAL?$AAK?$AA?$AA@| DCB "D"
	DCB	0x0, "S", 0x0, "S", 0x0, "_", 0x0, "L", 0x0, "3", 0x0, "_"
	DCB	0x0, "I", 0x0, "C", 0x0, "L", 0x0, "K", 0x0, 0x0, 0x0 ; `string'

  00000			 AREA	 |.rdata|, DATA, READONLY
|??_C@_1BI@CMLIMPOE@?$AAS?$AAS?$AAI?$AA_?$AAL?$AA4?$AA_?$AAI?$AAC?$AAL?$AAK?$AA?$AA@| DCB "S"
	DCB	0x0, "S", 0x0, "I", 0x0, "_", 0x0, "L", 0x0, "4", 0x0, "_"
	DCB	0x0, "I", 0x0, "C", 0x0, "L", 0x0, "K", 0x0, 0x0, 0x0 ; `string'

  00000			 AREA	 |.rdata|, DATA, READONLY
|??_C@_1BI@DJICCMAG@?$AAS?$AAG?$AAX?$AA_?$AAL?$AA3?$AA_?$AAI?$AAC?$AAL?$AAK?$AA?$AA@| DCB "S"
	DCB	0x0, "G", 0x0, "X", 0x0, "_", 0x0, "L", 0x0, "3", 0x0, "_"
	DCB	0x0, "I", 0x0, "C", 0x0, "L", 0x0, "K", 0x0, 0x0, 0x0 ; `string'

  00000			 AREA	 |.rdata|, DATA, READONLY
|??_C@_1CE@CGIFCMMB@?$AAS?$AAE?$AAC?$AAU?$AAR?$AAI?$AAT?$AAY?$AA_?$AAL?$AA4?$AA_?$AAI?$AAC?$AAL?$AAK?$AA2?$AA?$AA@| DCB "S"
	DCB	0x0, "E", 0x0, "C", 0x0, "U", 0x0, "R", 0x0, "I", 0x0, "T"
	DCB	0x0, "Y", 0x0, "_", 0x0, "L", 0x0, "4", 0x0, "_", 0x0, "I"
	DCB	0x0, "C", 0x0, "L", 0x0, "K", 0x0, "2", 0x0, 0x0, 0x0 ; `string'

  00000			 AREA	 |.rdata|, DATA, READONLY
|??_C@_1CE@DEDAIDCP@?$AAS?$AAE?$AAC?$AAU?$AAR?$AAI?$AAT?$AAY?$AA_?$AAL?$AA4?$AA_?$AAI?$AAC?$AAL?$AAK?$AA1?$AA?$AA@| DCB "S"
	DCB	0x0, "E", 0x0, "C", 0x0, "U", 0x0, "R", 0x0, "I", 0x0, "T"
	DCB	0x0, "Y", 0x0, "_", 0x0, "L", 0x0, "4", 0x0, "_", 0x0, "I"
	DCB	0x0, "C", 0x0, "L", 0x0, "K", 0x0, "1", 0x0, 0x0, 0x0 ; `string'

  00000			 AREA	 |.rdata|, DATA, READONLY
|??_C@_1CC@CHLKMKAK@?$AAS?$AAE?$AAC?$AAU?$AAR?$AAI?$AAT?$AAY?$AA_?$AAL?$AA3?$AA_?$AAI?$AAC?$AAL?$AAK?$AA?$AA@| DCB "S"
	DCB	0x0, "E", 0x0, "C", 0x0, "U", 0x0, "R", 0x0, "I", 0x0, "T"
	DCB	0x0, "Y", 0x0, "_", 0x0, "L", 0x0, "3", 0x0, "_", 0x0, "I"
	DCB	0x0, "C", 0x0, "L", 0x0, "K", 0x0, 0x0, 0x0 ; `string'

  00000			 AREA	 |.rdata|, DATA, READONLY
|??_C@_1BK@BGGGLFNK@?$AAC?$AAO?$AAR?$AAE?$AA_?$AAL?$AA4?$AA_?$AAI?$AAC?$AAL?$AAK?$AA?$AA@| DCB "C"
	DCB	0x0, "O", 0x0, "R", 0x0, "E", 0x0, "_", 0x0, "L", 0x0, "4"
	DCB	0x0, "_", 0x0, "I", 0x0, "C", 0x0, "L", 0x0, "K", 0x0, 0x0
	DCB	0x0					; `string'

  00000			 AREA	 |.rdata|, DATA, READONLY
|??_C@_1BK@HDKLBPBK@?$AAC?$AAO?$AAR?$AAE?$AA_?$AAL?$AA3?$AA_?$AAI?$AAC?$AAL?$AAK?$AA?$AA@| DCB "C"
	DCB	0x0, "O", 0x0, "R", 0x0, "E", 0x0, "_", 0x0, "L", 0x0, "3"
	DCB	0x0, "_", 0x0, "I", 0x0, "C", 0x0, "L", 0x0, "K", 0x0, 0x0
	DCB	0x0					; `string'

  00000			 AREA	 |.rdata|, DATA, READONLY
|??_C@_1BG@DPEBDLBF@?$AAD?$AAP?$AAL?$AAL?$AA2?$AA_?$AAF?$AAC?$AAL?$AAK?$AA?$AA@| DCB "D"
	DCB	0x0, "P", 0x0, "L", 0x0, "L", 0x0, "2", 0x0, "_", 0x0, "F"
	DCB	0x0, "C", 0x0, "L", 0x0, "K", 0x0, 0x0, 0x0 ; `string'

  00000			 AREA	 |.rdata|, DATA, READONLY
|??_C@_1BG@EDCABOMO@?$AAD?$AAP?$AAL?$AAL?$AA1?$AA_?$AAF?$AAC?$AAL?$AAK?$AA?$AA@| DCB "D"
	DCB	0x0, "P", 0x0, "L", 0x0, "L", 0x0, "1", 0x0, "_", 0x0, "F"
	DCB	0x0, "C", 0x0, "L", 0x0, "K", 0x0, 0x0, 0x0 ; `string'

  00000			 AREA	 |.rdata|, DATA, READONLY
|??_C@_1BA@BFCDOHDF@?$AAR?$AAM?$AA_?$AAI?$AAC?$AAL?$AAK?$AA?$AA@| DCB "R", 0x0
	DCB	"M", 0x0, "_", 0x0, "I", 0x0, "C", 0x0, "L", 0x0, "K", 0x0
	DCB	0x0, 0x0				; `string'

  00000			 AREA	 |.rdata|, DATA, READONLY
|??_C@_1BI@KOPHAGMM@?$AAU?$AAS?$AAB?$AA_?$AAL?$AA4?$AA_?$AAI?$AAC?$AAL?$AAK?$AA?$AA@| DCB "U"
	DCB	0x0, "S", 0x0, "B", 0x0, "_", 0x0, "L", 0x0, "4", 0x0, "_"
	DCB	0x0, "I", 0x0, "C", 0x0, "L", 0x0, "K", 0x0, 0x0, 0x0 ; `string'

  00000			 AREA	 |.rdata|, DATA, READONLY
|??_C@_1BA@JHLPGDAF@?$AAL?$AA4?$AA_?$AAI?$AAC?$AAL?$AAK?$AA?$AA@| DCB "L", 0x0
	DCB	"4", 0x0, "_", 0x0, "I", 0x0, "C", 0x0, "L", 0x0, "K", 0x0
	DCB	0x0, 0x0				; `string'

  00000			 AREA	 |.rdata|, DATA, READONLY
|??_C@_1BA@PCHCMJMF@?$AAL?$AA3?$AA_?$AAI?$AAC?$AAL?$AAK?$AA?$AA@| DCB "L", 0x0
	DCB	"3", 0x0, "_", 0x0, "I", 0x0, "C", 0x0, "L", 0x0, "K", 0x0
	DCB	0x0, 0x0				; `string'

  00000			 AREA	 |.rdata|, DATA, READONLY
|??_C@_1BO@IOJFFNAE@?$AA9?$AA6?$AAM?$AA_?$AAA?$AAL?$AAW?$AAO?$AAN?$AA_?$AAF?$AAC?$AAL?$AAK?$AA?$AA@| DCB "9"
	DCB	0x0, "6", 0x0, "M", 0x0, "_", 0x0, "A", 0x0, "L", 0x0, "W"
	DCB	0x0, "O", 0x0, "N", 0x0, "_", 0x0, "F", 0x0, "C", 0x0, "L"
	DCB	0x0, "K", 0x0, 0x0, 0x0			; `string'

  00000			 AREA	 |.rdata|, DATA, READONLY
|??_C@_1BI@CCCDNKIA@?$AAC?$AAM?$AA_?$AA9?$AA6?$AAM?$AA_?$AAF?$AAC?$AAL?$AAK?$AA?$AA@| DCB "C"
	DCB	0x0, "M", 0x0, "_", 0x0, "9", 0x0, "6", 0x0, "M", 0x0, "_"
	DCB	0x0, "F", 0x0, "C", 0x0, "L", 0x0, "K", 0x0, 0x0, 0x0 ; `string'

  00000			 AREA	 |.rdata|, DATA, READONLY
|??_C@_1BO@GNLNKGOK@?$AAC?$AAO?$AAR?$AAE?$AA_?$AA1?$AA2?$AA0?$AAM?$AA_?$AAF?$AAC?$AAL?$AAK?$AA?$AA@| DCB "C"
	DCB	0x0, "O", 0x0, "R", 0x0, "E", 0x0, "_", 0x0, "1", 0x0, "2"
	DCB	0x0, "0", 0x0, "M", 0x0, "_", 0x0, "F", 0x0, "C", 0x0, "L"
	DCB	0x0, "K", 0x0, 0x0, 0x0			; `string'

  00000			 AREA	 |.rdata|, DATA, READONLY
|??_C@_1CG@DGCMBKPD@?$AAP?$AAE?$AAR?$AA_?$AA3?$AA2?$AAK?$AA_?$AAA?$AAL?$AAW?$AAO?$AAN?$AA_?$AAF?$AAC?$AAL?$AAK?$AA?$AA@| DCB "P"
	DCB	0x0, "E", 0x0, "R", 0x0, "_", 0x0, "3", 0x0, "2", 0x0, "K"
	DCB	0x0, "_", 0x0, "A", 0x0, "L", 0x0, "W", 0x0, "O", 0x0, "N"
	DCB	0x0, "_", 0x0, "F", 0x0, "C", 0x0, "L", 0x0, "K", 0x0, 0x0
	DCB	0x0					; `string'

  00000			 AREA	 |.rdata|, DATA, READONLY
|??_C@_1BM@LKACNBLP@?$AAW?$AAK?$AAU?$AAP?$AA_?$AA3?$AA2?$AAK?$AA_?$AAF?$AAC?$AAL?$AAK?$AA?$AA@| DCB "W"
	DCB	0x0, "K", 0x0, "U", 0x0, "P", 0x0, "_", 0x0, "3", 0x0, "2"
	DCB	0x0, "K", 0x0, "_", 0x0, "F", 0x0, "C", 0x0, "L", 0x0, "K"
	DCB	0x0, 0x0, 0x0				; `string'

  00000			 AREA	 |.rdata|, DATA, READONLY
|??_C@_1BM@FOHIOIDD@?$AAC?$AAO?$AAR?$AAE?$AA_?$AA3?$AA2?$AAK?$AA_?$AAF?$AAC?$AAL?$AAK?$AA?$AA@| DCB "C"
	DCB	0x0, "O", 0x0, "R", 0x0, "E", 0x0, "_", 0x0, "3", 0x0, "2"
	DCB	0x0, "K", 0x0, "_", 0x0, "F", 0x0, "C", 0x0, "L", 0x0, "K"
	DCB	0x0, 0x0, 0x0				; `string'

  00000			 AREA	 |.rdata|, DATA, READONLY
|??_C@_1BG@ENADIBCF@?$AAC?$AAM?$AA_?$AA3?$AA2?$AAK?$AA_?$AAC?$AAL?$AAK?$AA?$AA@| DCB "C"
	DCB	0x0, "M", 0x0, "_", 0x0, "3", 0x0, "2", 0x0, "K", 0x0, "_"
	DCB	0x0, "C", 0x0, "L", 0x0, "K", 0x0, 0x0, 0x0 ; `string'

  00000			 AREA	 |.rdata|, DATA, READONLY
|??_C@_1BK@FBDDKDFJ@?$AAW?$AAK?$AAU?$AAP?$AA_?$AAL?$AA4?$AA_?$AAI?$AAC?$AAL?$AAK?$AA?$AA@| DCB "W"
	DCB	0x0, "K", 0x0, "U", 0x0, "P", 0x0, "_", 0x0, "L", 0x0, "4"
	DCB	0x0, "_", 0x0, "I", 0x0, "C", 0x0, "L", 0x0, "K", 0x0, 0x0
	DCB	0x0					; `string'

  00000			 AREA	 |.rdata|, DATA, READONLY
|??_C@_1CA@BKMPPGDH@?$AAD?$AAS?$AAS?$AA2?$AA_?$AAA?$AAL?$AAW?$AAO?$AAN?$AA_?$AAF?$AAC?$AAL?$AAK?$AA?$AA@| DCB "D"
	DCB	0x0, "S", 0x0, "S", 0x0, "2", 0x0, "_", 0x0, "A", 0x0, "L"
	DCB	0x0, "W", 0x0, "O", 0x0, "N", 0x0, "_", 0x0, "F", 0x0, "C"
	DCB	0x0, "L", 0x0, "K", 0x0, 0x0, 0x0	; `string'

  00000			 AREA	 |.rdata|, DATA, READONLY
|??_C@_1BG@LNLDCDGE@?$AAC?$AAM?$AA_?$AAS?$AAY?$AAS?$AA_?$AAC?$AAL?$AAK?$AA?$AA@| DCB "C"
	DCB	0x0, "M", 0x0, "_", 0x0, "S", 0x0, "Y", 0x0, "S", 0x0, "_"
	DCB	0x0, "C", 0x0, "L", 0x0, "K", 0x0, 0x0, 0x0 ; `string'

  00000			 AREA	 |.rdata|, DATA, READONLY
|??_C@_1CC@BNDEKDFB@?$AAD?$AAP?$AAL?$AAL?$AA5?$AA_?$AAA?$AAL?$AAW?$AAO?$AAN?$AA_?$AAF?$AAC?$AAL?$AAK?$AA?$AA@| DCB "D"
	DCB	0x0, "P", 0x0, "L", 0x0, "L", 0x0, "5", 0x0, "_", 0x0, "A"
	DCB	0x0, "L", 0x0, "W", 0x0, "O", 0x0, "N", 0x0, "_", 0x0, "F"
	DCB	0x0, "C", 0x0, "L", 0x0, "K", 0x0, 0x0, 0x0 ; `string'

  00000			 AREA	 |.rdata|, DATA, READONLY
|??_C@_1CC@PKCJAFMG@?$AAD?$AAP?$AAL?$AAL?$AA4?$AA_?$AAA?$AAL?$AAW?$AAO?$AAN?$AA_?$AAF?$AAC?$AAL?$AAK?$AA?$AA@| DCB "D"
	DCB	0x0, "P", 0x0, "L", 0x0, "L", 0x0, "4", 0x0, "_", 0x0, "A"
	DCB	0x0, "L", 0x0, "W", 0x0, "O", 0x0, "N", 0x0, "_", 0x0, "F"
	DCB	0x0, "C", 0x0, "L", 0x0, "K", 0x0, 0x0, 0x0 ; `string'

  00000			 AREA	 |.rdata|, DATA, READONLY
|??_C@_1CC@CCOKHOOA@?$AAD?$AAP?$AAL?$AAL?$AA3?$AA_?$AAA?$AAL?$AAW?$AAO?$AAN?$AA_?$AAF?$AAC?$AAL?$AAK?$AA?$AA@| DCB "D"
	DCB	0x0, "P", 0x0, "L", 0x0, "L", 0x0, "3", 0x0, "_", 0x0, "A"
	DCB	0x0, "L", 0x0, "W", 0x0, "O", 0x0, "N", 0x0, "_", 0x0, "F"
	DCB	0x0, "C", 0x0, "L", 0x0, "K", 0x0, 0x0, 0x0 ; `string'

  00000			 AREA	 |.rdata|, DATA, READONLY
|??_C@_1CC@MFPHNIHH@?$AAD?$AAP?$AAL?$AAL?$AA2?$AA_?$AAA?$AAL?$AAW?$AAO?$AAN?$AA_?$AAF?$AAC?$AAL?$AAK?$AA?$AA@| DCB "D"
	DCB	0x0, "P", 0x0, "L", 0x0, "L", 0x0, "2", 0x0, "_", 0x0, "A"
	DCB	0x0, "L", 0x0, "W", 0x0, "O", 0x0, "N", 0x0, "_", 0x0, "F"
	DCB	0x0, "C", 0x0, "L", 0x0, "K", 0x0, 0x0, 0x0 ; `string'

  00000			 AREA	 |.rdata|, DATA, READONLY
|??_C@_1CC@DHKADFIP@?$AAD?$AAP?$AAL?$AAL?$AA1?$AA_?$AAA?$AAL?$AAW?$AAO?$AAN?$AA_?$AAF?$AAC?$AAL?$AAK?$AA?$AA@| DCB "D"
	DCB	0x0, "P", 0x0, "L", 0x0, "L", 0x0, "1", 0x0, "_", 0x0, "A"
	DCB	0x0, "L", 0x0, "W", 0x0, "O", 0x0, "N", 0x0, "_", 0x0, "F"
	DCB	0x0, "C", 0x0, "L", 0x0, "K", 0x0, 0x0, 0x0 ; `string'

  00000			 AREA	 |.rdata|, DATA, READONLY
|??_C@_1BM@OANJENDM@?$AAS?$AAR?$AA_?$AAA?$AAL?$AAW?$AAO?$AAN?$AA_?$AAF?$AAC?$AAL?$AAK?$AA?$AA@| DCB "S"
	DCB	0x0, "R", 0x0, "_", 0x0, "A", 0x0, "L", 0x0, "W", 0x0, "O"
	DCB	0x0, "N", 0x0, "_", 0x0, "F", 0x0, "C", 0x0, "L", 0x0, "K"
	DCB	0x0, 0x0, 0x0				; `string'

  00000			 AREA	 |.rdata|, DATA, READONLY
|??_C@_1CC@OKPOAMDL@?$AAE?$AAF?$AAU?$AAS?$AAE?$AA_?$AAA?$AAL?$AAW?$AAO?$AAN?$AA_?$AAF?$AAC?$AAL?$AAK?$AA?$AA@| DCB "E"
	DCB	0x0, "F", 0x0, "U", 0x0, "S", 0x0, "E", 0x0, "_", 0x0, "A"
	DCB	0x0, "L", 0x0, "W", 0x0, "O", 0x0, "N", 0x0, "_", 0x0, "F"
	DCB	0x0, "C", 0x0, "L", 0x0, "K", 0x0, 0x0, 0x0 ; `string'

  00000			 AREA	 |.rdata|, DATA, READONLY
|??_C@_1CC@LCLFNMGE@?$AAU?$AAS?$AAB?$AAH?$AAO?$AAS?$AAT?$AA_?$AAS?$AAA?$AAR?$AA_?$AAF?$AAC?$AAL?$AAK?$AA?$AA@| DCB "U"
	DCB	0x0, "S", 0x0, "B", 0x0, "H", 0x0, "O", 0x0, "S", 0x0, "T"
	DCB	0x0, "_", 0x0, "S", 0x0, "A", 0x0, "R", 0x0, "_", 0x0, "F"
	DCB	0x0, "C", 0x0, "L", 0x0, "K", 0x0, 0x0, 0x0 ; `string'

  00000			 AREA	 |.rdata|, DATA, READONLY
|??_C@_1CA@GFMKNGEM@?$AAU?$AAS?$AAB?$AAT?$AAL?$AAL?$AA_?$AAS?$AAA?$AAR?$AA_?$AAF?$AAC?$AAL?$AAK?$AA?$AA@| DCB "U"
	DCB	0x0, "S", 0x0, "B", 0x0, "T", 0x0, "L", 0x0, "L", 0x0, "_"
	DCB	0x0, "S", 0x0, "A", 0x0, "R", 0x0, "_", 0x0, "F", 0x0, "C"
	DCB	0x0, "L", 0x0, "K", 0x0, 0x0, 0x0	; `string'

  00000			 AREA	 |.rdata|, DATA, READONLY
|??_C@_1BG@HFLHAJLD@?$AAM?$AAC?$AAB?$AAS?$AAP?$AA_?$AAC?$AAL?$AAK?$AAS?$AA?$AA@| DCB "M"
	DCB	0x0, "C", 0x0, "B", 0x0, "S", 0x0, "P", 0x0, "_", 0x0, "C"
	DCB	0x0, "L", 0x0, "K", 0x0, "S", 0x0, 0x0, 0x0 ; `string'

  00000			 AREA	 |.rdata|, DATA, READONLY
|??_C@_1CA@FJDCLDEP@?$AAS?$AAE?$AAC?$AAU?$AAR?$AAE?$AA_?$AA3?$AA2?$AAK?$AA_?$AAF?$AAC?$AAL?$AAK?$AA?$AA@| DCB "S"
	DCB	0x0, "E", 0x0, "C", 0x0, "U", 0x0, "R", 0x0, "E", 0x0, "_"
	DCB	0x0, "3", 0x0, "2", 0x0, "K", 0x0, "_", 0x0, "F", 0x0, "C"
	DCB	0x0, "L", 0x0, "K", 0x0, 0x0, 0x0	; `string'

  00000			 AREA	 |.rdata|, DATA, READONLY
|??_C@_1BG@NCDDCILL@?$AAS?$AAY?$AAS?$AA_?$AAA?$AAL?$AAT?$AAC?$AAL?$AAK?$AA?$AA@| DCB "S"
	DCB	0x0, "Y", 0x0, "S", 0x0, "_", 0x0, "A", 0x0, "L", 0x0, "T"
	DCB	0x0, "C", 0x0, "L", 0x0, "K", 0x0, 0x0, 0x0 ; `string'

  00000			 AREA	 |.rdata|, DATA, READONLY
|??_C@_1BA@OLOPHJPN@?$AAS?$AAY?$AAS?$AA_?$AAC?$AAL?$AAK?$AA?$AA@| DCB "S", 0x0
	DCB	"Y", 0x0, "S", 0x0, "_", 0x0, "C", 0x0, "L", 0x0, "K", 0x0
	DCB	0x0, 0x0				; `string'

  00000			 AREA	 |.rdata|, DATA, READONLY
|??_C@_1BC@DHGIMHNL@?$AA3?$AA2?$AAK?$AA_?$AAF?$AAC?$AAL?$AAK?$AA?$AA@| DCB "3"
	DCB	0x0, "2", 0x0, "K", 0x0, "_", 0x0, "F", 0x0, "C", 0x0, "L"
	DCB	0x0, "K", 0x0, 0x0, 0x0			; `string'

  00000			 AREA	 |.rdata|, DATA, READONLY
|??_C@_1BE@FAMLILEH@?$AA1?$AA2?$AA0?$AAM?$AA_?$AAF?$AAC?$AAL?$AAK?$AA?$AA@| DCB "1"
	DCB	0x0, "2", 0x0, "0", 0x0, "M", 0x0, "_", 0x0, "F", 0x0, "C"
	DCB	0x0, "L", 0x0, "K", 0x0, 0x0, 0x0	; `string'

  00000			 AREA	 |.rdata|, DATA, READONLY
|??_C@_1CG@HFAMOILM@?$AAE?$AAM?$AAU?$AAL?$AA_?$AAP?$AAE?$AAR?$AA_?$AAA?$AAL?$AAW?$AAO?$AAN?$AA_?$AAC?$AAL?$AAK?$AA?$AA@| DCB "E"
	DCB	0x0, "M", 0x0, "U", 0x0, "L", 0x0, "_", 0x0, "P", 0x0, "E"
	DCB	0x0, "R", 0x0, "_", 0x0, "A", 0x0, "L", 0x0, "W", 0x0, "O"
	DCB	0x0, "N", 0x0, "_", 0x0, "C", 0x0, "L", 0x0, "K", 0x0, 0x0
	DCB	0x0					; `string'

  00000			 AREA	 |.rdata|, DATA, READONLY
|??_C@_1BC@IIMOEDJ@?$AAC?$AAA?$AAM?$AA_?$AAM?$AAC?$AAL?$AAK?$AA?$AA@| DCB "C"
	DCB	0x0, "A", 0x0, "M", 0x0, "_", 0x0, "M", 0x0, "C", 0x0, "L"
	DCB	0x0, "K", 0x0, 0x0, 0x0			; `string'

  00000			 AREA	 |.rdata|, DATA, READONLY
|??_C@_1CA@OIJIBLMP@?$AAD?$AAS?$AAS?$AA1?$AA_?$AAA?$AAL?$AAW?$AAO?$AAN?$AA_?$AAF?$AAC?$AAL?$AAK?$AA?$AA@| DCB "D"
	DCB	0x0, "S", 0x0, "S", 0x0, "1", 0x0, "_", 0x0, "A", 0x0, "L"
	DCB	0x0, "W", 0x0, "O", 0x0, "N", 0x0, "_", 0x0, "F", 0x0, "C"
	DCB	0x0, "L", 0x0, "K", 0x0, 0x0, 0x0	; `string'

  00000			 AREA	 |.rdata|, DATA, READONLY
|??_C@_1BO@DEHFKHHM@?$AAD?$AAP?$AAL?$AAL?$AA4?$AA_?$AAM?$AA3?$AAX?$AA2?$AA_?$AAC?$AAL?$AAK?$AA?$AA@| DCB "D"
	DCB	0x0, "P", 0x0, "L", 0x0, "L", 0x0, "4", 0x0, "_", 0x0, "M"
	DCB	0x0, "3", 0x0, "X", 0x0, "2", 0x0, "_", 0x0, "C", 0x0, "L"
	DCB	0x0, "K", 0x0, 0x0, 0x0			; `string'

  00000			 AREA	 |.rdata|, DATA, READONLY
|??_C@_1CE@BJAPKP@?$AAP?$AAR?$AAM?$AA_?$AA9?$AA6?$AAM?$AA_?$AAA?$AAL?$AAW?$AAO?$AAN?$AA_?$AAC?$AAL?$AAK?$AA?$AA@| DCB "P"
	DCB	0x0, "R", 0x0, "M", 0x0, "_", 0x0, "9", 0x0, "6", 0x0, "M"
	DCB	0x0, "_", 0x0, "A", 0x0, "L", 0x0, "W", 0x0, "O", 0x0, "N"
	DCB	0x0, "_", 0x0, "C", 0x0, "L", 0x0, "K", 0x0, 0x0, 0x0 ; `string'

  00000			 AREA	 |.rdata|, DATA, READONLY
|??_C@_1CI@IFDBBING@?$AAE?$AAM?$AAU?$AAL?$AA_?$AAC?$AAO?$AAR?$AAE?$AA_?$AAA?$AAL?$AAW?$AAO?$AAN?$AA_?$AAC?$AAL?$AAK?$AA?$AA@| DCB "E"
	DCB	0x0, "M", 0x0, "U", 0x0, "L", 0x0, "_", 0x0, "C", 0x0, "O"
	DCB	0x0, "R", 0x0, "E", 0x0, "_", 0x0, "A", 0x0, "L", 0x0, "W"
	DCB	0x0, "O", 0x0, "N", 0x0, "_", 0x0, "C", 0x0, "L", 0x0, "K"
	DCB	0x0, 0x0, 0x0				; `string'

  00000			 AREA	 |.rdata|, DATA, READONLY
|??_C@_1BG@BPJIAMGI@?$AAC?$AAO?$AAR?$AAE?$AAX?$AA2?$AA_?$AAC?$AAL?$AAK?$AA?$AA@| DCB "C"
	DCB	0x0, "O", 0x0, "R", 0x0, "E", 0x0, "X", 0x0, "2", 0x0, "_"
	DCB	0x0, "C", 0x0, "L", 0x0, "K", 0x0, 0x0, 0x0 ; `string'

  00000			 AREA	 |.rdata|, DATA, READONLY
|??_C@_1BC@NNFMMOEA@?$AAC?$AAO?$AAR?$AAE?$AA_?$AAC?$AAL?$AAK?$AA?$AA@| DCB "C"
	DCB	0x0, "O", 0x0, "R", 0x0, "E", 0x0, "_", 0x0, "C", 0x0, "L"
	DCB	0x0, "K", 0x0, 0x0, 0x0			; `string'

  00000			 AREA	 |.rdata|, DATA, READONLY
|??_C@_1BK@MLNJDMKG@?$AAD?$AAP?$AAL?$AAL?$AA2?$AA_?$AAM?$AA2?$AA_?$AAC?$AAL?$AAK?$AA?$AA@| DCB "D"
	DCB	0x0, "P", 0x0, "L", 0x0, "L", 0x0, "2", 0x0, "_", 0x0, "M"
	DCB	0x0, "2", 0x0, "_", 0x0, "C", 0x0, "L", 0x0, "K", 0x0, 0x0
	DCB	0x0					; `string'

  00000			 AREA	 |.rdata|, DATA, READONLY
|??_C@_1BO@NBJEMBCN@?$AAD?$AAP?$AAL?$AAL?$AA1?$AA_?$AAM?$AA2?$AAX?$AA2?$AA_?$AAC?$AAL?$AAK?$AA?$AA@| DCB "D"
	DCB	0x0, "P", 0x0, "L", 0x0, "L", 0x0, "1", 0x0, "_", 0x0, "M"
	DCB	0x0, "2", 0x0, "X", 0x0, "2", 0x0, "_", 0x0, "C", 0x0, "L"
	DCB	0x0, "K", 0x0, 0x0, 0x0			; `string'
	EXPORT	|?IsOptionChar@@YAHG@Z|			; IsOptionChar
; File c:\wince600\platform\z2170p\src\app\shell\utils.cxx

  00000			 AREA	 |.pdata|, PDATA
|$T39047| DCD	|$LN14@IsOptionCh|
	DCD	0x40001401
; Function compile flags: /Ogspy

  00000			 AREA	 |.text|, CODE, ARM

  00000		 |?IsOptionChar@@YAHG@Z| PROC		; IsOptionChar

; 21   : {

  00000		 |$LN14@IsOptionCh|
  00000	e24dd004	 sub         sp, sp, #4
  00004		 |$M39044|
  00004	e1a01000	 mov         r1, r0

; 22   :    const char acOptionChars[] = { _T('/'), _T('-') };

  00008	e3a0202d	 mov         r2, #0x2D
  0000c	e3a0302f	 mov         r3, #0x2F
  00010	e5cd2001	 strb        r2, [sp, #1]

; 23   :    const int nOptionChars = 2;
; 24   : 
; 25   :    for (int i = 0; i < nOptionChars; i++)   {

  00014	e3a02000	 mov         r2, #0
  00018	e5cd3000	 strb        r3, [sp]
  0001c	e28d0000	 add         r0, sp, #0
  00020		 |$LL4@IsOptionCh|

; 26   :       if (acOptionChars[i] == cInp) break;

  00020	e19230d0	 ldrsb       r3, [r2, +r0]
  00024	e1530001	 cmp         r3, r1
  00028	0a000002	 beq         |$LN10@IsOptionCh|
  0002c	e2822001	 add         r2, r2, #1
  00030	e3520002	 cmp         r2, #2
  00034	bafffff9	 blt         |$LL4@IsOptionCh|
  00038		 |$LN10@IsOptionCh|

; 27   :    }
; 28   :    return (i < nOptionChars);

  00038	e3520002	 cmp         r2, #2
  0003c	b3a00001	 movlt       r0, #1

; 29   : }

  00040	b28dd004	 addlt       sp, sp, #4

; 27   :    }
; 28   :    return (i < nOptionChars);

  00044	a3a00000	 movge       r0, #0

; 29   : }

  00048	a28dd004	 addge       sp, sp, #4
  0004c	e12fff1e	 bx          lr
  00050		 |$M39045|

			 ENDP  ; |?IsOptionChar@@YAHG@Z|, IsOptionChar

	EXPORT	|?GetOptionFlag@@YAHPAHQAPAGPBG@Z|	; GetOptionFlag
	IMPORT	|_wcsicmp|

  00000			 AREA	 |.pdata|, PDATA
|$T39068| DCD	|$LN19@GetOptionF|
	DCD	0x40002d01
; Function compile flags: /Ogspy

  00000			 AREA	 |.text|, CODE, ARM

  00000		 |?GetOptionFlag@@YAHPAHQAPAGPBG@Z| PROC ; GetOptionFlag

; 34   : {

  00000		 |$LN19@GetOptionF|
  00000	e92d47f0	 stmdb       sp!, {r4 - r10, lr}
  00004		 |$M39065|
  00004	e1a0a002	 mov         r10, r2
  00008	e1a07001	 mov         r7, r1
  0000c	e1a04000	 mov         r4, r0

; 36   :    int i = 0;
; 37   : 
; 38   :    while (i < *pargc) {

  00010	e5943000	 ldr         r3, [r4]
  00014	e3a08000	 mov         r8, #0
  00018	e3a05000	 mov         r5, #0
  0001c	e3530000	 cmp         r3, #0
  00020	da000020	 ble         |$LN16@GetOptionF|

; 35   :    BOOL bResult = FALSE;

  00024	e1a06007	 mov         r6, r7
  00028		 |$LL8@GetOptionF|

; 39   :       if (IsOptionChar(argv[i][0])) {

  00028	e5969000	 ldr         r9, [r6]
  0002c	e1d900b0	 ldrh        r0, [r9]
  00030	eb000000	 bl          |?IsOptionChar@@YAHG@Z|
  00034	e3500000	 cmp         r0, #0
  00038	0a000004	 beq         |$LN5@GetOptionF|

; 40   :          if (_tcsicmp(&argv[i][1], szOption) == 0) {

  0003c	e1a0100a	 mov         r1, r10
  00040	e2890002	 add         r0, r9, #2
  00044	eb000000	 bl          _wcsicmp
  00048	e3500000	 cmp         r0, #0
  0004c	0a000005	 beq         |$LN13@GetOptionF|
  00050		 |$LN5@GetOptionF|

; 36   :    int i = 0;
; 37   : 
; 38   :    while (i < *pargc) {

  00050	e5943000	 ldr         r3, [r4]

; 42   :             break;
; 43   :          }
; 44   :       }
; 45   :       i++;

  00054	e2855001	 add         r5, r5, #1
  00058	e2866004	 add         r6, r6, #4
  0005c	e1550003	 cmp         r5, r3
  00060	bafffff0	 blt         |$LL8@GetOptionF|
  00064	ea00000f	 b           |$LN16@GetOptionF|
  00068		 |$LN13@GetOptionF|

; 46   :    }
; 47   : 
; 48   :    if (bResult) {
; 49   :       for (int j = i + 1; j < *pargc; j++) argv[j - 1] = argv[j];

  00068	e5943000	 ldr         r3, [r4]
  0006c	e2852001	 add         r2, r5, #1
  00070	e3a08001	 mov         r8, #1
  00074	e1520003	 cmp         r2, r3
  00078	aa000007	 bge         |$LN1@GetOptionF|

; 41   :             bResult = TRUE;

  0007c	e0871102	 add         r1, r7, r2, lsl #2
  00080		 |$LL3@GetOptionF|

; 46   :    }
; 47   : 
; 48   :    if (bResult) {
; 49   :       for (int j = i + 1; j < *pargc; j++) argv[j - 1] = argv[j];

  00080	e5913000	 ldr         r3, [r1]
  00084	e2822001	 add         r2, r2, #1
  00088	e5013004	 str         r3, [r1, #-4]
  0008c	e5943000	 ldr         r3, [r4]
  00090	e2811004	 add         r1, r1, #4
  00094	e1520003	 cmp         r2, r3
  00098	bafffff8	 blt         |$LL3@GetOptionF|
  0009c		 |$LN1@GetOptionF|

; 50   :       (*pargc)--;

  0009c	e5943000	 ldr         r3, [r4]
  000a0	e2433001	 sub         r3, r3, #1
  000a4	e5843000	 str         r3, [r4]
  000a8		 |$LN16@GetOptionF|

; 51   :    }
; 52   :    return bResult;
; 53   : }

  000a8	e1a00008	 mov         r0, r8
  000ac	e8bd47f0	 ldmia       sp!, {r4 - r10, lr}
  000b0	e12fff1e	 bx          lr
  000b4		 |$M39066|

			 ENDP  ; |?GetOptionFlag@@YAHPAHQAPAGPBG@Z|, GetOptionFlag

	EXPORT	|?GetOptionString@@YAPAGPAHQAPAGPBG@Z|	; GetOptionString
	IMPORT	|_wcsnicmp|
	IMPORT	|wcslen|

  00000			 AREA	 |.pdata|, PDATA
|$T39091| DCD	|$LN20@GetOptionS|
	DCD	0x40004101
; Function compile flags: /Ogspy

  00000			 AREA	 |.text|, CODE, ARM

  00000		 |?GetOptionString@@YAPAGPAHQAPAGPBG@Z| PROC ; GetOptionString

; 58   : {

  00000		 |$LN20@GetOptionS|
  00000	e92d4ff0	 stmdb       sp!, {r4 - r11, lr}
  00004		 |$M39088|
  00004	e1a0b002	 mov         r11, r2
  00008	e1a09001	 mov         r9, r1
  0000c	e1a04000	 mov         r4, r0

; 60   :    int i = 0;
; 61   :    int nRemove = 1;
; 62   : 
; 63   :    while (i < *pargc) {

  00010	e5943000	 ldr         r3, [r4]
  00014	e3a06000	 mov         r6, #0
  00018	e3a05000	 mov         r5, #0
  0001c	e3530000	 cmp         r3, #0
  00020	e3a07001	 mov         r7, #1
  00024	da000033	 ble         |$LN17@GetOptionS|

; 59   :    LPTSTR szResult = NULL;

  00028	e1a08009	 mov         r8, r9
  0002c		 |$LL9@GetOptionS|

; 64   :       if (IsOptionChar(argv[i][0])) {

  0002c	e598a000	 ldr         r10, [r8]
  00030	e1da00b0	 ldrh        r0, [r10]
  00034	eb000000	 bl          |?IsOptionChar@@YAHG@Z|
  00038	e3500000	 cmp         r0, #0
  0003c	0a000007	 beq         |$LN6@GetOptionS|

; 65   :          if (_tcsnicmp(&argv[i][1], szOption, _tcslen(szOption)) == 0) {

  00040	e1a0000b	 mov         r0, r11
  00044	eb000000	 bl          wcslen
  00048	e1a02000	 mov         r2, r0
  0004c	e28a0002	 add         r0, r10, #2
  00050	e1a0100b	 mov         r1, r11
  00054	eb000000	 bl          _wcsnicmp
  00058	e3500000	 cmp         r0, #0
  0005c	0a000005	 beq         |$LN14@GetOptionS|
  00060		 |$LN6@GetOptionS|

; 60   :    int i = 0;
; 61   :    int nRemove = 1;
; 62   : 
; 63   :    while (i < *pargc) {

  00060	e5943000	 ldr         r3, [r4]

; 70   :             }
; 71   :             break;
; 72   :          }
; 73   :       }
; 74   :       i++;

  00064	e2855001	 add         r5, r5, #1
  00068	e2888004	 add         r8, r8, #4
  0006c	e1550003	 cmp         r5, r3
  00070	baffffed	 blt         |$LL9@GetOptionS|
  00074	ea00001f	 b           |$LN17@GetOptionS|
  00078		 |$LN14@GetOptionS|

; 66   :             szResult = &argv[i][_tcslen(szOption) + 1];

  00078	e1a0000b	 mov         r0, r11
  0007c	eb000000	 bl          wcslen
  00080	e1a01009	 mov         r1, r9
  00084	e7b12105	 ldr         r2, [r1, +r5, lsl #2]!
  00088	e2803001	 add         r3, r0, #1
  0008c	e0826083	 add         r6, r2, r3, lsl #1

; 67   :             if (*szResult == _T('\0') && (i + 1) < *pargc) {

  00090	e1d630b0	 ldrh        r3, [r6]
  00094	e3530000	 cmp         r3, #0
  00098	1a000004	 bne         |$LN5@GetOptionS|
  0009c	e5942000	 ldr         r2, [r4]
  000a0	e2853001	 add         r3, r5, #1
  000a4	e1530002	 cmp         r3, r2

; 68   :                szResult = argv[i + 1];

  000a8	b5916004	 ldrlt       r6, [r1, #4]

; 69   :                nRemove++;

  000ac	b3a07002	 movlt       r7, #2
  000b0		 |$LN5@GetOptionS|

; 75   :    }
; 76   : 
; 77   :    if (szResult != NULL) {

  000b0	e3560000	 cmp         r6, #0
  000b4	0a00000f	 beq         |$LN17@GetOptionS|

; 78   :       for (int j = i + nRemove; j < *pargc; j++) argv[j - nRemove] = argv[j];

  000b8	e5943000	 ldr         r3, [r4]
  000bc	e0872005	 add         r2, r7, r5
  000c0	e1520003	 cmp         r2, r3
  000c4	aa000008	 bge         |$LN1@GetOptionS|
  000c8	e0423007	 sub         r3, r2, r7
  000cc	e0891103	 add         r1, r9, r3, lsl #2
  000d0	e0890102	 add         r0, r9, r2, lsl #2
  000d4		 |$LL3@GetOptionS|
  000d4	e4903004	 ldr         r3, [r0], #4
  000d8	e2822001	 add         r2, r2, #1
  000dc	e4813004	 str         r3, [r1], #4
  000e0	e5943000	 ldr         r3, [r4]
  000e4	e1520003	 cmp         r2, r3
  000e8	bafffff9	 blt         |$LL3@GetOptionS|
  000ec		 |$LN1@GetOptionS|

; 79   :       (*pargc) -= nRemove;

  000ec	e5943000	 ldr         r3, [r4]
  000f0	e0433007	 sub         r3, r3, r7
  000f4	e5843000	 str         r3, [r4]
  000f8		 |$LN17@GetOptionS|

; 80   :    }
; 81   :    return szResult;
; 82   : }

  000f8	e1a00006	 mov         r0, r6
  000fc	e8bd4ff0	 ldmia       sp!, {r4 - r11, lr}
  00100	e12fff1e	 bx          lr
  00104		 |$M39089|

			 ENDP  ; |?GetOptionString@@YAPAGPAHQAPAGPBG@Z|, GetOptionString

	EXPORT	|?GetOptionLong@@YAJPAHQAPAGJPBG@Z|	; GetOptionLong

  00000			 AREA	 |.pdata|, PDATA
|$T39110| DCD	|$LN24@GetOptionL|
	DCD	0x40003701
; Function compile flags: /Ogspy

  00000			 AREA	 |.text|, CODE, ARM

  00000		 |?GetOptionLong@@YAJPAHQAPAGJPBG@Z| PROC ; GetOptionLong

; 87   : {

  00000		 |$LN24@GetOptionL|
  00000	e92d4070	 stmdb       sp!, {r4 - r6, lr}
  00004		 |$M39107|
  00004	e1a04002	 mov         r4, r2

; 88   :    LPTSTR szValue = NULL;
; 89   :    LONG nResult = 0;
; 90   :    INT nBase = 10;
; 91   :    BOOL bMinus = FALSE;
; 92   : 
; 93   :    szValue = GetOptionString(pargc, argv, szOption);

  00008	e1a02003	 mov         r2, r3
  0000c	e3a0500a	 mov         r5, #0xA
  00010	e3a06000	 mov         r6, #0
  00014	eb000000	 bl          |?GetOptionString@@YAPAGPAHQAPAGPBG@Z|
  00018	e3500000	 cmp         r0, #0

; 94   :    if (szValue == NULL) {
; 95   :       nResult = lDefault;

  0001c	0a00002b	 beq         |$cleanUp$38411|

; 96   :       goto cleanUp;
; 97   :    }
; 98   : 
; 99   :    // Check minus sign
; 100  :    if (*szValue == _T('-')) {

  00020	e1d030b0	 ldrh        r3, [r0]
  00024	e353002d	 cmp         r3, #0x2D

; 101  :       bMinus = TRUE;
; 102  :       szValue++;

  00028	02800002	 addeq       r0, r0, #2

; 103  :    }
; 104  : 
; 105  :    // And plus sign
; 106  :    if (*szValue == _T('+')) szValue++;

  0002c	e1d030b0	 ldrh        r3, [r0]
  00030	03a06001	 moveq       r6, #1
  00034	e353002b	 cmp         r3, #0x2B
  00038	02800002	 addeq       r0, r0, #2

; 107  : 
; 108  :    if (
; 109  :       *szValue == _T('0') && 
; 110  :       (*(szValue + 1) == _T('x') || *(szValue + 1) == _T('X'))
; 111  :    ) {

  0003c	e1d030b0	 ldrh        r3, [r0]
  00040	e3530030	 cmp         r3, #0x30
  00044	1a000006	 bne         |$LN13@GetOptionL|
  00048	e1d030b2	 ldrh        r3, [r0, #2]
  0004c	e3530078	 cmp         r3, #0x78
  00050	0a000001	 beq         |$LN12@GetOptionL|
  00054	e3530058	 cmp         r3, #0x58
  00058	1a000001	 bne         |$LN13@GetOptionL|
  0005c		 |$LN12@GetOptionL|

; 112  :       nBase = 16;

  0005c	e3a05010	 mov         r5, #0x10

; 113  :       szValue += 2;

  00060	e2800004	 add         r0, r0, #4
  00064		 |$LN13@GetOptionL|

; 114  :    }
; 115  : 
; 116  :    nResult = 0;

  00064	e3a04000	 mov         r4, #0
  00068		 |$LL11@GetOptionL|

; 117  :    for(;;) {
; 118  :       if (*szValue >= _T('0') && *szValue <= _T('9')) {

  00068	e1d030b0	 ldrh        r3, [r0]
  0006c	e3530030	 cmp         r3, #0x30
  00070	3a000004	 bcc         |$LN9@GetOptionL|
  00074	e3530039	 cmp         r3, #0x39

; 119  :          nResult = nResult * nBase + (*szValue - _T('0'));

  00078	90233495	 mlals       r3, r5, r4, r3

; 120  :          szValue++;

  0007c	92800002	 addls       r0, r0, #2
  00080	92434030	 subls       r4, r3, #0x30
  00084	9afffff7	 bls         |$LL11@GetOptionL|
  00088		 |$LN9@GetOptionL|

; 121  :       } else if (nBase == 16) {

  00088	e3550010	 cmp         r5, #0x10
  0008c	1a00000d	 bne         |$LN4@GetOptionL|

; 122  :          if (*szValue >= _T('a') && *szValue <= _T('f')) {

  00090	e3530061	 cmp         r3, #0x61
  00094	3a000004	 bcc         |$LN6@GetOptionL|
  00098	e3530066	 cmp         r3, #0x66

; 123  :             nResult = nResult * nBase + (*szValue - _T('a') + 10);

  0009c	90833204	 addls       r3, r3, r4, lsl #4
  000a0	92434057	 subls       r4, r3, #0x57

; 127  :             szValue++;

  000a4	92800002	 addls       r0, r0, #2
  000a8	9affffee	 bls         |$LL11@GetOptionL|
  000ac		 |$LN6@GetOptionL|

; 124  :             szValue++;
; 125  :          } else if (*szValue >= _T('A') && *szValue <= _T('F')) {

  000ac	e3530041	 cmp         r3, #0x41
  000b0	3a000004	 bcc         |$LN4@GetOptionL|
  000b4	e3530046	 cmp         r3, #0x46

; 126  :             nResult = nResult * nBase + (*szValue - _T('A') + 10);

  000b8	90833204	 addls       r3, r3, r4, lsl #4
  000bc	92434037	 subls       r4, r3, #0x37

; 127  :             szValue++;

  000c0	92800002	 addls       r0, r0, #2
  000c4	9affffe7	 bls         |$LL11@GetOptionL|
  000c8		 |$LN4@GetOptionL|

; 128  :          } else {
; 129  :             break;
; 130  :          }
; 131  :       } else {
; 132  :          break;
; 133  :       }
; 134  :    }
; 135  : 
; 136  :    if (bMinus) nResult = -nResult;

  000c8	e3560000	 cmp         r6, #0
  000cc	12644000	 rsbne       r4, r4, #0
  000d0		 |$cleanUp$38411|

; 137  : 
; 138  : cleanUp:
; 139  :    return nResult;
; 140  : }

  000d0	e1a00004	 mov         r0, r4
  000d4	e8bd4070	 ldmia       sp!, {r4 - r6, lr}
  000d8	e12fff1e	 bx          lr
  000dc		 |$M39108|

			 ENDP  ; |?GetOptionLong@@YAJPAHQAPAGJPBG@Z|, GetOptionLong

	EXPORT	|?CommandLineToArgs@@YAXQAGPAHQAPAG@Z|	; CommandLineToArgs
	IMPORT	|iswctype|

  00000			 AREA	 |.pdata|, PDATA
|$T39136| DCD	|$LN31@CommandLin|
	DCD	0x40003e01
; Function compile flags: /Ogspy

  00000			 AREA	 |.text|, CODE, ARM

  00000		 |?CommandLineToArgs@@YAXQAGPAHQAPAG@Z| PROC ; CommandLineToArgs

; 145  : {

  00000		 |$LN31@CommandLin|
  00000	e92d47f0	 stmdb       sp!, {r4 - r10, lr}
  00004		 |$M39133|
  00004	e1a07002	 mov         r7, r2
  00008	e1a05001	 mov         r5, r1
  0000c	e1b04000	 movs        r4, r0

; 146  :    int i, nArgc = 0;

  00010	e3a09000	 mov         r9, #0

; 147  :    BOOL bInQuotes = FALSE;
; 148  :    TCHAR *p = szCommandLine;
; 149  : 
; 150  :    if (szCommandLine == NULL || argc == NULL || argv == NULL) return;

  00014	0a000035	 beq         |$LN13@CommandLin|
  00018	e3550000	 cmp         r5, #0
  0001c	0a000033	 beq         |$LN13@CommandLin|
  00020	e3570000	 cmp         r7, #0
  00024	0a000031	 beq         |$LN13@CommandLin|

; 151  : 
; 152  :    for (i = 0; i < *argc; i++) {

  00028	e5953000	 ldr         r3, [r5]
  0002c	e3a06000	 mov         r6, #0
  00030	e3530000	 cmp         r3, #0
  00034	da00002c	 ble         |$LN26@CommandLin|
  00038	e3a0a000	 mov         r10, #0
  0003c		 |$LL12@CommandLin|

; 153  :         
; 154  :       // Clear our quote flag
; 155  :       bInQuotes = FALSE;
; 156  : 
; 157  :       // Move past and zero out any leading whitespace
; 158  :       while (*p && _istspace(*p)) *(p++) = _T('\0');

  0003c	e3a08000	 mov         r8, #0
  00040	ea000005	 b           |$LN28@CommandLin|
  00044		 |$LL9@CommandLin|
  00044	e1d400b0	 ldrh        r0, [r4]
  00048	e3a01008	 mov         r1, #8
  0004c	eb000000	 bl          iswctype
  00050	e3500000	 cmp         r0, #0
  00054	0a000003	 beq         |$LN25@CommandLin|
  00058	e0c4a0b2	 strh        r10, [r4], #2
  0005c		 |$LN28@CommandLin|
  0005c	e1d430b0	 ldrh        r3, [r4]
  00060	e3530000	 cmp         r3, #0
  00064	1afffff6	 bne         |$LL9@CommandLin|
  00068		 |$LN25@CommandLin|

; 159  : 
; 160  :       // If the next character is a quote, move over it and remember it
; 161  :       if (*p == _T('\"')) {

  00068	e1d430b0	 ldrh        r3, [r4]
  0006c	e3530022	 cmp         r3, #0x22

; 162  :         *(p++) = _T('\0');

  00070	00c4a0b2	 streqh      r10, [r4], #2

; 163  :         bInQuotes = TRUE;

  00074	03a08001	 moveq       r8, #1

; 164  :       }
; 165  : 
; 166  :       // Point the current argument to our current location
; 167  :       argv[i] = p;

  00078	e5874000	 str         r4, [r7]

; 168  : 
; 169  :       // If this argument contains some text, then update our argument count
; 170  :       if (*p != _T('\0')) nArgc = i + 1;

  0007c	e1d430b0	 ldrh        r3, [r4]
  00080	e3530000	 cmp         r3, #0
  00084	12869001	 addne       r9, r6, #1

; 171  : 
; 172  :       // Move over valid text of this argument.
; 173  :       while (*p != _T('\0')) {

  00088	e3530000	 cmp         r3, #0
  0008c	0a00000e	 beq         |$LN4@CommandLin|
  00090		 |$LL5@CommandLin|

; 174  :          if (_istspace(*p) || (bInQuotes && (*p == _T('\"')))) {

  00090	e1d400b0	 ldrh        r0, [r4]
  00094	e3a01008	 mov         r1, #8
  00098	eb000000	 bl          iswctype
  0009c	e3500000	 cmp         r0, #0
  000a0	1a000008	 bne         |$LN20@CommandLin|
  000a4	e3580000	 cmp         r8, #0
  000a8	0a000002	 beq         |$LN3@CommandLin|
  000ac	e1d430b0	 ldrh        r3, [r4]
  000b0	e3530022	 cmp         r3, #0x22
  000b4	0a000003	 beq         |$LN20@CommandLin|
  000b8		 |$LN3@CommandLin|

; 171  : 
; 172  :       // Move over valid text of this argument.
; 173  :       while (*p != _T('\0')) {

  000b8	e1f430b2	 ldrh        r3, [r4, #2]!
  000bc	e3530000	 cmp         r3, #0
  000c0	1afffff2	 bne         |$LL5@CommandLin|

; 176  :             break;
; 177  :          }
; 178  :          p++;
; 179  :       }
; 180  :       
; 181  :       // If reach end of string break;
; 182  :       if (*p == _T('\0')) break;

  000c4	ea000000	 b           |$LN4@CommandLin|
  000c8		 |$LN20@CommandLin|

; 175  :             *(p++) = _T('\0');

  000c8	e0c4a0b2	 strh        r10, [r4], #2
  000cc		 |$LN4@CommandLin|

; 176  :             break;
; 177  :          }
; 178  :          p++;
; 179  :       }
; 180  :       
; 181  :       // If reach end of string break;
; 182  :       if (*p == _T('\0')) break;

  000cc	e1d430b0	 ldrh        r3, [r4]
  000d0	e3530000	 cmp         r3, #0
  000d4	0a000004	 beq         |$LN26@CommandLin|
  000d8	e5953000	 ldr         r3, [r5]
  000dc	e2866001	 add         r6, r6, #1
  000e0	e2877004	 add         r7, r7, #4
  000e4	e1560003	 cmp         r6, r3
  000e8	baffffd3	 blt         |$LL12@CommandLin|
  000ec		 |$LN26@CommandLin|

; 183  :    }
; 184  :    *argc = nArgc;

  000ec	e5859000	 str         r9, [r5]
  000f0		 |$LN13@CommandLin|

; 185  : }

  000f0	e8bd47f0	 ldmia       sp!, {r4 - r10, lr}
  000f4	e12fff1e	 bx          lr
  000f8		 |$M39134|

			 ENDP  ; |?CommandLineToArgs@@YAXQAGPAHQAPAG@Z|, CommandLineToArgs

	EXPORT	|?GetDeviceClockText@@YAPBGH@Z|		; GetDeviceClockText
	EXPORT	|??_C@_1CI@LOKNIFLJ@?$AA?$CI?$AAU?$AAK?$AAN?$AAO?$AAW?$AAN?$AA?5?$AAD?$AAE?$AAV?$AA?4?$AA?5?$AAC?$AAL?$AAO?$AAC?$AAK?$AA?$CJ?$AA?$AA@| [ DATA ] ; `string'

  00000			 AREA	 |.pdata|, PDATA
|$T39147| DCD	|$LN6@GetDeviceC|
	DCD	0x40000900

  00000			 AREA	 |.rdata|, DATA, READONLY
|??_C@_1CI@LOKNIFLJ@?$AA?$CI?$AAU?$AAK?$AAN?$AAO?$AAW?$AAN?$AA?5?$AAD?$AAE?$AAV?$AA?4?$AA?5?$AAC?$AAL?$AAO?$AAC?$AAK?$AA?$CJ?$AA?$AA@| DCB "("
	DCB	0x0, "U", 0x0, "K", 0x0, "N", 0x0, "O", 0x0, "W", 0x0, "N"
	DCB	0x0, " ", 0x0, "D", 0x0, "E", 0x0, "V", 0x0, ".", 0x0, " "
	DCB	0x0, "C", 0x0, "L", 0x0, "O", 0x0, "C", 0x0, "K", 0x0, ")"
	DCB	0x0, 0x0, 0x0				; `string'

  00000			 AREA	 |.data|, DATA
|?szUnknown@?1??GetDeviceClockText@@YAPBGH@Z@4PBGB| DCD |??_C@_1CI@LOKNIFLJ@?$AA?$CI?$AAU?$AAK?$AAN?$AAO?$AAW?$AAN?$AA?5?$AAD?$AAE?$AAV?$AA?4?$AA?5?$AAC?$AAL?$AAO?$AAC?$AAK?$AA?$CJ?$AA?$AA@| ; `GetDeviceClockText'::`2'::szUnknown
; Function compile flags: /Ogspy

  00000			 AREA	 |.text|, CODE, ARM

  00000		 |?GetDeviceClockText@@YAPBGH@Z| PROC	; GetDeviceClockText

; 280  : {

  00000		 |$LN6@GetDeviceC|
  00000		 |$M39144|
  00000	e1a02000	 mov         r2, r0

; 281  :     static WCHAR const* szUnknown = L"(UKNOWN DEV. CLOCK)";
; 282  : 
; 283  :     WCHAR const *szResult = szUnknown;

  00004	e59f3014	 ldr         r3, [pc, #0x14]

; 284  :     if (i < sizeof(_rgDeviceClockNames)/sizeof(WCHAR const*))

  00008	e3520056	 cmp         r2, #0x56
  0000c	e5930000	 ldr         r0, [r3]

; 285  :         szResult = _rgDeviceClockNames[i];

  00010	359f3004	 ldrcc       r3, [pc, #4]
  00014	37930102	 ldrcc       r0, [r3, +r2, lsl #2]

; 286  : 
; 287  :     return szResult;
; 288  : }

  00018	e12fff1e	 bx          lr
  0001c		 |$LN7@GetDeviceC|
  0001c		 |$LN8@GetDeviceC|
  0001c	00000000	 DCD         |?_rgDeviceClockNames@@3PAPBGA|
  00020		 |$LN9@GetDeviceC|
  00020	00000000	 DCD         |?szUnknown@?1??GetDeviceClockText@@YAPBGH@Z@4PBGB|
  00024		 |$M39145|

			 ENDP  ; |?GetDeviceClockText@@YAPBGH@Z|, GetDeviceClockText

	EXPORT	|?FindClockIdByName@@YAIPBG@Z|		; FindClockIdByName

  00000			 AREA	 |.pdata|, PDATA
|$T39164| DCD	|$LN11@FindClockI|
	DCD	0x40001701
; Function compile flags: /Ogspy

  00000			 AREA	 |.text|, CODE, ARM

  00000		 |?FindClockIdByName@@YAIPBG@Z| PROC	; FindClockIdByName

; 292  : {

  00000		 |$LN11@FindClockI|
  00000	e92d4070	 stmdb       sp!, {r4 - r6, lr}
  00004		 |$M39161|
  00004	e1a06000	 mov         r6, r0

; 293  :     int i = 0;
; 294  :     while (_rgDeviceClockNames[i])

  00008	e59f5048	 ldr         r5, [pc, #0x48]
  0000c	e3a04000	 mov         r4, #0
  00010	e5953000	 ldr         r3, [r5]
  00014	e3530000	 cmp         r3, #0
  00018	0a00000a	 beq         |$LN2@FindClockI|
  0001c	e1a02005	 mov         r2, r5
  00020		 |$LL3@FindClockI|

; 295  :         {
; 296  :         if (_tcsicmp(_rgDeviceClockNames[i], szName) == 0)

  00020	e5920000	 ldr         r0, [r2]
  00024	e1a01006	 mov         r1, r6
  00028	eb000000	 bl          _wcsicmp
  0002c	e3500000	 cmp         r0, #0
  00030	0a000005	 beq         |$LN4@FindClockI|

; 297  :             {         
; 298  :             return i;
; 299  :             }
; 300  :         ++i;

  00034	e2844001	 add         r4, r4, #1
  00038	e1a02005	 mov         r2, r5
  0003c	e7b23104	 ldr         r3, [r2, +r4, lsl #2]!
  00040	e3530000	 cmp         r3, #0
  00044	1afffff5	 bne         |$LL3@FindClockI|
  00048		 |$LN2@FindClockI|

; 301  :         }
; 302  :     return (UINT)-1;

  00048	e3e04000	 mvn         r4, #0
  0004c		 |$LN4@FindClockI|

; 303  : }

  0004c	e1a00004	 mov         r0, r4
  00050	e8bd4070	 ldmia       sp!, {r4 - r6, lr}
  00054	e12fff1e	 bx          lr
  00058		 |$LN12@FindClockI|
  00058		 |$LN13@FindClockI|
  00058	00000000	 DCD         |?_rgDeviceClockNames@@3PAPBGA|
  0005c		 |$M39162|

			 ENDP  ; |?FindClockIdByName@@YAIPBG@Z|, FindClockIdByName

	EXPORT	|?GetDpllClockText@@YAPBGH@Z|		; GetDpllClockText
	EXPORT	|??_C@_1CI@JBPJAPA@?$AA?$CI?$AAU?$AAK?$AAN?$AAO?$AAW?$AAN?$AA?5?$AAD?$AAP?$AAL?$AAL?$AA?5?$AAC?$AAL?$AAO?$AAC?$AAK?$AA?$CJ?$AA?$AA@| [ DATA ] ; `string'

  00000			 AREA	 |.pdata|, PDATA
|$T39177| DCD	|$LN6@GetDpllClo|
	DCD	0x40000900

  00000			 AREA	 |.rdata|, DATA, READONLY
|??_C@_1CI@JBPJAPA@?$AA?$CI?$AAU?$AAK?$AAN?$AAO?$AAW?$AAN?$AA?5?$AAD?$AAP?$AAL?$AAL?$AA?5?$AAC?$AAL?$AAO?$AAC?$AAK?$AA?$CJ?$AA?$AA@| DCB "("
	DCB	0x0, "U", 0x0, "K", 0x0, "N", 0x0, "O", 0x0, "W", 0x0, "N"
	DCB	0x0, " ", 0x0, "D", 0x0, "P", 0x0, "L", 0x0, "L", 0x0, " "
	DCB	0x0, "C", 0x0, "L", 0x0, "O", 0x0, "C", 0x0, "K", 0x0, ")"
	DCB	0x0, 0x0, 0x0				; `string'

  00000			 AREA	 |.data|, DATA
|?szUnknown@?1??GetDpllClockText@@YAPBGH@Z@4PBGB| DCD |??_C@_1CI@JBPJAPA@?$AA?$CI?$AAU?$AAK?$AAN?$AAO?$AAW?$AAN?$AA?5?$AAD?$AAP?$AAL?$AAL?$AA?5?$AAC?$AAL?$AAO?$AAC?$AAK?$AA?$CJ?$AA?$AA@| ; `GetDpllClockText'::`2'::szUnknown
; Function compile flags: /Ogspy

  00000			 AREA	 |.text|, CODE, ARM

  00000		 |?GetDpllClockText@@YAPBGH@Z| PROC	; GetDpllClockText

; 328  : {

  00000		 |$LN6@GetDpllClo|
  00000		 |$M39174|
  00000	e1a02000	 mov         r2, r0

; 329  :     static WCHAR const* szUnknown = L"(UKNOWN DPLL CLOCK)";
; 330  : 
; 331  :     WCHAR const * szResult = szUnknown;

  00004	e59f3014	 ldr         r3, [pc, #0x14]

; 332  :     if (i < sizeof(_rgDpllClockNames)/sizeof(WCHAR const*))

  00008	e3520010	 cmp         r2, #0x10
  0000c	e5930000	 ldr         r0, [r3]

; 333  :         szResult = _rgDpllClockNames[i];

  00010	359f3004	 ldrcc       r3, [pc, #4]
  00014	37930102	 ldrcc       r0, [r3, +r2, lsl #2]

; 334  : 
; 335  :     return szResult;
; 336  : }

  00018	e12fff1e	 bx          lr
  0001c		 |$LN7@GetDpllClo|
  0001c		 |$LN8@GetDpllClo|
  0001c	00000000	 DCD         |?_rgDpllClockNames@@3PAPBGA|
  00020		 |$LN9@GetDpllClo|
  00020	00000000	 DCD         |?szUnknown@?1??GetDpllClockText@@YAPBGH@Z@4PBGB|
  00024		 |$M39175|

			 ENDP  ; |?GetDpllClockText@@YAPBGH@Z|, GetDpllClockText

	EXPORT	|?GetDpllText@@YAPBGH@Z|		; GetDpllText
	EXPORT	|??_C@_1BM@OELBIGEM@?$AA?$CI?$AAU?$AAK?$AAN?$AAO?$AAW?$AAN?$AA?5?$AAD?$AAP?$AAL?$AAL?$AA?$CJ?$AA?$AA@| [ DATA ] ; `string'

  00000			 AREA	 |.pdata|, PDATA
|$T39191| DCD	|$LN6@GetDpllTex|
	DCD	0x40000900

  00000			 AREA	 |.rdata|, DATA, READONLY
|??_C@_1BM@OELBIGEM@?$AA?$CI?$AAU?$AAK?$AAN?$AAO?$AAW?$AAN?$AA?5?$AAD?$AAP?$AAL?$AAL?$AA?$CJ?$AA?$AA@| DCB "("
	DCB	0x0, "U", 0x0, "K", 0x0, "N", 0x0, "O", 0x0, "W", 0x0, "N"
	DCB	0x0, " ", 0x0, "D", 0x0, "P", 0x0, "L", 0x0, "L", 0x0, ")"
	DCB	0x0, 0x0, 0x0				; `string'

  00000			 AREA	 |.data|, DATA
|?szUnknown@?1??GetDpllText@@YAPBGH@Z@4PBGB| DCD |??_C@_1BM@OELBIGEM@?$AA?$CI?$AAU?$AAK?$AAN?$AAO?$AAW?$AAN?$AA?5?$AAD?$AAP?$AAL?$AAL?$AA?$CJ?$AA?$AA@| ; `GetDpllText'::`2'::szUnknown
; Function compile flags: /Ogspy

  00000			 AREA	 |.text|, CODE, ARM

  00000		 |?GetDpllText@@YAPBGH@Z| PROC		; GetDpllText

; 351  : {

  00000		 |$LN6@GetDpllTex|
  00000		 |$M39188|
  00000	e1a02000	 mov         r2, r0

; 352  :     static WCHAR const* szUnknown = L"(UKNOWN DPLL)";
; 353  : 
; 354  :     WCHAR const * szResult = szUnknown;

  00004	e59f3014	 ldr         r3, [pc, #0x14]

; 355  :     if (i < sizeof(_rgDpllNames)/sizeof(WCHAR const*))

  00008	e3520006	 cmp         r2, #6
  0000c	e5930000	 ldr         r0, [r3]

; 356  :         szResult = _rgDpllNames[i];

  00010	359f3004	 ldrcc       r3, [pc, #4]
  00014	37930102	 ldrcc       r0, [r3, +r2, lsl #2]

; 357  : 
; 358  :     return szResult;
; 359  : }

  00018	e12fff1e	 bx          lr
  0001c		 |$LN7@GetDpllTex|
  0001c		 |$LN8@GetDpllTex|
  0001c	00000000	 DCD         |?_rgDpllNames@@3PAPBGA|
  00020		 |$LN9@GetDpllTex|
  00020	00000000	 DCD         |?szUnknown@?1??GetDpllText@@YAPBGH@Z@4PBGB|
  00024		 |$M39189|

			 ENDP  ; |?GetDpllText@@YAPBGH@Z|, GetDpllText

	EXPORT	|?GetVddText@@YAPBGH@Z|			; GetVddText
	EXPORT	|??_C@_1BK@BILLIJOA@?$AA?$CI?$AAU?$AAK?$AAN?$AAO?$AAW?$AAN?$AA?5?$AAV?$AAd?$AAd?$AA?$CJ?$AA?$AA@| [ DATA ] ; `string'

  00000			 AREA	 |.pdata|, PDATA
|$T39205| DCD	|$LN6@GetVddText|
	DCD	0x40000900

  00000			 AREA	 |.rdata|, DATA, READONLY
|??_C@_1BK@BILLIJOA@?$AA?$CI?$AAU?$AAK?$AAN?$AAO?$AAW?$AAN?$AA?5?$AAV?$AAd?$AAd?$AA?$CJ?$AA?$AA@| DCB "("
	DCB	0x0, "U", 0x0, "K", 0x0, "N", 0x0, "O", 0x0, "W", 0x0, "N"
	DCB	0x0, " ", 0x0, "V", 0x0, "d", 0x0, "d", 0x0, ")", 0x0, 0x0
	DCB	0x0					; `string'

  00000			 AREA	 |.data|, DATA
|?szUnknown@?1??GetVddText@@YAPBGH@Z@4PBGB| DCD |??_C@_1BK@BILLIJOA@?$AA?$CI?$AAU?$AAK?$AAN?$AAO?$AAW?$AAN?$AA?5?$AAV?$AAd?$AAd?$AA?$CJ?$AA?$AA@| ; `GetVddText'::`2'::szUnknown
; Function compile flags: /Ogspy

  00000			 AREA	 |.text|, CODE, ARM

  00000		 |?GetVddText@@YAPBGH@Z| PROC		; GetVddText

; 377  : {

  00000		 |$LN6@GetVddText|
  00000		 |$M39202|
  00000	e1a02000	 mov         r2, r0

; 378  :     static WCHAR const* szUnknown = L"(UKNOWN Vdd)";
; 379  : 
; 380  :     WCHAR const * szResult = szUnknown;

  00004	e59f3014	 ldr         r3, [pc, #0x14]

; 381  :     if (i < sizeof(_rgVddNames)/sizeof(WCHAR const*))

  00008	e3520009	 cmp         r2, #9
  0000c	e5930000	 ldr         r0, [r3]

; 382  :         szResult = _rgVddNames[i];

  00010	359f3004	 ldrcc       r3, [pc, #4]
  00014	37930102	 ldrcc       r0, [r3, +r2, lsl #2]

; 383  : 
; 384  :     return szResult;
; 385  : }

  00018	e12fff1e	 bx          lr
  0001c		 |$LN7@GetVddText|
  0001c		 |$LN8@GetVddText|
  0001c	00000000	 DCD         |?_rgVddNames@@3PAPBGA|
  00020		 |$LN9@GetVddText|
  00020	00000000	 DCD         |?szUnknown@?1??GetVddText@@YAPBGH@Z@4PBGB|
  00024		 |$M39203|

			 ENDP  ; |?GetVddText@@YAPBGH@Z|, GetVddText

	EXPORT	|?FindDeviceIdByName@@YAIPBG@Z|		; FindDeviceIdByName

  00000			 AREA	 |.pdata|, PDATA
|$T39222| DCD	|$LN11@FindDevice|
	DCD	0x40001901
; Function compile flags: /Ogspy

  00000			 AREA	 |.text|, CODE, ARM

  00000		 |?FindDeviceIdByName@@YAIPBG@Z| PROC	; FindDeviceIdByName

; 476  : {

  00000		 |$LN11@FindDevice|
  00000	e92d4070	 stmdb       sp!, {r4 - r6, lr}
  00004		 |$M39219|
  00004	e1a06000	 mov         r6, r0

; 477  :     int i = 0;
; 478  :     while (_rgOmapDeviceMap[i].pszDevice)

  00008	e59f4050	 ldr         r4, [pc, #0x50]
  0000c	e3a05000	 mov         r5, #0
  00010	e5943004	 ldr         r3, [r4, #4]
  00014	e3530000	 cmp         r3, #0
  00018	0a00000a	 beq         |$LN2@FindDevice|
  0001c	e1a02004	 mov         r2, r4
  00020		 |$LL3@FindDevice|

; 479  :         {
; 480  :         if (_tcsicmp(_rgOmapDeviceMap[i].pszDevice, szName) == 0)

  00020	e5920004	 ldr         r0, [r2, #4]
  00024	e1a01006	 mov         r1, r6
  00028	eb000000	 bl          _wcsicmp
  0002c	e3500000	 cmp         r0, #0
  00030	0a000007	 beq         |$LN7@FindDevice|

; 483  :             }
; 484  :         ++i;

  00034	e2855001	 add         r5, r5, #1
  00038	e0842185	 add         r2, r4, r5, lsl #3
  0003c	e5923004	 ldr         r3, [r2, #4]
  00040	e3530000	 cmp         r3, #0
  00044	1afffff5	 bne         |$LL3@FindDevice|
  00048		 |$LN2@FindDevice|

; 485  :         }
; 486  :     return OMAP_DEVICE_NONE;

  00048	e3e00000	 mvn         r0, #0

; 487  : }

  0004c	e8bd4070	 ldmia       sp!, {r4 - r6, lr}
  00050	e12fff1e	 bx          lr
  00054		 |$LN7@FindDevice|

; 481  :             {         
; 482  :             return _rgOmapDeviceMap[i].devId;

  00054	e7940185	 ldr         r0, [r4, +r5, lsl #3]

; 487  : }

  00058	e8bd4070	 ldmia       sp!, {r4 - r6, lr}
  0005c	e12fff1e	 bx          lr
  00060		 |$LN12@FindDevice|
  00060		 |$LN13@FindDevice|
  00060	00000000	 DCD         |?_rgOmapDeviceMap@@3PAUOMAP_CLOCK_MAP@@A|
  00064		 |$M39220|

			 ENDP  ; |?FindDeviceIdByName@@YAIPBG@Z|, FindDeviceIdByName

	EXPORT	|?FindDeviceNameById@@YAPBGI@Z|		; FindDeviceNameById

  00000			 AREA	 |.pdata|, PDATA
|$T39238| DCD	|$LN12@FindDevice@2|
	DCD	0x40001801
; Function compile flags: /Ogspy

  00000			 AREA	 |.text|, CODE, ARM

  00000		 |?FindDeviceNameById@@YAPBGI@Z| PROC	; FindDeviceNameById

; 490  : {

  00000		 |$LN12@FindDevice@2|
  00000	e52de004	 str         lr, [sp, #-4]!
  00004		 |$M39235|

; 491  :     for (int i = 0; _rgOmapDeviceMap[i].pszDevice; ++i)

  00004	e59f2050	 ldr         r2, [pc, #0x50]
  00008	e3a0e000	 mov         lr, #0
  0000c	e5923004	 ldr         r3, [r2, #4]
  00010	e3530000	 cmp         r3, #0
  00014	0a000009	 beq         |$LN2@FindDevice@2|
  00018	e3a01000	 mov         r1, #0
  0001c		 |$LL4@FindDevice@2|

; 492  :         {
; 493  :         if (_rgOmapDeviceMap[i].devId == devId)

  0001c	e7913002	 ldr         r3, [r1, +r2]
  00020	e1530000	 cmp         r3, r0
  00024	0a000008	 beq         |$LN8@FindDevice@2|
  00028	e28ee001	 add         lr, lr, #1
  0002c	e1a0118e	 mov         r1, lr, lsl #3
  00030	e0813002	 add         r3, r1, r2
  00034	e5933004	 ldr         r3, [r3, #4]
  00038	e3530000	 cmp         r3, #0
  0003c	1afffff6	 bne         |$LL4@FindDevice@2|
  00040		 |$LN2@FindDevice@2|

; 495  :         }
; 496  :     return NULL;

  00040	e3a00000	 mov         r0, #0

; 497  : }

  00044	e49de004	 ldr         lr, [sp], #4
  00048	e12fff1e	 bx          lr
  0004c		 |$LN8@FindDevice@2|

; 494  :             return _rgOmapDeviceMap[i].pszDevice;

  0004c	e2823004	 add         r3, r2, #4
  00050	e793018e	 ldr         r0, [r3, +lr, lsl #3]

; 497  : }

  00054	e49de004	 ldr         lr, [sp], #4
  00058	e12fff1e	 bx          lr
  0005c		 |$LN13@FindDevice@2|
  0005c		 |$LN14@FindDevice@2|
  0005c	00000000	 DCD         |?_rgOmapDeviceMap@@3PAUOMAP_CLOCK_MAP@@A|
  00060		 |$M39236|

			 ENDP  ; |?FindDeviceNameById@@YAPBGI@Z|, FindDeviceNameById

	EXPORT	|?FindClockIdByName@@YAHPBGPAI1@Z|	; FindClockIdByName

  00000			 AREA	 |.pdata|, PDATA
|$T39260| DCD	|$LN16@FindClockI@2|
	DCD	0x40002601
; Function compile flags: /Ogspy

  00000			 AREA	 |.text|, CODE, ARM

  00000		 |?FindClockIdByName@@YAHPBGPAI1@Z| PROC ; FindClockIdByName

; 559  : {    

  00000		 |$LN16@FindClockI@2|
  00000	e92d43f0	 stmdb       sp!, {r4 - r9, lr}
  00004		 |$M39257|
  00004	e1a07002	 mov         r7, r2
  00008	e1a08001	 mov         r8, r1
  0000c	e1a09000	 mov         r9, r0

; 560  :     UINT clockId;
; 561  :     UINT nLevel = 0;

  00010	e59f507c	 ldr         r5, [pc, #0x7C]
  00014	e3a04000	 mov         r4, #0
  00018		 |$LL5@FindClockI@2|

; 562  :     while (nLevel < 4)
; 563  :         {
; 564  :         clockId = 0;
; 565  :         while (_rgClockMap[nLevel][clockId] != NULL)

  00018	e5953000	 ldr         r3, [r5]
  0001c	e3a06000	 mov         r6, #0
  00020	e5933000	 ldr         r3, [r3]
  00024	e3530000	 cmp         r3, #0
  00028	0a00000c	 beq         |$LN2@FindClockI@2|
  0002c	e3a0e000	 mov         lr, #0
  00030		 |$LL3@FindClockI@2|

; 566  :             {
; 567  :             if (wcsicmp(_rgClockMap[nLevel][clockId], szName) == 0)

  00030	e5953000	 ldr         r3, [r5]
  00034	e1a01009	 mov         r1, r9
  00038	e793000e	 ldr         r0, [r3, +lr]
  0003c	eb000000	 bl          _wcsicmp
  00040	e3500000	 cmp         r0, #0
  00044	0a00000c	 beq         |$LN10@FindClockI@2|
  00048	e5953000	 ldr         r3, [r5]

; 572  :                 }
; 573  :             clockId++;

  0004c	e2866001	 add         r6, r6, #1
  00050	e1a0e106	 mov         lr, r6, lsl #2
  00054	e793300e	 ldr         r3, [r3, +lr]
  00058	e3530000	 cmp         r3, #0
  0005c	1afffff3	 bne         |$LL3@FindClockI@2|
  00060		 |$LN2@FindClockI@2|

; 574  :             }
; 575  :         nLevel++;

  00060	e2844001	 add         r4, r4, #1
  00064	e3540004	 cmp         r4, #4
  00068	e2855004	 add         r5, r5, #4
  0006c	3affffe9	 bcc         |$LL5@FindClockI@2|

; 576  :         }
; 577  :     
; 578  :     return FALSE;

  00070	e3a00000	 mov         r0, #0

; 579  : }

  00074	e8bd43f0	 ldmia       sp!, {r4 - r9, lr}
  00078	e12fff1e	 bx          lr
  0007c		 |$LN10@FindClockI@2|

; 568  :                 {
; 569  :                 *pClockId = clockId;
; 570  :                 *pLevel = nLevel + 1;

  0007c	e2843001	 add         r3, r4, #1
  00080	e5886000	 str         r6, [r8]
  00084	e5873000	 str         r3, [r7]

; 571  :                 return TRUE;

  00088	e3a00001	 mov         r0, #1

; 579  : }

  0008c	e8bd43f0	 ldmia       sp!, {r4 - r9, lr}
  00090	e12fff1e	 bx          lr
  00094		 |$LN17@FindClockI@2|
  00094		 |$LN18@FindClockI@2|
  00094	00000000	 DCD         |?_rgClockMap@@3PAPAPBGA|
  00098		 |$M39258|

			 ENDP  ; |?FindClockIdByName@@YAHPBGPAI1@Z|, FindClockIdByName

	EXPORT	|?FindClockNameById@@YAPBGII@Z|		; FindClockNameById

  00000			 AREA	 |.pdata|, PDATA
|$T39273| DCD	|$LN5@FindClockN|
	DCD	0x40000600
; Function compile flags: /Ogspy

  00000			 AREA	 |.text|, CODE, ARM

  00000		 |?FindClockNameById@@YAPBGII@Z| PROC	; FindClockNameById

; 586  : {

  00000		 |$LN5@FindClockN|
  00000		 |$M39270|

; 587  :     return _rgClockMap[nLevel - 1][clockId];

  00000	e59f300c	 ldr         r3, [pc, #0xC]
  00004	e0833101	 add         r3, r3, r1, lsl #2
  00008	e5133004	 ldr         r3, [r3, #-4]
  0000c	e7930100	 ldr         r0, [r3, +r0, lsl #2]

; 588  : }

  00010	e12fff1e	 bx          lr
  00014		 |$LN6@FindClockN|
  00014		 |$LN7@FindClockN|
  00014	00000000	 DCD         |?_rgClockMap@@3PAPAPBGA|
  00018		 |$M39271|

			 ENDP  ; |?FindClockNameById@@YAPBGII@Z|, FindClockNameById

	END
