; Listing generated by Microsoft (R) Optimizing Compiler Version 14.01.60511.01 

	TTL	C:\WINCE600\PLATFORM\COMMON\SRC\COMMON\PCI\dump.c
	CODE32

  00000			 AREA	 |.drectve|, DRECTVE
	DCB	"-defaultlib:LIBCMT "
	DCB	"-defaultlib:OLDNAMES "

	EXPORT	|??_C@_1HC@NDOFNJLH@?$AAP?$AAC?$AAI?$AA?5?$AA?$CF?$AAd?$AA?1?$AA?$CF?$AAd?$AA?1?$AA?$CF?$AAd?$AA?5?$AA?9?$AA?5?$AAS?$AAe?$AAc?$AAL?$AAa?$AAt?$AAe?$AAn?$AAc?$AAy?$AA?5?$AA0?$AAx?$AA?$CF?$AA0?$AA2?$AAx@| [ DATA ] ; `string'
	EXPORT	|??_C@_1HO@JGCGLKPH@?$AAP?$AAC?$AAI?$AA?5?$AA?$CF?$AAd?$AA?1?$AA?$CF?$AAd?$AA?1?$AA?$CF?$AAd?$AA?5?$AA?9?$AA?5?$AAM?$AAe?$AAm?$AAB?$AAa?$AAs?$AAe?$AAU?$AAp?$AAp?$AAe?$AAr?$AA3?$AA2?$AA?5?$AA0?$AAx@| [ DATA ] ; `string'
	EXPORT	|??_C@_1HE@CJJFOOJK@?$AAP?$AAC?$AAI?$AA?5?$AA?$CF?$AAd?$AA?1?$AA?$CF?$AAd?$AA?1?$AA?$CF?$AAd?$AA?5?$AA?9?$AA?5?$AAP?$AAr?$AAe?$AAf?$AAe?$AAt?$AAc?$AAh?$AA?5?$AAM?$AAe?$AAm?$AAB?$AAa?$AAs?$AAe?$AA?5@| [ DATA ] ; `string'
	EXPORT	|??_C@_1GC@LBDLLJKM@?$AAP?$AAC?$AAI?$AA?5?$AA?$CF?$AAd?$AA?1?$AA?$CF?$AAd?$AA?1?$AA?$CF?$AAd?$AA?5?$AA?9?$AA?5?$AAM?$AAe?$AAm?$AAB?$AAa?$AAs?$AAe?$AA?5?$AA0?$AAx?$AA?$CF?$AA0?$AA4?$AAx?$AA?5?$AA?5?$AAM@| [ DATA ] ; `string'
	EXPORT	|??_C@_1LA@GAKAPNFM@?$AAP?$AAC?$AAI?$AA?5?$AA?$CF?$AAd?$AA?1?$AA?$CF?$AAd?$AA?1?$AA?$CF?$AAd?$AA?5?$AA?9?$AA?5?$AAI?$AAO?$AAB?$AAa?$AAs?$AAe?$AA?5?$AA0?$AAx?$AA?$CF?$AA0?$AA2?$AAx?$AA?5?$AA?5?$AAI?$AAO@| [ DATA ] ; `string'
	EXPORT	|??_C@_1HM@ECGGFNCI@?$AAP?$AAC?$AAI?$AA?5?$AA?$CF?$AAd?$AA?1?$AA?$CF?$AAd?$AA?1?$AA?$CF?$AAd?$AA?5?$AA?9?$AA?5?$AAB?$AAu?$AAs?$AA?5?$AAP?$AAr?$AAi?$AAm?$AAa?$AAr?$AAy?$AA?5?$AA?$CF?$AAd?$AA?5?$AA?5?$AAS@| [ DATA ] ; `string'
	EXPORT	|??_C@_1FC@KDMEOPEI@?$AAP?$AAC?$AAI?$AA?5?$AA?$CF?$AAd?$AA?1?$AA?$CF?$AAd?$AA?1?$AA?$CF?$AAd?$AA?5?$AA?9?$AA?5?$AAA?$AAd?$AAd?$AAr?$AAe?$AAs?$AAs?$AAe?$AAs?$AA?5?$AA0?$AAx?$AA?$CF?$AA0?$AA8?$AAx?$AA?5@| [ DATA ] ; `string'
	EXPORT	|??_C@_1GI@HLAJCALP@?$AAP?$AAC?$AAI?$AA?5?$AA?$CF?$AAd?$AA?1?$AA?$CF?$AAd?$AA?1?$AA?$CF?$AAd?$AA?5?$AA?9?$AA?5?$AAM?$AAi?$AAn?$AAG?$AAr?$AAa?$AAn?$AAt?$AA?5?$AA0?$AAx?$AA?$CF?$AA0?$AA2?$AAx?$AA?5?$AA?5@| [ DATA ] ; `string'
	EXPORT	|??_C@_1HK@ICNCEAFI@?$AAP?$AAC?$AAI?$AA?5?$AA?$CF?$AAd?$AA?1?$AA?$CF?$AAd?$AA?1?$AA?$CF?$AAd?$AA?5?$AA?9?$AA?5?$AAR?$AAO?$AAM?$AA?5?$AA0?$AAx?$AA?$CF?$AA0?$AA8?$AAx?$AA?5?$AA?5?$AAI?$AAn?$AAt?$AAr?$AAL@| [ DATA ] ; `string'
	EXPORT	|??_C@_1II@HLJEJEHG@?$AAP?$AAC?$AAI?$AA?5?$AA?$CF?$AAd?$AA?1?$AA?$CF?$AAd?$AA?1?$AA?$CF?$AAd?$AA?5?$AA?9?$AA?5?$AAC?$AAI?$AAS?$AA?5?$AA0?$AAx?$AA?$CF?$AA0?$AA8?$AAx?$AA?5?$AA?5?$AAS?$AAu?$AAb?$AAV?$AAe@| [ DATA ] ; `string'
	EXPORT	|??_C@_1IK@FIJCIEPN@?$AAP?$AAC?$AAI?$AA?5?$AA?$CF?$AAd?$AA?1?$AA?$CF?$AAd?$AA?1?$AA?$CF?$AAd?$AA?5?$AA?9?$AA?5?$AAA?$AAd?$AAd?$AAr?$AAe?$AAs?$AAs?$AAe?$AAs?$AA?5?$AA0?$AAx?$AA?$CF?$AA0?$AA8?$AAx?$AA?5@| [ DATA ] ; `string'
	EXPORT	|??_C@_1JM@NMMOKKLK@?$AAP?$AAC?$AAI?$AA?5?$AA?$CF?$AAd?$AA?1?$AA?$CF?$AAd?$AA?1?$AA?$CF?$AAd?$AA?5?$AA?9?$AA?5?$AAC?$AAa?$AAc?$AAh?$AAe?$AAL?$AAi?$AAn?$AAe?$AA?5?$AA0?$AAx?$AA?$CF?$AA0?$AA2?$AAx?$AA?5@| [ DATA ] ; `string'
	EXPORT	|??_C@_1JM@FNKAEBAM@?$AAP?$AAC?$AAI?$AA?5?$AA?$CF?$AAd?$AA?1?$AA?$CF?$AAd?$AA?1?$AA?$CF?$AAd?$AA?5?$AA?9?$AA?5?$AAR?$AAe?$AAv?$AA?5?$AA0?$AAx?$AA?$CF?$AA0?$AA2?$AAx?$AA?5?$AA?5?$AAP?$AAr?$AAo?$AAg?$AAI@| [ DATA ] ; `string'
	EXPORT	|??_C@_1FO@OJPFKNEM@?$AAP?$AAC?$AAI?$AA?5?$AA?$CF?$AAd?$AA?1?$AA?$CF?$AAd?$AA?1?$AA?$CF?$AAd?$AA?5?$AA?9?$AA?5?$AAC?$AAo?$AAm?$AAm?$AAa?$AAn?$AAd?$AA?5?$AA0?$AAx?$AA?$CF?$AA0?$AA4?$AAx?$AA?5?$AA?5?$AAS@| [ DATA ] ; `string'
	EXPORT	|??_C@_1GE@PAMDEII@?$AAP?$AAC?$AAI?$AA?5?$AA?$CF?$AAd?$AA?1?$AA?$CF?$AAd?$AA?1?$AA?$CF?$AAd?$AA?5?$AA?9?$AA?5?$AAV?$AAe?$AAn?$AAd?$AAo?$AAr?$AAI?$AAD?$AA?5?$AA0?$AAx?$AA?$CF?$AA0?$AA4?$AAx?$AA?5?$AA?5@| [ DATA ] ; `string'
	EXPORT	|??_C@_1M@JEHOPNL@?$AA?9?$AA?9?$AA?9?$AA?$AN?$AA?6?$AA?$AA@| [ DATA ] ; `string'
	EXPORT	|__$ArrayPad$| [ DATA ]
	EXPORT	|OALPCIDumpConfig|
	IMPORT	|NKDbgPrintfW|
	IMPORT	|OALPCICfgRead|
	IMPORT	|memset|
	IMPORT	|__security_cookie|
	IMPORT	|__GSHandlerCheck|
	IMPORT	|__security_check_cookie|

  00000			 AREA	 |.pdata|, PDATA
|$T40360| DCD	|$LN9@OALPCIDump|
	DCD	0xc000e304
; File c:\wince600\platform\common\src\common\pci\dump.c

  00000			 AREA	 |.rdata|, DATA, READONLY
|??_C@_1HC@NDOFNJLH@?$AAP?$AAC?$AAI?$AA?5?$AA?$CF?$AAd?$AA?1?$AA?$CF?$AAd?$AA?1?$AA?$CF?$AAd?$AA?5?$AA?9?$AA?5?$AAS?$AAe?$AAc?$AAL?$AAa?$AAt?$AAe?$AAn?$AAc?$AAy?$AA?5?$AA0?$AAx?$AA?$CF?$AA0?$AA2?$AAx@| DCB "P"
	DCB	0x0, "C", 0x0, "I", 0x0, " ", 0x0, "%", 0x0, "d", 0x0, "/"
	DCB	0x0, "%", 0x0, "d", 0x0, "/", 0x0, "%", 0x0, "d", 0x0, " "
	DCB	0x0, "-", 0x0, " ", 0x0, "S", 0x0, "e", 0x0, "c", 0x0, "L"
	DCB	0x0, "a", 0x0, "t", 0x0, "e", 0x0, "n", 0x0, "c", 0x0, "y"
	DCB	0x0, " ", 0x0, "0", 0x0, "x", 0x0, "%", 0x0, "0", 0x0, "2"
	DCB	0x0, "x", 0x0, " ", 0x0, " ", 0x0, "B", 0x0, "r", 0x0, "i"
	DCB	0x0, "d", 0x0, "g", 0x0, "e", 0x0, "C", 0x0, "o", 0x0, "n"
	DCB	0x0, "t", 0x0, "r", 0x0, "o", 0x0, "l", 0x0, " ", 0x0, "0"
	DCB	0x0, "x", 0x0, "%", 0x0, "0", 0x0, "4", 0x0, "x", 0x0, 0xd
	DCB	0x0, 0xa, 0x0, 0x0, 0x0			; `string'

  00000			 AREA	 |.rdata|, DATA, READONLY
|??_C@_1HO@JGCGLKPH@?$AAP?$AAC?$AAI?$AA?5?$AA?$CF?$AAd?$AA?1?$AA?$CF?$AAd?$AA?1?$AA?$CF?$AAd?$AA?5?$AA?9?$AA?5?$AAM?$AAe?$AAm?$AAB?$AAa?$AAs?$AAe?$AAU?$AAp?$AAp?$AAe?$AAr?$AA3?$AA2?$AA?5?$AA0?$AAx@| DCB "P"
	DCB	0x0, "C", 0x0, "I", 0x0, " ", 0x0, "%", 0x0, "d", 0x0, "/"
	DCB	0x0, "%", 0x0, "d", 0x0, "/", 0x0, "%", 0x0, "d", 0x0, " "
	DCB	0x0, "-", 0x0, " ", 0x0, "M", 0x0, "e", 0x0, "m", 0x0, "B"
	DCB	0x0, "a", 0x0, "s", 0x0, "e", 0x0, "U", 0x0, "p", 0x0, "p"
	DCB	0x0, "e", 0x0, "r", 0x0, "3", 0x0, "2", 0x0, " ", 0x0, "0"
	DCB	0x0, "x", 0x0, "%", 0x0, "0", 0x0, "8", 0x0, "x", 0x0, " "
	DCB	0x0, " ", 0x0, "M", 0x0, "e", 0x0, "m", 0x0, "L", 0x0, "i"
	DCB	0x0, "m", 0x0, "i", 0x0, "t", 0x0, "U", 0x0, "p", 0x0, "p"
	DCB	0x0, "e", 0x0, "r", 0x0, "3", 0x0, "2", 0x0, " ", 0x0, "0"
	DCB	0x0, "x", 0x0, "%", 0x0, "0", 0x0, "8", 0x0, "x", 0x0, 0xd
	DCB	0x0, 0xa, 0x0, 0x0, 0x0			; `string'

  00000			 AREA	 |.rdata|, DATA, READONLY
|??_C@_1HE@CJJFOOJK@?$AAP?$AAC?$AAI?$AA?5?$AA?$CF?$AAd?$AA?1?$AA?$CF?$AAd?$AA?1?$AA?$CF?$AAd?$AA?5?$AA?9?$AA?5?$AAP?$AAr?$AAe?$AAf?$AAe?$AAt?$AAc?$AAh?$AA?5?$AAM?$AAe?$AAm?$AAB?$AAa?$AAs?$AAe?$AA?5@| DCB "P"
	DCB	0x0, "C", 0x0, "I", 0x0, " ", 0x0, "%", 0x0, "d", 0x0, "/"
	DCB	0x0, "%", 0x0, "d", 0x0, "/", 0x0, "%", 0x0, "d", 0x0, " "
	DCB	0x0, "-", 0x0, " ", 0x0, "P", 0x0, "r", 0x0, "e", 0x0, "f"
	DCB	0x0, "e", 0x0, "t", 0x0, "c", 0x0, "h", 0x0, " ", 0x0, "M"
	DCB	0x0, "e", 0x0, "m", 0x0, "B", 0x0, "a", 0x0, "s", 0x0, "e"
	DCB	0x0, " ", 0x0, "0", 0x0, "x", 0x0, "%", 0x0, "0", 0x0, "4"
	DCB	0x0, "x", 0x0, " ", 0x0, " ", 0x0, "M", 0x0, "e", 0x0, "m"
	DCB	0x0, "L", 0x0, "i", 0x0, "m", 0x0, "i", 0x0, "t", 0x0, " "
	DCB	0x0, "0", 0x0, "x", 0x0, "%", 0x0, "0", 0x0, "4", 0x0, "x"
	DCB	0x0, 0xd, 0x0, 0xa, 0x0, 0x0, 0x0	; `string'

  00000			 AREA	 |.rdata|, DATA, READONLY
|??_C@_1GC@LBDLLJKM@?$AAP?$AAC?$AAI?$AA?5?$AA?$CF?$AAd?$AA?1?$AA?$CF?$AAd?$AA?1?$AA?$CF?$AAd?$AA?5?$AA?9?$AA?5?$AAM?$AAe?$AAm?$AAB?$AAa?$AAs?$AAe?$AA?5?$AA0?$AAx?$AA?$CF?$AA0?$AA4?$AAx?$AA?5?$AA?5?$AAM@| DCB "P"
	DCB	0x0, "C", 0x0, "I", 0x0, " ", 0x0, "%", 0x0, "d", 0x0, "/"
	DCB	0x0, "%", 0x0, "d", 0x0, "/", 0x0, "%", 0x0, "d", 0x0, " "
	DCB	0x0, "-", 0x0, " ", 0x0, "M", 0x0, "e", 0x0, "m", 0x0, "B"
	DCB	0x0, "a", 0x0, "s", 0x0, "e", 0x0, " ", 0x0, "0", 0x0, "x"
	DCB	0x0, "%", 0x0, "0", 0x0, "4", 0x0, "x", 0x0, " ", 0x0, " "
	DCB	0x0, "M", 0x0, "e", 0x0, "m", 0x0, "L", 0x0, "i", 0x0, "m"
	DCB	0x0, "i", 0x0, "t", 0x0, " ", 0x0, "0", 0x0, "x", 0x0, "%"
	DCB	0x0, "0", 0x0, "4", 0x0, "x", 0x0, 0xd, 0x0, 0xa, 0x0, 0x0
	DCB	0x0					; `string'

  00000			 AREA	 |.rdata|, DATA, READONLY
|??_C@_1LA@GAKAPNFM@?$AAP?$AAC?$AAI?$AA?5?$AA?$CF?$AAd?$AA?1?$AA?$CF?$AAd?$AA?1?$AA?$CF?$AAd?$AA?5?$AA?9?$AA?5?$AAI?$AAO?$AAB?$AAa?$AAs?$AAe?$AA?5?$AA0?$AAx?$AA?$CF?$AA0?$AA2?$AAx?$AA?5?$AA?5?$AAI?$AAO@| DCB "P"
	DCB	0x0, "C", 0x0, "I", 0x0, " ", 0x0, "%", 0x0, "d", 0x0, "/"
	DCB	0x0, "%", 0x0, "d", 0x0, "/", 0x0, "%", 0x0, "d", 0x0, " "
	DCB	0x0, "-", 0x0, " ", 0x0, "I", 0x0, "O", 0x0, "B", 0x0, "a"
	DCB	0x0, "s", 0x0, "e", 0x0, " ", 0x0, "0", 0x0, "x", 0x0, "%"
	DCB	0x0, "0", 0x0, "2", 0x0, "x", 0x0, " ", 0x0, " ", 0x0, "I"
	DCB	0x0, "O", 0x0, "L", 0x0, "i", 0x0, "m", 0x0, "i", 0x0, "t"
	DCB	0x0, " ", 0x0, "0", 0x0, "x", 0x0, "%", 0x0, "0", 0x0, "2"
	DCB	0x0, "x", 0x0, " ", 0x0, " ", 0x0, "I", 0x0, "O", 0x0, "B"
	DCB	0x0, "a", 0x0, "s", 0x0, "e", 0x0, "U", 0x0, "p", 0x0, "p"
	DCB	0x0, "e", 0x0, "r", 0x0, " ", 0x0, "0", 0x0, "x", 0x0, "%"
	DCB	0x0, "0", 0x0, "4", 0x0, "x", 0x0, " ", 0x0, " ", 0x0, "I"
	DCB	0x0, "O", 0x0, "L", 0x0, "i", 0x0, "m", 0x0, "i", 0x0, "t"
	DCB	0x0, "U", 0x0, "p", 0x0, "p", 0x0, "e", 0x0, "r", 0x0, " "
	DCB	0x0, "0", 0x0, "x", 0x0, "%", 0x0, "0", 0x0, "4", 0x0, "x"
	DCB	0x0, 0xd, 0x0, 0xa, 0x0, 0x0, 0x0	; `string'

  00000			 AREA	 |.rdata|, DATA, READONLY
|??_C@_1HM@ECGGFNCI@?$AAP?$AAC?$AAI?$AA?5?$AA?$CF?$AAd?$AA?1?$AA?$CF?$AAd?$AA?1?$AA?$CF?$AAd?$AA?5?$AA?9?$AA?5?$AAB?$AAu?$AAs?$AA?5?$AAP?$AAr?$AAi?$AAm?$AAa?$AAr?$AAy?$AA?5?$AA?$CF?$AAd?$AA?5?$AA?5?$AAS@| DCB "P"
	DCB	0x0, "C", 0x0, "I", 0x0, " ", 0x0, "%", 0x0, "d", 0x0, "/"
	DCB	0x0, "%", 0x0, "d", 0x0, "/", 0x0, "%", 0x0, "d", 0x0, " "
	DCB	0x0, "-", 0x0, " ", 0x0, "B", 0x0, "u", 0x0, "s", 0x0, " "
	DCB	0x0, "P", 0x0, "r", 0x0, "i", 0x0, "m", 0x0, "a", 0x0, "r"
	DCB	0x0, "y", 0x0, " ", 0x0, "%", 0x0, "d", 0x0, " ", 0x0, " "
	DCB	0x0, "S", 0x0, "e", 0x0, "c", 0x0, "o", 0x0, "n", 0x0, "d"
	DCB	0x0, "a", 0x0, "r", 0x0, "y", 0x0, " ", 0x0, "%", 0x0, "d"
	DCB	0x0, " ", 0x0, " ", 0x0, "S", 0x0, "u", 0x0, "b", 0x0, "o"
	DCB	0x0, "r", 0x0, "d", 0x0, "i", 0x0, "n", 0x0, "a", 0x0, "t"
	DCB	0x0, "e", 0x0, " ", 0x0, "%", 0x0, "d", 0x0, 0xd, 0x0, 0xa
	DCB	0x0, 0x0, 0x0				; `string'

  00000			 AREA	 |.rdata|, DATA, READONLY
|??_C@_1FC@KDMEOPEI@?$AAP?$AAC?$AAI?$AA?5?$AA?$CF?$AAd?$AA?1?$AA?$CF?$AAd?$AA?1?$AA?$CF?$AAd?$AA?5?$AA?9?$AA?5?$AAA?$AAd?$AAd?$AAr?$AAe?$AAs?$AAs?$AAe?$AAs?$AA?5?$AA0?$AAx?$AA?$CF?$AA0?$AA8?$AAx?$AA?5@| DCB "P"
	DCB	0x0, "C", 0x0, "I", 0x0, " ", 0x0, "%", 0x0, "d", 0x0, "/"
	DCB	0x0, "%", 0x0, "d", 0x0, "/", 0x0, "%", 0x0, "d", 0x0, " "
	DCB	0x0, "-", 0x0, " ", 0x0, "A", 0x0, "d", 0x0, "d", 0x0, "r"
	DCB	0x0, "e", 0x0, "s", 0x0, "s", 0x0, "e", 0x0, "s", 0x0, " "
	DCB	0x0, "0", 0x0, "x", 0x0, "%", 0x0, "0", 0x0, "8", 0x0, "x"
	DCB	0x0, " ", 0x0, "0", 0x0, "x", 0x0, "%", 0x0, "0", 0x0, "8"
	DCB	0x0, "x", 0x0, 0xd, 0x0, 0xa, 0x0, 0x0, 0x0 ; `string'

  00000			 AREA	 |.rdata|, DATA, READONLY
|??_C@_1GI@HLAJCALP@?$AAP?$AAC?$AAI?$AA?5?$AA?$CF?$AAd?$AA?1?$AA?$CF?$AAd?$AA?1?$AA?$CF?$AAd?$AA?5?$AA?9?$AA?5?$AAM?$AAi?$AAn?$AAG?$AAr?$AAa?$AAn?$AAt?$AA?5?$AA0?$AAx?$AA?$CF?$AA0?$AA2?$AAx?$AA?5?$AA?5@| DCB "P"
	DCB	0x0, "C", 0x0, "I", 0x0, " ", 0x0, "%", 0x0, "d", 0x0, "/"
	DCB	0x0, "%", 0x0, "d", 0x0, "/", 0x0, "%", 0x0, "d", 0x0, " "
	DCB	0x0, "-", 0x0, " ", 0x0, "M", 0x0, "i", 0x0, "n", 0x0, "G"
	DCB	0x0, "r", 0x0, "a", 0x0, "n", 0x0, "t", 0x0, " ", 0x0, "0"
	DCB	0x0, "x", 0x0, "%", 0x0, "0", 0x0, "2", 0x0, "x", 0x0, " "
	DCB	0x0, " ", 0x0, "M", 0x0, "a", 0x0, "x", 0x0, "L", 0x0, "a"
	DCB	0x0, "t", 0x0, "e", 0x0, "n", 0x0, "c", 0x0, "y", 0x0, " "
	DCB	0x0, "0", 0x0, "x", 0x0, "%", 0x0, "0", 0x0, "2", 0x0, "x"
	DCB	0x0, 0xd, 0x0, 0xa, 0x0, 0x0, 0x0	; `string'

  00000			 AREA	 |.rdata|, DATA, READONLY
|??_C@_1HK@ICNCEAFI@?$AAP?$AAC?$AAI?$AA?5?$AA?$CF?$AAd?$AA?1?$AA?$CF?$AAd?$AA?1?$AA?$CF?$AAd?$AA?5?$AA?9?$AA?5?$AAR?$AAO?$AAM?$AA?5?$AA0?$AAx?$AA?$CF?$AA0?$AA8?$AAx?$AA?5?$AA?5?$AAI?$AAn?$AAt?$AAr?$AAL@| DCB "P"
	DCB	0x0, "C", 0x0, "I", 0x0, " ", 0x0, "%", 0x0, "d", 0x0, "/"
	DCB	0x0, "%", 0x0, "d", 0x0, "/", 0x0, "%", 0x0, "d", 0x0, " "
	DCB	0x0, "-", 0x0, " ", 0x0, "R", 0x0, "O", 0x0, "M", 0x0, " "
	DCB	0x0, "0", 0x0, "x", 0x0, "%", 0x0, "0", 0x0, "8", 0x0, "x"
	DCB	0x0, " ", 0x0, " ", 0x0, "I", 0x0, "n", 0x0, "t", 0x0, "r"
	DCB	0x0, "L", 0x0, "i", 0x0, "n", 0x0, "e", 0x0, " ", 0x0, "0"
	DCB	0x0, "x", 0x0, "%", 0x0, "0", 0x0, "2", 0x0, "x", 0x0, " "
	DCB	0x0, " ", 0x0, "I", 0x0, "n", 0x0, "t", 0x0, "r", 0x0, "P"
	DCB	0x0, "i", 0x0, "n", 0x0, " ", 0x0, "0", 0x0, "x", 0x0, "%"
	DCB	0x0, "0", 0x0, "2", 0x0, "x", 0x0, 0xd, 0x0, 0xa, 0x0, 0x0
	DCB	0x0					; `string'

  00000			 AREA	 |.rdata|, DATA, READONLY
|??_C@_1II@HLJEJEHG@?$AAP?$AAC?$AAI?$AA?5?$AA?$CF?$AAd?$AA?1?$AA?$CF?$AAd?$AA?1?$AA?$CF?$AAd?$AA?5?$AA?9?$AA?5?$AAC?$AAI?$AAS?$AA?5?$AA0?$AAx?$AA?$CF?$AA0?$AA8?$AAx?$AA?5?$AA?5?$AAS?$AAu?$AAb?$AAV?$AAe@| DCB "P"
	DCB	0x0, "C", 0x0, "I", 0x0, " ", 0x0, "%", 0x0, "d", 0x0, "/"
	DCB	0x0, "%", 0x0, "d", 0x0, "/", 0x0, "%", 0x0, "d", 0x0, " "
	DCB	0x0, "-", 0x0, " ", 0x0, "C", 0x0, "I", 0x0, "S", 0x0, " "
	DCB	0x0, "0", 0x0, "x", 0x0, "%", 0x0, "0", 0x0, "8", 0x0, "x"
	DCB	0x0, " ", 0x0, " ", 0x0, "S", 0x0, "u", 0x0, "b", 0x0, "V"
	DCB	0x0, "e", 0x0, "n", 0x0, "d", 0x0, "o", 0x0, "r", 0x0, "I"
	DCB	0x0, "D", 0x0, " ", 0x0, "0", 0x0, "x", 0x0, "%", 0x0, "0"
	DCB	0x0, "4", 0x0, "x", 0x0, " ", 0x0, " ", 0x0, "S", 0x0, "u"
	DCB	0x0, "b", 0x0, "S", 0x0, "y", 0x0, "s", 0x0, "t", 0x0, "e"
	DCB	0x0, "m", 0x0, "I", 0x0, "D", 0x0, " ", 0x0, "0", 0x0, "x"
	DCB	0x0, "%", 0x0, "0", 0x0, "4", 0x0, "x", 0x0, 0xd, 0x0, 0xa
	DCB	0x0, 0x0, 0x0				; `string'

  00000			 AREA	 |.rdata|, DATA, READONLY
|??_C@_1IK@FIJCIEPN@?$AAP?$AAC?$AAI?$AA?5?$AA?$CF?$AAd?$AA?1?$AA?$CF?$AAd?$AA?1?$AA?$CF?$AAd?$AA?5?$AA?9?$AA?5?$AAA?$AAd?$AAd?$AAr?$AAe?$AAs?$AAs?$AAe?$AAs?$AA?5?$AA0?$AAx?$AA?$CF?$AA0?$AA8?$AAx?$AA?5@| DCB "P"
	DCB	0x0, "C", 0x0, "I", 0x0, " ", 0x0, "%", 0x0, "d", 0x0, "/"
	DCB	0x0, "%", 0x0, "d", 0x0, "/", 0x0, "%", 0x0, "d", 0x0, " "
	DCB	0x0, "-", 0x0, " ", 0x0, "A", 0x0, "d", 0x0, "d", 0x0, "r"
	DCB	0x0, "e", 0x0, "s", 0x0, "s", 0x0, "e", 0x0, "s", 0x0, " "
	DCB	0x0, "0", 0x0, "x", 0x0, "%", 0x0, "0", 0x0, "8", 0x0, "x"
	DCB	0x0, " ", 0x0, "0", 0x0, "x", 0x0, "%", 0x0, "0", 0x0, "8"
	DCB	0x0, "x", 0x0, " ", 0x0, "0", 0x0, "x", 0x0, "%", 0x0, "0"
	DCB	0x0, "8", 0x0, "x", 0x0, " ", 0x0, "0", 0x0, "x", 0x0, "%"
	DCB	0x0, "0", 0x0, "8", 0x0, "x", 0x0, " ", 0x0, "0", 0x0, "x"
	DCB	0x0, "%", 0x0, "0", 0x0, "8", 0x0, "x", 0x0, " ", 0x0, "0"
	DCB	0x0, "x", 0x0, "%", 0x0, "0", 0x0, "8", 0x0, "x", 0x0, 0xd
	DCB	0x0, 0xa, 0x0, 0x0, 0x0			; `string'

  00000			 AREA	 |.rdata|, DATA, READONLY
|??_C@_1JM@NMMOKKLK@?$AAP?$AAC?$AAI?$AA?5?$AA?$CF?$AAd?$AA?1?$AA?$CF?$AAd?$AA?1?$AA?$CF?$AAd?$AA?5?$AA?9?$AA?5?$AAC?$AAa?$AAc?$AAh?$AAe?$AAL?$AAi?$AAn?$AAe?$AA?5?$AA0?$AAx?$AA?$CF?$AA0?$AA2?$AAx?$AA?5@| DCB "P"
	DCB	0x0, "C", 0x0, "I", 0x0, " ", 0x0, "%", 0x0, "d", 0x0, "/"
	DCB	0x0, "%", 0x0, "d", 0x0, "/", 0x0, "%", 0x0, "d", 0x0, " "
	DCB	0x0, "-", 0x0, " ", 0x0, "C", 0x0, "a", 0x0, "c", 0x0, "h"
	DCB	0x0, "e", 0x0, "L", 0x0, "i", 0x0, "n", 0x0, "e", 0x0, " "
	DCB	0x0, "0", 0x0, "x", 0x0, "%", 0x0, "0", 0x0, "2", 0x0, "x"
	DCB	0x0, " ", 0x0, " ", 0x0, "L", 0x0, "a", 0x0, "t", 0x0, "e"
	DCB	0x0, "n", 0x0, "c", 0x0, "y", 0x0, " ", 0x0, "0", 0x0, "x"
	DCB	0x0, "%", 0x0, "0", 0x0, "2", 0x0, "x", 0x0, " ", 0x0, " "
	DCB	0x0, "H", 0x0, "e", 0x0, "a", 0x0, "d", 0x0, "e", 0x0, "r"
	DCB	0x0, " ", 0x0, "0", 0x0, "x", 0x0, "%", 0x0, "0", 0x0, "2"
	DCB	0x0, "x", 0x0, " ", 0x0, " ", 0x0, "B", 0x0, "I", 0x0, "S"
	DCB	0x0, "T", 0x0, " ", 0x0, "0", 0x0, "x", 0x0, "%", 0x0, "0"
	DCB	0x0, "2", 0x0, "x", 0x0, 0xd, 0x0, 0xa, 0x0, 0x0, 0x0 ; `string'

  00000			 AREA	 |.rdata|, DATA, READONLY
|??_C@_1JM@FNKAEBAM@?$AAP?$AAC?$AAI?$AA?5?$AA?$CF?$AAd?$AA?1?$AA?$CF?$AAd?$AA?1?$AA?$CF?$AAd?$AA?5?$AA?9?$AA?5?$AAR?$AAe?$AAv?$AA?5?$AA0?$AAx?$AA?$CF?$AA0?$AA2?$AAx?$AA?5?$AA?5?$AAP?$AAr?$AAo?$AAg?$AAI@| DCB "P"
	DCB	0x0, "C", 0x0, "I", 0x0, " ", 0x0, "%", 0x0, "d", 0x0, "/"
	DCB	0x0, "%", 0x0, "d", 0x0, "/", 0x0, "%", 0x0, "d", 0x0, " "
	DCB	0x0, "-", 0x0, " ", 0x0, "R", 0x0, "e", 0x0, "v", 0x0, " "
	DCB	0x0, "0", 0x0, "x", 0x0, "%", 0x0, "0", 0x0, "2", 0x0, "x"
	DCB	0x0, " ", 0x0, " ", 0x0, "P", 0x0, "r", 0x0, "o", 0x0, "g"
	DCB	0x0, "I", 0x0, "f", 0x0, " ", 0x0, "0", 0x0, "x", 0x0, "%"
	DCB	0x0, "0", 0x0, "2", 0x0, "x", 0x0, " ", 0x0, " ", 0x0, "S"
	DCB	0x0, "u", 0x0, "b", 0x0, "C", 0x0, "l", 0x0, "a", 0x0, "s"
	DCB	0x0, "s", 0x0, " ", 0x0, "0", 0x0, "x", 0x0, "%", 0x0, "0"
	DCB	0x0, "2", 0x0, "x", 0x0, " ", 0x0, " ", 0x0, "B", 0x0, "a"
	DCB	0x0, "s", 0x0, "e", 0x0, "C", 0x0, "l", 0x0, "a", 0x0, "s"
	DCB	0x0, "s", 0x0, " ", 0x0, "0", 0x0, "x", 0x0, "%", 0x0, "0"
	DCB	0x0, "2", 0x0, "x", 0x0, 0xd, 0x0, 0xa, 0x0, 0x0, 0x0 ; `string'

  00000			 AREA	 |.rdata|, DATA, READONLY
|??_C@_1FO@OJPFKNEM@?$AAP?$AAC?$AAI?$AA?5?$AA?$CF?$AAd?$AA?1?$AA?$CF?$AAd?$AA?1?$AA?$CF?$AAd?$AA?5?$AA?9?$AA?5?$AAC?$AAo?$AAm?$AAm?$AAa?$AAn?$AAd?$AA?5?$AA0?$AAx?$AA?$CF?$AA0?$AA4?$AAx?$AA?5?$AA?5?$AAS@| DCB "P"
	DCB	0x0, "C", 0x0, "I", 0x0, " ", 0x0, "%", 0x0, "d", 0x0, "/"
	DCB	0x0, "%", 0x0, "d", 0x0, "/", 0x0, "%", 0x0, "d", 0x0, " "
	DCB	0x0, "-", 0x0, " ", 0x0, "C", 0x0, "o", 0x0, "m", 0x0, "m"
	DCB	0x0, "a", 0x0, "n", 0x0, "d", 0x0, " ", 0x0, "0", 0x0, "x"
	DCB	0x0, "%", 0x0, "0", 0x0, "4", 0x0, "x", 0x0, " ", 0x0, " "
	DCB	0x0, "S", 0x0, "t", 0x0, "a", 0x0, "t", 0x0, "u", 0x0, "s"
	DCB	0x0, " ", 0x0, "0", 0x0, "x", 0x0, "%", 0x0, "0", 0x0, "4"
	DCB	0x0, "x", 0x0, 0xd, 0x0, 0xa, 0x0, 0x0, 0x0 ; `string'

  00000			 AREA	 |.rdata|, DATA, READONLY
|??_C@_1GE@PAMDEII@?$AAP?$AAC?$AAI?$AA?5?$AA?$CF?$AAd?$AA?1?$AA?$CF?$AAd?$AA?1?$AA?$CF?$AAd?$AA?5?$AA?9?$AA?5?$AAV?$AAe?$AAn?$AAd?$AAo?$AAr?$AAI?$AAD?$AA?5?$AA0?$AAx?$AA?$CF?$AA0?$AA4?$AAx?$AA?5?$AA?5@| DCB "P"
	DCB	0x0, "C", 0x0, "I", 0x0, " ", 0x0, "%", 0x0, "d", 0x0, "/"
	DCB	0x0, "%", 0x0, "d", 0x0, "/", 0x0, "%", 0x0, "d", 0x0, " "
	DCB	0x0, "-", 0x0, " ", 0x0, "V", 0x0, "e", 0x0, "n", 0x0, "d"
	DCB	0x0, "o", 0x0, "r", 0x0, "I", 0x0, "D", 0x0, " ", 0x0, "0"
	DCB	0x0, "x", 0x0, "%", 0x0, "0", 0x0, "4", 0x0, "x", 0x0, " "
	DCB	0x0, " ", 0x0, "D", 0x0, "e", 0x0, "v", 0x0, "i", 0x0, "c"
	DCB	0x0, "e", 0x0, "I", 0x0, "D", 0x0, " ", 0x0, "0", 0x0, "x"
	DCB	0x0, "%", 0x0, "0", 0x0, "4", 0x0, "x", 0x0, 0xd, 0x0, 0xa
	DCB	0x0, 0x0, 0x0				; `string'

  00000			 AREA	 |.rdata|, DATA, READONLY
|??_C@_1M@JEHOPNL@?$AA?9?$AA?9?$AA?9?$AA?$AN?$AA?6?$AA?$AA@| DCB "-", 0x0
	DCB	"-", 0x0, "-", 0x0, 0xd, 0x0, 0xa, 0x0, 0x0, 0x0 ; `string'

  00000			 AREA	 |.xdata|, DATA
|$T40356| DCD	0xffffff2c
; Function compile flags: /Odtp

  00000			 AREA	 |.text|, CODE, ARM

  00000	00000000	 DCD         |__GSHandlerCheck|
  00004	00000000	 DCD         |$T40356|

  00008		 |OALPCIDumpConfig| PROC

; 30   : {

  00008		 |$LN9@OALPCIDump|
  00008	e1a0c00d	 mov         r12, sp
  0000c	e92d0003	 stmdb       sp!, {r0, r1}
  00010	e92d5000	 stmdb       sp!, {r12, lr}
  00014	e24ddf77	 sub         sp, sp, #0x77, 30
  00018		 |$M40357|
  00018	e59f3370	 ldr         r3, [pc, #0x370]
  0001c	e5933000	 ldr         r3, [r3]
  00020	e58d3118	 str         r3, [sp, #0x118]

; 31   :     PCI_COMMON_CONFIG cfg;
; 32   : 
; 33   :     memset(&cfg, 0, sizeof(cfg));

  00024	e3a02c01	 mov         r2, #1, 24
  00028	e3a01000	 mov         r1, #0
  0002c	e28d0018	 add         r0, sp, #0x18
  00030	eb000000	 bl          memset

; 34   :     OALPCICfgRead(busId, pciLoc, 0, sizeof(cfg), &cfg);

  00034	e28d3018	 add         r3, sp, #0x18
  00038	e58d3000	 str         r3, [sp]
  0003c	e3a03c01	 mov         r3, #1, 24
  00040	e3a02000	 mov         r2, #0
  00044	e59d11e8	 ldr         r1, [sp, #0x1E8]
  00048	e59d01e4	 ldr         r0, [sp, #0x1E4]
  0004c	eb000000	 bl          OALPCICfgRead

; 35   : 
; 36   :     OALLog(L"---\r\n");

  00050	e59f0334	 ldr         r0, [pc, #0x334]
  00054	eb000000	 bl          NKDbgPrintfW

; 37   :     OALLog(
; 38   :         L"PCI %d/%d/%d - VendorID 0x%04x  DeviceID 0x%04x\r\n", 
; 39   :         pciLoc.bus, pciLoc.dev, pciLoc.fnc, cfg.VendorID, cfg.DeviceID
; 40   :     );        

  00058	e1dd31ba	 ldrh        r3, [sp, #0x1A]
  0005c	e58d3004	 str         r3, [sp, #4]
  00060	e1dd31b8	 ldrh        r3, [sp, #0x18]
  00064	e58d3000	 str         r3, [sp]
  00068	e5dd31e8	 ldrb        r3, [sp, #0x1E8]
  0006c	e5dd21e9	 ldrb        r2, [sp, #0x1E9]
  00070	e5dd11ea	 ldrb        r1, [sp, #0x1EA]
  00074	e59f030c	 ldr         r0, [pc, #0x30C]
  00078	eb000000	 bl          NKDbgPrintfW

; 41   :     OALLog(
; 42   :         L"PCI %d/%d/%d - Command 0x%04x  Status 0x%04x\r\n", 
; 43   :         pciLoc.bus, pciLoc.dev, pciLoc.fnc, cfg.Command, cfg.Status
; 44   :     );        

  0007c	e1dd31be	 ldrh        r3, [sp, #0x1E]
  00080	e58d3004	 str         r3, [sp, #4]
  00084	e1dd31bc	 ldrh        r3, [sp, #0x1C]
  00088	e58d3000	 str         r3, [sp]
  0008c	e5dd31e8	 ldrb        r3, [sp, #0x1E8]
  00090	e5dd21e9	 ldrb        r2, [sp, #0x1E9]
  00094	e5dd11ea	 ldrb        r1, [sp, #0x1EA]
  00098	e59f02e4	 ldr         r0, [pc, #0x2E4]
  0009c	eb000000	 bl          NKDbgPrintfW

; 45   :     OALLog(
; 46   :         L"PCI %d/%d/%d - Rev 0x%02x  ProgIf 0x%02x  SubClass 0x%02x  BaseClass 0x%02x\r\n", 
; 47   :         pciLoc.bus, pciLoc.dev, pciLoc.fnc, cfg.RevisionID, cfg.ProgIf,
; 48   :         cfg.SubClass, cfg.BaseClass
; 49   :     );        

  000a0	e5dd3023	 ldrb        r3, [sp, #0x23]
  000a4	e58d300c	 str         r3, [sp, #0xC]
  000a8	e5dd3022	 ldrb        r3, [sp, #0x22]
  000ac	e58d3008	 str         r3, [sp, #8]
  000b0	e5dd3021	 ldrb        r3, [sp, #0x21]
  000b4	e58d3004	 str         r3, [sp, #4]
  000b8	e5dd3020	 ldrb        r3, [sp, #0x20]
  000bc	e58d3000	 str         r3, [sp]
  000c0	e5dd31e8	 ldrb        r3, [sp, #0x1E8]
  000c4	e5dd21e9	 ldrb        r2, [sp, #0x1E9]
  000c8	e5dd11ea	 ldrb        r1, [sp, #0x1EA]
  000cc	e59f02ac	 ldr         r0, [pc, #0x2AC]
  000d0	eb000000	 bl          NKDbgPrintfW

; 50   :     OALLog(
; 51   :         L"PCI %d/%d/%d - CacheLine 0x%02x  Latency 0x%02x  Header 0x%02x  BIST 0x%02x\r\n", 
; 52   :         pciLoc.bus, pciLoc.dev, pciLoc.fnc, cfg.CacheLineSize, cfg.LatencyTimer,
; 53   :         cfg.HeaderType, cfg.BIST
; 54   :     );        

  000d4	e5dd3027	 ldrb        r3, [sp, #0x27]
  000d8	e58d300c	 str         r3, [sp, #0xC]
  000dc	e5dd3026	 ldrb        r3, [sp, #0x26]
  000e0	e58d3008	 str         r3, [sp, #8]
  000e4	e5dd3025	 ldrb        r3, [sp, #0x25]
  000e8	e58d3004	 str         r3, [sp, #4]
  000ec	e5dd3024	 ldrb        r3, [sp, #0x24]
  000f0	e58d3000	 str         r3, [sp]
  000f4	e5dd31e8	 ldrb        r3, [sp, #0x1E8]
  000f8	e5dd21e9	 ldrb        r2, [sp, #0x1E9]
  000fc	e5dd11ea	 ldrb        r1, [sp, #0x1EA]
  00100	e59f0274	 ldr         r0, [pc, #0x274]
  00104	eb000000	 bl          NKDbgPrintfW

; 55   : 
; 56   :     // Depending on device type do configuration
; 57   :     switch (cfg.HeaderType & ~PCI_MULTIFUNCTION) {

  00108	e5dd3026	 ldrb        r3, [sp, #0x26]
  0010c	e1a02003	 mov         r2, r3
  00110	e3e03080	 mvn         r3, #0x80
  00114	e0023003	 and         r3, r2, r3
  00118	e58d31d8	 str         r3, [sp, #0x1D8]
  0011c	e59d31d8	 ldr         r3, [sp, #0x1D8]
  00120	e3530000	 cmp         r3, #0
  00124	0a000003	 beq         |$LN2@OALPCIDump|
  00128	e59d31d8	 ldr         r3, [sp, #0x1D8]
  0012c	e3530001	 cmp         r3, #1
  00130	0a000031	 beq         |$LN1@OALPCIDump|
  00134	ea000080	 b           |$LN3@OALPCIDump|
  00138		 |$LN2@OALPCIDump|

; 58   :     case PCI_DEVICE_TYPE:
; 59   :         OALLog(
; 60   :             L"PCI %d/%d/%d - Addresses 0x%08x 0x%08x 0x%08x 0x%08x 0x%08x 0x%08x\r\n", 
; 61   :             pciLoc.bus, pciLoc.dev, pciLoc.fnc, cfg.u.type0.BaseAddresses[0],
; 62   :             cfg.u.type0.BaseAddresses[1], cfg.u.type0.BaseAddresses[2], 
; 63   :             cfg.u.type0.BaseAddresses[3], cfg.u.type0.BaseAddresses[4], 
; 64   :             cfg.u.type0.BaseAddresses[5]
; 65   :         );

  00138	e59d303c	 ldr         r3, [sp, #0x3C]
  0013c	e58d3014	 str         r3, [sp, #0x14]
  00140	e59d3038	 ldr         r3, [sp, #0x38]
  00144	e58d3010	 str         r3, [sp, #0x10]
  00148	e59d3034	 ldr         r3, [sp, #0x34]
  0014c	e58d300c	 str         r3, [sp, #0xC]
  00150	e59d3030	 ldr         r3, [sp, #0x30]
  00154	e58d3008	 str         r3, [sp, #8]
  00158	e59d302c	 ldr         r3, [sp, #0x2C]
  0015c	e58d3004	 str         r3, [sp, #4]
  00160	e59d3028	 ldr         r3, [sp, #0x28]
  00164	e58d3000	 str         r3, [sp]
  00168	e5dd31e8	 ldrb        r3, [sp, #0x1E8]
  0016c	e5dd21e9	 ldrb        r2, [sp, #0x1E9]
  00170	e5dd11ea	 ldrb        r1, [sp, #0x1EA]
  00174	e59f01fc	 ldr         r0, [pc, #0x1FC]
  00178	eb000000	 bl          NKDbgPrintfW

; 66   :         OALLog(
; 67   :             L"PCI %d/%d/%d - CIS 0x%08x  SubVendorID 0x%04x  SubSystemID 0x%04x\r\n", 
; 68   :             pciLoc.bus, pciLoc.dev, pciLoc.fnc, cfg.u.type0.CIS, 
; 69   :             cfg.u.type0.SubVendorID, cfg.u.type0.SubSystemID
; 70   :         );

  0017c	e1dd34b6	 ldrh        r3, [sp, #0x46]
  00180	e58d3008	 str         r3, [sp, #8]
  00184	e1dd34b4	 ldrh        r3, [sp, #0x44]
  00188	e58d3004	 str         r3, [sp, #4]
  0018c	e59d3040	 ldr         r3, [sp, #0x40]
  00190	e58d3000	 str         r3, [sp]
  00194	e5dd31e8	 ldrb        r3, [sp, #0x1E8]
  00198	e5dd21e9	 ldrb        r2, [sp, #0x1E9]
  0019c	e5dd11ea	 ldrb        r1, [sp, #0x1EA]
  001a0	e59f01cc	 ldr         r0, [pc, #0x1CC]
  001a4	eb000000	 bl          NKDbgPrintfW

; 71   :         OALLog(
; 72   :             L"PCI %d/%d/%d - ROM 0x%08x  IntrLine 0x%02x  IntrPin 0x%02x\r\n", 
; 73   :             pciLoc.bus, pciLoc.dev, pciLoc.fnc, cfg.u.type0.ROMBaseAddress,
; 74   :             cfg.u.type0.InterruptLine, cfg.u.type0.InterruptPin
; 75   :         );            

  001a8	e5dd3055	 ldrb        r3, [sp, #0x55]
  001ac	e58d3008	 str         r3, [sp, #8]
  001b0	e5dd3054	 ldrb        r3, [sp, #0x54]
  001b4	e58d3004	 str         r3, [sp, #4]
  001b8	e59d3048	 ldr         r3, [sp, #0x48]
  001bc	e58d3000	 str         r3, [sp]
  001c0	e5dd31e8	 ldrb        r3, [sp, #0x1E8]
  001c4	e5dd21e9	 ldrb        r2, [sp, #0x1E9]
  001c8	e5dd11ea	 ldrb        r1, [sp, #0x1EA]
  001cc	e59f017c	 ldr         r0, [pc, #0x17C]
  001d0	eb000000	 bl          NKDbgPrintfW

; 76   :         OALLog(
; 77   :             L"PCI %d/%d/%d - MinGrant 0x%02x  MaxLatency 0x%02x\r\n", 
; 78   :             pciLoc.bus, pciLoc.dev, pciLoc.fnc, cfg.u.type0.MinimumGrant,
; 79   :             cfg.u.type0.MaximumLatency
; 80   :         );

  001d4	e5dd3057	 ldrb        r3, [sp, #0x57]
  001d8	e58d3004	 str         r3, [sp, #4]
  001dc	e5dd3056	 ldrb        r3, [sp, #0x56]
  001e0	e58d3000	 str         r3, [sp]
  001e4	e5dd31e8	 ldrb        r3, [sp, #0x1E8]
  001e8	e5dd21e9	 ldrb        r2, [sp, #0x1E9]
  001ec	e5dd11ea	 ldrb        r1, [sp, #0x1EA]
  001f0	e59f0178	 ldr         r0, [pc, #0x178]
  001f4	eb000000	 bl          NKDbgPrintfW

; 81   :         break;

  001f8	ea00004f	 b           |$LN3@OALPCIDump|
  001fc		 |$LN1@OALPCIDump|

; 82   :     case PCI_BRIDGE_TYPE:
; 83   :         OALLog(
; 84   :             L"PCI %d/%d/%d - Addresses 0x%08x 0x%08x\r\n", 
; 85   :             pciLoc.bus, pciLoc.dev, pciLoc.fnc, cfg.u.type1.BaseAddresses[0],
; 86   :             cfg.u.type1.BaseAddresses[1]
; 87   :         );

  001fc	e59d302c	 ldr         r3, [sp, #0x2C]
  00200	e58d3004	 str         r3, [sp, #4]
  00204	e59d3028	 ldr         r3, [sp, #0x28]
  00208	e58d3000	 str         r3, [sp]
  0020c	e5dd31e8	 ldrb        r3, [sp, #0x1E8]
  00210	e5dd21e9	 ldrb        r2, [sp, #0x1E9]
  00214	e5dd11ea	 ldrb        r1, [sp, #0x1EA]
  00218	e59f014c	 ldr         r0, [pc, #0x14C]
  0021c	eb000000	 bl          NKDbgPrintfW

; 88   :         OALLog(
; 89   :             L"PCI %d/%d/%d - Bus Primary %d  Secondary %d  Subordinate %d\r\n", 
; 90   :             pciLoc.bus, pciLoc.dev, pciLoc.fnc, cfg.u.type1.PrimaryBusNumber,
; 91   :             cfg.u.type1.SecondaryBusNumber, cfg.u.type1.SubordinateBusNumber
; 92   :         );

  00220	e5dd3032	 ldrb        r3, [sp, #0x32]
  00224	e58d3008	 str         r3, [sp, #8]
  00228	e5dd3031	 ldrb        r3, [sp, #0x31]
  0022c	e58d3004	 str         r3, [sp, #4]
  00230	e5dd3030	 ldrb        r3, [sp, #0x30]
  00234	e58d3000	 str         r3, [sp]
  00238	e5dd31e8	 ldrb        r3, [sp, #0x1E8]
  0023c	e5dd21e9	 ldrb        r2, [sp, #0x1E9]
  00240	e5dd11ea	 ldrb        r1, [sp, #0x1EA]
  00244	e59f011c	 ldr         r0, [pc, #0x11C]
  00248	eb000000	 bl          NKDbgPrintfW

; 93   :         OALLog(
; 94   :             L"PCI %d/%d/%d - IOBase 0x%02x  IOLimit 0x%02x  IOBaseUpper 0x%04x  IOLimitUpper 0x%04x\r\n", 
; 95   :             pciLoc.bus, pciLoc.dev, pciLoc.fnc, cfg.u.type1.IOBase, 
; 96   :             cfg.u.type1.IOLimit, cfg.u.type1.IOBaseUpper, 
; 97   :             cfg.u.type1.IOLimitUpper
; 98   :         );            

  0024c	e1dd34ba	 ldrh        r3, [sp, #0x4A]
  00250	e58d300c	 str         r3, [sp, #0xC]
  00254	e1dd34b8	 ldrh        r3, [sp, #0x48]
  00258	e58d3008	 str         r3, [sp, #8]
  0025c	e5dd3035	 ldrb        r3, [sp, #0x35]
  00260	e58d3004	 str         r3, [sp, #4]
  00264	e5dd3034	 ldrb        r3, [sp, #0x34]
  00268	e58d3000	 str         r3, [sp]
  0026c	e5dd31e8	 ldrb        r3, [sp, #0x1E8]
  00270	e5dd21e9	 ldrb        r2, [sp, #0x1E9]
  00274	e5dd11ea	 ldrb        r1, [sp, #0x1EA]
  00278	e59f00e4	 ldr         r0, [pc, #0xE4]
  0027c	eb000000	 bl          NKDbgPrintfW

; 99   :         OALLog(
; 100  :             L"PCI %d/%d/%d - MemBase 0x%04x  MemLimit 0x%04x\r\n", 
; 101  :             pciLoc.bus, pciLoc.dev, pciLoc.fnc, cfg.u.type1.MemoryBase, 
; 102  :             cfg.u.type1.MemoryLimit
; 103  :         );

  00280	e1dd33ba	 ldrh        r3, [sp, #0x3A]
  00284	e58d3004	 str         r3, [sp, #4]
  00288	e1dd33b8	 ldrh        r3, [sp, #0x38]
  0028c	e58d3000	 str         r3, [sp]
  00290	e5dd31e8	 ldrb        r3, [sp, #0x1E8]
  00294	e5dd21e9	 ldrb        r2, [sp, #0x1E9]
  00298	e5dd11ea	 ldrb        r1, [sp, #0x1EA]
  0029c	e59f00bc	 ldr         r0, [pc, #0xBC]
  002a0	eb000000	 bl          NKDbgPrintfW

; 104  :         OALLog(
; 105  :             L"PCI %d/%d/%d - Prefetch MemBase 0x%04x  MemLimit 0x%04x\r\n",
; 106  :             pciLoc.bus, pciLoc.dev, pciLoc.fnc, 
; 107  :             cfg.u.type1.PrefetchableMemoryBase, 
; 108  :             cfg.u.type1.PrefetchableMemoryLimit
; 109  :         );

  002a4	e1dd33be	 ldrh        r3, [sp, #0x3E]
  002a8	e58d3004	 str         r3, [sp, #4]
  002ac	e1dd33bc	 ldrh        r3, [sp, #0x3C]
  002b0	e58d3000	 str         r3, [sp]
  002b4	e5dd31e8	 ldrb        r3, [sp, #0x1E8]
  002b8	e5dd21e9	 ldrb        r2, [sp, #0x1E9]
  002bc	e5dd11ea	 ldrb        r1, [sp, #0x1EA]
  002c0	e59f0094	 ldr         r0, [pc, #0x94]
  002c4	eb000000	 bl          NKDbgPrintfW

; 110  :         OALLog(
; 111  :             L"PCI %d/%d/%d - MemBaseUpper32 0x%08x  MemLimitUpper32 0x%08x\r\n", 
; 112  :             pciLoc.bus, pciLoc.dev, pciLoc.fnc, 
; 113  :             cfg.u.type1.PrefetchableMemoryBaseUpper32, 
; 114  :             cfg.u.type1.PrefetchableMemoryLimitUpper32
; 115  :         );            

  002c8	e59d3044	 ldr         r3, [sp, #0x44]
  002cc	e58d3004	 str         r3, [sp, #4]
  002d0	e59d3040	 ldr         r3, [sp, #0x40]
  002d4	e58d3000	 str         r3, [sp]
  002d8	e5dd31e8	 ldrb        r3, [sp, #0x1E8]
  002dc	e5dd21e9	 ldrb        r2, [sp, #0x1E9]
  002e0	e5dd11ea	 ldrb        r1, [sp, #0x1EA]
  002e4	e59f006c	 ldr         r0, [pc, #0x6C]
  002e8	eb000000	 bl          NKDbgPrintfW

; 116  :         OALLog(
; 117  :             L"PCI %d/%d/%d - SecLatency 0x%02x  BridgeControl 0x%04x\r\n",
; 118  :             pciLoc.bus, pciLoc.dev, pciLoc.fnc, 
; 119  :             cfg.u.type1.SecondaryLatencyTimer,
; 120  :             cfg.u.type1.BridgeControl
; 121  :         );            

  002ec	e1dd35b6	 ldrh        r3, [sp, #0x56]
  002f0	e58d3004	 str         r3, [sp, #4]
  002f4	e5dd3033	 ldrb        r3, [sp, #0x33]
  002f8	e58d3000	 str         r3, [sp]
  002fc	e5dd31e8	 ldrb        r3, [sp, #0x1E8]
  00300	e5dd21e9	 ldrb        r2, [sp, #0x1E9]
  00304	e5dd11ea	 ldrb        r1, [sp, #0x1EA]
  00308	e59f0044	 ldr         r0, [pc, #0x44]
  0030c	eb000000	 bl          NKDbgPrintfW

; 122  :         OALLog(
; 123  :             L"PCI %d/%d/%d - ROM 0x%08x  IntrLine 0x%02x  IntrPin 0x%02x\r\n", 
; 124  :             pciLoc.bus, pciLoc.dev, pciLoc.fnc, cfg.u.type1.ExpansionROMBase,
; 125  :             cfg.u.type1.InterruptLine, cfg.u.type1.InterruptPin
; 126  :         );            

  00310	e5dd3055	 ldrb        r3, [sp, #0x55]
  00314	e58d3008	 str         r3, [sp, #8]
  00318	e5dd3054	 ldrb        r3, [sp, #0x54]
  0031c	e58d3004	 str         r3, [sp, #4]
  00320	e59d3050	 ldr         r3, [sp, #0x50]
  00324	e58d3000	 str         r3, [sp]
  00328	e5dd31e8	 ldrb        r3, [sp, #0x1E8]
  0032c	e5dd21e9	 ldrb        r2, [sp, #0x1E9]
  00330	e5dd11ea	 ldrb        r1, [sp, #0x1EA]
  00334	e59f0014	 ldr         r0, [pc, #0x14]
  00338	eb000000	 bl          NKDbgPrintfW
  0033c		 |$LN3@OALPCIDump|

; 30   : {

  0033c	e59d0118	 ldr         r0, [sp, #0x118]
  00340	eb000000	 bl          __security_check_cookie

; 127  :         break;
; 128  :     }
; 129  : }

  00344	e28ddf77	 add         sp, sp, #0x77, 30
  00348	e89d6000	 ldmia       sp, {sp, lr}
  0034c	e12fff1e	 bx          lr
  00350		 |$LN10@OALPCIDump|
  00350		 |$LN11@OALPCIDump|
  00350	00000000	 DCD         |??_C@_1HK@ICNCEAFI@?$AAP?$AAC?$AAI?$AA?5?$AA?$CF?$AAd?$AA?1?$AA?$CF?$AAd?$AA?1?$AA?$CF?$AAd?$AA?5?$AA?9?$AA?5?$AAR?$AAO?$AAM?$AA?5?$AA0?$AAx?$AA?$CF?$AA0?$AA8?$AAx?$AA?5?$AA?5?$AAI?$AAn?$AAt?$AAr?$AAL@|
  00354		 |$LN12@OALPCIDump|
  00354	00000000	 DCD         |??_C@_1HC@NDOFNJLH@?$AAP?$AAC?$AAI?$AA?5?$AA?$CF?$AAd?$AA?1?$AA?$CF?$AAd?$AA?1?$AA?$CF?$AAd?$AA?5?$AA?9?$AA?5?$AAS?$AAe?$AAc?$AAL?$AAa?$AAt?$AAe?$AAn?$AAc?$AAy?$AA?5?$AA0?$AAx?$AA?$CF?$AA0?$AA2?$AAx@|
  00358		 |$LN13@OALPCIDump|
  00358	00000000	 DCD         |??_C@_1HO@JGCGLKPH@?$AAP?$AAC?$AAI?$AA?5?$AA?$CF?$AAd?$AA?1?$AA?$CF?$AAd?$AA?1?$AA?$CF?$AAd?$AA?5?$AA?9?$AA?5?$AAM?$AAe?$AAm?$AAB?$AAa?$AAs?$AAe?$AAU?$AAp?$AAp?$AAe?$AAr?$AA3?$AA2?$AA?5?$AA0?$AAx@|
  0035c		 |$LN14@OALPCIDump|
  0035c	00000000	 DCD         |??_C@_1HE@CJJFOOJK@?$AAP?$AAC?$AAI?$AA?5?$AA?$CF?$AAd?$AA?1?$AA?$CF?$AAd?$AA?1?$AA?$CF?$AAd?$AA?5?$AA?9?$AA?5?$AAP?$AAr?$AAe?$AAf?$AAe?$AAt?$AAc?$AAh?$AA?5?$AAM?$AAe?$AAm?$AAB?$AAa?$AAs?$AAe?$AA?5@|
  00360		 |$LN15@OALPCIDump|
  00360	00000000	 DCD         |??_C@_1GC@LBDLLJKM@?$AAP?$AAC?$AAI?$AA?5?$AA?$CF?$AAd?$AA?1?$AA?$CF?$AAd?$AA?1?$AA?$CF?$AAd?$AA?5?$AA?9?$AA?5?$AAM?$AAe?$AAm?$AAB?$AAa?$AAs?$AAe?$AA?5?$AA0?$AAx?$AA?$CF?$AA0?$AA4?$AAx?$AA?5?$AA?5?$AAM@|
  00364		 |$LN16@OALPCIDump|
  00364	00000000	 DCD         |??_C@_1LA@GAKAPNFM@?$AAP?$AAC?$AAI?$AA?5?$AA?$CF?$AAd?$AA?1?$AA?$CF?$AAd?$AA?1?$AA?$CF?$AAd?$AA?5?$AA?9?$AA?5?$AAI?$AAO?$AAB?$AAa?$AAs?$AAe?$AA?5?$AA0?$AAx?$AA?$CF?$AA0?$AA2?$AAx?$AA?5?$AA?5?$AAI?$AAO@|
  00368		 |$LN17@OALPCIDump|
  00368	00000000	 DCD         |??_C@_1HM@ECGGFNCI@?$AAP?$AAC?$AAI?$AA?5?$AA?$CF?$AAd?$AA?1?$AA?$CF?$AAd?$AA?1?$AA?$CF?$AAd?$AA?5?$AA?9?$AA?5?$AAB?$AAu?$AAs?$AA?5?$AAP?$AAr?$AAi?$AAm?$AAa?$AAr?$AAy?$AA?5?$AA?$CF?$AAd?$AA?5?$AA?5?$AAS@|
  0036c		 |$LN18@OALPCIDump|
  0036c	00000000	 DCD         |??_C@_1FC@KDMEOPEI@?$AAP?$AAC?$AAI?$AA?5?$AA?$CF?$AAd?$AA?1?$AA?$CF?$AAd?$AA?1?$AA?$CF?$AAd?$AA?5?$AA?9?$AA?5?$AAA?$AAd?$AAd?$AAr?$AAe?$AAs?$AAs?$AAe?$AAs?$AA?5?$AA0?$AAx?$AA?$CF?$AA0?$AA8?$AAx?$AA?5@|
  00370		 |$LN19@OALPCIDump|
  00370	00000000	 DCD         |??_C@_1GI@HLAJCALP@?$AAP?$AAC?$AAI?$AA?5?$AA?$CF?$AAd?$AA?1?$AA?$CF?$AAd?$AA?1?$AA?$CF?$AAd?$AA?5?$AA?9?$AA?5?$AAM?$AAi?$AAn?$AAG?$AAr?$AAa?$AAn?$AAt?$AA?5?$AA0?$AAx?$AA?$CF?$AA0?$AA2?$AAx?$AA?5?$AA?5@|
  00374		 |$LN20@OALPCIDump|
  00374	00000000	 DCD         |??_C@_1II@HLJEJEHG@?$AAP?$AAC?$AAI?$AA?5?$AA?$CF?$AAd?$AA?1?$AA?$CF?$AAd?$AA?1?$AA?$CF?$AAd?$AA?5?$AA?9?$AA?5?$AAC?$AAI?$AAS?$AA?5?$AA0?$AAx?$AA?$CF?$AA0?$AA8?$AAx?$AA?5?$AA?5?$AAS?$AAu?$AAb?$AAV?$AAe@|
  00378		 |$LN21@OALPCIDump|
  00378	00000000	 DCD         |??_C@_1IK@FIJCIEPN@?$AAP?$AAC?$AAI?$AA?5?$AA?$CF?$AAd?$AA?1?$AA?$CF?$AAd?$AA?1?$AA?$CF?$AAd?$AA?5?$AA?9?$AA?5?$AAA?$AAd?$AAd?$AAr?$AAe?$AAs?$AAs?$AAe?$AAs?$AA?5?$AA0?$AAx?$AA?$CF?$AA0?$AA8?$AAx?$AA?5@|
  0037c		 |$LN22@OALPCIDump|
  0037c	00000000	 DCD         |??_C@_1JM@NMMOKKLK@?$AAP?$AAC?$AAI?$AA?5?$AA?$CF?$AAd?$AA?1?$AA?$CF?$AAd?$AA?1?$AA?$CF?$AAd?$AA?5?$AA?9?$AA?5?$AAC?$AAa?$AAc?$AAh?$AAe?$AAL?$AAi?$AAn?$AAe?$AA?5?$AA0?$AAx?$AA?$CF?$AA0?$AA2?$AAx?$AA?5@|
  00380		 |$LN23@OALPCIDump|
  00380	00000000	 DCD         |??_C@_1JM@FNKAEBAM@?$AAP?$AAC?$AAI?$AA?5?$AA?$CF?$AAd?$AA?1?$AA?$CF?$AAd?$AA?1?$AA?$CF?$AAd?$AA?5?$AA?9?$AA?5?$AAR?$AAe?$AAv?$AA?5?$AA0?$AAx?$AA?$CF?$AA0?$AA2?$AAx?$AA?5?$AA?5?$AAP?$AAr?$AAo?$AAg?$AAI@|
  00384		 |$LN24@OALPCIDump|
  00384	00000000	 DCD         |??_C@_1FO@OJPFKNEM@?$AAP?$AAC?$AAI?$AA?5?$AA?$CF?$AAd?$AA?1?$AA?$CF?$AAd?$AA?1?$AA?$CF?$AAd?$AA?5?$AA?9?$AA?5?$AAC?$AAo?$AAm?$AAm?$AAa?$AAn?$AAd?$AA?5?$AA0?$AAx?$AA?$CF?$AA0?$AA4?$AAx?$AA?5?$AA?5?$AAS@|
  00388		 |$LN25@OALPCIDump|
  00388	00000000	 DCD         |??_C@_1GE@PAMDEII@?$AAP?$AAC?$AAI?$AA?5?$AA?$CF?$AAd?$AA?1?$AA?$CF?$AAd?$AA?1?$AA?$CF?$AAd?$AA?5?$AA?9?$AA?5?$AAV?$AAe?$AAn?$AAd?$AAo?$AAr?$AAI?$AAD?$AA?5?$AA0?$AAx?$AA?$CF?$AA0?$AA4?$AAx?$AA?5?$AA?5@|
  0038c		 |$LN26@OALPCIDump|
  0038c	00000000	 DCD         |??_C@_1M@JEHOPNL@?$AA?9?$AA?9?$AA?9?$AA?$AN?$AA?6?$AA?$AA@|
  00390		 |$LN27@OALPCIDump|
  00390	00000000	 DCD         |__security_cookie|
  00394		 |$M40358|

			 ENDP  ; |OALPCIDumpConfig|

	EXPORT	|??_C@_1FI@OFNLOLNG@?$AAP?$AAC?$AAI?$AA?5?$AA?$CF?$AAd?$AA?1?$AA?$CF?$AAd?$AA?1?$AA?$CF?$AAd?$AA?3?$AA?5?$AAV?$AAe?$AAn?$AAd?$AAo?$AAr?$AAI?$AAd?$AA?5?$AA?$CF?$AA0?$AA4?$AAx?$AA?5?$AAD?$AAe?$AAv?$AAi@| [ DATA ] ; `string'
	EXPORT	|OALPCIDump|
	IMPORT	|OALPCIGetSubBusNum|
	IMPORT	|OALPCIGetHeaderType|
	IMPORT	|OALPCIGetId|

  00008			 AREA	 |.pdata|, PDATA
|$T40385| DCD	|$LN22@OALPCIDump@2|
	DCD	0x40008704

  00000			 AREA	 |.rdata|, DATA, READONLY
|??_C@_1FI@OFNLOLNG@?$AAP?$AAC?$AAI?$AA?5?$AA?$CF?$AAd?$AA?1?$AA?$CF?$AAd?$AA?1?$AA?$CF?$AAd?$AA?3?$AA?5?$AAV?$AAe?$AAn?$AAd?$AAo?$AAr?$AAI?$AAd?$AA?5?$AA?$CF?$AA0?$AA4?$AAx?$AA?5?$AAD?$AAe?$AAv?$AAi@| DCB "P"
	DCB	0x0, "C", 0x0, "I", 0x0, " ", 0x0, "%", 0x0, "d", 0x0, "/"
	DCB	0x0, "%", 0x0, "d", 0x0, "/", 0x0, "%", 0x0, "d", 0x0, ":"
	DCB	0x0, " ", 0x0, "V", 0x0, "e", 0x0, "n", 0x0, "d", 0x0, "o"
	DCB	0x0, "r", 0x0, "I", 0x0, "d", 0x0, " ", 0x0, "%", 0x0, "0"
	DCB	0x0, "4", 0x0, "x", 0x0, " ", 0x0, "D", 0x0, "e", 0x0, "v"
	DCB	0x0, "i", 0x0, "c", 0x0, "e", 0x0, "I", 0x0, "d", 0x0, " "
	DCB	0x0, "%", 0x0, "0", 0x0, "4", 0x0, "x", 0x0, 0xd, 0x0, 0xa
	DCB	0x0, 0x0, 0x0				; `string'
; Function compile flags: /Odtp

  00394			 AREA	 |.text|, CODE, ARM

  00394		 |OALPCIDump| PROC

; 136  : {

  00394		 |$LN22@OALPCIDump@2|
  00394	e1a0c00d	 mov         r12, sp
  00398	e92d0003	 stmdb       sp!, {r0, r1}
  0039c	e92d5000	 stmdb       sp!, {r12, lr}
  003a0	e24dd030	 sub         sp, sp, #0x30
  003a4		 |$M40382|

; 137  :     OAL_PCI_LOCATION pciLoc;
; 138  :     UINT8 maxBus, subBus, header;
; 139  :     UINT32 id;
; 140  :     
; 141  :     // First find number of buses
; 142  :     maxBus = 0;

  003a4	e3a03000	 mov         r3, #0
  003a8	e5cd3014	 strb        r3, [sp, #0x14]

; 143  :     pciLoc.logicalLoc = 0;

  003ac	e3a03000	 mov         r3, #0
  003b0	e58d3010	 str         r3, [sp, #0x10]
  003b4		 |$LN17@OALPCIDump@2|

; 144  :     while (pciLoc.bus <= maxBus) {

  003b4	e5dd3012	 ldrb        r3, [sp, #0x12]
  003b8	e1a02003	 mov         r2, r3
  003bc	e5dd3014	 ldrb        r3, [sp, #0x14]
  003c0	e1520003	 cmp         r2, r3
  003c4	ca000075	 bgt         |$LN16@OALPCIDump@2|

; 145  :         pciLoc.dev = 0;

  003c8	e3a03000	 mov         r3, #0
  003cc	e5cd3011	 strb        r3, [sp, #0x11]
  003d0		 |$LN15@OALPCIDump@2|

; 146  :         while (pciLoc.dev < PCI_MAX_DEVICES) {

  003d0	e5dd3011	 ldrb        r3, [sp, #0x11]
  003d4	e3530020	 cmp         r3, #0x20
  003d8	aa00006b	 bge         |$LN14@OALPCIDump@2|

; 147  :             pciLoc.fnc = 0;

  003dc	e3a03000	 mov         r3, #0
  003e0	e5cd3010	 strb        r3, [sp, #0x10]
  003e4		 |$LN13@OALPCIDump@2|

; 148  :             while (pciLoc.fnc < PCI_MAX_FUNCTION) {

  003e4	e5dd3010	 ldrb        r3, [sp, #0x10]
  003e8	e3530008	 cmp         r3, #8
  003ec	aa000061	 bge         |$LN12@OALPCIDump@2|

; 149  :                 // Get device id
; 150  :                 id = OALPCIGetId(busId, pciLoc);

  003f0	e59d1010	 ldr         r1, [sp, #0x10]
  003f4	e59d0038	 ldr         r0, [sp, #0x38]
  003f8	eb000000	 bl          OALPCIGetId
  003fc	e58d0020	 str         r0, [sp, #0x20]
  00400	e59d3020	 ldr         r3, [sp, #0x20]
  00404	e58d3008	 str         r3, [sp, #8]

; 151  :                 // If it is invalid (-1) let try next device
; 152  :                 if (LOWORD(id) == PCI_INVALID_VENDORID ||
; 153  :                     HIWORD(id) == PCI_INVALID_DEVICEID
; 154  :                 ) break;

  00408	e59d3008	 ldr         r3, [sp, #8]
  0040c	e1a03803	 mov         r3, r3, lsl #16
  00410	e1a03823	 mov         r3, r3, lsr #16
  00414	e1a02003	 mov         r2, r3
  00418	e3a03cff	 mov         r3, #0xFF, 24
  0041c	e38330ff	 orr         r3, r3, #0xFF
  00420	e1520003	 cmp         r2, r3
  00424	0a000008	 beq         |$LN10@OALPCIDump@2|
  00428	e59d3008	 ldr         r3, [sp, #8]
  0042c	e1a03823	 mov         r3, r3, lsr #16
  00430	e1a03803	 mov         r3, r3, lsl #16
  00434	e1a03823	 mov         r3, r3, lsr #16
  00438	e1a02003	 mov         r2, r3
  0043c	e3a03cff	 mov         r3, #0xFF, 24
  00440	e38330ff	 orr         r3, r3, #0xFF
  00444	e1520003	 cmp         r2, r3
  00448	1a000000	 bne         |$LN11@OALPCIDump@2|
  0044c		 |$LN10@OALPCIDump@2|
  0044c	ea000049	 b           |$LN12@OALPCIDump@2|
  00450		 |$LN11@OALPCIDump@2|

; 155  :                 // Dump device
; 156  :                 if (full) {

  00450	e59d303c	 ldr         r3, [sp, #0x3C]
  00454	e3530000	 cmp         r3, #0
  00458	0a000003	 beq         |$LN9@OALPCIDump@2|

; 157  :                     OALPCIDumpConfig(busId, pciLoc);

  0045c	e59d1010	 ldr         r1, [sp, #0x10]
  00460	e59d0038	 ldr         r0, [sp, #0x38]
  00464	eb000000	 bl          OALPCIDumpConfig

; 158  :                 } else {

  00468	ea00000d	 b           |$LN8@OALPCIDump@2|
  0046c		 |$LN9@OALPCIDump@2|

; 159  :                     OALLog(
; 160  :                         L"PCI %d/%d/%d: VendorId %04x DeviceId %04x\r\n",
; 161  :                         pciLoc.bus, pciLoc.dev, pciLoc.fnc, LOWORD(id),
; 162  :                         HIWORD(id)
; 163  :                     );

  0046c	e59d3008	 ldr         r3, [sp, #8]
  00470	e1a03823	 mov         r3, r3, lsr #16
  00474	e1a03803	 mov         r3, r3, lsl #16
  00478	e1a03823	 mov         r3, r3, lsr #16
  0047c	e58d3004	 str         r3, [sp, #4]
  00480	e59d3008	 ldr         r3, [sp, #8]
  00484	e1a03803	 mov         r3, r3, lsl #16
  00488	e1a03823	 mov         r3, r3, lsr #16
  0048c	e58d3000	 str         r3, [sp]
  00490	e5dd3010	 ldrb        r3, [sp, #0x10]
  00494	e5dd2011	 ldrb        r2, [sp, #0x11]
  00498	e5dd1012	 ldrb        r1, [sp, #0x12]
  0049c	e59f0108	 ldr         r0, [pc, #0x108]
  004a0	eb000000	 bl          NKDbgPrintfW
  004a4		 |$LN8@OALPCIDump@2|

; 164  :                 }
; 165  :                 // Read header
; 166  :                 header = OALPCIGetHeaderType(busId, pciLoc);

  004a4	e59d1010	 ldr         r1, [sp, #0x10]
  004a8	e59d0038	 ldr         r0, [sp, #0x38]
  004ac	eb000000	 bl          OALPCIGetHeaderType
  004b0	e5cd0024	 strb        r0, [sp, #0x24]
  004b4	e5dd3024	 ldrb        r3, [sp, #0x24]
  004b8	e5cd3015	 strb        r3, [sp, #0x15]

; 167  :                 if (header == 0xFF) break;

  004bc	e5dd3015	 ldrb        r3, [sp, #0x15]
  004c0	e35300ff	 cmp         r3, #0xFF
  004c4	1a000000	 bne         |$LN7@OALPCIDump@2|
  004c8	ea00002a	 b           |$LN12@OALPCIDump@2|
  004cc		 |$LN7@OALPCIDump@2|

; 168  :                 // We are on bus 0 and device is bridge read subordinate
; 169  :                 // bus number -- this give us maximal bus number on PCI bus
; 170  :                 if (pciLoc.bus == 0) {

  004cc	e5dd3012	 ldrb        r3, [sp, #0x12]
  004d0	e3530000	 cmp         r3, #0
  004d4	1a00001b	 bne         |$LN6@OALPCIDump@2|

; 171  :                     switch (header & ~PCI_MULTIFUNCTION) {

  004d8	e5dd3015	 ldrb        r3, [sp, #0x15]
  004dc	e1a02003	 mov         r2, r3
  004e0	e3e03080	 mvn         r3, #0x80
  004e4	e0023003	 and         r3, r2, r3
  004e8	e58d3028	 str         r3, [sp, #0x28]
  004ec	e59d3028	 ldr         r3, [sp, #0x28]
  004f0	e3530000	 cmp         r3, #0
  004f4	da000013	 ble         |$LN4@OALPCIDump@2|
  004f8	e59d3028	 ldr         r3, [sp, #0x28]
  004fc	e3530002	 cmp         r3, #2
  00500	da000000	 ble         |$LN3@OALPCIDump@2|
  00504	ea00000f	 b           |$LN4@OALPCIDump@2|
  00508		 |$LN3@OALPCIDump@2|

; 172  :                     case PCI_BRIDGE_TYPE:
; 173  :                     case PCI_CARDBUS_TYPE:
; 174  :                         subBus = OALPCIGetSubBusNum(busId, pciLoc);

  00508	e59d1010	 ldr         r1, [sp, #0x10]
  0050c	e59d0038	 ldr         r0, [sp, #0x38]
  00510	eb000000	 bl          OALPCIGetSubBusNum
  00514	e5cd002c	 strb        r0, [sp, #0x2C]
  00518	e5dd302c	 ldrb        r3, [sp, #0x2C]
  0051c	e5cd300c	 strb        r3, [sp, #0xC]

; 175  :                         if (subBus != 0xFF && subBus > maxBus) maxBus = subBus;

  00520	e5dd300c	 ldrb        r3, [sp, #0xC]
  00524	e35300ff	 cmp         r3, #0xFF
  00528	0a000006	 beq         |$LN2@OALPCIDump@2|
  0052c	e5dd300c	 ldrb        r3, [sp, #0xC]
  00530	e1a02003	 mov         r2, r3
  00534	e5dd3014	 ldrb        r3, [sp, #0x14]
  00538	e1520003	 cmp         r2, r3
  0053c	da000001	 ble         |$LN2@OALPCIDump@2|
  00540	e5dd300c	 ldrb        r3, [sp, #0xC]
  00544	e5cd3014	 strb        r3, [sp, #0x14]
  00548		 |$LN2@OALPCIDump@2|
  00548		 |$LN4@OALPCIDump@2|
  00548		 |$LN6@OALPCIDump@2|

; 176  :                         break;
; 177  :                     }
; 178  :                 }
; 179  :                 // Break loop if device isn't multifunction
; 180  :                 if (pciLoc.fnc == 0 && (header & PCI_MULTIFUNCTION) == 0) break;

  00548	e5dd3010	 ldrb        r3, [sp, #0x10]
  0054c	e3530000	 cmp         r3, #0
  00550	1a000003	 bne         |$LN1@OALPCIDump@2|
  00554	e5dd3015	 ldrb        r3, [sp, #0x15]
  00558	e3130080	 tst         r3, #0x80
  0055c	1a000000	 bne         |$LN1@OALPCIDump@2|
  00560	ea000004	 b           |$LN12@OALPCIDump@2|
  00564		 |$LN1@OALPCIDump@2|

; 181  :                 // Move to next function
; 182  :                 pciLoc.fnc++;

  00564	e5dd3010	 ldrb        r3, [sp, #0x10]
  00568	e2833001	 add         r3, r3, #1
  0056c	e20330ff	 and         r3, r3, #0xFF
  00570	e5cd3010	 strb        r3, [sp, #0x10]

; 183  :             }

  00574	eaffff9a	 b           |$LN13@OALPCIDump@2|
  00578		 |$LN12@OALPCIDump@2|

; 184  :             pciLoc.dev++;

  00578	e5dd3011	 ldrb        r3, [sp, #0x11]
  0057c	e2833001	 add         r3, r3, #1
  00580	e20330ff	 and         r3, r3, #0xFF
  00584	e5cd3011	 strb        r3, [sp, #0x11]

; 185  :         }

  00588	eaffff90	 b           |$LN15@OALPCIDump@2|
  0058c		 |$LN14@OALPCIDump@2|

; 186  :         pciLoc.bus++;

  0058c	e5dd3012	 ldrb        r3, [sp, #0x12]
  00590	e2833001	 add         r3, r3, #1
  00594	e20330ff	 and         r3, r3, #0xFF
  00598	e5cd3012	 strb        r3, [sp, #0x12]

; 187  :     }

  0059c	eaffff84	 b           |$LN17@OALPCIDump@2|
  005a0		 |$LN16@OALPCIDump@2|

; 188  : 
; 189  : }

  005a0	e28dd030	 add         sp, sp, #0x30
  005a4	e89d6000	 ldmia       sp, {sp, lr}
  005a8	e12fff1e	 bx          lr
  005ac		 |$LN23@OALPCIDump@2|
  005ac		 |$LN24@OALPCIDump@2|
  005ac	00000000	 DCD         |??_C@_1FI@OFNLOLNG@?$AAP?$AAC?$AAI?$AA?5?$AA?$CF?$AAd?$AA?1?$AA?$CF?$AAd?$AA?1?$AA?$CF?$AAd?$AA?3?$AA?5?$AAV?$AAe?$AAn?$AAd?$AAo?$AAr?$AAI?$AAd?$AA?5?$AA?$CF?$AA0?$AA4?$AAx?$AA?5?$AAD?$AAe?$AAv?$AAi@|
  005b0		 |$M40383|

			 ENDP  ; |OALPCIDump|

	END
