; Listing generated by Microsoft (R) Optimizing Compiler Version 14.01.60511.01 

	TTL	C:\WINCE600\PLATFORM\COMMON\SRC\SOC\COMMON_TI_V1\TPS659XX\MISC\misc.c
	CODE32

  00000			 AREA	 |.drectve|, DRECTVE
	DCB	"-defaultlib:LIBCMT "
	DCB	"-defaultlib:OLDNAMES "


  00000			 AREA	 |.rdata|, DATA, READONLY
|EdbgVendorIds| DCW 0x0
	DCW	0x0
	DCD	0x4033
	DCB	0x1
	DCB	"AD", 0x0
	DCW	0x1050
	DCW	0x940
	DCD	0x4005
	DCB	0x1
	DCB	"LS", 0x0
	DCW	0x1050
	DCW	0x940
	DCD	0x2078
	DCB	0x1
	DCB	"LS", 0x0
	DCW	0x10ec
	DCW	0x8029
	DCD	0xc0f0
	DCB	0x1
	DCB	"KS", 0x0
	DCW	0x10ec
	DCW	0x8129
	DCD	0x0
	DCB	0x4
	DCB	"RT", 0x0
	DCW	0x10ec
	DCW	0x8139
	DCD	0x900b
	DCB	0x4
	DCB	"RT", 0x0
	DCW	0x10ec
	DCW	0x8139
	DCD	0xd0c9
	DCB	0x4
	DCB	"RT", 0x0
	DCW	0x10ec
	DCW	0x8139
	DCD	0xe04c
	DCB	0x4
	DCB	"RT", 0x0
	DCW	0x1186
	DCW	0x1300
	DCD	0x50ba
	DCB	0x4
	DCB	"DL", 0x0
	DCW	0x100b
	DCW	0x20
	DCD	0xa0cc
	DCB	0x5
	DCB	"NG", 0x0
	DCW	0x10b7
	DCW	0x9050
	DCD	0x6008
	DCB	0x6
	DCB	"3C", 0x0
	DCW	0x10b7
	DCW	0x9200
	DCD	0x476
	DCB	0x6
	DCB	"3C", 0x0
	EXPORT	|TWLReadIDCode|
	IMPORT	|TWLReadRegs|
; File c:\wince600\platform\common\src\soc\common_ti_v1\tps659xx\misc\misc.c

  00000			 AREA	 |.pdata|, PDATA
|$T43861| DCD	|$LN7@TWLReadIDC|
	DCD	0x40000d02
; Function compile flags: /Ogspy

  00000			 AREA	 |.text|, CODE, ARM

  00000		 |TWLReadIDCode| PROC

; 29   : {    

  00000		 |$LN7@TWLReadIDC|
  00000	e52de004	 str         lr, [sp, #-4]!
  00004	e24dd004	 sub         sp, sp, #4
  00008		 |$M43858|
  00008	e3a03801	 mov         r3, #1, 16

; 30   :     UINT8 version;
; 31   :     if (TWLReadRegs(hTwl, TWL_IDCODE_31_24, &version, sizeof(version)))

  0000c	e3831088	 orr         r1, r3, #0x88
  00010	e3a03001	 mov         r3, #1
  00014	e28d2000	 add         r2, sp, #0
  00018	eb000000	 bl          TWLReadRegs
  0001c	e3500000	 cmp         r0, #0

; 32   :     {
; 33   :         return version;

  00020	15dd0000	 ldrneb      r0, [sp]

; 34   :     }
; 35   :     else
; 36   :     {
; 37   :         return (UINT8) -1;

  00024	03a000ff	 moveq       r0, #0xFF

; 38   :     }
; 39   : }

  00028	e28dd004	 add         sp, sp, #4
  0002c	e49de004	 ldr         lr, [sp], #4
  00030	e12fff1e	 bx          lr
  00034		 |$M43859|

			 ENDP  ; |TWLReadIDCode|

	END
