; Listing generated by Microsoft (R) Optimizing Compiler Version 14.01.60511.01 

	TTL	C:\WINCE600\PLATFORM\Z2170P\SRC\test\testKeypad\testKeypad.cpp
	CODE32

  00000			 AREA	 |.drectve|, DRECTVE
	DCB	"-INCLUDE:__@@_PchSym_@00@UdrmxvGAAUkozgulinUaCBHAkUhixUg"
	DCB	"vhgUgvhgpvbkzwUlyqUzineErUivgzroUhgwzucOlyq@testKeypad "
	DCB	"-defaultlib:LIBCMT "
	DCB	"-defaultlib:OLDNAMES "

	EXPORT	|??_C@_17HDJIHIPC@?$AAN?$AA?1?$AAA?$AA?$AA@| [ DATA ] ; `string'
	EXPORT	|??_C@_1BE@BONPJBIM@?$AAV?$AAK?$AA_?$AAE?$AAS?$AAC?$AAA?$AAP?$AAE?$AA?$AA@| [ DATA ] ; `string'
	EXPORT	|??_C@_1O@LOEBKDPC@?$AAV?$AAK?$AA_?$AAT?$AAU?$AAP?$AA?$AA@| [ DATA ] ; `string'
	EXPORT	|??_C@_1BC@EAGEDJDD@?$AAV?$AAK?$AA_?$AAT?$AAL?$AAE?$AAF?$AAT?$AA?$AA@| [ DATA ] ; `string'
	EXPORT	|??_C@_1BE@IKFHNANM@?$AAV?$AAK?$AA_?$AAT?$AAS?$AAO?$AAF?$AAT?$AA1?$AA?$AA@| [ DATA ] ; `string'
	EXPORT	|??_C@_1BC@ICFANBAA@?$AAV?$AAK?$AA_?$AAT?$AAB?$AAA?$AAC?$AAK?$AA?$AA@| [ DATA ] ; `string'
	EXPORT	|??_C@_1BC@DFEMBOGJ@?$AAV?$AAK?$AA_?$AAS?$AAP?$AAA?$AAC?$AAE?$AA?$AA@| [ DATA ] ; `string'
	EXPORT	|??_C@_1BE@JIOCHPDC@?$AAV?$AAK?$AA_?$AAT?$AAS?$AAO?$AAF?$AAT?$AA2?$AA?$AA@| [ DATA ] ; `string'
	EXPORT	|??_C@_1O@NMBGHMGL@?$AAV?$AAK?$AA_?$AAT?$AAA?$AAB?$AA?$AA@| [ DATA ] ; `string'
	EXPORT	|??_C@_1BE@KIKKCJLL@?$AAV?$AAK?$AA_?$AAT?$AAR?$AAI?$AAG?$AAH?$AAT?$AA?$AA@| [ DATA ] ; `string'
	EXPORT	|??_C@_1BC@DFFNADMK@?$AAV?$AAK?$AA_?$AAT?$AAD?$AAO?$AAW?$AAN?$AA?$AA@| [ DATA ] ; `string'
	EXPORT	|??_C@_1BC@FKCNEFLI@?$AAV?$AAK?$AA_?$AAT?$AAH?$AAO?$AAM?$AAE?$AA?$AA@| [ DATA ] ; `string'
	EXPORT	|??_C@_1BG@KHIOFBEA@?$AAV?$AAK?$AA_?$AAT?$AAA?$AAC?$AAT?$AAI?$AAO?$AAN?$AA?$AA@| [ DATA ] ; `string'
	EXPORT	|?hInst@@3PAUHINSTANCE__@@A| [ DATA ]	; hInst
	EXPORT	|?szTitle@@3PAGA| [ DATA ]		; szTitle
	EXPORT	|?szWindowClass@@3PAGA| [ DATA ]	; szWindowClass
	EXPORT	|?table@@3PAUT_VKEY_AND_NAME@@A| [ DATA ] ; table
	EXPORT	|?labelText@@3PAGA| [ DATA ]		; labelText

  00000			 AREA	 |.bss|, NOINIT
|?hInst@@3PAUHINSTANCE__@@A| % 0x4			; hInst
|?szTitle@@3PAGA| % 0xc8				; szTitle
|?szWindowClass@@3PAGA| % 0xc8				; szWindowClass

  00000			 AREA	 |.data|, DATA
|?table@@3PAUT_VKEY_AND_NAME@@A| DCD 0xd		; table
	DCD	|??_C@_1BG@KHIOFBEA@?$AAV?$AAK?$AA_?$AAT?$AAA?$AAC?$AAT?$AAI?$AAO?$AAN?$AA?$AA@|
	DCD	0x5b
	DCD	|??_C@_1BC@FKCNEFLI@?$AAV?$AAK?$AA_?$AAT?$AAH?$AAO?$AAM?$AAE?$AA?$AA@|
	DCD	0x28
	DCD	|??_C@_1BC@DFFNADMK@?$AAV?$AAK?$AA_?$AAT?$AAD?$AAO?$AAW?$AAN?$AA?$AA@|
	DCD	0x27
	DCD	|??_C@_1BE@KIKKCJLL@?$AAV?$AAK?$AA_?$AAT?$AAR?$AAI?$AAG?$AAH?$AAT?$AA?$AA@|
	DCD	0x9
	DCD	|??_C@_1O@NMBGHMGL@?$AAV?$AAK?$AA_?$AAT?$AAA?$AAB?$AA?$AA@|
	DCD	0x71
	DCD	|??_C@_1BE@JIOCHPDC@?$AAV?$AAK?$AA_?$AAT?$AAS?$AAO?$AAF?$AAT?$AA2?$AA?$AA@|
	DCD	0x20
	DCD	|??_C@_1BC@DFEMBOGJ@?$AAV?$AAK?$AA_?$AAS?$AAP?$AAA?$AAC?$AAE?$AA?$AA@|
	DCD	0x1b
	DCD	|??_C@_1BC@ICFANBAA@?$AAV?$AAK?$AA_?$AAT?$AAB?$AAA?$AAC?$AAK?$AA?$AA@|
	DCD	0x70
	DCD	|??_C@_1BE@IKFHNANM@?$AAV?$AAK?$AA_?$AAT?$AAS?$AAO?$AAF?$AAT?$AA1?$AA?$AA@|
	DCD	0x25
	DCD	|??_C@_1BC@EAGEDJDD@?$AAV?$AAK?$AA_?$AAT?$AAL?$AAE?$AAF?$AAT?$AA?$AA@|
	DCD	0x26
	DCD	|??_C@_1O@LOEBKDPC@?$AAV?$AAK?$AA_?$AAT?$AAU?$AAP?$AA?$AA@|
	DCD	0x1b
	DCD	|??_C@_1BE@BONPJBIM@?$AAV?$AAK?$AA_?$AAE?$AAS?$AAC?$AAA?$AAP?$AAE?$AA?$AA@|
	DCD	0x0
	DCD	|??_C@_17HDJIHIPC@?$AAN?$AA?1?$AAA?$AA?$AA@|
|?labelText@@3PAGA| DCB ".", 0x0, ".", 0x0, ".", 0x0, ".", 0x0, 0x0, 0x0 ; labelText
	%	190

  00000			 AREA	 |.rdata|, DATA, READONLY
|??_C@_17HDJIHIPC@?$AAN?$AA?1?$AAA?$AA?$AA@| DCB "N", 0x0, "/", 0x0, "A", 0x0
	DCB	0x0, 0x0				; `string'

  00000			 AREA	 |.rdata|, DATA, READONLY
|??_C@_1BE@BONPJBIM@?$AAV?$AAK?$AA_?$AAE?$AAS?$AAC?$AAA?$AAP?$AAE?$AA?$AA@| DCB "V"
	DCB	0x0, "K", 0x0, "_", 0x0, "E", 0x0, "S", 0x0, "C", 0x0, "A"
	DCB	0x0, "P", 0x0, "E", 0x0, 0x0, 0x0	; `string'

  00000			 AREA	 |.rdata|, DATA, READONLY
|??_C@_1O@LOEBKDPC@?$AAV?$AAK?$AA_?$AAT?$AAU?$AAP?$AA?$AA@| DCB "V", 0x0, "K"
	DCB	0x0, "_", 0x0, "T", 0x0, "U", 0x0, "P", 0x0, 0x0, 0x0 ; `string'

  00000			 AREA	 |.rdata|, DATA, READONLY
|??_C@_1BC@EAGEDJDD@?$AAV?$AAK?$AA_?$AAT?$AAL?$AAE?$AAF?$AAT?$AA?$AA@| DCB "V"
	DCB	0x0, "K", 0x0, "_", 0x0, "T", 0x0, "L", 0x0, "E", 0x0, "F"
	DCB	0x0, "T", 0x0, 0x0, 0x0			; `string'

  00000			 AREA	 |.rdata|, DATA, READONLY
|??_C@_1BE@IKFHNANM@?$AAV?$AAK?$AA_?$AAT?$AAS?$AAO?$AAF?$AAT?$AA1?$AA?$AA@| DCB "V"
	DCB	0x0, "K", 0x0, "_", 0x0, "T", 0x0, "S", 0x0, "O", 0x0, "F"
	DCB	0x0, "T", 0x0, "1", 0x0, 0x0, 0x0	; `string'

  00000			 AREA	 |.rdata|, DATA, READONLY
|??_C@_1BC@ICFANBAA@?$AAV?$AAK?$AA_?$AAT?$AAB?$AAA?$AAC?$AAK?$AA?$AA@| DCB "V"
	DCB	0x0, "K", 0x0, "_", 0x0, "T", 0x0, "B", 0x0, "A", 0x0, "C"
	DCB	0x0, "K", 0x0, 0x0, 0x0			; `string'

  00000			 AREA	 |.rdata|, DATA, READONLY
|??_C@_1BC@DFEMBOGJ@?$AAV?$AAK?$AA_?$AAS?$AAP?$AAA?$AAC?$AAE?$AA?$AA@| DCB "V"
	DCB	0x0, "K", 0x0, "_", 0x0, "S", 0x0, "P", 0x0, "A", 0x0, "C"
	DCB	0x0, "E", 0x0, 0x0, 0x0			; `string'

  00000			 AREA	 |.rdata|, DATA, READONLY
|??_C@_1BE@JIOCHPDC@?$AAV?$AAK?$AA_?$AAT?$AAS?$AAO?$AAF?$AAT?$AA2?$AA?$AA@| DCB "V"
	DCB	0x0, "K", 0x0, "_", 0x0, "T", 0x0, "S", 0x0, "O", 0x0, "F"
	DCB	0x0, "T", 0x0, "2", 0x0, 0x0, 0x0	; `string'

  00000			 AREA	 |.rdata|, DATA, READONLY
|??_C@_1O@NMBGHMGL@?$AAV?$AAK?$AA_?$AAT?$AAA?$AAB?$AA?$AA@| DCB "V", 0x0, "K"
	DCB	0x0, "_", 0x0, "T", 0x0, "A", 0x0, "B", 0x0, 0x0, 0x0 ; `string'

  00000			 AREA	 |.rdata|, DATA, READONLY
|??_C@_1BE@KIKKCJLL@?$AAV?$AAK?$AA_?$AAT?$AAR?$AAI?$AAG?$AAH?$AAT?$AA?$AA@| DCB "V"
	DCB	0x0, "K", 0x0, "_", 0x0, "T", 0x0, "R", 0x0, "I", 0x0, "G"
	DCB	0x0, "H", 0x0, "T", 0x0, 0x0, 0x0	; `string'

  00000			 AREA	 |.rdata|, DATA, READONLY
|??_C@_1BC@DFFNADMK@?$AAV?$AAK?$AA_?$AAT?$AAD?$AAO?$AAW?$AAN?$AA?$AA@| DCB "V"
	DCB	0x0, "K", 0x0, "_", 0x0, "T", 0x0, "D", 0x0, "O", 0x0, "W"
	DCB	0x0, "N", 0x0, 0x0, 0x0			; `string'

  00000			 AREA	 |.rdata|, DATA, READONLY
|??_C@_1BC@FKCNEFLI@?$AAV?$AAK?$AA_?$AAT?$AAH?$AAO?$AAM?$AAE?$AA?$AA@| DCB "V"
	DCB	0x0, "K", 0x0, "_", 0x0, "T", 0x0, "H", 0x0, "O", 0x0, "M"
	DCB	0x0, "E", 0x0, 0x0, 0x0			; `string'

  00000			 AREA	 |.rdata|, DATA, READONLY
|??_C@_1BG@KHIOFBEA@?$AAV?$AAK?$AA_?$AAT?$AAA?$AAC?$AAT?$AAI?$AAO?$AAN?$AA?$AA@| DCB "V"
	DCB	0x0, "K", 0x0, "_", 0x0, "T", 0x0, "A", 0x0, "C", 0x0, "T"
	DCB	0x0, "I", 0x0, "O", 0x0, "N", 0x0, 0x0, 0x0 ; `string'
	EXPORT	|?InitInstance@@YAHPAUHINSTANCE__@@H@Z|	; InitInstance
	IMPORT	|UpdateWindow|
	IMPORT	|ShowWindow|
	IMPORT	|CreateWindowExW|
; File c:\wince600\platform\z2170p\src\test\testkeypad\testkeypad.cpp

  00000			 AREA	 |.pdata|, PDATA
|$T32189| DCD	|$LN6@InitInstan|
	DCD	0x40002202
; Function compile flags: /Ogspy

  00000			 AREA	 |.text|, CODE, ARM

  00000		 |?InitInstance@@YAHPAUHINSTANCE__@@H@Z| PROC ; InitInstance

; 102  : {

  00000		 |$LN6@InitInstan|
  00000	e92d40f0	 stmdb       sp!, {r4 - r7, lr}
  00004	e24dd020	 sub         sp, sp, #0x20
  00008		 |$M32186|
  00008	e1a05001	 mov         r5, r1
  0000c	e1a04000	 mov         r4, r0

; 103  :    HWND hWnd;
; 104  : 
; 105  :    hInst = hInstance; // Store instance handle in our global variable

  00010	e59fe06c	 ldr         lr, [pc, #0x6C]

; 106  : 
; 107  :    hWnd = CreateWindow(szWindowClass, szTitle, WS_VISIBLE,
; 108  :       0, 0, CW_USEDEFAULT, CW_USEDEFAULT, NULL, NULL, hInstance, NULL);

  00014	e3a07000	 mov         r7, #0
  00018	e3a06102	 mov         r6, #2, 2
  0001c	e28e20c8	 add         r2, lr, #0xC8
  00020	e1a0100e	 mov         r1, lr
  00024	e3a03201	 mov         r3, #1, 4
  00028	e3a00000	 mov         r0, #0
  0002c	e58e4190	 str         r4, [lr, #0x190]
  00030	e58d701c	 str         r7, [sp, #0x1C]
  00034	e58d4018	 str         r4, [sp, #0x18]
  00038	e58d7014	 str         r7, [sp, #0x14]
  0003c	e58d7010	 str         r7, [sp, #0x10]
  00040	e58d600c	 str         r6, [sp, #0xC]
  00044	e58d6008	 str         r6, [sp, #8]
  00048	e58d7004	 str         r7, [sp, #4]
  0004c	e58d7000	 str         r7, [sp]
  00050	eb000000	 bl          CreateWindowExW
  00054	e1b04000	 movs        r4, r0

; 109  : 
; 110  :    if (!hWnd)
; 111  :    {
; 112  :       return FALSE;

  00058	03a00000	 moveq       r0, #0
  0005c	0a000005	 beq         |$LN2@InitInstan|

; 113  :    }
; 114  : 
; 115  :    ShowWindow(hWnd, nCmdShow);

  00060	e1a01005	 mov         r1, r5
  00064	e1a00004	 mov         r0, r4
  00068	eb000000	 bl          ShowWindow

; 116  :    UpdateWindow(hWnd);

  0006c	e1a00004	 mov         r0, r4
  00070	eb000000	 bl          UpdateWindow

; 117  : 
; 118  :    return TRUE;

  00074	e3a00001	 mov         r0, #1
  00078		 |$LN2@InitInstan|

; 119  : }

  00078	e28dd020	 add         sp, sp, #0x20
  0007c	e8bd40f0	 ldmia       sp!, {r4 - r7, lr}
  00080	e12fff1e	 bx          lr
  00084		 |$LN7@InitInstan|
  00084		 |$LN8@InitInstan|
  00084	00000000	 DCD         |?szWindowClass@@3PAGA|
  00088		 |$M32187|

			 ENDP  ; |?InitInstance@@YAHPAUHINSTANCE__@@H@Z|, InitInstance

	EXPORT	|?GetKeyString@@YAPAGI@Z|		; GetKeyString
	EXPORT	|??_C@_17FJFCONIE@?$AAk?$AAe?$AAy?$AA?$AA@| [ DATA ] ; `string'

  00000			 AREA	 |.pdata|, PDATA
|$T32205| DCD	|$LN12@GetKeyStri|
	DCD	0x40001401

  00000			 AREA	 |.rdata|, DATA, READONLY
|??_C@_17FJFCONIE@?$AAk?$AAe?$AAy?$AA?$AA@| DCB "k", 0x0, "e", 0x0, "y", 0x0
	DCB	0x0, 0x0				; `string'
; Function compile flags: /Ogspy

  00000			 AREA	 |.text|, CODE, ARM

  00000		 |?GetKeyString@@YAPAGI@Z| PROC		; GetKeyString

; 142  : {

  00000		 |$LN12@GetKeyStri|
  00000	e52de004	 str         lr, [sp, #-4]!
  00004		 |$M32202|

; 143  :     for (int i=0;i<sizeof(table)/sizeof(table[0]);i++)

  00004	e59fe040	 ldr         lr, [pc, #0x40]
  00008	e3a02000	 mov         r2, #0
  0000c	e1a0100e	 mov         r1, lr
  00010		 |$LL4@GetKeyStri|

; 144  :     {
; 145  :         if (wParam == table[i].vkey)

  00010	e5913000	 ldr         r3, [r1]
  00014	e1500003	 cmp         r0, r3
  00018	0a000006	 beq         |$LN8@GetKeyStri|
  0001c	e2822001	 add         r2, r2, #1
  00020	e352000d	 cmp         r2, #0xD
  00024	e2811008	 add         r1, r1, #8
  00028	3afffff8	 bcc         |$LL4@GetKeyStri|

; 148  :         }
; 149  :     }
; 150  :     return TEXT("key");

  0002c	e59f0014	 ldr         r0, [pc, #0x14]

; 151  : }

  00030	e49de004	 ldr         lr, [sp], #4
  00034	e12fff1e	 bx          lr
  00038		 |$LN8@GetKeyStri|

; 146  :         {
; 147  :             return table[i].name;

  00038	e28e3004	 add         r3, lr, #4
  0003c	e7930182	 ldr         r0, [r3, +r2, lsl #3]

; 151  : }

  00040	e49de004	 ldr         lr, [sp], #4
  00044	e12fff1e	 bx          lr
  00048		 |$LN13@GetKeyStri|
  00048		 |$LN14@GetKeyStri|
  00048	00000000	 DCD         |??_C@_17FJFCONIE@?$AAk?$AAe?$AAy?$AA?$AA@|
  0004c		 |$LN15@GetKeyStri|
  0004c	00000000	 DCD         |?table@@3PAUT_VKEY_AND_NAME@@A|
  00050		 |$M32203|

			 ENDP  ; |?GetKeyString@@YAPAGI@Z|, GetKeyString

	EXPORT	|__$ArrayPad$| [ DATA ]
	EXPORT	|?WndProc@@YAJPAUHWND__@@IIJ@Z|		; WndProc
	EXPORT	|??_C@_1DK@IACCBMLJ@?$AA?$CF?$AAs?$AA?5?$AA?$CI?$AA0?$AAx?$AA?$CF?$AAx?$AA?$CJ?$AA?5?$AAp?$AAr?$AAe?$AAs?$AAs?$AAe?$AAd?$AA?5?$AA?$CF?$AAd?$AA?5?$AAt?$AAi?$AAm?$AAe?$AA?$CI?$AAs?$AA?$CJ?$AA?$AA@| [ DATA ] ; `string'
	EXPORT	|??_C@_1CG@ICJDHDLD@?$AA?$CF?$AAs?$AA?5?$AA?$CI?$AA0?$AAx?$AA?$CF?$AAx?$AA?$CJ?$AA?5?$AAr?$AAe?$AAl?$AAe?$AAa?$AAs?$AAe?$AAd?$AA?$AA@| [ DATA ] ; `string'
	IMPORT	|PostQuitMessage|
	IMPORT	|EndPaint|
	IMPORT	|DrawTextW|
	IMPORT	|GetClientRect|
	IMPORT	|BeginPaint|
	IMPORT	|DefWindowProcW|
	IMPORT	|InvalidateRect|
	IMPORT	|swprintf|
	IMPORT	|__GSHandlerCheck|
	IMPORT	|__security_cookie|
	IMPORT	|wcslen|
	IMPORT	|__security_check_cookie|

  00194			 AREA	 |.bss|, NOINIT
|counters| %	0x400
|counters| %	0x400

  00000			 AREA	 |.pdata|, PDATA
|$T32231| DCD	|$LN14@WndProc|
	DCD	0xc0006502

  00000			 AREA	 |.xdata|, DATA
|$T32227| DCD	0xffffffe8

  00000			 AREA	 |.rdata|, DATA, READONLY
|??_C@_1DK@IACCBMLJ@?$AA?$CF?$AAs?$AA?5?$AA?$CI?$AA0?$AAx?$AA?$CF?$AAx?$AA?$CJ?$AA?5?$AAp?$AAr?$AAe?$AAs?$AAs?$AAe?$AAd?$AA?5?$AA?$CF?$AAd?$AA?5?$AAt?$AAi?$AAm?$AAe?$AA?$CI?$AAs?$AA?$CJ?$AA?$AA@| DCB "%"
	DCB	0x0, "s", 0x0, " ", 0x0, "(", 0x0, "0", 0x0, "x", 0x0, "%"
	DCB	0x0, "x", 0x0, ")", 0x0, " ", 0x0, "p", 0x0, "r", 0x0, "e"
	DCB	0x0, "s", 0x0, "s", 0x0, "e", 0x0, "d", 0x0, " ", 0x0, "%"
	DCB	0x0, "d", 0x0, " ", 0x0, "t", 0x0, "i", 0x0, "m", 0x0, "e"
	DCB	0x0, "(", 0x0, "s", 0x0, ")", 0x0, 0x0, 0x0 ; `string'

  00000			 AREA	 |.rdata|, DATA, READONLY
|??_C@_1CG@ICJDHDLD@?$AA?$CF?$AAs?$AA?5?$AA?$CI?$AA0?$AAx?$AA?$CF?$AAx?$AA?$CJ?$AA?5?$AAr?$AAe?$AAl?$AAe?$AAa?$AAs?$AAe?$AAd?$AA?$AA@| DCB "%"
	DCB	0x0, "s", 0x0, " ", 0x0, "(", 0x0, "0", 0x0, "x", 0x0, "%"
	DCB	0x0, "x", 0x0, ")", 0x0, " ", 0x0, "r", 0x0, "e", 0x0, "l"
	DCB	0x0, "e", 0x0, "a", 0x0, "s", 0x0, "e", 0x0, "d", 0x0, 0x0
	DCB	0x0					; `string'
; Function compile flags: /Ogspy

  00000			 AREA	 |.text|, CODE, ARM

  00000	00000000	 DCD         |__GSHandlerCheck|
  00004	00000000	 DCD         |$T32227|

  00008		 |?WndProc@@YAJPAUHWND__@@IIJ@Z| PROC	; WndProc

; 166  : {

  00008		 |$LN14@WndProc|
  00008	e92d40f0	 stmdb       sp!, {r4 - r7, lr}
  0000c	e24dd058	 sub         sp, sp, #0x58
  00010		 |$M32228|
  00010	e1a07003	 mov         r7, r3
  00014	e1a05002	 mov         r5, r2
  00018	e1a04001	 mov         r4, r1
  0001c	e1a06000	 mov         r6, r0
  00020	e59fe170	 ldr         lr, [pc, #0x170]
  00024	e59ee000	 ldr         lr, [lr]
  00028	e58de054	 str         lr, [sp, #0x54]

; 167  :     PAINTSTRUCT ps;
; 168  :     HDC hdc;  
; 169  :     
; 170  :     //LoadString(hInst, IDS_HELLO, szHello, MAX_LOADSTRING);
; 171  : 
; 172  :     switch (message) 

  0002c	e3540002	 cmp         r4, #2
  00030	0a00004b	 beq         |$LN2@WndProc|
  00034	e354000f	 cmp         r4, #0xF
  00038	0a000035	 beq         |$LN3@WndProc|
  0003c	e35400ff	 cmp         r4, #0xFF
  00040	9a00002a	 bls         |$LN1@WndProc|
  00044	e3a03c01	 mov         r3, #1, 24
  00048	e383e001	 orr         lr, r3, #1
  0004c	e154000e	 cmp         r4, lr
  00050	9a000007	 bls         |$LN7@WndProc|
  00054	e3a03c01	 mov         r3, #1, 24
  00058	e3833003	 orr         r3, r3, #3
  0005c	e1540003	 cmp         r4, r3
  00060	9a000022	 bls         |$LN1@WndProc|
  00064	e3a03c01	 mov         r3, #1, 24
  00068	e3833005	 orr         r3, r3, #5
  0006c	e1540003	 cmp         r4, r3
  00070	8a00001e	 bhi         |$LN1@WndProc|
  00074		 |$LN7@WndProc|

; 173  :     {
; 174  :         case WM_KEYUP:
; 175  :         case WM_KEYDOWN:
; 176  :         case WM_SYSKEYUP:
; 177  :         case WM_SYSKEYDOWN:
; 178  :             {
; 179  :                 TCHAR* key = GetKeyString(wParam);

  00074	e1a00005	 mov         r0, r5
  00078	eb000000	 bl          |?GetKeyString@@YAPAGI@Z|
  0007c	e1a02000	 mov         r2, r0

; 180  :                 if ((message == WM_KEYDOWN) || (message == WM_SYSKEYDOWN))

  00080	e3540c01	 cmp         r4, #1, 24
  00084	0a000009	 beq         |$LN5@WndProc|
  00088	e3540f41	 cmp         r4, #0x41, 30
  0008c	0a000007	 beq         |$LN5@WndProc|

; 184  :                 }
; 185  :                 else
; 186  :                 {
; 187  :                     counters[wParam]=0;

  00090	e59f30f8	 ldr         r3, [pc, #0xF8]

; 188  :                     _stprintf(labelText,TEXT("%s (0x%x) released"),key,wParam);

  00094	e59f10f8	 ldr         r1, [pc, #0xF8]
  00098	e59f00e8	 ldr         r0, [pc, #0xE8]
  0009c	e3a0e000	 mov         lr, #0
  000a0	e783e105	 str         lr, [r3, +r5, lsl #2]
  000a4	e1a03005	 mov         r3, r5
  000a8	eb000000	 bl          swprintf
  000ac	ea000008	 b           |$LN4@WndProc|
  000b0		 |$LN5@WndProc|

; 181  :                 {
; 182  :                     counters[wParam]++;

  000b0	e59f40d8	 ldr         r4, [pc, #0xD8]

; 183  :                     _stprintf(labelText,TEXT("%s (0x%x) pressed %d time(s)"),key,wParam,counters[wParam]);

  000b4	e59f10d0	 ldr         r1, [pc, #0xD0]
  000b8	e59f00c8	 ldr         r0, [pc, #0xC8]
  000bc	e7b4e105	 ldr         lr, [r4, +r5, lsl #2]!
  000c0	e1a03005	 mov         r3, r5
  000c4	e28ee001	 add         lr, lr, #1
  000c8	e584e000	 str         lr, [r4]
  000cc	e58de000	 str         lr, [sp]
  000d0	eb000000	 bl          swprintf
  000d4		 |$LN4@WndProc|

; 189  :                 }
; 190  : 
; 191  :                 InvalidateRect(hWnd,NULL,TRUE);

  000d4	e3a02001	 mov         r2, #1
  000d8	e3a01000	 mov         r1, #0
  000dc	e1a00006	 mov         r0, r6
  000e0	eb000000	 bl          InvalidateRect

; 192  :                 UpdateWindow(hWnd);

  000e4	e1a00006	 mov         r0, r6
  000e8	eb000000	 bl          UpdateWindow

; 193  :             }
; 194  :             break;

  000ec	ea00001e	 b           |$LN8@WndProc|
  000f0		 |$LN1@WndProc|

; 205  :             break;
; 206  :         default:
; 207  :             return DefWindowProc(hWnd, message, wParam, lParam);

  000f0	e1a03007	 mov         r3, r7
  000f4	e1a02005	 mov         r2, r5
  000f8	e1a01004	 mov         r1, r4
  000fc	e1a00006	 mov         r0, r6
  00100	eb000000	 bl          DefWindowProcW
  00104	e1a04000	 mov         r4, r0
  00108	e59d0054	 ldr         r0, [sp, #0x54]
  0010c	eb000000	 bl          __security_check_cookie
  00110	ea000018	 b           |$LN10@WndProc|
  00114		 |$LN3@WndProc|

; 195  :         case WM_PAINT:
; 196  :             hdc = BeginPaint(hWnd, &ps);

  00114	e28d1014	 add         r1, sp, #0x14
  00118	e1a00006	 mov         r0, r6
  0011c	eb000000	 bl          BeginPaint
  00120	e1a04000	 mov         r4, r0

; 197  :             // TODO: Add any drawing code here...
; 198  :             RECT rt;
; 199  :             GetClientRect(hWnd, &rt);

  00124	e1a00006	 mov         r0, r6
  00128	e28d1004	 add         r1, sp, #4
  0012c	eb000000	 bl          GetClientRect

; 200  :             DrawText(hdc, labelText, _tcslen(labelText), &rt, DT_CENTER);

  00130	e59f0050	 ldr         r0, [pc, #0x50]
  00134	eb000000	 bl          wcslen
  00138	e59f1048	 ldr         r1, [pc, #0x48]
  0013c	e1a02000	 mov         r2, r0
  00140	e3a0e001	 mov         lr, #1
  00144	e1a00004	 mov         r0, r4
  00148	e28d3004	 add         r3, sp, #4
  0014c	e58de000	 str         lr, [sp]
  00150	eb000000	 bl          DrawTextW

; 201  :             EndPaint(hWnd, &ps);

  00154	e28d1014	 add         r1, sp, #0x14
  00158	e1a00006	 mov         r0, r6
  0015c	eb000000	 bl          EndPaint

; 202  :             break;

  00160	ea000001	 b           |$LN8@WndProc|
  00164		 |$LN2@WndProc|

; 203  :         case WM_DESTROY:
; 204  :             PostQuitMessage(0);

  00164	e3a00000	 mov         r0, #0
  00168	eb000000	 bl          PostQuitMessage
  0016c		 |$LN8@WndProc|

; 208  :    }
; 209  :    return 0;

  0016c	e59d0054	 ldr         r0, [sp, #0x54]
  00170	eb000000	 bl          __security_check_cookie
  00174	e3a04000	 mov         r4, #0
  00178		 |$LN10@WndProc|

; 210  : }

  00178	e1a00004	 mov         r0, r4
  0017c	e28dd058	 add         sp, sp, #0x58
  00180	e8bd40f0	 ldmia       sp!, {r4 - r7, lr}
  00184	e12fff1e	 bx          lr
  00188		 |$LN15@WndProc|
  00188		 |$LN16@WndProc|
  00188	00000000	 DCD         |?labelText@@3PAGA|
  0018c		 |$LN17@WndProc|
  0018c	00000000	 DCD         |??_C@_1DK@IACCBMLJ@?$AA?$CF?$AAs?$AA?5?$AA?$CI?$AA0?$AAx?$AA?$CF?$AAx?$AA?$CJ?$AA?5?$AAp?$AAr?$AAe?$AAs?$AAs?$AAe?$AAd?$AA?5?$AA?$CF?$AAd?$AA?5?$AAt?$AAi?$AAm?$AAe?$AA?$CI?$AAs?$AA?$CJ?$AA?$AA@|
  00190		 |$LN18@WndProc|
  00190	00000000	 DCD         |counters|
  00194		 |$LN19@WndProc|
  00194	00000000	 DCD         |??_C@_1CG@ICJDHDLD@?$AA?$CF?$AAs?$AA?5?$AA?$CI?$AA0?$AAx?$AA?$CF?$AAx?$AA?$CJ?$AA?5?$AAr?$AAe?$AAl?$AAe?$AAa?$AAs?$AAe?$AAd?$AA?$AA@|
  00198		 |$LN20@WndProc|
  00198	00000000	 DCD         |__security_cookie|
  0019c		 |$M32229|

			 ENDP  ; |?WndProc@@YAJPAUHWND__@@IIJ@Z|, WndProc

	EXPORT	|?MyRegisterClass@@YAGPAUHINSTANCE__@@@Z| ; MyRegisterClass
	IMPORT	|RegisterClassW|
	IMPORT	|GetStockObject|

  00000			 AREA	 |.pdata|, PDATA
|$T32248| DCD	|$LN5@MyRegister|
	DCD	0x40002102
; Function compile flags: /Ogspy

  00000			 AREA	 |.text|, CODE, ARM

  00000		 |?MyRegisterClass@@YAGPAUHINSTANCE__@@@Z| PROC ; MyRegisterClass

; 74   : {

  00000		 |$LN5@MyRegister|
  00000	e92d4070	 stmdb       sp!, {r4 - r6, lr}
  00004	e24dd028	 sub         sp, sp, #0x28
  00008		 |$M32245|
  00008	e1a02000	 mov         r2, r0

; 75   :     WNDCLASS wc;
; 76   : 
; 77   :     wc.style = CS_HREDRAW | CS_VREDRAW;
; 78   :     wc.lpfnWndProc = (WNDPROC) WndProc;

  0000c	e59f306c	 ldr         r3, [pc, #0x6C]
  00010	e3a01003	 mov         r1, #3

; 79   :     wc.cbClsExtra = 0;

  00014	e3a0e000	 mov         lr, #0

; 80   :     wc.cbWndExtra = 0;

  00018	e3a04000	 mov         r4, #0

; 81   :     wc.hInstance = hInstance;
; 82   :     wc.hIcon = 0;

  0001c	e3a05000	 mov         r5, #0

; 83   :     wc.hCursor = 0;

  00020	e3a06000	 mov         r6, #0

; 84   :     wc.hbrBackground = (HBRUSH) GetStockObject(WHITE_BRUSH);

  00024	e3a00000	 mov         r0, #0
  00028	e58d3004	 str         r3, [sp, #4]
  0002c	e58d1000	 str         r1, [sp]
  00030	e58de008	 str         lr, [sp, #8]
  00034	e58d400c	 str         r4, [sp, #0xC]
  00038	e58d2010	 str         r2, [sp, #0x10]
  0003c	e58d5014	 str         r5, [sp, #0x14]
  00040	e58d6018	 str         r6, [sp, #0x18]
  00044	eb000000	 bl          GetStockObject

; 85   :     wc.lpszMenuName = 0;
; 86   :     wc.lpszClassName = szWindowClass;

  00048	e59f302c	 ldr         r3, [pc, #0x2C]
  0004c	e1a02000	 mov         r2, r0
  00050	e3a01000	 mov         r1, #0

; 87   : 
; 88   :     return RegisterClass(&wc);

  00054	e28d0000	 add         r0, sp, #0
  00058	e58d3024	 str         r3, [sp, #0x24]
  0005c	e58d201c	 str         r2, [sp, #0x1C]
  00060	e58d1020	 str         r1, [sp, #0x20]
  00064	eb000000	 bl          RegisterClassW
  00068	e1a00800	 mov         r0, r0, lsl #16
  0006c	e1a00820	 mov         r0, r0, lsr #16

; 89   : }

  00070	e28dd028	 add         sp, sp, #0x28
  00074	e8bd4070	 ldmia       sp!, {r4 - r6, lr}
  00078	e12fff1e	 bx          lr
  0007c		 |$LN6@MyRegister|
  0007c		 |$LN7@MyRegister|
  0007c	00000000	 DCD         |?szWindowClass@@3PAGA|
  00080		 |$LN8@MyRegister|
  00080	00000000	 DCD         |?WndProc@@YAJPAUHWND__@@IIJ@Z|
  00084		 |$M32246|

			 ENDP  ; |?MyRegisterClass@@YAGPAUHINSTANCE__@@@Z|, MyRegisterClass

	EXPORT	|WinMain|
	IMPORT	|GetMessageW|
	IMPORT	|DispatchMessageW|
	IMPORT	|TranslateMessage|
	IMPORT	|TranslateAcceleratorW|
	IMPORT	|LoadAcceleratorsW|
	IMPORT	|LoadStringW|
	IMPORT	|memset|

  00000			 AREA	 |.pdata|, PDATA
|$T32266| DCD	|$LN11@WinMain|
	DCD	0x40003702
; Function compile flags: /Ogspy

  00000			 AREA	 |.text|, CODE, ARM

  00000		 |WinMain| PROC

; 27   : {

  00000		 |$LN11@WinMain|
  00000	e92d4070	 stmdb       sp!, {r4 - r6, lr}
  00004	e24dd01c	 sub         sp, sp, #0x1C
  00008		 |$M32263|
  00008	e1a05003	 mov         r5, r3
  0000c	e1a06000	 mov         r6, r0

; 28   :     // TODO: Place code here.
; 29   :     MSG msg;
; 30   :     HACCEL hAccelTable;
; 31   :     memset(counters,0,sizeof(counters));

  00010	e59f40c0	 ldr         r4, [pc, #0xC0]
  00014	e3a02b01	 mov         r2, #1, 22
  00018	e3a01000	 mov         r1, #0
  0001c	e1a00004	 mov         r0, r4
  00020	eb000000	 bl          memset

; 32   :     // Initialize global strings
; 33   :     LoadString(hInstance, IDS_APP_TITLE, szTitle, MAX_LOADSTRING);

  00024	e59f20a8	 ldr         r2, [pc, #0xA8]
  00028	e3a03064	 mov         r3, #0x64
  0002c	e3a01067	 mov         r1, #0x67
  00030	e1a00006	 mov         r0, r6
  00034	eb000000	 bl          LoadStringW

; 34   :     LoadString(hInstance, IDC_testKeypad, szWindowClass, MAX_LOADSTRING);

  00038	e3a03064	 mov         r3, #0x64
  0003c	e2842b01	 add         r2, r4, #1, 22
  00040	e3a0106d	 mov         r1, #0x6D
  00044	e1a00006	 mov         r0, r6
  00048	eb000000	 bl          LoadStringW

; 35   :     MyRegisterClass(hInstance);

  0004c	e1a00006	 mov         r0, r6
  00050	eb000000	 bl          |?MyRegisterClass@@YAGPAUHINSTANCE__@@@Z|

; 36   : 
; 37   :     // Perform application initialization:
; 38   :     if (!InitInstance (hInstance, nCmdShow)) 

  00054	e1a01005	 mov         r1, r5
  00058	e1a00006	 mov         r0, r6
  0005c	eb000000	 bl          |?InitInstance@@YAHPAUHINSTANCE__@@H@Z|
  00060	e3500000	 cmp         r0, #0

; 39   :     {
; 40   :         return FALSE;

  00064	03a00000	 moveq       r0, #0
  00068	0a000016	 beq         |$LN5@WinMain|

; 41   :     }
; 42   : 
; 43   :     hAccelTable = LoadAccelerators(hInstance, (LPCTSTR)IDC_testKeypad);

  0006c	e3a0106d	 mov         r1, #0x6D
  00070	e1a00006	 mov         r0, r6
  00074	eb000000	 bl          LoadAcceleratorsW
  00078	e1a04000	 mov         r4, r0

; 44   : 
; 45   :     // Main message loop:
; 46   :     while (GetMessage(&msg, NULL, 0, 0)) 

  0007c	ea000009	 b           |$LN1@WinMain|
  00080		 |$LL3@WinMain|

; 47   :     {
; 48   :         if (!TranslateAccelerator(msg.hwnd, hAccelTable, &msg)) 

  00080	e59d0000	 ldr         r0, [sp]
  00084	e28d2000	 add         r2, sp, #0
  00088	e1a01004	 mov         r1, r4
  0008c	eb000000	 bl          TranslateAcceleratorW
  00090	e3500000	 cmp         r0, #0
  00094	1a000003	 bne         |$LN1@WinMain|

; 49   :         {
; 50   :             TranslateMessage(&msg);

  00098	e28d0000	 add         r0, sp, #0
  0009c	eb000000	 bl          TranslateMessage

; 51   :             DispatchMessage(&msg);

  000a0	e28d0000	 add         r0, sp, #0
  000a4	eb000000	 bl          DispatchMessageW
  000a8		 |$LN1@WinMain|
  000a8	e3a03000	 mov         r3, #0
  000ac	e3a02000	 mov         r2, #0
  000b0	e3a01000	 mov         r1, #0
  000b4	e28d0000	 add         r0, sp, #0
  000b8	eb000000	 bl          GetMessageW
  000bc	e3500000	 cmp         r0, #0
  000c0	1affffee	 bne         |$LL3@WinMain|

; 52   :         }
; 53   :     }
; 54   : 
; 55   :     return msg.wParam;

  000c4	e59d0008	 ldr         r0, [sp, #8]
  000c8		 |$LN5@WinMain|

; 56   : }

  000c8	e28dd01c	 add         sp, sp, #0x1C
  000cc	e8bd4070	 ldmia       sp!, {r4 - r6, lr}
  000d0	e12fff1e	 bx          lr
  000d4		 |$LN12@WinMain|
  000d4		 |$LN13@WinMain|
  000d4	00000000	 DCD         |?szTitle@@3PAGA|
  000d8		 |$LN14@WinMain|
  000d8	00000000	 DCD         |counters|
  000dc		 |$M32264|

			 ENDP  ; |WinMain|

	END
