; Listing generated by Microsoft (R) Optimizing Compiler Version 14.01.60511.01 

	TTL	C:\WINCE600\PLATFORM\COMMON\SRC\COMMON\RTC\TIMER\rtc.c
	CODE32

  00000			 AREA	 |.drectve|, DRECTVE
	DCB	"-defaultlib:LIBCMT "
	DCB	"-defaultlib:OLDNAMES "

	EXPORT	|g_oalRTCTicks| [ DATA ]
	EXPORT	|g_pOALRTCTicks| [ DATA ]
	EXPORT	|g_oalRTCAlarm| [ DATA ]

  00000			 AREA	 |.bss|, NOINIT
|g_pOALRTCTicks| % 0x4
|g_oalRTCAlarm| % 0x8

  00000			 AREA	 |.data|, DATA
|g_oalRTCTicks| DCD 0xaa532200, 0xb89			;  = 0x00000b89aa532200

  00000			 AREA	 |.rdata|, DATA, READONLY
|EdbgVendorIds| DCW 0x0
	DCW	0x0
	DCD	0x4033
	DCB	0x1
	DCB	"AD", 0x0
	DCW	0x1050
	DCW	0x940
	DCD	0x4005
	DCB	0x1
	DCB	"LS", 0x0
	DCW	0x1050
	DCW	0x940
	DCD	0x2078
	DCB	0x1
	DCB	"LS", 0x0
	DCW	0x10ec
	DCW	0x8029
	DCD	0xc0f0
	DCB	0x1
	DCB	"KS", 0x0
	DCW	0x10ec
	DCW	0x8129
	DCD	0x0
	DCB	0x4
	DCB	"RT", 0x0
	DCW	0x10ec
	DCW	0x8139
	DCD	0x900b
	DCB	0x4
	DCB	"RT", 0x0
	DCW	0x10ec
	DCW	0x8139
	DCD	0xd0c9
	DCB	0x4
	DCB	"RT", 0x0
	DCW	0x10ec
	DCW	0x8139
	DCD	0xe04c
	DCB	0x4
	DCB	"RT", 0x0
	DCW	0x1186
	DCW	0x1300
	DCD	0x50ba
	DCB	0x4
	DCB	"DL", 0x0
	DCW	0x100b
	DCW	0x20
	DCD	0xa0cc
	DCB	0x5
	DCB	"NG", 0x0
	DCW	0x10b7
	DCW	0x9050
	DCD	0x6008
	DCB	0x6
	DCB	"3C", 0x0
	DCW	0x10b7
	DCW	0x9200
	DCD	0x476
	DCB	0x6
	DCB	"3C", 0x0
	EXPORT	|??_C@_1DO@FGGICPPB@?$AA?9?$AAO?$AAA?$AAL?$AAI?$AAo?$AAC?$AAt?$AAl?$AAH?$AAa?$AAl?$AAI?$AAn?$AAi?$AAt?$AAR?$AAT?$AAC?$AA?$CI?$AAr?$AAc?$AA?5?$AA?$DN?$AA?5?$AA?$CF?$AAd?$AA?$CJ?$AA?$AN?$AA?6?$AA?$AA@| [ DATA ] ; `string'
	EXPORT	|OEMSetRealTime|
	EXPORT	|??_C@_1FO@ODJLIDFO@?$AAE?$AAR?$AAR?$AAO?$AAR?$AA?3?$AA?5?$AAO?$AAA?$AAL?$AAI?$AAo?$AAC?$AAt?$AAl?$AAH?$AAa?$AAl?$AAI?$AAn?$AAi?$AAt?$AAR?$AAT?$AAC?$AA?3?$AA?5?$AAI?$AAn?$AAv?$AAa?$AAl@| [ DATA ] ; `string'
	EXPORT	|??_C@_1DG@PECFOPGF@?$AA?$CL?$AAO?$AAA?$AAL?$AAI?$AAo?$AAC?$AAt?$AAl?$AAH?$AAa?$AAl?$AAI?$AAn?$AAi?$AAt?$AAR?$AAT?$AAC?$AA?$CI?$AA?4?$AA?4?$AA?4?$AA?$CJ?$AA?$AN?$AA?6?$AA?$AA@| [ DATA ] ; `string'
	EXPORT	|OALIoCtlHalInitRTC|
	IMPORT	|NKSetLastError|
	IMPORT	|NKDbgPrintfW|
	IMPORT	|dpCurSettings|

  00000			 AREA	 |.pdata|, PDATA
|$T43185| DCD	|$LN14@OALIoCtlHa|
	DCD	0x40005004
; File c:\wince600\platform\common\src\common\rtc\timer\rtc.c

  00000			 AREA	 |.rdata|, DATA, READONLY
|??_C@_1DO@FGGICPPB@?$AA?9?$AAO?$AAA?$AAL?$AAI?$AAo?$AAC?$AAt?$AAl?$AAH?$AAa?$AAl?$AAI?$AAn?$AAi?$AAt?$AAR?$AAT?$AAC?$AA?$CI?$AAr?$AAc?$AA?5?$AA?$DN?$AA?5?$AA?$CF?$AAd?$AA?$CJ?$AA?$AN?$AA?6?$AA?$AA@| DCB "-"
	DCB	0x0, "O", 0x0, "A", 0x0, "L", 0x0, "I", 0x0, "o", 0x0, "C"
	DCB	0x0, "t", 0x0, "l", 0x0, "H", 0x0, "a", 0x0, "l", 0x0, "I"
	DCB	0x0, "n", 0x0, "i", 0x0, "t", 0x0, "R", 0x0, "T", 0x0, "C"
	DCB	0x0, "(", 0x0, "r", 0x0, "c", 0x0, " ", 0x0, "=", 0x0, " "
	DCB	0x0, "%", 0x0, "d", 0x0, ")", 0x0, 0xd, 0x0, 0xa, 0x0, 0x0
	DCB	0x0					; `string'

  00000			 AREA	 |.rdata|, DATA, READONLY
|??_C@_1FO@ODJLIDFO@?$AAE?$AAR?$AAR?$AAO?$AAR?$AA?3?$AA?5?$AAO?$AAA?$AAL?$AAI?$AAo?$AAC?$AAt?$AAl?$AAH?$AAa?$AAl?$AAI?$AAn?$AAi?$AAt?$AAR?$AAT?$AAC?$AA?3?$AA?5?$AAI?$AAn?$AAv?$AAa?$AAl@| DCB "E"
	DCB	0x0, "R", 0x0, "R", 0x0, "O", 0x0, "R", 0x0, ":", 0x0, " "
	DCB	0x0, "O", 0x0, "A", 0x0, "L", 0x0, "I", 0x0, "o", 0x0, "C"
	DCB	0x0, "t", 0x0, "l", 0x0, "H", 0x0, "a", 0x0, "l", 0x0, "I"
	DCB	0x0, "n", 0x0, "i", 0x0, "t", 0x0, "R", 0x0, "T", 0x0, "C"
	DCB	0x0, ":", 0x0, " ", 0x0, "I", 0x0, "n", 0x0, "v", 0x0, "a"
	DCB	0x0, "l", 0x0, "i", 0x0, "d", 0x0, " ", 0x0, "p", 0x0, "a"
	DCB	0x0, "r", 0x0, "a", 0x0, "m", 0x0, "e", 0x0, "t", 0x0, "e"
	DCB	0x0, "r", 0x0, 0xd, 0x0, 0xa, 0x0, 0x0, 0x0 ; `string'

  00000			 AREA	 |.rdata|, DATA, READONLY
|??_C@_1DG@PECFOPGF@?$AA?$CL?$AAO?$AAA?$AAL?$AAI?$AAo?$AAC?$AAt?$AAl?$AAH?$AAa?$AAl?$AAI?$AAn?$AAi?$AAt?$AAR?$AAT?$AAC?$AA?$CI?$AA?4?$AA?4?$AA?4?$AA?$CJ?$AA?$AN?$AA?6?$AA?$AA@| DCB "+"
	DCB	0x0, "O", 0x0, "A", 0x0, "L", 0x0, "I", 0x0, "o", 0x0, "C"
	DCB	0x0, "t", 0x0, "l", 0x0, "H", 0x0, "a", 0x0, "l", 0x0, "I"
	DCB	0x0, "n", 0x0, "i", 0x0, "t", 0x0, "R", 0x0, "T", 0x0, "C"
	DCB	0x0, "(", 0x0, ".", 0x0, ".", 0x0, ".", 0x0, ")", 0x0, 0xd
	DCB	0x0, 0xa, 0x0, 0x0, 0x0			; `string'
; Function compile flags: /Odtp

  00000			 AREA	 |.text|, CODE, ARM

  00000		 |OALIoCtlHalInitRTC| PROC

; 63   : ) {

  00000		 |$LN14@OALIoCtlHa|
  00000	e1a0c00d	 mov         r12, sp
  00004	e92d000f	 stmdb       sp!, {r0 - r3}
  00008	e92d5000	 stmdb       sp!, {r12, lr}
  0000c	e24dd01c	 sub         sp, sp, #0x1C
  00010		 |$M43182|

; 64   :     BOOL rc = FALSE;

  00010	e3a03000	 mov         r3, #0
  00014	e58d3000	 str         r3, [sp]

; 65   :     SYSTEMTIME *pTime = (SYSTEMTIME*)pInpBuffer;

  00018	e59d3028	 ldr         r3, [sp, #0x28]
  0001c	e58d3004	 str         r3, [sp, #4]

; 66   : 
; 67   :     OALMSG(OAL_IOCTL&&OAL_FUNC, (L"+OALIoCtlHalInitRTC(...)\r\n"));

  00020	e59f310c	 ldr         r3, [pc, #0x10C]
  00024	e5933440	 ldr         r3, [r3, #0x440]
  00028	e3130a01	 tst         r3, #1, 20
  0002c	0a000008	 beq         |$LN6@OALIoCtlHa|
  00030	e59f30fc	 ldr         r3, [pc, #0xFC]
  00034	e5933440	 ldr         r3, [r3, #0x440]
  00038	e3130004	 tst         r3, #4
  0003c	0a000004	 beq         |$LN6@OALIoCtlHa|
  00040	e59f00f4	 ldr         r0, [pc, #0xF4]
  00044	eb000000	 bl          NKDbgPrintfW
  00048	e3a03001	 mov         r3, #1
  0004c	e58d300c	 str         r3, [sp, #0xC]
  00050	ea000001	 b           |$LN7@OALIoCtlHa|
  00054		 |$LN6@OALIoCtlHa|
  00054	e3a03000	 mov         r3, #0
  00058	e58d300c	 str         r3, [sp, #0xC]
  0005c		 |$LN7@OALIoCtlHa|

; 68   : 
; 69   :     if (pOutSize) {

  0005c	e59d3038	 ldr         r3, [sp, #0x38]
  00060	e3530000	 cmp         r3, #0
  00064	0a000002	 beq         |$LN3@OALIoCtlHa|

; 70   :         *pOutSize = 0;

  00068	e59d2038	 ldr         r2, [sp, #0x38]
  0006c	e3a03000	 mov         r3, #0
  00070	e5823000	 str         r3, [r2]
  00074		 |$LN3@OALIoCtlHa|

; 71   :     }
; 72   : 
; 73   :     // Validate inputs
; 74   :     if (pInpBuffer == NULL || inpSize < sizeof(SYSTEMTIME)) {

  00074	e59d3028	 ldr         r3, [sp, #0x28]
  00078	e3530000	 cmp         r3, #0
  0007c	0a000002	 beq         |$LN1@OALIoCtlHa|
  00080	e59d302c	 ldr         r3, [sp, #0x2C]
  00084	e3530010	 cmp         r3, #0x10
  00088	2a00000d	 bcs         |$LN2@OALIoCtlHa|
  0008c		 |$LN1@OALIoCtlHa|

; 75   :         NKSetLastError(ERROR_INVALID_PARAMETER);

  0008c	e3a00057	 mov         r0, #0x57
  00090	eb000000	 bl          NKSetLastError

; 76   :         OALMSG(OAL_ERROR, (
; 77   :             L"ERROR: OALIoCtlHalInitRTC: Invalid parameter\r\n"
; 78   :         ));

  00094	e59f3098	 ldr         r3, [pc, #0x98]
  00098	e5933440	 ldr         r3, [r3, #0x440]
  0009c	e3130001	 tst         r3, #1
  000a0	0a000004	 beq         |$LN8@OALIoCtlHa|
  000a4	e59f008c	 ldr         r0, [pc, #0x8C]
  000a8	eb000000	 bl          NKDbgPrintfW
  000ac	e3a03001	 mov         r3, #1
  000b0	e58d3010	 str         r3, [sp, #0x10]
  000b4	ea000001	 b           |$LN9@OALIoCtlHa|
  000b8		 |$LN8@OALIoCtlHa|
  000b8	e3a03000	 mov         r3, #0
  000bc	e58d3010	 str         r3, [sp, #0x10]
  000c0		 |$LN9@OALIoCtlHa|

; 79   :         goto cleanUp;

  000c0	ea000004	 b           |$cleanUp$43108|
  000c4		 |$LN2@OALIoCtlHa|

; 80   :     }
; 81   : 
; 82   :     rc = OEMSetRealTime(pTime);

  000c4	e59d0004	 ldr         r0, [sp, #4]
  000c8	eb000000	 bl          OEMSetRealTime
  000cc	e58d0014	 str         r0, [sp, #0x14]
  000d0	e59d3014	 ldr         r3, [sp, #0x14]
  000d4	e58d3000	 str         r3, [sp]
  000d8		 |$cleanUp$43108|

; 83   :     
; 84   : cleanUp:
; 85   :     OALMSG(OAL_IOCTL&&OAL_FUNC, (L"-OALIoCtlHalInitRTC(rc = %d)\r\n", rc));

  000d8	e59f3054	 ldr         r3, [pc, #0x54]
  000dc	e5933440	 ldr         r3, [r3, #0x440]
  000e0	e3130a01	 tst         r3, #1, 20
  000e4	0a000009	 beq         |$LN10@OALIoCtlHa|
  000e8	e59f3044	 ldr         r3, [pc, #0x44]
  000ec	e5933440	 ldr         r3, [r3, #0x440]
  000f0	e3130004	 tst         r3, #4
  000f4	0a000005	 beq         |$LN10@OALIoCtlHa|
  000f8	e59d1000	 ldr         r1, [sp]
  000fc	e59f002c	 ldr         r0, [pc, #0x2C]
  00100	eb000000	 bl          NKDbgPrintfW
  00104	e3a03001	 mov         r3, #1
  00108	e58d3018	 str         r3, [sp, #0x18]
  0010c	ea000001	 b           |$LN11@OALIoCtlHa|
  00110		 |$LN10@OALIoCtlHa|
  00110	e3a03000	 mov         r3, #0
  00114	e58d3018	 str         r3, [sp, #0x18]
  00118		 |$LN11@OALIoCtlHa|

; 86   :     return rc;

  00118	e59d3000	 ldr         r3, [sp]
  0011c	e58d3008	 str         r3, [sp, #8]

; 87   : }

  00120	e59d0008	 ldr         r0, [sp, #8]
  00124	e28dd01c	 add         sp, sp, #0x1C
  00128	e89d6000	 ldmia       sp, {sp, lr}
  0012c	e12fff1e	 bx          lr
  00130		 |$LN15@OALIoCtlHa|
  00130		 |$LN16@OALIoCtlHa|
  00130	00000000	 DCD         |??_C@_1DO@FGGICPPB@?$AA?9?$AAO?$AAA?$AAL?$AAI?$AAo?$AAC?$AAt?$AAl?$AAH?$AAa?$AAl?$AAI?$AAn?$AAi?$AAt?$AAR?$AAT?$AAC?$AA?$CI?$AAr?$AAc?$AA?5?$AA?$DN?$AA?5?$AA?$CF?$AAd?$AA?$CJ?$AA?$AN?$AA?6?$AA?$AA@|
  00134		 |$LN17@OALIoCtlHa|
  00134	00000000	 DCD         |dpCurSettings|
  00138		 |$LN18@OALIoCtlHa|
  00138	00000000	 DCD         |??_C@_1FO@ODJLIDFO@?$AAE?$AAR?$AAR?$AAO?$AAR?$AA?3?$AA?5?$AAO?$AAA?$AAL?$AAI?$AAo?$AAC?$AAt?$AAl?$AAH?$AAa?$AAl?$AAI?$AAn?$AAi?$AAt?$AAR?$AAT?$AAC?$AA?3?$AA?5?$AAI?$AAn?$AAv?$AAa?$AAl@|
  0013c		 |$LN19@OALIoCtlHa|
  0013c	00000000	 DCD         |??_C@_1DG@PECFOPGF@?$AA?$CL?$AAO?$AAA?$AAL?$AAI?$AAo?$AAC?$AAt?$AAl?$AAH?$AAa?$AAl?$AAI?$AAn?$AAi?$AAt?$AAR?$AAT?$AAC?$AA?$CI?$AA?4?$AA?4?$AA?4?$AA?$CJ?$AA?$AN?$AA?6?$AA?$AA@|
  00140		 |$M43183|

			 ENDP  ; |OALIoCtlHalInitRTC|

	EXPORT	|??_C@_1GE@HKLPDJGK@?$AA?9?$AAO?$AAE?$AAM?$AAG?$AAe?$AAt?$AAR?$AAe?$AAa?$AAl?$AAT?$AAi?$AAm?$AAe?$AA?$CI?$AAr?$AAc?$AA?5?$AA?$DN?$AA?5?$AA?$CF?$AAd?$AA?5?$AA?$CF?$AAd?$AA?1?$AA?$CF?$AAd?$AA?1?$AA?$CF?$AAd@| [ DATA ] ; `string'
	EXPORT	|??_C@_1CE@MMIOOJN@?$AA?$CL?$AAO?$AAE?$AAM?$AAG?$AAe?$AAt?$AAR?$AAe?$AAa?$AAl?$AAT?$AAi?$AAm?$AAe?$AA?$AN?$AA?6?$AA?$AA@| [ DATA ] ; `string'
	EXPORT	|OEMGetRealTime|
	IMPORT	|NKFileTimeToSystemTime|
	IMPORT	|g_oalTimer|
	IMPORT	|OALTimerCountsSinceSysTick|
	IMPORT	|INTERRUPTS_ENABLE|
	IMPORT	|__rt_udiv|

  00008			 AREA	 |.pdata|, PDATA
|$T43206| DCD	|$LN12@OEMGetReal|
	DCD	0x40008904

  00000			 AREA	 |.rdata|, DATA, READONLY
|??_C@_1GE@HKLPDJGK@?$AA?9?$AAO?$AAE?$AAM?$AAG?$AAe?$AAt?$AAR?$AAe?$AAa?$AAl?$AAT?$AAi?$AAm?$AAe?$AA?$CI?$AAr?$AAc?$AA?5?$AA?$DN?$AA?5?$AA?$CF?$AAd?$AA?5?$AA?$CF?$AAd?$AA?1?$AA?$CF?$AAd?$AA?1?$AA?$CF?$AAd@| DCB "-"
	DCB	0x0, "O", 0x0, "E", 0x0, "M", 0x0, "G", 0x0, "e", 0x0, "t"
	DCB	0x0, "R", 0x0, "e", 0x0, "a", 0x0, "l", 0x0, "T", 0x0, "i"
	DCB	0x0, "m", 0x0, "e", 0x0, "(", 0x0, "r", 0x0, "c", 0x0, " "
	DCB	0x0, "=", 0x0, " ", 0x0, "%", 0x0, "d", 0x0, " ", 0x0, "%"
	DCB	0x0, "d", 0x0, "/", 0x0, "%", 0x0, "d", 0x0, "/", 0x0, "%"
	DCB	0x0, "d", 0x0, " ", 0x0, "%", 0x0, "d", 0x0, ":", 0x0, "%"
	DCB	0x0, "d", 0x0, ":", 0x0, "%", 0x0, "d", 0x0, ".", 0x0, "%"
	DCB	0x0, "0", 0x0, "3", 0x0, "d", 0x0, ")", 0x0, 0xd, 0x0, 0xa
	DCB	0x0, 0x0, 0x0				; `string'

  00000			 AREA	 |.rdata|, DATA, READONLY
|??_C@_1CE@MMIOOJN@?$AA?$CL?$AAO?$AAE?$AAM?$AAG?$AAe?$AAt?$AAR?$AAe?$AAa?$AAl?$AAT?$AAi?$AAm?$AAe?$AA?$AN?$AA?6?$AA?$AA@| DCB "+"
	DCB	0x0, "O", 0x0, "E", 0x0, "M", 0x0, "G", 0x0, "e", 0x0, "t"
	DCB	0x0, "R", 0x0, "e", 0x0, "a", 0x0, "l", 0x0, "T", 0x0, "i"
	DCB	0x0, "m", 0x0, "e", 0x0, 0xd, 0x0, 0xa, 0x0, 0x0, 0x0 ; `string'
; Function compile flags: /Odtp

  00140			 AREA	 |.text|, CODE, ARM

  00140		 |OEMGetRealTime| PROC

; 97   : {

  00140		 |$LN12@OEMGetReal|
  00140	e1a0c00d	 mov         r12, sp
  00144	e92d0001	 stmdb       sp!, {r0}
  00148	e92d5000	 stmdb       sp!, {r12, lr}
  0014c	e24dd068	 sub         sp, sp, #0x68
  00150		 |$M43203|

; 98   :     BOOL rc = FALSE;

  00150	e3a03000	 mov         r3, #0
  00154	e58d301c	 str         r3, [sp, #0x1C]

; 99   :     ULARGE_INTEGER time;
; 100  :     FILETIME fileTime;
; 101  :     UINT64 ticks;
; 102  :     BOOL enabled;
; 103  :     INT32 tickCorrection;
; 104  : 
; 105  :     OALMSG(OAL_RTC&&OAL_FUNC, (L"+OEMGetRealTime\r\n"));

  00158	e59f31f4	 ldr         r3, [pc, #0x1F4]
  0015c	e5933440	 ldr         r3, [r3, #0x440]
  00160	e3130040	 tst         r3, #0x40
  00164	0a000008	 beq         |$LN6@OEMGetReal|
  00168	e59f31e4	 ldr         r3, [pc, #0x1E4]
  0016c	e5933440	 ldr         r3, [r3, #0x440]
  00170	e3130004	 tst         r3, #4
  00174	0a000004	 beq         |$LN6@OEMGetReal|
  00178	e59f01e0	 ldr         r0, [pc, #0x1E0]
  0017c	eb000000	 bl          NKDbgPrintfW
  00180	e3a03001	 mov         r3, #1
  00184	e58d3050	 str         r3, [sp, #0x50]
  00188	ea000001	 b           |$LN7@OEMGetReal|
  0018c		 |$LN6@OEMGetReal|
  0018c	e3a03000	 mov         r3, #0
  00190	e58d3050	 str         r3, [sp, #0x50]
  00194		 |$LN7@OEMGetReal|

; 106  : 
; 107  :     if(!pTime) goto cleanUp;

  00194	e59d3070	 ldr         r3, [sp, #0x70]
  00198	e3530000	 cmp         r3, #0
  0019c	1a000000	 bne         |$LN3@OEMGetReal|
  001a0	ea000064	 b           |$cleanUp$43123|
  001a4		 |$LN3@OEMGetReal|

; 108  : 
; 109  :     enabled = INTERRUPTS_ENABLE(FALSE);

  001a4	e3a00000	 mov         r0, #0
  001a8	eb000000	 bl          INTERRUPTS_ENABLE
  001ac	e58d0054	 str         r0, [sp, #0x54]
  001b0	e59d3054	 ldr         r3, [sp, #0x54]
  001b4	e58d3034	 str         r3, [sp, #0x34]

; 110  :     ticks = *g_pOALRTCTicks;

  001b8	e59f319c	 ldr         r3, [pc, #0x19C]
  001bc	e5933000	 ldr         r3, [r3]
  001c0	e5933000	 ldr         r3, [r3]
  001c4	e58d3020	 str         r3, [sp, #0x20]
  001c8	e59f318c	 ldr         r3, [pc, #0x18C]
  001cc	e5933000	 ldr         r3, [r3]
  001d0	e5933004	 ldr         r3, [r3, #4]
  001d4	e58d3024	 str         r3, [sp, #0x24]

; 111  :     tickCorrection = OALTimerCountsSinceSysTick();

  001d8	eb000000	 bl          OALTimerCountsSinceSysTick
  001dc	e58d0058	 str         r0, [sp, #0x58]
  001e0	e59d3058	 ldr         r3, [sp, #0x58]
  001e4	e58d3030	 str         r3, [sp, #0x30]

; 112  :     INTERRUPTS_ENABLE(enabled);

  001e8	e59d0034	 ldr         r0, [sp, #0x34]
  001ec	eb000000	 bl          INTERRUPTS_ENABLE

; 113  : 
; 114  :     // With variable tick timing, the RTC tick value might not be incremented
; 115  :     // on a "normal" tick interval.  This means that the RTC may jump forward
; 116  :     // in time depending on the tick variation.  To smooth this out, we need
; 117  :     // to sample the timer to see how far we've made it past the last match
; 118  :     // event, then convert that into milliseconds and adjust the derived value.
; 119  :     //
; 120  :     if (tickCorrection >= (INT32)g_oalTimer.countsPerMSec)

  001f0	e59d2030	 ldr         r2, [sp, #0x30]
  001f4	e59f315c	 ldr         r3, [pc, #0x15C]
  001f8	e5933000	 ldr         r3, [r3]
  001fc	e1520003	 cmp         r2, r3
  00200	ba000009	 blt         |$LN2@OEMGetReal|

; 121  :     {
; 122  :         ticks += (tickCorrection / g_oalTimer.countsPerMSec);

  00204	e59d1030	 ldr         r1, [sp, #0x30]
  00208	e59f3148	 ldr         r3, [pc, #0x148]
  0020c	e5930000	 ldr         r0, [r3]
  00210	eb000000	 bl          __rt_udiv
  00214	e59d2020	 ldr         r2, [sp, #0x20]
  00218	e59d3024	 ldr         r3, [sp, #0x24]
  0021c	e0922000	 adds        r2, r2, r0
  00220	e2a33000	 adc         r3, r3, #0
  00224	e58d2020	 str         r2, [sp, #0x20]
  00228	e58d3024	 str         r3, [sp, #0x24]
  0022c		 |$LN2@OEMGetReal|

; 123  :     }
; 124  : 
; 125  :     // Convert time to appropriate format
; 126  :     time.QuadPart = ticks * 10000;

  0022c	e59d3020	 ldr         r3, [sp, #0x20]
  00230	e59d2024	 ldr         r2, [sp, #0x24]
  00234	e58d305c	 str         r3, [sp, #0x5C]
  00238	e3a03c27	 mov         r3, #0x27, 24
  0023c	e3833010	 orr         r3, r3, #0x10
  00240	e0000392	 mul         r0, r2, r3
  00244	e59d105c	 ldr         r1, [sp, #0x5C]
  00248	e3a03c27	 mov         r3, #0x27, 24
  0024c	e3833010	 orr         r3, r3, #0x10
  00250	e0832391	 umull       r2, r3, r1, r3
  00254	e0803003	 add         r3, r0, r3
  00258	e58d2028	 str         r2, [sp, #0x28]
  0025c	e58d302c	 str         r3, [sp, #0x2C]

; 127  :     fileTime.dwLowDateTime = time.LowPart;

  00260	e59d3028	 ldr         r3, [sp, #0x28]
  00264	e58d3014	 str         r3, [sp, #0x14]

; 128  :     fileTime.dwHighDateTime = time.HighPart;

  00268	e59d302c	 ldr         r3, [sp, #0x2C]
  0026c	e58d3018	 str         r3, [sp, #0x18]

; 129  : 
; 130  :     if((rc = NKFileTimeToSystemTime(&fileTime, pTime)))

  00270	e59d1070	 ldr         r1, [sp, #0x70]
  00274	e28d0014	 add         r0, sp, #0x14
  00278	eb000000	 bl          NKFileTimeToSystemTime
  0027c	e58d0060	 str         r0, [sp, #0x60]
  00280	e59d3060	 ldr         r3, [sp, #0x60]
  00284	e58d301c	 str         r3, [sp, #0x1C]
  00288	e59d301c	 ldr         r3, [sp, #0x1C]
  0028c	e3530000	 cmp         r3, #0
  00290	0a000028	 beq         |$LN1@OEMGetReal|

; 131  :     {
; 132  :         OALMSG(OAL_RTC&&OAL_FUNC, (
; 133  :             L"-OEMGetRealTime(rc = %d %d/%d/%d %d:%d:%d.%03d)\r\n", rc, 
; 134  :             pTime->wYear, pTime->wMonth, pTime->wDay, pTime->wHour, pTime->wMinute,
; 135  :             pTime->wSecond, pTime->wMilliseconds
; 136  :         ));

  00294	e59f30b8	 ldr         r3, [pc, #0xB8]
  00298	e5933440	 ldr         r3, [r3, #0x440]
  0029c	e3130040	 tst         r3, #0x40
  002a0	0a000022	 beq         |$LN8@OEMGetReal|
  002a4	e59f30a8	 ldr         r3, [pc, #0xA8]
  002a8	e5933440	 ldr         r3, [r3, #0x440]
  002ac	e3130004	 tst         r3, #4
  002b0	0a00001e	 beq         |$LN8@OEMGetReal|
  002b4	e59d3070	 ldr         r3, [sp, #0x70]
  002b8	e283300e	 add         r3, r3, #0xE
  002bc	e1d330b0	 ldrh        r3, [r3]
  002c0	e58d3010	 str         r3, [sp, #0x10]
  002c4	e59d3070	 ldr         r3, [sp, #0x70]
  002c8	e283300c	 add         r3, r3, #0xC
  002cc	e1d330b0	 ldrh        r3, [r3]
  002d0	e58d300c	 str         r3, [sp, #0xC]
  002d4	e59d3070	 ldr         r3, [sp, #0x70]
  002d8	e283300a	 add         r3, r3, #0xA
  002dc	e1d330b0	 ldrh        r3, [r3]
  002e0	e58d3008	 str         r3, [sp, #8]
  002e4	e59d3070	 ldr         r3, [sp, #0x70]
  002e8	e2833008	 add         r3, r3, #8
  002ec	e1d330b0	 ldrh        r3, [r3]
  002f0	e58d3004	 str         r3, [sp, #4]
  002f4	e59d3070	 ldr         r3, [sp, #0x70]
  002f8	e2833006	 add         r3, r3, #6
  002fc	e1d330b0	 ldrh        r3, [r3]
  00300	e58d3000	 str         r3, [sp]
  00304	e59d3070	 ldr         r3, [sp, #0x70]
  00308	e2833002	 add         r3, r3, #2
  0030c	e1d330b0	 ldrh        r3, [r3]
  00310	e59d2070	 ldr         r2, [sp, #0x70]
  00314	e1d220b0	 ldrh        r2, [r2]
  00318	e59d101c	 ldr         r1, [sp, #0x1C]
  0031c	e59f002c	 ldr         r0, [pc, #0x2C]
  00320	eb000000	 bl          NKDbgPrintfW
  00324	e3a03001	 mov         r3, #1
  00328	e58d3064	 str         r3, [sp, #0x64]
  0032c	ea000001	 b           |$LN9@OEMGetReal|
  00330		 |$LN8@OEMGetReal|
  00330	e3a03000	 mov         r3, #0
  00334	e58d3064	 str         r3, [sp, #0x64]
  00338		 |$LN9@OEMGetReal|
  00338		 |$LN1@OEMGetReal|
  00338		 |$cleanUp$43123|

; 137  :     }
; 138  : 
; 139  : 
; 140  : cleanUp:
; 141  :     return rc;

  00338	e59d301c	 ldr         r3, [sp, #0x1C]
  0033c	e58d304c	 str         r3, [sp, #0x4C]

; 142  : }

  00340	e59d004c	 ldr         r0, [sp, #0x4C]
  00344	e28dd068	 add         sp, sp, #0x68
  00348	e89d6000	 ldmia       sp, {sp, lr}
  0034c	e12fff1e	 bx          lr
  00350		 |$LN13@OEMGetReal|
  00350		 |$LN14@OEMGetReal|
  00350	00000000	 DCD         |??_C@_1GE@HKLPDJGK@?$AA?9?$AAO?$AAE?$AAM?$AAG?$AAe?$AAt?$AAR?$AAe?$AAa?$AAl?$AAT?$AAi?$AAm?$AAe?$AA?$CI?$AAr?$AAc?$AA?5?$AA?$DN?$AA?5?$AA?$CF?$AAd?$AA?5?$AA?$CF?$AAd?$AA?1?$AA?$CF?$AAd?$AA?1?$AA?$CF?$AAd@|
  00354		 |$LN15@OEMGetReal|
  00354	00000000	 DCD         |dpCurSettings|
  00358		 |$LN16@OEMGetReal|
  00358	00000000	 DCD         |g_oalTimer|
  0035c		 |$LN17@OEMGetReal|
  0035c	00000000	 DCD         |g_pOALRTCTicks|
  00360		 |$LN18@OEMGetReal|
  00360	00000000	 DCD         |??_C@_1CE@MMIOOJN@?$AA?$CL?$AAO?$AAE?$AAM?$AAG?$AAe?$AAt?$AAR?$AAe?$AAa?$AAl?$AAT?$AAi?$AAm?$AAe?$AA?$AN?$AA?6?$AA?$AA@|
  00364		 |$M43204|

			 ENDP  ; |OEMGetRealTime|

	EXPORT	|??_C@_1DG@MOFFCBMN@?$AA?9?$AAO?$AAE?$AAM?$AAS?$AAe?$AAt?$AAR?$AAe?$AAa?$AAl?$AAT?$AAi?$AAm?$AAe?$AA?$CI?$AAr?$AAc?$AA?5?$AA?$DN?$AA?5?$AA?$CF?$AAd?$AA?$CJ?$AA?$AN?$AA?6?$AA?$AA@| [ DATA ] ; `string'
	EXPORT	|??_C@_1FE@NLGIDKMA@?$AA?$CL?$AAO?$AAE?$AAM?$AAS?$AAe?$AAt?$AAR?$AAe?$AAa?$AAl?$AAT?$AAi?$AAm?$AAe?$AA?$CI?$AA?$CF?$AAd?$AA?1?$AA?$CF?$AAd?$AA?1?$AA?$CF?$AAd?$AA?5?$AA?$CF?$AAd?$AA?3?$AA?$CF?$AAd?$AA?3?$AA?$CF@| [ DATA ] ; `string'
	IMPORT	|NKSystemTimeToFileTime|
	IMPORT	|__rt_udiv64by64|

  00010			 AREA	 |.pdata|, PDATA
|$T43227| DCD	|$LN11@OEMSetReal|
	DCD	0x40006f04

  00000			 AREA	 |.rdata|, DATA, READONLY
|??_C@_1DG@MOFFCBMN@?$AA?9?$AAO?$AAE?$AAM?$AAS?$AAe?$AAt?$AAR?$AAe?$AAa?$AAl?$AAT?$AAi?$AAm?$AAe?$AA?$CI?$AAr?$AAc?$AA?5?$AA?$DN?$AA?5?$AA?$CF?$AAd?$AA?$CJ?$AA?$AN?$AA?6?$AA?$AA@| DCB "-"
	DCB	0x0, "O", 0x0, "E", 0x0, "M", 0x0, "S", 0x0, "e", 0x0, "t"
	DCB	0x0, "R", 0x0, "e", 0x0, "a", 0x0, "l", 0x0, "T", 0x0, "i"
	DCB	0x0, "m", 0x0, "e", 0x0, "(", 0x0, "r", 0x0, "c", 0x0, " "
	DCB	0x0, "=", 0x0, " ", 0x0, "%", 0x0, "d", 0x0, ")", 0x0, 0xd
	DCB	0x0, 0xa, 0x0, 0x0, 0x0			; `string'

  00000			 AREA	 |.rdata|, DATA, READONLY
|??_C@_1FE@NLGIDKMA@?$AA?$CL?$AAO?$AAE?$AAM?$AAS?$AAe?$AAt?$AAR?$AAe?$AAa?$AAl?$AAT?$AAi?$AAm?$AAe?$AA?$CI?$AA?$CF?$AAd?$AA?1?$AA?$CF?$AAd?$AA?1?$AA?$CF?$AAd?$AA?5?$AA?$CF?$AAd?$AA?3?$AA?$CF?$AAd?$AA?3?$AA?$CF@| DCB "+"
	DCB	0x0, "O", 0x0, "E", 0x0, "M", 0x0, "S", 0x0, "e", 0x0, "t"
	DCB	0x0, "R", 0x0, "e", 0x0, "a", 0x0, "l", 0x0, "T", 0x0, "i"
	DCB	0x0, "m", 0x0, "e", 0x0, "(", 0x0, "%", 0x0, "d", 0x0, "/"
	DCB	0x0, "%", 0x0, "d", 0x0, "/", 0x0, "%", 0x0, "d", 0x0, " "
	DCB	0x0, "%", 0x0, "d", 0x0, ":", 0x0, "%", 0x0, "d", 0x0, ":"
	DCB	0x0, "%", 0x0, "d", 0x0, ".", 0x0, "%", 0x0, "0", 0x0, "3"
	DCB	0x0, "d", 0x0, ")", 0x0, 0xd, 0x0, 0xa, 0x0, 0x0, 0x0 ; `string'
; Function compile flags: /Odtp

  00364			 AREA	 |.text|, CODE, ARM

  00364		 |OEMSetRealTime| PROC

; 151  : {

  00364		 |$LN11@OEMSetReal|
  00364	e1a0c00d	 mov         r12, sp
  00368	e92d0001	 stmdb       sp!, {r0}
  0036c	e92d5000	 stmdb       sp!, {r12, lr}
  00370	e24dd04c	 sub         sp, sp, #0x4C
  00374		 |$M43224|

; 152  :     BOOL rc = FALSE;

  00374	e3a03000	 mov         r3, #0
  00378	e58d3018	 str         r3, [sp, #0x18]

; 153  :     ULARGE_INTEGER time;
; 154  :     FILETIME fileTime;
; 155  :     BOOL enabled;
; 156  : 
; 157  :     if(!pTime) goto cleanUp;

  0037c	e59d3054	 ldr         r3, [sp, #0x54]
  00380	e3530000	 cmp         r3, #0
  00384	1a000000	 bne         |$LN2@OEMSetReal|
  00388	ea00004a	 b           |$cleanUp$43137|
  0038c		 |$LN2@OEMSetReal|

; 158  : 
; 159  :     OALMSG(OAL_RTC&&OAL_FUNC, (
; 160  :         L"+OEMSetRealTime(%d/%d/%d %d:%d:%d.%03d)\r\n", 
; 161  :         pTime->wYear, pTime->wMonth, pTime->wDay, pTime->wHour, pTime->wMinute,
; 162  :         pTime->wSecond, pTime->wMilliseconds
; 163  :     ));

  0038c	e59f3180	 ldr         r3, [pc, #0x180]
  00390	e5933440	 ldr         r3, [r3, #0x440]
  00394	e3130040	 tst         r3, #0x40
  00398	0a000020	 beq         |$LN5@OEMSetReal|
  0039c	e59f3170	 ldr         r3, [pc, #0x170]
  003a0	e5933440	 ldr         r3, [r3, #0x440]
  003a4	e3130004	 tst         r3, #4
  003a8	0a00001c	 beq         |$LN5@OEMSetReal|
  003ac	e59d3054	 ldr         r3, [sp, #0x54]
  003b0	e283300e	 add         r3, r3, #0xE
  003b4	e1d330b0	 ldrh        r3, [r3]
  003b8	e58d300c	 str         r3, [sp, #0xC]
  003bc	e59d3054	 ldr         r3, [sp, #0x54]
  003c0	e283300c	 add         r3, r3, #0xC
  003c4	e1d330b0	 ldrh        r3, [r3]
  003c8	e58d3008	 str         r3, [sp, #8]
  003cc	e59d3054	 ldr         r3, [sp, #0x54]
  003d0	e283300a	 add         r3, r3, #0xA
  003d4	e1d330b0	 ldrh        r3, [r3]
  003d8	e58d3004	 str         r3, [sp, #4]
  003dc	e59d3054	 ldr         r3, [sp, #0x54]
  003e0	e2833008	 add         r3, r3, #8
  003e4	e1d330b0	 ldrh        r3, [r3]
  003e8	e58d3000	 str         r3, [sp]
  003ec	e59d3054	 ldr         r3, [sp, #0x54]
  003f0	e2833006	 add         r3, r3, #6
  003f4	e1d330b0	 ldrh        r3, [r3]
  003f8	e59d2054	 ldr         r2, [sp, #0x54]
  003fc	e2822002	 add         r2, r2, #2
  00400	e1d220b0	 ldrh        r2, [r2]
  00404	e59d1054	 ldr         r1, [sp, #0x54]
  00408	e1d110b0	 ldrh        r1, [r1]
  0040c	e59f0108	 ldr         r0, [pc, #0x108]
  00410	eb000000	 bl          NKDbgPrintfW
  00414	e3a03001	 mov         r3, #1
  00418	e58d303c	 str         r3, [sp, #0x3C]
  0041c	ea000001	 b           |$LN6@OEMSetReal|
  00420		 |$LN5@OEMSetReal|
  00420	e3a03000	 mov         r3, #0
  00424	e58d303c	 str         r3, [sp, #0x3C]
  00428		 |$LN6@OEMSetReal|

; 164  :     
; 165  :     if((rc = NKSystemTimeToFileTime(pTime, &fileTime)))

  00428	e28d1010	 add         r1, sp, #0x10
  0042c	e59d0054	 ldr         r0, [sp, #0x54]
  00430	eb000000	 bl          NKSystemTimeToFileTime
  00434	e58d0040	 str         r0, [sp, #0x40]
  00438	e59d3040	 ldr         r3, [sp, #0x40]
  0043c	e58d3018	 str         r3, [sp, #0x18]
  00440	e59d3018	 ldr         r3, [sp, #0x18]
  00444	e3530000	 cmp         r3, #0
  00448	0a00001a	 beq         |$LN1@OEMSetReal|

; 166  :     {
; 167  :         // Convert time to miliseconds since Jan 1, 1601
; 168  :         time.LowPart = fileTime.dwLowDateTime;

  0044c	e59d3010	 ldr         r3, [sp, #0x10]
  00450	e58d301c	 str         r3, [sp, #0x1C]

; 169  :         time.HighPart = fileTime.dwHighDateTime;

  00454	e59d3014	 ldr         r3, [sp, #0x14]
  00458	e58d3020	 str         r3, [sp, #0x20]

; 170  :         time.QuadPart /= 10000;

  0045c	e59d001c	 ldr         r0, [sp, #0x1C]
  00460	e59d1020	 ldr         r1, [sp, #0x20]
  00464	e3a02c27	 mov         r2, #0x27, 24
  00468	e3822010	 orr         r2, r2, #0x10
  0046c	e3a03000	 mov         r3, #0
  00470	eb000000	 bl          __rt_udiv64by64
  00474	e58d001c	 str         r0, [sp, #0x1C]
  00478	e58d1020	 str         r1, [sp, #0x20]

; 171  : 
; 172  :         enabled = INTERRUPTS_ENABLE(FALSE);

  0047c	e3a00000	 mov         r0, #0
  00480	eb000000	 bl          INTERRUPTS_ENABLE
  00484	e58d0044	 str         r0, [sp, #0x44]
  00488	e59d3044	 ldr         r3, [sp, #0x44]
  0048c	e58d3024	 str         r3, [sp, #0x24]

; 173  :         *g_pOALRTCTicks = time.QuadPart;

  00490	e59d201c	 ldr         r2, [sp, #0x1C]
  00494	e59f307c	 ldr         r3, [pc, #0x7C]
  00498	e5933000	 ldr         r3, [r3]
  0049c	e5832000	 str         r2, [r3]
  004a0	e59d2020	 ldr         r2, [sp, #0x20]
  004a4	e59f306c	 ldr         r3, [pc, #0x6C]
  004a8	e5933000	 ldr         r3, [r3]
  004ac	e5832004	 str         r2, [r3, #4]

; 174  :         INTERRUPTS_ENABLE(enabled);

  004b0	e59d0024	 ldr         r0, [sp, #0x24]
  004b4	eb000000	 bl          INTERRUPTS_ENABLE
  004b8		 |$LN1@OEMSetReal|
  004b8		 |$cleanUp$43137|

; 175  :     }
; 176  :     
; 177  : cleanUp:
; 178  :     OALMSG(OAL_RTC&&OAL_FUNC, (L"-OEMSetRealTime(rc = %d)\r\n", rc));

  004b8	e59f3054	 ldr         r3, [pc, #0x54]
  004bc	e5933440	 ldr         r3, [r3, #0x440]
  004c0	e3130040	 tst         r3, #0x40
  004c4	0a000009	 beq         |$LN7@OEMSetReal|
  004c8	e59f3044	 ldr         r3, [pc, #0x44]
  004cc	e5933440	 ldr         r3, [r3, #0x440]
  004d0	e3130004	 tst         r3, #4
  004d4	0a000005	 beq         |$LN7@OEMSetReal|
  004d8	e59d1018	 ldr         r1, [sp, #0x18]
  004dc	e59f002c	 ldr         r0, [pc, #0x2C]
  004e0	eb000000	 bl          NKDbgPrintfW
  004e4	e3a03001	 mov         r3, #1
  004e8	e58d3048	 str         r3, [sp, #0x48]
  004ec	ea000001	 b           |$LN8@OEMSetReal|
  004f0		 |$LN7@OEMSetReal|
  004f0	e3a03000	 mov         r3, #0
  004f4	e58d3048	 str         r3, [sp, #0x48]
  004f8		 |$LN8@OEMSetReal|

; 179  :     return rc;

  004f8	e59d3018	 ldr         r3, [sp, #0x18]
  004fc	e58d3038	 str         r3, [sp, #0x38]

; 180  : }

  00500	e59d0038	 ldr         r0, [sp, #0x38]
  00504	e28dd04c	 add         sp, sp, #0x4C
  00508	e89d6000	 ldmia       sp, {sp, lr}
  0050c	e12fff1e	 bx          lr
  00510		 |$LN12@OEMSetReal|
  00510		 |$LN13@OEMSetReal|
  00510	00000000	 DCD         |??_C@_1DG@MOFFCBMN@?$AA?9?$AAO?$AAE?$AAM?$AAS?$AAe?$AAt?$AAR?$AAe?$AAa?$AAl?$AAT?$AAi?$AAm?$AAe?$AA?$CI?$AAr?$AAc?$AA?5?$AA?$DN?$AA?5?$AA?$CF?$AAd?$AA?$CJ?$AA?$AN?$AA?6?$AA?$AA@|
  00514		 |$LN14@OEMSetReal|
  00514	00000000	 DCD         |dpCurSettings|
  00518		 |$LN15@OEMSetReal|
  00518	00000000	 DCD         |g_pOALRTCTicks|
  0051c		 |$LN16@OEMSetReal|
  0051c	00000000	 DCD         |??_C@_1FE@NLGIDKMA@?$AA?$CL?$AAO?$AAE?$AAM?$AAS?$AAe?$AAt?$AAR?$AAe?$AAa?$AAl?$AAT?$AAi?$AAm?$AAe?$AA?$CI?$AA?$CF?$AAd?$AA?1?$AA?$CF?$AAd?$AA?1?$AA?$CF?$AAd?$AA?5?$AA?$CF?$AAd?$AA?3?$AA?$CF?$AAd?$AA?3?$AA?$CF@|
  00520		 |$M43225|

			 ENDP  ; |OEMSetRealTime|

	EXPORT	|??_C@_1DI@MKCLCMDC@?$AA?9?$AAO?$AAE?$AAM?$AAS?$AAe?$AAt?$AAA?$AAl?$AAa?$AAr?$AAm?$AAT?$AAi?$AAm?$AAe?$AA?$CI?$AAr?$AAc?$AA?5?$AA?$DN?$AA?5?$AA?$CF?$AAd?$AA?$CJ?$AA?$AN?$AA?6?$AA?$AA@| [ DATA ] ; `string'
	EXPORT	|??_C@_1FG@LDBAHALN@?$AA?$CL?$AAO?$AAE?$AAM?$AAS?$AAe?$AAt?$AAA?$AAl?$AAa?$AAr?$AAm?$AAT?$AAi?$AAm?$AAe?$AA?$CI?$AA?$CF?$AAd?$AA?1?$AA?$CF?$AAd?$AA?1?$AA?$CF?$AAd?$AA?5?$AA?$CF?$AAd?$AA?3?$AA?$CF?$AAd?$AA?3@| [ DATA ] ; `string'
	EXPORT	|OEMSetAlarmTime|

  00018			 AREA	 |.pdata|, PDATA
|$T43246| DCD	|$LN11@OEMSetAlar|
	DCD	0x40007604

  00000			 AREA	 |.rdata|, DATA, READONLY
|??_C@_1DI@MKCLCMDC@?$AA?9?$AAO?$AAE?$AAM?$AAS?$AAe?$AAt?$AAA?$AAl?$AAa?$AAr?$AAm?$AAT?$AAi?$AAm?$AAe?$AA?$CI?$AAr?$AAc?$AA?5?$AA?$DN?$AA?5?$AA?$CF?$AAd?$AA?$CJ?$AA?$AN?$AA?6?$AA?$AA@| DCB "-"
	DCB	0x0, "O", 0x0, "E", 0x0, "M", 0x0, "S", 0x0, "e", 0x0, "t"
	DCB	0x0, "A", 0x0, "l", 0x0, "a", 0x0, "r", 0x0, "m", 0x0, "T"
	DCB	0x0, "i", 0x0, "m", 0x0, "e", 0x0, "(", 0x0, "r", 0x0, "c"
	DCB	0x0, " ", 0x0, "=", 0x0, " ", 0x0, "%", 0x0, "d", 0x0, ")"
	DCB	0x0, 0xd, 0x0, 0xa, 0x0, 0x0, 0x0	; `string'

  00000			 AREA	 |.rdata|, DATA, READONLY
|??_C@_1FG@LDBAHALN@?$AA?$CL?$AAO?$AAE?$AAM?$AAS?$AAe?$AAt?$AAA?$AAl?$AAa?$AAr?$AAm?$AAT?$AAi?$AAm?$AAe?$AA?$CI?$AA?$CF?$AAd?$AA?1?$AA?$CF?$AAd?$AA?1?$AA?$CF?$AAd?$AA?5?$AA?$CF?$AAd?$AA?3?$AA?$CF?$AAd?$AA?3@| DCB "+"
	DCB	0x0, "O", 0x0, "E", 0x0, "M", 0x0, "S", 0x0, "e", 0x0, "t"
	DCB	0x0, "A", 0x0, "l", 0x0, "a", 0x0, "r", 0x0, "m", 0x0, "T"
	DCB	0x0, "i", 0x0, "m", 0x0, "e", 0x0, "(", 0x0, "%", 0x0, "d"
	DCB	0x0, "/", 0x0, "%", 0x0, "d", 0x0, "/", 0x0, "%", 0x0, "d"
	DCB	0x0, " ", 0x0, "%", 0x0, "d", 0x0, ":", 0x0, "%", 0x0, "d"
	DCB	0x0, ":", 0x0, "%", 0x0, "d", 0x0, ".", 0x0, "%", 0x0, "0"
	DCB	0x0, "3", 0x0, "d", 0x0, ")", 0x0, 0xd, 0x0, 0xa, 0x0, 0x0
	DCB	0x0					; `string'
; Function compile flags: /Odtp

  00520			 AREA	 |.text|, CODE, ARM

  00520		 |OEMSetAlarmTime| PROC

; 189  : {

  00520		 |$LN11@OEMSetAlar|
  00520	e1a0c00d	 mov         r12, sp
  00524	e92d0001	 stmdb       sp!, {r0}
  00528	e92d5000	 stmdb       sp!, {r12, lr}
  0052c	e24dd04c	 sub         sp, sp, #0x4C
  00530		 |$M43243|

; 190  :     BOOL rc = FALSE;

  00530	e3a03000	 mov         r3, #0
  00534	e58d3018	 str         r3, [sp, #0x18]

; 191  :     ULARGE_INTEGER time;
; 192  :     FILETIME fileTime;
; 193  :     BOOL enabled;
; 194  : 
; 195  :     if(!pTime) goto cleanUp;

  00538	e59d3054	 ldr         r3, [sp, #0x54]
  0053c	e3530000	 cmp         r3, #0
  00540	1a000000	 bne         |$LN2@OEMSetAlar|
  00544	ea000050	 b           |$cleanUp$43151|
  00548		 |$LN2@OEMSetAlar|

; 196  : 
; 197  :     OALMSG(OAL_RTC&&OAL_FUNC, (
; 198  :         L"+OEMSetAlarmTime(%d/%d/%d %d:%d:%d.%03d)\r\n", 
; 199  :         pTime->wYear, pTime->wMonth, pTime->wDay, pTime->wHour, pTime->wMinute,
; 200  :         pTime->wSecond, pTime->wMilliseconds
; 201  :     ));

  00548	e59f3198	 ldr         r3, [pc, #0x198]
  0054c	e5933440	 ldr         r3, [r3, #0x440]
  00550	e3130040	 tst         r3, #0x40
  00554	0a000020	 beq         |$LN5@OEMSetAlar|
  00558	e59f3188	 ldr         r3, [pc, #0x188]
  0055c	e5933440	 ldr         r3, [r3, #0x440]
  00560	e3130004	 tst         r3, #4
  00564	0a00001c	 beq         |$LN5@OEMSetAlar|
  00568	e59d3054	 ldr         r3, [sp, #0x54]
  0056c	e283300e	 add         r3, r3, #0xE
  00570	e1d330b0	 ldrh        r3, [r3]
  00574	e58d300c	 str         r3, [sp, #0xC]
  00578	e59d3054	 ldr         r3, [sp, #0x54]
  0057c	e283300c	 add         r3, r3, #0xC
  00580	e1d330b0	 ldrh        r3, [r3]
  00584	e58d3008	 str         r3, [sp, #8]
  00588	e59d3054	 ldr         r3, [sp, #0x54]
  0058c	e283300a	 add         r3, r3, #0xA
  00590	e1d330b0	 ldrh        r3, [r3]
  00594	e58d3004	 str         r3, [sp, #4]
  00598	e59d3054	 ldr         r3, [sp, #0x54]
  0059c	e2833008	 add         r3, r3, #8
  005a0	e1d330b0	 ldrh        r3, [r3]
  005a4	e58d3000	 str         r3, [sp]
  005a8	e59d3054	 ldr         r3, [sp, #0x54]
  005ac	e2833006	 add         r3, r3, #6
  005b0	e1d330b0	 ldrh        r3, [r3]
  005b4	e59d2054	 ldr         r2, [sp, #0x54]
  005b8	e2822002	 add         r2, r2, #2
  005bc	e1d220b0	 ldrh        r2, [r2]
  005c0	e59d1054	 ldr         r1, [sp, #0x54]
  005c4	e1d110b0	 ldrh        r1, [r1]
  005c8	e59f0124	 ldr         r0, [pc, #0x124]
  005cc	eb000000	 bl          NKDbgPrintfW
  005d0	e3a03001	 mov         r3, #1
  005d4	e58d303c	 str         r3, [sp, #0x3C]
  005d8	ea000001	 b           |$LN6@OEMSetAlar|
  005dc		 |$LN5@OEMSetAlar|
  005dc	e3a03000	 mov         r3, #0
  005e0	e58d303c	 str         r3, [sp, #0x3C]
  005e4		 |$LN6@OEMSetAlar|

; 202  : 
; 203  :     if((rc = NKSystemTimeToFileTime(pTime, &fileTime)))

  005e4	e28d1010	 add         r1, sp, #0x10
  005e8	e59d0054	 ldr         r0, [sp, #0x54]
  005ec	eb000000	 bl          NKSystemTimeToFileTime
  005f0	e58d0040	 str         r0, [sp, #0x40]
  005f4	e59d3040	 ldr         r3, [sp, #0x40]
  005f8	e58d3018	 str         r3, [sp, #0x18]
  005fc	e59d3018	 ldr         r3, [sp, #0x18]
  00600	e3530000	 cmp         r3, #0
  00604	0a000020	 beq         |$LN1@OEMSetAlar|

; 204  :     {
; 205  :         // Convert time to miliseconds since Jan 1, 1601
; 206  :         time.LowPart = fileTime.dwLowDateTime;

  00608	e59d3010	 ldr         r3, [sp, #0x10]
  0060c	e58d301c	 str         r3, [sp, #0x1C]

; 207  :         time.HighPart = fileTime.dwHighDateTime;

  00610	e59d3014	 ldr         r3, [sp, #0x14]
  00614	e58d3020	 str         r3, [sp, #0x20]

; 208  :         time.QuadPart /= 10000;

  00618	e59d001c	 ldr         r0, [sp, #0x1C]
  0061c	e59d1020	 ldr         r1, [sp, #0x20]
  00620	e3a02c27	 mov         r2, #0x27, 24
  00624	e3822010	 orr         r2, r2, #0x10
  00628	e3a03000	 mov         r3, #0
  0062c	eb000000	 bl          __rt_udiv64by64
  00630	e58d001c	 str         r0, [sp, #0x1C]
  00634	e58d1020	 str         r1, [sp, #0x20]

; 209  : 
; 210  :         enabled = INTERRUPTS_ENABLE(FALSE);

  00638	e3a00000	 mov         r0, #0
  0063c	eb000000	 bl          INTERRUPTS_ENABLE
  00640	e58d0044	 str         r0, [sp, #0x44]
  00644	e59d3044	 ldr         r3, [sp, #0x44]
  00648	e58d3024	 str         r3, [sp, #0x24]

; 211  :         g_oalRTCAlarm = time.QuadPart - *g_pOALRTCTicks;

  0064c	e59d101c	 ldr         r1, [sp, #0x1C]
  00650	e59d0020	 ldr         r0, [sp, #0x20]
  00654	e59f3094	 ldr         r3, [pc, #0x94]
  00658	e5933000	 ldr         r3, [r3]
  0065c	e5932000	 ldr         r2, [r3]
  00660	e59f3088	 ldr         r3, [pc, #0x88]
  00664	e5933000	 ldr         r3, [r3]
  00668	e5933004	 ldr         r3, [r3, #4]
  0066c	e0511002	 subs        r1, r1, r2
  00670	e0c02003	 sbc         r2, r0, r3
  00674	e59f3070	 ldr         r3, [pc, #0x70]
  00678	e5831000	 str         r1, [r3]
  0067c	e59f3068	 ldr         r3, [pc, #0x68]
  00680	e5832004	 str         r2, [r3, #4]

; 212  :         INTERRUPTS_ENABLE(enabled);

  00684	e59d0024	 ldr         r0, [sp, #0x24]
  00688	eb000000	 bl          INTERRUPTS_ENABLE
  0068c		 |$LN1@OEMSetAlar|
  0068c		 |$cleanUp$43151|

; 213  :     }
; 214  : 
; 215  : cleanUp:
; 216  :     OALMSG(OAL_RTC&&OAL_FUNC, (L"-OEMSetAlarmTime(rc = %d)\r\n", rc));

  0068c	e59f3054	 ldr         r3, [pc, #0x54]
  00690	e5933440	 ldr         r3, [r3, #0x440]
  00694	e3130040	 tst         r3, #0x40
  00698	0a000009	 beq         |$LN7@OEMSetAlar|
  0069c	e59f3044	 ldr         r3, [pc, #0x44]
  006a0	e5933440	 ldr         r3, [r3, #0x440]
  006a4	e3130004	 tst         r3, #4
  006a8	0a000005	 beq         |$LN7@OEMSetAlar|
  006ac	e59d1018	 ldr         r1, [sp, #0x18]
  006b0	e59f002c	 ldr         r0, [pc, #0x2C]
  006b4	eb000000	 bl          NKDbgPrintfW
  006b8	e3a03001	 mov         r3, #1
  006bc	e58d3048	 str         r3, [sp, #0x48]
  006c0	ea000001	 b           |$LN8@OEMSetAlar|
  006c4		 |$LN7@OEMSetAlar|
  006c4	e3a03000	 mov         r3, #0
  006c8	e58d3048	 str         r3, [sp, #0x48]
  006cc		 |$LN8@OEMSetAlar|

; 217  :     return rc;

  006cc	e59d3018	 ldr         r3, [sp, #0x18]
  006d0	e58d3038	 str         r3, [sp, #0x38]

; 218  : }

  006d4	e59d0038	 ldr         r0, [sp, #0x38]
  006d8	e28dd04c	 add         sp, sp, #0x4C
  006dc	e89d6000	 ldmia       sp, {sp, lr}
  006e0	e12fff1e	 bx          lr
  006e4		 |$LN12@OEMSetAlar|
  006e4		 |$LN13@OEMSetAlar|
  006e4	00000000	 DCD         |??_C@_1DI@MKCLCMDC@?$AA?9?$AAO?$AAE?$AAM?$AAS?$AAe?$AAt?$AAA?$AAl?$AAa?$AAr?$AAm?$AAT?$AAi?$AAm?$AAe?$AA?$CI?$AAr?$AAc?$AA?5?$AA?$DN?$AA?5?$AA?$CF?$AAd?$AA?$CJ?$AA?$AN?$AA?6?$AA?$AA@|
  006e8		 |$LN14@OEMSetAlar|
  006e8	00000000	 DCD         |dpCurSettings|
  006ec		 |$LN15@OEMSetAlar|
  006ec	00000000	 DCD         |g_oalRTCAlarm|
  006f0		 |$LN16@OEMSetAlar|
  006f0	00000000	 DCD         |g_pOALRTCTicks|
  006f4		 |$LN17@OEMSetAlar|
  006f4	00000000	 DCD         |??_C@_1FG@LDBAHALN@?$AA?$CL?$AAO?$AAE?$AAM?$AAS?$AAe?$AAt?$AAA?$AAl?$AAa?$AAr?$AAm?$AAT?$AAi?$AAm?$AAe?$AA?$CI?$AA?$CF?$AAd?$AA?1?$AA?$CF?$AAd?$AA?1?$AA?$CF?$AAd?$AA?5?$AA?$CF?$AAd?$AA?3?$AA?$CF?$AAd?$AA?3@|
  006f8		 |$M43244|

			 ENDP  ; |OEMSetAlarmTime|

	END
