; Listing generated by Microsoft (R) Optimizing Compiler Version 14.01.60511.01 

	TTL	C:\WINCE600\PLATFORM\COMMON\SRC\SOC\COMMON_TI_V1\COMMON_TI\PM\PMEXT\pmext.cpp
	CODE32

  00000			 AREA	 |.drectve|, DRECTVE
	DCB	"-defaultlib:LIBCMT "
	DCB	"-defaultlib:OLDNAMES "

	EXPORT	|?_hIdentifier@@3PAXA| [ DATA ]		; _hIdentifier

  00000			 AREA	 |.bss|, NOINIT
|?_hIdentifier@@3PAXA| % 0x4				; _hIdentifier
	EXPORT	|?OmapPmExtensions@@YAHPAUOMAP_PMEXT_IFC@@K@Z| ; OmapPmExtensions
	EXPORT	|??_C@_1EO@ODCABIBF@?$AA?$HL?$AAA?$AA5?$AA7?$AA5?$AAE?$AAC?$AA6?$AA8?$AA?9?$AA6?$AA0?$AA8?$AA1?$AA?9?$AA4?$AAf?$AA4?$AA4?$AA?9?$AA8?$AA7?$AAC?$AA8?$AA?9?$AA8?$AAA?$AAB?$AA4?$AA1?$AAA?$AA9@| [ DATA ] ; `string'
	IMPORT	|PmxLoadPolicy|
	IMPORT	|PmxLoadConstraint|
	IMPORT	|PmxClosePolicy|
	IMPORT	|PmxNotifyPolicy|
	IMPORT	|PmxOpenPolicy|
	IMPORT	|PmxUnregisterConstraintCallback|
	IMPORT	|PmxSetConstraintById|
	IMPORT	|PmxSetConstraintByClass|
	IMPORT	|PmxSendDeviceNotification|
	IMPORT	|PmxReleaseConstraint|
	IMPORT	|PmxRegisterConstraintCallback|
	IMPORT	|PmxUpdateConstraint|
	IMPORT	|CloseHandle|
	IMPORT	|GetLastError|
	IMPORT	|CreateEventW|
; File c:\wince600\platform\common\src\soc\common_ti_v1\common_ti\pm\pmext\pmext.cpp

  00000			 AREA	 |.pdata|, PDATA
|$T33586| DCD	|$LN8@OmapPmExte|
	DCD	0x40003a01

  00000			 AREA	 |.rdata|, DATA, READONLY
|??_C@_1EO@ODCABIBF@?$AA?$HL?$AAA?$AA5?$AA7?$AA5?$AAE?$AAC?$AA6?$AA8?$AA?9?$AA6?$AA0?$AA8?$AA1?$AA?9?$AA4?$AAf?$AA4?$AA4?$AA?9?$AA8?$AA7?$AAC?$AA8?$AA?9?$AA8?$AAA?$AAB?$AA4?$AA1?$AAA?$AA9@| DCB "{"
	DCB	0x0, "A", 0x0, "5", 0x0, "7", 0x0, "5", 0x0, "E", 0x0, "C"
	DCB	0x0, "6", 0x0, "8", 0x0, "-", 0x0, "6", 0x0, "0", 0x0, "8"
	DCB	0x0, "1", 0x0, "-", 0x0, "4", 0x0, "f", 0x0, "4", 0x0, "4"
	DCB	0x0, "-", 0x0, "8", 0x0, "7", 0x0, "C", 0x0, "8", 0x0, "-"
	DCB	0x0, "8", 0x0, "A", 0x0, "B", 0x0, "4", 0x0, "1", 0x0, "A"
	DCB	0x0, "9", 0x0, "C", 0x0, "2", 0x0, "F", 0x0, "2", 0x0, "E"
	DCB	0x0, "}", 0x0, 0x0, 0x0			; `string'
; Function compile flags: /Ogspy

  00000			 AREA	 |.text|, CODE, ARM

  00000		 |?OmapPmExtensions@@YAHPAUOMAP_PMEXT_IFC@@K@Z| PROC ; OmapPmExtensions

; 53   : {

  00000		 |$LN8@OmapPmExte|
  00000	e92d4ff0	 stmdb       sp!, {r4 - r11, lr}
  00004		 |$M33583|
  00004	e1b0b000	 movs        r11, r0

; 54   :     // parameter validation
; 55   :     if (pIfc == NULL || size != sizeof(OMAP_PMEXT_IFC)) return FALSE;

  00008	0a00000f	 beq         |$LN2@OmapPmExte|
  0000c	e3510034	 cmp         r1, #0x34
  00010	1a00000d	 bne         |$LN2@OmapPmExte|

; 56   :     
; 57   :     // this module is a singleton and shouldn't be loaded more than once
; 58   :     _hIdentifier = CreateEvent(NULL, FALSE, FALSE, PMEXT_IDENTIFIER);

  00014	e59f30c8	 ldr         r3, [pc, #0xC8]
  00018	e3a02000	 mov         r2, #0
  0001c	e3a01000	 mov         r1, #0
  00020	e3a00000	 mov         r0, #0
  00024	eb000000	 bl          CreateEventW
  00028	e59f40b0	 ldr         r4, [pc, #0xB0]
  0002c	e5840000	 str         r0, [r4]

; 59   :     if (GetLastError() == ERROR_ALREADY_EXISTS)

  00030	eb000000	 bl          GetLastError
  00034	e35000b7	 cmp         r0, #0xB7
  00038	1a000006	 bne         |$LN1@OmapPmExte|

; 60   :         {
; 61   :         CloseHandle(_hIdentifier);

  0003c	e5940000	 ldr         r0, [r4]
  00040	eb000000	 bl          CloseHandle

; 62   :         _hIdentifier = NULL;

  00044	e3a03000	 mov         r3, #0
  00048	e5843000	 str         r3, [r4]
  0004c		 |$LN2@OmapPmExte|

; 54   :     // parameter validation
; 55   :     if (pIfc == NULL || size != sizeof(OMAP_PMEXT_IFC)) return FALSE;

  0004c	e3a00000	 mov         r0, #0

; 79   : }

  00050	e8bd4ff0	 ldmia       sp!, {r4 - r11, lr}
  00054	e12fff1e	 bx          lr
  00058		 |$LN1@OmapPmExte|

; 63   :         return FALSE;
; 64   :         }
; 65   :     
; 66   :     pIfc->PmxSendDeviceNotification = PmxSendDeviceNotification;
; 67   :     pIfc->PmxSetConstraintByClass = PmxSetConstraintByClass;
; 68   :     pIfc->PmxSetConstraintById = PmxSetConstraintById;
; 69   :     pIfc->PmxUpdateConstraint = PmxUpdateConstraint;

  00058	e59f007c	 ldr         r0, [pc, #0x7C]

; 70   :     pIfc->PmxRegisterConstraintCallback = (fnPmxRegisterConstraintCallback)PmxRegisterConstraintCallback;

  0005c	e59fe074	 ldr         lr, [pc, #0x74]

; 71   :     pIfc->PmxUnregisterConstraintCallback = PmxUnregisterConstraintCallback;
; 72   :     pIfc->PmxOpenPolicy = PmxOpenPolicy;
; 73   :     pIfc->PmxNotifyPolicy = PmxNotifyPolicy;
; 74   :     pIfc->PmxClosePolicy = PmxClosePolicy;
; 75   :     pIfc->PmxReleaseConstraint = PmxReleaseConstraint;

  00060	e59f806c	 ldr         r8, [pc, #0x6C]
  00064	e59f3064	 ldr         r3, [pc, #0x64]
  00068	e59f205c	 ldr         r2, [pc, #0x5C]
  0006c	e59f1054	 ldr         r1, [pc, #0x54]
  00070	e59f404c	 ldr         r4, [pc, #0x4C]
  00074	e59f5044	 ldr         r5, [pc, #0x44]
  00078	e59f603c	 ldr         r6, [pc, #0x3C]
  0007c	e59f7034	 ldr         r7, [pc, #0x34]

; 76   :     pIfc->PmxLoadConstraint = PmxLoadConstraint;

  00080	e59f902c	 ldr         r9, [pc, #0x2C]

; 77   :     pIfc->PmxLoadPolicy = PmxLoadPolicy;

  00084	e59fa024	 ldr         r10, [pc, #0x24]
  00088	e28bc010	 add         r12, r11, #0x10
  0008c	e88c4101	 stmia       r12, {r0, r8, lr}

; 78   :     return TRUE;

  00090	e3a00001	 mov         r0, #1
  00094	e58b3004	 str         r3, [r11, #4]
  00098	e58b2008	 str         r2, [r11, #8]
  0009c	e58b100c	 str         r1, [r11, #0xC]
  000a0	e28bc01c	 add         r12, r11, #0x1C
  000a4	e88c06f0	 stmia       r12, {r4 - r7, r9, r10}

; 79   : }

  000a8	e8bd4ff0	 ldmia       sp!, {r4 - r11, lr}
  000ac	e12fff1e	 bx          lr
  000b0		 |$LN9@OmapPmExte|
  000b0		 |$LN10@OmapPmExte|
  000b0	00000000	 DCD         |PmxLoadPolicy|
  000b4		 |$LN11@OmapPmExte|
  000b4	00000000	 DCD         |PmxLoadConstraint|
  000b8		 |$LN12@OmapPmExte|
  000b8	00000000	 DCD         |PmxClosePolicy|
  000bc		 |$LN13@OmapPmExte|
  000bc	00000000	 DCD         |PmxNotifyPolicy|
  000c0		 |$LN14@OmapPmExte|
  000c0	00000000	 DCD         |PmxOpenPolicy|
  000c4		 |$LN15@OmapPmExte|
  000c4	00000000	 DCD         |PmxUnregisterConstraintCallback|
  000c8		 |$LN16@OmapPmExte|
  000c8	00000000	 DCD         |PmxSetConstraintById|
  000cc		 |$LN17@OmapPmExte|
  000cc	00000000	 DCD         |PmxSetConstraintByClass|
  000d0		 |$LN18@OmapPmExte|
  000d0	00000000	 DCD         |PmxSendDeviceNotification|
  000d4		 |$LN19@OmapPmExte|
  000d4	00000000	 DCD         |PmxReleaseConstraint|
  000d8		 |$LN20@OmapPmExte|
  000d8	00000000	 DCD         |PmxRegisterConstraintCallback|
  000dc		 |$LN21@OmapPmExte|
  000dc	00000000	 DCD         |PmxUpdateConstraint|
  000e0		 |$LN22@OmapPmExte|
  000e0	00000000	 DCD         |?_hIdentifier@@3PAXA|
  000e4		 |$LN23@OmapPmExte|
  000e4	00000000	 DCD         |??_C@_1EO@ODCABIBF@?$AA?$HL?$AAA?$AA5?$AA7?$AA5?$AAE?$AAC?$AA6?$AA8?$AA?9?$AA6?$AA0?$AA8?$AA1?$AA?9?$AA4?$AAf?$AA4?$AA4?$AA?9?$AA8?$AA7?$AAC?$AA8?$AA?9?$AA8?$AAA?$AAB?$AA4?$AA1?$AAA?$AA9@|
  000e8		 |$M33584|

			 ENDP  ; |?OmapPmExtensions@@YAHPAUOMAP_PMEXT_IFC@@K@Z|, OmapPmExtensions

	EXPORT	|?PMExt_DeInit@@YAXK@Z|			; PMExt_DeInit
	EXPORT	|??_C@_1CA@DNBJKEMA@?$AA?9?$AAP?$AAM?$AAE?$AAx?$AAt?$AA_?$AAD?$AAe?$AAI?$AAn?$AAi?$AAt?$AA?$CI?$AA?$CJ?$AA?$AA@| [ DATA ] ; `string'
	EXPORT	|??_C@_1EG@DOEDJKBA@?$AA?$CL?$AAP?$AAM?$AAE?$AAx?$AAt?$AA_?$AAD?$AAe?$AAI?$AAn?$AAi?$AAt?$AA?$CI?$AAd?$AAw?$AAE?$AAx?$AAt?$AAC?$AAo?$AAn?$AAt?$AAe?$AAx?$AAt?$AA?$DN?$AA0?$AAx?$AA?$CF?$AA0?$AA8@| [ DATA ] ; `string'
	IMPORT	|?UninitializeDeviceMediator@@YAXK@Z|	; UninitializeDeviceMediator
	IMPORT	|?UninitializeConstraintRoot@@YAXK@Z|	; UninitializeConstraintRoot
	IMPORT	|?UninitializePolicyRoot@@YAXK@Z|	; UninitializePolicyRoot
	IMPORT	|NKDbgPrintfW|
	IMPORT	|?dpCurSettings@@3U_DBGPARAM@@A|	; dpCurSettings

  00000			 AREA	 |.pdata|, PDATA
|$T33613| DCD	|$LN9@PMExt_DeIn|
	DCD	0x40001701

  00000			 AREA	 |.rdata|, DATA, READONLY
|??_C@_1CA@DNBJKEMA@?$AA?9?$AAP?$AAM?$AAE?$AAx?$AAt?$AA_?$AAD?$AAe?$AAI?$AAn?$AAi?$AAt?$AA?$CI?$AA?$CJ?$AA?$AA@| DCB "-"
	DCB	0x0, "P", 0x0, "M", 0x0, "E", 0x0, "x", 0x0, "t", 0x0, "_"
	DCB	0x0, "D", 0x0, "e", 0x0, "I", 0x0, "n", 0x0, "i", 0x0, "t"
	DCB	0x0, "(", 0x0, ")", 0x0, 0x0, 0x0	; `string'

  00000			 AREA	 |.rdata|, DATA, READONLY
|??_C@_1EG@DOEDJKBA@?$AA?$CL?$AAP?$AAM?$AAE?$AAx?$AAt?$AA_?$AAD?$AAe?$AAI?$AAn?$AAi?$AAt?$AA?$CI?$AAd?$AAw?$AAE?$AAx?$AAt?$AAC?$AAo?$AAn?$AAt?$AAe?$AAx?$AAt?$AA?$DN?$AA0?$AAx?$AA?$CF?$AA0?$AA8@| DCB "+"
	DCB	0x0, "P", 0x0, "M", 0x0, "E", 0x0, "x", 0x0, "t", 0x0, "_"
	DCB	0x0, "D", 0x0, "e", 0x0, "I", 0x0, "n", 0x0, "i", 0x0, "t"
	DCB	0x0, "(", 0x0, "d", 0x0, "w", 0x0, "E", 0x0, "x", 0x0, "t"
	DCB	0x0, "C", 0x0, "o", 0x0, "n", 0x0, "t", 0x0, "e", 0x0, "x"
	DCB	0x0, "t", 0x0, "=", 0x0, "0", 0x0, "x", 0x0, "%", 0x0, "0"
	DCB	0x0, "8", 0x0, "X", 0x0, ")", 0x0, 0x0, 0x0 ; `string'
; Function compile flags: /Ogspy

  00000			 AREA	 |.text|, CODE, ARM

  00000		 |?PMExt_DeInit@@YAXK@Z| PROC		; PMExt_DeInit

; 92   : {

  00000		 |$LN9@PMExt_DeIn|
  00000	e92d4030	 stmdb       sp!, {r4, r5, lr}
  00004		 |$M33610|
  00004	e1a04000	 mov         r4, r0

; 93   :     RETAILMSG(ZONE_FUNCTION, (L"+PMExt_DeInit(dwExtContext=0x%08X)", dwExtContext));

  00008	e59f5048	 ldr         r5, [pc, #0x48]
  0000c	e5953440	 ldr         r3, [r5, #0x440]
  00010	e3130004	 tst         r3, #4
  00014	159f0038	 ldrne       r0, [pc, #0x38]
  00018	11a01004	 movne       r1, r4
  0001c	1b000000	 blne        NKDbgPrintfW

; 94   : 
; 95   :     UninitializePolicyRoot(dwExtContext);

  00020	e1a00004	 mov         r0, r4
  00024	eb000000	 bl          |?UninitializePolicyRoot@@YAXK@Z|

; 96   :     UninitializeConstraintRoot(dwExtContext);

  00028	e1a00004	 mov         r0, r4
  0002c	eb000000	 bl          |?UninitializeConstraintRoot@@YAXK@Z|

; 97   :     UninitializeDeviceMediator(dwExtContext);

  00030	e1a00004	 mov         r0, r4
  00034	eb000000	 bl          |?UninitializeDeviceMediator@@YAXK@Z|

; 98   : 
; 99   :     RETAILMSG(ZONE_FUNCTION, (L"-PMExt_DeInit()"));

  00038	e5953440	 ldr         r3, [r5, #0x440]
  0003c	e3130004	 tst         r3, #4
  00040	159f0008	 ldrne       r0, [pc, #8]
  00044	1b000000	 blne        NKDbgPrintfW

; 100  : }

  00048	e8bd4030	 ldmia       sp!, {r4, r5, lr}
  0004c	e12fff1e	 bx          lr
  00050		 |$LN10@PMExt_DeIn|
  00050		 |$LN11@PMExt_DeIn|
  00050	00000000	 DCD         |??_C@_1CA@DNBJKEMA@?$AA?9?$AAP?$AAM?$AAE?$AAx?$AAt?$AA_?$AAD?$AAe?$AAI?$AAn?$AAi?$AAt?$AA?$CI?$AA?$CJ?$AA?$AA@|
  00054		 |$LN12@PMExt_DeIn|
  00054	00000000	 DCD         |??_C@_1EG@DOEDJKBA@?$AA?$CL?$AAP?$AAM?$AAE?$AAx?$AAt?$AA_?$AAD?$AAe?$AAI?$AAn?$AAi?$AAt?$AA?$CI?$AAd?$AAw?$AAE?$AAx?$AAt?$AAC?$AAo?$AAn?$AAt?$AAe?$AAx?$AAt?$AA?$DN?$AA0?$AAx?$AA?$CF?$AA0?$AA8@|
  00058		 |$LN13@PMExt_DeIn|
  00058	00000000	 DCD         |?dpCurSettings@@3U_DBGPARAM@@A|
  0005c		 |$M33611|

			 ENDP  ; |?PMExt_DeInit@@YAXK@Z|, PMExt_DeInit

	EXPORT	|?PMExt_Init@@YAKPAUHKEY__@@PBG@Z|	; PMExt_Init
	EXPORT	|??_C@_1CC@OCIMAMOI@?$AA?9?$AAP?$AAM?$AAE?$AAx?$AAt?$AA_?$AAI?$AAn?$AAi?$AAt?$AA?$CI?$AA?$CJ?$AA?$DN?$AA?$CF?$AAd?$AA?$AA@| [ DATA ] ; `string'
	EXPORT	|??_C@_1FM@JEPFOLHG@?$AA?$CL?$AAP?$AAM?$AAE?$AAx?$AAt?$AA_?$AAI?$AAn?$AAi?$AAt?$AA?$CI?$AAh?$AAK?$AAe?$AAy?$AA?$DN?$AA0?$AAx?$AA?$CF?$AA0?$AA8?$AAX?$AA?0?$AA?5?$AAl?$AAp?$AAR?$AAe?$AAg?$AAi?$AAs@| [ DATA ] ; `string'
	IMPORT	|?InitializePolicyRoot@@YAKPAUHKEY__@@PBG@Z| ; InitializePolicyRoot
	IMPORT	|?InitializeConstraintRoot@@YAKPAUHKEY__@@PBG@Z| ; InitializeConstraintRoot
	IMPORT	|?InitializeDeviceMediator@@YAKPAUHKEY__@@PBG@Z| ; InitializeDeviceMediator

  00000			 AREA	 |.pdata|, PDATA
|$T33632| DCD	|$LN9@PMExt_Init|
	DCD	0x40001e01

  00000			 AREA	 |.rdata|, DATA, READONLY
|??_C@_1CC@OCIMAMOI@?$AA?9?$AAP?$AAM?$AAE?$AAx?$AAt?$AA_?$AAI?$AAn?$AAi?$AAt?$AA?$CI?$AA?$CJ?$AA?$DN?$AA?$CF?$AAd?$AA?$AA@| DCB "-"
	DCB	0x0, "P", 0x0, "M", 0x0, "E", 0x0, "x", 0x0, "t", 0x0, "_"
	DCB	0x0, "I", 0x0, "n", 0x0, "i", 0x0, "t", 0x0, "(", 0x0, ")"
	DCB	0x0, "=", 0x0, "%", 0x0, "d", 0x0, 0x0, 0x0 ; `string'

  00000			 AREA	 |.rdata|, DATA, READONLY
|??_C@_1FM@JEPFOLHG@?$AA?$CL?$AAP?$AAM?$AAE?$AAx?$AAt?$AA_?$AAI?$AAn?$AAi?$AAt?$AA?$CI?$AAh?$AAK?$AAe?$AAy?$AA?$DN?$AA0?$AAx?$AA?$CF?$AA0?$AA8?$AAX?$AA?0?$AA?5?$AAl?$AAp?$AAR?$AAe?$AAg?$AAi?$AAs@| DCB "+"
	DCB	0x0, "P", 0x0, "M", 0x0, "E", 0x0, "x", 0x0, "t", 0x0, "_"
	DCB	0x0, "I", 0x0, "n", 0x0, "i", 0x0, "t", 0x0, "(", 0x0, "h"
	DCB	0x0, "K", 0x0, "e", 0x0, "y", 0x0, "=", 0x0, "0", 0x0, "x"
	DCB	0x0, "%", 0x0, "0", 0x0, "8", 0x0, "X", 0x0, ",", 0x0, " "
	DCB	0x0, "l", 0x0, "p", 0x0, "R", 0x0, "e", 0x0, "g", 0x0, "i"
	DCB	0x0, "s", 0x0, "t", 0x0, "r", 0x0, "y", 0x0, "P", 0x0, "a"
	DCB	0x0, "t", 0x0, "h", 0x0, "=", 0x0, """", 0x0, "%", 0x0, "s"
	DCB	0x0, """", 0x0, ")", 0x0, 0x0, 0x0	; `string'
; Function compile flags: /Ogspy

  00000			 AREA	 |.text|, CODE, ARM

  00000		 |?PMExt_Init@@YAKPAUHKEY__@@PBG@Z| PROC ; PMExt_Init

; 114  : {

  00000		 |$LN9@PMExt_Init|
  00000	e92d4070	 stmdb       sp!, {r4 - r6, lr}
  00004		 |$M33629|
  00004	e1a04001	 mov         r4, r1
  00008	e1a05000	 mov         r5, r0

; 115  :     DWORD rc = FALSE;
; 116  :     RETAILMSG(ZONE_FUNCTION, (L"+PMExt_Init(hKey=0x%08X, "
; 117  :         L"lpRegistryPath=\"%s\")", hKey, lpRegistryPath)
; 118  :         );

  0000c	e59f6060	 ldr         r6, [pc, #0x60]
  00010	e5963440	 ldr         r3, [r6, #0x440]
  00014	e3130004	 tst         r3, #4
  00018	159f0050	 ldrne       r0, [pc, #0x50]
  0001c	11a02004	 movne       r2, r4
  00020	11a01005	 movne       r1, r5
  00024	1b000000	 blne        NKDbgPrintfW

; 119  : 
; 120  :     InitializeDeviceMediator(hKey, lpRegistryPath);

  00028	e1a01004	 mov         r1, r4
  0002c	e1a00005	 mov         r0, r5
  00030	eb000000	 bl          |?InitializeDeviceMediator@@YAKPAUHKEY__@@PBG@Z|

; 121  :     InitializeConstraintRoot(hKey, lpRegistryPath);

  00034	e1a01004	 mov         r1, r4
  00038	e1a00005	 mov         r0, r5
  0003c	eb000000	 bl          |?InitializeConstraintRoot@@YAKPAUHKEY__@@PBG@Z|

; 122  :     InitializePolicyRoot(hKey, lpRegistryPath);

  00040	e1a01004	 mov         r1, r4
  00044	e1a00005	 mov         r0, r5
  00048	eb000000	 bl          |?InitializePolicyRoot@@YAKPAUHKEY__@@PBG@Z|

; 123  :     
; 124  :     rc = TRUE;
; 125  :     
; 126  :     RETAILMSG(ZONE_FUNCTION, (L"-PMExt_Init()=%d", rc));

  0004c	e5963440	 ldr         r3, [r6, #0x440]
  00050	e3130004	 tst         r3, #4
  00054	159f0010	 ldrne       r0, [pc, #0x10]
  00058	13a01001	 movne       r1, #1
  0005c	1b000000	 blne        NKDbgPrintfW

; 127  :     return rc;

  00060	e3a00001	 mov         r0, #1

; 128  : }

  00064	e8bd4070	 ldmia       sp!, {r4 - r6, lr}
  00068	e12fff1e	 bx          lr
  0006c		 |$LN10@PMExt_Init|
  0006c		 |$LN11@PMExt_Init|
  0006c	00000000	 DCD         |??_C@_1CC@OCIMAMOI@?$AA?9?$AAP?$AAM?$AAE?$AAx?$AAt?$AA_?$AAI?$AAn?$AAi?$AAt?$AA?$CI?$AA?$CJ?$AA?$DN?$AA?$CF?$AAd?$AA?$AA@|
  00070		 |$LN12@PMExt_Init|
  00070	00000000	 DCD         |??_C@_1FM@JEPFOLHG@?$AA?$CL?$AAP?$AAM?$AAE?$AAx?$AAt?$AA_?$AAI?$AAn?$AAi?$AAt?$AA?$CI?$AAh?$AAK?$AAe?$AAy?$AA?$DN?$AA0?$AAx?$AA?$CF?$AA0?$AA8?$AAX?$AA?0?$AA?5?$AAl?$AAp?$AAR?$AAe?$AAg?$AAi?$AAs@|
  00074		 |$LN13@PMExt_Init|
  00074	00000000	 DCD         |?dpCurSettings@@3U_DBGPARAM@@A|
  00078		 |$M33630|

			 ENDP  ; |?PMExt_Init@@YAKPAUHKEY__@@PBG@Z|, PMExt_Init

	EXPORT	|?PMExt_GetNotificationHandle@@YAKK@Z|	; PMExt_GetNotificationHandle
	EXPORT	|??_C@_1EM@KGPEOAIL@?$AA?9?$AAP?$AAM?$AAE?$AAx?$AAt?$AA_?$AAG?$AAe?$AAt?$AAN?$AAo?$AAt?$AAi?$AAf?$AAi?$AAc?$AAa?$AAt?$AAi?$AAo?$AAn?$AAH?$AAa?$AAn?$AAd?$AAl?$AAe?$AA?$CI?$AA?$CJ?$AA?$DN?$AA0@| [ DATA ] ; `string'
	EXPORT	|??_C@_1GE@IDHLEMEC@?$AA?$CL?$AAP?$AAM?$AAE?$AAx?$AAt?$AA_?$AAG?$AAe?$AAt?$AAN?$AAo?$AAt?$AAi?$AAf?$AAi?$AAc?$AAa?$AAt?$AAi?$AAo?$AAn?$AAH?$AAa?$AAn?$AAd?$AAl?$AAe?$AA?$CI?$AAd?$AAw?$AAE@| [ DATA ] ; `string'

  00000			 AREA	 |.pdata|, PDATA
|$T33651| DCD	|$LN9@PMExt_GetN|
	DCD	0x40001801

  00000			 AREA	 |.rdata|, DATA, READONLY
|??_C@_1EM@KGPEOAIL@?$AA?9?$AAP?$AAM?$AAE?$AAx?$AAt?$AA_?$AAG?$AAe?$AAt?$AAN?$AAo?$AAt?$AAi?$AAf?$AAi?$AAc?$AAa?$AAt?$AAi?$AAo?$AAn?$AAH?$AAa?$AAn?$AAd?$AAl?$AAe?$AA?$CI?$AA?$CJ?$AA?$DN?$AA0@| DCB "-"
	DCB	0x0, "P", 0x0, "M", 0x0, "E", 0x0, "x", 0x0, "t", 0x0, "_"
	DCB	0x0, "G", 0x0, "e", 0x0, "t", 0x0, "N", 0x0, "o", 0x0, "t"
	DCB	0x0, "i", 0x0, "f", 0x0, "i", 0x0, "c", 0x0, "a", 0x0, "t"
	DCB	0x0, "i", 0x0, "o", 0x0, "n", 0x0, "H", 0x0, "a", 0x0, "n"
	DCB	0x0, "d", 0x0, "l", 0x0, "e", 0x0, "(", 0x0, ")", 0x0, "="
	DCB	0x0, "0", 0x0, "x", 0x0, "%", 0x0, "0", 0x0, "8", 0x0, "X"
	DCB	0x0, 0x0, 0x0				; `string'

  00000			 AREA	 |.rdata|, DATA, READONLY
|??_C@_1GE@IDHLEMEC@?$AA?$CL?$AAP?$AAM?$AAE?$AAx?$AAt?$AA_?$AAG?$AAe?$AAt?$AAN?$AAo?$AAt?$AAi?$AAf?$AAi?$AAc?$AAa?$AAt?$AAi?$AAo?$AAn?$AAH?$AAa?$AAn?$AAd?$AAl?$AAe?$AA?$CI?$AAd?$AAw?$AAE@| DCB "+"
	DCB	0x0, "P", 0x0, "M", 0x0, "E", 0x0, "x", 0x0, "t", 0x0, "_"
	DCB	0x0, "G", 0x0, "e", 0x0, "t", 0x0, "N", 0x0, "o", 0x0, "t"
	DCB	0x0, "i", 0x0, "f", 0x0, "i", 0x0, "c", 0x0, "a", 0x0, "t"
	DCB	0x0, "i", 0x0, "o", 0x0, "n", 0x0, "H", 0x0, "a", 0x0, "n"
	DCB	0x0, "d", 0x0, "l", 0x0, "e", 0x0, "(", 0x0, "d", 0x0, "w"
	DCB	0x0, "E", 0x0, "x", 0x0, "t", 0x0, "C", 0x0, "o", 0x0, "n"
	DCB	0x0, "t", 0x0, "e", 0x0, "x", 0x0, "t", 0x0, "=", 0x0, "0"
	DCB	0x0, "x", 0x0, "%", 0x0, "0", 0x0, "8", 0x0, "X", 0x0, ")"
	DCB	0x0, 0x0, 0x0				; `string'
; Function compile flags: /Ogspy

  00000			 AREA	 |.text|, CODE, ARM

  00000		 |?PMExt_GetNotificationHandle@@YAKK@Z| PROC ; PMExt_GetNotificationHandle

; 141  : {

  00000		 |$LN9@PMExt_GetN|
  00000	e92d4010	 stmdb       sp!, {r4, lr}
  00004		 |$M33648|
  00004	e1a01000	 mov         r1, r0

; 142  :     DWORD rc = FALSE;
; 143  : 
; 144  : 	UNREFERENCED_PARAMETER(dwExtContext);
; 145  : 
; 146  :     RETAILMSG(ZONE_FUNCTION, (L"+PMExt_GetNotificationHandle("
; 147  :         L"dwExtContext=0x%08X)", dwExtContext)
; 148  :         );

  00008	e59f404c	 ldr         r4, [pc, #0x4C]
  0000c	e5943440	 ldr         r3, [r4, #0x440]
  00010	e3130004	 tst         r3, #4
  00014	159f003c	 ldrne       r0, [pc, #0x3C]
  00018	1b000000	 blne        NKDbgPrintfW

; 149  : 
; 150  :     rc = (DWORD)CreateEvent(NULL, FALSE, FALSE, NULL);

  0001c	e3a03000	 mov         r3, #0
  00020	e3a02000	 mov         r2, #0
  00024	e3a01000	 mov         r1, #0
  00028	e3a00000	 mov         r0, #0
  0002c	eb000000	 bl          CreateEventW

; 151  : 
; 152  :     RETAILMSG(ZONE_FUNCTION, (L"-PMExt_GetNotificationHandle()=0x%08X", rc));

  00030	e5943440	 ldr         r3, [r4, #0x440]
  00034	e1a04000	 mov         r4, r0
  00038	e3130004	 tst         r3, #4
  0003c	159f0010	 ldrne       r0, [pc, #0x10]
  00040	11a01004	 movne       r1, r4
  00044	1b000000	 blne        NKDbgPrintfW

; 153  :     return rc;
; 154  : }

  00048	e1a00004	 mov         r0, r4
  0004c	e8bd4010	 ldmia       sp!, {r4, lr}
  00050	e12fff1e	 bx          lr
  00054		 |$LN10@PMExt_GetN|
  00054		 |$LN11@PMExt_GetN|
  00054	00000000	 DCD         |??_C@_1EM@KGPEOAIL@?$AA?9?$AAP?$AAM?$AAE?$AAx?$AAt?$AA_?$AAG?$AAe?$AAt?$AAN?$AAo?$AAt?$AAi?$AAf?$AAi?$AAc?$AAa?$AAt?$AAi?$AAo?$AAn?$AAH?$AAa?$AAn?$AAd?$AAl?$AAe?$AA?$CI?$AA?$CJ?$AA?$DN?$AA0@|
  00058		 |$LN12@PMExt_GetN|
  00058	00000000	 DCD         |??_C@_1GE@IDHLEMEC@?$AA?$CL?$AAP?$AAM?$AAE?$AAx?$AAt?$AA_?$AAG?$AAe?$AAt?$AAN?$AAo?$AAt?$AAi?$AAf?$AAi?$AAc?$AAa?$AAt?$AAi?$AAo?$AAn?$AAH?$AAa?$AAn?$AAd?$AAl?$AAe?$AA?$CI?$AAd?$AAw?$AAE@|
  0005c		 |$LN13@PMExt_GetN|
  0005c	00000000	 DCD         |?dpCurSettings@@3U_DBGPARAM@@A|
  00060		 |$M33649|

			 ENDP  ; |?PMExt_GetNotificationHandle@@YAKK@Z|, PMExt_GetNotificationHandle

	EXPORT	|?PMExt_EventNotification@@YAKKW4PLATFORM_ACTIVITY_EVENT@@@Z| ; PMExt_EventNotification
	EXPORT	|??_C@_1DM@CPLGNN@?$AA?9?$AAP?$AAM?$AAE?$AAx?$AAt?$AA_?$AAE?$AAv?$AAe?$AAn?$AAt?$AAN?$AAo?$AAt?$AAi?$AAf?$AAi?$AAc?$AAa?$AAt?$AAi?$AAo?$AAn?$AA?$CI?$AA?$CJ?$AA?$DN?$AA?$CF?$AAd?$AA?$AA@| [ DATA ] ; `string'
	EXPORT	|??_C@_1JA@IKPNPPKE@?$AA?$CL?$AAP?$AAM?$AAE?$AAx?$AAt?$AA_?$AAE?$AAv?$AAe?$AAn?$AAt?$AAN?$AAo?$AAt?$AAi?$AAf?$AAi?$AAc?$AAa?$AAt?$AAi?$AAo?$AAn?$AA?$CI?$AAd?$AAw?$AAE?$AAx?$AAt?$AAC?$AAo@| [ DATA ] ; `string'

  00000			 AREA	 |.pdata|, PDATA
|$T33670| DCD	|$LN9@PMExt_Even|
	DCD	0x40001501

  00000			 AREA	 |.rdata|, DATA, READONLY
|??_C@_1DM@CPLGNN@?$AA?9?$AAP?$AAM?$AAE?$AAx?$AAt?$AA_?$AAE?$AAv?$AAe?$AAn?$AAt?$AAN?$AAo?$AAt?$AAi?$AAf?$AAi?$AAc?$AAa?$AAt?$AAi?$AAo?$AAn?$AA?$CI?$AA?$CJ?$AA?$DN?$AA?$CF?$AAd?$AA?$AA@| DCB "-"
	DCB	0x0, "P", 0x0, "M", 0x0, "E", 0x0, "x", 0x0, "t", 0x0, "_"
	DCB	0x0, "E", 0x0, "v", 0x0, "e", 0x0, "n", 0x0, "t", 0x0, "N"
	DCB	0x0, "o", 0x0, "t", 0x0, "i", 0x0, "f", 0x0, "i", 0x0, "c"
	DCB	0x0, "a", 0x0, "t", 0x0, "i", 0x0, "o", 0x0, "n", 0x0, "("
	DCB	0x0, ")", 0x0, "=", 0x0, "%", 0x0, "d", 0x0, 0x0, 0x0 ; `string'

  00000			 AREA	 |.rdata|, DATA, READONLY
|??_C@_1JA@IKPNPPKE@?$AA?$CL?$AAP?$AAM?$AAE?$AAx?$AAt?$AA_?$AAE?$AAv?$AAe?$AAn?$AAt?$AAN?$AAo?$AAt?$AAi?$AAf?$AAi?$AAc?$AAa?$AAt?$AAi?$AAo?$AAn?$AA?$CI?$AAd?$AAw?$AAE?$AAx?$AAt?$AAC?$AAo@| DCB "+"
	DCB	0x0, "P", 0x0, "M", 0x0, "E", 0x0, "x", 0x0, "t", 0x0, "_"
	DCB	0x0, "E", 0x0, "v", 0x0, "e", 0x0, "n", 0x0, "t", 0x0, "N"
	DCB	0x0, "o", 0x0, "t", 0x0, "i", 0x0, "f", 0x0, "i", 0x0, "c"
	DCB	0x0, "a", 0x0, "t", 0x0, "i", 0x0, "o", 0x0, "n", 0x0, "("
	DCB	0x0, "d", 0x0, "w", 0x0, "E", 0x0, "x", 0x0, "t", 0x0, "C"
	DCB	0x0, "o", 0x0, "n", 0x0, "t", 0x0, "e", 0x0, "x", 0x0, "t"
	DCB	0x0, "=", 0x0, "0", 0x0, "x", 0x0, "%", 0x0, "0", 0x0, "8"
	DCB	0x0, "X", 0x0, ",", 0x0, " ", 0x0, "p", 0x0, "l", 0x0, "a"
	DCB	0x0, "t", 0x0, "f", 0x0, "o", 0x0, "r", 0x0, "m", 0x0, "A"
	DCB	0x0, "c", 0x0, "t", 0x0, "i", 0x0, "v", 0x0, "i", 0x0, "t"
	DCB	0x0, "y", 0x0, "E", 0x0, "v", 0x0, "e", 0x0, "n", 0x0, "t"
	DCB	0x0, "=", 0x0, "%", 0x0, "d", 0x0, ")", 0x0, 0x0, 0x0 ; `string'
; Function compile flags: /Ogspy

  00000			 AREA	 |.text|, CODE, ARM

  00000		 |?PMExt_EventNotification@@YAKKW4PLATFORM_ACTIVITY_EVENT@@@Z| PROC ; PMExt_EventNotification

; 168  : {

  00000		 |$LN9@PMExt_Even|
  00000	e92d4010	 stmdb       sp!, {r4, lr}
  00004		 |$M33667|
  00004	e1a0e000	 mov         lr, r0

; 169  :     DWORD rc = FALSE;
; 170  : 
; 171  : 	UNREFERENCED_PARAMETER(dwExtContext);
; 172  : 	UNREFERENCED_PARAMETER(platformActivityEvent);
; 173  : 
; 174  :     RETAILMSG(ZONE_FUNCTION, (L"+PMExt_EventNotification(dwExtContext=0x%08X, "
; 175  :         L"platformActivityEvent=%d)", dwExtContext, platformActivityEvent)
; 176  :         );

  00008	e59f4040	 ldr         r4, [pc, #0x40]
  0000c	e5943440	 ldr         r3, [r4, #0x440]
  00010	e3130004	 tst         r3, #4
  00014	0a000004	 beq         |$LN3@PMExt_Even|
  00018	e59f002c	 ldr         r0, [pc, #0x2C]
  0001c	e1a02001	 mov         r2, r1
  00020	e1a0100e	 mov         r1, lr
  00024	eb000000	 bl          NKDbgPrintfW
  00028	e5943440	 ldr         r3, [r4, #0x440]
  0002c		 |$LN3@PMExt_Even|

; 177  : 
; 178  : 
; 179  :     rc = TRUE;
; 180  :     
; 181  :     RETAILMSG(ZONE_FUNCTION, (L"-PMExt_EventNotification()=%d", rc));

  0002c	e3130004	 tst         r3, #4
  00030	159f0010	 ldrne       r0, [pc, #0x10]
  00034	13a01001	 movne       r1, #1
  00038	1b000000	 blne        NKDbgPrintfW

; 182  :     return rc;

  0003c	e3a00001	 mov         r0, #1

; 183  : }

  00040	e8bd4010	 ldmia       sp!, {r4, lr}
  00044	e12fff1e	 bx          lr
  00048		 |$LN10@PMExt_Even|
  00048		 |$LN11@PMExt_Even|
  00048	00000000	 DCD         |??_C@_1DM@CPLGNN@?$AA?9?$AAP?$AAM?$AAE?$AAx?$AAt?$AA_?$AAE?$AAv?$AAe?$AAn?$AAt?$AAN?$AAo?$AAt?$AAi?$AAf?$AAi?$AAc?$AAa?$AAt?$AAi?$AAo?$AAn?$AA?$CI?$AA?$CJ?$AA?$DN?$AA?$CF?$AAd?$AA?$AA@|
  0004c		 |$LN12@PMExt_Even|
  0004c	00000000	 DCD         |??_C@_1JA@IKPNPPKE@?$AA?$CL?$AAP?$AAM?$AAE?$AAx?$AAt?$AA_?$AAE?$AAv?$AAe?$AAn?$AAt?$AAN?$AAo?$AAt?$AAi?$AAf?$AAi?$AAc?$AAa?$AAt?$AAi?$AAo?$AAn?$AA?$CI?$AAd?$AAw?$AAE?$AAx?$AAt?$AAC?$AAo@|
  00050		 |$LN13@PMExt_Even|
  00050	00000000	 DCD         |?dpCurSettings@@3U_DBGPARAM@@A|
  00054		 |$M33668|

			 ENDP  ; |?PMExt_EventNotification@@YAKKW4PLATFORM_ACTIVITY_EVENT@@@Z|, PMExt_EventNotification

	EXPORT	|?PMExt_PMBeforeNewSystemState@@YAKKPBGK@Z| ; PMExt_PMBeforeNewSystemState
	EXPORT	|??_C@_1EG@PJENOECK@?$AA?9?$AAP?$AAM?$AAE?$AAx?$AAt?$AA_?$AAP?$AAM?$AAB?$AAe?$AAf?$AAo?$AAr?$AAe?$AAN?$AAe?$AAw?$AAS?$AAy?$AAs?$AAt?$AAe?$AAm?$AAS?$AAt?$AAa?$AAt?$AAe?$AA?$CI?$AA?$CJ?$AA?$DN@| [ DATA ] ; `string'
	EXPORT	|??_C@_1KM@MOLGDIMM@?$AA?$CL?$AAP?$AAM?$AAE?$AAx?$AAt?$AA_?$AAP?$AAM?$AAB?$AAe?$AAf?$AAo?$AAr?$AAe?$AAN?$AAe?$AAw?$AAS?$AAy?$AAs?$AAt?$AAe?$AAm?$AAS?$AAt?$AAa?$AAt?$AAe?$AA?$CI?$AAd?$AAw@| [ DATA ] ; `string'
	IMPORT	|?PreSystemStateChange@@YAKKPBGK@Z|	; PreSystemStateChange

  00000			 AREA	 |.pdata|, PDATA
|$T33691| DCD	|$LN9@PMExt_PMBe|
	DCD	0x40001c01

  00000			 AREA	 |.rdata|, DATA, READONLY
|??_C@_1EG@PJENOECK@?$AA?9?$AAP?$AAM?$AAE?$AAx?$AAt?$AA_?$AAP?$AAM?$AAB?$AAe?$AAf?$AAo?$AAr?$AAe?$AAN?$AAe?$AAw?$AAS?$AAy?$AAs?$AAt?$AAe?$AAm?$AAS?$AAt?$AAa?$AAt?$AAe?$AA?$CI?$AA?$CJ?$AA?$DN@| DCB "-"
	DCB	0x0, "P", 0x0, "M", 0x0, "E", 0x0, "x", 0x0, "t", 0x0, "_"
	DCB	0x0, "P", 0x0, "M", 0x0, "B", 0x0, "e", 0x0, "f", 0x0, "o"
	DCB	0x0, "r", 0x0, "e", 0x0, "N", 0x0, "e", 0x0, "w", 0x0, "S"
	DCB	0x0, "y", 0x0, "s", 0x0, "t", 0x0, "e", 0x0, "m", 0x0, "S"
	DCB	0x0, "t", 0x0, "a", 0x0, "t", 0x0, "e", 0x0, "(", 0x0, ")"
	DCB	0x0, "=", 0x0, "%", 0x0, "d", 0x0, 0x0, 0x0 ; `string'

  00000			 AREA	 |.rdata|, DATA, READONLY
|??_C@_1KM@MOLGDIMM@?$AA?$CL?$AAP?$AAM?$AAE?$AAx?$AAt?$AA_?$AAP?$AAM?$AAB?$AAe?$AAf?$AAo?$AAr?$AAe?$AAN?$AAe?$AAw?$AAS?$AAy?$AAs?$AAt?$AAe?$AAm?$AAS?$AAt?$AAa?$AAt?$AAe?$AA?$CI?$AAd?$AAw@| DCB "+"
	DCB	0x0, "P", 0x0, "M", 0x0, "E", 0x0, "x", 0x0, "t", 0x0, "_"
	DCB	0x0, "P", 0x0, "M", 0x0, "B", 0x0, "e", 0x0, "f", 0x0, "o"
	DCB	0x0, "r", 0x0, "e", 0x0, "N", 0x0, "e", 0x0, "w", 0x0, "S"
	DCB	0x0, "y", 0x0, "s", 0x0, "t", 0x0, "e", 0x0, "m", 0x0, "S"
	DCB	0x0, "t", 0x0, "a", 0x0, "t", 0x0, "e", 0x0, "(", 0x0, "d"
	DCB	0x0, "w", 0x0, "E", 0x0, "x", 0x0, "t", 0x0, "C", 0x0, "o"
	DCB	0x0, "n", 0x0, "t", 0x0, "e", 0x0, "x", 0x0, "t", 0x0, "="
	DCB	0x0, "0", 0x0, "x", 0x0, "%", 0x0, "0", 0x0, "8", 0x0, "X"
	DCB	0x0, ",", 0x0, " ", 0x0, "l", 0x0, "p", 0x0, "N", 0x0, "e"
	DCB	0x0, "w", 0x0, "S", 0x0, "t", 0x0, "a", 0x0, "t", 0x0, "e"
	DCB	0x0, "N", 0x0, "a", 0x0, "m", 0x0, "e", 0x0, "=", 0x0, "%"
	DCB	0x0, "d", 0x0, ",", 0x0, " ", 0x0, "d", 0x0, "w", 0x0, "F"
	DCB	0x0, "l", 0x0, "a", 0x0, "g", 0x0, "s", 0x0, "=", 0x0, "0"
	DCB	0x0, "x", 0x0, "%", 0x0, "0", 0x0, "8", 0x0, "X", 0x0, ")"
	DCB	0x0, 0x0, 0x0				; `string'
; Function compile flags: /Ogspy

  00000			 AREA	 |.text|, CODE, ARM

  00000		 |?PMExt_PMBeforeNewSystemState@@YAKKPBGK@Z| PROC ; PMExt_PMBeforeNewSystemState

; 198  : {

  00000		 |$LN9@PMExt_PMBe|
  00000	e92d40f0	 stmdb       sp!, {r4 - r7, lr}
  00004		 |$M33688|
  00004	e1a04002	 mov         r4, r2
  00008	e1a05001	 mov         r5, r1
  0000c	e1a06000	 mov         r6, r0

; 199  :     DWORD rc;
; 200  :     RETAILMSG(ZONE_FUNCTION, (L"+PMExt_PMBeforeNewSystemState(dwExtContext=0x%08X, "
; 201  :         L"lpNewStateName=%d, dwFlags=0x%08X)", 
; 202  :         dwExtContext, lpNewStateName, dwFlags)
; 203  :         );

  00010	e59f7054	 ldr         r7, [pc, #0x54]
  00014	e5973440	 ldr         r3, [r7, #0x440]
  00018	e3130004	 tst         r3, #4
  0001c	159f0044	 ldrne       r0, [pc, #0x44]
  00020	11a03004	 movne       r3, r4
  00024	11a02005	 movne       r2, r5
  00028	11a01006	 movne       r1, r6
  0002c	1b000000	 blne        NKDbgPrintfW

; 204  : 
; 205  :     rc = PreSystemStateChange(dwExtContext, lpNewStateName, dwFlags);

  00030	e1a02004	 mov         r2, r4
  00034	e1a01005	 mov         r1, r5
  00038	e1a00006	 mov         r0, r6
  0003c	eb000000	 bl          |?PreSystemStateChange@@YAKKPBGK@Z|

; 206  :     
; 207  :     RETAILMSG(ZONE_FUNCTION, (L"-PMExt_PMBeforeNewSystemState()=%d", rc));

  00040	e5973440	 ldr         r3, [r7, #0x440]
  00044	e1a04000	 mov         r4, r0
  00048	e3130004	 tst         r3, #4
  0004c	159f0010	 ldrne       r0, [pc, #0x10]
  00050	11a01004	 movne       r1, r4
  00054	1b000000	 blne        NKDbgPrintfW

; 208  :     return rc;
; 209  : }

  00058	e1a00004	 mov         r0, r4
  0005c	e8bd40f0	 ldmia       sp!, {r4 - r7, lr}
  00060	e12fff1e	 bx          lr
  00064		 |$LN10@PMExt_PMBe|
  00064		 |$LN11@PMExt_PMBe|
  00064	00000000	 DCD         |??_C@_1EG@PJENOECK@?$AA?9?$AAP?$AAM?$AAE?$AAx?$AAt?$AA_?$AAP?$AAM?$AAB?$AAe?$AAf?$AAo?$AAr?$AAe?$AAN?$AAe?$AAw?$AAS?$AAy?$AAs?$AAt?$AAe?$AAm?$AAS?$AAt?$AAa?$AAt?$AAe?$AA?$CI?$AA?$CJ?$AA?$DN@|
  00068		 |$LN12@PMExt_PMBe|
  00068	00000000	 DCD         |??_C@_1KM@MOLGDIMM@?$AA?$CL?$AAP?$AAM?$AAE?$AAx?$AAt?$AA_?$AAP?$AAM?$AAB?$AAe?$AAf?$AAo?$AAr?$AAe?$AAN?$AAe?$AAw?$AAS?$AAy?$AAs?$AAt?$AAe?$AAm?$AAS?$AAt?$AAa?$AAt?$AAe?$AA?$CI?$AAd?$AAw@|
  0006c		 |$LN13@PMExt_PMBe|
  0006c	00000000	 DCD         |?dpCurSettings@@3U_DBGPARAM@@A|
  00070		 |$M33689|

			 ENDP  ; |?PMExt_PMBeforeNewSystemState@@YAKKPBGK@Z|, PMExt_PMBeforeNewSystemState

	EXPORT	|?PMExt_PMAfterNewSystemState@@YAKKPBGK@Z| ; PMExt_PMAfterNewSystemState
	EXPORT	|??_C@_1EE@FNNDMKCF@?$AA?9?$AAP?$AAM?$AAE?$AAx?$AAt?$AA_?$AAP?$AAM?$AAA?$AAf?$AAt?$AAe?$AAr?$AAN?$AAe?$AAw?$AAS?$AAy?$AAs?$AAt?$AAe?$AAm?$AAS?$AAt?$AAa?$AAt?$AAe?$AA?$CI?$AA?$CJ?$AA?$DN?$AA?$CF@| [ DATA ] ; `string'
	EXPORT	|??_C@_1KK@ILFJHBO@?$AA?$CL?$AAP?$AAM?$AAE?$AAx?$AAt?$AA_?$AAP?$AAM?$AAA?$AAf?$AAt?$AAe?$AAr?$AAN?$AAe?$AAw?$AAS?$AAy?$AAs?$AAt?$AAe?$AAm?$AAS?$AAt?$AAa?$AAt?$AAe?$AA?$CI?$AAd?$AAw?$AAE@| [ DATA ] ; `string'
	IMPORT	|?PostSystemStateChange@@YAKKPBGK@Z|	; PostSystemStateChange

  00000			 AREA	 |.pdata|, PDATA
|$T33712| DCD	|$LN9@PMExt_PMAf|
	DCD	0x40001c01

  00000			 AREA	 |.rdata|, DATA, READONLY
|??_C@_1EE@FNNDMKCF@?$AA?9?$AAP?$AAM?$AAE?$AAx?$AAt?$AA_?$AAP?$AAM?$AAA?$AAf?$AAt?$AAe?$AAr?$AAN?$AAe?$AAw?$AAS?$AAy?$AAs?$AAt?$AAe?$AAm?$AAS?$AAt?$AAa?$AAt?$AAe?$AA?$CI?$AA?$CJ?$AA?$DN?$AA?$CF@| DCB "-"
	DCB	0x0, "P", 0x0, "M", 0x0, "E", 0x0, "x", 0x0, "t", 0x0, "_"
	DCB	0x0, "P", 0x0, "M", 0x0, "A", 0x0, "f", 0x0, "t", 0x0, "e"
	DCB	0x0, "r", 0x0, "N", 0x0, "e", 0x0, "w", 0x0, "S", 0x0, "y"
	DCB	0x0, "s", 0x0, "t", 0x0, "e", 0x0, "m", 0x0, "S", 0x0, "t"
	DCB	0x0, "a", 0x0, "t", 0x0, "e", 0x0, "(", 0x0, ")", 0x0, "="
	DCB	0x0, "%", 0x0, "d", 0x0, 0x0, 0x0	; `string'

  00000			 AREA	 |.rdata|, DATA, READONLY
|??_C@_1KK@ILFJHBO@?$AA?$CL?$AAP?$AAM?$AAE?$AAx?$AAt?$AA_?$AAP?$AAM?$AAA?$AAf?$AAt?$AAe?$AAr?$AAN?$AAe?$AAw?$AAS?$AAy?$AAs?$AAt?$AAe?$AAm?$AAS?$AAt?$AAa?$AAt?$AAe?$AA?$CI?$AAd?$AAw?$AAE@| DCB "+"
	DCB	0x0, "P", 0x0, "M", 0x0, "E", 0x0, "x", 0x0, "t", 0x0, "_"
	DCB	0x0, "P", 0x0, "M", 0x0, "A", 0x0, "f", 0x0, "t", 0x0, "e"
	DCB	0x0, "r", 0x0, "N", 0x0, "e", 0x0, "w", 0x0, "S", 0x0, "y"
	DCB	0x0, "s", 0x0, "t", 0x0, "e", 0x0, "m", 0x0, "S", 0x0, "t"
	DCB	0x0, "a", 0x0, "t", 0x0, "e", 0x0, "(", 0x0, "d", 0x0, "w"
	DCB	0x0, "E", 0x0, "x", 0x0, "t", 0x0, "C", 0x0, "o", 0x0, "n"
	DCB	0x0, "t", 0x0, "e", 0x0, "x", 0x0, "t", 0x0, "=", 0x0, "0"
	DCB	0x0, "x", 0x0, "%", 0x0, "0", 0x0, "8", 0x0, "X", 0x0, ","
	DCB	0x0, " ", 0x0, "l", 0x0, "p", 0x0, "N", 0x0, "e", 0x0, "w"
	DCB	0x0, "S", 0x0, "t", 0x0, "a", 0x0, "t", 0x0, "e", 0x0, "N"
	DCB	0x0, "a", 0x0, "m", 0x0, "e", 0x0, "=", 0x0, "%", 0x0, "d"
	DCB	0x0, ",", 0x0, " ", 0x0, "d", 0x0, "w", 0x0, "F", 0x0, "l"
	DCB	0x0, "a", 0x0, "g", 0x0, "s", 0x0, "=", 0x0, "0", 0x0, "x"
	DCB	0x0, "%", 0x0, "0", 0x0, "8", 0x0, "X", 0x0, ")", 0x0, 0x0
	DCB	0x0					; `string'
; Function compile flags: /Ogspy

  00000			 AREA	 |.text|, CODE, ARM

  00000		 |?PMExt_PMAfterNewSystemState@@YAKKPBGK@Z| PROC ; PMExt_PMAfterNewSystemState

; 224  : {

  00000		 |$LN9@PMExt_PMAf|
  00000	e92d40f0	 stmdb       sp!, {r4 - r7, lr}
  00004		 |$M33709|
  00004	e1a04002	 mov         r4, r2
  00008	e1a05001	 mov         r5, r1
  0000c	e1a06000	 mov         r6, r0

; 225  :     DWORD rc;
; 226  :     RETAILMSG(ZONE_FUNCTION, (L"+PMExt_PMAfterNewSystemState(dwExtContext=0x%08X, "
; 227  :         L"lpNewStateName=%d, dwFlags=0x%08X)", 
; 228  :         dwExtContext, lpNewStateName, dwFlags)
; 229  :         );

  00010	e59f7054	 ldr         r7, [pc, #0x54]
  00014	e5973440	 ldr         r3, [r7, #0x440]
  00018	e3130004	 tst         r3, #4
  0001c	159f0044	 ldrne       r0, [pc, #0x44]
  00020	11a03004	 movne       r3, r4
  00024	11a02005	 movne       r2, r5
  00028	11a01006	 movne       r1, r6
  0002c	1b000000	 blne        NKDbgPrintfW

; 230  : 
; 231  :     rc = PostSystemStateChange(dwExtContext, lpNewStateName, dwFlags);

  00030	e1a02004	 mov         r2, r4
  00034	e1a01005	 mov         r1, r5
  00038	e1a00006	 mov         r0, r6
  0003c	eb000000	 bl          |?PostSystemStateChange@@YAKKPBGK@Z|

; 232  :     
; 233  :     RETAILMSG(ZONE_FUNCTION, (L"-PMExt_PMAfterNewSystemState()=%d", rc));

  00040	e5973440	 ldr         r3, [r7, #0x440]
  00044	e1a04000	 mov         r4, r0
  00048	e3130004	 tst         r3, #4
  0004c	159f0010	 ldrne       r0, [pc, #0x10]
  00050	11a01004	 movne       r1, r4
  00054	1b000000	 blne        NKDbgPrintfW

; 234  :     return rc;
; 235  : }

  00058	e1a00004	 mov         r0, r4
  0005c	e8bd40f0	 ldmia       sp!, {r4 - r7, lr}
  00060	e12fff1e	 bx          lr
  00064		 |$LN10@PMExt_PMAf|
  00064		 |$LN11@PMExt_PMAf|
  00064	00000000	 DCD         |??_C@_1EE@FNNDMKCF@?$AA?9?$AAP?$AAM?$AAE?$AAx?$AAt?$AA_?$AAP?$AAM?$AAA?$AAf?$AAt?$AAe?$AAr?$AAN?$AAe?$AAw?$AAS?$AAy?$AAs?$AAt?$AAe?$AAm?$AAS?$AAt?$AAa?$AAt?$AAe?$AA?$CI?$AA?$CJ?$AA?$DN?$AA?$CF@|
  00068		 |$LN12@PMExt_PMAf|
  00068	00000000	 DCD         |??_C@_1KK@ILFJHBO@?$AA?$CL?$AAP?$AAM?$AAE?$AAx?$AAt?$AA_?$AAP?$AAM?$AAA?$AAf?$AAt?$AAe?$AAr?$AAN?$AAe?$AAw?$AAS?$AAy?$AAs?$AAt?$AAe?$AAm?$AAS?$AAt?$AAa?$AAt?$AAe?$AA?$CI?$AAd?$AAw?$AAE@|
  0006c		 |$LN13@PMExt_PMAf|
  0006c	00000000	 DCD         |?dpCurSettings@@3U_DBGPARAM@@A|
  00070		 |$M33710|

			 ENDP  ; |?PMExt_PMAfterNewSystemState@@YAKKPBGK@Z|, PMExt_PMAfterNewSystemState

	EXPORT	|DllEntry|
	IMPORT	|DisableThreadLibraryCalls|
	IMPORT	|RegisterDbgZones|

  00000			 AREA	 |.pdata|, PDATA
|$T33727| DCD	|$LN6@DllEntry|
	DCD	0x40000c01
; Function compile flags: /Ogspy

  00000			 AREA	 |.text|, CODE, ARM

  00000		 |DllEntry| PROC

; 250  : {

  00000		 |$LN6@DllEntry|
  00000	e92d4010	 stmdb       sp!, {r4, lr}
  00004		 |$M33724|
  00004	e1a04000	 mov         r4, r0

; 251  :     UNREFERENCED_PARAMETER(pvReserved);
; 252  :     if (reason == DLL_PROCESS_ATTACH)

  00008	e3510001	 cmp         r1, #1
  0000c	1a000003	 bne         |$LN1@DllEntry|

; 253  :         {
; 254  :         RETAILREGISTERZONES((HMODULE)hInstance);

  00010	e59f1014	 ldr         r1, [pc, #0x14]
  00014	eb000000	 bl          RegisterDbgZones

; 255  :         DisableThreadLibraryCalls((HMODULE)hInstance);

  00018	e1a00004	 mov         r0, r4
  0001c	eb000000	 bl          DisableThreadLibraryCalls
  00020		 |$LN1@DllEntry|

; 256  :         }
; 257  :     return TRUE;

  00020	e3a00001	 mov         r0, #1

; 258  : }

  00024	e8bd4010	 ldmia       sp!, {r4, lr}
  00028	e12fff1e	 bx          lr
  0002c		 |$LN7@DllEntry|
  0002c		 |$LN8@DllEntry|
  0002c	00000000	 DCD         |?dpCurSettings@@3U_DBGPARAM@@A|
  00030		 |$M33725|

			 ENDP  ; |DllEntry|

	END
