; Listing generated by Microsoft (R) Optimizing Compiler Version 14.01.60511.01 

	TTL	C:\WINCE600\PLATFORM\EVM_OMAP3530\SRC\DRIVERS\NLED\nled.c
	CODE32

  00000			 AREA	 |.drectve|, DRECTVE
	DCB	"-defaultlib:LIBCMT "
	DCB	"-defaultlib:OLDNAMES "

	EXPORT	|g_GPIOId| [ DATA ]
	EXPORT	|g_GPIOActiveState| [ DATA ]
	EXPORT	|g_dwNbLeds| [ DATA ]
	EXPORT	|g_LastLEDIsVibrator| [ DATA ]
	EXPORT	|NLedCpuFamily| [ DATA ]

  00000			 AREA	 |.bss|, NOINIT
|g_GPIOActiveState| % 0x4
|g_LastLEDIsVibrator| % 0x4

  00000			 AREA	 |.data|, DATA
|g_GPIOId| DCD	0x8
|g_dwNbLeds| DCD 0x1
|NLedCpuFamily| DCD 0xffffffff

  00000			 AREA	 |.rdata|, DATA, READONLY
|EdbgVendorIds| DCW 0x0
	DCW	0x0
	DCD	0x4033
	DCB	0x1
	DCB	"AD", 0x0
	DCW	0x1050
	DCW	0x940
	DCD	0x4005
	DCB	0x1
	DCB	"LS", 0x0
	DCW	0x1050
	DCW	0x940
	DCD	0x2078
	DCB	0x1
	DCB	"LS", 0x0
	DCW	0x10ec
	DCW	0x8029
	DCD	0xc0f0
	DCB	0x1
	DCB	"KS", 0x0
	DCW	0x10ec
	DCW	0x8129
	DCD	0x0
	DCB	0x4
	DCB	"RT", 0x0
	DCW	0x10ec
	DCW	0x8139
	DCD	0x900b
	DCB	0x4
	DCB	"RT", 0x0
	DCW	0x10ec
	DCW	0x8139
	DCD	0xd0c9
	DCB	0x4
	DCB	"RT", 0x0
	DCW	0x10ec
	DCW	0x8139
	DCD	0xe04c
	DCB	0x4
	DCB	"RT", 0x0
	DCW	0x1186
	DCW	0x1300
	DCD	0x50ba
	DCB	0x4
	DCB	"DL", 0x0
	DCW	0x100b
	DCW	0x20
	DCD	0xa0cc
	DCB	0x5
	DCB	"NG", 0x0
	DCW	0x10b7
	DCW	0x9050
	DCD	0x6008
	DCB	0x6
	DCB	"3C", 0x0
	DCW	0x10b7
	DCW	0x9200
	DCD	0x476
	DCB	0x6
	DCB	"3C", 0x0
|LedPinMux| DCW	0x521
	%	2
	DCD	0x20
	DCW	0xffff
	%	2
	DCD	0x0
	EXPORT	|NLedBoardInit|
	EXPORT	|??_C@_1HI@DOABGFCE@?$AAC?$AA?3?$AA?2?$AAW?$AAI?$AAN?$AAC?$AAE?$AA6?$AA0?$AA0?$AA?2?$AAP?$AAL?$AAA?$AAT?$AAF?$AAO?$AAR?$AAM?$AA?2?$AAE?$AAV?$AAM?$AA_?$AAO?$AAM?$AAA?$AAP?$AA3?$AA5?$AA3@| [ DATA ] ; `string'
	EXPORT	|??_C@_1CI@OHCJFJPM@?$AAE?$AAR?$AAR?$AAO?$AAR?$AA?3?$AA?5?$AA?$CF?$AAs?$AA?5?$AAl?$AAi?$AAn?$AAe?$AA?5?$AA?$CF?$AAd?$AA?3?$AA?5?$AA?$AA@| [ DATA ] ; `string'
	EXPORT	|??_C@_1GM@FJDIJFGB@?$AAU?$AAn?$AAa?$AAb?$AAl?$AAe?$AA?5?$AAt?$AAo?$AA?5?$AAr?$AAe?$AAq?$AAu?$AAe?$AAs?$AAt?$AA?5?$AAP?$AAA?$AAD?$AA?5?$AAc?$AAo?$AAn?$AAf?$AAi?$AAg?$AAu?$AAr?$AAa?$AAt@| [ DATA ] ; `string'
	IMPORT	|NKDbgPrintfW|
	IMPORT	|RequestAndConfigurePadArray|
	IMPORT	|KernelIoControl|
; File c:\wince600\platform\evm_omap3530\src\drivers\nled\nled.c

  00000			 AREA	 |.pdata|, PDATA
|$T47053| DCD	|$LN9@NLedBoardI|
	DCD	0x40002702

  00000			 AREA	 |.rdata|, DATA, READONLY
|??_C@_1HI@DOABGFCE@?$AAC?$AA?3?$AA?2?$AAW?$AAI?$AAN?$AAC?$AAE?$AA6?$AA0?$AA0?$AA?2?$AAP?$AAL?$AAA?$AAT?$AAF?$AAO?$AAR?$AAM?$AA?2?$AAE?$AAV?$AAM?$AA_?$AAO?$AAM?$AAA?$AAP?$AA3?$AA5?$AA3@| DCB "C"
	DCB	0x0, ":", 0x0, "\\", 0x0, "W", 0x0, "I", 0x0, "N", 0x0, "C"
	DCB	0x0, "E", 0x0, "6", 0x0, "0", 0x0, "0", 0x0, "\\", 0x0, "P"
	DCB	0x0, "L", 0x0, "A", 0x0, "T", 0x0, "F", 0x0, "O", 0x0, "R"
	DCB	0x0, "M", 0x0, "\\", 0x0, "E", 0x0, "V", 0x0, "M", 0x0, "_"
	DCB	0x0, "O", 0x0, "M", 0x0, "A", 0x0, "P", 0x0, "3", 0x0, "5"
	DCB	0x0, "3", 0x0, "0", 0x0, "\\", 0x0, "S", 0x0, "R", 0x0, "C"
	DCB	0x0, "\\", 0x0, "D", 0x0, "R", 0x0, "I", 0x0, "V", 0x0, "E"
	DCB	0x0, "R", 0x0, "S", 0x0, "\\", 0x0, "N", 0x0, "L", 0x0, "E"
	DCB	0x0, "D", 0x0, "\\", 0x0, ".", 0x0, "\\", 0x0, "n", 0x0, "l"
	DCB	0x0, "e", 0x0, "d", 0x0, ".", 0x0, "c", 0x0, 0x0, 0x0 ; `string'

  00000			 AREA	 |.rdata|, DATA, READONLY
|??_C@_1CI@OHCJFJPM@?$AAE?$AAR?$AAR?$AAO?$AAR?$AA?3?$AA?5?$AA?$CF?$AAs?$AA?5?$AAl?$AAi?$AAn?$AAe?$AA?5?$AA?$CF?$AAd?$AA?3?$AA?5?$AA?$AA@| DCB "E"
	DCB	0x0, "R", 0x0, "R", 0x0, "O", 0x0, "R", 0x0, ":", 0x0, " "
	DCB	0x0, "%", 0x0, "s", 0x0, " ", 0x0, "l", 0x0, "i", 0x0, "n"
	DCB	0x0, "e", 0x0, " ", 0x0, "%", 0x0, "d", 0x0, ":", 0x0, " "
	DCB	0x0, 0x0, 0x0				; `string'

  00000			 AREA	 |.rdata|, DATA, READONLY
|??_C@_1GM@FJDIJFGB@?$AAU?$AAn?$AAa?$AAb?$AAl?$AAe?$AA?5?$AAt?$AAo?$AA?5?$AAr?$AAe?$AAq?$AAu?$AAe?$AAs?$AAt?$AA?5?$AAP?$AAA?$AAD?$AA?5?$AAc?$AAo?$AAn?$AAf?$AAi?$AAg?$AAu?$AAr?$AAa?$AAt@| DCB "U"
	DCB	0x0, "n", 0x0, "a", 0x0, "b", 0x0, "l", 0x0, "e", 0x0, " "
	DCB	0x0, "t", 0x0, "o", 0x0, " ", 0x0, "r", 0x0, "e", 0x0, "q"
	DCB	0x0, "u", 0x0, "e", 0x0, "s", 0x0, "t", 0x0, " ", 0x0, "P"
	DCB	0x0, "A", 0x0, "D", 0x0, " ", 0x0, "c", 0x0, "o", 0x0, "n"
	DCB	0x0, "f", 0x0, "i", 0x0, "g", 0x0, "u", 0x0, "r", 0x0, "a"
	DCB	0x0, "t", 0x0, "i", 0x0, "o", 0x0, "n", 0x0, " ", 0x0, "f"
	DCB	0x0, "o", 0x0, "r", 0x0, " ", 0x0, "N", 0x0, "L", 0x0, "E"
	DCB	0x0, "D", 0x0, " ", 0x0, "d", 0x0, "r", 0x0, "i", 0x0, "v"
	DCB	0x0, "e", 0x0, "r", 0x0, 0xd, 0x0, 0xa, 0x0, 0x0, 0x0 ; `string'
; Function compile flags: /Ogspy

  00000			 AREA	 |.text|, CODE, ARM

  00000		 |NLedBoardInit| PROC

; 40   : {  

  00000		 |$LN9@NLedBoardI|
  00000	e92d4030	 stmdb       sp!, {r4, r5, lr}
  00004	e24dd008	 sub         sp, sp, #8
  00008		 |$M47050|

; 41   :     if (NLedCpuFamily == -1)

  00008	e59f4088	 ldr         r4, [pc, #0x88]
  0000c	e5943000	 ldr         r3, [r4]
  00010	e3730001	 cmn         r3, #1
  00014	1a000009	 bne         |$LN4@NLedBoardI|

; 42   :     {
; 43   :         KernelIoControl(
; 44   :                         IOCTL_HAL_GET_CPUFAMILY,
; 45   :                         &NLedCpuFamily,
; 46   :                         sizeof(DWORD),
; 47   :                         &NLedCpuFamily,
; 48   :                         sizeof(DWORD),
; 49   :                         NULL
; 50   :                         );

  00018	e59f0074	 ldr         r0, [pc, #0x74]
  0001c	e3a0e000	 mov         lr, #0
  00020	e3a05004	 mov         r5, #4
  00024	e1a03004	 mov         r3, r4
  00028	e3a02004	 mov         r2, #4
  0002c	e1a01004	 mov         r1, r4
  00030	e58de004	 str         lr, [sp, #4]
  00034	e58d5000	 str         r5, [sp]
  00038	eb000000	 bl          KernelIoControl
  0003c	e5943000	 ldr         r3, [r4]
  00040		 |$LN4@NLedBoardI|

; 51   :     }
; 52   :     if( NLedCpuFamily != CPU_FAMILY_DM37XX)

  00040	e3530001	 cmp         r3, #1
  00044	0a00000a	 beq         |$LN1@NLedBoardI|

; 53   :     {    
; 54   :         if (RequestAndConfigurePadArray(LedPinMux))

  00048	e59f0040	 ldr         r0, [pc, #0x40]
  0004c	eb000000	 bl          RequestAndConfigurePadArray
  00050	e3500000	 cmp         r0, #0

; 55   :         {
; 56   :             return TRUE;

  00054	13a00001	 movne       r0, #1
  00058	1a000006	 bne         |$LN5@NLedBoardI|

; 57   :         }
; 58   :         else
; 59   :         {
; 60   :             ERRORMSG(1,(TEXT("Unable to request PAD configuration for NLED driver\r\n")));

  0005c	e59f1028	 ldr         r1, [pc, #0x28]
  00060	e59f0020	 ldr         r0, [pc, #0x20]
  00064	e3a0203c	 mov         r2, #0x3C
  00068	eb000000	 bl          NKDbgPrintfW
  0006c	e59f0010	 ldr         r0, [pc, #0x10]
  00070	eb000000	 bl          NKDbgPrintfW
  00074		 |$LN1@NLedBoardI|

; 61   :             return FALSE;
; 62   :         }
; 63   :     }
; 64   :     return FALSE;

  00074	e3a00000	 mov         r0, #0
  00078		 |$LN5@NLedBoardI|

; 65   : }

  00078	e28dd008	 add         sp, sp, #8
  0007c	e8bd4030	 ldmia       sp!, {r4, r5, lr}
  00080	e12fff1e	 bx          lr
  00084		 |$LN10@NLedBoardI|
  00084		 |$LN11@NLedBoardI|
  00084	00000000	 DCD         |??_C@_1GM@FJDIJFGB@?$AAU?$AAn?$AAa?$AAb?$AAl?$AAe?$AA?5?$AAt?$AAo?$AA?5?$AAr?$AAe?$AAq?$AAu?$AAe?$AAs?$AAt?$AA?5?$AAP?$AAA?$AAD?$AA?5?$AAc?$AAo?$AAn?$AAf?$AAi?$AAg?$AAu?$AAr?$AAa?$AAt@|
  00088		 |$LN12@NLedBoardI|
  00088	00000000	 DCD         |??_C@_1CI@OHCJFJPM@?$AAE?$AAR?$AAR?$AAO?$AAR?$AA?3?$AA?5?$AA?$CF?$AAs?$AA?5?$AAl?$AAi?$AAn?$AAe?$AA?5?$AA?$CF?$AAd?$AA?3?$AA?5?$AA?$AA@|
  0008c		 |$LN13@NLedBoardI|
  0008c	00000000	 DCD         |??_C@_1HI@DOABGFCE@?$AAC?$AA?3?$AA?2?$AAW?$AAI?$AAN?$AAC?$AAE?$AA6?$AA0?$AA0?$AA?2?$AAP?$AAL?$AAA?$AAT?$AAF?$AAO?$AAR?$AAM?$AA?2?$AAE?$AAV?$AAM?$AA_?$AAO?$AAM?$AAA?$AAP?$AA3?$AA5?$AA3@|
  00090		 |$LN14@NLedBoardI|
  00090	00000000	 DCD         |LedPinMux|
  00094		 |$LN15@NLedBoardI|
  00094	0101200c	 DCD         0x101200c
  00098		 |$LN16@NLedBoardI|
  00098	00000000	 DCD         |NLedCpuFamily|
  0009c		 |$M47051|

			 ENDP  ; |NLedBoardInit|

	EXPORT	|NLedBoardDeinit|
	IMPORT	|ReleasePadArray|

  00000			 AREA	 |.pdata|, PDATA
|$T47069| DCD	|$LN6@NLedBoardD|
	DCD	0x40000f01
; Function compile flags: /Ogspy

  00000			 AREA	 |.text|, CODE, ARM

  00000		 |NLedBoardDeinit| PROC

; 68   : {

  00000		 |$LN6@NLedBoardD|
  00000	e52de004	 str         lr, [sp, #-4]!
  00004		 |$M47066|

; 69   :     if( NLedCpuFamily != CPU_FAMILY_DM37XX)

  00004	e59f302c	 ldr         r3, [pc, #0x2C]
  00008	e5933000	 ldr         r3, [r3]
  0000c	e3530001	 cmp         r3, #1
  00010	0a000004	 beq         |$LN1@NLedBoardD|

; 70   :     {
; 71   :         ReleasePadArray(LedPinMux);

  00014	e59f0018	 ldr         r0, [pc, #0x18]
  00018	eb000000	 bl          ReleasePadArray

; 72   :         return TRUE;

  0001c	e3a00001	 mov         r0, #1

; 75   : }

  00020	e49de004	 ldr         lr, [sp], #4
  00024	e12fff1e	 bx          lr
  00028		 |$LN1@NLedBoardD|

; 73   :     }
; 74   :     return FALSE;

  00028	e3a00000	 mov         r0, #0

; 75   : }

  0002c	e49de004	 ldr         lr, [sp], #4
  00030	e12fff1e	 bx          lr
  00034		 |$LN7@NLedBoardD|
  00034		 |$LN8@NLedBoardD|
  00034	00000000	 DCD         |LedPinMux|
  00038		 |$LN9@NLedBoardD|
  00038	00000000	 DCD         |NLedCpuFamily|
  0003c		 |$M47067|

			 ENDP  ; |NLedBoardDeinit|

	END
