; Listing generated by Microsoft (R) Optimizing Compiler Version 14.01.60511.01 

	TTL	C:\WINCE600\PLATFORM\COMMON\SRC\COMMON\INTR\BASE_REFCOUNT\map_refcount.c
	CODE32

  00000			 AREA	 |.drectve|, DRECTVE
	DCB	"-defaultlib:LIBCMT "
	DCB	"-defaultlib:OLDNAMES "

	EXPORT	|OALIntrMapInit|
	EXPORT	|??_C@_1CE@HFBIALPK@?$AA?9?$AAO?$AAA?$AAL?$AAI?$AAn?$AAt?$AAr?$AAM?$AAa?$AAp?$AAI?$AAn?$AAi?$AAt?$AA?$AN?$AA?6?$AA?$AA@| [ DATA ] ; `string'
	EXPORT	|??_C@_1CE@LMNIPMAG@?$AA?$CL?$AAO?$AAA?$AAL?$AAI?$AAn?$AAt?$AAr?$AAM?$AAa?$AAp?$AAI?$AAn?$AAi?$AAt?$AA?$AN?$AA?6?$AA?$AA@| [ DATA ] ; `string'
	IMPORT	|NKDbgPrintfW|
	IMPORT	|dpCurSettings|

  00000			 AREA	 |.bss|, NOINIT
|g_oalIrqMaskRefCount| % 0x100
|g_oalIrqMaskRefCount| % 0x100
|g_oalIrqRefCount| % 0x100
|g_oalIrq2SysIntr| % 0x100
|g_oalSysIntr2Irq| % 0x120
; File c:\wince600\platform\common\src\common\intr\base_refcount\map_refcount.c

  00000			 AREA	 |.pdata|, PDATA
|$T39405| DCD	|$LN37@OALIntrMap|
	DCD	0x40002b01

  00000			 AREA	 |.rdata|, DATA, READONLY
|??_C@_1CE@HFBIALPK@?$AA?9?$AAO?$AAA?$AAL?$AAI?$AAn?$AAt?$AAr?$AAM?$AAa?$AAp?$AAI?$AAn?$AAi?$AAt?$AA?$AN?$AA?6?$AA?$AA@| DCB "-"
	DCB	0x0, "O", 0x0, "A", 0x0, "L", 0x0, "I", 0x0, "n", 0x0, "t"
	DCB	0x0, "r", 0x0, "M", 0x0, "a", 0x0, "p", 0x0, "I", 0x0, "n"
	DCB	0x0, "i", 0x0, "t", 0x0, 0xd, 0x0, 0xa, 0x0, 0x0, 0x0 ; `string'

  00000			 AREA	 |.rdata|, DATA, READONLY
|??_C@_1CE@LMNIPMAG@?$AA?$CL?$AAO?$AAA?$AAL?$AAI?$AAn?$AAt?$AAr?$AAM?$AAa?$AAp?$AAI?$AAn?$AAi?$AAt?$AA?$AN?$AA?6?$AA?$AA@| DCB "+"
	DCB	0x0, "O", 0x0, "A", 0x0, "L", 0x0, "I", 0x0, "n", 0x0, "t"
	DCB	0x0, "r", 0x0, "M", 0x0, "a", 0x0, "p", 0x0, "I", 0x0, "n"
	DCB	0x0, "i", 0x0, "t", 0x0, 0xd, 0x0, 0xa, 0x0, 0x0, 0x0 ; `string'
; Function compile flags: /Ogspy

  00000			 AREA	 |.text|, CODE, ARM

  00000		 |OALIntrMapInit| PROC

; 44   : {

  00000		 |$LN37@OALIntrMap|
  00000	e92d4010	 stmdb       sp!, {r4, lr}
  00004		 |$M39402|

; 45   :     UINT32 i;
; 46   : 
; 47   :     OALMSG(OAL_FUNC&&OAL_INTR, (L"+OALIntrMapInit\r\n"));

  00004	e59f409c	 ldr         r4, [pc, #0x9C]
  00008	e5943440	 ldr         r3, [r4, #0x440]
  0000c	e3130004	 tst         r3, #4
  00010	0a000004	 beq         |$LN15@OALIntrMap|
  00014	e3130901	 tst         r3, #1, 18
  00018	0a000002	 beq         |$LN15@OALIntrMap|
  0001c	e59f0080	 ldr         r0, [pc, #0x80]
  00020	eb000000	 bl          NKDbgPrintfW
  00024	e5943440	 ldr         r3, [r4, #0x440]
  00028		 |$LN15@OALIntrMap|

; 48   : 
; 49   :     // Initialize interrupt maps
; 50   :     for (i = 0; i < SYSINTR_MAXIMUM; i++)
; 51   :         {
; 52   :         g_oalSysIntr2Irq[i] = OAL_INTR_IRQ_UNDEFINED;

  00028	e59f2070	 ldr         r2, [pc, #0x70]
  0002c	e3e0e000	 mvn         lr, #0
  00030	e2821c01	 add         r1, r2, #1, 24
  00034	e2810e12	 add         r0, r1, #0x12, 28
  00038		 |$LN27@OALIntrMap|
  00038	e481e004	 str         lr, [r1], #4
  0003c	e1510000	 cmp         r1, r0
  00040	1afffffc	 bne         |$LN27@OALIntrMap|

; 53   :         }
; 54   :     for (i = 0; i < OAL_INTR_IRQ_MAXIMUM; i++)
; 55   :         {
; 56   :         g_oalIrq2SysIntr[i] = SYSINTR_UNDEFINED;

  00044	e2821e22	 add         r1, r2, #0x22, 28
  00048	e2810c01	 add         r0, r1, #1, 24
  0004c		 |$LN29@OALIntrMap|
  0004c	e481e004	 str         lr, [r1], #4
  00050	e1510000	 cmp         r1, r0
  00054	1afffffc	 bne         |$LN29@OALIntrMap|

; 57   :         }
; 58   : 
; 59   :     // Initialize reference counting tables - all interrupts start out disabled and unmasked
; 60   :     for (i = 0; i < OAL_INTR_IRQ_MAXIMUM; i++)
; 61   :         {
; 62   :         g_oalIrqRefCount[i] = 0;

  00058	e2821e32	 add         r1, r2, #0x32, 28
  0005c	e2810c01	 add         r0, r1, #1, 24
  00060	e3a0e000	 mov         lr, #0
  00064		 |$LN31@OALIntrMap|
  00064	e481e004	 str         lr, [r1], #4
  00068	e1510000	 cmp         r1, r0
  0006c	1afffffc	 bne         |$LN31@OALIntrMap|

; 63   :         }
; 64   :     for (i = 0; i < OAL_INTR_IRQ_MAXIMUM; i++)
; 65   :         {
; 66   :         g_oalIrqMaskRefCount[i] = 0;

  00070	e3a00000	 mov         r0, #0
  00074	e2821c01	 add         r1, r2, #1, 24
  00078		 |$LN33@OALIntrMap|
  00078	e4820004	 str         r0, [r2], #4
  0007c	e1520001	 cmp         r2, r1
  00080	1afffffc	 bne         |$LN33@OALIntrMap|

; 67   :         }
; 68   : 
; 69   :     OALMSG(OAL_FUNC&&OAL_INTR, (L"-OALIntrMapInit\r\n"));

  00084	e3130004	 tst         r3, #4
  00088	13130901	 tstne       r3, #1, 18
  0008c	159f0008	 ldrne       r0, [pc, #8]
  00090	1b000000	 blne        NKDbgPrintfW

; 70   : }

  00094	e8bd4010	 ldmia       sp!, {r4, lr}
  00098	e12fff1e	 bx          lr
  0009c		 |$LN38@OALIntrMap|
  0009c		 |$LN39@OALIntrMap|
  0009c	00000000	 DCD         |??_C@_1CE@HFBIALPK@?$AA?9?$AAO?$AAA?$AAL?$AAI?$AAn?$AAt?$AAr?$AAM?$AAa?$AAp?$AAI?$AAn?$AAi?$AAt?$AA?$AN?$AA?6?$AA?$AA@|
  000a0		 |$LN40@OALIntrMap|
  000a0	00000000	 DCD         |g_oalIrqMaskRefCount|
  000a4		 |$LN41@OALIntrMap|
  000a4	00000000	 DCD         |??_C@_1CE@LMNIPMAG@?$AA?$CL?$AAO?$AAA?$AAL?$AAI?$AAn?$AAt?$AAr?$AAM?$AAa?$AAp?$AAI?$AAn?$AAi?$AAt?$AA?$AN?$AA?6?$AA?$AA@|
  000a8		 |$LN42@OALIntrMap|
  000a8	00000000	 DCD         |dpCurSettings|
  000ac		 |$M39403|

			 ENDP  ; |OALIntrMapInit|

	EXPORT	|OALIntrStaticTranslate|
	EXPORT	|??_C@_1DE@CBLJKBBB@?$AA?9?$AAO?$AAA?$AAL?$AAI?$AAn?$AAt?$AAr?$AAS?$AAt?$AAa?$AAt?$AAi?$AAc?$AAT?$AAr?$AAa?$AAn?$AAs?$AAl?$AAa?$AAt?$AAe?$AA?$AN?$AA?6?$AA?$AA@| [ DATA ] ; `string'
	EXPORT	|??_C@_1EE@DPKCCBO@?$AA?$CL?$AAO?$AAA?$AAL?$AAI?$AAn?$AAt?$AAr?$AAS?$AAt?$AAa?$AAt?$AAi?$AAc?$AAT?$AAr?$AAa?$AAn?$AAs?$AAl?$AAa?$AAt?$AAe?$AA?$CI?$AA?$CF?$AAd?$AA?0?$AA?5?$AA?$CF?$AAd?$AA?$CJ?$AA?$AN@| [ DATA ] ; `string'

  00000			 AREA	 |.pdata|, PDATA
|$T39423| DCD	|$LN10@OALIntrSta|
	DCD	0x40001e01

  00000			 AREA	 |.rdata|, DATA, READONLY
|??_C@_1DE@CBLJKBBB@?$AA?9?$AAO?$AAA?$AAL?$AAI?$AAn?$AAt?$AAr?$AAS?$AAt?$AAa?$AAt?$AAi?$AAc?$AAT?$AAr?$AAa?$AAn?$AAs?$AAl?$AAa?$AAt?$AAe?$AA?$AN?$AA?6?$AA?$AA@| DCB "-"
	DCB	0x0, "O", 0x0, "A", 0x0, "L", 0x0, "I", 0x0, "n", 0x0, "t"
	DCB	0x0, "r", 0x0, "S", 0x0, "t", 0x0, "a", 0x0, "t", 0x0, "i"
	DCB	0x0, "c", 0x0, "T", 0x0, "r", 0x0, "a", 0x0, "n", 0x0, "s"
	DCB	0x0, "l", 0x0, "a", 0x0, "t", 0x0, "e", 0x0, 0xd, 0x0, 0xa
	DCB	0x0, 0x0, 0x0				; `string'

  00000			 AREA	 |.rdata|, DATA, READONLY
|??_C@_1EE@DPKCCBO@?$AA?$CL?$AAO?$AAA?$AAL?$AAI?$AAn?$AAt?$AAr?$AAS?$AAt?$AAa?$AAt?$AAi?$AAc?$AAT?$AAr?$AAa?$AAn?$AAs?$AAl?$AAa?$AAt?$AAe?$AA?$CI?$AA?$CF?$AAd?$AA?0?$AA?5?$AA?$CF?$AAd?$AA?$CJ?$AA?$AN@| DCB "+"
	DCB	0x0, "O", 0x0, "A", 0x0, "L", 0x0, "I", 0x0, "n", 0x0, "t"
	DCB	0x0, "r", 0x0, "S", 0x0, "t", 0x0, "a", 0x0, "t", 0x0, "i"
	DCB	0x0, "c", 0x0, "T", 0x0, "r", 0x0, "a", 0x0, "n", 0x0, "s"
	DCB	0x0, "l", 0x0, "a", 0x0, "t", 0x0, "e", 0x0, "(", 0x0, "%"
	DCB	0x0, "d", 0x0, ",", 0x0, " ", 0x0, "%", 0x0, "d", 0x0, ")"
	DCB	0x0, 0xd, 0x0, 0xa, 0x0, 0x0, 0x0	; `string'
; Function compile flags: /Ogspy

  00000			 AREA	 |.text|, CODE, ARM

  00000		 |OALIntrStaticTranslate| PROC

; 85   : {

  00000		 |$LN10@OALIntrSta|
  00000	e92d4070	 stmdb       sp!, {r4 - r6, lr}
  00004		 |$M39420|
  00004	e1a04001	 mov         r4, r1
  00008	e1a05000	 mov         r5, r0

; 86   :     OALMSG(OAL_FUNC&&OAL_INTR, (
; 87   :         L"+OALIntrStaticTranslate(%d, %d)\r\n", sysIntr, irq
; 88   :         ));

  0000c	e59f6060	 ldr         r6, [pc, #0x60]
  00010	e596e440	 ldr         lr, [r6, #0x440]
  00014	e31e0004	 tst         lr, #4
  00018	0a000006	 beq         |$LN4@OALIntrSta|
  0001c	e31e0901	 tst         lr, #1, 18
  00020	0a000004	 beq         |$LN4@OALIntrSta|
  00024	e59f0044	 ldr         r0, [pc, #0x44]
  00028	e1a02004	 mov         r2, r4
  0002c	e1a01005	 mov         r1, r5
  00030	eb000000	 bl          NKDbgPrintfW
  00034	e596e440	 ldr         lr, [r6, #0x440]
  00038		 |$LN4@OALIntrSta|

; 89   :     
; 90   :     if ((irq < OAL_INTR_IRQ_MAXIMUM) && (sysIntr < SYSINTR_MAXIMUM))

  00038	e3540040	 cmp         r4, #0x40
  0003c	33550048	 cmpcc       r5, #0x48

; 91   :         {
; 92   :         g_oalSysIntr2Irq[sysIntr] = irq;

  00040	359f2024	 ldrcc       r2, [pc, #0x24]

; 93   :         g_oalIrq2SysIntr[irq] = sysIntr;

  00044	32823e12	 addcc       r3, r2, #0x12, 28
  00048	37835104	 strcc       r5, [r3, +r4, lsl #2]
  0004c	37824105	 strcc       r4, [r2, +r5, lsl #2]

; 94   :         }
; 95   :     OALMSG(OAL_FUNC&&OAL_INTR, (L"-OALIntrStaticTranslate\r\n"));

  00050	e31e0004	 tst         lr, #4
  00054	131e0901	 tstne       lr, #1, 18
  00058	159f0008	 ldrne       r0, [pc, #8]
  0005c	1b000000	 blne        NKDbgPrintfW

; 96   : }

  00060	e8bd4070	 ldmia       sp!, {r4 - r6, lr}
  00064	e12fff1e	 bx          lr
  00068		 |$LN11@OALIntrSta|
  00068		 |$LN12@OALIntrSta|
  00068	00000000	 DCD         |??_C@_1DE@CBLJKBBB@?$AA?9?$AAO?$AAA?$AAL?$AAI?$AAn?$AAt?$AAr?$AAS?$AAt?$AAa?$AAt?$AAi?$AAc?$AAT?$AAr?$AAa?$AAn?$AAs?$AAl?$AAa?$AAt?$AAe?$AA?$AN?$AA?6?$AA?$AA@|
  0006c		 |$LN13@OALIntrSta|
  0006c	00000000	 DCD         |g_oalSysIntr2Irq|
  00070		 |$LN14@OALIntrSta|
  00070	00000000	 DCD         |??_C@_1EE@DPKCCBO@?$AA?$CL?$AAO?$AAA?$AAL?$AAI?$AAn?$AAt?$AAr?$AAS?$AAt?$AAa?$AAt?$AAi?$AAc?$AAT?$AAr?$AAa?$AAn?$AAs?$AAl?$AAa?$AAt?$AAe?$AA?$CI?$AA?$CF?$AAd?$AA?0?$AA?5?$AA?$CF?$AAd?$AA?$CJ?$AA?$AN@|
  00074		 |$LN15@OALIntrSta|
  00074	00000000	 DCD         |dpCurSettings|
  00078		 |$M39421|

			 ENDP  ; |OALIntrStaticTranslate|

	EXPORT	|OALIntrTranslateSysIntr|
	EXPORT	|??_C@_1EA@JDMBMDEN@?$AA?9?$AAO?$AAA?$AAL?$AAT?$AAr?$AAa?$AAn?$AAs?$AAl?$AAa?$AAt?$AAe?$AAS?$AAy?$AAs?$AAI?$AAn?$AAt?$AAr?$AA?$CI?$AAr?$AAc?$AA?5?$AA?$DN?$AA?5?$AA?$CF?$AAd?$AA?$CJ?$AA?$AN?$AA?6?$AA?$AA@| [ DATA ] ; `string'
	EXPORT	|??_C@_1DG@HAMHNOBJ@?$AA?$CL?$AAO?$AAA?$AAL?$AAT?$AAr?$AAa?$AAn?$AAs?$AAl?$AAa?$AAt?$AAe?$AAS?$AAy?$AAs?$AAI?$AAn?$AAt?$AAr?$AA?$CI?$AA?$CF?$AAd?$AA?$CJ?$AA?$AN?$AA?6?$AA?$AA@| [ DATA ] ; `string'

  00000			 AREA	 |.pdata|, PDATA
|$T39445| DCD	|$LN10@OALIntrTra|
	DCD	0x40002301

  00000			 AREA	 |.rdata|, DATA, READONLY
|??_C@_1EA@JDMBMDEN@?$AA?9?$AAO?$AAA?$AAL?$AAT?$AAr?$AAa?$AAn?$AAs?$AAl?$AAa?$AAt?$AAe?$AAS?$AAy?$AAs?$AAI?$AAn?$AAt?$AAr?$AA?$CI?$AAr?$AAc?$AA?5?$AA?$DN?$AA?5?$AA?$CF?$AAd?$AA?$CJ?$AA?$AN?$AA?6?$AA?$AA@| DCB "-"
	DCB	0x0, "O", 0x0, "A", 0x0, "L", 0x0, "T", 0x0, "r", 0x0, "a"
	DCB	0x0, "n", 0x0, "s", 0x0, "l", 0x0, "a", 0x0, "t", 0x0, "e"
	DCB	0x0, "S", 0x0, "y", 0x0, "s", 0x0, "I", 0x0, "n", 0x0, "t"
	DCB	0x0, "r", 0x0, "(", 0x0, "r", 0x0, "c", 0x0, " ", 0x0, "="
	DCB	0x0, " ", 0x0, "%", 0x0, "d", 0x0, ")", 0x0, 0xd, 0x0, 0xa
	DCB	0x0, 0x0, 0x0				; `string'

  00000			 AREA	 |.rdata|, DATA, READONLY
|??_C@_1DG@HAMHNOBJ@?$AA?$CL?$AAO?$AAA?$AAL?$AAT?$AAr?$AAa?$AAn?$AAs?$AAl?$AAa?$AAt?$AAe?$AAS?$AAy?$AAs?$AAI?$AAn?$AAt?$AAr?$AA?$CI?$AA?$CF?$AAd?$AA?$CJ?$AA?$AN?$AA?6?$AA?$AA@| DCB "+"
	DCB	0x0, "O", 0x0, "A", 0x0, "L", 0x0, "T", 0x0, "r", 0x0, "a"
	DCB	0x0, "n", 0x0, "s", 0x0, "l", 0x0, "a", 0x0, "t", 0x0, "e"
	DCB	0x0, "S", 0x0, "y", 0x0, "s", 0x0, "I", 0x0, "n", 0x0, "t"
	DCB	0x0, "r", 0x0, "(", 0x0, "%", 0x0, "d", 0x0, ")", 0x0, 0xd
	DCB	0x0, 0xa, 0x0, 0x0, 0x0			; `string'
; Function compile flags: /Ogspy

  00000			 AREA	 |.text|, CODE, ARM

  00000		 |OALIntrTranslateSysIntr| PROC

; 107  : ) {

  00000		 |$LN10@OALIntrTra|
  00000	e92d40f0	 stmdb       sp!, {r4 - r7, lr}
  00004		 |$M39442|
  00004	e1a06002	 mov         r6, r2
  00008	e1a07001	 mov         r7, r1
  0000c	e1a04000	 mov         r4, r0

; 108  :     BOOL rc;
; 109  : 
; 110  :     OALMSG(OAL_INTR&&OAL_VERBOSE, (L"+OALTranslateSysIntr(%d)\r\n", sysIntr));

  00010	e59f5070	 ldr         r5, [pc, #0x70]
  00014	e5953440	 ldr         r3, [r5, #0x440]
  00018	e3130901	 tst         r3, #1, 18
  0001c	0a000005	 beq         |$LN4@OALIntrTra|
  00020	e3130902	 tst         r3, #2, 18
  00024	0a000003	 beq         |$LN4@OALIntrTra|
  00028	e59f0054	 ldr         r0, [pc, #0x54]
  0002c	e1a01004	 mov         r1, r4
  00030	eb000000	 bl          NKDbgPrintfW
  00034	e5953440	 ldr         r3, [r5, #0x440]
  00038		 |$LN4@OALIntrTra|

; 111  : 
; 112  :     // Valid SYSINTR?
; 113  :     if (sysIntr >= SYSINTR_MAXIMUM)

  00038	e3540048	 cmp         r4, #0x48

; 114  :         {
; 115  :         rc = FALSE;
; 116  :         goto cleanUp;
; 117  :         }
; 118  :     *pCount = 1;
; 119  :     *ppIrqs = &g_oalSysIntr2Irq[sysIntr];

  0003c	359f303c	 ldrcc       r3, [pc, #0x3C]
  00040	23a04000	 movcs       r4, #0
  00044	33a02001	 movcc       r2, #1
  00048	30833104	 addcc       r3, r3, r4, lsl #2
  0004c	35872000	 strcc       r2, [r7]
  00050	35863000	 strcc       r3, [r6]

; 120  :     rc = TRUE;

  00054	35953440	 ldrcc       r3, [r5, #0x440]
  00058	33a04001	 movcc       r4, #1
  0005c		 |$cleanUp$39196|

; 121  : 
; 122  : cleanUp:
; 123  :     OALMSG(OAL_INTR&&OAL_VERBOSE, (L"-OALTranslateSysIntr(rc = %d)\r\n", rc));

  0005c	e3130901	 tst         r3, #1, 18
  00060	13130902	 tstne       r3, #2, 18
  00064	159f0010	 ldrne       r0, [pc, #0x10]
  00068	11a01004	 movne       r1, r4
  0006c	1b000000	 blne        NKDbgPrintfW

; 124  :     return rc;
; 125  : }

  00070	e1a00004	 mov         r0, r4
  00074	e8bd40f0	 ldmia       sp!, {r4 - r7, lr}
  00078	e12fff1e	 bx          lr
  0007c		 |$LN11@OALIntrTra|
  0007c		 |$LN12@OALIntrTra|
  0007c	00000000	 DCD         |??_C@_1EA@JDMBMDEN@?$AA?9?$AAO?$AAA?$AAL?$AAT?$AAr?$AAa?$AAn?$AAs?$AAl?$AAa?$AAt?$AAe?$AAS?$AAy?$AAs?$AAI?$AAn?$AAt?$AAr?$AA?$CI?$AAr?$AAc?$AA?5?$AA?$DN?$AA?5?$AA?$CF?$AAd?$AA?$CJ?$AA?$AN?$AA?6?$AA?$AA@|
  00080		 |$LN13@OALIntrTra|
  00080	00000000	 DCD         |g_oalSysIntr2Irq|
  00084		 |$LN14@OALIntrTra|
  00084	00000000	 DCD         |??_C@_1DG@HAMHNOBJ@?$AA?$CL?$AAO?$AAA?$AAL?$AAT?$AAr?$AAa?$AAn?$AAs?$AAl?$AAa?$AAt?$AAe?$AAS?$AAy?$AAs?$AAI?$AAn?$AAt?$AAr?$AA?$CI?$AA?$CF?$AAd?$AA?$CJ?$AA?$AN?$AA?6?$AA?$AA@|
  00088		 |$LN15@OALIntrTra|
  00088	00000000	 DCD         |dpCurSettings|
  0008c		 |$M39443|

			 ENDP  ; |OALIntrTranslateSysIntr|

	EXPORT	|OALIntrTranslateIrq|
	EXPORT	|??_C@_1EK@JOJPHPGP@?$AA?9?$AAO?$AAA?$AAL?$AAI?$AAn?$AAt?$AAr?$AAT?$AAr?$AAa?$AAn?$AAs?$AAl?$AAa?$AAt?$AAe?$AAI?$AAr?$AAq?$AA?$CI?$AAs?$AAy?$AAs?$AAI?$AAn?$AAt?$AAr?$AA?5?$AA?$DN?$AA?5?$AA?$CF@| [ DATA ] ; `string'
	EXPORT	|??_C@_1DG@IAFKCJEB@?$AA?$CL?$AAO?$AAA?$AAL?$AAI?$AAn?$AAt?$AAr?$AAT?$AAr?$AAa?$AAn?$AAs?$AAl?$AAa?$AAt?$AAe?$AAI?$AAr?$AAq?$AA?$CI?$AA?$CF?$AAd?$AA?$CJ?$AA?$AN?$AA?6?$AA?$AA@| [ DATA ] ; `string'

  00000			 AREA	 |.pdata|, PDATA
|$T39465| DCD	|$LN10@OALIntrTra@2|
	DCD	0x40001c01

  00000			 AREA	 |.rdata|, DATA, READONLY
|??_C@_1EK@JOJPHPGP@?$AA?9?$AAO?$AAA?$AAL?$AAI?$AAn?$AAt?$AAr?$AAT?$AAr?$AAa?$AAn?$AAs?$AAl?$AAa?$AAt?$AAe?$AAI?$AAr?$AAq?$AA?$CI?$AAs?$AAy?$AAs?$AAI?$AAn?$AAt?$AAr?$AA?5?$AA?$DN?$AA?5?$AA?$CF@| DCB "-"
	DCB	0x0, "O", 0x0, "A", 0x0, "L", 0x0, "I", 0x0, "n", 0x0, "t"
	DCB	0x0, "r", 0x0, "T", 0x0, "r", 0x0, "a", 0x0, "n", 0x0, "s"
	DCB	0x0, "l", 0x0, "a", 0x0, "t", 0x0, "e", 0x0, "I", 0x0, "r"
	DCB	0x0, "q", 0x0, "(", 0x0, "s", 0x0, "y", 0x0, "s", 0x0, "I"
	DCB	0x0, "n", 0x0, "t", 0x0, "r", 0x0, " ", 0x0, "=", 0x0, " "
	DCB	0x0, "%", 0x0, "d", 0x0, ")", 0x0, 0xd, 0x0, 0xa, 0x0, 0x0
	DCB	0x0					; `string'

  00000			 AREA	 |.rdata|, DATA, READONLY
|??_C@_1DG@IAFKCJEB@?$AA?$CL?$AAO?$AAA?$AAL?$AAI?$AAn?$AAt?$AAr?$AAT?$AAr?$AAa?$AAn?$AAs?$AAl?$AAa?$AAt?$AAe?$AAI?$AAr?$AAq?$AA?$CI?$AA?$CF?$AAd?$AA?$CJ?$AA?$AN?$AA?6?$AA?$AA@| DCB "+"
	DCB	0x0, "O", 0x0, "A", 0x0, "L", 0x0, "I", 0x0, "n", 0x0, "t"
	DCB	0x0, "r", 0x0, "T", 0x0, "r", 0x0, "a", 0x0, "n", 0x0, "s"
	DCB	0x0, "l", 0x0, "a", 0x0, "t", 0x0, "e", 0x0, "I", 0x0, "r"
	DCB	0x0, "q", 0x0, "(", 0x0, "%", 0x0, "d", 0x0, ")", 0x0, 0xd
	DCB	0x0, 0xa, 0x0, 0x0, 0x0			; `string'
; Function compile flags: /Ogspy

  00000			 AREA	 |.text|, CODE, ARM

  00000		 |OALIntrTranslateIrq| PROC

; 137  : {

  00000		 |$LN10@OALIntrTra@2|
  00000	e92d4070	 stmdb       sp!, {r4 - r6, lr}
  00004		 |$M39462|
  00004	e1a05000	 mov         r5, r0

; 138  :     UINT32 sysIntr = SYSINTR_UNDEFINED;
; 139  : 
; 140  :     OALMSG(OAL_FUNC&&OAL_VERBOSE, (L"+OALIntrTranslateIrq(%d)\r\n", irq));

  00008	e59f605c	 ldr         r6, [pc, #0x5C]
  0000c	e3e04000	 mvn         r4, #0
  00010	e5962440	 ldr         r2, [r6, #0x440]
  00014	e3120004	 tst         r2, #4
  00018	0a000005	 beq         |$LN4@OALIntrTra@2|
  0001c	e3120902	 tst         r2, #2, 18
  00020	0a000003	 beq         |$LN4@OALIntrTra@2|
  00024	e59f003c	 ldr         r0, [pc, #0x3C]
  00028	e1a01005	 mov         r1, r5
  0002c	eb000000	 bl          NKDbgPrintfW
  00030	e5962440	 ldr         r2, [r6, #0x440]
  00034		 |$LN4@OALIntrTra@2|

; 141  : 
; 142  :     if (irq >= OAL_INTR_IRQ_MAXIMUM) goto cleanUp;

  00034	e3550040	 cmp         r5, #0x40

; 143  :     sysIntr = g_oalIrq2SysIntr[irq];

  00038	359f3024	 ldrcc       r3, [pc, #0x24]
  0003c	37934105	 ldrcc       r4, [r3, +r5, lsl #2]
  00040		 |$cleanUp$39206|

; 144  : 
; 145  : cleanUp:
; 146  :     OALMSG(OAL_FUNC&&OAL_VERBOSE, (
; 147  :         L"-OALIntrTranslateIrq(sysIntr = %d)\r\n", sysIntr
; 148  :         ));

  00040	e3120004	 tst         r2, #4
  00044	13120902	 tstne       r2, #2, 18
  00048	159f0010	 ldrne       r0, [pc, #0x10]
  0004c	11a01004	 movne       r1, r4
  00050	1b000000	 blne        NKDbgPrintfW

; 149  :     return sysIntr;
; 150  : }

  00054	e1a00004	 mov         r0, r4
  00058	e8bd4070	 ldmia       sp!, {r4 - r6, lr}
  0005c	e12fff1e	 bx          lr
  00060		 |$LN11@OALIntrTra@2|
  00060		 |$LN12@OALIntrTra@2|
  00060	00000000	 DCD         |??_C@_1EK@JOJPHPGP@?$AA?9?$AAO?$AAA?$AAL?$AAI?$AAn?$AAt?$AAr?$AAT?$AAr?$AAa?$AAn?$AAs?$AAl?$AAa?$AAt?$AAe?$AAI?$AAr?$AAq?$AA?$CI?$AAs?$AAy?$AAs?$AAI?$AAn?$AAt?$AAr?$AA?5?$AA?$DN?$AA?5?$AA?$CF@|
  00064		 |$LN13@OALIntrTra@2|
  00064	00000000	 DCD         |g_oalIrq2SysIntr|
  00068		 |$LN14@OALIntrTra@2|
  00068	00000000	 DCD         |??_C@_1DG@IAFKCJEB@?$AA?$CL?$AAO?$AAA?$AAL?$AAI?$AAn?$AAt?$AAr?$AAT?$AAr?$AAa?$AAn?$AAs?$AAl?$AAa?$AAt?$AAe?$AAI?$AAr?$AAq?$AA?$CI?$AA?$CF?$AAd?$AA?$CJ?$AA?$AN?$AA?6?$AA?$AA@|
  0006c		 |$LN15@OALIntrTra@2|
  0006c	00000000	 DCD         |dpCurSettings|
  00070		 |$M39463|

			 ENDP  ; |OALIntrTranslateIrq|

	EXPORT	|OALIntrRequestSysIntr|
	EXPORT	|??_C@_1EO@CCPDBEFN@?$AA?9?$AAO?$AAA?$AAL?$AAI?$AAn?$AAt?$AAr?$AAR?$AAe?$AAq?$AAu?$AAe?$AAs?$AAt?$AAS?$AAy?$AAs?$AAI?$AAn?$AAt?$AAr?$AA?$CI?$AAs?$AAy?$AAs?$AAI?$AAn?$AAt?$AAr?$AA?5?$AA?$DN@| [ DATA ] ; `string'
	EXPORT	|??_C@_1HE@LGNFBECO@?$AAE?$AAR?$AAR?$AAO?$AAR?$AA?3?$AA?5?$AAO?$AAA?$AAL?$AAI?$AAn?$AAt?$AAr?$AAR?$AAe?$AAq?$AAu?$AAe?$AAs?$AAt?$AAS?$AAy?$AAs?$AAI?$AAn?$AAt?$AAr?$AA?3?$AA?5?$AAN?$AAo@| [ DATA ] ; `string'
	EXPORT	|??_C@_1JG@CKDDKDGB@?$AAE?$AAR?$AAR?$AAO?$AAR?$AA?3?$AA?5?$AAO?$AAA?$AAL?$AAI?$AAn?$AAt?$AAr?$AAR?$AAe?$AAq?$AAu?$AAe?$AAs?$AAt?$AAS?$AAy?$AAs?$AAI?$AAn?$AAt?$AAr?$AA?3?$AA?5?$AAS?$AAt@| [ DATA ] ; `string'
	EXPORT	|??_C@_1FK@JNHCPMAP@?$AA?$CL?$AAO?$AAA?$AAL?$AAI?$AAn?$AAt?$AAr?$AAR?$AAe?$AAq?$AAu?$AAe?$AAs?$AAt?$AAS?$AAy?$AAs?$AAI?$AAn?$AAt?$AAr?$AA?$CI?$AA?$CF?$AAd?$AA?0?$AA?5?$AA0?$AAx?$AA?$CF?$AA0?$AA8@| [ DATA ] ; `string'

  00000			 AREA	 |.pdata|, PDATA
|$T39497| DCD	|$LN31@OALIntrReq|
	DCD	0x40004c01

  00000			 AREA	 |.rdata|, DATA, READONLY
|??_C@_1EO@CCPDBEFN@?$AA?9?$AAO?$AAA?$AAL?$AAI?$AAn?$AAt?$AAr?$AAR?$AAe?$AAq?$AAu?$AAe?$AAs?$AAt?$AAS?$AAy?$AAs?$AAI?$AAn?$AAt?$AAr?$AA?$CI?$AAs?$AAy?$AAs?$AAI?$AAn?$AAt?$AAr?$AA?5?$AA?$DN@| DCB "-"
	DCB	0x0, "O", 0x0, "A", 0x0, "L", 0x0, "I", 0x0, "n", 0x0, "t"
	DCB	0x0, "r", 0x0, "R", 0x0, "e", 0x0, "q", 0x0, "u", 0x0, "e"
	DCB	0x0, "s", 0x0, "t", 0x0, "S", 0x0, "y", 0x0, "s", 0x0, "I"
	DCB	0x0, "n", 0x0, "t", 0x0, "r", 0x0, "(", 0x0, "s", 0x0, "y"
	DCB	0x0, "s", 0x0, "I", 0x0, "n", 0x0, "t", 0x0, "r", 0x0, " "
	DCB	0x0, "=", 0x0, " ", 0x0, "%", 0x0, "d", 0x0, ")", 0x0, 0xd
	DCB	0x0, 0xa, 0x0, 0x0, 0x0			; `string'

  00000			 AREA	 |.rdata|, DATA, READONLY
|??_C@_1HE@LGNFBECO@?$AAE?$AAR?$AAR?$AAO?$AAR?$AA?3?$AA?5?$AAO?$AAA?$AAL?$AAI?$AAn?$AAt?$AAr?$AAR?$AAe?$AAq?$AAu?$AAe?$AAs?$AAt?$AAS?$AAy?$AAs?$AAI?$AAn?$AAt?$AAr?$AA?3?$AA?5?$AAN?$AAo@| DCB "E"
	DCB	0x0, "R", 0x0, "R", 0x0, "O", 0x0, "R", 0x0, ":", 0x0, " "
	DCB	0x0, "O", 0x0, "A", 0x0, "L", 0x0, "I", 0x0, "n", 0x0, "t"
	DCB	0x0, "r", 0x0, "R", 0x0, "e", 0x0, "q", 0x0, "u", 0x0, "e"
	DCB	0x0, "s", 0x0, "t", 0x0, "S", 0x0, "y", 0x0, "s", 0x0, "I"
	DCB	0x0, "n", 0x0, "t", 0x0, "r", 0x0, ":", 0x0, " ", 0x0, "N"
	DCB	0x0, "o", 0x0, " ", 0x0, "a", 0x0, "v", 0x0, "a", 0x0, "i"
	DCB	0x0, "a", 0x0, "b", 0x0, "l", 0x0, "e", 0x0, " ", 0x0, "S"
	DCB	0x0, "Y", 0x0, "S", 0x0, "I", 0x0, "N", 0x0, "T", 0x0, "R"
	DCB	0x0, " ", 0x0, "f", 0x0, "o", 0x0, "u", 0x0, "n", 0x0, "d"
	DCB	0x0, 0xd, 0x0, 0xa, 0x0, 0x0, 0x0	; `string'

  00000			 AREA	 |.rdata|, DATA, READONLY
|??_C@_1JG@CKDDKDGB@?$AAE?$AAR?$AAR?$AAO?$AAR?$AA?3?$AA?5?$AAO?$AAA?$AAL?$AAI?$AAn?$AAt?$AAr?$AAR?$AAe?$AAq?$AAu?$AAe?$AAs?$AAt?$AAS?$AAy?$AAs?$AAI?$AAn?$AAt?$AAr?$AA?3?$AA?5?$AAS?$AAt@| DCB "E"
	DCB	0x0, "R", 0x0, "R", 0x0, "O", 0x0, "R", 0x0, ":", 0x0, " "
	DCB	0x0, "O", 0x0, "A", 0x0, "L", 0x0, "I", 0x0, "n", 0x0, "t"
	DCB	0x0, "r", 0x0, "R", 0x0, "e", 0x0, "q", 0x0, "u", 0x0, "e"
	DCB	0x0, "s", 0x0, "t", 0x0, "S", 0x0, "y", 0x0, "s", 0x0, "I"
	DCB	0x0, "n", 0x0, "t", 0x0, "r", 0x0, ":", 0x0, " ", 0x0, "S"
	DCB	0x0, "t", 0x0, "a", 0x0, "t", 0x0, "i", 0x0, "c", 0x0, " "
	DCB	0x0, "m", 0x0, "a", 0x0, "p", 0x0, "p", 0x0, "i", 0x0, "n"
	DCB	0x0, "g", 0x0, " ", 0x0, "f", 0x0, "o", 0x0, "r", 0x0, " "
	DCB	0x0, "I", 0x0, "R", 0x0, "Q", 0x0, " ", 0x0, "%", 0x0, "d"
	DCB	0x0, " ", 0x0, "a", 0x0, "l", 0x0, "r", 0x0, "e", 0x0, "a"
	DCB	0x0, "d", 0x0, "y", 0x0, " ", 0x0, "a", 0x0, "s", 0x0, "s"
	DCB	0x0, "i", 0x0, "g", 0x0, "n", 0x0, "e", 0x0, "d", 0x0, 0xd
	DCB	0x0, 0xa, 0x0, 0x0, 0x0			; `string'

  00000			 AREA	 |.rdata|, DATA, READONLY
|??_C@_1FK@JNHCPMAP@?$AA?$CL?$AAO?$AAA?$AAL?$AAI?$AAn?$AAt?$AAr?$AAR?$AAe?$AAq?$AAu?$AAe?$AAs?$AAt?$AAS?$AAy?$AAs?$AAI?$AAn?$AAt?$AAr?$AA?$CI?$AA?$CF?$AAd?$AA?0?$AA?5?$AA0?$AAx?$AA?$CF?$AA0?$AA8@| DCB "+"
	DCB	0x0, "O", 0x0, "A", 0x0, "L", 0x0, "I", 0x0, "n", 0x0, "t"
	DCB	0x0, "r", 0x0, "R", 0x0, "e", 0x0, "q", 0x0, "u", 0x0, "e"
	DCB	0x0, "s", 0x0, "t", 0x0, "S", 0x0, "y", 0x0, "s", 0x0, "I"
	DCB	0x0, "n", 0x0, "t", 0x0, "r", 0x0, "(", 0x0, "%", 0x0, "d"
	DCB	0x0, ",", 0x0, " ", 0x0, "0", 0x0, "x", 0x0, "%", 0x0, "0"
	DCB	0x0, "8", 0x0, "x", 0x0, ",", 0x0, " ", 0x0, "0", 0x0, "x"
	DCB	0x0, "%", 0x0, "0", 0x0, "8", 0x0, "x", 0x0, ")", 0x0, 0xd
	DCB	0x0, 0xa, 0x0, 0x0, 0x0			; `string'
; Function compile flags: /Ogspy

  00000			 AREA	 |.text|, CODE, ARM

  00000		 |OALIntrRequestSysIntr| PROC

; 165  : {

  00000		 |$LN31@OALIntrReq|
  00000	e92d41f0	 stmdb       sp!, {r4 - r8, lr}
  00004		 |$M39494|
  00004	e1a05002	 mov         r5, r2
  00008	e1a04001	 mov         r4, r1
  0000c	e1a06000	 mov         r6, r0

; 166  :     UINT32 irq, sysIntr;
; 167  : 
; 168  :     OALMSG(OAL_INTR&&OAL_FUNC, (
; 169  :         L"+OALIntrRequestSysIntr(%d, 0x%08x, 0x%08x)\r\n", count, pIrqs, flags
; 170  :         ));

  00010	e59f7114	 ldr         r7, [pc, #0x114]
  00014	e597e440	 ldr         lr, [r7, #0x440]
  00018	e31e0901	 tst         lr, #1, 18
  0001c	0a000007	 beq         |$LN16@OALIntrReq|
  00020	e31e0004	 tst         lr, #4
  00024	0a000005	 beq         |$LN16@OALIntrReq|
  00028	e59f00f8	 ldr         r0, [pc, #0xF8]
  0002c	e1a03005	 mov         r3, r5
  00030	e1a02004	 mov         r2, r4
  00034	e1a01006	 mov         r1, r6
  00038	eb000000	 bl          NKDbgPrintfW
  0003c	e597e440	 ldr         lr, [r7, #0x440]
  00040		 |$LN16@OALIntrReq|

; 171  : 
; 172  :     irq = pIrqs[0];

  00040	e5941000	 ldr         r1, [r4]

; 173  : 
; 174  :     // Valid IRQ?
; 175  :     if (count != 1 || irq >= OAL_INTR_IRQ_MAXIMUM)

  00044	e3560001	 cmp         r6, #1
  00048	1a00000d	 bne         |$LN12@OALIntrReq|
  0004c	e3510040	 cmp         r1, #0x40
  00050	2a00000b	 bcs         |$LN12@OALIntrReq|

; 178  :         goto cleanUp;
; 179  :         }
; 180  : 
; 181  :     // If there is mapping for given irq check for special cases
; 182  :     if (g_oalIrq2SysIntr[irq] != SYSINTR_UNDEFINED)

  00054	e59f60c8	 ldr         r6, [pc, #0xC8]
  00058	e2860e12	 add         r0, r6, #0x12, 28
  0005c	e7b02101	 ldr         r2, [r0, +r1, lsl #2]!
  00060	e3720001	 cmn         r2, #1
  00064	0a000012	 beq         |$LN9@OALIntrReq|

; 183  :         {
; 184  :         // If static mapping is requested we fail
; 185  :         if ((flags & OAL_INTR_STATIC) != 0)

  00068	e3150002	 tst         r5, #2
  0006c	0a00000d	 beq         |$LN10@OALIntrReq|

; 186  :             {
; 187  :             OALMSG(OAL_ERROR, (L"ERROR: OALIntrRequestSysIntr: "
; 188  :                 L"Static mapping for IRQ %d already assigned\r\n", irq
; 189  :                 ));

  00070	e31e0001	 tst         lr, #1
  00074	0a000002	 beq         |$LN12@OALIntrReq|
  00078	e59f00a0	 ldr         r0, [pc, #0xA0]
  0007c	eb000000	 bl          NKDbgPrintfW
  00080		 |$LN28@OALIntrReq|
  00080	e597e440	 ldr         lr, [r7, #0x440]
  00084		 |$LN12@OALIntrReq|

; 176  :         {
; 177  :         sysIntr = SYSINTR_UNDEFINED;

  00084	e3e04000	 mvn         r4, #0
  00088		 |$cleanUp$39222|

; 226  :         }
; 227  : 
; 228  : cleanUp:
; 229  :     OALMSG(OAL_INTR&&OAL_FUNC, (
; 230  :         L"-OALIntrRequestSysIntr(sysIntr = %d)\r\n", sysIntr
; 231  :         ));

  00088	e31e0901	 tst         lr, #1, 18
  0008c	131e0004	 tstne       lr, #4
  00090	159f0084	 ldrne       r0, [pc, #0x84]
  00094	11a01004	 movne       r1, r4
  00098	1b000000	 blne        NKDbgPrintfW

; 232  :     return sysIntr;
; 233  : }

  0009c	e1a00004	 mov         r0, r4
  000a0	e8bd41f0	 ldmia       sp!, {r4 - r8, lr}
  000a4	e12fff1e	 bx          lr
  000a8		 |$LN10@OALIntrReq|

; 190  :             sysIntr = SYSINTR_UNDEFINED;
; 191  :             goto cleanUp;
; 192  :             }
; 193  :         // If we should translate, return existing SYSINTR
; 194  :         if ((flags & OAL_INTR_TRANSLATE) != 0)

  000a8	e3150008	 tst         r5, #8

; 195  :             {
; 196  :             sysIntr = g_oalIrq2SysIntr[irq];

  000ac	11a04002	 movne       r4, r2
  000b0	1afffff4	 bne         |$cleanUp$39222|
  000b4		 |$LN9@OALIntrReq|

; 197  :             goto cleanUp;
; 198  :             }
; 199  :         }
; 200  : 
; 201  :     // Find next available SYSINTR value...
; 202  :     for (sysIntr = SYSINTR_FIRMWARE; sysIntr < SYSINTR_MAXIMUM; sysIntr++)

  000b4	e3a04010	 mov         r4, #0x10
  000b8	e2868040	 add         r8, r6, #0x40
  000bc		 |$LL8@OALIntrReq|

; 203  :         {
; 204  :         if (g_oalSysIntr2Irq[sysIntr] == OAL_INTR_IRQ_UNDEFINED) break;

  000bc	e5983000	 ldr         r3, [r8]
  000c0	e3730001	 cmn         r3, #1
  000c4	0a000003	 beq         |$LN25@OALIntrReq|
  000c8	e2844001	 add         r4, r4, #1
  000cc	e3540048	 cmp         r4, #0x48
  000d0	e2888004	 add         r8, r8, #4
  000d4	3afffff8	 bcc         |$LL8@OALIntrReq|
  000d8		 |$LN25@OALIntrReq|

; 205  :         }
; 206  : 
; 207  :     // Any available SYSINTRs left?
; 208  :     if (sysIntr >= SYSINTR_MAXIMUM)

  000d8	e3540048	 cmp         r4, #0x48
  000dc	3a000004	 bcc         |$LN4@OALIntrReq|

; 209  :         {
; 210  :         OALMSG(OAL_ERROR, (L"ERROR: OALIntrRequestSysIntr: "
; 211  :             L"No avaiable SYSINTR found\r\n"
; 212  :             ));

  000e0	e31e0001	 tst         lr, #1
  000e4	0affffe6	 beq         |$LN12@OALIntrReq|
  000e8	e59f0028	 ldr         r0, [pc, #0x28]
  000ec	eb000000	 bl          NKDbgPrintfW

; 213  :         sysIntr = SYSINTR_UNDEFINED;
; 214  :         goto cleanUp;

  000f0	eaffffe2	 b           |$LN28@OALIntrReq|
  000f4		 |$LN4@OALIntrReq|

; 215  :         }
; 216  : 
; 217  :     // Make SYSINTR -> IRQ association.
; 218  :     g_oalSysIntr2Irq[sysIntr] = irq;

  000f4	e7861104	 str         r1, [r6, +r4, lsl #2]

; 219  : 
; 220  :     // Make IRQ -> SYSINTR association if required
; 221  :     if ((flags & OAL_INTR_DYNAMIC) != 0) goto cleanUp;

  000f8	e3150001	 tst         r5, #1
  000fc	1affffe1	 bne         |$cleanUp$39222|

; 222  :     if ((g_oalIrq2SysIntr[irq] == SYSINTR_UNDEFINED) ||
; 223  :         ((flags & OAL_INTR_FORCE_STATIC) != 0))

  00100	e3720001	 cmn         r2, #1
  00104	0a000001	 beq         |$LN1@OALIntrReq|
  00108	e3150004	 tst         r5, #4
  0010c	0affffdd	 beq         |$cleanUp$39222|
  00110		 |$LN1@OALIntrReq|

; 224  :         {
; 225  :         g_oalIrq2SysIntr[irq] = sysIntr;

  00110	e5804000	 str         r4, [r0]
  00114	eaffffdb	 b           |$cleanUp$39222|
  00118		 |$LN32@OALIntrReq|
  00118		 |$LN33@OALIntrReq|
  00118	00000000	 DCD         |??_C@_1HE@LGNFBECO@?$AAE?$AAR?$AAR?$AAO?$AAR?$AA?3?$AA?5?$AAO?$AAA?$AAL?$AAI?$AAn?$AAt?$AAr?$AAR?$AAe?$AAq?$AAu?$AAe?$AAs?$AAt?$AAS?$AAy?$AAs?$AAI?$AAn?$AAt?$AAr?$AA?3?$AA?5?$AAN?$AAo@|
  0011c		 |$LN34@OALIntrReq|
  0011c	00000000	 DCD         |??_C@_1EO@CCPDBEFN@?$AA?9?$AAO?$AAA?$AAL?$AAI?$AAn?$AAt?$AAr?$AAR?$AAe?$AAq?$AAu?$AAe?$AAs?$AAt?$AAS?$AAy?$AAs?$AAI?$AAn?$AAt?$AAr?$AA?$CI?$AAs?$AAy?$AAs?$AAI?$AAn?$AAt?$AAr?$AA?5?$AA?$DN@|
  00120		 |$LN35@OALIntrReq|
  00120	00000000	 DCD         |??_C@_1JG@CKDDKDGB@?$AAE?$AAR?$AAR?$AAO?$AAR?$AA?3?$AA?5?$AAO?$AAA?$AAL?$AAI?$AAn?$AAt?$AAr?$AAR?$AAe?$AAq?$AAu?$AAe?$AAs?$AAt?$AAS?$AAy?$AAs?$AAI?$AAn?$AAt?$AAr?$AA?3?$AA?5?$AAS?$AAt@|
  00124		 |$LN36@OALIntrReq|
  00124	00000000	 DCD         |g_oalSysIntr2Irq|
  00128		 |$LN37@OALIntrReq|
  00128	00000000	 DCD         |??_C@_1FK@JNHCPMAP@?$AA?$CL?$AAO?$AAA?$AAL?$AAI?$AAn?$AAt?$AAr?$AAR?$AAe?$AAq?$AAu?$AAe?$AAs?$AAt?$AAS?$AAy?$AAs?$AAI?$AAn?$AAt?$AAr?$AA?$CI?$AA?$CF?$AAd?$AA?0?$AA?5?$AA0?$AAx?$AA?$CF?$AA0?$AA8@|
  0012c		 |$LN38@OALIntrReq|
  0012c	00000000	 DCD         |dpCurSettings|
  00130		 |$M39495|

			 ENDP  ; |OALIntrRequestSysIntr|

	EXPORT	|OALIntrReleaseSysIntr|
	EXPORT	|??_C@_1EE@GBADJBKJ@?$AA?9?$AAO?$AAA?$AAL?$AAI?$AAn?$AAt?$AAr?$AAR?$AAe?$AAl?$AAe?$AAa?$AAs?$AAe?$AAS?$AAy?$AAs?$AAI?$AAn?$AAt?$AAr?$AA?$CI?$AAr?$AAc?$AA?5?$AA?$DN?$AA?5?$AA?$CF?$AAd?$AA?$CJ?$AA?$AN@| [ DATA ] ; `string'
	EXPORT	|??_C@_1HC@BIEMDHNG@?$AAE?$AAR?$AAR?$AAO?$AAR?$AA?3?$AA?5?$AAO?$AAA?$AAL?$AAI?$AAn?$AAt?$AAr?$AAR?$AAe?$AAl?$AAe?$AAa?$AAs?$AAe?$AAS?$AAy?$AAs?$AAI?$AAn?$AAt?$AAr?$AA?3?$AA?5?$AAI?$AAn@| [ DATA ] ; `string'
	EXPORT	|??_C@_1DK@GDEEGDPM@?$AA?$CL?$AAO?$AAA?$AAL?$AAI?$AAn?$AAt?$AAr?$AAR?$AAe?$AAl?$AAe?$AAa?$AAs?$AAe?$AAS?$AAy?$AAs?$AAI?$AAn?$AAt?$AAr?$AA?$CI?$AA?$CF?$AAd?$AA?$CJ?$AA?$AN?$AA?6?$AA?$AA@| [ DATA ] ; `string'

  00000			 AREA	 |.pdata|, PDATA
|$T39522| DCD	|$LN15@OALIntrRel|
	DCD	0x40003001

  00000			 AREA	 |.rdata|, DATA, READONLY
|??_C@_1EE@GBADJBKJ@?$AA?9?$AAO?$AAA?$AAL?$AAI?$AAn?$AAt?$AAr?$AAR?$AAe?$AAl?$AAe?$AAa?$AAs?$AAe?$AAS?$AAy?$AAs?$AAI?$AAn?$AAt?$AAr?$AA?$CI?$AAr?$AAc?$AA?5?$AA?$DN?$AA?5?$AA?$CF?$AAd?$AA?$CJ?$AA?$AN@| DCB "-"
	DCB	0x0, "O", 0x0, "A", 0x0, "L", 0x0, "I", 0x0, "n", 0x0, "t"
	DCB	0x0, "r", 0x0, "R", 0x0, "e", 0x0, "l", 0x0, "e", 0x0, "a"
	DCB	0x0, "s", 0x0, "e", 0x0, "S", 0x0, "y", 0x0, "s", 0x0, "I"
	DCB	0x0, "n", 0x0, "t", 0x0, "r", 0x0, "(", 0x0, "r", 0x0, "c"
	DCB	0x0, " ", 0x0, "=", 0x0, " ", 0x0, "%", 0x0, "d", 0x0, ")"
	DCB	0x0, 0xd, 0x0, 0xa, 0x0, 0x0, 0x0	; `string'

  00000			 AREA	 |.rdata|, DATA, READONLY
|??_C@_1HC@BIEMDHNG@?$AAE?$AAR?$AAR?$AAO?$AAR?$AA?3?$AA?5?$AAO?$AAA?$AAL?$AAI?$AAn?$AAt?$AAr?$AAR?$AAe?$AAl?$AAe?$AAa?$AAs?$AAe?$AAS?$AAy?$AAs?$AAI?$AAn?$AAt?$AAr?$AA?3?$AA?5?$AAI?$AAn@| DCB "E"
	DCB	0x0, "R", 0x0, "R", 0x0, "O", 0x0, "R", 0x0, ":", 0x0, " "
	DCB	0x0, "O", 0x0, "A", 0x0, "L", 0x0, "I", 0x0, "n", 0x0, "t"
	DCB	0x0, "r", 0x0, "R", 0x0, "e", 0x0, "l", 0x0, "e", 0x0, "a"
	DCB	0x0, "s", 0x0, "e", 0x0, "S", 0x0, "y", 0x0, "s", 0x0, "I"
	DCB	0x0, "n", 0x0, "t", 0x0, "r", 0x0, ":", 0x0, " ", 0x0, "I"
	DCB	0x0, "n", 0x0, "v", 0x0, "a", 0x0, "l", 0x0, "i", 0x0, "d"
	DCB	0x0, " ", 0x0, "s", 0x0, "y", 0x0, "s", 0x0, "I", 0x0, "n"
	DCB	0x0, "t", 0x0, "r", 0x0, " ", 0x0, "v", 0x0, "a", 0x0, "l"
	DCB	0x0, "u", 0x0, "e", 0x0, " ", 0x0, "%", 0x0, "d", 0x0, 0xd
	DCB	0x0, 0xa, 0x0, 0x0, 0x0			; `string'

  00000			 AREA	 |.rdata|, DATA, READONLY
|??_C@_1DK@GDEEGDPM@?$AA?$CL?$AAO?$AAA?$AAL?$AAI?$AAn?$AAt?$AAr?$AAR?$AAe?$AAl?$AAe?$AAa?$AAs?$AAe?$AAS?$AAy?$AAs?$AAI?$AAn?$AAt?$AAr?$AA?$CI?$AA?$CF?$AAd?$AA?$CJ?$AA?$AN?$AA?6?$AA?$AA@| DCB "+"
	DCB	0x0, "O", 0x0, "A", 0x0, "L", 0x0, "I", 0x0, "n", 0x0, "t"
	DCB	0x0, "r", 0x0, "R", 0x0, "e", 0x0, "l", 0x0, "e", 0x0, "a"
	DCB	0x0, "s", 0x0, "e", 0x0, "S", 0x0, "y", 0x0, "s", 0x0, "I"
	DCB	0x0, "n", 0x0, "t", 0x0, "r", 0x0, "(", 0x0, "%", 0x0, "d"
	DCB	0x0, ")", 0x0, 0xd, 0x0, 0xa, 0x0, 0x0, 0x0 ; `string'
; Function compile flags: /Ogspy

  00000			 AREA	 |.text|, CODE, ARM

  00000		 |OALIntrReleaseSysIntr| PROC

; 245  : {

  00000		 |$LN15@OALIntrRel|
  00000	e92d4070	 stmdb       sp!, {r4 - r6, lr}
  00004		 |$M39519|
  00004	e1a05000	 mov         r5, r0

; 246  :     BOOL rc = FALSE;
; 247  :     UINT32 irq;
; 248  : 
; 249  :     OALMSG(OAL_INTR&&OAL_FUNC, (L"+OALIntrReleaseSysIntr(%d)\r\n", sysIntr));

  00008	e59f60ac	 ldr         r6, [pc, #0xAC]
  0000c	e3a04000	 mov         r4, #0
  00010	e5962440	 ldr         r2, [r6, #0x440]
  00014	e3120901	 tst         r2, #1, 18
  00018	0a000005	 beq         |$LN7@OALIntrRel|
  0001c	e3120004	 tst         r2, #4
  00020	0a000003	 beq         |$LN7@OALIntrRel|
  00024	e59f008c	 ldr         r0, [pc, #0x8C]
  00028	e1a01005	 mov         r1, r5
  0002c	eb000000	 bl          NKDbgPrintfW
  00030	e5962440	 ldr         r2, [r6, #0x440]
  00034		 |$LN7@OALIntrRel|

; 250  : 
; 251  :     // is Valid sysIntr?
; 252  :     if ((sysIntr < SYSINTR_FIRMWARE) || (sysIntr >= SYSINTR_MAXIMUM))

  00034	e2453010	 sub         r3, r5, #0x10
  00038	e3530037	 cmp         r3, #0x37
  0003c	8a00000c	 bhi         |$LN3@OALIntrRel|

; 257  :         goto cleanUp;
; 258  :         }
; 259  : 
; 260  :     // Is the SYSINTR already released?
; 261  :     if (g_oalSysIntr2Irq[sysIntr] == OAL_INTR_IRQ_UNDEFINED) goto cleanUp;

  00040	e59f306c	 ldr         r3, [pc, #0x6C]
  00044	e1a01003	 mov         r1, r3
  00048	e7b1e105	 ldr         lr, [r1, +r5, lsl #2]!
  0004c	e37e0001	 cmn         lr, #1
  00050	0a00000d	 beq         |$cleanUp$39251|

; 262  : 
; 263  :     // Remove the SYSINTR -> IRQ mapping
; 264  :     irq = g_oalSysIntr2Irq[sysIntr];
; 265  :     g_oalSysIntr2Irq[sysIntr] = OAL_INTR_IRQ_UNDEFINED;
; 266  : 
; 267  :     // If we're releasing the SYSINTR directly mapped in the IRQ mapping,
; 268  :     // remove the IRQ mapping also
; 269  :     if (g_oalIrq2SysIntr[irq] == sysIntr)

  00054	e2830e12	 add         r0, r3, #0x12, 28
  00058	e7b0310e	 ldr         r3, [r0, +lr, lsl #2]!
  0005c	e3e0e000	 mvn         lr, #0
  00060	e581e000	 str         lr, [r1]

; 270  :         {
; 271  :         g_oalIrq2SysIntr[irq] = SYSINTR_UNDEFINED;
; 272  :         }
; 273  : 
; 274  :     rc = TRUE;

  00064	e3a04001	 mov         r4, #1
  00068	e1530005	 cmp         r3, r5
  0006c	0580e000	 streq       lr, [r0]
  00070	ea000005	 b           |$cleanUp$39251|
  00074		 |$LN3@OALIntrRel|

; 253  :         {
; 254  :         OALMSG(OAL_ERROR, (L"ERROR: OALIntrReleaseSysIntr: "
; 255  :             L"Invalid sysIntr value %d\r\n", sysIntr
; 256  :             ));

  00074	e3120001	 tst         r2, #1
  00078	0a000003	 beq         |$cleanUp$39251|
  0007c	e59f002c	 ldr         r0, [pc, #0x2C]
  00080	e1a01005	 mov         r1, r5
  00084	eb000000	 bl          NKDbgPrintfW
  00088	e5962440	 ldr         r2, [r6, #0x440]
  0008c		 |$cleanUp$39251|

; 275  : 
; 276  : cleanUp:
; 277  :     OALMSG(OAL_INTR&&OAL_FUNC, (L"-OALIntrReleaseSysIntr(rc = %d)\r\n", rc));

  0008c	e3120901	 tst         r2, #1, 18
  00090	13120004	 tstne       r2, #4
  00094	159f0010	 ldrne       r0, [pc, #0x10]
  00098	11a01004	 movne       r1, r4
  0009c	1b000000	 blne        NKDbgPrintfW

; 278  :     return rc;
; 279  : }

  000a0	e1a00004	 mov         r0, r4
  000a4	e8bd4070	 ldmia       sp!, {r4 - r6, lr}
  000a8	e12fff1e	 bx          lr
  000ac		 |$LN16@OALIntrRel|
  000ac		 |$LN17@OALIntrRel|
  000ac	00000000	 DCD         |??_C@_1EE@GBADJBKJ@?$AA?9?$AAO?$AAA?$AAL?$AAI?$AAn?$AAt?$AAr?$AAR?$AAe?$AAl?$AAe?$AAa?$AAs?$AAe?$AAS?$AAy?$AAs?$AAI?$AAn?$AAt?$AAr?$AA?$CI?$AAr?$AAc?$AA?5?$AA?$DN?$AA?5?$AA?$CF?$AAd?$AA?$CJ?$AA?$AN@|
  000b0		 |$LN18@OALIntrRel|
  000b0	00000000	 DCD         |??_C@_1HC@BIEMDHNG@?$AAE?$AAR?$AAR?$AAO?$AAR?$AA?3?$AA?5?$AAO?$AAA?$AAL?$AAI?$AAn?$AAt?$AAr?$AAR?$AAe?$AAl?$AAe?$AAa?$AAs?$AAe?$AAS?$AAy?$AAs?$AAI?$AAn?$AAt?$AAr?$AA?3?$AA?5?$AAI?$AAn@|
  000b4		 |$LN19@OALIntrRel|
  000b4	00000000	 DCD         |g_oalSysIntr2Irq|
  000b8		 |$LN20@OALIntrRel|
  000b8	00000000	 DCD         |??_C@_1DK@GDEEGDPM@?$AA?$CL?$AAO?$AAA?$AAL?$AAI?$AAn?$AAt?$AAr?$AAR?$AAe?$AAl?$AAe?$AAa?$AAs?$AAe?$AAS?$AAy?$AAs?$AAI?$AAn?$AAt?$AAr?$AA?$CI?$AA?$CF?$AAd?$AA?$CJ?$AA?$AN?$AA?6?$AA?$AA@|
  000bc		 |$LN21@OALIntrRel|
  000bc	00000000	 DCD         |dpCurSettings|
  000c0		 |$M39520|

			 ENDP  ; |OALIntrReleaseSysIntr|

	EXPORT	|OEMInterruptEnable|
	EXPORT	|??_C@_1DO@CCOKGOKA@?$AA?9?$AAO?$AAE?$AAM?$AAI?$AAn?$AAt?$AAe?$AAr?$AAr?$AAu?$AAp?$AAt?$AAE?$AAn?$AAa?$AAb?$AAl?$AAe?$AA?$CI?$AAr?$AAc?$AA?5?$AA?$DN?$AA?5?$AA?$CF?$AAd?$AA?$CJ?$AA?$AN?$AA?6?$AA?$AA@| [ DATA ] ; `string'
	EXPORT	|??_C@_1FK@DILNBJGN@?$AAO?$AAE?$AAM?$AAI?$AAn?$AAt?$AAe?$AAr?$AAr?$AAu?$AAp?$AAt?$AAE?$AAn?$AAa?$AAb?$AAl?$AAe?$AA?3?$AA?5?$AAi?$AAr?$AAq?$AA?5?$AA?$CF?$AAd?$AA?5?$AAa?$AAl?$AAr?$AAe?$AAa@| [ DATA ] ; `string'
	EXPORT	|??_C@_1HG@GDCGEFKG@?$AAO?$AAE?$AAM?$AAI?$AAn?$AAt?$AAe?$AAr?$AAr?$AAu?$AAp?$AAt?$AAE?$AAn?$AAa?$AAb?$AAl?$AAe?$AA?3?$AA?5?$AAc?$AAa?$AAl?$AAl?$AAi?$AAn?$AAg?$AA?5?$AAO?$AAA?$AAL?$AAI@| [ DATA ] ; `string'
	EXPORT	|??_C@_1FM@EEKLHHAL@?$AA?$CL?$AAO?$AAE?$AAM?$AAI?$AAn?$AAt?$AAe?$AAr?$AAr?$AAu?$AAp?$AAt?$AAE?$AAn?$AAa?$AAb?$AAl?$AAe?$AA?$CI?$AA?$CF?$AAd?$AA?0?$AA?5?$AA0?$AAx?$AA?$CF?$AAx?$AA?0?$AA?5?$AA?$CF?$AAd@| [ DATA ] ; `string'
	IMPORT	|OALIntrEnableIrqs|
	IMPORT	|OALLogSerial|

  00000			 AREA	 |.pdata|, PDATA
|$T39550| DCD	|$LN17@OEMInterru|
	DCD	0x40004602

  00000			 AREA	 |.rdata|, DATA, READONLY
|??_C@_1DO@CCOKGOKA@?$AA?9?$AAO?$AAE?$AAM?$AAI?$AAn?$AAt?$AAe?$AAr?$AAr?$AAu?$AAp?$AAt?$AAE?$AAn?$AAa?$AAb?$AAl?$AAe?$AA?$CI?$AAr?$AAc?$AA?5?$AA?$DN?$AA?5?$AA?$CF?$AAd?$AA?$CJ?$AA?$AN?$AA?6?$AA?$AA@| DCB "-"
	DCB	0x0, "O", 0x0, "E", 0x0, "M", 0x0, "I", 0x0, "n", 0x0, "t"
	DCB	0x0, "e", 0x0, "r", 0x0, "r", 0x0, "u", 0x0, "p", 0x0, "t"
	DCB	0x0, "E", 0x0, "n", 0x0, "a", 0x0, "b", 0x0, "l", 0x0, "e"
	DCB	0x0, "(", 0x0, "r", 0x0, "c", 0x0, " ", 0x0, "=", 0x0, " "
	DCB	0x0, "%", 0x0, "d", 0x0, ")", 0x0, 0xd, 0x0, 0xa, 0x0, 0x0
	DCB	0x0					; `string'

  00000			 AREA	 |.rdata|, DATA, READONLY
|??_C@_1FK@DILNBJGN@?$AAO?$AAE?$AAM?$AAI?$AAn?$AAt?$AAe?$AAr?$AAr?$AAu?$AAp?$AAt?$AAE?$AAn?$AAa?$AAb?$AAl?$AAe?$AA?3?$AA?5?$AAi?$AAr?$AAq?$AA?5?$AA?$CF?$AAd?$AA?5?$AAa?$AAl?$AAr?$AAe?$AAa@| DCB "O"
	DCB	0x0, "E", 0x0, "M", 0x0, "I", 0x0, "n", 0x0, "t", 0x0, "e"
	DCB	0x0, "r", 0x0, "r", 0x0, "u", 0x0, "p", 0x0, "t", 0x0, "E"
	DCB	0x0, "n", 0x0, "a", 0x0, "b", 0x0, "l", 0x0, "e", 0x0, ":"
	DCB	0x0, " ", 0x0, "i", 0x0, "r", 0x0, "q", 0x0, " ", 0x0, "%"
	DCB	0x0, "d", 0x0, " ", 0x0, "a", 0x0, "l", 0x0, "r", 0x0, "e"
	DCB	0x0, "a", 0x0, "d", 0x0, "y", 0x0, " ", 0x0, "e", 0x0, "n"
	DCB	0x0, "a", 0x0, "b", 0x0, "l", 0x0, "e", 0x0, "d", 0x0, 0xd
	DCB	0x0, 0xa, 0x0, 0x0, 0x0			; `string'

  00000			 AREA	 |.rdata|, DATA, READONLY
|??_C@_1HG@GDCGEFKG@?$AAO?$AAE?$AAM?$AAI?$AAn?$AAt?$AAe?$AAr?$AAr?$AAu?$AAp?$AAt?$AAE?$AAn?$AAa?$AAb?$AAl?$AAe?$AA?3?$AA?5?$AAc?$AAa?$AAl?$AAl?$AAi?$AAn?$AAg?$AA?5?$AAO?$AAA?$AAL?$AAI@| DCB "O"
	DCB	0x0, "E", 0x0, "M", 0x0, "I", 0x0, "n", 0x0, "t", 0x0, "e"
	DCB	0x0, "r", 0x0, "r", 0x0, "u", 0x0, "p", 0x0, "t", 0x0, "E"
	DCB	0x0, "n", 0x0, "a", 0x0, "b", 0x0, "l", 0x0, "e", 0x0, ":"
	DCB	0x0, " ", 0x0, "c", 0x0, "a", 0x0, "l", 0x0, "l", 0x0, "i"
	DCB	0x0, "n", 0x0, "g", 0x0, " ", 0x0, "O", 0x0, "A", 0x0, "L"
	DCB	0x0, "I", 0x0, "n", 0x0, "t", 0x0, "r", 0x0, "E", 0x0, "n"
	DCB	0x0, "a", 0x0, "b", 0x0, "l", 0x0, "e", 0x0, "I", 0x0, "r"
	DCB	0x0, "q", 0x0, "s", 0x0, " ", 0x0, "f", 0x0, "o", 0x0, "r"
	DCB	0x0, " ", 0x0, "i", 0x0, "r", 0x0, "q", 0x0, " ", 0x0, "%"
	DCB	0x0, "d", 0x0, 0xd, 0x0, 0xa, 0x0, 0x0, 0x0 ; `string'

  00000			 AREA	 |.rdata|, DATA, READONLY
|??_C@_1FM@EEKLHHAL@?$AA?$CL?$AAO?$AAE?$AAM?$AAI?$AAn?$AAt?$AAe?$AAr?$AAr?$AAu?$AAp?$AAt?$AAE?$AAn?$AAa?$AAb?$AAl?$AAe?$AA?$CI?$AA?$CF?$AAd?$AA?0?$AA?5?$AA0?$AAx?$AA?$CF?$AAx?$AA?0?$AA?5?$AA?$CF?$AAd@| DCB "+"
	DCB	0x0, "O", 0x0, "E", 0x0, "M", 0x0, "I", 0x0, "n", 0x0, "t"
	DCB	0x0, "e", 0x0, "r", 0x0, "r", 0x0, "u", 0x0, "p", 0x0, "t"
	DCB	0x0, "E", 0x0, "n", 0x0, "a", 0x0, "b", 0x0, "l", 0x0, "e"
	DCB	0x0, "(", 0x0, "%", 0x0, "d", 0x0, ",", 0x0, " ", 0x0, "0"
	DCB	0x0, "x", 0x0, "%", 0x0, "x", 0x0, ",", 0x0, " ", 0x0, "%"
	DCB	0x0, "d", 0x0, ")", 0x0, " ", 0x0, "(", 0x0, "i", 0x0, "r"
	DCB	0x0, "q", 0x0, ":", 0x0, " ", 0x0, "%", 0x0, "d", 0x0, ")"
	DCB	0x0, 0xd, 0x0, 0xa, 0x0, 0x0, 0x0	; `string'
; Function compile flags: /Ogspy

  00000			 AREA	 |.text|, CODE, ARM

  00000		 |OEMInterruptEnable| PROC

; 294  : {

  00000		 |$LN17@OEMInterru|
  00000	e92d40f0	 stmdb       sp!, {r4 - r7, lr}
  00004	e24dd008	 sub         sp, sp, #8
  00008		 |$M39547|
  00008	e1a05000	 mov         r5, r0

; 295  :     BOOL rc = FALSE;
; 296  :     const UINT32 irq = g_oalSysIntr2Irq[sysIntr];
; 297  : 
; 298  :     OALMSGS(OAL_INTR&&OAL_VERBOSE, 
; 299  :         (L"+OEMInterruptEnable(%d, 0x%x, %d) (irq: %d)\r\n", sysIntr, pData, dataSize, irq
; 300  :         ));

  0000c	e59f7100	 ldr         r7, [pc, #0x100]
  00010	e59f60f8	 ldr         r6, [pc, #0xF8]
  00014	e2873c01	 add         r3, r7, #1, 24
  00018	e7934105	 ldr         r4, [r3, +r5, lsl #2]
  0001c	e596e440	 ldr         lr, [r6, #0x440]
  00020	e58d4004	 str         r4, [sp, #4]
  00024	e31e0901	 tst         lr, #1, 18
  00028	0a000009	 beq         |$LN7@OEMInterru|
  0002c	e31e0902	 tst         lr, #2, 18
  00030	0a000007	 beq         |$LN7@OEMInterru|
  00034	e59f00d0	 ldr         r0, [pc, #0xD0]
  00038	e1a03002	 mov         r3, r2
  0003c	e1a02001	 mov         r2, r1
  00040	e1a01005	 mov         r1, r5
  00044	e58d4000	 str         r4, [sp]
  00048	eb000000	 bl          OALLogSerial
  0004c	e596e440	 ldr         lr, [r6, #0x440]
  00050	e59d4004	 ldr         r4, [sp, #4]
  00054		 |$LN7@OEMInterru|

; 301  : 
; 302  :     // SYSINTR_VMINI & SYSINTR_TIMING are special cases
; 303  :     if ((sysIntr == SYSINTR_VMINI) || (sysIntr == SYSINTR_TIMING))

  00054	e355000f	 cmp         r5, #0xF
  00058	0a00001e	 beq         |$LN3@OEMInterru|
  0005c	e355000a	 cmp         r5, #0xA
  00060	0a00001c	 beq         |$LN3@OEMInterru|

; 306  :         goto cleanUp;
; 307  :         }
; 308  : 
; 309  :     // Update the reference count for this irq
; 310  :     g_oalIrqRefCount[irq]++;

  00064	e1a02104	 mov         r2, r4, lsl #2
  00068	e2873e32	 add         r3, r7, #0x32, 28
  0006c	e7b23003	 ldr         r3, [r2, +r3]!
  00070	e2833001	 add         r3, r3, #1
  00074	e5823000	 str         r3, [r2]

; 311  : 
; 312  :     // Enable the irq only if it was disabled previously and if we're not masking it
; 313  :     if(g_oalIrqRefCount[irq] == 1 && g_oalIrqMaskRefCount[irq] == 0)

  00078	e3530001	 cmp         r3, #1
  0007c	1a00000d	 bne         |$LN2@OEMInterru|
  00080	e7973104	 ldr         r3, [r7, +r4, lsl #2]
  00084	e3530000	 cmp         r3, #0
  00088	1a00000a	 bne         |$LN2@OEMInterru|

; 314  :         {
; 315  :         OALMSGS(OAL_INTR&&OAL_VERBOSE, (L"OEMInterruptEnable: calling OALIntrEnableIrqs for irq %d\r\n", irq));

  0008c	e31e0901	 tst         lr, #1, 18
  00090	131e0902	 tstne       lr, #2, 18
  00094	159f006c	 ldrne       r0, [pc, #0x6C]
  00098	11a01004	 movne       r1, r4
  0009c	1b000000	 blne        OALLogSerial

; 316  :         rc = OALIntrEnableIrqs(1, &irq);

  000a0	e28d1004	 add         r1, sp, #4
  000a4	e3a00001	 mov         r0, #1
  000a8	eb000000	 bl          OALIntrEnableIrqs

; 317  :         }
; 318  :     else

  000ac	e596e440	 ldr         lr, [r6, #0x440]
  000b0	e1a04000	 mov         r4, r0
  000b4	ea000008	 b           |$cleanUp$39269|
  000b8		 |$LN2@OEMInterru|

; 319  :         {
; 320  :         OALMSGS(OAL_INTR&&OAL_VERBOSE, (L"OEMInterruptEnable: irq %d already enabled\r\n", irq));

  000b8	e31e0901	 tst         lr, #1, 18
  000bc	0a000005	 beq         |$LN3@OEMInterru|
  000c0	e31e0902	 tst         lr, #2, 18
  000c4	0a000003	 beq         |$LN3@OEMInterru|
  000c8	e59f0034	 ldr         r0, [pc, #0x34]
  000cc	e1a01004	 mov         r1, r4
  000d0	eb000000	 bl          OALLogSerial
  000d4	e596e440	 ldr         lr, [r6, #0x440]
  000d8		 |$LN3@OEMInterru|

; 304  :         {
; 305  :         rc = TRUE;

  000d8	e3a04001	 mov         r4, #1
  000dc		 |$cleanUp$39269|

; 321  :         rc = TRUE;
; 322  :         }
; 323  : 
; 324  : cleanUp:    
; 325  :     OALMSGS(OAL_INTR&&OAL_VERBOSE, (L"-OEMInterruptEnable(rc = %d)\r\n", rc));

  000dc	e31e0901	 tst         lr, #1, 18
  000e0	131e0902	 tstne       lr, #2, 18
  000e4	159f0014	 ldrne       r0, [pc, #0x14]
  000e8	11a01004	 movne       r1, r4
  000ec	1b000000	 blne        OALLogSerial

; 326  :     return rc;
; 327  : }

  000f0	e1a00004	 mov         r0, r4
  000f4	e28dd008	 add         sp, sp, #8
  000f8	e8bd40f0	 ldmia       sp!, {r4 - r7, lr}
  000fc	e12fff1e	 bx          lr
  00100		 |$LN18@OEMInterru|
  00100		 |$LN19@OEMInterru|
  00100	00000000	 DCD         |??_C@_1DO@CCOKGOKA@?$AA?9?$AAO?$AAE?$AAM?$AAI?$AAn?$AAt?$AAe?$AAr?$AAr?$AAu?$AAp?$AAt?$AAE?$AAn?$AAa?$AAb?$AAl?$AAe?$AA?$CI?$AAr?$AAc?$AA?5?$AA?$DN?$AA?5?$AA?$CF?$AAd?$AA?$CJ?$AA?$AN?$AA?6?$AA?$AA@|
  00104		 |$LN20@OEMInterru|
  00104	00000000	 DCD         |??_C@_1FK@DILNBJGN@?$AAO?$AAE?$AAM?$AAI?$AAn?$AAt?$AAe?$AAr?$AAr?$AAu?$AAp?$AAt?$AAE?$AAn?$AAa?$AAb?$AAl?$AAe?$AA?3?$AA?5?$AAi?$AAr?$AAq?$AA?5?$AA?$CF?$AAd?$AA?5?$AAa?$AAl?$AAr?$AAe?$AAa@|
  00108		 |$LN21@OEMInterru|
  00108	00000000	 DCD         |??_C@_1HG@GDCGEFKG@?$AAO?$AAE?$AAM?$AAI?$AAn?$AAt?$AAe?$AAr?$AAr?$AAu?$AAp?$AAt?$AAE?$AAn?$AAa?$AAb?$AAl?$AAe?$AA?3?$AA?5?$AAc?$AAa?$AAl?$AAl?$AAi?$AAn?$AAg?$AA?5?$AAO?$AAA?$AAL?$AAI@|
  0010c		 |$LN22@OEMInterru|
  0010c	00000000	 DCD         |??_C@_1FM@EEKLHHAL@?$AA?$CL?$AAO?$AAE?$AAM?$AAI?$AAn?$AAt?$AAe?$AAr?$AAr?$AAu?$AAp?$AAt?$AAE?$AAn?$AAa?$AAb?$AAl?$AAe?$AA?$CI?$AA?$CF?$AAd?$AA?0?$AA?5?$AA0?$AAx?$AA?$CF?$AAx?$AA?0?$AA?5?$AA?$CF?$AAd@|
  00110		 |$LN23@OEMInterru|
  00110	00000000	 DCD         |dpCurSettings|
  00114		 |$LN24@OEMInterru|
  00114	00000000	 DCD         |g_oalIrqMaskRefCount|
  00118		 |$M39548|

			 ENDP  ; |OEMInterruptEnable|

	EXPORT	|OEMInterruptDisable|
	EXPORT	|??_C@_1CO@FKOPLHGO@?$AA?9?$AAO?$AAE?$AAM?$AAI?$AAn?$AAt?$AAe?$AAr?$AAr?$AAu?$AAp?$AAt?$AAD?$AAi?$AAs?$AAa?$AAb?$AAl?$AAe?$AA?$AN?$AA?6?$AA?$AA@| [ DATA ] ; `string'
	EXPORT	|??_C@_1LG@JNFIMLFO@?$AAO?$AAE?$AAM?$AAI?$AAn?$AAt?$AAe?$AAr?$AAr?$AAu?$AAp?$AAt?$AAD?$AAi?$AAs?$AAa?$AAb?$AAl?$AAe?$AA?$CI?$AA?$CF?$AAd?$AA?$CJ?$AA?0?$AA?5?$AAi?$AAr?$AAq?$AA?3?$AA?5?$AA?$CF?$AAd@| [ DATA ] ; `string'
	EXPORT	|??_C@_1EI@DJKFGLDI@?$AA?$CL?$AAO?$AAE?$AAM?$AAI?$AAn?$AAt?$AAe?$AAr?$AAr?$AAu?$AAp?$AAt?$AAD?$AAi?$AAs?$AAa?$AAb?$AAl?$AAe?$AA?$CI?$AA?$CF?$AAd?$AA?$CJ?$AA?0?$AA?5?$AAi?$AAr?$AAq?$AA?3?$AA?5?$AA?$CF@| [ DATA ] ; `string'
	IMPORT	|OALIntrDisableIrqs|

  00000			 AREA	 |.pdata|, PDATA
|$T39572| DCD	|$LN14@OEMInterru@2|
	DCD	0x40003702

  00000			 AREA	 |.rdata|, DATA, READONLY
|??_C@_1CO@FKOPLHGO@?$AA?9?$AAO?$AAE?$AAM?$AAI?$AAn?$AAt?$AAe?$AAr?$AAr?$AAu?$AAp?$AAt?$AAD?$AAi?$AAs?$AAa?$AAb?$AAl?$AAe?$AA?$AN?$AA?6?$AA?$AA@| DCB "-"
	DCB	0x0, "O", 0x0, "E", 0x0, "M", 0x0, "I", 0x0, "n", 0x0, "t"
	DCB	0x0, "e", 0x0, "r", 0x0, "r", 0x0, "u", 0x0, "p", 0x0, "t"
	DCB	0x0, "D", 0x0, "i", 0x0, "s", 0x0, "a", 0x0, "b", 0x0, "l"
	DCB	0x0, "e", 0x0, 0xd, 0x0, 0xa, 0x0, 0x0, 0x0 ; `string'

  00000			 AREA	 |.rdata|, DATA, READONLY
|??_C@_1LG@JNFIMLFO@?$AAO?$AAE?$AAM?$AAI?$AAn?$AAt?$AAe?$AAr?$AAr?$AAu?$AAp?$AAt?$AAD?$AAi?$AAs?$AAa?$AAb?$AAl?$AAe?$AA?$CI?$AA?$CF?$AAd?$AA?$CJ?$AA?0?$AA?5?$AAi?$AAr?$AAq?$AA?3?$AA?5?$AA?$CF?$AAd@| DCB "O"
	DCB	0x0, "E", 0x0, "M", 0x0, "I", 0x0, "n", 0x0, "t", 0x0, "e"
	DCB	0x0, "r", 0x0, "r", 0x0, "u", 0x0, "p", 0x0, "t", 0x0, "D"
	DCB	0x0, "i", 0x0, "s", 0x0, "a", 0x0, "b", 0x0, "l", 0x0, "e"
	DCB	0x0, "(", 0x0, "%", 0x0, "d", 0x0, ")", 0x0, ",", 0x0, " "
	DCB	0x0, "i", 0x0, "r", 0x0, "q", 0x0, ":", 0x0, " ", 0x0, "%"
	DCB	0x0, "d", 0x0, " ", 0x0, "t", 0x0, "r", 0x0, "y", 0x0, "i"
	DCB	0x0, "n", 0x0, "g", 0x0, " ", 0x0, "t", 0x0, "o", 0x0, " "
	DCB	0x0, "d", 0x0, "i", 0x0, "s", 0x0, "a", 0x0, "b", 0x0, "l"
	DCB	0x0, "e", 0x0, " ", 0x0, "a", 0x0, "n", 0x0, " ", 0x0, "i"
	DCB	0x0, "n", 0x0, "t", 0x0, "e", 0x0, "r", 0x0, "r", 0x0, "u"
	DCB	0x0, "p", 0x0, "t", 0x0, " ", 0x0, "t", 0x0, "h", 0x0, "a"
	DCB	0x0, "t", 0x0, " ", 0x0, "i", 0x0, "s", 0x0, " ", 0x0, "a"
	DCB	0x0, "l", 0x0, "r", 0x0, "e", 0x0, "a", 0x0, "d", 0x0, "y"
	DCB	0x0, " ", 0x0, "d", 0x0, "i", 0x0, "s", 0x0, "a", 0x0, "b"
	DCB	0x0, "l", 0x0, "e", 0x0, "d", 0x0, 0xd, 0x0, 0xa, 0x0, 0x0
	DCB	0x0					; `string'

  00000			 AREA	 |.rdata|, DATA, READONLY
|??_C@_1EI@DJKFGLDI@?$AA?$CL?$AAO?$AAE?$AAM?$AAI?$AAn?$AAt?$AAe?$AAr?$AAr?$AAu?$AAp?$AAt?$AAD?$AAi?$AAs?$AAa?$AAb?$AAl?$AAe?$AA?$CI?$AA?$CF?$AAd?$AA?$CJ?$AA?0?$AA?5?$AAi?$AAr?$AAq?$AA?3?$AA?5?$AA?$CF@| DCB "+"
	DCB	0x0, "O", 0x0, "E", 0x0, "M", 0x0, "I", 0x0, "n", 0x0, "t"
	DCB	0x0, "e", 0x0, "r", 0x0, "r", 0x0, "u", 0x0, "p", 0x0, "t"
	DCB	0x0, "D", 0x0, "i", 0x0, "s", 0x0, "a", 0x0, "b", 0x0, "l"
	DCB	0x0, "e", 0x0, "(", 0x0, "%", 0x0, "d", 0x0, ")", 0x0, ","
	DCB	0x0, " ", 0x0, "i", 0x0, "r", 0x0, "q", 0x0, ":", 0x0, " "
	DCB	0x0, "%", 0x0, "d", 0x0, 0xd, 0x0, 0xa, 0x0, 0x0, 0x0 ; `string'
; Function compile flags: /Ogspy

  00000			 AREA	 |.text|, CODE, ARM

  00000		 |OEMInterruptDisable| PROC

; 339  : {

  00000		 |$LN14@OEMInterru@2|
  00000	e92d4070	 stmdb       sp!, {r4 - r6, lr}
  00004	e24dd004	 sub         sp, sp, #4
  00008		 |$M39569|
  00008	e1a06000	 mov         r6, r0

; 340  :     const UINT32 irq = g_oalSysIntr2Irq[sysIntr];
; 341  : 
; 342  :     OALMSGS(OAL_INTR&&OAL_VERBOSE, (L"+OEMInterruptDisable(%d), irq: %d\r\n", sysIntr, irq));

  0000c	e59f40c4	 ldr         r4, [pc, #0xC4]
  00010	e59f50bc	 ldr         r5, [pc, #0xBC]
  00014	e2843c01	 add         r3, r4, #1, 24
  00018	e7932106	 ldr         r2, [r3, +r6, lsl #2]
  0001c	e5951440	 ldr         r1, [r5, #0x440]
  00020	e58d2000	 str         r2, [sp]
  00024	e3110901	 tst         r1, #1, 18
  00028	0a000006	 beq         |$LN6@OEMInterru@2|
  0002c	e3110902	 tst         r1, #2, 18
  00030	0a000004	 beq         |$LN6@OEMInterru@2|
  00034	e59f0094	 ldr         r0, [pc, #0x94]
  00038	e1a01006	 mov         r1, r6
  0003c	eb000000	 bl          OALLogSerial
  00040	e59d2000	 ldr         r2, [sp]
  00044	e5951440	 ldr         r1, [r5, #0x440]
  00048		 |$LN6@OEMInterru@2|

; 343  : 
; 344  :     // Update the reference count for this irq
; 345  :     if( g_oalIrqRefCount[irq] == 0)

  00048	e2840e32	 add         r0, r4, #0x32, 28
  0004c	e7b03102	 ldr         r3, [r0, +r2, lsl #2]!
  00050	e3530000	 cmp         r3, #0
  00054	1a000007	 bne         |$LN3@OEMInterru@2|

; 346  :         {
; 347  :         OALMSGS(OAL_WARN, (L"OEMInterruptDisable(%d), irq: %d trying to disable an interrupt that is already disabled\r\n", sysIntr, irq));

  00058	e3110002	 tst         r1, #2
  0005c	0a000007	 beq         |$LN2@OEMInterru@2|
  00060	e59f0064	 ldr         r0, [pc, #0x64]
  00064	e1a01006	 mov         r1, r6
  00068	eb000000	 bl          OALLogSerial

; 348  :         }
; 349  :     else

  0006c	e59d2000	 ldr         r2, [sp]
  00070	e5951440	 ldr         r1, [r5, #0x440]
  00074	ea000001	 b           |$LN2@OEMInterru@2|
  00078		 |$LN3@OEMInterru@2|

; 350  :         { 
; 351  :         g_oalIrqRefCount[irq]--;

  00078	e2433001	 sub         r3, r3, #1
  0007c	e5803000	 str         r3, [r0]
  00080		 |$LN2@OEMInterru@2|

; 352  :         }
; 353  : 
; 354  :     // Disable the irq only if this is the last enabled device sharing the irq
; 355  :     // If we're masking the irq, no need to call disable since it's already disabled
; 356  :     if(g_oalIrqRefCount[irq] == 0 && g_oalIrqMaskRefCount[irq] == 0)

  00080	e2843e32	 add         r3, r4, #0x32, 28
  00084	e7933102	 ldr         r3, [r3, +r2, lsl #2]
  00088	e3530000	 cmp         r3, #0
  0008c	1a000006	 bne         |$LN1@OEMInterru@2|
  00090	e7943102	 ldr         r3, [r4, +r2, lsl #2]
  00094	e3530000	 cmp         r3, #0
  00098	1a000003	 bne         |$LN1@OEMInterru@2|

; 357  :         {
; 358  :         OALIntrDisableIrqs(1, &irq);

  0009c	e28d1000	 add         r1, sp, #0
  000a0	e3a00001	 mov         r0, #1
  000a4	eb000000	 bl          OALIntrDisableIrqs
  000a8	e5951440	 ldr         r1, [r5, #0x440]
  000ac		 |$LN1@OEMInterru@2|

; 359  :         }
; 360  : 
; 361  :     OALMSGS(OAL_INTR&&OAL_VERBOSE, (L"-OEMInterruptDisable\r\n"));

  000ac	e3110901	 tst         r1, #1, 18
  000b0	13110902	 tstne       r1, #2, 18
  000b4	159f000c	 ldrne       r0, [pc, #0xC]
  000b8	1b000000	 blne        OALLogSerial

; 362  : }

  000bc	e28dd004	 add         sp, sp, #4
  000c0	e8bd4070	 ldmia       sp!, {r4 - r6, lr}
  000c4	e12fff1e	 bx          lr
  000c8		 |$LN15@OEMInterru@2|
  000c8		 |$LN16@OEMInterru@2|
  000c8	00000000	 DCD         |??_C@_1CO@FKOPLHGO@?$AA?9?$AAO?$AAE?$AAM?$AAI?$AAn?$AAt?$AAe?$AAr?$AAr?$AAu?$AAp?$AAt?$AAD?$AAi?$AAs?$AAa?$AAb?$AAl?$AAe?$AA?$AN?$AA?6?$AA?$AA@|
  000cc		 |$LN17@OEMInterru@2|
  000cc	00000000	 DCD         |??_C@_1LG@JNFIMLFO@?$AAO?$AAE?$AAM?$AAI?$AAn?$AAt?$AAe?$AAr?$AAr?$AAu?$AAp?$AAt?$AAD?$AAi?$AAs?$AAa?$AAb?$AAl?$AAe?$AA?$CI?$AA?$CF?$AAd?$AA?$CJ?$AA?0?$AA?5?$AAi?$AAr?$AAq?$AA?3?$AA?5?$AA?$CF?$AAd@|
  000d0		 |$LN18@OEMInterru@2|
  000d0	00000000	 DCD         |??_C@_1EI@DJKFGLDI@?$AA?$CL?$AAO?$AAE?$AAM?$AAI?$AAn?$AAt?$AAe?$AAr?$AAr?$AAu?$AAp?$AAt?$AAD?$AAi?$AAs?$AAa?$AAb?$AAl?$AAe?$AA?$CI?$AA?$CF?$AAd?$AA?$CJ?$AA?0?$AA?5?$AAi?$AAr?$AAq?$AA?3?$AA?5?$AA?$CF@|
  000d4		 |$LN19@OEMInterru@2|
  000d4	00000000	 DCD         |dpCurSettings|
  000d8		 |$LN20@OEMInterru@2|
  000d8	00000000	 DCD         |g_oalIrqMaskRefCount|
  000dc		 |$M39570|

			 ENDP  ; |OEMInterruptDisable|

	EXPORT	|OEMInterruptMask|
	EXPORT	|??_C@_1CI@OPHGDEL@?$AA?9?$AAO?$AAE?$AAM?$AAI?$AAn?$AAt?$AAe?$AAr?$AAr?$AAu?$AAp?$AAt?$AAM?$AAa?$AAs?$AAk?$AA?$AN?$AA?6?$AA?$AA@| [ DATA ] ; `string'
	EXPORT	|??_C@_1IO@PCGMJAEB@?$AAO?$AAE?$AAM?$AAI?$AAn?$AAt?$AAe?$AAr?$AAr?$AAu?$AAp?$AAt?$AAM?$AAa?$AAs?$AAk?$AA?$CI?$AA?$CF?$AAd?$AA?$CJ?$AA?0?$AA?5?$AAi?$AAr?$AAq?$AA?3?$AA?5?$AA?$CF?$AAd?$AA?5?$AAt?$AAr@| [ DATA ] ; `string'
	EXPORT	|??_C@_1EK@HPILFDCF@?$AA?$CL?$AAO?$AAE?$AAM?$AAI?$AAn?$AAt?$AAe?$AAr?$AAr?$AAu?$AAp?$AAt?$AAM?$AAa?$AAs?$AAk?$AA?$CI?$AA?$CF?$AAd?$AA?0?$AA?5?$AA?$CF?$AAd?$AA?$CJ?$AA?0?$AA?5?$AAi?$AAr?$AAq?$AA?3?$AA?5@| [ DATA ] ; `string'

  00000			 AREA	 |.pdata|, PDATA
|$T39595| DCD	|$LN18@OEMInterru@3|
	DCD	0x40004b02

  00000			 AREA	 |.rdata|, DATA, READONLY
|??_C@_1CI@OPHGDEL@?$AA?9?$AAO?$AAE?$AAM?$AAI?$AAn?$AAt?$AAe?$AAr?$AAr?$AAu?$AAp?$AAt?$AAM?$AAa?$AAs?$AAk?$AA?$AN?$AA?6?$AA?$AA@| DCB "-"
	DCB	0x0, "O", 0x0, "E", 0x0, "M", 0x0, "I", 0x0, "n", 0x0, "t"
	DCB	0x0, "e", 0x0, "r", 0x0, "r", 0x0, "u", 0x0, "p", 0x0, "t"
	DCB	0x0, "M", 0x0, "a", 0x0, "s", 0x0, "k", 0x0, 0xd, 0x0, 0xa
	DCB	0x0, 0x0, 0x0				; `string'

  00000			 AREA	 |.rdata|, DATA, READONLY
|??_C@_1IO@PCGMJAEB@?$AAO?$AAE?$AAM?$AAI?$AAn?$AAt?$AAe?$AAr?$AAr?$AAu?$AAp?$AAt?$AAM?$AAa?$AAs?$AAk?$AA?$CI?$AA?$CF?$AAd?$AA?$CJ?$AA?0?$AA?5?$AAi?$AAr?$AAq?$AA?3?$AA?5?$AA?$CF?$AAd?$AA?5?$AAt?$AAr@| DCB "O"
	DCB	0x0, "E", 0x0, "M", 0x0, "I", 0x0, "n", 0x0, "t", 0x0, "e"
	DCB	0x0, "r", 0x0, "r", 0x0, "u", 0x0, "p", 0x0, "t", 0x0, "M"
	DCB	0x0, "a", 0x0, "s", 0x0, "k", 0x0, "(", 0x0, "%", 0x0, "d"
	DCB	0x0, ")", 0x0, ",", 0x0, " ", 0x0, "i", 0x0, "r", 0x0, "q"
	DCB	0x0, ":", 0x0, " ", 0x0, "%", 0x0, "d", 0x0, " ", 0x0, "t"
	DCB	0x0, "r", 0x0, "y", 0x0, "i", 0x0, "n", 0x0, "g", 0x0, " "
	DCB	0x0, "t", 0x0, "o", 0x0, " ", 0x0, "u", 0x0, "n", 0x0, "m"
	DCB	0x0, "a", 0x0, "s", 0x0, "k", 0x0, " ", 0x0, "a", 0x0, "n"
	DCB	0x0, " ", 0x0, "u", 0x0, "n", 0x0, "m", 0x0, "a", 0x0, "s"
	DCB	0x0, "k", 0x0, "e", 0x0, "d", 0x0, " ", 0x0, "i", 0x0, "n"
	DCB	0x0, "t", 0x0, "e", 0x0, "r", 0x0, "r", 0x0, "u", 0x0, "p"
	DCB	0x0, "t", 0x0, 0xd, 0x0, 0xa, 0x0, 0x0, 0x0 ; `string'

  00000			 AREA	 |.rdata|, DATA, READONLY
|??_C@_1EK@HPILFDCF@?$AA?$CL?$AAO?$AAE?$AAM?$AAI?$AAn?$AAt?$AAe?$AAr?$AAr?$AAu?$AAp?$AAt?$AAM?$AAa?$AAs?$AAk?$AA?$CI?$AA?$CF?$AAd?$AA?0?$AA?5?$AA?$CF?$AAd?$AA?$CJ?$AA?0?$AA?5?$AAi?$AAr?$AAq?$AA?3?$AA?5@| DCB "+"
	DCB	0x0, "O", 0x0, "E", 0x0, "M", 0x0, "I", 0x0, "n", 0x0, "t"
	DCB	0x0, "e", 0x0, "r", 0x0, "r", 0x0, "u", 0x0, "p", 0x0, "t"
	DCB	0x0, "M", 0x0, "a", 0x0, "s", 0x0, "k", 0x0, "(", 0x0, "%"
	DCB	0x0, "d", 0x0, ",", 0x0, " ", 0x0, "%", 0x0, "d", 0x0, ")"
	DCB	0x0, ",", 0x0, " ", 0x0, "i", 0x0, "r", 0x0, "q", 0x0, ":"
	DCB	0x0, " ", 0x0, "%", 0x0, "d", 0x0, 0xd, 0x0, 0xa, 0x0, 0x0
	DCB	0x0					; `string'
; Function compile flags: /Ogspy

  00000			 AREA	 |.text|, CODE, ARM

  00000		 |OEMInterruptMask| PROC

; 376  : {

  00000		 |$LN18@OEMInterru@3|
  00000	e92d41f0	 stmdb       sp!, {r4 - r8, lr}
  00004	e24dd004	 sub         sp, sp, #4
  00008		 |$M39592|
  00008	e1a07001	 mov         r7, r1
  0000c	e1a08000	 mov         r8, r0

; 377  :     const UINT32 irq = g_oalSysIntr2Irq[sysIntr];
; 378  : 
; 379  :     OALMSGS(OAL_INTR&&OAL_VERBOSE, (
; 380  :         L"+OEMInterruptMask(%d, %d), irq: %d\r\n", sysIntr, mask, irq
; 381  :         ));

  00010	e59f5110	 ldr         r5, [pc, #0x110]
  00014	e59f6108	 ldr         r6, [pc, #0x108]
  00018	e2853c01	 add         r3, r5, #1, 24
  0001c	e7934108	 ldr         r4, [r3, +r8, lsl #2]
  00020	e596e440	 ldr         lr, [r6, #0x440]
  00024	e58d4000	 str         r4, [sp]
  00028	e31e0901	 tst         lr, #1, 18
  0002c	0a000008	 beq         |$LN9@OEMInterru@3|
  00030	e31e0902	 tst         lr, #2, 18
  00034	0a000006	 beq         |$LN9@OEMInterru@3|
  00038	e59f00e0	 ldr         r0, [pc, #0xE0]
  0003c	e1a03004	 mov         r3, r4
  00040	e1a02007	 mov         r2, r7
  00044	e1a01008	 mov         r1, r8
  00048	eb000000	 bl          OALLogSerial
  0004c	e596e440	 ldr         lr, [r6, #0x440]
  00050	e59d4000	 ldr         r4, [sp]
  00054		 |$LN9@OEMInterru@3|

; 382  : 
; 383  :     // Based on mask enable or disable
; 384  :     if (mask)

  00054	e3570000	 cmp         r7, #0
  00058	0a00000d	 beq         |$LN6@OEMInterru@3|

; 385  :         {
; 386  :         // Update the mask reference count for this irq
; 387  :         g_oalIrqMaskRefCount[irq]++;

  0005c	e1a01104	 mov         r1, r4, lsl #2
  00060	e7b12005	 ldr         r2, [r1, +r5]!

; 388  : 
; 389  :         // Disable the irq if it's not already disabled    
; 390  :         if(g_oalIrqRefCount[irq] > 0 && g_oalIrqMaskRefCount[irq] == 1)

  00064	e2853e32	 add         r3, r5, #0x32, 28
  00068	e7933104	 ldr         r3, [r3, +r4, lsl #2]
  0006c	e2822001	 add         r2, r2, #1
  00070	e5812000	 str         r2, [r1]
  00074	e3530000	 cmp         r3, #0
  00078	9a00001f	 bls         |$LN1@OEMInterru@3|
  0007c	e3520001	 cmp         r2, #1
  00080	1a00001d	 bne         |$LN1@OEMInterru@3|

; 391  :             {
; 392  :             OALIntrDisableIrqs(1, &irq);

  00084	e28d1000	 add         r1, sp, #0
  00088	e3a00001	 mov         r0, #1
  0008c	eb000000	 bl          OALIntrDisableIrqs

; 393  :             }
; 394  :         }
; 395  :     else 

  00090	ea000018	 b           |$LN15@OEMInterru@3|
  00094		 |$LN6@OEMInterru@3|

; 396  :         {
; 397  :         // Update the mask reference count for this irq
; 398  :         if( g_oalIrqMaskRefCount[irq] == 0)

  00094	e1a02005	 mov         r2, r5
  00098	e7b23104	 ldr         r3, [r2, +r4, lsl #2]!
  0009c	e3530000	 cmp         r3, #0
  000a0	1a000008	 bne         |$LN3@OEMInterru@3|

; 399  :             {
; 400  :             OALMSGS(OAL_WARN, (L"OEMInterruptMask(%d), irq: %d trying to unmask an unmasked interrupt\r\n", sysIntr, irq));

  000a4	e31e0002	 tst         lr, #2
  000a8	0a000008	 beq         |$LN2@OEMInterru@3|
  000ac	e59f0068	 ldr         r0, [pc, #0x68]
  000b0	e1a02004	 mov         r2, r4
  000b4	e1a01008	 mov         r1, r8
  000b8	eb000000	 bl          OALLogSerial

; 401  :             }
; 402  :         else

  000bc	e596e440	 ldr         lr, [r6, #0x440]
  000c0	e59d4000	 ldr         r4, [sp]
  000c4	ea000001	 b           |$LN2@OEMInterru@3|
  000c8		 |$LN3@OEMInterru@3|

; 403  :             { 
; 404  :             g_oalIrqMaskRefCount[irq]--;

  000c8	e2433001	 sub         r3, r3, #1
  000cc	e5823000	 str         r3, [r2]
  000d0		 |$LN2@OEMInterru@3|

; 405  :             }
; 406  : 
; 407  :         // Enable the irq if it should be enabled
; 408  :         if(g_oalIrqRefCount[irq] > 0 && g_oalIrqMaskRefCount[irq] == 0)

  000d0	e2853e32	 add         r3, r5, #0x32, 28
  000d4	e7933104	 ldr         r3, [r3, +r4, lsl #2]
  000d8	e3530000	 cmp         r3, #0
  000dc	9a000006	 bls         |$LN1@OEMInterru@3|
  000e0	e7953104	 ldr         r3, [r5, +r4, lsl #2]
  000e4	e3530000	 cmp         r3, #0
  000e8	1a000003	 bne         |$LN1@OEMInterru@3|

; 409  :             {
; 410  :             OALIntrEnableIrqs(1, &irq);

  000ec	e28d1000	 add         r1, sp, #0
  000f0	e3a00001	 mov         r0, #1
  000f4	eb000000	 bl          OALIntrEnableIrqs
  000f8		 |$LN15@OEMInterru@3|
  000f8	e596e440	 ldr         lr, [r6, #0x440]
  000fc		 |$LN1@OEMInterru@3|

; 411  :             }
; 412  :         }
; 413  :     OALMSGS(OAL_INTR&&OAL_VERBOSE, (L"-OEMInterruptMask\r\n"));

  000fc	e31e0901	 tst         lr, #1, 18
  00100	131e0902	 tstne       lr, #2, 18
  00104	159f000c	 ldrne       r0, [pc, #0xC]
  00108	1b000000	 blne        OALLogSerial

; 414  : }

  0010c	e28dd004	 add         sp, sp, #4
  00110	e8bd41f0	 ldmia       sp!, {r4 - r8, lr}
  00114	e12fff1e	 bx          lr
  00118		 |$LN19@OEMInterru@3|
  00118		 |$LN20@OEMInterru@3|
  00118	00000000	 DCD         |??_C@_1CI@OPHGDEL@?$AA?9?$AAO?$AAE?$AAM?$AAI?$AAn?$AAt?$AAe?$AAr?$AAr?$AAu?$AAp?$AAt?$AAM?$AAa?$AAs?$AAk?$AA?$AN?$AA?6?$AA?$AA@|
  0011c		 |$LN21@OEMInterru@3|
  0011c	00000000	 DCD         |??_C@_1IO@PCGMJAEB@?$AAO?$AAE?$AAM?$AAI?$AAn?$AAt?$AAe?$AAr?$AAr?$AAu?$AAp?$AAt?$AAM?$AAa?$AAs?$AAk?$AA?$CI?$AA?$CF?$AAd?$AA?$CJ?$AA?0?$AA?5?$AAi?$AAr?$AAq?$AA?3?$AA?5?$AA?$CF?$AAd?$AA?5?$AAt?$AAr@|
  00120		 |$LN22@OEMInterru@3|
  00120	00000000	 DCD         |??_C@_1EK@HPILFDCF@?$AA?$CL?$AAO?$AAE?$AAM?$AAI?$AAn?$AAt?$AAe?$AAr?$AAr?$AAu?$AAp?$AAt?$AAM?$AAa?$AAs?$AAk?$AA?$CI?$AA?$CF?$AAd?$AA?0?$AA?5?$AA?$CF?$AAd?$AA?$CJ?$AA?0?$AA?5?$AAi?$AAr?$AAq?$AA?3?$AA?5@|
  00124		 |$LN23@OEMInterru@3|
  00124	00000000	 DCD         |dpCurSettings|
  00128		 |$LN24@OEMInterru@3|
  00128	00000000	 DCD         |g_oalIrqMaskRefCount|
  0012c		 |$M39593|

			 ENDP  ; |OEMInterruptMask|

	EXPORT	|OEMInterruptDone|
	EXPORT	|??_C@_1CI@IOEKFHHP@?$AA?9?$AAO?$AAE?$AAM?$AAI?$AAn?$AAt?$AAe?$AAr?$AAr?$AAu?$AAp?$AAt?$AAD?$AAo?$AAn?$AAe?$AA?$AN?$AA?6?$AA?$AA@| [ DATA ] ; `string'
	EXPORT	|??_C@_1EC@LLCCIDFP@?$AA?$CL?$AAO?$AAE?$AAM?$AAI?$AAn?$AAt?$AAe?$AAr?$AAr?$AAu?$AAp?$AAt?$AAD?$AAo?$AAn?$AAe?$AA?$CI?$AA?$CF?$AAd?$AA?$CJ?$AA?0?$AA?5?$AAi?$AAr?$AAq?$AA?3?$AA?5?$AA?$CF?$AAd?$AA?$AN?$AA?6@| [ DATA ] ; `string'
	IMPORT	|OALIntrDoneIrqs|

  00000			 AREA	 |.pdata|, PDATA
|$T39613| DCD	|$LN9@OEMInterru@4|
	DCD	0x40001901

  00000			 AREA	 |.rdata|, DATA, READONLY
|??_C@_1CI@IOEKFHHP@?$AA?9?$AAO?$AAE?$AAM?$AAI?$AAn?$AAt?$AAe?$AAr?$AAr?$AAu?$AAp?$AAt?$AAD?$AAo?$AAn?$AAe?$AA?$AN?$AA?6?$AA?$AA@| DCB "-"
	DCB	0x0, "O", 0x0, "E", 0x0, "M", 0x0, "I", 0x0, "n", 0x0, "t"
	DCB	0x0, "e", 0x0, "r", 0x0, "r", 0x0, "u", 0x0, "p", 0x0, "t"
	DCB	0x0, "D", 0x0, "o", 0x0, "n", 0x0, "e", 0x0, 0xd, 0x0, 0xa
	DCB	0x0, 0x0, 0x0				; `string'

  00000			 AREA	 |.rdata|, DATA, READONLY
|??_C@_1EC@LLCCIDFP@?$AA?$CL?$AAO?$AAE?$AAM?$AAI?$AAn?$AAt?$AAe?$AAr?$AAr?$AAu?$AAp?$AAt?$AAD?$AAo?$AAn?$AAe?$AA?$CI?$AA?$CF?$AAd?$AA?$CJ?$AA?0?$AA?5?$AAi?$AAr?$AAq?$AA?3?$AA?5?$AA?$CF?$AAd?$AA?$AN?$AA?6@| DCB "+"
	DCB	0x0, "O", 0x0, "E", 0x0, "M", 0x0, "I", 0x0, "n", 0x0, "t"
	DCB	0x0, "e", 0x0, "r", 0x0, "r", 0x0, "u", 0x0, "p", 0x0, "t"
	DCB	0x0, "D", 0x0, "o", 0x0, "n", 0x0, "e", 0x0, "(", 0x0, "%"
	DCB	0x0, "d", 0x0, ")", 0x0, ",", 0x0, " ", 0x0, "i", 0x0, "r"
	DCB	0x0, "q", 0x0, ":", 0x0, " ", 0x0, "%", 0x0, "d", 0x0, 0xd
	DCB	0x0, 0xa, 0x0, 0x0, 0x0			; `string'
; Function compile flags: /Ogspy

  00000			 AREA	 |.text|, CODE, ARM

  00000		 |OEMInterruptDone| PROC

; 428  : {

  00000		 |$LN9@OEMInterru@4|
  00000	e92d4070	 stmdb       sp!, {r4 - r6, lr}
  00004		 |$M39610|
  00004	e1a04000	 mov         r4, r0

; 429  :     const UINT32 irq = g_oalSysIntr2Irq[sysIntr];
; 430  : 
; 431  :     OALMSGS(OAL_INTR&&OAL_VERBOSE, (L"+OEMInterruptDone(%d), irq: %d\r\n", sysIntr, irq));

  00008	e59f6050	 ldr         r6, [pc, #0x50]
  0000c	e59f5048	 ldr         r5, [pc, #0x48]
  00010	e5963440	 ldr         r3, [r6, #0x440]
  00014	e3130901	 tst         r3, #1, 18
  00018	13130902	 tstne       r3, #2, 18
  0001c	17952104	 ldrne       r2, [r5, +r4, lsl #2]
  00020	159f0030	 ldrne       r0, [pc, #0x30]
  00024	11a01004	 movne       r1, r4
  00028	1b000000	 blne        OALLogSerial

; 432  : 
; 433  :     OALIntrDoneIrqs(1, &g_oalSysIntr2Irq[sysIntr]);

  0002c	e0851104	 add         r1, r5, r4, lsl #2
  00030	e3a00001	 mov         r0, #1
  00034	eb000000	 bl          OALIntrDoneIrqs

; 434  : 
; 435  :     OALMSGS(OAL_INTR&&OAL_VERBOSE, (L"-OEMInterruptDone\r\n"));

  00038	e5963440	 ldr         r3, [r6, #0x440]
  0003c	e3130901	 tst         r3, #1, 18
  00040	13130902	 tstne       r3, #2, 18
  00044	159f0008	 ldrne       r0, [pc, #8]
  00048	1b000000	 blne        OALLogSerial

; 436  : }

  0004c	e8bd4070	 ldmia       sp!, {r4 - r6, lr}
  00050	e12fff1e	 bx          lr
  00054		 |$LN10@OEMInterru@4|
  00054		 |$LN11@OEMInterru@4|
  00054	00000000	 DCD         |??_C@_1CI@IOEKFHHP@?$AA?9?$AAO?$AAE?$AAM?$AAI?$AAn?$AAt?$AAe?$AAr?$AAr?$AAu?$AAp?$AAt?$AAD?$AAo?$AAn?$AAe?$AA?$AN?$AA?6?$AA?$AA@|
  00058		 |$LN12@OEMInterru@4|
  00058	00000000	 DCD         |??_C@_1EC@LLCCIDFP@?$AA?$CL?$AAO?$AAE?$AAM?$AAI?$AAn?$AAt?$AAe?$AAr?$AAr?$AAu?$AAp?$AAt?$AAD?$AAo?$AAn?$AAe?$AA?$CI?$AA?$CF?$AAd?$AA?$CJ?$AA?0?$AA?5?$AAi?$AAr?$AAq?$AA?3?$AA?5?$AA?$CF?$AAd?$AA?$AN?$AA?6@|
  0005c		 |$LN13@OEMInterru@4|
  0005c	00000000	 DCD         |g_oalSysIntr2Irq|
  00060		 |$LN14@OEMInterru@4|
  00060	00000000	 DCD         |dpCurSettings|
  00064		 |$M39611|

			 ENDP  ; |OEMInterruptDone|

	END
