; Listing generated by Microsoft (R) Optimizing Compiler Version 14.01.60511.01 

	TTL	C:\WINCE600\PLATFORM\Z2170P\SRC\BOOTLOADER\EBOOT\NAND\flash.c
	CODE32

  00000			 AREA	 |.drectve|, DRECTVE
	DCB	"-defaultlib:LIBCMT "
	DCB	"-defaultlib:OLDNAMES "

	EXPORT	|g_ulFlashBase| [ DATA ]
	EXPORT	|g_ulFlashLengthBytes| [ DATA ]
	EXPORT	|g_ulBPartBase| [ DATA ]
	EXPORT	|g_ulBPartLengthBytes| [ DATA ]

  00000			 AREA	 |.bss|, NOINIT
|g_bpartBuffer| % 0x20a00

  00000			 AREA	 |.data|, DATA
	 COMMON	|s_binDio|, 0x10

|g_ulFlashBase| DCD 0x8000000
|g_ulFlashLengthBytes| DCD 0x2
|g_ulBPartBase| DCD |g_bpartBuffer|
|g_ulBPartLengthBytes| DCD 0x20a00

  00000			 AREA	 |.rdata|, DATA, READONLY
|EdbgVendorIds| DCW 0x0
	DCW	0x0
	DCD	0x4033
	DCB	0x1
	DCB	"AD", 0x0
	DCW	0x1050
	DCW	0x940
	DCD	0x4005
	DCB	0x1
	DCB	"LS", 0x0
	DCW	0x1050
	DCW	0x940
	DCD	0x2078
	DCB	0x1
	DCB	"LS", 0x0
	DCW	0x10ec
	DCW	0x8029
	DCD	0xc0f0
	DCB	0x1
	DCB	"KS", 0x0
	DCW	0x10ec
	DCW	0x8129
	DCD	0x0
	DCB	0x4
	DCB	"RT", 0x0
	DCW	0x10ec
	DCW	0x8139
	DCD	0x900b
	DCB	0x4
	DCB	"RT", 0x0
	DCW	0x10ec
	DCW	0x8139
	DCD	0xd0c9
	DCB	0x4
	DCB	"RT", 0x0
	DCW	0x10ec
	DCW	0x8139
	DCD	0xe04c
	DCB	0x4
	DCB	"RT", 0x0
	DCW	0x1186
	DCW	0x1300
	DCD	0x50ba
	DCB	0x4
	DCB	"DL", 0x0
	DCW	0x100b
	DCW	0x20
	DCD	0xa0cc
	DCB	0x5
	DCB	"NG", 0x0
	DCW	0x10b7
	DCW	0x9050
	DCD	0x6008
	DCB	0x6
	DCB	"3C", 0x0
	DCW	0x10b7
	DCW	0x9200
	DCD	0x476
	DCB	0x6
	DCB	"3C", 0x0
	EXPORT	|OEMStartEraseFlash|
	EXPORT	|??_C@_1DO@CGLKJNGE@?$AA?9?$AAO?$AAE?$AAM?$AAS?$AAt?$AAa?$AAr?$AAt?$AAE?$AAr?$AAa?$AAs?$AAe?$AAF?$AAl?$AAa?$AAs?$AAh?$AA?$CI?$AAr?$AAc?$AA?5?$AA?$DN?$AA?5?$AA?$CF?$AAd?$AA?$CJ?$AA?$AN?$AA?6?$AA?$AA@| [ DATA ] ; `string'
	EXPORT	|??_C@_1EM@JLOIOPDF@?$AA?$CL?$AAO?$AAE?$AAM?$AAS?$AAt?$AAa?$AAr?$AAt?$AAE?$AAr?$AAa?$AAs?$AAe?$AAF?$AAl?$AAa?$AAs?$AAh?$AA?$CI?$AA0?$AAx?$AA?$CF?$AA0?$AA8?$AAx?$AA?0?$AA?5?$AA0?$AAx?$AA?$CF?$AA0@| [ DATA ] ; `string'
	IMPORT	|NKDbgPrintfW|
	IMPORT	|dpCurSettings|
; File c:\wince600\platform\z2170p\src\bootloader\eboot\nand\flash.c

  00000			 AREA	 |.pdata|, PDATA
|$T48198| DCD	|$LN9@OEMStartEr|
	DCD	0x40001501

  00000			 AREA	 |.rdata|, DATA, READONLY
|??_C@_1DO@CGLKJNGE@?$AA?9?$AAO?$AAE?$AAM?$AAS?$AAt?$AAa?$AAr?$AAt?$AAE?$AAr?$AAa?$AAs?$AAe?$AAF?$AAl?$AAa?$AAs?$AAh?$AA?$CI?$AAr?$AAc?$AA?5?$AA?$DN?$AA?5?$AA?$CF?$AAd?$AA?$CJ?$AA?$AN?$AA?6?$AA?$AA@| DCB "-"
	DCB	0x0, "O", 0x0, "E", 0x0, "M", 0x0, "S", 0x0, "t", 0x0, "a"
	DCB	0x0, "r", 0x0, "t", 0x0, "E", 0x0, "r", 0x0, "a", 0x0, "s"
	DCB	0x0, "e", 0x0, "F", 0x0, "l", 0x0, "a", 0x0, "s", 0x0, "h"
	DCB	0x0, "(", 0x0, "r", 0x0, "c", 0x0, " ", 0x0, "=", 0x0, " "
	DCB	0x0, "%", 0x0, "d", 0x0, ")", 0x0, 0xd, 0x0, 0xa, 0x0, 0x0
	DCB	0x0					; `string'

  00000			 AREA	 |.rdata|, DATA, READONLY
|??_C@_1EM@JLOIOPDF@?$AA?$CL?$AAO?$AAE?$AAM?$AAS?$AAt?$AAa?$AAr?$AAt?$AAE?$AAr?$AAa?$AAs?$AAe?$AAF?$AAl?$AAa?$AAs?$AAh?$AA?$CI?$AA0?$AAx?$AA?$CF?$AA0?$AA8?$AAx?$AA?0?$AA?5?$AA0?$AAx?$AA?$CF?$AA0@| DCB "+"
	DCB	0x0, "O", 0x0, "E", 0x0, "M", 0x0, "S", 0x0, "t", 0x0, "a"
	DCB	0x0, "r", 0x0, "t", 0x0, "E", 0x0, "r", 0x0, "a", 0x0, "s"
	DCB	0x0, "e", 0x0, "F", 0x0, "l", 0x0, "a", 0x0, "s", 0x0, "h"
	DCB	0x0, "(", 0x0, "0", 0x0, "x", 0x0, "%", 0x0, "0", 0x0, "8"
	DCB	0x0, "x", 0x0, ",", 0x0, " ", 0x0, "0", 0x0, "x", 0x0, "%"
	DCB	0x0, "0", 0x0, "8", 0x0, "x", 0x0, ")", 0x0, 0xd, 0x0, 0xa
	DCB	0x0, 0x0, 0x0				; `string'
; Function compile flags: /Ogspy

  00000			 AREA	 |.text|, CODE, ARM

  00000		 |OEMStartEraseFlash| PROC

; 259  : {

  00000		 |$LN9@OEMStartEr|
  00000	e92d4010	 stmdb       sp!, {r4, lr}
  00004		 |$M48195|
  00004	e1a0e000	 mov         lr, r0

; 260  :     BOOL rc = TRUE;
; 261  : 
; 262  : 	UNREFERENCED_PARAMETER(address);
; 263  : 	UNREFERENCED_PARAMETER(size);
; 264  : 
; 265  :     OALMSG(OAL_FUNC, (
; 266  :         L"+OEMStartEraseFlash(0x%08x, 0x%08x)\r\n", address, size
; 267  :         ));

  00008	e59f4040	 ldr         r4, [pc, #0x40]
  0000c	e5943440	 ldr         r3, [r4, #0x440]
  00010	e3130004	 tst         r3, #4
  00014	0a000004	 beq         |$LN3@OEMStartEr|
  00018	e59f002c	 ldr         r0, [pc, #0x2C]
  0001c	e1a02001	 mov         r2, r1
  00020	e1a0100e	 mov         r1, lr
  00024	eb000000	 bl          NKDbgPrintfW
  00028	e5943440	 ldr         r3, [r4, #0x440]
  0002c		 |$LN3@OEMStartEr|

; 268  :     
; 269  :     OALMSG(OAL_FUNC, (L"-OEMStartEraseFlash(rc = %d)\r\n", rc));

  0002c	e3130004	 tst         r3, #4
  00030	159f0010	 ldrne       r0, [pc, #0x10]
  00034	13a01001	 movne       r1, #1
  00038	1b000000	 blne        NKDbgPrintfW

; 270  :     return rc;

  0003c	e3a00001	 mov         r0, #1

; 271  : }

  00040	e8bd4010	 ldmia       sp!, {r4, lr}
  00044	e12fff1e	 bx          lr
  00048		 |$LN10@OEMStartEr|
  00048		 |$LN11@OEMStartEr|
  00048	00000000	 DCD         |??_C@_1DO@CGLKJNGE@?$AA?9?$AAO?$AAE?$AAM?$AAS?$AAt?$AAa?$AAr?$AAt?$AAE?$AAr?$AAa?$AAs?$AAe?$AAF?$AAl?$AAa?$AAs?$AAh?$AA?$CI?$AAr?$AAc?$AA?5?$AA?$DN?$AA?5?$AA?$CF?$AAd?$AA?$CJ?$AA?$AN?$AA?6?$AA?$AA@|
  0004c		 |$LN12@OEMStartEr|
  0004c	00000000	 DCD         |??_C@_1EM@JLOIOPDF@?$AA?$CL?$AAO?$AAE?$AAM?$AAS?$AAt?$AAa?$AAr?$AAt?$AAE?$AAr?$AAa?$AAs?$AAe?$AAF?$AAl?$AAa?$AAs?$AAh?$AA?$CI?$AA0?$AAx?$AA?$CF?$AA0?$AA8?$AAx?$AA?0?$AA?5?$AA0?$AAx?$AA?$CF?$AA0@|
  00050		 |$LN13@OEMStartEr|
  00050	00000000	 DCD         |dpCurSettings|
  00054		 |$M48196|

			 ENDP  ; |OEMStartEraseFlash|

	EXPORT	|OEMContinueEraseFlash|

  00000			 AREA	 |.pdata|, PDATA
|$T48209| DCD	|$LN5@OEMContinu|
	DCD	0x40000100
; Function compile flags: /Ogspy

  00000			 AREA	 |.text|, CODE, ARM

  00000		 |OEMContinueEraseFlash| PROC

; 284  : {

  00000		 |$LN5@OEMContinu|
  00000		 |$M48206|

; 285  : }

  00000	e12fff1e	 bx          lr
  00004		 |$M48207|

			 ENDP  ; |OEMContinueEraseFlash|

	EXPORT	|OEMFinishEraseFlash|

  00000			 AREA	 |.pdata|, PDATA
|$T48218| DCD	|$LN5@OEMFinishE|
	DCD	0x40000200
; Function compile flags: /Ogspy

  00000			 AREA	 |.text|, CODE, ARM

  00000		 |OEMFinishEraseFlash| PROC

; 298  : {

  00000		 |$LN5@OEMFinishE|
  00000		 |$M48215|

; 299  :     BOOL rc = TRUE;
; 300  : 
; 301  :     return rc;

  00000	e3a00001	 mov         r0, #1

; 302  : }

  00004	e12fff1e	 bx          lr
  00008		 |$M48216|

			 ENDP  ; |OEMFinishEraseFlash|

	EXPORT	|??_C@_1DI@PEICDJAI@?$AAS?$AAp?$AAl?$AAa?$AAs?$AAh?$AAc?$AAr?$AAe?$AAe?$AAn?$AA?5?$AAi?$AAm?$AAa?$AAg?$AAe?$AA?5?$AAw?$AAr?$AAi?$AAt?$AAt?$AAe?$AAn?$AA?$AN?$AA?6?$AA?$AA@| [ DATA ] ; `string'
	EXPORT	|??_C@_1JK@INEHPIOE@?$AAE?$AAR?$AAR?$AAO?$AAR?$AA?3?$AA?5?$AAO?$AAE?$AAM?$AAW?$AAr?$AAi?$AAt?$AAe?$AAF?$AAl?$AAa?$AAs?$AAh?$AA?3?$AA?5?$AAO?$AAA?$AAL?$AAF?$AAl?$AAa?$AAs?$AAh?$AAS?$AAt@| [ DATA ] ; `string'
	EXPORT	|??_C@_1JM@NFAJELED@?$AAE?$AAR?$AAR?$AAO?$AAR?$AA?3?$AA?5?$AAO?$AAE?$AAM?$AAW?$AAr?$AAi?$AAt?$AAe?$AAF?$AAl?$AAa?$AAs?$AAh?$AA?3?$AA?5?$AAL?$AAo?$AAg?$AAo?$AA?5?$AAi?$AAm?$AAa?$AAg?$AAe@| [ DATA ] ; `string'
	EXPORT	|??_C@_1GO@DLIAFJMC@?$AAE?$AAR?$AAR?$AAO?$AAR?$AA?3?$AA?5?$AAO?$AAE?$AAM?$AAW?$AAr?$AAi?$AAt?$AAe?$AAF?$AAl?$AAa?$AAs?$AAh?$AA?3?$AA?5?$AAO?$AAA?$AAL?$AAF?$AAl?$AAa?$AAs?$AAh?$AAS?$AAt@| [ DATA ] ; `string'
	EXPORT	|??_C@_1FM@GPKMPIMP@?$AA?$AN?$AA?6?$AAW?$AAr?$AAi?$AAt?$AAi?$AAn?$AAg?$AA?5?$AAS?$AAp?$AAl?$AAa?$AAs?$AAh?$AAc?$AAr?$AAe?$AAe?$AAn?$AA?5?$AAi?$AAm?$AAa?$AAg?$AAe?$AA?5?$AAt?$AAo?$AA?5?$AAf@| [ DATA ] ; `string'
	IMPORT	|OALFlashStoreClose|
	IMPORT	|OALFlashStoreWrite|
	IMPORT	|OEMMapMemAddr|
	IMPORT	|OALFlashStoreBlockSize|
	IMPORT	|OALFlashStoreSectorSize|
	IMPORT	|OALFlashStoreOpen|
	IMPORT	|memset|

  00000			 AREA	 |.pdata|, PDATA
|$T48243| DCD	|$LN20@WriteFlash|
	DCD	0x40005002

  00000			 AREA	 |.rdata|, DATA, READONLY
|??_C@_1DI@PEICDJAI@?$AAS?$AAp?$AAl?$AAa?$AAs?$AAh?$AAc?$AAr?$AAe?$AAe?$AAn?$AA?5?$AAi?$AAm?$AAa?$AAg?$AAe?$AA?5?$AAw?$AAr?$AAi?$AAt?$AAt?$AAe?$AAn?$AA?$AN?$AA?6?$AA?$AA@| DCB "S"
	DCB	0x0, "p", 0x0, "l", 0x0, "a", 0x0, "s", 0x0, "h", 0x0, "c"
	DCB	0x0, "r", 0x0, "e", 0x0, "e", 0x0, "n", 0x0, " ", 0x0, "i"
	DCB	0x0, "m", 0x0, "a", 0x0, "g", 0x0, "e", 0x0, " ", 0x0, "w"
	DCB	0x0, "r", 0x0, "i", 0x0, "t", 0x0, "t", 0x0, "e", 0x0, "n"
	DCB	0x0, 0xd, 0x0, 0xa, 0x0, 0x0, 0x0	; `string'

  00000			 AREA	 |.rdata|, DATA, READONLY
|??_C@_1JK@INEHPIOE@?$AAE?$AAR?$AAR?$AAO?$AAR?$AA?3?$AA?5?$AAO?$AAE?$AAM?$AAW?$AAr?$AAi?$AAt?$AAe?$AAF?$AAl?$AAa?$AAs?$AAh?$AA?3?$AA?5?$AAO?$AAA?$AAL?$AAF?$AAl?$AAa?$AAs?$AAh?$AAS?$AAt@| DCB "E"
	DCB	0x0, "R", 0x0, "R", 0x0, "O", 0x0, "R", 0x0, ":", 0x0, " "
	DCB	0x0, "O", 0x0, "E", 0x0, "M", 0x0, "W", 0x0, "r", 0x0, "i"
	DCB	0x0, "t", 0x0, "e", 0x0, "F", 0x0, "l", 0x0, "a", 0x0, "s"
	DCB	0x0, "h", 0x0, ":", 0x0, " ", 0x0, "O", 0x0, "A", 0x0, "L"
	DCB	0x0, "F", 0x0, "l", 0x0, "a", 0x0, "s", 0x0, "h", 0x0, "S"
	DCB	0x0, "t", 0x0, "o", 0x0, "r", 0x0, "e", 0x0, "W", 0x0, "r"
	DCB	0x0, "i", 0x0, "t", 0x0, "e", 0x0, " ", 0x0, "a", 0x0, "t"
	DCB	0x0, " ", 0x0, "r", 0x0, "e", 0x0, "l", 0x0, "a", 0x0, "t"
	DCB	0x0, "i", 0x0, "v", 0x0, "e", 0x0, " ", 0x0, "a", 0x0, "d"
	DCB	0x0, "d", 0x0, "r", 0x0, "e", 0x0, "s", 0x0, "s", 0x0, " "
	DCB	0x0, "0", 0x0, "x", 0x0, "%", 0x0, "0", 0x0, "8", 0x0, "x"
	DCB	0x0, " ", 0x0, "f", 0x0, "a", 0x0, "i", 0x0, "l", 0x0, "e"
	DCB	0x0, "d", 0x0, 0xd, 0x0, 0xa, 0x0, 0x0, 0x0 ; `string'

  00000			 AREA	 |.rdata|, DATA, READONLY
|??_C@_1JM@NFAJELED@?$AAE?$AAR?$AAR?$AAO?$AAR?$AA?3?$AA?5?$AAO?$AAE?$AAM?$AAW?$AAr?$AAi?$AAt?$AAe?$AAF?$AAl?$AAa?$AAs?$AAh?$AA?3?$AA?5?$AAL?$AAo?$AAg?$AAo?$AA?5?$AAi?$AAm?$AAa?$AAg?$AAe@| DCB "E"
	DCB	0x0, "R", 0x0, "R", 0x0, "O", 0x0, "R", 0x0, ":", 0x0, " "
	DCB	0x0, "O", 0x0, "E", 0x0, "M", 0x0, "W", 0x0, "r", 0x0, "i"
	DCB	0x0, "t", 0x0, "e", 0x0, "F", 0x0, "l", 0x0, "a", 0x0, "s"
	DCB	0x0, "h", 0x0, ":", 0x0, " ", 0x0, "L", 0x0, "o", 0x0, "g"
	DCB	0x0, "o", 0x0, " ", 0x0, "i", 0x0, "m", 0x0, "a", 0x0, "g"
	DCB	0x0, "e", 0x0, " ", 0x0, "t", 0x0, "o", 0x0, "o", 0x0, " "
	DCB	0x0, "b", 0x0, "i", 0x0, "g", 0x0, " ", 0x0, "(", 0x0, "s"
	DCB	0x0, "i", 0x0, "z", 0x0, "e", 0x0, " ", 0x0, "0", 0x0, "x"
	DCB	0x0, "%", 0x0, "0", 0x0, "8", 0x0, "x", 0x0, ",", 0x0, " "
	DCB	0x0, "m", 0x0, "a", 0x0, "x", 0x0, "i", 0x0, "m", 0x0, "u"
	DCB	0x0, "m", 0x0, " ", 0x0, "s", 0x0, "i", 0x0, "z", 0x0, "e"
	DCB	0x0, " ", 0x0, "0", 0x0, "x", 0x0, "%", 0x0, "0", 0x0, "8"
	DCB	0x0, "x", 0x0, ")", 0x0, 0xd, 0x0, 0xa, 0x0, 0x0, 0x0 ; `string'

  00000			 AREA	 |.rdata|, DATA, READONLY
|??_C@_1GO@DLIAFJMC@?$AAE?$AAR?$AAR?$AAO?$AAR?$AA?3?$AA?5?$AAO?$AAE?$AAM?$AAW?$AAr?$AAi?$AAt?$AAe?$AAF?$AAl?$AAa?$AAs?$AAh?$AA?3?$AA?5?$AAO?$AAA?$AAL?$AAF?$AAl?$AAa?$AAs?$AAh?$AAS?$AAt@| DCB "E"
	DCB	0x0, "R", 0x0, "R", 0x0, "O", 0x0, "R", 0x0, ":", 0x0, " "
	DCB	0x0, "O", 0x0, "E", 0x0, "M", 0x0, "W", 0x0, "r", 0x0, "i"
	DCB	0x0, "t", 0x0, "e", 0x0, "F", 0x0, "l", 0x0, "a", 0x0, "s"
	DCB	0x0, "h", 0x0, ":", 0x0, " ", 0x0, "O", 0x0, "A", 0x0, "L"
	DCB	0x0, "F", 0x0, "l", 0x0, "a", 0x0, "s", 0x0, "h", 0x0, "S"
	DCB	0x0, "t", 0x0, "o", 0x0, "r", 0x0, "e", 0x0, "O", 0x0, "p"
	DCB	0x0, "e", 0x0, "n", 0x0, " ", 0x0, "c", 0x0, "a", 0x0, "l"
	DCB	0x0, "l", 0x0, " ", 0x0, "f", 0x0, "a", 0x0, "i", 0x0, "l"
	DCB	0x0, "e", 0x0, "d", 0x0, "!", 0x0, 0xd, 0x0, 0xa, 0x0, 0x0
	DCB	0x0					; `string'

  00000			 AREA	 |.rdata|, DATA, READONLY
|??_C@_1FM@GPKMPIMP@?$AA?$AN?$AA?6?$AAW?$AAr?$AAi?$AAt?$AAi?$AAn?$AAg?$AA?5?$AAS?$AAp?$AAl?$AAa?$AAs?$AAh?$AAc?$AAr?$AAe?$AAe?$AAn?$AA?5?$AAi?$AAm?$AAa?$AAg?$AAe?$AA?5?$AAt?$AAo?$AA?5?$AAf@| DCB 0xd
	DCB	0x0, 0xa, 0x0, "W", 0x0, "r", 0x0, "i", 0x0, "t", 0x0, "i"
	DCB	0x0, "n", 0x0, "g", 0x0, " ", 0x0, "S", 0x0, "p", 0x0, "l"
	DCB	0x0, "a", 0x0, "s", 0x0, "h", 0x0, "c", 0x0, "r", 0x0, "e"
	DCB	0x0, "e", 0x0, "n", 0x0, " ", 0x0, "i", 0x0, "m", 0x0, "a"
	DCB	0x0, "g", 0x0, "e", 0x0, " ", 0x0, "t", 0x0, "o", 0x0, " "
	DCB	0x0, "f", 0x0, "l", 0x0, "a", 0x0, "s", 0x0, "h", 0x0, " "
	DCB	0x0, "m", 0x0, "e", 0x0, "m", 0x0, "o", 0x0, "r", 0x0, "y"
	DCB	0x0, 0xd, 0x0, 0xa, 0x0, 0x0, 0x0	; `string'
; Function compile flags: /Ogspy

  00000			 AREA	 |.text|, CODE, ARM

  00000		 |WriteFlashLogo| PROC

; 706  : {

  00000		 |$LN20@WriteFlash|
  00000	e92d41f0	 stmdb       sp!, {r4 - r8, lr}
  00004	e24dd008	 sub         sp, sp, #8
  00008		 |$M48240|
  00008	e1a05001	 mov         r5, r1
  0000c	e1a08000	 mov         r8, r0

; 707  :     BOOL rc = FALSE;
; 708  :     HANDLE hFlash = NULL;
; 709  :     UINT8 *pData;
; 710  :     UINT32 offset;
; 711  : 
; 712  :     OALMSG(OAL_INFO, (L"\r\nWriting Splashcreen image to flash memory\r\n"));

  00010	e59f4124	 ldr         r4, [pc, #0x124]
  00014	e3a07000	 mov         r7, #0
  00018	e5943440	 ldr         r3, [r4, #0x440]
  0001c	e3130008	 tst         r3, #8
  00020	159f0110	 ldrne       r0, [pc, #0x110]
  00024	1b000000	 blne        NKDbgPrintfW

; 713  : 
; 714  :     // Open flash storage
; 715  :     hFlash = OALFlashStoreOpen(g_ulFlashBase);

  00028	e59f3104	 ldr         r3, [pc, #0x104]
  0002c	e5930000	 ldr         r0, [r3]
  00030	eb000000	 bl          OALFlashStoreOpen
  00034	e1b06000	 movs        r6, r0

; 716  :     if (hFlash == NULL)

  00038	1a000005	 bne         |$LN5@WriteFlash|

; 717  :         {
; 718  :         OALMSG(OAL_ERROR, (L"ERROR: OEMWriteFlash: "
; 719  :             L"OALFlashStoreOpen call failed!\r\n"
; 720  :             ));

  0003c	e5943440	 ldr         r3, [r4, #0x440]
  00040	e3130001	 tst         r3, #1
  00044	0a000032	 beq         |$LN1@WriteFlash|
  00048	e59f00e0	 ldr         r0, [pc, #0xE0]
  0004c	eb000000	 bl          NKDbgPrintfW

; 721  :         goto cleanUp;

  00050	ea00002f	 b           |$LN1@WriteFlash|
  00054		 |$LN5@WriteFlash|

; 722  :         }
; 723  : 
; 724  :     // Check if image fit (last sector used for configuration)
; 725  :     if (size > (IMAGE_BOOTLOADER_BITMAP_SIZE - OALFlashStoreSectorSize(hFlash)))

  00054	e1a00006	 mov         r0, r6
  00058	eb000000	 bl          OALFlashStoreSectorSize
  0005c	e2603601	 rsb         r3, r0, #1, 12
  00060	e1550003	 cmp         r5, r3
  00064	9a00000a	 bls         |$LN4@WriteFlash|

; 726  :         {
; 727  :         OALMSG(OAL_ERROR, (L"ERROR: OEMWriteFlash: "
; 728  :             L"Logo image too big (size 0x%08x, maximum size 0x%08x)\r\n",
; 729  :             size, IMAGE_BOOTLOADER_BITMAP_SIZE - OALFlashStoreBlockSize(hFlash)
; 730  :             ));

  00068	e5943440	 ldr         r3, [r4, #0x440]
  0006c	e3130001	 tst         r3, #1
  00070	0a000025	 beq         |$cleanUp$47948|
  00074	e1a00006	 mov         r0, r6
  00078	eb000000	 bl          OALFlashStoreBlockSize
  0007c	e1a03000	 mov         r3, r0
  00080	e59f00a4	 ldr         r0, [pc, #0xA4]
  00084	e2632601	 rsb         r2, r3, #1, 12
  00088	e1a01005	 mov         r1, r5
  0008c	eb000000	 bl          NKDbgPrintfW

; 731  :         goto cleanUp;

  00090	ea00001d	 b           |$cleanUp$47948|
  00094		 |$LN4@WriteFlash|

; 732  :         }
; 733  : 
; 734  :     // Get data location
; 735  :     pData = OEMMapMemAddr(address, address);

  00094	e1a01008	 mov         r1, r8
  00098	e1a00008	 mov         r0, r8
  0009c	eb000000	 bl          OEMMapMemAddr
  000a0	e1a08000	 mov         r8, r0

; 736  : 
; 737  :     // Fill unused space with 0xFF
; 738  :     if (size < IMAGE_BOOTLOADER_BITMAP_SIZE)

  000a4	e3550601	 cmp         r5, #1, 12

; 739  :         {
; 740  :         memset(pData + size, 0xFF, IMAGE_BOOTLOADER_BITMAP_SIZE - size);

  000a8	30880005	 addcc       r0, r8, r5
  000ac	32652601	 rsbcc       r2, r5, #1, 12
  000b0	33a010ff	 movcc       r1, #0xFF
  000b4	3b000000	 blcc        memset

; 741  :         }
; 742  : 
; 743  :     offset = IMAGE_XLDR_BOOTSEC_NAND_SIZE + IMAGE_EBOOT_BOOTSEC_NAND_SIZE;
; 744  :     if (!OALFlashStoreWrite(
; 745  :             hFlash, offset, pData, IMAGE_BOOTLOADER_BITMAP_SIZE, FALSE, FALSE
; 746  :             ))

  000b8	e3a0e000	 mov         lr, #0
  000bc	e3a03601	 mov         r3, #1, 12
  000c0	e1a02008	 mov         r2, r8
  000c4	e3a01703	 mov         r1, #3, 14
  000c8	e1a00006	 mov         r0, r6
  000cc	e58de004	 str         lr, [sp, #4]
  000d0	e58de000	 str         lr, [sp]
  000d4	eb000000	 bl          OALFlashStoreWrite

; 747  :         {
; 748  :         OALMSG(OAL_ERROR, (L"ERROR: OEMWriteFlash: "
; 749  :             L"OALFlashStoreWrite at relative address 0x%08x failed\r\n", offset
; 750  :             ));

  000d8	e5943440	 ldr         r3, [r4, #0x440]
  000dc	e3500000	 cmp         r0, #0
  000e0	1a000005	 bne         |$LN2@WriteFlash|
  000e4	e3130001	 tst         r3, #1
  000e8	0a000007	 beq         |$cleanUp$47948|
  000ec	e59f0034	 ldr         r0, [pc, #0x34]
  000f0	e3a01703	 mov         r1, #3, 14
  000f4	eb000000	 bl          NKDbgPrintfW

; 751  :         goto cleanUp;

  000f8	ea000003	 b           |$cleanUp$47948|
  000fc		 |$LN2@WriteFlash|

; 752  :         }
; 753  : 
; 754  :     OALMSG(OAL_INFO, (L"Splashcreen image written\r\n"));

  000fc	e3130008	 tst         r3, #8
  00100	159f001c	 ldrne       r0, [pc, #0x1C]
  00104	1b000000	 blne        NKDbgPrintfW

; 755  : 
; 756  :     // Done
; 757  :     rc = TRUE;

  00108	e3a07001	 mov         r7, #1
  0010c		 |$cleanUp$47948|

; 758  : 
; 759  : cleanUp:
; 760  :     if (hFlash != NULL) OALFlashStoreClose(hFlash);

  0010c	e1a00006	 mov         r0, r6
  00110	eb000000	 bl          OALFlashStoreClose
  00114		 |$LN1@WriteFlash|

; 761  :     return rc;
; 762  : }

  00114	e1a00007	 mov         r0, r7
  00118	e28dd008	 add         sp, sp, #8
  0011c	e8bd41f0	 ldmia       sp!, {r4 - r8, lr}
  00120	e12fff1e	 bx          lr
  00124		 |$LN21@WriteFlash|
  00124		 |$LN22@WriteFlash|
  00124	00000000	 DCD         |??_C@_1DI@PEICDJAI@?$AAS?$AAp?$AAl?$AAa?$AAs?$AAh?$AAc?$AAr?$AAe?$AAe?$AAn?$AA?5?$AAi?$AAm?$AAa?$AAg?$AAe?$AA?5?$AAw?$AAr?$AAi?$AAt?$AAt?$AAe?$AAn?$AA?$AN?$AA?6?$AA?$AA@|
  00128		 |$LN23@WriteFlash|
  00128	00000000	 DCD         |??_C@_1JK@INEHPIOE@?$AAE?$AAR?$AAR?$AAO?$AAR?$AA?3?$AA?5?$AAO?$AAE?$AAM?$AAW?$AAr?$AAi?$AAt?$AAe?$AAF?$AAl?$AAa?$AAs?$AAh?$AA?3?$AA?5?$AAO?$AAA?$AAL?$AAF?$AAl?$AAa?$AAs?$AAh?$AAS?$AAt@|
  0012c		 |$LN24@WriteFlash|
  0012c	00000000	 DCD         |??_C@_1JM@NFAJELED@?$AAE?$AAR?$AAR?$AAO?$AAR?$AA?3?$AA?5?$AAO?$AAE?$AAM?$AAW?$AAr?$AAi?$AAt?$AAe?$AAF?$AAl?$AAa?$AAs?$AAh?$AA?3?$AA?5?$AAL?$AAo?$AAg?$AAo?$AA?5?$AAi?$AAm?$AAa?$AAg?$AAe@|
  00130		 |$LN25@WriteFlash|
  00130	00000000	 DCD         |??_C@_1GO@DLIAFJMC@?$AAE?$AAR?$AAR?$AAO?$AAR?$AA?3?$AA?5?$AAO?$AAE?$AAM?$AAW?$AAr?$AAi?$AAt?$AAe?$AAF?$AAl?$AAa?$AAs?$AAh?$AA?3?$AA?5?$AAO?$AAA?$AAL?$AAF?$AAl?$AAa?$AAs?$AAh?$AAS?$AAt@|
  00134		 |$LN26@WriteFlash|
  00134	00000000	 DCD         |g_ulFlashBase|
  00138		 |$LN27@WriteFlash|
  00138	00000000	 DCD         |??_C@_1FM@GPKMPIMP@?$AA?$AN?$AA?6?$AAW?$AAr?$AAi?$AAt?$AAi?$AAn?$AAg?$AA?5?$AAS?$AAp?$AAl?$AAa?$AAs?$AAh?$AAc?$AAr?$AAe?$AAe?$AAn?$AA?5?$AAi?$AAm?$AAa?$AAg?$AAe?$AA?5?$AAt?$AAo?$AA?5?$AAf@|
  0013c		 |$LN28@WriteFlash|
  0013c	00000000	 DCD         |dpCurSettings|
  00140		 |$M48241|

			 ENDP  ; |WriteFlashLogo|

	EXPORT	|??_C@_1GG@PLILEPKK@?$AA?9?$AA?9?$AA?9?$AA?9?$AA?9?$AA?9?$AA?9?$AA?9?$AA?9?$AA?9?$AA?9?$AA?9?$AA?9?$AA?9?$AA?9?$AA?9?$AA?9?$AA?9?$AA?9?$AA?9?$AA?9?$AA?9?$AA?9?$AA?9?$AA?9?$AA?9?$AA?9?$AA?9?$AA?9?$AA?9?$AA?9?$AA?9@| [ DATA ] ; `string'
	EXPORT	|??_C@_1EC@FHNOBDCD@?$AA?5?$AA?5?$AAT?$AAr?$AAa?$AAc?$AAk?$AAi?$AAn?$AAg?$AA?5?$AAM?$AAe?$AAm?$AA?5?$AAL?$AAe?$AAn?$AAg?$AAt?$AAh?$AA?5?$AA?3?$AA?5?$AA0?$AAx?$AA?$CF?$AA0?$AA8?$AAx?$AA?$AN?$AA?6@| [ DATA ] ; `string'
	EXPORT	|??_C@_1EC@OMMGJENJ@?$AA?5?$AA?5?$AAT?$AAr?$AAa?$AAc?$AAk?$AAi?$AAn?$AAg?$AA?5?$AAM?$AAe?$AAm?$AA?5?$AAS?$AAt?$AAa?$AAr?$AAt?$AA?5?$AA?5?$AA?3?$AA?5?$AA0?$AAx?$AA?$CF?$AA0?$AA8?$AAx?$AA?$AN?$AA?6@| [ DATA ] ; `string'
	EXPORT	|??_C@_1EC@JNDLGIKF@?$AA?5?$AA?5?$AAE?$AAx?$AAt?$AAe?$AAn?$AAs?$AAi?$AAo?$AAn?$AAs?$AA?5?$AA?5?$AA?5?$AA?5?$AA?5?$AA?5?$AA?5?$AA?5?$AA?5?$AA?5?$AA?3?$AA?5?$AA0?$AAx?$AA?$CF?$AA0?$AA8?$AAx?$AA?$AN?$AA?6@| [ DATA ] ; `string'
	EXPORT	|??_C@_1EK@NKNNLDBD@?$AA?5?$AA?5?$AAM?$AAi?$AAs?$AAc?$AAF?$AAl?$AAa?$AAg?$AAs?$AA?5?$AA?5?$AA?5?$AA?5?$AA?5?$AA?5?$AA?5?$AA?5?$AA?5?$AA?5?$AA?5?$AA?3?$AA?5?$AA?5?$AA?5?$AA?5?$AA?5?$AA0?$AAx?$AA?$CF?$AA0@| [ DATA ] ; `string'
	EXPORT	|??_C@_1EK@JJJOHJHH@?$AA?5?$AA?5?$AAC?$AAP?$AAU?$AA?5?$AA?5?$AA?5?$AA?5?$AA?5?$AA?5?$AA?5?$AA?5?$AA?5?$AA?5?$AA?5?$AA?5?$AA?5?$AA?5?$AA?5?$AA?5?$AA?5?$AA?3?$AA?5?$AA?5?$AA?5?$AA?5?$AA?5?$AA0?$AAx?$AA?$CF?$AA0@| [ DATA ] ; `string'
	EXPORT	|??_C@_1EC@CCJIKKIG@?$AA?5?$AA?5?$AAD?$AAr?$AAi?$AAv?$AAe?$AAr?$AA?5?$AAG?$AAl?$AAo?$AAb?$AA?5?$AAL?$AAe?$AAn?$AAg?$AAt?$AAh?$AA?5?$AA?5?$AA?3?$AA?5?$AA0?$AAx?$AA?$CF?$AA0?$AA8?$AAx?$AA?$AN?$AA?6@| [ DATA ] ; `string'
	EXPORT	|??_C@_1EC@LPBHAOCK@?$AA?5?$AA?5?$AAD?$AAr?$AAi?$AAv?$AAe?$AAr?$AA?5?$AAG?$AAl?$AAo?$AAb?$AA?5?$AAS?$AAt?$AAa?$AAr?$AAt?$AA?5?$AA?5?$AA?5?$AA?3?$AA?5?$AA0?$AAx?$AA?$CF?$AA0?$AA8?$AAx?$AA?$AN?$AA?6@| [ DATA ] ; `string'
	EXPORT	|??_C@_1EC@IABJILGI@?$AA?5?$AA?5?$AAF?$AAi?$AAl?$AAe?$AAS?$AAy?$AAs?$AA?5?$AAR?$AAA?$AAM?$AA?5?$AAP?$AAe?$AAr?$AAc?$AAe?$AAn?$AAt?$AA?5?$AA?3?$AA?5?$AA0?$AAx?$AA?$CF?$AA0?$AA8?$AAx?$AA?$AN?$AA?6@| [ DATA ] ; `string'
	EXPORT	|??_C@_1EC@GDFJIFCF@?$AA?5?$AA?5?$AAK?$AAe?$AAr?$AAn?$AAe?$AAl?$AA?5?$AAF?$AAl?$AAa?$AAg?$AAs?$AA?5?$AA?5?$AA?5?$AA?5?$AA?5?$AA?5?$AA?5?$AA?5?$AA?3?$AA?5?$AA0?$AAx?$AA?$CF?$AA0?$AA8?$AAx?$AA?$AN?$AA?6@| [ DATA ] ; `string'
	EXPORT	|??_C@_1DO@NPCIPKAK@?$AA?5?$AA?5?$AAN?$AAu?$AAm?$AA?5?$AAF?$AAi?$AAl?$AAe?$AAs?$AA?5?$AA?5?$AA?5?$AA?5?$AA?5?$AA?5?$AA?5?$AA?5?$AA?5?$AA?5?$AA?5?$AA?3?$AA?5?$AA?$CF?$AA1?$AA0?$AAd?$AA?$AN?$AA?6?$AA?$AA@| [ DATA ] ; `string'
	EXPORT	|??_C@_1EC@GLFGIGFP@?$AA?5?$AA?5?$AAP?$AAr?$AAo?$AAf?$AA?5?$AAS?$AAy?$AAm?$AAb?$AAo?$AAl?$AA?5?$AAO?$AAf?$AAf?$AAs?$AAe?$AAt?$AA?5?$AA?5?$AA?3?$AA?5?$AA0?$AAx?$AA?$CF?$AA0?$AA8?$AAx?$AA?$AN?$AA?6@| [ DATA ] ; `string'
	EXPORT	|??_C@_1EC@INEFBELC@?$AA?5?$AA?5?$AAP?$AAr?$AAo?$AAf?$AA?5?$AAS?$AAy?$AAm?$AAb?$AAo?$AAl?$AA?5?$AAL?$AAe?$AAn?$AAg?$AAt?$AAh?$AA?5?$AA?5?$AA?3?$AA?5?$AA0?$AAx?$AA?$CF?$AA0?$AA8?$AAx?$AA?$AN?$AA?6@| [ DATA ] ; `string'
	EXPORT	|??_C@_1EC@FEMDLBGI@?$AA?5?$AA?5?$AAC?$AAo?$AAp?$AAy?$AA?5?$AAE?$AAn?$AAt?$AAr?$AAi?$AAe?$AAs?$AA?5?$AAO?$AAf?$AAf?$AAs?$AAe?$AAt?$AA?5?$AA?3?$AA?5?$AA0?$AAx?$AA?$CF?$AA0?$AA8?$AAx?$AA?$AN?$AA?6@| [ DATA ] ; `string'
	EXPORT	|??_C@_1DO@LFBMBNAO@?$AA?5?$AA?5?$AAN?$AAu?$AAm?$AA?5?$AAC?$AAo?$AAp?$AAy?$AA?5?$AAE?$AAn?$AAt?$AAr?$AAi?$AAe?$AAs?$AA?5?$AA?5?$AA?5?$AA?5?$AA?3?$AA?5?$AA?$CF?$AA1?$AA0?$AAd?$AA?$AN?$AA?6?$AA?$AA@| [ DATA ] ; `string'
	EXPORT	|??_C@_1EC@IKFCIHNK@?$AA?5?$AA?5?$AAR?$AAA?$AAM?$AA?5?$AAE?$AAn?$AAd?$AA?5?$AA?5?$AA?5?$AA?5?$AA?5?$AA?5?$AA?5?$AA?5?$AA?5?$AA?5?$AA?5?$AA?5?$AA?5?$AA?3?$AA?5?$AA0?$AAx?$AA?$CF?$AA0?$AA8?$AAx?$AA?$AN?$AA?6@| [ DATA ] ; `string'
	EXPORT	|??_C@_1EC@FMEPNBO@?$AA?5?$AA?5?$AAR?$AAA?$AAM?$AA?5?$AAF?$AAr?$AAe?$AAe?$AA?5?$AA?5?$AA?5?$AA?5?$AA?5?$AA?5?$AA?5?$AA?5?$AA?5?$AA?5?$AA?5?$AA?5?$AA?3?$AA?5?$AA0?$AAx?$AA?$CF?$AA0?$AA8?$AAx?$AA?$AN?$AA?6@| [ DATA ] ; `string'
	EXPORT	|??_C@_1EC@IKCHAPAE@?$AA?5?$AA?5?$AAR?$AAA?$AAM?$AA?5?$AAS?$AAt?$AAa?$AAr?$AAt?$AA?5?$AA?5?$AA?5?$AA?5?$AA?5?$AA?5?$AA?5?$AA?5?$AA?5?$AA?5?$AA?5?$AA?3?$AA?5?$AA0?$AAx?$AA?$CF?$AA0?$AA8?$AAx?$AA?$AN?$AA?6@| [ DATA ] ; `string'
	EXPORT	|??_C@_1DO@OKOEBDCJ@?$AA?5?$AA?5?$AAN?$AAu?$AAm?$AA?5?$AAM?$AAo?$AAd?$AAu?$AAl?$AAe?$AAs?$AA?5?$AA?5?$AA?5?$AA?5?$AA?5?$AA?5?$AA?5?$AA?5?$AA?5?$AA?3?$AA?5?$AA?$CF?$AA1?$AA0?$AAd?$AA?$AN?$AA?6?$AA?$AA@| [ DATA ] ; `string'
	EXPORT	|??_C@_1EC@NAHCJOL@?$AA?5?$AA?5?$AAP?$AAh?$AAy?$AAs?$AAi?$AAc?$AAa?$AAl?$AA?5?$AAL?$AAa?$AAs?$AAt?$AA?5?$AA?5?$AA?5?$AA?5?$AA?5?$AA?5?$AA?5?$AA?3?$AA?5?$AA0?$AAx?$AA?$CF?$AA0?$AA8?$AAx?$AA?$AN?$AA?6@| [ DATA ] ; `string'
	EXPORT	|??_C@_1EC@IJBGHIJL@?$AA?5?$AA?5?$AAP?$AAh?$AAy?$AAs?$AAi?$AAc?$AAa?$AAl?$AA?5?$AAF?$AAi?$AAr?$AAs?$AAt?$AA?5?$AA?5?$AA?5?$AA?5?$AA?5?$AA?5?$AA?3?$AA?5?$AA0?$AAx?$AA?$CF?$AA0?$AA8?$AAx?$AA?$AN?$AA?6@| [ DATA ] ; `string'
	EXPORT	|??_C@_1EC@OOCEINF@?$AA?5?$AA?5?$AAD?$AAL?$AAL?$AA?5?$AAL?$AAa?$AAs?$AAt?$AA?5?$AA?5?$AA?5?$AA?5?$AA?5?$AA?5?$AA?5?$AA?5?$AA?5?$AA?5?$AA?5?$AA?5?$AA?3?$AA?5?$AA0?$AAx?$AA?$CF?$AA0?$AA8?$AAx?$AA?$AN?$AA?6@| [ DATA ] ; `string'
	EXPORT	|??_C@_1EC@FBMKGHCM@?$AA?5?$AA?5?$AAD?$AAL?$AAL?$AA?5?$AAF?$AAi?$AAr?$AAs?$AAt?$AA?5?$AA?5?$AA?5?$AA?5?$AA?5?$AA?5?$AA?5?$AA?5?$AA?5?$AA?5?$AA?5?$AA?3?$AA?5?$AA0?$AAx?$AA?$CF?$AA0?$AA8?$AAx?$AA?$AN?$AA?6@| [ DATA ] ; `string'
	EXPORT	|??_C@_1FO@LHJKOBMN@?$AAR?$AAO?$AAM?$AAH?$AAD?$AAR?$AA?5?$AA?$CI?$AAp?$AAT?$AAO?$AAC?$AA?5?$AA?$DN?$AA?5?$AA0?$AAx?$AA?$CF?$AA0?$AA8?$AAx?$AA?$CJ?$AA?5?$AA?9?$AA?9?$AA?9?$AA?9?$AA?9?$AA?9?$AA?9?$AA?9?$AA?9@| [ DATA ] ; `string'
	EXPORT	|??_C@_15JNBOKNOG@?$AA?$AN?$AA?6?$AA?$AA@| [ DATA ] ; `string'

  00000			 AREA	 |.pdata|, PDATA
|$T48311| DCD	|$LN57@DumpTOC|
	DCD	0x4000b701

  00000			 AREA	 |.rdata|, DATA, READONLY
|??_C@_1GG@PLILEPKK@?$AA?9?$AA?9?$AA?9?$AA?9?$AA?9?$AA?9?$AA?9?$AA?9?$AA?9?$AA?9?$AA?9?$AA?9?$AA?9?$AA?9?$AA?9?$AA?9?$AA?9?$AA?9?$AA?9?$AA?9?$AA?9?$AA?9?$AA?9?$AA?9?$AA?9?$AA?9?$AA?9?$AA?9?$AA?9?$AA?9?$AA?9?$AA?9@| DCB "-"
	DCB	0x0, "-", 0x0, "-", 0x0, "-", 0x0, "-", 0x0, "-", 0x0, "-"
	DCB	0x0, "-", 0x0, "-", 0x0, "-", 0x0, "-", 0x0, "-", 0x0, "-"
	DCB	0x0, "-", 0x0, "-", 0x0, "-", 0x0, "-", 0x0, "-", 0x0, "-"
	DCB	0x0, "-", 0x0, "-", 0x0, "-", 0x0, "-", 0x0, "-", 0x0, "-"
	DCB	0x0, "-", 0x0, "-", 0x0, "-", 0x0, "-", 0x0, "-", 0x0, "-"
	DCB	0x0, "-", 0x0, "-", 0x0, "-", 0x0, "-", 0x0, "-", 0x0, "-"
	DCB	0x0, "-", 0x0, "-", 0x0, "-", 0x0, "-", 0x0, "-", 0x0, "-"
	DCB	0x0, "-", 0x0, "-", 0x0, "-", 0x0, "-", 0x0, "-", 0x0, 0xd
	DCB	0x0, 0xa, 0x0, 0x0, 0x0			; `string'

  00000			 AREA	 |.rdata|, DATA, READONLY
|??_C@_1EC@FHNOBDCD@?$AA?5?$AA?5?$AAT?$AAr?$AAa?$AAc?$AAk?$AAi?$AAn?$AAg?$AA?5?$AAM?$AAe?$AAm?$AA?5?$AAL?$AAe?$AAn?$AAg?$AAt?$AAh?$AA?5?$AA?3?$AA?5?$AA0?$AAx?$AA?$CF?$AA0?$AA8?$AAx?$AA?$AN?$AA?6@| DCB " "
	DCB	0x0, " ", 0x0, "T", 0x0, "r", 0x0, "a", 0x0, "c", 0x0, "k"
	DCB	0x0, "i", 0x0, "n", 0x0, "g", 0x0, " ", 0x0, "M", 0x0, "e"
	DCB	0x0, "m", 0x0, " ", 0x0, "L", 0x0, "e", 0x0, "n", 0x0, "g"
	DCB	0x0, "t", 0x0, "h", 0x0, " ", 0x0, ":", 0x0, " ", 0x0, "0"
	DCB	0x0, "x", 0x0, "%", 0x0, "0", 0x0, "8", 0x0, "x", 0x0, 0xd
	DCB	0x0, 0xa, 0x0, 0x0, 0x0			; `string'

  00000			 AREA	 |.rdata|, DATA, READONLY
|??_C@_1EC@OMMGJENJ@?$AA?5?$AA?5?$AAT?$AAr?$AAa?$AAc?$AAk?$AAi?$AAn?$AAg?$AA?5?$AAM?$AAe?$AAm?$AA?5?$AAS?$AAt?$AAa?$AAr?$AAt?$AA?5?$AA?5?$AA?3?$AA?5?$AA0?$AAx?$AA?$CF?$AA0?$AA8?$AAx?$AA?$AN?$AA?6@| DCB " "
	DCB	0x0, " ", 0x0, "T", 0x0, "r", 0x0, "a", 0x0, "c", 0x0, "k"
	DCB	0x0, "i", 0x0, "n", 0x0, "g", 0x0, " ", 0x0, "M", 0x0, "e"
	DCB	0x0, "m", 0x0, " ", 0x0, "S", 0x0, "t", 0x0, "a", 0x0, "r"
	DCB	0x0, "t", 0x0, " ", 0x0, " ", 0x0, ":", 0x0, " ", 0x0, "0"
	DCB	0x0, "x", 0x0, "%", 0x0, "0", 0x0, "8", 0x0, "x", 0x0, 0xd
	DCB	0x0, 0xa, 0x0, 0x0, 0x0			; `string'

  00000			 AREA	 |.rdata|, DATA, READONLY
|??_C@_1EC@JNDLGIKF@?$AA?5?$AA?5?$AAE?$AAx?$AAt?$AAe?$AAn?$AAs?$AAi?$AAo?$AAn?$AAs?$AA?5?$AA?5?$AA?5?$AA?5?$AA?5?$AA?5?$AA?5?$AA?5?$AA?5?$AA?5?$AA?3?$AA?5?$AA0?$AAx?$AA?$CF?$AA0?$AA8?$AAx?$AA?$AN?$AA?6@| DCB " "
	DCB	0x0, " ", 0x0, "E", 0x0, "x", 0x0, "t", 0x0, "e", 0x0, "n"
	DCB	0x0, "s", 0x0, "i", 0x0, "o", 0x0, "n", 0x0, "s", 0x0, " "
	DCB	0x0, " ", 0x0, " ", 0x0, " ", 0x0, " ", 0x0, " ", 0x0, " "
	DCB	0x0, " ", 0x0, " ", 0x0, " ", 0x0, ":", 0x0, " ", 0x0, "0"
	DCB	0x0, "x", 0x0, "%", 0x0, "0", 0x0, "8", 0x0, "x", 0x0, 0xd
	DCB	0x0, 0xa, 0x0, 0x0, 0x0			; `string'

  00000			 AREA	 |.rdata|, DATA, READONLY
|??_C@_1EK@NKNNLDBD@?$AA?5?$AA?5?$AAM?$AAi?$AAs?$AAc?$AAF?$AAl?$AAa?$AAg?$AAs?$AA?5?$AA?5?$AA?5?$AA?5?$AA?5?$AA?5?$AA?5?$AA?5?$AA?5?$AA?5?$AA?5?$AA?3?$AA?5?$AA?5?$AA?5?$AA?5?$AA?5?$AA0?$AAx?$AA?$CF?$AA0@| DCB " "
	DCB	0x0, " ", 0x0, "M", 0x0, "i", 0x0, "s", 0x0, "c", 0x0, "F"
	DCB	0x0, "l", 0x0, "a", 0x0, "g", 0x0, "s", 0x0, " ", 0x0, " "
	DCB	0x0, " ", 0x0, " ", 0x0, " ", 0x0, " ", 0x0, " ", 0x0, " "
	DCB	0x0, " ", 0x0, " ", 0x0, " ", 0x0, ":", 0x0, " ", 0x0, " "
	DCB	0x0, " ", 0x0, " ", 0x0, " ", 0x0, "0", 0x0, "x", 0x0, "%"
	DCB	0x0, "0", 0x0, "4", 0x0, "x", 0x0, 0xd, 0x0, 0xa, 0x0, 0x0
	DCB	0x0					; `string'

  00000			 AREA	 |.rdata|, DATA, READONLY
|??_C@_1EK@JJJOHJHH@?$AA?5?$AA?5?$AAC?$AAP?$AAU?$AA?5?$AA?5?$AA?5?$AA?5?$AA?5?$AA?5?$AA?5?$AA?5?$AA?5?$AA?5?$AA?5?$AA?5?$AA?5?$AA?5?$AA?5?$AA?5?$AA?5?$AA?3?$AA?5?$AA?5?$AA?5?$AA?5?$AA?5?$AA0?$AAx?$AA?$CF?$AA0@| DCB " "
	DCB	0x0, " ", 0x0, "C", 0x0, "P", 0x0, "U", 0x0, " ", 0x0, " "
	DCB	0x0, " ", 0x0, " ", 0x0, " ", 0x0, " ", 0x0, " ", 0x0, " "
	DCB	0x0, " ", 0x0, " ", 0x0, " ", 0x0, " ", 0x0, " ", 0x0, " "
	DCB	0x0, " ", 0x0, " ", 0x0, " ", 0x0, ":", 0x0, " ", 0x0, " "
	DCB	0x0, " ", 0x0, " ", 0x0, " ", 0x0, "0", 0x0, "x", 0x0, "%"
	DCB	0x0, "0", 0x0, "4", 0x0, "x", 0x0, 0xd, 0x0, 0xa, 0x0, 0x0
	DCB	0x0					; `string'

  00000			 AREA	 |.rdata|, DATA, READONLY
|??_C@_1EC@CCJIKKIG@?$AA?5?$AA?5?$AAD?$AAr?$AAi?$AAv?$AAe?$AAr?$AA?5?$AAG?$AAl?$AAo?$AAb?$AA?5?$AAL?$AAe?$AAn?$AAg?$AAt?$AAh?$AA?5?$AA?5?$AA?3?$AA?5?$AA0?$AAx?$AA?$CF?$AA0?$AA8?$AAx?$AA?$AN?$AA?6@| DCB " "
	DCB	0x0, " ", 0x0, "D", 0x0, "r", 0x0, "i", 0x0, "v", 0x0, "e"
	DCB	0x0, "r", 0x0, " ", 0x0, "G", 0x0, "l", 0x0, "o", 0x0, "b"
	DCB	0x0, " ", 0x0, "L", 0x0, "e", 0x0, "n", 0x0, "g", 0x0, "t"
	DCB	0x0, "h", 0x0, " ", 0x0, " ", 0x0, ":", 0x0, " ", 0x0, "0"
	DCB	0x0, "x", 0x0, "%", 0x0, "0", 0x0, "8", 0x0, "x", 0x0, 0xd
	DCB	0x0, 0xa, 0x0, 0x0, 0x0			; `string'

  00000			 AREA	 |.rdata|, DATA, READONLY
|??_C@_1EC@LPBHAOCK@?$AA?5?$AA?5?$AAD?$AAr?$AAi?$AAv?$AAe?$AAr?$AA?5?$AAG?$AAl?$AAo?$AAb?$AA?5?$AAS?$AAt?$AAa?$AAr?$AAt?$AA?5?$AA?5?$AA?5?$AA?3?$AA?5?$AA0?$AAx?$AA?$CF?$AA0?$AA8?$AAx?$AA?$AN?$AA?6@| DCB " "
	DCB	0x0, " ", 0x0, "D", 0x0, "r", 0x0, "i", 0x0, "v", 0x0, "e"
	DCB	0x0, "r", 0x0, " ", 0x0, "G", 0x0, "l", 0x0, "o", 0x0, "b"
	DCB	0x0, " ", 0x0, "S", 0x0, "t", 0x0, "a", 0x0, "r", 0x0, "t"
	DCB	0x0, " ", 0x0, " ", 0x0, " ", 0x0, ":", 0x0, " ", 0x0, "0"
	DCB	0x0, "x", 0x0, "%", 0x0, "0", 0x0, "8", 0x0, "x", 0x0, 0xd
	DCB	0x0, 0xa, 0x0, 0x0, 0x0			; `string'

  00000			 AREA	 |.rdata|, DATA, READONLY
|??_C@_1EC@IABJILGI@?$AA?5?$AA?5?$AAF?$AAi?$AAl?$AAe?$AAS?$AAy?$AAs?$AA?5?$AAR?$AAA?$AAM?$AA?5?$AAP?$AAe?$AAr?$AAc?$AAe?$AAn?$AAt?$AA?5?$AA?3?$AA?5?$AA0?$AAx?$AA?$CF?$AA0?$AA8?$AAx?$AA?$AN?$AA?6@| DCB " "
	DCB	0x0, " ", 0x0, "F", 0x0, "i", 0x0, "l", 0x0, "e", 0x0, "S"
	DCB	0x0, "y", 0x0, "s", 0x0, " ", 0x0, "R", 0x0, "A", 0x0, "M"
	DCB	0x0, " ", 0x0, "P", 0x0, "e", 0x0, "r", 0x0, "c", 0x0, "e"
	DCB	0x0, "n", 0x0, "t", 0x0, " ", 0x0, ":", 0x0, " ", 0x0, "0"
	DCB	0x0, "x", 0x0, "%", 0x0, "0", 0x0, "8", 0x0, "x", 0x0, 0xd
	DCB	0x0, 0xa, 0x0, 0x0, 0x0			; `string'

  00000			 AREA	 |.rdata|, DATA, READONLY
|??_C@_1EC@GDFJIFCF@?$AA?5?$AA?5?$AAK?$AAe?$AAr?$AAn?$AAe?$AAl?$AA?5?$AAF?$AAl?$AAa?$AAg?$AAs?$AA?5?$AA?5?$AA?5?$AA?5?$AA?5?$AA?5?$AA?5?$AA?5?$AA?3?$AA?5?$AA0?$AAx?$AA?$CF?$AA0?$AA8?$AAx?$AA?$AN?$AA?6@| DCB " "
	DCB	0x0, " ", 0x0, "K", 0x0, "e", 0x0, "r", 0x0, "n", 0x0, "e"
	DCB	0x0, "l", 0x0, " ", 0x0, "F", 0x0, "l", 0x0, "a", 0x0, "g"
	DCB	0x0, "s", 0x0, " ", 0x0, " ", 0x0, " ", 0x0, " ", 0x0, " "
	DCB	0x0, " ", 0x0, " ", 0x0, " ", 0x0, ":", 0x0, " ", 0x0, "0"
	DCB	0x0, "x", 0x0, "%", 0x0, "0", 0x0, "8", 0x0, "x", 0x0, 0xd
	DCB	0x0, 0xa, 0x0, 0x0, 0x0			; `string'

  00000			 AREA	 |.rdata|, DATA, READONLY
|??_C@_1DO@NPCIPKAK@?$AA?5?$AA?5?$AAN?$AAu?$AAm?$AA?5?$AAF?$AAi?$AAl?$AAe?$AAs?$AA?5?$AA?5?$AA?5?$AA?5?$AA?5?$AA?5?$AA?5?$AA?5?$AA?5?$AA?5?$AA?5?$AA?3?$AA?5?$AA?$CF?$AA1?$AA0?$AAd?$AA?$AN?$AA?6?$AA?$AA@| DCB " "
	DCB	0x0, " ", 0x0, "N", 0x0, "u", 0x0, "m", 0x0, " ", 0x0, "F"
	DCB	0x0, "i", 0x0, "l", 0x0, "e", 0x0, "s", 0x0, " ", 0x0, " "
	DCB	0x0, " ", 0x0, " ", 0x0, " ", 0x0, " ", 0x0, " ", 0x0, " "
	DCB	0x0, " ", 0x0, " ", 0x0, " ", 0x0, ":", 0x0, " ", 0x0, "%"
	DCB	0x0, "1", 0x0, "0", 0x0, "d", 0x0, 0xd, 0x0, 0xa, 0x0, 0x0
	DCB	0x0					; `string'

  00000			 AREA	 |.rdata|, DATA, READONLY
|??_C@_1EC@GLFGIGFP@?$AA?5?$AA?5?$AAP?$AAr?$AAo?$AAf?$AA?5?$AAS?$AAy?$AAm?$AAb?$AAo?$AAl?$AA?5?$AAO?$AAf?$AAf?$AAs?$AAe?$AAt?$AA?5?$AA?5?$AA?3?$AA?5?$AA0?$AAx?$AA?$CF?$AA0?$AA8?$AAx?$AA?$AN?$AA?6@| DCB " "
	DCB	0x0, " ", 0x0, "P", 0x0, "r", 0x0, "o", 0x0, "f", 0x0, " "
	DCB	0x0, "S", 0x0, "y", 0x0, "m", 0x0, "b", 0x0, "o", 0x0, "l"
	DCB	0x0, " ", 0x0, "O", 0x0, "f", 0x0, "f", 0x0, "s", 0x0, "e"
	DCB	0x0, "t", 0x0, " ", 0x0, " ", 0x0, ":", 0x0, " ", 0x0, "0"
	DCB	0x0, "x", 0x0, "%", 0x0, "0", 0x0, "8", 0x0, "x", 0x0, 0xd
	DCB	0x0, 0xa, 0x0, 0x0, 0x0			; `string'

  00000			 AREA	 |.rdata|, DATA, READONLY
|??_C@_1EC@INEFBELC@?$AA?5?$AA?5?$AAP?$AAr?$AAo?$AAf?$AA?5?$AAS?$AAy?$AAm?$AAb?$AAo?$AAl?$AA?5?$AAL?$AAe?$AAn?$AAg?$AAt?$AAh?$AA?5?$AA?5?$AA?3?$AA?5?$AA0?$AAx?$AA?$CF?$AA0?$AA8?$AAx?$AA?$AN?$AA?6@| DCB " "
	DCB	0x0, " ", 0x0, "P", 0x0, "r", 0x0, "o", 0x0, "f", 0x0, " "
	DCB	0x0, "S", 0x0, "y", 0x0, "m", 0x0, "b", 0x0, "o", 0x0, "l"
	DCB	0x0, " ", 0x0, "L", 0x0, "e", 0x0, "n", 0x0, "g", 0x0, "t"
	DCB	0x0, "h", 0x0, " ", 0x0, " ", 0x0, ":", 0x0, " ", 0x0, "0"
	DCB	0x0, "x", 0x0, "%", 0x0, "0", 0x0, "8", 0x0, "x", 0x0, 0xd
	DCB	0x0, 0xa, 0x0, 0x0, 0x0			; `string'

  00000			 AREA	 |.rdata|, DATA, READONLY
|??_C@_1EC@FEMDLBGI@?$AA?5?$AA?5?$AAC?$AAo?$AAp?$AAy?$AA?5?$AAE?$AAn?$AAt?$AAr?$AAi?$AAe?$AAs?$AA?5?$AAO?$AAf?$AAf?$AAs?$AAe?$AAt?$AA?5?$AA?3?$AA?5?$AA0?$AAx?$AA?$CF?$AA0?$AA8?$AAx?$AA?$AN?$AA?6@| DCB " "
	DCB	0x0, " ", 0x0, "C", 0x0, "o", 0x0, "p", 0x0, "y", 0x0, " "
	DCB	0x0, "E", 0x0, "n", 0x0, "t", 0x0, "r", 0x0, "i", 0x0, "e"
	DCB	0x0, "s", 0x0, " ", 0x0, "O", 0x0, "f", 0x0, "f", 0x0, "s"
	DCB	0x0, "e", 0x0, "t", 0x0, " ", 0x0, ":", 0x0, " ", 0x0, "0"
	DCB	0x0, "x", 0x0, "%", 0x0, "0", 0x0, "8", 0x0, "x", 0x0, 0xd
	DCB	0x0, 0xa, 0x0, 0x0, 0x0			; `string'

  00000			 AREA	 |.rdata|, DATA, READONLY
|??_C@_1DO@LFBMBNAO@?$AA?5?$AA?5?$AAN?$AAu?$AAm?$AA?5?$AAC?$AAo?$AAp?$AAy?$AA?5?$AAE?$AAn?$AAt?$AAr?$AAi?$AAe?$AAs?$AA?5?$AA?5?$AA?5?$AA?5?$AA?3?$AA?5?$AA?$CF?$AA1?$AA0?$AAd?$AA?$AN?$AA?6?$AA?$AA@| DCB " "
	DCB	0x0, " ", 0x0, "N", 0x0, "u", 0x0, "m", 0x0, " ", 0x0, "C"
	DCB	0x0, "o", 0x0, "p", 0x0, "y", 0x0, " ", 0x0, "E", 0x0, "n"
	DCB	0x0, "t", 0x0, "r", 0x0, "i", 0x0, "e", 0x0, "s", 0x0, " "
	DCB	0x0, " ", 0x0, " ", 0x0, " ", 0x0, ":", 0x0, " ", 0x0, "%"
	DCB	0x0, "1", 0x0, "0", 0x0, "d", 0x0, 0xd, 0x0, 0xa, 0x0, 0x0
	DCB	0x0					; `string'

  00000			 AREA	 |.rdata|, DATA, READONLY
|??_C@_1EC@IKFCIHNK@?$AA?5?$AA?5?$AAR?$AAA?$AAM?$AA?5?$AAE?$AAn?$AAd?$AA?5?$AA?5?$AA?5?$AA?5?$AA?5?$AA?5?$AA?5?$AA?5?$AA?5?$AA?5?$AA?5?$AA?5?$AA?5?$AA?3?$AA?5?$AA0?$AAx?$AA?$CF?$AA0?$AA8?$AAx?$AA?$AN?$AA?6@| DCB " "
	DCB	0x0, " ", 0x0, "R", 0x0, "A", 0x0, "M", 0x0, " ", 0x0, "E"
	DCB	0x0, "n", 0x0, "d", 0x0, " ", 0x0, " ", 0x0, " ", 0x0, " "
	DCB	0x0, " ", 0x0, " ", 0x0, " ", 0x0, " ", 0x0, " ", 0x0, " "
	DCB	0x0, " ", 0x0, " ", 0x0, " ", 0x0, ":", 0x0, " ", 0x0, "0"
	DCB	0x0, "x", 0x0, "%", 0x0, "0", 0x0, "8", 0x0, "x", 0x0, 0xd
	DCB	0x0, 0xa, 0x0, 0x0, 0x0			; `string'

  00000			 AREA	 |.rdata|, DATA, READONLY
|??_C@_1EC@FMEPNBO@?$AA?5?$AA?5?$AAR?$AAA?$AAM?$AA?5?$AAF?$AAr?$AAe?$AAe?$AA?5?$AA?5?$AA?5?$AA?5?$AA?5?$AA?5?$AA?5?$AA?5?$AA?5?$AA?5?$AA?5?$AA?5?$AA?3?$AA?5?$AA0?$AAx?$AA?$CF?$AA0?$AA8?$AAx?$AA?$AN?$AA?6@| DCB " "
	DCB	0x0, " ", 0x0, "R", 0x0, "A", 0x0, "M", 0x0, " ", 0x0, "F"
	DCB	0x0, "r", 0x0, "e", 0x0, "e", 0x0, " ", 0x0, " ", 0x0, " "
	DCB	0x0, " ", 0x0, " ", 0x0, " ", 0x0, " ", 0x0, " ", 0x0, " "
	DCB	0x0, " ", 0x0, " ", 0x0, " ", 0x0, ":", 0x0, " ", 0x0, "0"
	DCB	0x0, "x", 0x0, "%", 0x0, "0", 0x0, "8", 0x0, "x", 0x0, 0xd
	DCB	0x0, 0xa, 0x0, 0x0, 0x0			; `string'

  00000			 AREA	 |.rdata|, DATA, READONLY
|??_C@_1EC@IKCHAPAE@?$AA?5?$AA?5?$AAR?$AAA?$AAM?$AA?5?$AAS?$AAt?$AAa?$AAr?$AAt?$AA?5?$AA?5?$AA?5?$AA?5?$AA?5?$AA?5?$AA?5?$AA?5?$AA?5?$AA?5?$AA?5?$AA?3?$AA?5?$AA0?$AAx?$AA?$CF?$AA0?$AA8?$AAx?$AA?$AN?$AA?6@| DCB " "
	DCB	0x0, " ", 0x0, "R", 0x0, "A", 0x0, "M", 0x0, " ", 0x0, "S"
	DCB	0x0, "t", 0x0, "a", 0x0, "r", 0x0, "t", 0x0, " ", 0x0, " "
	DCB	0x0, " ", 0x0, " ", 0x0, " ", 0x0, " ", 0x0, " ", 0x0, " "
	DCB	0x0, " ", 0x0, " ", 0x0, " ", 0x0, ":", 0x0, " ", 0x0, "0"
	DCB	0x0, "x", 0x0, "%", 0x0, "0", 0x0, "8", 0x0, "x", 0x0, 0xd
	DCB	0x0, 0xa, 0x0, 0x0, 0x0			; `string'

  00000			 AREA	 |.rdata|, DATA, READONLY
|??_C@_1DO@OKOEBDCJ@?$AA?5?$AA?5?$AAN?$AAu?$AAm?$AA?5?$AAM?$AAo?$AAd?$AAu?$AAl?$AAe?$AAs?$AA?5?$AA?5?$AA?5?$AA?5?$AA?5?$AA?5?$AA?5?$AA?5?$AA?5?$AA?3?$AA?5?$AA?$CF?$AA1?$AA0?$AAd?$AA?$AN?$AA?6?$AA?$AA@| DCB " "
	DCB	0x0, " ", 0x0, "N", 0x0, "u", 0x0, "m", 0x0, " ", 0x0, "M"
	DCB	0x0, "o", 0x0, "d", 0x0, "u", 0x0, "l", 0x0, "e", 0x0, "s"
	DCB	0x0, " ", 0x0, " ", 0x0, " ", 0x0, " ", 0x0, " ", 0x0, " "
	DCB	0x0, " ", 0x0, " ", 0x0, " ", 0x0, ":", 0x0, " ", 0x0, "%"
	DCB	0x0, "1", 0x0, "0", 0x0, "d", 0x0, 0xd, 0x0, 0xa, 0x0, 0x0
	DCB	0x0					; `string'

  00000			 AREA	 |.rdata|, DATA, READONLY
|??_C@_1EC@NAHCJOL@?$AA?5?$AA?5?$AAP?$AAh?$AAy?$AAs?$AAi?$AAc?$AAa?$AAl?$AA?5?$AAL?$AAa?$AAs?$AAt?$AA?5?$AA?5?$AA?5?$AA?5?$AA?5?$AA?5?$AA?5?$AA?3?$AA?5?$AA0?$AAx?$AA?$CF?$AA0?$AA8?$AAx?$AA?$AN?$AA?6@| DCB " "
	DCB	0x0, " ", 0x0, "P", 0x0, "h", 0x0, "y", 0x0, "s", 0x0, "i"
	DCB	0x0, "c", 0x0, "a", 0x0, "l", 0x0, " ", 0x0, "L", 0x0, "a"
	DCB	0x0, "s", 0x0, "t", 0x0, " ", 0x0, " ", 0x0, " ", 0x0, " "
	DCB	0x0, " ", 0x0, " ", 0x0, " ", 0x0, ":", 0x0, " ", 0x0, "0"
	DCB	0x0, "x", 0x0, "%", 0x0, "0", 0x0, "8", 0x0, "x", 0x0, 0xd
	DCB	0x0, 0xa, 0x0, 0x0, 0x0			; `string'

  00000			 AREA	 |.rdata|, DATA, READONLY
|??_C@_1EC@IJBGHIJL@?$AA?5?$AA?5?$AAP?$AAh?$AAy?$AAs?$AAi?$AAc?$AAa?$AAl?$AA?5?$AAF?$AAi?$AAr?$AAs?$AAt?$AA?5?$AA?5?$AA?5?$AA?5?$AA?5?$AA?5?$AA?3?$AA?5?$AA0?$AAx?$AA?$CF?$AA0?$AA8?$AAx?$AA?$AN?$AA?6@| DCB " "
	DCB	0x0, " ", 0x0, "P", 0x0, "h", 0x0, "y", 0x0, "s", 0x0, "i"
	DCB	0x0, "c", 0x0, "a", 0x0, "l", 0x0, " ", 0x0, "F", 0x0, "i"
	DCB	0x0, "r", 0x0, "s", 0x0, "t", 0x0, " ", 0x0, " ", 0x0, " "
	DCB	0x0, " ", 0x0, " ", 0x0, " ", 0x0, ":", 0x0, " ", 0x0, "0"
	DCB	0x0, "x", 0x0, "%", 0x0, "0", 0x0, "8", 0x0, "x", 0x0, 0xd
	DCB	0x0, 0xa, 0x0, 0x0, 0x0			; `string'

  00000			 AREA	 |.rdata|, DATA, READONLY
|??_C@_1EC@OOCEINF@?$AA?5?$AA?5?$AAD?$AAL?$AAL?$AA?5?$AAL?$AAa?$AAs?$AAt?$AA?5?$AA?5?$AA?5?$AA?5?$AA?5?$AA?5?$AA?5?$AA?5?$AA?5?$AA?5?$AA?5?$AA?5?$AA?3?$AA?5?$AA0?$AAx?$AA?$CF?$AA0?$AA8?$AAx?$AA?$AN?$AA?6@| DCB " "
	DCB	0x0, " ", 0x0, "D", 0x0, "L", 0x0, "L", 0x0, " ", 0x0, "L"
	DCB	0x0, "a", 0x0, "s", 0x0, "t", 0x0, " ", 0x0, " ", 0x0, " "
	DCB	0x0, " ", 0x0, " ", 0x0, " ", 0x0, " ", 0x0, " ", 0x0, " "
	DCB	0x0, " ", 0x0, " ", 0x0, " ", 0x0, ":", 0x0, " ", 0x0, "0"
	DCB	0x0, "x", 0x0, "%", 0x0, "0", 0x0, "8", 0x0, "x", 0x0, 0xd
	DCB	0x0, 0xa, 0x0, 0x0, 0x0			; `string'

  00000			 AREA	 |.rdata|, DATA, READONLY
|??_C@_1EC@FBMKGHCM@?$AA?5?$AA?5?$AAD?$AAL?$AAL?$AA?5?$AAF?$AAi?$AAr?$AAs?$AAt?$AA?5?$AA?5?$AA?5?$AA?5?$AA?5?$AA?5?$AA?5?$AA?5?$AA?5?$AA?5?$AA?5?$AA?3?$AA?5?$AA0?$AAx?$AA?$CF?$AA0?$AA8?$AAx?$AA?$AN?$AA?6@| DCB " "
	DCB	0x0, " ", 0x0, "D", 0x0, "L", 0x0, "L", 0x0, " ", 0x0, "F"
	DCB	0x0, "i", 0x0, "r", 0x0, "s", 0x0, "t", 0x0, " ", 0x0, " "
	DCB	0x0, " ", 0x0, " ", 0x0, " ", 0x0, " ", 0x0, " ", 0x0, " "
	DCB	0x0, " ", 0x0, " ", 0x0, " ", 0x0, ":", 0x0, " ", 0x0, "0"
	DCB	0x0, "x", 0x0, "%", 0x0, "0", 0x0, "8", 0x0, "x", 0x0, 0xd
	DCB	0x0, 0xa, 0x0, 0x0, 0x0			; `string'

  00000			 AREA	 |.rdata|, DATA, READONLY
|??_C@_1FO@LHJKOBMN@?$AAR?$AAO?$AAM?$AAH?$AAD?$AAR?$AA?5?$AA?$CI?$AAp?$AAT?$AAO?$AAC?$AA?5?$AA?$DN?$AA?5?$AA0?$AAx?$AA?$CF?$AA0?$AA8?$AAx?$AA?$CJ?$AA?5?$AA?9?$AA?9?$AA?9?$AA?9?$AA?9?$AA?9?$AA?9?$AA?9?$AA?9@| DCB "R"
	DCB	0x0, "O", 0x0, "M", 0x0, "H", 0x0, "D", 0x0, "R", 0x0, " "
	DCB	0x0, "(", 0x0, "p", 0x0, "T", 0x0, "O", 0x0, "C", 0x0, " "
	DCB	0x0, "=", 0x0, " ", 0x0, "0", 0x0, "x", 0x0, "%", 0x0, "0"
	DCB	0x0, "8", 0x0, "x", 0x0, ")", 0x0, " ", 0x0, "-", 0x0, "-"
	DCB	0x0, "-", 0x0, "-", 0x0, "-", 0x0, "-", 0x0, "-", 0x0, "-"
	DCB	0x0, "-", 0x0, "-", 0x0, "-", 0x0, "-", 0x0, "-", 0x0, "-"
	DCB	0x0, "-", 0x0, "-", 0x0, "-", 0x0, "-", 0x0, "-", 0x0, "-"
	DCB	0x0, "-", 0x0, 0xd, 0x0, 0xa, 0x0, 0x0, 0x0 ; `string'

  00000			 AREA	 |.rdata|, DATA, READONLY
|??_C@_15JNBOKNOG@?$AA?$AN?$AA?6?$AA?$AA@| DCB 0xd, 0x0, 0xa, 0x0, 0x0, 0x0 ; `string'
; Function compile flags: /Ogspy

  00000			 AREA	 |.text|, CODE, ARM

  00000		 |DumpTOC| PROC

; 770  : {

  00000		 |$LN57@DumpTOC|
  00000	e92d4030	 stmdb       sp!, {r4, r5, lr}
  00004		 |$M48308|
  00004	e1a05000	 mov         r5, r0

; 771  : 	UNREFERENCED_PARAMETER(pTOC);
; 772  : 
; 773  :     // Print out ROMHDR information
; 774  :     OALMSG(OAL_INFO, (L"\r\n"));

  00008	e59f42c8	 ldr         r4, [pc, #0x2C8]
  0000c	e5943440	 ldr         r3, [r4, #0x440]
  00010	e3130008	 tst         r3, #8
  00014	0a000002	 beq         |$LN3@DumpTOC|
  00018	e59f0254	 ldr         r0, [pc, #0x254]
  0001c	eb000000	 bl          NKDbgPrintfW
  00020	e5943440	 ldr         r3, [r4, #0x440]
  00024		 |$LN3@DumpTOC|

; 775  :     OALMSG(OAL_INFO, (L"ROMHDR (pTOC = 0x%08x) ---------------------\r\n", pTOC));

  00024	e3130008	 tst         r3, #8
  00028	0a000003	 beq         |$LN5@DumpTOC|
  0002c	e59f02a0	 ldr         r0, [pc, #0x2A0]
  00030	e1a01005	 mov         r1, r5
  00034	eb000000	 bl          NKDbgPrintfW
  00038	e5943440	 ldr         r3, [r4, #0x440]
  0003c		 |$LN5@DumpTOC|

; 776  :     OALMSG(OAL_INFO, (L"  DLL First           : 0x%08x\r\n", pTOC->dllfirst));

  0003c	e3130008	 tst         r3, #8
  00040	0a000003	 beq         |$LN7@DumpTOC|
  00044	e5951000	 ldr         r1, [r5]
  00048	e59f0280	 ldr         r0, [pc, #0x280]
  0004c	eb000000	 bl          NKDbgPrintfW
  00050	e5943440	 ldr         r3, [r4, #0x440]
  00054		 |$LN7@DumpTOC|

; 777  :     OALMSG(OAL_INFO, (L"  DLL Last            : 0x%08x\r\n", pTOC->dlllast));

  00054	e3130008	 tst         r3, #8
  00058	0a000003	 beq         |$LN9@DumpTOC|
  0005c	e5951004	 ldr         r1, [r5, #4]
  00060	e59f0264	 ldr         r0, [pc, #0x264]
  00064	eb000000	 bl          NKDbgPrintfW
  00068	e5943440	 ldr         r3, [r4, #0x440]
  0006c		 |$LN9@DumpTOC|

; 778  :     OALMSG(OAL_INFO, (L"  Physical First      : 0x%08x\r\n", pTOC->physfirst));

  0006c	e3130008	 tst         r3, #8
  00070	0a000003	 beq         |$LN11@DumpTOC|
  00074	e5951008	 ldr         r1, [r5, #8]
  00078	e59f0248	 ldr         r0, [pc, #0x248]
  0007c	eb000000	 bl          NKDbgPrintfW
  00080	e5943440	 ldr         r3, [r4, #0x440]
  00084		 |$LN11@DumpTOC|

; 779  :     OALMSG(OAL_INFO, (L"  Physical Last       : 0x%08x\r\n", pTOC->physlast));

  00084	e3130008	 tst         r3, #8
  00088	0a000003	 beq         |$LN13@DumpTOC|
  0008c	e595100c	 ldr         r1, [r5, #0xC]
  00090	e59f022c	 ldr         r0, [pc, #0x22C]
  00094	eb000000	 bl          NKDbgPrintfW
  00098	e5943440	 ldr         r3, [r4, #0x440]
  0009c		 |$LN13@DumpTOC|

; 780  :     OALMSG(OAL_INFO, (L"  Num Modules         : %10d\r\n",   pTOC->nummods));

  0009c	e3130008	 tst         r3, #8
  000a0	0a000003	 beq         |$LN15@DumpTOC|
  000a4	e5951010	 ldr         r1, [r5, #0x10]
  000a8	e59f0210	 ldr         r0, [pc, #0x210]
  000ac	eb000000	 bl          NKDbgPrintfW
  000b0	e5943440	 ldr         r3, [r4, #0x440]
  000b4		 |$LN15@DumpTOC|

; 781  :     OALMSG(OAL_INFO, (L"  RAM Start           : 0x%08x\r\n", pTOC->ulRAMStart));

  000b4	e3130008	 tst         r3, #8
  000b8	0a000003	 beq         |$LN17@DumpTOC|
  000bc	e5951014	 ldr         r1, [r5, #0x14]
  000c0	e59f01f4	 ldr         r0, [pc, #0x1F4]
  000c4	eb000000	 bl          NKDbgPrintfW
  000c8	e5943440	 ldr         r3, [r4, #0x440]
  000cc		 |$LN17@DumpTOC|

; 782  :     OALMSG(OAL_INFO, (L"  RAM Free            : 0x%08x\r\n", pTOC->ulRAMFree));

  000cc	e3130008	 tst         r3, #8
  000d0	0a000003	 beq         |$LN19@DumpTOC|
  000d4	e5951018	 ldr         r1, [r5, #0x18]
  000d8	e59f01d8	 ldr         r0, [pc, #0x1D8]
  000dc	eb000000	 bl          NKDbgPrintfW
  000e0	e5943440	 ldr         r3, [r4, #0x440]
  000e4		 |$LN19@DumpTOC|

; 783  :     OALMSG(OAL_INFO, (L"  RAM End             : 0x%08x\r\n", pTOC->ulRAMEnd));

  000e4	e3130008	 tst         r3, #8
  000e8	0a000003	 beq         |$LN21@DumpTOC|
  000ec	e595101c	 ldr         r1, [r5, #0x1C]
  000f0	e59f01bc	 ldr         r0, [pc, #0x1BC]
  000f4	eb000000	 bl          NKDbgPrintfW
  000f8	e5943440	 ldr         r3, [r4, #0x440]
  000fc		 |$LN21@DumpTOC|

; 784  :     OALMSG(OAL_INFO, (L"  Num Copy Entries    : %10d\r\n",   pTOC->ulCopyEntries));

  000fc	e3130008	 tst         r3, #8
  00100	0a000003	 beq         |$LN23@DumpTOC|
  00104	e5951020	 ldr         r1, [r5, #0x20]
  00108	e59f01a0	 ldr         r0, [pc, #0x1A0]
  0010c	eb000000	 bl          NKDbgPrintfW
  00110	e5943440	 ldr         r3, [r4, #0x440]
  00114		 |$LN23@DumpTOC|

; 785  :     OALMSG(OAL_INFO, (L"  Copy Entries Offset : 0x%08x\r\n", pTOC->ulCopyOffset));

  00114	e3130008	 tst         r3, #8
  00118	0a000003	 beq         |$LN25@DumpTOC|
  0011c	e5951024	 ldr         r1, [r5, #0x24]
  00120	e59f0184	 ldr         r0, [pc, #0x184]
  00124	eb000000	 bl          NKDbgPrintfW
  00128	e5943440	 ldr         r3, [r4, #0x440]
  0012c		 |$LN25@DumpTOC|

; 786  :     OALMSG(OAL_INFO, (L"  Prof Symbol Length  : 0x%08x\r\n", pTOC->ulProfileLen));

  0012c	e3130008	 tst         r3, #8
  00130	0a000003	 beq         |$LN27@DumpTOC|
  00134	e5951028	 ldr         r1, [r5, #0x28]
  00138	e59f0168	 ldr         r0, [pc, #0x168]
  0013c	eb000000	 bl          NKDbgPrintfW
  00140	e5943440	 ldr         r3, [r4, #0x440]
  00144		 |$LN27@DumpTOC|

; 787  :     OALMSG(OAL_INFO, (L"  Prof Symbol Offset  : 0x%08x\r\n", pTOC->ulProfileOffset));

  00144	e3130008	 tst         r3, #8
  00148	0a000003	 beq         |$LN29@DumpTOC|
  0014c	e595102c	 ldr         r1, [r5, #0x2C]
  00150	e59f014c	 ldr         r0, [pc, #0x14C]
  00154	eb000000	 bl          NKDbgPrintfW
  00158	e5943440	 ldr         r3, [r4, #0x440]
  0015c		 |$LN29@DumpTOC|

; 788  :     OALMSG(OAL_INFO, (L"  Num Files           : %10d\r\n",   pTOC->numfiles));

  0015c	e3130008	 tst         r3, #8
  00160	0a000003	 beq         |$LN31@DumpTOC|
  00164	e5951030	 ldr         r1, [r5, #0x30]
  00168	e59f0130	 ldr         r0, [pc, #0x130]
  0016c	eb000000	 bl          NKDbgPrintfW
  00170	e5943440	 ldr         r3, [r4, #0x440]
  00174		 |$LN31@DumpTOC|

; 789  :     OALMSG(OAL_INFO, (L"  Kernel Flags        : 0x%08x\r\n", pTOC->ulKernelFlags));

  00174	e3130008	 tst         r3, #8
  00178	0a000003	 beq         |$LN33@DumpTOC|
  0017c	e5951034	 ldr         r1, [r5, #0x34]
  00180	e59f0114	 ldr         r0, [pc, #0x114]
  00184	eb000000	 bl          NKDbgPrintfW
  00188	e5943440	 ldr         r3, [r4, #0x440]
  0018c		 |$LN33@DumpTOC|

; 790  :     OALMSG(OAL_INFO, (L"  FileSys RAM Percent : 0x%08x\r\n", pTOC->ulFSRamPercent));

  0018c	e3130008	 tst         r3, #8
  00190	0a000003	 beq         |$LN35@DumpTOC|
  00194	e5951038	 ldr         r1, [r5, #0x38]
  00198	e59f00f8	 ldr         r0, [pc, #0xF8]
  0019c	eb000000	 bl          NKDbgPrintfW
  001a0	e5943440	 ldr         r3, [r4, #0x440]
  001a4		 |$LN35@DumpTOC|

; 791  :     OALMSG(OAL_INFO, (L"  Driver Glob Start   : 0x%08x\r\n", pTOC->ulDrivglobStart));

  001a4	e3130008	 tst         r3, #8
  001a8	0a000003	 beq         |$LN37@DumpTOC|
  001ac	e595103c	 ldr         r1, [r5, #0x3C]
  001b0	e59f00dc	 ldr         r0, [pc, #0xDC]
  001b4	eb000000	 bl          NKDbgPrintfW
  001b8	e5943440	 ldr         r3, [r4, #0x440]
  001bc		 |$LN37@DumpTOC|

; 792  :     OALMSG(OAL_INFO, (L"  Driver Glob Length  : 0x%08x\r\n", pTOC->ulDrivglobLen));

  001bc	e3130008	 tst         r3, #8
  001c0	0a000003	 beq         |$LN39@DumpTOC|
  001c4	e5951040	 ldr         r1, [r5, #0x40]
  001c8	e59f00c0	 ldr         r0, [pc, #0xC0]
  001cc	eb000000	 bl          NKDbgPrintfW
  001d0	e5943440	 ldr         r3, [r4, #0x440]
  001d4		 |$LN39@DumpTOC|

; 793  :     OALMSG(OAL_INFO, (L"  CPU                 :     0x%04x\r\n", pTOC->usCPUType));

  001d4	e3130008	 tst         r3, #8
  001d8	0a000003	 beq         |$LN41@DumpTOC|
  001dc	e1d514b4	 ldrh        r1, [r5, #0x44]
  001e0	e59f00a4	 ldr         r0, [pc, #0xA4]
  001e4	eb000000	 bl          NKDbgPrintfW
  001e8	e5943440	 ldr         r3, [r4, #0x440]
  001ec		 |$LN41@DumpTOC|

; 794  :     OALMSG(OAL_INFO, (L"  MiscFlags           :     0x%04x\r\n", pTOC->usMiscFlags));

  001ec	e3130008	 tst         r3, #8
  001f0	0a000003	 beq         |$LN43@DumpTOC|
  001f4	e1d514b6	 ldrh        r1, [r5, #0x46]
  001f8	e59f0088	 ldr         r0, [pc, #0x88]
  001fc	eb000000	 bl          NKDbgPrintfW
  00200	e5943440	 ldr         r3, [r4, #0x440]
  00204		 |$LN43@DumpTOC|

; 795  :     OALMSG(OAL_INFO, (L"  Extensions          : 0x%08x\r\n", pTOC->pExtensions));

  00204	e3130008	 tst         r3, #8
  00208	0a000003	 beq         |$LN45@DumpTOC|
  0020c	e5951048	 ldr         r1, [r5, #0x48]
  00210	e59f006c	 ldr         r0, [pc, #0x6C]
  00214	eb000000	 bl          NKDbgPrintfW
  00218	e5943440	 ldr         r3, [r4, #0x440]
  0021c		 |$LN45@DumpTOC|

; 796  :     OALMSG(OAL_INFO, (L"  Tracking Mem Start  : 0x%08x\r\n", pTOC->ulTrackingStart));

  0021c	e3130008	 tst         r3, #8
  00220	0a000003	 beq         |$LN47@DumpTOC|
  00224	e595104c	 ldr         r1, [r5, #0x4C]
  00228	e59f0050	 ldr         r0, [pc, #0x50]
  0022c	eb000000	 bl          NKDbgPrintfW
  00230	e5943440	 ldr         r3, [r4, #0x440]
  00234		 |$LN47@DumpTOC|

; 797  :     OALMSG(OAL_INFO, (L"  Tracking Mem Length : 0x%08x\r\n", pTOC->ulTrackingLen));

  00234	e3130008	 tst         r3, #8
  00238	0a000003	 beq         |$LN49@DumpTOC|
  0023c	e5951050	 ldr         r1, [r5, #0x50]
  00240	e59f0034	 ldr         r0, [pc, #0x34]
  00244	eb000000	 bl          NKDbgPrintfW
  00248	e5943440	 ldr         r3, [r4, #0x440]
  0024c		 |$LN49@DumpTOC|

; 798  :     OALMSG(OAL_INFO, (L"------------------------------------------------\r\n"));

  0024c	e3130008	 tst         r3, #8
  00250	0a000002	 beq         |$LN51@DumpTOC|
  00254	e59f001c	 ldr         r0, [pc, #0x1C]
  00258	eb000000	 bl          NKDbgPrintfW
  0025c	e5943440	 ldr         r3, [r4, #0x440]
  00260		 |$LN51@DumpTOC|

; 799  :     OALMSG(OAL_INFO, (L"\r\n"));

  00260	e3130008	 tst         r3, #8
  00264	159f0008	 ldrne       r0, [pc, #8]
  00268	1b000000	 blne        NKDbgPrintfW

; 800  : }

  0026c	e8bd4030	 ldmia       sp!, {r4, r5, lr}
  00270	e12fff1e	 bx          lr
  00274		 |$LN58@DumpTOC|
  00274		 |$LN59@DumpTOC|
  00274	00000000	 DCD         |??_C@_15JNBOKNOG@?$AA?$AN?$AA?6?$AA?$AA@|
  00278		 |$LN60@DumpTOC|
  00278	00000000	 DCD         |??_C@_1GG@PLILEPKK@?$AA?9?$AA?9?$AA?9?$AA?9?$AA?9?$AA?9?$AA?9?$AA?9?$AA?9?$AA?9?$AA?9?$AA?9?$AA?9?$AA?9?$AA?9?$AA?9?$AA?9?$AA?9?$AA?9?$AA?9?$AA?9?$AA?9?$AA?9?$AA?9?$AA?9?$AA?9?$AA?9?$AA?9?$AA?9?$AA?9?$AA?9?$AA?9@|
  0027c		 |$LN61@DumpTOC|
  0027c	00000000	 DCD         |??_C@_1EC@FHNOBDCD@?$AA?5?$AA?5?$AAT?$AAr?$AAa?$AAc?$AAk?$AAi?$AAn?$AAg?$AA?5?$AAM?$AAe?$AAm?$AA?5?$AAL?$AAe?$AAn?$AAg?$AAt?$AAh?$AA?5?$AA?3?$AA?5?$AA0?$AAx?$AA?$CF?$AA0?$AA8?$AAx?$AA?$AN?$AA?6@|
  00280		 |$LN62@DumpTOC|
  00280	00000000	 DCD         |??_C@_1EC@OMMGJENJ@?$AA?5?$AA?5?$AAT?$AAr?$AAa?$AAc?$AAk?$AAi?$AAn?$AAg?$AA?5?$AAM?$AAe?$AAm?$AA?5?$AAS?$AAt?$AAa?$AAr?$AAt?$AA?5?$AA?5?$AA?3?$AA?5?$AA0?$AAx?$AA?$CF?$AA0?$AA8?$AAx?$AA?$AN?$AA?6@|
  00284		 |$LN63@DumpTOC|
  00284	00000000	 DCD         |??_C@_1EC@JNDLGIKF@?$AA?5?$AA?5?$AAE?$AAx?$AAt?$AAe?$AAn?$AAs?$AAi?$AAo?$AAn?$AAs?$AA?5?$AA?5?$AA?5?$AA?5?$AA?5?$AA?5?$AA?5?$AA?5?$AA?5?$AA?5?$AA?3?$AA?5?$AA0?$AAx?$AA?$CF?$AA0?$AA8?$AAx?$AA?$AN?$AA?6@|
  00288		 |$LN64@DumpTOC|
  00288	00000000	 DCD         |??_C@_1EK@NKNNLDBD@?$AA?5?$AA?5?$AAM?$AAi?$AAs?$AAc?$AAF?$AAl?$AAa?$AAg?$AAs?$AA?5?$AA?5?$AA?5?$AA?5?$AA?5?$AA?5?$AA?5?$AA?5?$AA?5?$AA?5?$AA?5?$AA?3?$AA?5?$AA?5?$AA?5?$AA?5?$AA?5?$AA0?$AAx?$AA?$CF?$AA0@|
  0028c		 |$LN65@DumpTOC|
  0028c	00000000	 DCD         |??_C@_1EK@JJJOHJHH@?$AA?5?$AA?5?$AAC?$AAP?$AAU?$AA?5?$AA?5?$AA?5?$AA?5?$AA?5?$AA?5?$AA?5?$AA?5?$AA?5?$AA?5?$AA?5?$AA?5?$AA?5?$AA?5?$AA?5?$AA?5?$AA?5?$AA?3?$AA?5?$AA?5?$AA?5?$AA?5?$AA?5?$AA0?$AAx?$AA?$CF?$AA0@|
  00290		 |$LN66@DumpTOC|
  00290	00000000	 DCD         |??_C@_1EC@CCJIKKIG@?$AA?5?$AA?5?$AAD?$AAr?$AAi?$AAv?$AAe?$AAr?$AA?5?$AAG?$AAl?$AAo?$AAb?$AA?5?$AAL?$AAe?$AAn?$AAg?$AAt?$AAh?$AA?5?$AA?5?$AA?3?$AA?5?$AA0?$AAx?$AA?$CF?$AA0?$AA8?$AAx?$AA?$AN?$AA?6@|
  00294		 |$LN67@DumpTOC|
  00294	00000000	 DCD         |??_C@_1EC@LPBHAOCK@?$AA?5?$AA?5?$AAD?$AAr?$AAi?$AAv?$AAe?$AAr?$AA?5?$AAG?$AAl?$AAo?$AAb?$AA?5?$AAS?$AAt?$AAa?$AAr?$AAt?$AA?5?$AA?5?$AA?5?$AA?3?$AA?5?$AA0?$AAx?$AA?$CF?$AA0?$AA8?$AAx?$AA?$AN?$AA?6@|
  00298		 |$LN68@DumpTOC|
  00298	00000000	 DCD         |??_C@_1EC@IABJILGI@?$AA?5?$AA?5?$AAF?$AAi?$AAl?$AAe?$AAS?$AAy?$AAs?$AA?5?$AAR?$AAA?$AAM?$AA?5?$AAP?$AAe?$AAr?$AAc?$AAe?$AAn?$AAt?$AA?5?$AA?3?$AA?5?$AA0?$AAx?$AA?$CF?$AA0?$AA8?$AAx?$AA?$AN?$AA?6@|
  0029c		 |$LN69@DumpTOC|
  0029c	00000000	 DCD         |??_C@_1EC@GDFJIFCF@?$AA?5?$AA?5?$AAK?$AAe?$AAr?$AAn?$AAe?$AAl?$AA?5?$AAF?$AAl?$AAa?$AAg?$AAs?$AA?5?$AA?5?$AA?5?$AA?5?$AA?5?$AA?5?$AA?5?$AA?5?$AA?3?$AA?5?$AA0?$AAx?$AA?$CF?$AA0?$AA8?$AAx?$AA?$AN?$AA?6@|
  002a0		 |$LN70@DumpTOC|
  002a0	00000000	 DCD         |??_C@_1DO@NPCIPKAK@?$AA?5?$AA?5?$AAN?$AAu?$AAm?$AA?5?$AAF?$AAi?$AAl?$AAe?$AAs?$AA?5?$AA?5?$AA?5?$AA?5?$AA?5?$AA?5?$AA?5?$AA?5?$AA?5?$AA?5?$AA?5?$AA?3?$AA?5?$AA?$CF?$AA1?$AA0?$AAd?$AA?$AN?$AA?6?$AA?$AA@|
  002a4		 |$LN71@DumpTOC|
  002a4	00000000	 DCD         |??_C@_1EC@GLFGIGFP@?$AA?5?$AA?5?$AAP?$AAr?$AAo?$AAf?$AA?5?$AAS?$AAy?$AAm?$AAb?$AAo?$AAl?$AA?5?$AAO?$AAf?$AAf?$AAs?$AAe?$AAt?$AA?5?$AA?5?$AA?3?$AA?5?$AA0?$AAx?$AA?$CF?$AA0?$AA8?$AAx?$AA?$AN?$AA?6@|
  002a8		 |$LN72@DumpTOC|
  002a8	00000000	 DCD         |??_C@_1EC@INEFBELC@?$AA?5?$AA?5?$AAP?$AAr?$AAo?$AAf?$AA?5?$AAS?$AAy?$AAm?$AAb?$AAo?$AAl?$AA?5?$AAL?$AAe?$AAn?$AAg?$AAt?$AAh?$AA?5?$AA?5?$AA?3?$AA?5?$AA0?$AAx?$AA?$CF?$AA0?$AA8?$AAx?$AA?$AN?$AA?6@|
  002ac		 |$LN73@DumpTOC|
  002ac	00000000	 DCD         |??_C@_1EC@FEMDLBGI@?$AA?5?$AA?5?$AAC?$AAo?$AAp?$AAy?$AA?5?$AAE?$AAn?$AAt?$AAr?$AAi?$AAe?$AAs?$AA?5?$AAO?$AAf?$AAf?$AAs?$AAe?$AAt?$AA?5?$AA?3?$AA?5?$AA0?$AAx?$AA?$CF?$AA0?$AA8?$AAx?$AA?$AN?$AA?6@|
  002b0		 |$LN74@DumpTOC|
  002b0	00000000	 DCD         |??_C@_1DO@LFBMBNAO@?$AA?5?$AA?5?$AAN?$AAu?$AAm?$AA?5?$AAC?$AAo?$AAp?$AAy?$AA?5?$AAE?$AAn?$AAt?$AAr?$AAi?$AAe?$AAs?$AA?5?$AA?5?$AA?5?$AA?5?$AA?3?$AA?5?$AA?$CF?$AA1?$AA0?$AAd?$AA?$AN?$AA?6?$AA?$AA@|
  002b4		 |$LN75@DumpTOC|
  002b4	00000000	 DCD         |??_C@_1EC@IKFCIHNK@?$AA?5?$AA?5?$AAR?$AAA?$AAM?$AA?5?$AAE?$AAn?$AAd?$AA?5?$AA?5?$AA?5?$AA?5?$AA?5?$AA?5?$AA?5?$AA?5?$AA?5?$AA?5?$AA?5?$AA?5?$AA?5?$AA?3?$AA?5?$AA0?$AAx?$AA?$CF?$AA0?$AA8?$AAx?$AA?$AN?$AA?6@|
  002b8		 |$LN76@DumpTOC|
  002b8	00000000	 DCD         |??_C@_1EC@FMEPNBO@?$AA?5?$AA?5?$AAR?$AAA?$AAM?$AA?5?$AAF?$AAr?$AAe?$AAe?$AA?5?$AA?5?$AA?5?$AA?5?$AA?5?$AA?5?$AA?5?$AA?5?$AA?5?$AA?5?$AA?5?$AA?5?$AA?3?$AA?5?$AA0?$AAx?$AA?$CF?$AA0?$AA8?$AAx?$AA?$AN?$AA?6@|
  002bc		 |$LN77@DumpTOC|
  002bc	00000000	 DCD         |??_C@_1EC@IKCHAPAE@?$AA?5?$AA?5?$AAR?$AAA?$AAM?$AA?5?$AAS?$AAt?$AAa?$AAr?$AAt?$AA?5?$AA?5?$AA?5?$AA?5?$AA?5?$AA?5?$AA?5?$AA?5?$AA?5?$AA?5?$AA?5?$AA?3?$AA?5?$AA0?$AAx?$AA?$CF?$AA0?$AA8?$AAx?$AA?$AN?$AA?6@|
  002c0		 |$LN78@DumpTOC|
  002c0	00000000	 DCD         |??_C@_1DO@OKOEBDCJ@?$AA?5?$AA?5?$AAN?$AAu?$AAm?$AA?5?$AAM?$AAo?$AAd?$AAu?$AAl?$AAe?$AAs?$AA?5?$AA?5?$AA?5?$AA?5?$AA?5?$AA?5?$AA?5?$AA?5?$AA?5?$AA?3?$AA?5?$AA?$CF?$AA1?$AA0?$AAd?$AA?$AN?$AA?6?$AA?$AA@|
  002c4		 |$LN79@DumpTOC|
  002c4	00000000	 DCD         |??_C@_1EC@NAHCJOL@?$AA?5?$AA?5?$AAP?$AAh?$AAy?$AAs?$AAi?$AAc?$AAa?$AAl?$AA?5?$AAL?$AAa?$AAs?$AAt?$AA?5?$AA?5?$AA?5?$AA?5?$AA?5?$AA?5?$AA?5?$AA?3?$AA?5?$AA0?$AAx?$AA?$CF?$AA0?$AA8?$AAx?$AA?$AN?$AA?6@|
  002c8		 |$LN80@DumpTOC|
  002c8	00000000	 DCD         |??_C@_1EC@IJBGHIJL@?$AA?5?$AA?5?$AAP?$AAh?$AAy?$AAs?$AAi?$AAc?$AAa?$AAl?$AA?5?$AAF?$AAi?$AAr?$AAs?$AAt?$AA?5?$AA?5?$AA?5?$AA?5?$AA?5?$AA?5?$AA?3?$AA?5?$AA0?$AAx?$AA?$CF?$AA0?$AA8?$AAx?$AA?$AN?$AA?6@|
  002cc		 |$LN81@DumpTOC|
  002cc	00000000	 DCD         |??_C@_1EC@OOCEINF@?$AA?5?$AA?5?$AAD?$AAL?$AAL?$AA?5?$AAL?$AAa?$AAs?$AAt?$AA?5?$AA?5?$AA?5?$AA?5?$AA?5?$AA?5?$AA?5?$AA?5?$AA?5?$AA?5?$AA?5?$AA?5?$AA?3?$AA?5?$AA0?$AAx?$AA?$CF?$AA0?$AA8?$AAx?$AA?$AN?$AA?6@|
  002d0		 |$LN82@DumpTOC|
  002d0	00000000	 DCD         |??_C@_1EC@FBMKGHCM@?$AA?5?$AA?5?$AAD?$AAL?$AAL?$AA?5?$AAF?$AAi?$AAr?$AAs?$AAt?$AA?5?$AA?5?$AA?5?$AA?5?$AA?5?$AA?5?$AA?5?$AA?5?$AA?5?$AA?5?$AA?5?$AA?3?$AA?5?$AA0?$AAx?$AA?$CF?$AA0?$AA8?$AAx?$AA?$AN?$AA?6@|
  002d4		 |$LN83@DumpTOC|
  002d4	00000000	 DCD         |??_C@_1FO@LHJKOBMN@?$AAR?$AAO?$AAM?$AAH?$AAD?$AAR?$AA?5?$AA?$CI?$AAp?$AAT?$AAO?$AAC?$AA?5?$AA?$DN?$AA?5?$AA0?$AAx?$AA?$CF?$AA0?$AA8?$AAx?$AA?$CJ?$AA?5?$AA?9?$AA?9?$AA?9?$AA?9?$AA?9?$AA?9?$AA?9?$AA?9?$AA?9@|
  002d8		 |$LN84@DumpTOC|
  002d8	00000000	 DCD         |dpCurSettings|
  002dc		 |$M48309|

			 ENDP  ; |DumpTOC|


  00000			 AREA	 |.pdata|, PDATA
|$T48352| DCD	|$LN7@VerifyImag|
	DCD	0x40001301
; Function compile flags: /Ogspy

  00000			 AREA	 |.text|, CODE, ARM

  00000		 |VerifyImage| PROC

; 809  : {

  00000		 |$LN7@VerifyImag|
  00000	e92d4030	 stmdb       sp!, {r4, r5, lr}
  00004		 |$M48349|
  00004	e1a05001	 mov         r5, r1
  00008	e1a0e000	 mov         lr, r0

; 810  :     BOOL rc = FALSE;
; 811  :     UINT32 *pInfo;
; 812  :     ROMHDR *pTOC;
; 813  : 
; 814  :     // Verify that we get CE image.
; 815  :     pInfo = (UINT32*)(pData + ROM_SIGNATURE_OFFSET);

  0000c	e1a0100e	 mov         r1, lr

; 816  :     if (*pInfo != ROM_SIGNATURE) goto cleanUp;

  00010	e5b12040	 ldr         r2, [r1, #0x40]!
  00014	e59f302c	 ldr         r3, [pc, #0x2C]
  00018	e3a00000	 mov         r0, #0
  0001c	e1520003	 cmp         r2, r3
  00020	1a000006	 bne         |$cleanUp$48023|

; 817  : 
; 818  :     // We are on correct location....
; 819  :     pTOC = (ROMHDR*)(pData + pInfo[2]);

  00024	e5913008	 ldr         r3, [r1, #8]
  00028	e083400e	 add         r4, r3, lr

; 820  : 
; 821  :     // Let see
; 822  :     DumpTOC(pTOC);

  0002c	e1a00004	 mov         r0, r4
  00030	eb000000	 bl          DumpTOC

; 823  : 
; 824  :     // Return pTOC if pointer isn't NULL
; 825  :     if (ppTOC != NULL) *ppTOC = pTOC;

  00034	e3550000	 cmp         r5, #0
  00038	15854000	 strne       r4, [r5]

; 826  : 
; 827  :     // Done
; 828  :     rc = TRUE;

  0003c	e3a00001	 mov         r0, #1
  00040		 |$cleanUp$48023|

; 829  : 
; 830  : cleanUp:
; 831  :     return rc;
; 832  : }

  00040	e8bd4030	 ldmia       sp!, {r4, r5, lr}
  00044	e12fff1e	 bx          lr
  00048		 |$LN8@VerifyImag|
  00048		 |$LN9@VerifyImag|
  00048	43454345	 DCD         0x43454345
  0004c		 |$M48350|

			 ENDP  ; |VerifyImage|

	EXPORT	|__$ArrayPad$| [ DATA ]
	EXPORT	|BLConfigureFlashPartitions|
	EXPORT	|??_C@_1DC@CJMIMBMC@?$AAF?$AAl?$AAa?$AAs?$AAh?$AA?5?$AAf?$AAo?$AAr?$AAm?$AAa?$AAt?$AA?5?$AAc?$AAo?$AAm?$AAp?$AAl?$AAe?$AAt?$AAe?$AA?$CB?$AA?$AN?$AA?6?$AA?$AA@| [ DATA ] ; `string'
	EXPORT	|??_C@_1EE@EELLBIAJ@?$AAE?$AAr?$AAr?$AAo?$AAr?$AA?5?$AAc?$AAr?$AAe?$AAa?$AAt?$AAi?$AAn?$AAg?$AA?5?$AAf?$AAi?$AAl?$AAe?$AA?5?$AAp?$AAa?$AAr?$AAt?$AAi?$AAt?$AAi?$AAo?$AAn?$AA?$CB?$AA?$CB?$AA?$AN@| [ DATA ] ; `string'
	EXPORT	|??_C@_1CO@GFIJHOCH@?$AAN?$AAK?$AA?5?$AAp?$AAa?$AAr?$AAt?$AAi?$AAt?$AAi?$AAo?$AAn?$AA?5?$AAc?$AAr?$AAe?$AAa?$AAt?$AAe?$AAd?$AA?$AN?$AA?6?$AA?$AA@| [ DATA ] ; `string'
	EXPORT	|??_C@_1EA@FBHNJDFD@?$AAE?$AAr?$AAr?$AAo?$AAr?$AA?5?$AAc?$AAr?$AAe?$AAa?$AAt?$AAi?$AAn?$AAg?$AA?5?$AAO?$AAS?$AA?5?$AAp?$AAa?$AAr?$AAt?$AAi?$AAt?$AAi?$AAo?$AAn?$AA?$CB?$AA?$CB?$AA?$AN?$AA?6?$AA?$AA@| [ DATA ] ; `string'
	EXPORT	|??_C@_1CM@NDGHMEGF@?$AAF?$AAo?$AAr?$AAm?$AAa?$AAt?$AAt?$AAi?$AAn?$AAg?$AA?5?$AAf?$AAl?$AAa?$AAs?$AAh?$AA?4?$AA?4?$AA?4?$AA?$AN?$AA?6?$AA?$AA@| [ DATA ] ; `string'
	EXPORT	|??_C@_1LE@KHIPBHLF@?$AAO?$AAS?$AA?5?$AAp?$AAa?$AAr?$AAt?$AAi?$AAt?$AAi?$AAo?$AAn?$AA?5?$AAd?$AAo?$AAe?$AAs?$AA?5?$AAn?$AAo?$AAt?$AA?5?$AAm?$AAa?$AAt?$AAc?$AAh?$AA?5?$AAc?$AAo?$AAn?$AAf@| [ DATA ] ; `string'
	EXPORT	|??_C@_1EA@PANFDMBA@?$AAO?$AAS?$AA?5?$AAp?$AAa?$AAr?$AAt?$AAi?$AAt?$AAi?$AAo?$AAn?$AA?5?$AAd?$AAo?$AAe?$AAs?$AA?5?$AAn?$AAo?$AAt?$AA?5?$AAe?$AAx?$AAi?$AAs?$AAt?$AA?$CB?$AA?$CB?$AA?$AN?$AA?6?$AA?$AA@| [ DATA ] ; `string'
	EXPORT	|??_C@_1II@PGPDCKHA@?$AAB?$AAL?$AAC?$AAo?$AAn?$AAf?$AAi?$AAg?$AAu?$AAr?$AAe?$AAF?$AAl?$AAa?$AAs?$AAh?$AAP?$AAa?$AAr?$AAt?$AAi?$AAt?$AAi?$AAo?$AAn?$AAs?$AA?3?$AA?5?$AAE?$AAr?$AAr?$AAo@| [ DATA ] ; `string'
	IMPORT	|BP_LowLevelFormat|
	IMPORT	|BP_GetPartitionInfo|
	IMPORT	|BP_OpenPartition|
	IMPORT	|g_bootCfg|
	IMPORT	|BP_Init|
	IMPORT	|FMD_Deinit|
	IMPORT	|FMD_GetInfo|
	IMPORT	|FMD_Init|
	IMPORT	|__GSHandlerCheck|
	IMPORT	|__security_cookie|
	IMPORT	|__rt_udiv|
	IMPORT	|__security_check_cookie|

  00000			 AREA	 |.pdata|, PDATA
|$T48377| DCD	|$LN16@BLConfigur|
	DCD	0xc0008602

  00000			 AREA	 |.xdata|, DATA
|$T48373| DCD	0xffffffe4

  00000			 AREA	 |.rdata|, DATA, READONLY
|??_C@_1DC@CJMIMBMC@?$AAF?$AAl?$AAa?$AAs?$AAh?$AA?5?$AAf?$AAo?$AAr?$AAm?$AAa?$AAt?$AA?5?$AAc?$AAo?$AAm?$AAp?$AAl?$AAe?$AAt?$AAe?$AA?$CB?$AA?$AN?$AA?6?$AA?$AA@| DCB "F"
	DCB	0x0, "l", 0x0, "a", 0x0, "s", 0x0, "h", 0x0, " ", 0x0, "f"
	DCB	0x0, "o", 0x0, "r", 0x0, "m", 0x0, "a", 0x0, "t", 0x0, " "
	DCB	0x0, "c", 0x0, "o", 0x0, "m", 0x0, "p", 0x0, "l", 0x0, "e"
	DCB	0x0, "t", 0x0, "e", 0x0, "!", 0x0, 0xd, 0x0, 0xa, 0x0, 0x0
	DCB	0x0					; `string'

  00000			 AREA	 |.rdata|, DATA, READONLY
|??_C@_1EE@EELLBIAJ@?$AAE?$AAr?$AAr?$AAo?$AAr?$AA?5?$AAc?$AAr?$AAe?$AAa?$AAt?$AAi?$AAn?$AAg?$AA?5?$AAf?$AAi?$AAl?$AAe?$AA?5?$AAp?$AAa?$AAr?$AAt?$AAi?$AAt?$AAi?$AAo?$AAn?$AA?$CB?$AA?$CB?$AA?$AN@| DCB "E"
	DCB	0x0, "r", 0x0, "r", 0x0, "o", 0x0, "r", 0x0, " ", 0x0, "c"
	DCB	0x0, "r", 0x0, "e", 0x0, "a", 0x0, "t", 0x0, "i", 0x0, "n"
	DCB	0x0, "g", 0x0, " ", 0x0, "f", 0x0, "i", 0x0, "l", 0x0, "e"
	DCB	0x0, " ", 0x0, "p", 0x0, "a", 0x0, "r", 0x0, "t", 0x0, "i"
	DCB	0x0, "t", 0x0, "i", 0x0, "o", 0x0, "n", 0x0, "!", 0x0, "!"
	DCB	0x0, 0xd, 0x0, 0xa, 0x0, 0x0, 0x0	; `string'

  00000			 AREA	 |.rdata|, DATA, READONLY
|??_C@_1CO@GFIJHOCH@?$AAN?$AAK?$AA?5?$AAp?$AAa?$AAr?$AAt?$AAi?$AAt?$AAi?$AAo?$AAn?$AA?5?$AAc?$AAr?$AAe?$AAa?$AAt?$AAe?$AAd?$AA?$AN?$AA?6?$AA?$AA@| DCB "N"
	DCB	0x0, "K", 0x0, " ", 0x0, "p", 0x0, "a", 0x0, "r", 0x0, "t"
	DCB	0x0, "i", 0x0, "t", 0x0, "i", 0x0, "o", 0x0, "n", 0x0, " "
	DCB	0x0, "c", 0x0, "r", 0x0, "e", 0x0, "a", 0x0, "t", 0x0, "e"
	DCB	0x0, "d", 0x0, 0xd, 0x0, 0xa, 0x0, 0x0, 0x0 ; `string'

  00000			 AREA	 |.rdata|, DATA, READONLY
|??_C@_1EA@FBHNJDFD@?$AAE?$AAr?$AAr?$AAo?$AAr?$AA?5?$AAc?$AAr?$AAe?$AAa?$AAt?$AAi?$AAn?$AAg?$AA?5?$AAO?$AAS?$AA?5?$AAp?$AAa?$AAr?$AAt?$AAi?$AAt?$AAi?$AAo?$AAn?$AA?$CB?$AA?$CB?$AA?$AN?$AA?6?$AA?$AA@| DCB "E"
	DCB	0x0, "r", 0x0, "r", 0x0, "o", 0x0, "r", 0x0, " ", 0x0, "c"
	DCB	0x0, "r", 0x0, "e", 0x0, "a", 0x0, "t", 0x0, "i", 0x0, "n"
	DCB	0x0, "g", 0x0, " ", 0x0, "O", 0x0, "S", 0x0, " ", 0x0, "p"
	DCB	0x0, "a", 0x0, "r", 0x0, "t", 0x0, "i", 0x0, "t", 0x0, "i"
	DCB	0x0, "o", 0x0, "n", 0x0, "!", 0x0, "!", 0x0, 0xd, 0x0, 0xa
	DCB	0x0, 0x0, 0x0				; `string'

  00000			 AREA	 |.rdata|, DATA, READONLY
|??_C@_1CM@NDGHMEGF@?$AAF?$AAo?$AAr?$AAm?$AAa?$AAt?$AAt?$AAi?$AAn?$AAg?$AA?5?$AAf?$AAl?$AAa?$AAs?$AAh?$AA?4?$AA?4?$AA?4?$AA?$AN?$AA?6?$AA?$AA@| DCB "F"
	DCB	0x0, "o", 0x0, "r", 0x0, "m", 0x0, "a", 0x0, "t", 0x0, "t"
	DCB	0x0, "i", 0x0, "n", 0x0, "g", 0x0, " ", 0x0, "f", 0x0, "l"
	DCB	0x0, "a", 0x0, "s", 0x0, "h", 0x0, ".", 0x0, ".", 0x0, "."
	DCB	0x0, 0xd, 0x0, 0xa, 0x0, 0x0, 0x0	; `string'

  00000			 AREA	 |.rdata|, DATA, READONLY
|??_C@_1LE@KHIPBHLF@?$AAO?$AAS?$AA?5?$AAp?$AAa?$AAr?$AAt?$AAi?$AAt?$AAi?$AAo?$AAn?$AA?5?$AAd?$AAo?$AAe?$AAs?$AA?5?$AAn?$AAo?$AAt?$AA?5?$AAm?$AAa?$AAt?$AAc?$AAh?$AA?5?$AAc?$AAo?$AAn?$AAf@| DCB "O"
	DCB	0x0, "S", 0x0, " ", 0x0, "p", 0x0, "a", 0x0, "r", 0x0, "t"
	DCB	0x0, "i", 0x0, "t", 0x0, "i", 0x0, "o", 0x0, "n", 0x0, " "
	DCB	0x0, "d", 0x0, "o", 0x0, "e", 0x0, "s", 0x0, " ", 0x0, "n"
	DCB	0x0, "o", 0x0, "t", 0x0, " ", 0x0, "m", 0x0, "a", 0x0, "t"
	DCB	0x0, "c", 0x0, "h", 0x0, " ", 0x0, "c", 0x0, "o", 0x0, "n"
	DCB	0x0, "f", 0x0, "i", 0x0, "g", 0x0, "u", 0x0, "r", 0x0, "e"
	DCB	0x0, "d", 0x0, " ", 0x0, "s", 0x0, "i", 0x0, "z", 0x0, "e"
	DCB	0x0, "!", 0x0, "!", 0x0, " ", 0x0, " ", 0x0, "S", 0x0, "e"
	DCB	0x0, "c", 0x0, "t", 0x0, "o", 0x0, "r", 0x0, " ", 0x0, "c"
	DCB	0x0, "o", 0x0, "u", 0x0, "n", 0x0, "t", 0x0, " ", 0x0, "e"
	DCB	0x0, "x", 0x0, "p", 0x0, "e", 0x0, "c", 0x0, "t", 0x0, "e"
	DCB	0x0, "d", 0x0, ":", 0x0, " ", 0x0, "0", 0x0, "x", 0x0, "%"
	DCB	0x0, "x", 0x0, ",", 0x0, " ", 0x0, "a", 0x0, "c", 0x0, "t"
	DCB	0x0, "u", 0x0, "a", 0x0, "l", 0x0, " ", 0x0, "0", 0x0, "x"
	DCB	0x0, "%", 0x0, "x", 0x0, 0xd, 0x0, 0xa, 0x0, 0x0, 0x0 ; `string'

  00000			 AREA	 |.rdata|, DATA, READONLY
|??_C@_1EA@PANFDMBA@?$AAO?$AAS?$AA?5?$AAp?$AAa?$AAr?$AAt?$AAi?$AAt?$AAi?$AAo?$AAn?$AA?5?$AAd?$AAo?$AAe?$AAs?$AA?5?$AAn?$AAo?$AAt?$AA?5?$AAe?$AAx?$AAi?$AAs?$AAt?$AA?$CB?$AA?$CB?$AA?$AN?$AA?6?$AA?$AA@| DCB "O"
	DCB	0x0, "S", 0x0, " ", 0x0, "p", 0x0, "a", 0x0, "r", 0x0, "t"
	DCB	0x0, "i", 0x0, "t", 0x0, "i", 0x0, "o", 0x0, "n", 0x0, " "
	DCB	0x0, "d", 0x0, "o", 0x0, "e", 0x0, "s", 0x0, " ", 0x0, "n"
	DCB	0x0, "o", 0x0, "t", 0x0, " ", 0x0, "e", 0x0, "x", 0x0, "i"
	DCB	0x0, "s", 0x0, "t", 0x0, "!", 0x0, "!", 0x0, 0xd, 0x0, 0xa
	DCB	0x0, 0x0, 0x0				; `string'

  00000			 AREA	 |.rdata|, DATA, READONLY
|??_C@_1II@PGPDCKHA@?$AAB?$AAL?$AAC?$AAo?$AAn?$AAf?$AAi?$AAg?$AAu?$AAr?$AAe?$AAF?$AAl?$AAa?$AAs?$AAh?$AAP?$AAa?$AAr?$AAt?$AAi?$AAt?$AAi?$AAo?$AAn?$AAs?$AA?3?$AA?5?$AAE?$AAr?$AAr?$AAo@| DCB "B"
	DCB	0x0, "L", 0x0, "C", 0x0, "o", 0x0, "n", 0x0, "f", 0x0, "i"
	DCB	0x0, "g", 0x0, "u", 0x0, "r", 0x0, "e", 0x0, "F", 0x0, "l"
	DCB	0x0, "a", 0x0, "s", 0x0, "h", 0x0, "P", 0x0, "a", 0x0, "r"
	DCB	0x0, "t", 0x0, "i", 0x0, "t", 0x0, "i", 0x0, "o", 0x0, "n"
	DCB	0x0, "s", 0x0, ":", 0x0, " ", 0x0, "E", 0x0, "r", 0x0, "r"
	DCB	0x0, "o", 0x0, "r", 0x0, " ", 0x0, "i", 0x0, "n", 0x0, "i"
	DCB	0x0, "t", 0x0, "i", 0x0, "a", 0x0, "l", 0x0, "i", 0x0, "z"
	DCB	0x0, "i", 0x0, "n", 0x0, "g", 0x0, " ", 0x0, "b", 0x0, "o"
	DCB	0x0, "o", 0x0, "t", 0x0, "p", 0x0, "a", 0x0, "r", 0x0, "t"
	DCB	0x0, " ", 0x0, "l", 0x0, "i", 0x0, "b", 0x0, "r", 0x0, "a"
	DCB	0x0, "r", 0x0, "y", 0x0, "!", 0x0, "!", 0x0, 0xd, 0x0, 0xa
	DCB	0x0, 0x0, 0x0				; `string'
; Function compile flags: /Ogspy

  00000			 AREA	 |.text|, CODE, ARM

  00000	00000000	 DCD         |__GSHandlerCheck|
  00004	00000000	 DCD         |$T48373|

  00008		 |BLConfigureFlashPartitions| PROC

; 837  : {

  00008		 |$LN16@BLConfigur|
  00008	e92d41f0	 stmdb       sp!, {r4 - r8, lr}
  0000c	e24ddfe6	 sub         sp, sp, #0xE6, 30
  00010		 |$M48374|
  00010	e1a07000	 mov         r7, r0
  00014	e59f3200	 ldr         r3, [pc, #0x200]
  00018	e5933000	 ldr         r3, [r3]
  0001c	e58d3394	 str         r3, [sp, #0x394]

; 838  :     BOOL rc = FALSE;
; 839  :     HANDLE hFMD;
; 840  :     PCI_REG_INFO regInfo;
; 841  :     FlashInfo flashInfo;
; 842  :     HANDLE hPartition;
; 843  :     PPARTENTRY pPartitionEntry;
; 844  :     DWORD dwBootPartitionSectorCount;
; 845  : 
; 846  : #ifdef IMGMULTIXIP
; 847  :     // Variable for sector count for the new BinFS region (EXT) 
; 848  :     DWORD dwExtPartitionSectorCount;
; 849  : #endif
; 850  : 
; 851  :     memset(&regInfo, 0, sizeof(PCI_REG_INFO));

  00020	e3a02d0e	 mov         r2, #0xE, 26
  00024	e3a01000	 mov         r1, #0
  00028	e28d0014	 add         r0, sp, #0x14
  0002c	e3a05000	 mov         r5, #0
  00030	eb000000	 bl          memset

; 852  :     regInfo.MemBase.Num    = 1;
; 853  :     regInfo.MemLen.Num     = 1;
; 854  :     regInfo.MemBase.Reg[0] = g_ulFlashBase;

  00034	e59f41dc	 ldr         r4, [pc, #0x1DC]
  00038	e3a0e001	 mov         lr, #1
  0003c	e3a06001	 mov         r6, #1
  00040	e5943000	 ldr         r3, [r4]

; 855  :     
; 856  :     // Get flash info
; 857  :     hFMD = FMD_Init(NULL, &regInfo, NULL);

  00044	e3a02000	 mov         r2, #0
  00048	e28d1014	 add         r1, sp, #0x14
  0004c	e3a00000	 mov         r0, #0
  00050	e58d3324	 str         r3, [sp, #0x324]
  00054	e58de320	 str         lr, [sp, #0x320]
  00058	e58d633c	 str         r6, [sp, #0x33C]
  0005c	eb000000	 bl          FMD_Init
  00060	e1b06000	 movs        r6, r0

; 858  :     if (hFMD == NULL)

  00064	0a00005c	 beq         |$cleanUp$48042|

; 859  :         goto cleanUp;
; 860  : 
; 861  :     if (!FMD_GetInfo(&flashInfo))

  00068	e28d0004	 add         r0, sp, #4
  0006c	eb000000	 bl          FMD_GetInfo
  00070	e3500000	 cmp         r0, #0
  00074	0a000058	 beq         |$cleanUp$48042|

; 862  :         goto cleanUp;
; 863  :     
; 864  :     FMD_Deinit(hFMD);

  00078	e1a00006	 mov         r0, r6
  0007c	eb000000	 bl          FMD_Deinit

; 865  :     
; 866  :     // Initialize boot partition library
; 867  :     if (!BP_Init((LPBYTE)g_ulBPartBase, g_ulBPartLengthBytes, NULL, &regInfo, NULL))

  00080	e594100c	 ldr         r1, [r4, #0xC]
  00084	e5940008	 ldr         r0, [r4, #8]
  00088	e3a08000	 mov         r8, #0
  0008c	e28d3014	 add         r3, sp, #0x14
  00090	e3a02000	 mov         r2, #0
  00094	e58d8000	 str         r8, [sp]
  00098	eb000000	 bl          BP_Init
  0009c	e3500000	 cmp         r0, #0
  000a0	1a000002	 bne         |$LN8@BLConfigur|

; 868  :     {
; 869  :         OALLog(L"BLConfigureFlashPartitions: Error initializing bootpart library!!\r\n");

  000a4	e59f0168	 ldr         r0, [pc, #0x168]
  000a8	eb000000	 bl          NKDbgPrintfW

; 870  :         goto cleanUp;

  000ac	ea00004a	 b           |$cleanUp$48042|
  000b0		 |$LN8@BLConfigur|

; 871  :     }
; 872  :     
; 873  :     // Get boot partition size
; 874  :     // Ensure boot partition uses entire blocks with no space left over
; 875  :     // Round up to an even block size
; 876  :     dwBootPartitionSectorCount = ((g_bootCfg.osPartitionSize + (flashInfo.dwBytesPerBlock - 1))/ flashInfo.dwBytesPerBlock) * flashInfo.wSectorsPerBlock;
; 877  : 
; 878  :     // Reduce by one to account for MBR, which will be the first sector in non reserved area.
; 879  :     // This causes boot partition to end on a block boundary
; 880  :     dwBootPartitionSectorCount -= 1;

  000b0	e59f3158	 ldr         r3, [pc, #0x158]
  000b4	e59d200c	 ldr         r2, [sp, #0xC]
  000b8	e5933048	 ldr         r3, [r3, #0x48]
  000bc	e1a00002	 mov         r0, r2
  000c0	e0833002	 add         r3, r3, r2
  000c4	e2431001	 sub         r1, r3, #1
  000c8	eb000000	 bl          __rt_udiv
  000cc	e1dd31b0	 ldrh        r3, [sp, #0x10]

; 881  : 
; 882  : #ifdef IMGMULTIXIP
; 883  :     // Calculation of the size for the EXT region
; 884  :     dwExtPartitionSectorCount = ((IMAGE_WINCE_EXT_SIZE + (flashInfo.dwBytesPerBlock - 1))/ flashInfo.dwBytesPerBlock) * flashInfo.wSectorsPerBlock;
; 885  : 
; 886  :     dwExtPartitionSectorCount -= 1;
; 887  : #endif
; 888  :     // Check for existence and size of OS boot partition
; 889  :     hPartition = BP_OpenPartition((DWORD)NEXT_FREE_LOC, (DWORD)USE_REMAINING_SPACE, PART_BOOTSECTION, FALSE, PART_OPEN_EXISTING);

  000d0	e3a0e001	 mov         lr, #1
  000d4	e3e01000	 mvn         r1, #0
  000d8	e0020390	 mul         r2, r0, r3
  000dc	e3a03000	 mov         r3, #0
  000e0	e2426001	 sub         r6, r2, #1
  000e4	e3a02020	 mov         r2, #0x20
  000e8	e3e00000	 mvn         r0, #0
  000ec	e58de000	 str         lr, [sp]
  000f0	eb000000	 bl          BP_OpenPartition
  000f4	e1a04000	 mov         r4, r0

; 890  :     if (hPartition == INVALID_HANDLE_VALUE)

  000f8	e3740001	 cmn         r4, #1
  000fc	1a000002	 bne         |$LN7@BLConfigur|

; 891  :         OALLog(L"OS partition does not exist!!\r\n");

  00100	e59f0104	 ldr         r0, [pc, #0x104]
  00104	eb000000	 bl          NKDbgPrintfW

; 892  :     else

  00108	ea000012	 b           |$LN3@BLConfigur|
  0010c		 |$LN7@BLConfigur|

; 893  :     {
; 894  :         pPartitionEntry = BP_GetPartitionInfo(hPartition);

  0010c	e1a00004	 mov         r0, r4
  00110	eb000000	 bl          BP_GetPartitionInfo

; 895  :         if (dwBootPartitionSectorCount != pPartitionEntry->Part_TotalSectors)

  00114	e5d0e00c	 ldrb        lr, [r0, #0xC]
  00118	e5d0300d	 ldrb        r3, [r0, #0xD]
  0011c	e5d0200e	 ldrb        r2, [r0, #0xE]
  00120	e5d0100f	 ldrb        r1, [r0, #0xF]
  00124	e18e3403	 orr         r3, lr, r3, lsl #8
  00128	e1833802	 orr         r3, r3, r2, lsl #16
  0012c	e1832c01	 orr         r2, r3, r1, lsl #24
  00130	e1560002	 cmp         r6, r2
  00134	0a000003	 beq         |$LN5@BLConfigur|

; 896  :         {
; 897  :             OALLog(L"OS partition does not match configured size!!  Sector count expected: 0x%x, actual 0x%x\r\n", dwBootPartitionSectorCount, pPartitionEntry->Part_TotalSectors);

  00138	e59f00c8	 ldr         r0, [pc, #0xC8]
  0013c	e1a01006	 mov         r1, r6
  00140	eb000000	 bl          NKDbgPrintfW

; 898  :             // Mark handle invalid to kick us into formatting code
; 899  :             hPartition = INVALID_HANDLE_VALUE;

  00144	e3e04000	 mvn         r4, #0
  00148		 |$LN5@BLConfigur|

; 900  :         }
; 901  :     }
; 902  :         
; 903  :     if ((hPartition == INVALID_HANDLE_VALUE) || (bForceEnable == TRUE))

  00148	e3740001	 cmn         r4, #1
  0014c	0a000001	 beq         |$LN3@BLConfigur|
  00150	e3570001	 cmp         r7, #1
  00154	1a00001f	 bne         |$LN4@BLConfigur|
  00158		 |$LN3@BLConfigur|

; 904  :     {
; 905  :         // OS binary partition either does not exist or does not match configured size
; 906  :         OALLog(L"Formatting flash...\r\n");

  00158	e59f00a4	 ldr         r0, [pc, #0xA4]
  0015c	eb000000	 bl          NKDbgPrintfW

; 907  :         // Create a new partion
; 908  :         // Can't just call BP_OpenPartition with PART_OPEN_ALWAYS because it will erase reserved 
; 909  :         // blocks (bootloader) if MBR doesn't exist.  Also, we want to ensure the boot partition
; 910  :         // is actually the first partition on the flash.  So do low level format here (note that 
; 911  :         // this destroys all other partitions on the device)
; 912  :         // Note, we're skipping the block check for speed reasons. Might not want this in a production device...
; 913  :         BP_LowLevelFormat (0, flashInfo.dwNumBlocks, FORMAT_SKIP_RESERVED|FORMAT_SKIP_BLOCK_CHECK);

  00160	e59d1008	 ldr         r1, [sp, #8]
  00164	e3a02003	 mov         r2, #3
  00168	e3a00000	 mov         r0, #0
  0016c	eb000000	 bl          BP_LowLevelFormat

; 914  :         // Create the OS partition
; 915  :         hPartition = BP_OpenPartition((DWORD)NEXT_FREE_LOC, dwBootPartitionSectorCount, PART_BOOTSECTION, FALSE, PART_CREATE_NEW);

  00170	e3a03000	 mov         r3, #0
  00174	e3a02020	 mov         r2, #0x20
  00178	e1a01006	 mov         r1, r6
  0017c	e3e00000	 mvn         r0, #0
  00180	e58d8000	 str         r8, [sp]
  00184	eb000000	 bl          BP_OpenPartition

; 916  :         if (hPartition == INVALID_HANDLE_VALUE)

  00188	e3700001	 cmn         r0, #1
  0018c	1a000002	 bne         |$LN2@BLConfigur|

; 917  :         {
; 918  :             OALLog(L"Error creating OS partition!!\r\n");

  00190	e59f0068	 ldr         r0, [pc, #0x68]
  00194	eb000000	 bl          NKDbgPrintfW
  00198	ea00000f	 b           |$cleanUp$48042|
  0019c		 |$LN2@BLConfigur|

; 919  :             goto cleanUp;
; 920  :         }
; 921  :         OALLog(L"NK partition created\r\n");

  0019c	e59f0058	 ldr         r0, [pc, #0x58]
  001a0	eb000000	 bl          NKDbgPrintfW

; 922  : 		
; 923  : #ifdef IMGMULTIXIP
; 924  : 
; 925  :        // Creation of the BinFS partition
; 926  :        hPartition = BP_OpenPartition((DWORD)NEXT_FREE_LOC, dwExtPartitionSectorCount, PART_BINFS, FALSE, PART_CREATE_NEW);
; 927  :        if (hPartition == INVALID_HANDLE_VALUE)
; 928  :        {
; 929  :            OALLog(L"Error creating OS partition!!\r\n");
; 930  :            goto cleanUp;
; 931  :        }
; 932  :        OALLog(L"EXT partition created\r\n");
; 933  : #endif
; 934  : 
; 935  :         // Create FAT partition on remaining flash (can be automatically mounted)
; 936  :         hPartition = BP_OpenPartition((DWORD)NEXT_FREE_LOC, (DWORD)USE_REMAINING_SPACE, PART_DOS32, FALSE, PART_CREATE_NEW);

  001a4	e3a03000	 mov         r3, #0
  001a8	e3a0200b	 mov         r2, #0xB
  001ac	e3e01000	 mvn         r1, #0
  001b0	e3e00000	 mvn         r0, #0
  001b4	e58d8000	 str         r8, [sp]
  001b8	eb000000	 bl          BP_OpenPartition

; 937  :         if (hPartition == INVALID_HANDLE_VALUE)

  001bc	e3700001	 cmn         r0, #1
  001c0	1a000002	 bne         |$LN1@BLConfigur|

; 938  :         {
; 939  :             OALLog(L"Error creating file partition!!\r\n");

  001c4	e59f002c	 ldr         r0, [pc, #0x2C]
  001c8	eb000000	 bl          NKDbgPrintfW
  001cc	ea000002	 b           |$cleanUp$48042|
  001d0		 |$LN1@BLConfigur|

; 940  :             goto cleanUp;
; 941  :         }
; 942  :         OALLog(L"Flash format complete!\r\n");

  001d0	e59f001c	 ldr         r0, [pc, #0x1C]
  001d4	eb000000	 bl          NKDbgPrintfW
  001d8		 |$LN4@BLConfigur|

; 943  :     }
; 944  :     
; 945  :     // Done
; 946  :     rc = TRUE;

  001d8	e3a05001	 mov         r5, #1
  001dc		 |$cleanUp$48042|

; 947  : 
; 948  : cleanUp:
; 949  :     return rc;

  001dc	e59d0394	 ldr         r0, [sp, #0x394]
  001e0	eb000000	 bl          __security_check_cookie

; 950  : }

  001e4	e1a00005	 mov         r0, r5
  001e8	e28ddfe6	 add         sp, sp, #0xE6, 30
  001ec	e8bd41f0	 ldmia       sp!, {r4 - r8, lr}
  001f0	e12fff1e	 bx          lr
  001f4		 |$LN17@BLConfigur|
  001f4		 |$LN18@BLConfigur|
  001f4	00000000	 DCD         |??_C@_1DC@CJMIMBMC@?$AAF?$AAl?$AAa?$AAs?$AAh?$AA?5?$AAf?$AAo?$AAr?$AAm?$AAa?$AAt?$AA?5?$AAc?$AAo?$AAm?$AAp?$AAl?$AAe?$AAt?$AAe?$AA?$CB?$AA?$AN?$AA?6?$AA?$AA@|
  001f8		 |$LN19@BLConfigur|
  001f8	00000000	 DCD         |??_C@_1EE@EELLBIAJ@?$AAE?$AAr?$AAr?$AAo?$AAr?$AA?5?$AAc?$AAr?$AAe?$AAa?$AAt?$AAi?$AAn?$AAg?$AA?5?$AAf?$AAi?$AAl?$AAe?$AA?5?$AAp?$AAa?$AAr?$AAt?$AAi?$AAt?$AAi?$AAo?$AAn?$AA?$CB?$AA?$CB?$AA?$AN@|
  001fc		 |$LN20@BLConfigur|
  001fc	00000000	 DCD         |??_C@_1CO@GFIJHOCH@?$AAN?$AAK?$AA?5?$AAp?$AAa?$AAr?$AAt?$AAi?$AAt?$AAi?$AAo?$AAn?$AA?5?$AAc?$AAr?$AAe?$AAa?$AAt?$AAe?$AAd?$AA?$AN?$AA?6?$AA?$AA@|
  00200		 |$LN21@BLConfigur|
  00200	00000000	 DCD         |??_C@_1EA@FBHNJDFD@?$AAE?$AAr?$AAr?$AAo?$AAr?$AA?5?$AAc?$AAr?$AAe?$AAa?$AAt?$AAi?$AAn?$AAg?$AA?5?$AAO?$AAS?$AA?5?$AAp?$AAa?$AAr?$AAt?$AAi?$AAt?$AAi?$AAo?$AAn?$AA?$CB?$AA?$CB?$AA?$AN?$AA?6?$AA?$AA@|
  00204		 |$LN22@BLConfigur|
  00204	00000000	 DCD         |??_C@_1CM@NDGHMEGF@?$AAF?$AAo?$AAr?$AAm?$AAa?$AAt?$AAt?$AAi?$AAn?$AAg?$AA?5?$AAf?$AAl?$AAa?$AAs?$AAh?$AA?4?$AA?4?$AA?4?$AA?$AN?$AA?6?$AA?$AA@|
  00208		 |$LN23@BLConfigur|
  00208	00000000	 DCD         |??_C@_1LE@KHIPBHLF@?$AAO?$AAS?$AA?5?$AAp?$AAa?$AAr?$AAt?$AAi?$AAt?$AAi?$AAo?$AAn?$AA?5?$AAd?$AAo?$AAe?$AAs?$AA?5?$AAn?$AAo?$AAt?$AA?5?$AAm?$AAa?$AAt?$AAc?$AAh?$AA?5?$AAc?$AAo?$AAn?$AAf@|
  0020c		 |$LN24@BLConfigur|
  0020c	00000000	 DCD         |??_C@_1EA@PANFDMBA@?$AAO?$AAS?$AA?5?$AAp?$AAa?$AAr?$AAt?$AAi?$AAt?$AAi?$AAo?$AAn?$AA?5?$AAd?$AAo?$AAe?$AAs?$AA?5?$AAn?$AAo?$AAt?$AA?5?$AAe?$AAx?$AAi?$AAs?$AAt?$AA?$CB?$AA?$CB?$AA?$AN?$AA?6?$AA?$AA@|
  00210		 |$LN25@BLConfigur|
  00210	00000000	 DCD         |g_bootCfg|
  00214		 |$LN26@BLConfigur|
  00214	00000000	 DCD         |??_C@_1II@PGPDCKHA@?$AAB?$AAL?$AAC?$AAo?$AAn?$AAf?$AAi?$AAg?$AAu?$AAr?$AAe?$AAF?$AAl?$AAa?$AAs?$AAh?$AAP?$AAa?$AAr?$AAt?$AAi?$AAt?$AAi?$AAo?$AAn?$AAs?$AA?3?$AA?5?$AAE?$AAr?$AAr?$AAo@|
  00218		 |$LN27@BLConfigur|
  00218	00000000	 DCD         |g_ulFlashBase|
  0021c		 |$LN28@BLConfigur|
  0021c	00000000	 DCD         |__security_cookie|
  00220		 |$M48375|

			 ENDP  ; |BLConfigureFlashPartitions|

	EXPORT	|__$ArrayPad$| [ DATA ]
	EXPORT	|??_C@_1CE@KBCKFLJM@?$AAN?$AAK?$AA?5?$AAI?$AAm?$AAa?$AAg?$AAe?$AA?5?$AAL?$AAo?$AAa?$AAd?$AAe?$AAd?$AA?$AN?$AA?6?$AA?$AA@| [ DATA ] ; `string'
	EXPORT	|??_C@_1FK@HODAKHKA@?$AAE?$AAR?$AAR?$AAO?$AAR?$AA?3?$AA?5?$AAN?$AAK?$AA?5?$AAi?$AAm?$AAa?$AAg?$AAe?$AA?5?$AAd?$AAo?$AAe?$AAs?$AAn?$AA?8?$AAt?$AA?5?$AAh?$AAa?$AAv?$AAe?$AA?5?$AAR?$AAO?$AAM@| [ DATA ] ; `string'
	EXPORT	|??_C@_1EE@FFBJDIJA@?$AAE?$AAR?$AAR?$AAO?$AAR?$AA?3?$AA?5?$AAB?$AAP?$AA_?$AAR?$AAe?$AAa?$AAd?$AAD?$AAa?$AAt?$AAa?$AA?5?$AAc?$AAa?$AAl?$AAl?$AA?5?$AAf?$AAa?$AAi?$AAl?$AAe?$AAd?$AA?$CB?$AA?$AN@| [ DATA ] ; `string'
	EXPORT	|??_C@_1EG@FNGCHJDC@?$AAE?$AAR?$AAR?$AAO?$AAR?$AA?3?$AA?5?$AAI?$AAm?$AAa?$AAg?$AAe?$AA?5?$AAs?$AAi?$AAg?$AAn?$AAa?$AAt?$AAu?$AAr?$AAe?$AA?5?$AAn?$AAo?$AAt?$AA?5?$AAf?$AAo?$AAu?$AAn?$AAd@| [ DATA ] ; `string'
	EXPORT	|??_C@_1EK@JACEGLCB@?$AAE?$AAR?$AAR?$AAO?$AAR?$AA?3?$AA?5?$AAE?$AAr?$AAr?$AAo?$AAr?$AA?5?$AAr?$AAe?$AAa?$AAd?$AAi?$AAn?$AAg?$AA?5?$AAO?$AAS?$AA?5?$AAp?$AAa?$AAr?$AAt?$AAi?$AAt?$AAi?$AAo@| [ DATA ] ; `string'
	EXPORT	|??_C@_1EC@KEKCJKLC@?$AAE?$AAR?$AAR?$AAO?$AAR?$AA?3?$AA?5?$AAO?$AAS?$AA?5?$AAp?$AAa?$AAr?$AAt?$AAi?$AAt?$AAi?$AAo?$AAn?$AA?5?$AAn?$AAo?$AAt?$AA?5?$AAf?$AAo?$AAu?$AAn?$AAd?$AA?$CB?$AA?$AN?$AA?6@| [ DATA ] ; `string'
	EXPORT	|??_C@_1GK@CPEKEJEK@?$AAR?$AAe?$AAa?$AAd?$AAF?$AAl?$AAa?$AAs?$AAh?$AAN?$AAK?$AA?3?$AA?5?$AAE?$AAr?$AAr?$AAo?$AAr?$AA?5?$AAi?$AAn?$AAi?$AAt?$AAi?$AAa?$AAl?$AAi?$AAz?$AAi?$AAn?$AAg?$AA?5@| [ DATA ] ; `string'
	EXPORT	|??_C@_1EI@NJKPEMPA@?$AA?$AN?$AA?6?$AAL?$AAo?$AAa?$AAd?$AA?5?$AAN?$AAK?$AA?5?$AAi?$AAm?$AAa?$AAg?$AAe?$AA?5?$AAf?$AAr?$AAo?$AAm?$AA?5?$AAf?$AAl?$AAa?$AAs?$AAh?$AA?5?$AAm?$AAe?$AAm?$AAo?$AAr@| [ DATA ] ; `string'
	IMPORT	|g_eboot|
	IMPORT	|OALVAtoPA|
	IMPORT	|BP_ReadData|
	IMPORT	|BP_SetDataPointer|

  00000			 AREA	 |.pdata|, PDATA
|$T48426| DCD	|$LN30@ReadFlashN|
	DCD	0xc0009502

  00000			 AREA	 |.xdata|, DATA
|$T48422| DCD	0xffffffe4

  00000			 AREA	 |.rdata|, DATA, READONLY
|??_C@_1CE@KBCKFLJM@?$AAN?$AAK?$AA?5?$AAI?$AAm?$AAa?$AAg?$AAe?$AA?5?$AAL?$AAo?$AAa?$AAd?$AAe?$AAd?$AA?$AN?$AA?6?$AA?$AA@| DCB "N"
	DCB	0x0, "K", 0x0, " ", 0x0, "I", 0x0, "m", 0x0, "a", 0x0, "g"
	DCB	0x0, "e", 0x0, " ", 0x0, "L", 0x0, "o", 0x0, "a", 0x0, "d"
	DCB	0x0, "e", 0x0, "d", 0x0, 0xd, 0x0, 0xa, 0x0, 0x0, 0x0 ; `string'

  00000			 AREA	 |.rdata|, DATA, READONLY
|??_C@_1FK@HODAKHKA@?$AAE?$AAR?$AAR?$AAO?$AAR?$AA?3?$AA?5?$AAN?$AAK?$AA?5?$AAi?$AAm?$AAa?$AAg?$AAe?$AA?5?$AAd?$AAo?$AAe?$AAs?$AAn?$AA?8?$AAt?$AA?5?$AAh?$AAa?$AAv?$AAe?$AA?5?$AAR?$AAO?$AAM@| DCB "E"
	DCB	0x0, "R", 0x0, "R", 0x0, "O", 0x0, "R", 0x0, ":", 0x0, " "
	DCB	0x0, "N", 0x0, "K", 0x0, " ", 0x0, "i", 0x0, "m", 0x0, "a"
	DCB	0x0, "g", 0x0, "e", 0x0, " ", 0x0, "d", 0x0, "o", 0x0, "e"
	DCB	0x0, "s", 0x0, "n", 0x0, "'", 0x0, "t", 0x0, " ", 0x0, "h"
	DCB	0x0, "a", 0x0, "v", 0x0, "e", 0x0, " ", 0x0, "R", 0x0, "O"
	DCB	0x0, "M", 0x0, " ", 0x0, "s", 0x0, "i", 0x0, "g", 0x0, "n"
	DCB	0x0, "a", 0x0, "t", 0x0, "u", 0x0, "r", 0x0, "e", 0x0, 0xd
	DCB	0x0, 0xa, 0x0, 0x0, 0x0			; `string'

  00000			 AREA	 |.rdata|, DATA, READONLY
|??_C@_1EE@FFBJDIJA@?$AAE?$AAR?$AAR?$AAO?$AAR?$AA?3?$AA?5?$AAB?$AAP?$AA_?$AAR?$AAe?$AAa?$AAd?$AAD?$AAa?$AAt?$AAa?$AA?5?$AAc?$AAa?$AAl?$AAl?$AA?5?$AAf?$AAa?$AAi?$AAl?$AAe?$AAd?$AA?$CB?$AA?$AN@| DCB "E"
	DCB	0x0, "R", 0x0, "R", 0x0, "O", 0x0, "R", 0x0, ":", 0x0, " "
	DCB	0x0, "B", 0x0, "P", 0x0, "_", 0x0, "R", 0x0, "e", 0x0, "a"
	DCB	0x0, "d", 0x0, "D", 0x0, "a", 0x0, "t", 0x0, "a", 0x0, " "
	DCB	0x0, "c", 0x0, "a", 0x0, "l", 0x0, "l", 0x0, " ", 0x0, "f"
	DCB	0x0, "a", 0x0, "i", 0x0, "l", 0x0, "e", 0x0, "d", 0x0, "!"
	DCB	0x0, 0xd, 0x0, 0xa, 0x0, 0x0, 0x0	; `string'

  00000			 AREA	 |.rdata|, DATA, READONLY
|??_C@_1EG@FNGCHJDC@?$AAE?$AAR?$AAR?$AAO?$AAR?$AA?3?$AA?5?$AAI?$AAm?$AAa?$AAg?$AAe?$AA?5?$AAs?$AAi?$AAg?$AAn?$AAa?$AAt?$AAu?$AAr?$AAe?$AA?5?$AAn?$AAo?$AAt?$AA?5?$AAf?$AAo?$AAu?$AAn?$AAd@| DCB "E"
	DCB	0x0, "R", 0x0, "R", 0x0, "O", 0x0, "R", 0x0, ":", 0x0, " "
	DCB	0x0, "I", 0x0, "m", 0x0, "a", 0x0, "g", 0x0, "e", 0x0, " "
	DCB	0x0, "s", 0x0, "i", 0x0, "g", 0x0, "n", 0x0, "a", 0x0, "t"
	DCB	0x0, "u", 0x0, "r", 0x0, "e", 0x0, " ", 0x0, "n", 0x0, "o"
	DCB	0x0, "t", 0x0, " ", 0x0, "f", 0x0, "o", 0x0, "u", 0x0, "n"
	DCB	0x0, "d", 0x0, 0xd, 0x0, 0xa, 0x0, 0x0, 0x0 ; `string'

  00000			 AREA	 |.rdata|, DATA, READONLY
|??_C@_1EK@JACEGLCB@?$AAE?$AAR?$AAR?$AAO?$AAR?$AA?3?$AA?5?$AAE?$AAr?$AAr?$AAo?$AAr?$AA?5?$AAr?$AAe?$AAa?$AAd?$AAi?$AAn?$AAg?$AA?5?$AAO?$AAS?$AA?5?$AAp?$AAa?$AAr?$AAt?$AAi?$AAt?$AAi?$AAo@| DCB "E"
	DCB	0x0, "R", 0x0, "R", 0x0, "O", 0x0, "R", 0x0, ":", 0x0, " "
	DCB	0x0, "E", 0x0, "r", 0x0, "r", 0x0, "o", 0x0, "r", 0x0, " "
	DCB	0x0, "r", 0x0, "e", 0x0, "a", 0x0, "d", 0x0, "i", 0x0, "n"
	DCB	0x0, "g", 0x0, " ", 0x0, "O", 0x0, "S", 0x0, " ", 0x0, "p"
	DCB	0x0, "a", 0x0, "r", 0x0, "t", 0x0, "i", 0x0, "t", 0x0, "i"
	DCB	0x0, "o", 0x0, "n", 0x0, "!", 0x0, 0xd, 0x0, 0xa, 0x0, 0x0
	DCB	0x0					; `string'

  00000			 AREA	 |.rdata|, DATA, READONLY
|??_C@_1EC@KEKCJKLC@?$AAE?$AAR?$AAR?$AAO?$AAR?$AA?3?$AA?5?$AAO?$AAS?$AA?5?$AAp?$AAa?$AAr?$AAt?$AAi?$AAt?$AAi?$AAo?$AAn?$AA?5?$AAn?$AAo?$AAt?$AA?5?$AAf?$AAo?$AAu?$AAn?$AAd?$AA?$CB?$AA?$AN?$AA?6@| DCB "E"
	DCB	0x0, "R", 0x0, "R", 0x0, "O", 0x0, "R", 0x0, ":", 0x0, " "
	DCB	0x0, "O", 0x0, "S", 0x0, " ", 0x0, "p", 0x0, "a", 0x0, "r"
	DCB	0x0, "t", 0x0, "i", 0x0, "t", 0x0, "i", 0x0, "o", 0x0, "n"
	DCB	0x0, " ", 0x0, "n", 0x0, "o", 0x0, "t", 0x0, " ", 0x0, "f"
	DCB	0x0, "o", 0x0, "u", 0x0, "n", 0x0, "d", 0x0, "!", 0x0, 0xd
	DCB	0x0, 0xa, 0x0, 0x0, 0x0			; `string'

  00000			 AREA	 |.rdata|, DATA, READONLY
|??_C@_1GK@CPEKEJEK@?$AAR?$AAe?$AAa?$AAd?$AAF?$AAl?$AAa?$AAs?$AAh?$AAN?$AAK?$AA?3?$AA?5?$AAE?$AAr?$AAr?$AAo?$AAr?$AA?5?$AAi?$AAn?$AAi?$AAt?$AAi?$AAa?$AAl?$AAi?$AAz?$AAi?$AAn?$AAg?$AA?5@| DCB "R"
	DCB	0x0, "e", 0x0, "a", 0x0, "d", 0x0, "F", 0x0, "l", 0x0, "a"
	DCB	0x0, "s", 0x0, "h", 0x0, "N", 0x0, "K", 0x0, ":", 0x0, " "
	DCB	0x0, "E", 0x0, "r", 0x0, "r", 0x0, "o", 0x0, "r", 0x0, " "
	DCB	0x0, "i", 0x0, "n", 0x0, "i", 0x0, "t", 0x0, "i", 0x0, "a"
	DCB	0x0, "l", 0x0, "i", 0x0, "z", 0x0, "i", 0x0, "n", 0x0, "g"
	DCB	0x0, " ", 0x0, "b", 0x0, "o", 0x0, "o", 0x0, "t", 0x0, "p"
	DCB	0x0, "a", 0x0, "r", 0x0, "t", 0x0, " ", 0x0, "l", 0x0, "i"
	DCB	0x0, "b", 0x0, "r", 0x0, "a", 0x0, "r", 0x0, "y", 0x0, "!"
	DCB	0x0, "!", 0x0, 0xd, 0x0, 0xa, 0x0, 0x0, 0x0 ; `string'

  00000			 AREA	 |.rdata|, DATA, READONLY
|??_C@_1EI@NJKPEMPA@?$AA?$AN?$AA?6?$AAL?$AAo?$AAa?$AAd?$AA?5?$AAN?$AAK?$AA?5?$AAi?$AAm?$AAa?$AAg?$AAe?$AA?5?$AAf?$AAr?$AAo?$AAm?$AA?5?$AAf?$AAl?$AAa?$AAs?$AAh?$AA?5?$AAm?$AAe?$AAm?$AAo?$AAr@| DCB 0xd
	DCB	0x0, 0xa, 0x0, "L", 0x0, "o", 0x0, "a", 0x0, "d", 0x0, " "
	DCB	0x0, "N", 0x0, "K", 0x0, " ", 0x0, "i", 0x0, "m", 0x0, "a"
	DCB	0x0, "g", 0x0, "e", 0x0, " ", 0x0, "f", 0x0, "r", 0x0, "o"
	DCB	0x0, "m", 0x0, " ", 0x0, "f", 0x0, "l", 0x0, "a", 0x0, "s"
	DCB	0x0, "h", 0x0, " ", 0x0, "m", 0x0, "e", 0x0, "m", 0x0, "o"
	DCB	0x0, "r", 0x0, "y", 0x0, 0xd, 0x0, 0xa, 0x0, 0x0, 0x0 ; `string'
; Function compile flags: /Ogspy

  00000			 AREA	 |.text|, CODE, ARM

  00000	00000000	 DCD         |__GSHandlerCheck|
  00004	00000000	 DCD         |$T48422|

  00008		 |ReadFlashNK| PROC

; 147  : {

  00008		 |$LN30@ReadFlashN|
  00008	e92d41f0	 stmdb       sp!, {r4 - r8, lr}
  0000c	e24ddfe3	 sub         sp, sp, #0xE3, 30
  00010		 |$M48423|
  00010	e59f3240	 ldr         r3, [pc, #0x240]
  00014	e5933000	 ldr         r3, [r3]
  00018	e58d3388	 str         r3, [sp, #0x388]

; 148  :     UINT32 rc = (UINT32) BL_ERROR;
; 149  :     HANDLE hPartition;
; 150  :     ROMHDR *pTOC;
; 151  :     ULONG offset, size;
; 152  :     UCHAR *pData;
; 153  :     DWORD *pInfo;
; 154  :     PCI_REG_INFO regInfo;
; 155  : 
; 156  :     memset(&regInfo, 0, sizeof(PCI_REG_INFO));

  0001c	e3a02d0e	 mov         r2, #0xE, 26
  00020	e3a01000	 mov         r1, #0
  00024	e28d0008	 add         r0, sp, #8
  00028	e3e05000	 mvn         r5, #0
  0002c	eb000000	 bl          memset

; 157  :     regInfo.MemBase.Num    = 1;
; 158  :     regInfo.MemLen.Num     = 1;
; 159  :     regInfo.MemBase.Reg[0] = g_ulFlashBase;
; 160  :     regInfo.MemLen.Reg[0]  = g_ulFlashLengthBytes;
; 161  : 
; 162  : 
; 163  :     // Check if there is a valid image
; 164  :     OALMSG(OAL_INFO, (L"\r\nLoad NK image from flash memory\r\n"));

  00030	e59f421c	 ldr         r4, [pc, #0x21C]
  00034	e59f6214	 ldr         r6, [pc, #0x214]
  00038	e3a00001	 mov         r0, #1
  0003c	e5941440	 ldr         r1, [r4, #0x440]
  00040	e5963000	 ldr         r3, [r6]
  00044	e5962004	 ldr         r2, [r6, #4]
  00048	e3110008	 tst         r1, #8
  0004c	e58d0330	 str         r0, [sp, #0x330]
  00050	159f01f4	 ldrne       r0, [pc, #0x1F4]
  00054	e3a0e001	 mov         lr, #1
  00058	e58d3318	 str         r3, [sp, #0x318]
  0005c	e58d2334	 str         r2, [sp, #0x334]
  00060	e58de314	 str         lr, [sp, #0x314]
  00064	1b000000	 blne        NKDbgPrintfW

; 165  : 
; 166  :     // Initialize boot partition library
; 167  :     if (!BP_Init((LPBYTE)g_ulBPartBase, g_ulBPartLengthBytes, NULL, &regInfo, NULL))

  00068	e596100c	 ldr         r1, [r6, #0xC]
  0006c	e5960008	 ldr         r0, [r6, #8]
  00070	e3a0e000	 mov         lr, #0
  00074	e28d3008	 add         r3, sp, #8
  00078	e3a02000	 mov         r2, #0
  0007c	e58de000	 str         lr, [sp]
  00080	eb000000	 bl          BP_Init
  00084	e3500000	 cmp         r0, #0
  00088	1a000002	 bne         |$LN7@ReadFlashN|

; 168  :     {
; 169  :         OALLog(L"ReadFlashNK: Error initializing bootpart library!!\r\n");

  0008c	e59f01b4	 ldr         r0, [pc, #0x1B4]
  00090	eb000000	 bl          NKDbgPrintfW

; 170  :         goto cleanUp;

  00094	ea00005d	 b           |$cleanUp$47762|
  00098		 |$LN7@ReadFlashN|

; 171  :     }
; 172  :     
; 173  :     // Open OS boot partition
; 174  :     hPartition = BP_OpenPartition((DWORD)NEXT_FREE_LOC, (DWORD)USE_REMAINING_SPACE, PART_BOOTSECTION, FALSE, PART_OPEN_EXISTING);

  00098	e3a03001	 mov         r3, #1
  0009c	e58d3000	 str         r3, [sp]
  000a0	e3a03000	 mov         r3, #0
  000a4	e3a02020	 mov         r2, #0x20
  000a8	e1a01005	 mov         r1, r5
  000ac	e1a00005	 mov         r0, r5
  000b0	eb000000	 bl          BP_OpenPartition
  000b4	e1a06000	 mov         r6, r0

; 175  :     if (hPartition == INVALID_HANDLE_VALUE)

  000b8	e3760001	 cmn         r6, #1
  000bc	1a000005	 bne         |$LN6@ReadFlashN|

; 176  :     {
; 177  :         OALMSG(OAL_ERROR, (L"ERROR: OS partition not found!\r\n"));

  000c0	e5943440	 ldr         r3, [r4, #0x440]
  000c4	e3130001	 tst         r3, #1
  000c8	0a000050	 beq         |$cleanUp$47762|
  000cc	e59f0170	 ldr         r0, [pc, #0x170]
  000d0	eb000000	 bl          NKDbgPrintfW
  000d4	ea00004d	 b           |$cleanUp$47762|
  000d8		 |$LN6@ReadFlashN|

; 178  :         goto cleanUp;
; 179  :     }
; 180  :     
; 181  :     BP_SetDataPointer(hPartition, 0);

  000d8	e3a01000	 mov         r1, #0
  000dc	e1a00006	 mov         r0, r6
  000e0	eb000000	 bl          BP_SetDataPointer

; 182  :     
; 183  :     // Set address where to place image
; 184  :     pData = (UCHAR*)IMAGE_WINCE_CODE_CA;
; 185  : 
; 186  : 
; 187  :     // First read 4kB with pointer to TOC
; 188  :     offset = 0;
; 189  :     size = 4096;
; 190  :     if (!BP_ReadData(hPartition, pData + offset, size))

  000e4	e3a08102	 mov         r8, #2, 2
  000e8	e3881a02	 orr         r1, r8, #2, 20
  000ec	e3a02a01	 mov         r2, #1, 20
  000f0	e1a00006	 mov         r0, r6
  000f4	eb000000	 bl          BP_ReadData
  000f8	e3500000	 cmp         r0, #0
  000fc	1a000005	 bne         |$LN5@ReadFlashN|

; 191  :     {
; 192  :         OALMSG(OAL_ERROR, (L"ERROR: Error reading OS partition!\r\n"));

  00100	e5943440	 ldr         r3, [r4, #0x440]
  00104	e3130001	 tst         r3, #1
  00108	0a000040	 beq         |$cleanUp$47762|
  0010c	e59f012c	 ldr         r0, [pc, #0x12C]
  00110	eb000000	 bl          NKDbgPrintfW
  00114	ea00003d	 b           |$cleanUp$47762|
  00118		 |$LN5@ReadFlashN|

; 193  :         goto cleanUp;

  00118	e3a03102	 mov         r3, #2, 2

; 194  :     }
; 195  : 
; 196  :     // Verify that we get CE image
; 197  :     pInfo = (DWORD*)(pData + ROM_SIGNATURE_OFFSET);

  0011c	e3831d81	 orr         r1, r3, #0x81, 26

; 198  :     if (*pInfo != ROM_SIGNATURE)

  00120	e5912000	 ldr         r2, [r1]
  00124	e59f3110	 ldr         r3, [pc, #0x110]
  00128	e1520003	 cmp         r2, r3
  0012c	0a000005	 beq         |$LN4@ReadFlashN|

; 199  :         {
; 200  :         OALMSG(OAL_ERROR, (L"ERROR: "
; 201  :             L"Image signature not found\r\n"
; 202  :             ));

  00130	e5943440	 ldr         r3, [r4, #0x440]
  00134	e3130001	 tst         r3, #1
  00138	0a000034	 beq         |$cleanUp$47762|
  0013c	e59f00f4	 ldr         r0, [pc, #0xF4]
  00140	eb000000	 bl          NKDbgPrintfW
  00144	ea000031	 b           |$cleanUp$47762|
  00148		 |$LN4@ReadFlashN|

; 203  :         goto cleanUp;
; 204  :         }
; 205  : 
; 206  :     // Read image up through actual TOC
; 207  :     offset = size;
; 208  :     size = pInfo[2] - size + sizeof(ROMHDR);

  00148	e5912008	 ldr         r2, [r1, #8]
  0014c	e3a03c0f	 mov         r3, #0xF, 24
  00150	e38330ac	 orr         r3, r3, #0xAC
  00154	e0427003	 sub         r7, r2, r3
  00158	e3a03102	 mov         r3, #2, 2

; 209  :     if (!BP_ReadData(hPartition, pData + offset, size))

  0015c	e3831a03	 orr         r1, r3, #3, 20
  00160	e1a02007	 mov         r2, r7
  00164	e1a00006	 mov         r0, r6
  00168	eb000000	 bl          BP_ReadData
  0016c	e3500000	 cmp         r0, #0
  00170	1a000005	 bne         |$LN3@ReadFlashN|

; 210  :     {
; 211  :         OALMSG(OAL_ERROR, (L"ERROR: "
; 212  :             L"BP_ReadData call failed!\r\n"
; 213  :             ));

  00174	e5943440	 ldr         r3, [r4, #0x440]
  00178		 |$LN27@ReadFlashN|
  00178	e3130001	 tst         r3, #1
  0017c	0a000023	 beq         |$cleanUp$47762|
  00180	e59f00ac	 ldr         r0, [pc, #0xAC]
  00184	eb000000	 bl          NKDbgPrintfW
  00188	ea000020	 b           |$cleanUp$47762|
  0018c		 |$LN3@ReadFlashN|

; 214  :         goto cleanUp;
; 215  :      }
; 216  : 
; 217  :     // Verify image
; 218  :     if (!VerifyImage(pData, &pTOC))

  0018c	e28d1004	 add         r1, sp, #4
  00190	e3880a02	 orr         r0, r8, #2, 20
  00194	eb000000	 bl          VerifyImage
  00198	e3500000	 cmp         r0, #0
  0019c	1a000005	 bne         |$LN2@ReadFlashN|

; 219  :         {
; 220  :         OALMSG(OAL_ERROR, (L"ERROR: "
; 221  :             L"NK image doesn't have ROM signature\r\n"
; 222  :             ));

  001a0	e5943440	 ldr         r3, [r4, #0x440]
  001a4	e3130001	 tst         r3, #1
  001a8	0a000018	 beq         |$cleanUp$47762|
  001ac	e59f007c	 ldr         r0, [pc, #0x7C]
  001b0	eb000000	 bl          NKDbgPrintfW
  001b4	ea000015	 b           |$cleanUp$47762|
  001b8		 |$LN2@ReadFlashN|

; 223  :         goto cleanUp;
; 224  :         }
; 225  : 
; 226  :     // Read remainder of image
; 227  :     offset += size;
; 228  :     size = pTOC->physlast - pTOC->physfirst - offset;

  001b8	e59d3004	 ldr         r3, [sp, #4]
  001bc	e287ea01	 add         lr, r7, #1, 20
  001c0	e3e011fe	 mvn         r1, #0xFE, 2
  001c4	e593200c	 ldr         r2, [r3, #0xC]
  001c8	e5930008	 ldr         r0, [r3, #8]

; 229  :     if (!BP_ReadData(hPartition, pData + offset, size))

  001cc	e2211d7f	 eor         r1, r1, #0x7F, 26
  001d0	e042300e	 sub         r3, r2, lr
  001d4	e0432000	 sub         r2, r3, r0
  001d8	e1a00006	 mov         r0, r6
  001dc	e04e1001	 sub         r1, lr, r1
  001e0	eb000000	 bl          BP_ReadData

; 230  :     {
; 231  :         OALMSG(OAL_ERROR, (L"ERROR: "
; 232  :             L"BP_ReadData call failed!\r\n"
; 233  :             ));

  001e4	e5943440	 ldr         r3, [r4, #0x440]
  001e8	e3500000	 cmp         r0, #0

; 234  :         goto cleanUp;

  001ec	0affffe1	 beq         |$LN27@ReadFlashN|

; 235  :     }
; 236  : 
; 237  :     OALMSG(OAL_INFO, (L"NK Image Loaded\r\n"));

  001f0	e3130008	 tst         r3, #8
  001f4	159f0030	 ldrne       r0, [pc, #0x30]
  001f8	1b000000	 blne        NKDbgPrintfW

; 238  : 
; 239  :     // Done
; 240  :     g_eboot.launchAddress = OALVAtoPA((UCHAR*)IMAGE_WINCE_CODE_CA);

  001fc	e3880a02	 orr         r0, r8, #2, 20
  00200	eb000000	 bl          OALVAtoPA
  00204	e59f301c	 ldr         r3, [pc, #0x1C]

; 241  :     rc = BL_JUMP;

  00208	e3a05001	 mov         r5, #1
  0020c	e583000c	 str         r0, [r3, #0xC]
  00210		 |$cleanUp$47762|

; 242  : 
; 243  : cleanUp:
; 244  :     return rc;

  00210	e59d0388	 ldr         r0, [sp, #0x388]
  00214	eb000000	 bl          __security_check_cookie

; 245  : }

  00218	e1a00005	 mov         r0, r5
  0021c	e28ddfe3	 add         sp, sp, #0xE3, 30
  00220	e8bd41f0	 ldmia       sp!, {r4 - r8, lr}
  00224	e12fff1e	 bx          lr
  00228		 |$LN31@ReadFlashN|
  00228		 |$LN32@ReadFlashN|
  00228	00000000	 DCD         |g_eboot|
  0022c		 |$LN33@ReadFlashN|
  0022c	00000000	 DCD         |??_C@_1CE@KBCKFLJM@?$AAN?$AAK?$AA?5?$AAI?$AAm?$AAa?$AAg?$AAe?$AA?5?$AAL?$AAo?$AAa?$AAd?$AAe?$AAd?$AA?$AN?$AA?6?$AA?$AA@|
  00230		 |$LN34@ReadFlashN|
  00230	00000000	 DCD         |??_C@_1FK@HODAKHKA@?$AAE?$AAR?$AAR?$AAO?$AAR?$AA?3?$AA?5?$AAN?$AAK?$AA?5?$AAi?$AAm?$AAa?$AAg?$AAe?$AA?5?$AAd?$AAo?$AAe?$AAs?$AAn?$AA?8?$AAt?$AA?5?$AAh?$AAa?$AAv?$AAe?$AA?5?$AAR?$AAO?$AAM@|
  00234		 |$LN35@ReadFlashN|
  00234	00000000	 DCD         |??_C@_1EE@FFBJDIJA@?$AAE?$AAR?$AAR?$AAO?$AAR?$AA?3?$AA?5?$AAB?$AAP?$AA_?$AAR?$AAe?$AAa?$AAd?$AAD?$AAa?$AAt?$AAa?$AA?5?$AAc?$AAa?$AAl?$AAl?$AA?5?$AAf?$AAa?$AAi?$AAl?$AAe?$AAd?$AA?$CB?$AA?$AN@|
  00238		 |$LN36@ReadFlashN|
  00238	00000000	 DCD         |??_C@_1EG@FNGCHJDC@?$AAE?$AAR?$AAR?$AAO?$AAR?$AA?3?$AA?5?$AAI?$AAm?$AAa?$AAg?$AAe?$AA?5?$AAs?$AAi?$AAg?$AAn?$AAa?$AAt?$AAu?$AAr?$AAe?$AA?5?$AAn?$AAo?$AAt?$AA?5?$AAf?$AAo?$AAu?$AAn?$AAd@|
  0023c		 |$LN37@ReadFlashN|
  0023c	43454345	 DCD         0x43454345
  00240		 |$LN38@ReadFlashN|
  00240	00000000	 DCD         |??_C@_1EK@JACEGLCB@?$AAE?$AAR?$AAR?$AAO?$AAR?$AA?3?$AA?5?$AAE?$AAr?$AAr?$AAo?$AAr?$AA?5?$AAr?$AAe?$AAa?$AAd?$AAi?$AAn?$AAg?$AA?5?$AAO?$AAS?$AA?5?$AAp?$AAa?$AAr?$AAt?$AAi?$AAt?$AAi?$AAo@|
  00244		 |$LN39@ReadFlashN|
  00244	00000000	 DCD         |??_C@_1EC@KEKCJKLC@?$AAE?$AAR?$AAR?$AAO?$AAR?$AA?3?$AA?5?$AAO?$AAS?$AA?5?$AAp?$AAa?$AAr?$AAt?$AAi?$AAt?$AAi?$AAo?$AAn?$AA?5?$AAn?$AAo?$AAt?$AA?5?$AAf?$AAo?$AAu?$AAn?$AAd?$AA?$CB?$AA?$AN?$AA?6@|
  00248		 |$LN40@ReadFlashN|
  00248	00000000	 DCD         |??_C@_1GK@CPEKEJEK@?$AAR?$AAe?$AAa?$AAd?$AAF?$AAl?$AAa?$AAs?$AAh?$AAN?$AAK?$AA?3?$AA?5?$AAE?$AAr?$AAr?$AAo?$AAr?$AA?5?$AAi?$AAn?$AAi?$AAt?$AAi?$AAa?$AAl?$AAi?$AAz?$AAi?$AAn?$AAg?$AA?5@|
  0024c		 |$LN41@ReadFlashN|
  0024c	00000000	 DCD         |??_C@_1EI@NJKPEMPA@?$AA?$AN?$AA?6?$AAL?$AAo?$AAa?$AAd?$AA?5?$AAN?$AAK?$AA?5?$AAi?$AAm?$AAa?$AAg?$AAe?$AA?5?$AAf?$AAr?$AAo?$AAm?$AA?5?$AAf?$AAl?$AAa?$AAs?$AAh?$AA?5?$AAm?$AAe?$AAm?$AAo?$AAr@|
  00250		 |$LN42@ReadFlashN|
  00250	00000000	 DCD         |g_ulFlashBase|
  00254		 |$LN43@ReadFlashN|
  00254	00000000	 DCD         |dpCurSettings|
  00258		 |$LN44@ReadFlashN|
  00258	00000000	 DCD         |__security_cookie|
  0025c		 |$M48424|

			 ENDP  ; |ReadFlashNK|

	EXPORT	|??_C@_1JC@FCHNHAAL@?$AAE?$AAR?$AAR?$AAO?$AAR?$AA?3?$AA?5?$AAO?$AAE?$AAM?$AAW?$AAr?$AAi?$AAt?$AAe?$AAF?$AAl?$AAa?$AAs?$AAh?$AA?3?$AA?5?$AAX?$AAL?$AAD?$AAR?$AA?5?$AAi?$AAm?$AAa?$AAg?$AAe@| [ DATA ] ; `string'
	EXPORT	|??_C@_1CK@NJEDFGLK@?$AAX?$AAL?$AAD?$AAR?$AA?5?$AAi?$AAm?$AAa?$AAg?$AAe?$AA?5?$AAw?$AAr?$AAi?$AAt?$AAt?$AAe?$AAn?$AA?$AN?$AA?6?$AA?$AA@| [ DATA ] ; `string'
	EXPORT	|??_C@_1KM@GAMGNNOD@?$AAE?$AAR?$AAR?$AAO?$AAR?$AA?3?$AA?5?$AAO?$AAE?$AAM?$AAW?$AAr?$AAi?$AAt?$AAe?$AAF?$AAl?$AAa?$AAs?$AAh?$AA?3?$AA?5?$AAX?$AAL?$AAD?$AAR?$AA?5?$AAi?$AAm?$AAa?$AAg?$AAe@| [ DATA ] ; `string'
	EXPORT	|??_C@_1JG@PEMOLGHN@?$AAE?$AAR?$AAR?$AAO?$AAR?$AA?3?$AA?5?$AAO?$AAE?$AAM?$AAW?$AAr?$AAi?$AAt?$AAe?$AAF?$AAl?$AAa?$AAs?$AAh?$AA?3?$AA?5?$AAX?$AAL?$AAD?$AAR?$AA?5?$AAi?$AAm?$AAa?$AAg?$AAe@| [ DATA ] ; `string'
	EXPORT	|??_C@_1GO@LKIJELAC@?$AAE?$AAR?$AAR?$AAO?$AAR?$AA?3?$AA?5?$AAO?$AAE?$AAM?$AAW?$AAr?$AAi?$AAt?$AAe?$AAF?$AAl?$AAa?$AAs?$AAh?$AA?3?$AA?5?$AAX?$AAL?$AAD?$AAR?$AA?5?$AAi?$AAm?$AAa?$AAg?$AAe@| [ DATA ] ; `string'
	EXPORT	|??_C@_1EO@MFAPGNDN@?$AA?$AN?$AA?6?$AAW?$AAr?$AAi?$AAt?$AAi?$AAn?$AAg?$AA?5?$AAX?$AAL?$AAD?$AAR?$AA?5?$AAi?$AAm?$AAa?$AAg?$AAe?$AA?5?$AAt?$AAo?$AA?5?$AAf?$AAl?$AAa?$AAs?$AAh?$AA?5?$AAm?$AAe@| [ DATA ] ; `string'
	IMPORT	|memmove|

  00000			 AREA	 |.pdata|, PDATA
|$T48480| DCD	|$LN37@WriteFlash@2|
	DCD	0x40007a02

  00000			 AREA	 |.rdata|, DATA, READONLY
|??_C@_1JC@FCHNHAAL@?$AAE?$AAR?$AAR?$AAO?$AAR?$AA?3?$AA?5?$AAO?$AAE?$AAM?$AAW?$AAr?$AAi?$AAt?$AAe?$AAF?$AAl?$AAa?$AAs?$AAh?$AA?3?$AA?5?$AAX?$AAL?$AAD?$AAR?$AA?5?$AAi?$AAm?$AAa?$AAg?$AAe@| DCB "E"
	DCB	0x0, "R", 0x0, "R", 0x0, "O", 0x0, "R", 0x0, ":", 0x0, " "
	DCB	0x0, "O", 0x0, "E", 0x0, "M", 0x0, "W", 0x0, "r", 0x0, "i"
	DCB	0x0, "t", 0x0, "e", 0x0, "F", 0x0, "l", 0x0, "a", 0x0, "s"
	DCB	0x0, "h", 0x0, ":", 0x0, " ", 0x0, "X", 0x0, "L", 0x0, "D"
	DCB	0x0, "R", 0x0, " ", 0x0, "i", 0x0, "m", 0x0, "a", 0x0, "g"
	DCB	0x0, "e", 0x0, " ", 0x0, "m", 0x0, "u", 0x0, "s", 0x0, "t"
	DCB	0x0, " ", 0x0, "h", 0x0, "a", 0x0, "v", 0x0, "e", 0x0, " "
	DCB	0x0, "o", 0x0, "n", 0x0, "l", 0x0, "y", 0x0, " ", 0x0, "o"
	DCB	0x0, "n", 0x0, "e", 0x0, " ", 0x0, "m", 0x0, "o", 0x0, "d"
	DCB	0x0, "u", 0x0, "l", 0x0, "e", 0x0, " ", 0x0, "a", 0x0, "n"
	DCB	0x0, "d", 0x0, " ", 0x0, "n", 0x0, "o", 0x0, " ", 0x0, "f"
	DCB	0x0, "i", 0x0, "l", 0x0, "e", 0x0, 0xd, 0x0, 0xa, 0x0, 0x0
	DCB	0x0					; `string'

  00000			 AREA	 |.rdata|, DATA, READONLY
|??_C@_1CK@NJEDFGLK@?$AAX?$AAL?$AAD?$AAR?$AA?5?$AAi?$AAm?$AAa?$AAg?$AAe?$AA?5?$AAw?$AAr?$AAi?$AAt?$AAt?$AAe?$AAn?$AA?$AN?$AA?6?$AA?$AA@| DCB "X"
	DCB	0x0, "L", 0x0, "D", 0x0, "R", 0x0, " ", 0x0, "i", 0x0, "m"
	DCB	0x0, "a", 0x0, "g", 0x0, "e", 0x0, " ", 0x0, "w", 0x0, "r"
	DCB	0x0, "i", 0x0, "t", 0x0, "t", 0x0, "e", 0x0, "n", 0x0, 0xd
	DCB	0x0, 0xa, 0x0, 0x0, 0x0			; `string'

  00000			 AREA	 |.rdata|, DATA, READONLY
|??_C@_1KM@GAMGNNOD@?$AAE?$AAR?$AAR?$AAO?$AAR?$AA?3?$AA?5?$AAO?$AAE?$AAM?$AAW?$AAr?$AAi?$AAt?$AAe?$AAF?$AAl?$AAa?$AAs?$AAh?$AA?3?$AA?5?$AAX?$AAL?$AAD?$AAR?$AA?5?$AAi?$AAm?$AAa?$AAg?$AAe@| DCB "E"
	DCB	0x0, "R", 0x0, "R", 0x0, "O", 0x0, "R", 0x0, ":", 0x0, " "
	DCB	0x0, "O", 0x0, "E", 0x0, "M", 0x0, "W", 0x0, "r", 0x0, "i"
	DCB	0x0, "t", 0x0, "e", 0x0, "F", 0x0, "l", 0x0, "a", 0x0, "s"
	DCB	0x0, "h", 0x0, ":", 0x0, " ", 0x0, "X", 0x0, "L", 0x0, "D"
	DCB	0x0, "R", 0x0, " ", 0x0, "i", 0x0, "m", 0x0, "a", 0x0, "g"
	DCB	0x0, "e", 0x0, " ", 0x0, "s", 0x0, "i", 0x0, "z", 0x0, "e"
	DCB	0x0, " ", 0x0, "0", 0x0, "x", 0x0, "%", 0x0, "0", 0x0, "4"
	DCB	0x0, "x", 0x0, " ", 0x0, "d", 0x0, "o", 0x0, "e", 0x0, "s"
	DCB	0x0, "n", 0x0, "'", 0x0, "t", 0x0, " ", 0x0, "f", 0x0, "i"
	DCB	0x0, "t", 0x0, " ", 0x0, "t", 0x0, "o", 0x0, " ", 0x0, "f"
	DCB	0x0, "l", 0x0, "a", 0x0, "s", 0x0, "h", 0x0, " ", 0x0, "b"
	DCB	0x0, "l", 0x0, "o", 0x0, "c", 0x0, "k", 0x0, " ", 0x0, "s"
	DCB	0x0, "i", 0x0, "z", 0x0, "e", 0x0, " ", 0x0, "0", 0x0, "x"
	DCB	0x0, "%", 0x0, "0", 0x0, "4", 0x0, "x", 0x0, 0xd, 0x0, 0xa
	DCB	0x0, 0x0, 0x0				; `string'

  00000			 AREA	 |.rdata|, DATA, READONLY
|??_C@_1JG@PEMOLGHN@?$AAE?$AAR?$AAR?$AAO?$AAR?$AA?3?$AA?5?$AAO?$AAE?$AAM?$AAW?$AAr?$AAi?$AAt?$AAe?$AAF?$AAl?$AAa?$AAs?$AAh?$AA?3?$AA?5?$AAX?$AAL?$AAD?$AAR?$AA?5?$AAi?$AAm?$AAa?$AAg?$AAe@| DCB "E"
	DCB	0x0, "R", 0x0, "R", 0x0, "O", 0x0, "R", 0x0, ":", 0x0, " "
	DCB	0x0, "O", 0x0, "E", 0x0, "M", 0x0, "W", 0x0, "r", 0x0, "i"
	DCB	0x0, "t", 0x0, "e", 0x0, "F", 0x0, "l", 0x0, "a", 0x0, "s"
	DCB	0x0, "h", 0x0, ":", 0x0, " ", 0x0, "X", 0x0, "L", 0x0, "D"
	DCB	0x0, "R", 0x0, " ", 0x0, "i", 0x0, "m", 0x0, "a", 0x0, "g"
	DCB	0x0, "e", 0x0, " ", 0x0, "s", 0x0, "i", 0x0, "z", 0x0, "e"
	DCB	0x0, " ", 0x0, "0", 0x0, "x", 0x0, "%", 0x0, "0", 0x0, "4"
	DCB	0x0, "x", 0x0, " ", 0x0, "d", 0x0, "o", 0x0, "e", 0x0, "s"
	DCB	0x0, "n", 0x0, "'", 0x0, "t", 0x0, " ", 0x0, "f", 0x0, "i"
	DCB	0x0, "t", 0x0, " ", 0x0, "t", 0x0, "o", 0x0, " ", 0x0, "l"
	DCB	0x0, "i", 0x0, "m", 0x0, "i", 0x0, "t", 0x0, " ", 0x0, "0"
	DCB	0x0, "x", 0x0, "%", 0x0, "0", 0x0, "4", 0x0, "x", 0x0, 0xd
	DCB	0x0, 0xa, 0x0, 0x0, 0x0			; `string'

  00000			 AREA	 |.rdata|, DATA, READONLY
|??_C@_1GO@LKIJELAC@?$AAE?$AAR?$AAR?$AAO?$AAR?$AA?3?$AA?5?$AAO?$AAE?$AAM?$AAW?$AAr?$AAi?$AAt?$AAe?$AAF?$AAl?$AAa?$AAs?$AAh?$AA?3?$AA?5?$AAX?$AAL?$AAD?$AAR?$AA?5?$AAi?$AAm?$AAa?$AAg?$AAe@| DCB "E"
	DCB	0x0, "R", 0x0, "R", 0x0, "O", 0x0, "R", 0x0, ":", 0x0, " "
	DCB	0x0, "O", 0x0, "E", 0x0, "M", 0x0, "W", 0x0, "r", 0x0, "i"
	DCB	0x0, "t", 0x0, "e", 0x0, "F", 0x0, "l", 0x0, "a", 0x0, "s"
	DCB	0x0, "h", 0x0, ":", 0x0, " ", 0x0, "X", 0x0, "L", 0x0, "D"
	DCB	0x0, "R", 0x0, " ", 0x0, "i", 0x0, "m", 0x0, "a", 0x0, "g"
	DCB	0x0, "e", 0x0, " ", 0x0, "s", 0x0, "i", 0x0, "g", 0x0, "n"
	DCB	0x0, "a", 0x0, "t", 0x0, "u", 0x0, "r", 0x0, "e", 0x0, " "
	DCB	0x0, "n", 0x0, "o", 0x0, "t", 0x0, " ", 0x0, "f", 0x0, "o"
	DCB	0x0, "u", 0x0, "n", 0x0, "d", 0x0, 0xd, 0x0, 0xa, 0x0, 0x0
	DCB	0x0					; `string'

  00000			 AREA	 |.rdata|, DATA, READONLY
|??_C@_1EO@MFAPGNDN@?$AA?$AN?$AA?6?$AAW?$AAr?$AAi?$AAt?$AAi?$AAn?$AAg?$AA?5?$AAX?$AAL?$AAD?$AAR?$AA?5?$AAi?$AAm?$AAa?$AAg?$AAe?$AA?5?$AAt?$AAo?$AA?5?$AAf?$AAl?$AAa?$AAs?$AAh?$AA?5?$AAm?$AAe@| DCB 0xd
	DCB	0x0, 0xa, 0x0, "W", 0x0, "r", 0x0, "i", 0x0, "t", 0x0, "i"
	DCB	0x0, "n", 0x0, "g", 0x0, " ", 0x0, "X", 0x0, "L", 0x0, "D"
	DCB	0x0, "R", 0x0, " ", 0x0, "i", 0x0, "m", 0x0, "a", 0x0, "g"
	DCB	0x0, "e", 0x0, " ", 0x0, "t", 0x0, "o", 0x0, " ", 0x0, "f"
	DCB	0x0, "l", 0x0, "a", 0x0, "s", 0x0, "h", 0x0, " ", 0x0, "m"
	DCB	0x0, "e", 0x0, "m", 0x0, "o", 0x0, "r", 0x0, "y", 0x0, 0xd
	DCB	0x0, 0xa, 0x0, 0x0, 0x0			; `string'
; Function compile flags: /Ogspy

  00000			 AREA	 |.text|, CODE, ARM

  00000		 |WriteFlashXLDR| PROC

; 430  : {

  00000		 |$LN37@WriteFlash@2|
  00000	e92d4ff0	 stmdb       sp!, {r4 - r11, lr}
  00004	e24dd00c	 sub         sp, sp, #0xC
  00008		 |$M48477|
  00008	e1a09001	 mov         r9, r1
  0000c	e1a05000	 mov         r5, r0

; 431  :     BOOL rc = FALSE;
; 432  :     HANDLE hFlash = NULL;
; 433  :     ROMHDR *pTOC;
; 434  :     UINT32 offset, xldrSize, blocknum, blocksize;
; 435  :     UINT8 *pData;
; 436  : 
; 437  : 	UNREFERENCED_PARAMETER(size);
; 438  : 
; 439  :     OALMSG(OAL_INFO, (L"\r\nWriting XLDR image to flash memory\r\n"));

  00010	e59f41cc	 ldr         r4, [pc, #0x1CC]
  00014	e3a06000	 mov         r6, #0
  00018	e5943440	 ldr         r3, [r4, #0x440]
  0001c	e3130008	 tst         r3, #8
  00020	159f01b8	 ldrne       r0, [pc, #0x1B8]
  00024	1b000000	 blne        NKDbgPrintfW

; 440  : 
; 441  :     // Open flash storage
; 442  :     hFlash = OALFlashStoreOpen(g_ulFlashBase);

  00028	e59f31ac	 ldr         r3, [pc, #0x1AC]
  0002c	e5930000	 ldr         r0, [r3]
  00030	eb000000	 bl          OALFlashStoreOpen
  00034	e1b08000	 movs        r8, r0

; 443  :     if (hFlash == NULL)

  00038	1a000005	 bne         |$LN11@WriteFlash@2|

; 444  :         {
; 445  :         OALMSG(OAL_ERROR, (L"ERROR: OEMWriteFlash: "
; 446  :             L"OALFlashStoreOpen call failed!\r\n"
; 447  :             ));

  0003c	e5943440	 ldr         r3, [r4, #0x440]
  00040	e3130001	 tst         r3, #1
  00044	0a000059	 beq         |$LN1@WriteFlash@2|
  00048	e59f0188	 ldr         r0, [pc, #0x188]
  0004c	eb000000	 bl          NKDbgPrintfW

; 448  :         goto cleanUp;

  00050	ea000056	 b           |$LN1@WriteFlash@2|
  00054		 |$LN11@WriteFlash@2|

; 449  :         }
; 450  : 
; 451  :     // Get data location
; 452  :     pData = OEMMapMemAddr(address, address);

  00054	e1a01005	 mov         r1, r5
  00058	e1a00005	 mov         r0, r5
  0005c	eb000000	 bl          OEMMapMemAddr

; 453  : 
; 454  :     // Verify image
; 455  :     if (!VerifyImage(pData, &pTOC))

  00060	e28d1008	 add         r1, sp, #8
  00064	e1a0b000	 mov         r11, r0
  00068	eb000000	 bl          VerifyImage

; 456  :         {
; 457  :         OALMSG(OAL_ERROR, (L"ERROR: OEMWriteFlash: "
; 458  :             L"XLDR image signature not found\r\n"
; 459  :             ));

  0006c	e5942440	 ldr         r2, [r4, #0x440]
  00070	e3500000	 cmp         r0, #0
  00074	1a000004	 bne         |$LN18@WriteFlash@2|
  00078	e3120001	 tst         r2, #1
  0007c	0a000002	 beq         |$LN18@WriteFlash@2|
  00080	e59f014c	 ldr         r0, [pc, #0x14C]
  00084	eb000000	 bl          NKDbgPrintfW
  00088	e5942440	 ldr         r2, [r4, #0x440]
  0008c		 |$LN18@WriteFlash@2|

; 460  :         }
; 461  : 
; 462  :     // Verify that this is XLDR image
; 463  :     if (pTOC->numfiles > 0 || pTOC->nummods > 1)

  0008c	e59d0008	 ldr         r0, [sp, #8]
  00090	e5903030	 ldr         r3, [r0, #0x30]
  00094	e3530000	 cmp         r3, #0
  00098	8a00003f	 bhi         |$LN8@WriteFlash@2|
  0009c	e5903010	 ldr         r3, [r0, #0x10]
  000a0	e3530001	 cmp         r3, #1
  000a4	8a00003c	 bhi         |$LN8@WriteFlash@2|

; 468  :         goto cleanUp;
; 469  :         }
; 470  : 
; 471  :     // Check for maximal XLRD size
; 472  :     xldrSize = pTOC->physlast - pTOC->physfirst;

  000a8	e590100c	 ldr         r1, [r0, #0xC]
  000ac	e5903008	 ldr         r3, [r0, #8]

; 473  :     if (xldrSize > (IMAGE_XLDR_CODE_SIZE - 2*sizeof(DWORD)) )

  000b0	e3a00cbf	 mov         r0, #0xBF, 24
  000b4	e38070f8	 orr         r7, r0, #0xF8
  000b8	e041a003	 sub         r10, r1, r3
  000bc	e15a0007	 cmp         r10, r7
  000c0	9a000006	 bls         |$LN7@WriteFlash@2|

; 474  :         {
; 475  :         OALMSG(OAL_ERROR, (L"ERROR: OEMWriteFlash: "
; 476  :             L"XLDR image size 0x%04x doesn't fit to limit 0x%04x\r\n", size, IMAGE_XLDR_CODE_SIZE - 2*sizeof(DWORD)
; 477  :             ));

  000c4	e3120001	 tst         r2, #1
  000c8	0a000036	 beq         |$cleanUp$47837|
  000cc	e59f00fc	 ldr         r0, [pc, #0xFC]
  000d0	e1a02007	 mov         r2, r7
  000d4	e1a01009	 mov         r1, r9
  000d8	eb000000	 bl          NKDbgPrintfW

; 478  :         goto cleanUp;

  000dc	ea000031	 b           |$cleanUp$47837|
  000e0		 |$LN7@WriteFlash@2|

; 479  :         }
; 480  :         
; 481  :     blocksize = OALFlashStoreBlockSize(hFlash);

  000e0	e1a00008	 mov         r0, r8
  000e4	eb000000	 bl          OALFlashStoreBlockSize
  000e8	e1a05000	 mov         r5, r0

; 482  :     
; 483  :     if (blocksize < IMAGE_XLDR_CODE_SIZE)

  000ec	e3550903	 cmp         r5, #3, 18
  000f0	2a000007	 bcs         |$LN6@WriteFlash@2|

; 484  :         {
; 485  :         OALMSG(OAL_ERROR, (L"ERROR: OEMWriteFlash: "
; 486  :             L"XLDR image size 0x%04x doesn't fit to flash block size 0x%04x\r\n", IMAGE_XLDR_CODE_SIZE, blocksize
; 487  :             ));

  000f4	e5943440	 ldr         r3, [r4, #0x440]
  000f8	e3130001	 tst         r3, #1
  000fc	0a000029	 beq         |$cleanUp$47837|
  00100	e59f00c4	 ldr         r0, [pc, #0xC4]
  00104	e1a02005	 mov         r2, r5
  00108	e3a01903	 mov         r1, #3, 18
  0010c	eb000000	 bl          NKDbgPrintfW
  00110	ea000024	 b           |$cleanUp$47837|
  00114		 |$LN6@WriteFlash@2|

; 488  :         goto cleanUp;
; 489  :         }
; 490  : 
; 491  :     // First we have to offset image by 2 DWORDS to insert BootROM header 
; 492  :     memmove(pData + 2*sizeof(DWORD), pData, xldrSize);

  00114	e1a0200a	 mov         r2, r10
  00118	e1a0100b	 mov         r1, r11
  0011c	e28b0008	 add         r0, r11, #8
  00120	eb000000	 bl          memmove
  00124	e3a03101	 mov         r3, #1, 2

; 493  :     
; 494  :     // Insert BootROM header
; 495  :     ((DWORD*)pData)[0] = IMAGE_XLDR_CODE_SIZE - 2*sizeof(DWORD);    // Max size of image
; 496  :     ((DWORD*)pData)[1] = IMAGE_XLDR_CODE_PA;                        // Load address

  00128	e3833602	 orr         r3, r3, #2, 12
  0012c	e58b7000	 str         r7, [r11]
  00130	e58b3004	 str         r3, [r11, #4]

; 497  : 
; 498  :     // Now copy into first four blocks per boot ROM requirement.
; 499  :     // Internal boot ROM expects the loader to be duplicated in the first 4 blocks for
; 500  :     // data redundancy. Note that block size of memory used on this platform is larger 
; 501  :     // than xldr size so there will be a gap in each block.
; 502  :     offset = 0;

  00134	e3a06000	 mov         r6, #0
  00138	e3a07004	 mov         r7, #4
  0013c	e3a09000	 mov         r9, #0
  00140		 |$LL5@WriteFlash@2|

; 503  :     for (blocknum = 0; blocknum < 4; blocknum++)
; 504  :         {
; 505  :         if (!OALFlashStoreWrite(
; 506  :                 hFlash, offset, pData, IMAGE_XLDR_CODE_SIZE, FALSE, FALSE
; 507  :                 ))

  00140	e3a03903	 mov         r3, #3, 18
  00144	e1a0200b	 mov         r2, r11
  00148	e1a01006	 mov         r1, r6
  0014c	e1a00008	 mov         r0, r8
  00150	e58d9004	 str         r9, [sp, #4]
  00154	e58d9000	 str         r9, [sp]
  00158	eb000000	 bl          OALFlashStoreWrite
  0015c	e3500000	 cmp         r0, #0
  00160	1a000004	 bne         |$LN33@WriteFlash@2|

; 508  :             {
; 509  :             OALMSG(OAL_ERROR, (L"ERROR: OEMWriteFlash: "
; 510  :                 L"OALFlashStoreWrite at relative address 0x%08x failed\r\n",
; 511  :                 offset
; 512  :                 ));

  00164	e5943440	 ldr         r3, [r4, #0x440]
  00168	e3130001	 tst         r3, #1
  0016c	159f0054	 ldrne       r0, [pc, #0x54]
  00170	11a01006	 movne       r1, r6
  00174	1b000000	 blne        NKDbgPrintfW
  00178		 |$LN33@WriteFlash@2|

; 513  :             }
; 514  :         offset += blocksize;

  00178	e0866005	 add         r6, r6, r5
  0017c	e2577001	 subs        r7, r7, #1
  00180	1affffee	 bne         |$LL5@WriteFlash@2|
  00184	e5943440	 ldr         r3, [r4, #0x440]

; 515  :         }
; 516  : 
; 517  :     OALMSG(OAL_INFO, (L"XLDR image written\r\n"));

  00188	e3130008	 tst         r3, #8
  0018c	159f0030	 ldrne       r0, [pc, #0x30]
  00190	1b000000	 blne        NKDbgPrintfW

; 518  : 
; 519  :     // Done
; 520  :     rc = TRUE;

  00194	e3a06001	 mov         r6, #1
  00198	ea000002	 b           |$cleanUp$47837|
  0019c		 |$LN8@WriteFlash@2|

; 464  :         {
; 465  :         OALMSG(OAL_ERROR, (L"ERROR: OEMWriteFlash: "
; 466  :             L"XLDR image must have only one module and no file\r\n"
; 467  :             ));

  0019c	e3120001	 tst         r2, #1
  001a0	159f0018	 ldrne       r0, [pc, #0x18]
  001a4	1b000000	 blne        NKDbgPrintfW
  001a8		 |$cleanUp$47837|

; 521  : 
; 522  : cleanUp:
; 523  :     if (hFlash != NULL) OALFlashStoreClose(hFlash);

  001a8	e1a00008	 mov         r0, r8
  001ac	eb000000	 bl          OALFlashStoreClose
  001b0		 |$LN1@WriteFlash@2|

; 524  :     return rc;
; 525  : }

  001b0	e1a00006	 mov         r0, r6
  001b4	e28dd00c	 add         sp, sp, #0xC
  001b8	e8bd4ff0	 ldmia       sp!, {r4 - r11, lr}
  001bc	e12fff1e	 bx          lr
  001c0		 |$LN38@WriteFlash@2|
  001c0		 |$LN39@WriteFlash@2|
  001c0	00000000	 DCD         |??_C@_1JC@FCHNHAAL@?$AAE?$AAR?$AAR?$AAO?$AAR?$AA?3?$AA?5?$AAO?$AAE?$AAM?$AAW?$AAr?$AAi?$AAt?$AAe?$AAF?$AAl?$AAa?$AAs?$AAh?$AA?3?$AA?5?$AAX?$AAL?$AAD?$AAR?$AA?5?$AAi?$AAm?$AAa?$AAg?$AAe@|
  001c4		 |$LN40@WriteFlash@2|
  001c4	00000000	 DCD         |??_C@_1CK@NJEDFGLK@?$AAX?$AAL?$AAD?$AAR?$AA?5?$AAi?$AAm?$AAa?$AAg?$AAe?$AA?5?$AAw?$AAr?$AAi?$AAt?$AAt?$AAe?$AAn?$AA?$AN?$AA?6?$AA?$AA@|
  001c8		 |$LN41@WriteFlash@2|
  001c8	00000000	 DCD         |??_C@_1JK@INEHPIOE@?$AAE?$AAR?$AAR?$AAO?$AAR?$AA?3?$AA?5?$AAO?$AAE?$AAM?$AAW?$AAr?$AAi?$AAt?$AAe?$AAF?$AAl?$AAa?$AAs?$AAh?$AA?3?$AA?5?$AAO?$AAA?$AAL?$AAF?$AAl?$AAa?$AAs?$AAh?$AAS?$AAt@|
  001cc		 |$LN42@WriteFlash@2|
  001cc	00000000	 DCD         |??_C@_1KM@GAMGNNOD@?$AAE?$AAR?$AAR?$AAO?$AAR?$AA?3?$AA?5?$AAO?$AAE?$AAM?$AAW?$AAr?$AAi?$AAt?$AAe?$AAF?$AAl?$AAa?$AAs?$AAh?$AA?3?$AA?5?$AAX?$AAL?$AAD?$AAR?$AA?5?$AAi?$AAm?$AAa?$AAg?$AAe@|
  001d0		 |$LN43@WriteFlash@2|
  001d0	00000000	 DCD         |??_C@_1JG@PEMOLGHN@?$AAE?$AAR?$AAR?$AAO?$AAR?$AA?3?$AA?5?$AAO?$AAE?$AAM?$AAW?$AAr?$AAi?$AAt?$AAe?$AAF?$AAl?$AAa?$AAs?$AAh?$AA?3?$AA?5?$AAX?$AAL?$AAD?$AAR?$AA?5?$AAi?$AAm?$AAa?$AAg?$AAe@|
  001d4		 |$LN44@WriteFlash@2|
  001d4	00000000	 DCD         |??_C@_1GO@LKIJELAC@?$AAE?$AAR?$AAR?$AAO?$AAR?$AA?3?$AA?5?$AAO?$AAE?$AAM?$AAW?$AAr?$AAi?$AAt?$AAe?$AAF?$AAl?$AAa?$AAs?$AAh?$AA?3?$AA?5?$AAX?$AAL?$AAD?$AAR?$AA?5?$AAi?$AAm?$AAa?$AAg?$AAe@|
  001d8		 |$LN45@WriteFlash@2|
  001d8	00000000	 DCD         |??_C@_1GO@DLIAFJMC@?$AAE?$AAR?$AAR?$AAO?$AAR?$AA?3?$AA?5?$AAO?$AAE?$AAM?$AAW?$AAr?$AAi?$AAt?$AAe?$AAF?$AAl?$AAa?$AAs?$AAh?$AA?3?$AA?5?$AAO?$AAA?$AAL?$AAF?$AAl?$AAa?$AAs?$AAh?$AAS?$AAt@|
  001dc		 |$LN46@WriteFlash@2|
  001dc	00000000	 DCD         |g_ulFlashBase|
  001e0		 |$LN47@WriteFlash@2|
  001e0	00000000	 DCD         |??_C@_1EO@MFAPGNDN@?$AA?$AN?$AA?6?$AAW?$AAr?$AAi?$AAt?$AAi?$AAn?$AAg?$AA?5?$AAX?$AAL?$AAD?$AAR?$AA?5?$AAi?$AAm?$AAa?$AAg?$AAe?$AA?5?$AAt?$AAo?$AA?5?$AAf?$AAl?$AAa?$AAs?$AAh?$AA?5?$AAm?$AAe@|
  001e4		 |$LN48@WriteFlash@2|
  001e4	00000000	 DCD         |dpCurSettings|
  001e8		 |$M48478|

			 ENDP  ; |WriteFlashXLDR|

	EXPORT	|??_C@_1CM@CMHKBBHI@?$AAE?$AAB?$AAO?$AAO?$AAT?$AA?5?$AAi?$AAm?$AAa?$AAg?$AAe?$AA?5?$AAw?$AAr?$AAi?$AAt?$AAt?$AAe?$AAn?$AA?$AN?$AA?6?$AA?$AA@| [ DATA ] ; `string'
	EXPORT	|??_C@_1HA@OPDOICMP@?$AAE?$AAR?$AAR?$AAO?$AAR?$AA?3?$AA?5?$AAO?$AAE?$AAM?$AAW?$AAr?$AAi?$AAt?$AAe?$AAF?$AAl?$AAa?$AAs?$AAh?$AA?3?$AA?5?$AAE?$AAB?$AAO?$AAO?$AAT?$AA?5?$AAi?$AAm?$AAa?$AAg@| [ DATA ] ; `string'
	EXPORT	|??_C@_1JO@HOPMBDBI@?$AAE?$AAR?$AAR?$AAO?$AAR?$AA?3?$AA?5?$AAO?$AAE?$AAM?$AAW?$AAr?$AAi?$AAt?$AAe?$AAF?$AAl?$AAa?$AAs?$AAh?$AA?3?$AA?5?$AAE?$AAB?$AAO?$AAO?$AAT?$AA?5?$AAi?$AAm?$AAa?$AAg@| [ DATA ] ; `string'
	EXPORT	|??_C@_1FA@LGNLEKHJ@?$AA?$AN?$AA?6?$AAW?$AAr?$AAi?$AAt?$AAi?$AAn?$AAg?$AA?5?$AAE?$AAB?$AAO?$AAO?$AAT?$AA?5?$AAi?$AAm?$AAa?$AAg?$AAe?$AA?5?$AAt?$AAo?$AA?5?$AAf?$AAl?$AAa?$AAs?$AAh?$AA?5?$AAm@| [ DATA ] ; `string'

  00000			 AREA	 |.pdata|, PDATA
|$T48528| DCD	|$LN28@WriteFlash@3|
	DCD	0x40005f02

  00000			 AREA	 |.rdata|, DATA, READONLY
|??_C@_1CM@CMHKBBHI@?$AAE?$AAB?$AAO?$AAO?$AAT?$AA?5?$AAi?$AAm?$AAa?$AAg?$AAe?$AA?5?$AAw?$AAr?$AAi?$AAt?$AAt?$AAe?$AAn?$AA?$AN?$AA?6?$AA?$AA@| DCB "E"
	DCB	0x0, "B", 0x0, "O", 0x0, "O", 0x0, "T", 0x0, " ", 0x0, "i"
	DCB	0x0, "m", 0x0, "a", 0x0, "g", 0x0, "e", 0x0, " ", 0x0, "w"
	DCB	0x0, "r", 0x0, "i", 0x0, "t", 0x0, "t", 0x0, "e", 0x0, "n"
	DCB	0x0, 0xd, 0x0, 0xa, 0x0, 0x0, 0x0	; `string'

  00000			 AREA	 |.rdata|, DATA, READONLY
|??_C@_1HA@OPDOICMP@?$AAE?$AAR?$AAR?$AAO?$AAR?$AA?3?$AA?5?$AAO?$AAE?$AAM?$AAW?$AAr?$AAi?$AAt?$AAe?$AAF?$AAl?$AAa?$AAs?$AAh?$AA?3?$AA?5?$AAE?$AAB?$AAO?$AAO?$AAT?$AA?5?$AAi?$AAm?$AAa?$AAg@| DCB "E"
	DCB	0x0, "R", 0x0, "R", 0x0, "O", 0x0, "R", 0x0, ":", 0x0, " "
	DCB	0x0, "O", 0x0, "E", 0x0, "M", 0x0, "W", 0x0, "r", 0x0, "i"
	DCB	0x0, "t", 0x0, "e", 0x0, "F", 0x0, "l", 0x0, "a", 0x0, "s"
	DCB	0x0, "h", 0x0, ":", 0x0, " ", 0x0, "E", 0x0, "B", 0x0, "O"
	DCB	0x0, "O", 0x0, "T", 0x0, " ", 0x0, "i", 0x0, "m", 0x0, "a"
	DCB	0x0, "g", 0x0, "e", 0x0, " ", 0x0, "s", 0x0, "i", 0x0, "g"
	DCB	0x0, "n", 0x0, "a", 0x0, "t", 0x0, "u", 0x0, "r", 0x0, "e"
	DCB	0x0, " ", 0x0, "n", 0x0, "o", 0x0, "t", 0x0, " ", 0x0, "f"
	DCB	0x0, "o", 0x0, "u", 0x0, "n", 0x0, "d", 0x0, 0xd, 0x0, 0xa
	DCB	0x0, 0x0, 0x0				; `string'

  00000			 AREA	 |.rdata|, DATA, READONLY
|??_C@_1JO@HOPMBDBI@?$AAE?$AAR?$AAR?$AAO?$AAR?$AA?3?$AA?5?$AAO?$AAE?$AAM?$AAW?$AAr?$AAi?$AAt?$AAe?$AAF?$AAl?$AAa?$AAs?$AAh?$AA?3?$AA?5?$AAE?$AAB?$AAO?$AAO?$AAT?$AA?5?$AAi?$AAm?$AAa?$AAg@| DCB "E"
	DCB	0x0, "R", 0x0, "R", 0x0, "O", 0x0, "R", 0x0, ":", 0x0, " "
	DCB	0x0, "O", 0x0, "E", 0x0, "M", 0x0, "W", 0x0, "r", 0x0, "i"
	DCB	0x0, "t", 0x0, "e", 0x0, "F", 0x0, "l", 0x0, "a", 0x0, "s"
	DCB	0x0, "h", 0x0, ":", 0x0, " ", 0x0, "E", 0x0, "B", 0x0, "O"
	DCB	0x0, "O", 0x0, "T", 0x0, " ", 0x0, "i", 0x0, "m", 0x0, "a"
	DCB	0x0, "g", 0x0, "e", 0x0, " ", 0x0, "t", 0x0, "o", 0x0, "o"
	DCB	0x0, " ", 0x0, "b", 0x0, "i", 0x0, "g", 0x0, " ", 0x0, "("
	DCB	0x0, "s", 0x0, "i", 0x0, "z", 0x0, "e", 0x0, " ", 0x0, "0"
	DCB	0x0, "x", 0x0, "%", 0x0, "0", 0x0, "8", 0x0, "x", 0x0, ","
	DCB	0x0, " ", 0x0, "m", 0x0, "a", 0x0, "x", 0x0, "i", 0x0, "m"
	DCB	0x0, "u", 0x0, "m", 0x0, " ", 0x0, "s", 0x0, "i", 0x0, "z"
	DCB	0x0, "e", 0x0, " ", 0x0, "0", 0x0, "x", 0x0, "%", 0x0, "0"
	DCB	0x0, "8", 0x0, "x", 0x0, ")", 0x0, 0xd, 0x0, 0xa, 0x0, 0x0
	DCB	0x0					; `string'

  00000			 AREA	 |.rdata|, DATA, READONLY
|??_C@_1FA@LGNLEKHJ@?$AA?$AN?$AA?6?$AAW?$AAr?$AAi?$AAt?$AAi?$AAn?$AAg?$AA?5?$AAE?$AAB?$AAO?$AAO?$AAT?$AA?5?$AAi?$AAm?$AAa?$AAg?$AAe?$AA?5?$AAt?$AAo?$AA?5?$AAf?$AAl?$AAa?$AAs?$AAh?$AA?5?$AAm@| DCB 0xd
	DCB	0x0, 0xa, 0x0, "W", 0x0, "r", 0x0, "i", 0x0, "t", 0x0, "i"
	DCB	0x0, "n", 0x0, "g", 0x0, " ", 0x0, "E", 0x0, "B", 0x0, "O"
	DCB	0x0, "O", 0x0, "T", 0x0, " ", 0x0, "i", 0x0, "m", 0x0, "a"
	DCB	0x0, "g", 0x0, "e", 0x0, " ", 0x0, "t", 0x0, "o", 0x0, " "
	DCB	0x0, "f", 0x0, "l", 0x0, "a", 0x0, "s", 0x0, "h", 0x0, " "
	DCB	0x0, "m", 0x0, "e", 0x0, "m", 0x0, "o", 0x0, "r", 0x0, "y"
	DCB	0x0, 0xd, 0x0, 0xa, 0x0, 0x0, 0x0	; `string'
; Function compile flags: /Ogspy

  00000			 AREA	 |.text|, CODE, ARM

  00000		 |WriteFlashEBOOT| PROC

; 534  : {

  00000		 |$LN28@WriteFlash@3|
  00000	e92d41f0	 stmdb       sp!, {r4 - r8, lr}
  00004	e24dd008	 sub         sp, sp, #8
  00008		 |$M48525|
  00008	e1a05001	 mov         r5, r1
  0000c	e1a08000	 mov         r8, r0

; 535  :     BOOL rc = FALSE;
; 536  :     HANDLE hFlash = NULL;
; 537  :     UINT8 *pData;
; 538  :     UINT32 offset;
; 539  : 
; 540  : 
; 541  :     OALMSG(OAL_INFO, (L"\r\nWriting EBOOT image to flash memory\r\n"));

  00010	e59f4160	 ldr         r4, [pc, #0x160]
  00014	e3a07000	 mov         r7, #0
  00018	e5943440	 ldr         r3, [r4, #0x440]
  0001c	e3130008	 tst         r3, #8
  00020	159f014c	 ldrne       r0, [pc, #0x14C]
  00024	1b000000	 blne        NKDbgPrintfW

; 542  : 
; 543  :     // Open flash storage
; 544  :     hFlash = OALFlashStoreOpen(g_ulFlashBase);

  00028	e59f3140	 ldr         r3, [pc, #0x140]
  0002c	e5930000	 ldr         r0, [r3]
  00030	eb000000	 bl          OALFlashStoreOpen
  00034	e1b06000	 movs        r6, r0

; 545  :     if (hFlash == NULL)

  00038	1a000005	 bne         |$LN6@WriteFlash@3|

; 546  :         {
; 547  :         OALMSG(OAL_ERROR, (L"ERROR: OEMWriteFlash: "
; 548  :             L"OALFlashStoreOpen call failed!\r\n"
; 549  :             ));

  0003c	e5943440	 ldr         r3, [r4, #0x440]
  00040	e3130001	 tst         r3, #1
  00044	0a00003f	 beq         |$LN1@WriteFlash@3|
  00048	e59f011c	 ldr         r0, [pc, #0x11C]
  0004c	eb000000	 bl          NKDbgPrintfW

; 550  :         goto cleanUp;

  00050	ea00003c	 b           |$LN1@WriteFlash@3|
  00054		 |$LN6@WriteFlash@3|

; 551  :         }
; 552  : 
; 553  :     // Check if image fit (last sector used for configuration)
; 554  :     if (size > (IMAGE_EBOOT_CODE_SIZE - OALFlashStoreSectorSize(hFlash)))

  00054	e1a00006	 mov         r0, r6
  00058	eb000000	 bl          OALFlashStoreSectorSize
  0005c	e2603701	 rsb         r3, r0, #1, 14
  00060	e1550003	 cmp         r5, r3
  00064	9a00000a	 bls         |$LN5@WriteFlash@3|

; 555  :         {
; 556  :         OALMSG(OAL_ERROR, (L"ERROR: OEMWriteFlash: "
; 557  :             L"EBOOT image too big (size 0x%08x, maximum size 0x%08x)\r\n",
; 558  :             size, IMAGE_EBOOT_CODE_SIZE - OALFlashStoreBlockSize(hFlash)
; 559  :             ));

  00068	e5943440	 ldr         r3, [r4, #0x440]
  0006c	e3130001	 tst         r3, #1
  00070	0a000032	 beq         |$cleanUp$47882|
  00074	e1a00006	 mov         r0, r6
  00078	eb000000	 bl          OALFlashStoreBlockSize
  0007c	e1a03000	 mov         r3, r0
  00080	e59f00e0	 ldr         r0, [pc, #0xE0]
  00084	e2632701	 rsb         r2, r3, #1, 14
  00088	e1a01005	 mov         r1, r5
  0008c	eb000000	 bl          NKDbgPrintfW

; 560  :         goto cleanUp;

  00090	ea00002a	 b           |$cleanUp$47882|
  00094		 |$LN5@WriteFlash@3|

; 561  :         }
; 562  : 
; 563  :     // Get data location
; 564  :     pData = OEMMapMemAddr(address, address);

  00094	e1a01008	 mov         r1, r8
  00098	e1a00008	 mov         r0, r8
  0009c	eb000000	 bl          OEMMapMemAddr
  000a0	e1a08000	 mov         r8, r0

; 565  : 
; 566  :     // Verify that we get CE image
; 567  :     if (!VerifyImage(pData, NULL))

  000a4	e1a01008	 mov         r1, r8
  000a8	e5b12040	 ldr         r2, [r1, #0x40]!
  000ac	e59f30b0	 ldr         r3, [pc, #0xB0]
  000b0	e1520003	 cmp         r2, r3
  000b4	1a00001d	 bne         |$LN25@WriteFlash@3|
  000b8	e5913008	 ldr         r3, [r1, #8]
  000bc	e0830008	 add         r0, r3, r8
  000c0	eb000000	 bl          DumpTOC

; 572  :         goto cleanUp;
; 573  :         }
; 574  : 
; 575  :     // Fill unused space with 0xFF
; 576  :     if (size < IMAGE_EBOOT_CODE_SIZE)

  000c4	e3550701	 cmp         r5, #1, 14

; 577  :         {
; 578  :         memset(pData + size, 0xFF, IMAGE_EBOOT_CODE_SIZE - size);

  000c8	32652701	 rsbcc       r2, r5, #1, 14
  000cc	33a010ff	 movcc       r1, #0xFF
  000d0	30880005	 addcc       r0, r8, r5
  000d4		 |$cleanUp$48514|
  000d4	3b000000	 blcc        memset

; 579  :         }
; 580  : 
; 581  :     offset = IMAGE_XLDR_BOOTSEC_NAND_SIZE;
; 582  :     if (!OALFlashStoreWrite(
; 583  :             hFlash, offset, pData, IMAGE_EBOOT_CODE_SIZE, FALSE, FALSE
; 584  :             ))

  000d8	e3a0e000	 mov         lr, #0
  000dc	e3a03701	 mov         r3, #1, 14
  000e0	e1a02008	 mov         r2, r8
  000e4	e3a01702	 mov         r1, #2, 14
  000e8	e1a00006	 mov         r0, r6
  000ec	e58de004	 str         lr, [sp, #4]
  000f0	e58de000	 str         lr, [sp]
  000f4	eb000000	 bl          OALFlashStoreWrite

; 585  :         {
; 586  :         OALMSG(OAL_ERROR, (L"ERROR: OEMWriteFlash: "
; 587  :             L"OALFlashStoreWrite at relative address 0x%08x failed\r\n", offset
; 588  :             ));

  000f8	e5943440	 ldr         r3, [r4, #0x440]
  000fc	e3500000	 cmp         r0, #0
  00100	1a000005	 bne         |$LN2@WriteFlash@3|
  00104	e3130001	 tst         r3, #1
  00108	0a00000c	 beq         |$cleanUp$47882|
  0010c	e59f004c	 ldr         r0, [pc, #0x4C]
  00110	e3a01702	 mov         r1, #2, 14
  00114	eb000000	 bl          NKDbgPrintfW

; 589  :         goto cleanUp;

  00118	ea000008	 b           |$cleanUp$47882|
  0011c		 |$LN2@WriteFlash@3|

; 590  :         }
; 591  : 
; 592  :     OALMSG(OAL_INFO, (L"EBOOT image written\r\n"));

  0011c	e3130008	 tst         r3, #8
  00120	159f0034	 ldrne       r0, [pc, #0x34]
  00124	1b000000	 blne        NKDbgPrintfW

; 593  : 
; 594  :     // Done
; 595  :     rc = TRUE;

  00128	e3a07001	 mov         r7, #1
  0012c	ea000003	 b           |$cleanUp$47882|
  00130		 |$LN25@WriteFlash@3|

; 568  :         {
; 569  :         OALMSG(OAL_ERROR, (L"ERROR: OEMWriteFlash: "
; 570  :             L"EBOOT image signature not found\r\n"
; 571  :             ));

  00130	e5943440	 ldr         r3, [r4, #0x440]
  00134	e3130001	 tst         r3, #1
  00138	159f0018	 ldrne       r0, [pc, #0x18]
  0013c	1b000000	 blne        NKDbgPrintfW
  00140		 |$cleanUp$47882|

; 596  : 
; 597  : cleanUp:
; 598  :     if (hFlash != NULL) OALFlashStoreClose(hFlash);

  00140	e1a00006	 mov         r0, r6
  00144	eb000000	 bl          OALFlashStoreClose
  00148		 |$LN1@WriteFlash@3|

; 599  :     return rc;
; 600  : }

  00148	e1a00007	 mov         r0, r7
  0014c	e28dd008	 add         sp, sp, #8
  00150	e8bd41f0	 ldmia       sp!, {r4 - r8, lr}
  00154	e12fff1e	 bx          lr
  00158		 |$LN29@WriteFlash@3|
  00158		 |$LN30@WriteFlash@3|
  00158	00000000	 DCD         |??_C@_1HA@OPDOICMP@?$AAE?$AAR?$AAR?$AAO?$AAR?$AA?3?$AA?5?$AAO?$AAE?$AAM?$AAW?$AAr?$AAi?$AAt?$AAe?$AAF?$AAl?$AAa?$AAs?$AAh?$AA?3?$AA?5?$AAE?$AAB?$AAO?$AAO?$AAT?$AA?5?$AAi?$AAm?$AAa?$AAg@|
  0015c		 |$LN31@WriteFlash@3|
  0015c	00000000	 DCD         |??_C@_1CM@CMHKBBHI@?$AAE?$AAB?$AAO?$AAO?$AAT?$AA?5?$AAi?$AAm?$AAa?$AAg?$AAe?$AA?5?$AAw?$AAr?$AAi?$AAt?$AAt?$AAe?$AAn?$AA?$AN?$AA?6?$AA?$AA@|
  00160		 |$LN32@WriteFlash@3|
  00160	00000000	 DCD         |??_C@_1JK@INEHPIOE@?$AAE?$AAR?$AAR?$AAO?$AAR?$AA?3?$AA?5?$AAO?$AAE?$AAM?$AAW?$AAr?$AAi?$AAt?$AAe?$AAF?$AAl?$AAa?$AAs?$AAh?$AA?3?$AA?5?$AAO?$AAA?$AAL?$AAF?$AAl?$AAa?$AAs?$AAh?$AAS?$AAt@|
  00164		 |$LN33@WriteFlash@3|
  00164	43454345	 DCD         0x43454345
  00168		 |$LN34@WriteFlash@3|
  00168	00000000	 DCD         |??_C@_1JO@HOPMBDBI@?$AAE?$AAR?$AAR?$AAO?$AAR?$AA?3?$AA?5?$AAO?$AAE?$AAM?$AAW?$AAr?$AAi?$AAt?$AAe?$AAF?$AAl?$AAa?$AAs?$AAh?$AA?3?$AA?5?$AAE?$AAB?$AAO?$AAO?$AAT?$AA?5?$AAi?$AAm?$AAa?$AAg@|
  0016c		 |$LN35@WriteFlash@3|
  0016c	00000000	 DCD         |??_C@_1GO@DLIAFJMC@?$AAE?$AAR?$AAR?$AAO?$AAR?$AA?3?$AA?5?$AAO?$AAE?$AAM?$AAW?$AAr?$AAi?$AAt?$AAe?$AAF?$AAl?$AAa?$AAs?$AAh?$AA?3?$AA?5?$AAO?$AAA?$AAL?$AAF?$AAl?$AAa?$AAs?$AAh?$AAS?$AAt@|
  00170		 |$LN36@WriteFlash@3|
  00170	00000000	 DCD         |g_ulFlashBase|
  00174		 |$LN37@WriteFlash@3|
  00174	00000000	 DCD         |??_C@_1FA@LGNLEKHJ@?$AA?$AN?$AA?6?$AAW?$AAr?$AAi?$AAt?$AAi?$AAn?$AAg?$AA?5?$AAE?$AAB?$AAO?$AAO?$AAT?$AA?5?$AAi?$AAm?$AAa?$AAg?$AAe?$AA?5?$AAt?$AAo?$AA?5?$AAf?$AAl?$AAa?$AAs?$AAh?$AA?5?$AAm@|
  00178		 |$LN38@WriteFlash@3|
  00178	00000000	 DCD         |dpCurSettings|
  0017c		 |$M48526|

			 ENDP  ; |WriteFlashEBOOT|

	EXPORT	|__$ArrayPad$| [ DATA ]
	EXPORT	|WriteFlashNK|
	EXPORT	|??_C@_1FC@DLJHBOIG@?$AAE?$AAR?$AAR?$AAO?$AAR?$AA?3?$AA?5?$AAF?$AAa?$AAi?$AAl?$AAe?$AAd?$AA?5?$AAw?$AAr?$AAi?$AAt?$AAi?$AAn?$AAg?$AA?5?$AAt?$AAo?$AA?5?$AAO?$AAS?$AA?5?$AAp?$AAa?$AAr?$AAt@| [ DATA ] ; `string'
	EXPORT	|??_C@_1FM@NBKLFBCM@?$AAE?$AAR?$AAR?$AAO?$AAR?$AA?3?$AA?5?$AAO?$AAS?$AA?5?$AAp?$AAa?$AAr?$AAt?$AAi?$AAt?$AAi?$AAo?$AAn?$AA?5?$AAt?$AAo?$AAo?$AA?5?$AAs?$AAm?$AAa?$AAl?$AAl?$AA?$CB?$AA?5?$AA?5@| [ DATA ] ; `string'
	EXPORT	|??_C@_1CI@BAKEFGCP@?$AAh?$AAP?$AAa?$AAr?$AAt?$AAi?$AAt?$AAi?$AAo?$AAn?$AA?5?$AA?$DN?$AA?5?$AA0?$AAx?$AA?$CF?$AAX?$AA?$AN?$AA?6?$AA?$AA@| [ DATA ] ; `string'
	EXPORT	|??_C@_1GM@NHAICGBK@?$AAW?$AAr?$AAi?$AAt?$AAe?$AAF?$AAl?$AAa?$AAs?$AAh?$AAN?$AAK?$AA?3?$AA?5?$AAE?$AAr?$AAr?$AAo?$AAr?$AA?5?$AAi?$AAn?$AAi?$AAt?$AAi?$AAa?$AAl?$AAi?$AAz?$AAi?$AAn?$AAg@| [ DATA ] ; `string'
	EXPORT	|??_C@_1GK@ILFHOAHO@?$AAE?$AAR?$AAR?$AAO?$AAR?$AA?3?$AA?5?$AAO?$AAE?$AAM?$AAW?$AAr?$AAi?$AAt?$AAe?$AAF?$AAl?$AAa?$AAs?$AAh?$AA?3?$AA?5?$AAN?$AAK?$AA?5?$AAi?$AAm?$AAa?$AAg?$AAe?$AA?5?$AAs@| [ DATA ] ; `string'
	EXPORT	|??_C@_1HC@KEGBBDA@?$AA?$AN?$AA?6?$AAW?$AAr?$AAi?$AAt?$AAi?$AAn?$AAg?$AA?5?$AAN?$AAK?$AA?5?$AAi?$AAm?$AAa?$AAg?$AAe?$AA?5?$AAt?$AAo?$AA?5?$AAO?$AAS?$AA?5?$AAp?$AAa?$AAr?$AAt?$AAi?$AAt?$AAi@| [ DATA ] ; `string'
	IMPORT	|BP_WriteData|

  00000			 AREA	 |.pdata|, PDATA
|$T48576| DCD	|$LN27@WriteFlash@4|
	DCD	0xc0008002

  00000			 AREA	 |.xdata|, DATA
|$T48572| DCD	0xffffffe4

  00000			 AREA	 |.rdata|, DATA, READONLY
|??_C@_1FC@DLJHBOIG@?$AAE?$AAR?$AAR?$AAO?$AAR?$AA?3?$AA?5?$AAF?$AAa?$AAi?$AAl?$AAe?$AAd?$AA?5?$AAw?$AAr?$AAi?$AAt?$AAi?$AAn?$AAg?$AA?5?$AAt?$AAo?$AA?5?$AAO?$AAS?$AA?5?$AAp?$AAa?$AAr?$AAt@| DCB "E"
	DCB	0x0, "R", 0x0, "R", 0x0, "O", 0x0, "R", 0x0, ":", 0x0, " "
	DCB	0x0, "F", 0x0, "a", 0x0, "i", 0x0, "l", 0x0, "e", 0x0, "d"
	DCB	0x0, " ", 0x0, "w", 0x0, "r", 0x0, "i", 0x0, "t", 0x0, "i"
	DCB	0x0, "n", 0x0, "g", 0x0, " ", 0x0, "t", 0x0, "o", 0x0, " "
	DCB	0x0, "O", 0x0, "S", 0x0, " ", 0x0, "p", 0x0, "a", 0x0, "r"
	DCB	0x0, "t", 0x0, "i", 0x0, "t", 0x0, "i", 0x0, "o", 0x0, "n"
	DCB	0x0, "!", 0x0, 0xd, 0x0, 0xa, 0x0, 0x0, 0x0 ; `string'

  00000			 AREA	 |.rdata|, DATA, READONLY
|??_C@_1FM@NBKLFBCM@?$AAE?$AAR?$AAR?$AAO?$AAR?$AA?3?$AA?5?$AAO?$AAS?$AA?5?$AAp?$AAa?$AAr?$AAt?$AAi?$AAt?$AAi?$AAo?$AAn?$AA?5?$AAt?$AAo?$AAo?$AA?5?$AAs?$AAm?$AAa?$AAl?$AAl?$AA?$CB?$AA?5?$AA?5@| DCB "E"
	DCB	0x0, "R", 0x0, "R", 0x0, "O", 0x0, "R", 0x0, ":", 0x0, " "
	DCB	0x0, "O", 0x0, "S", 0x0, " ", 0x0, "p", 0x0, "a", 0x0, "r"
	DCB	0x0, "t", 0x0, "i", 0x0, "t", 0x0, "i", 0x0, "o", 0x0, "n"
	DCB	0x0, " ", 0x0, "t", 0x0, "o", 0x0, "o", 0x0, " ", 0x0, "s"
	DCB	0x0, "m", 0x0, "a", 0x0, "l", 0x0, "l", 0x0, "!", 0x0, " "
	DCB	0x0, " ", 0x0, "A", 0x0, "b", 0x0, "o", 0x0, "r", 0x0, "t"
	DCB	0x0, "i", 0x0, "n", 0x0, "g", 0x0, ".", 0x0, ".", 0x0, "."
	DCB	0x0, 0xd, 0x0, 0xa, 0x0, 0x0, 0x0	; `string'

  00000			 AREA	 |.rdata|, DATA, READONLY
|??_C@_1CI@BAKEFGCP@?$AAh?$AAP?$AAa?$AAr?$AAt?$AAi?$AAt?$AAi?$AAo?$AAn?$AA?5?$AA?$DN?$AA?5?$AA0?$AAx?$AA?$CF?$AAX?$AA?$AN?$AA?6?$AA?$AA@| DCB "h"
	DCB	0x0, "P", 0x0, "a", 0x0, "r", 0x0, "t", 0x0, "i", 0x0, "t"
	DCB	0x0, "i", 0x0, "o", 0x0, "n", 0x0, " ", 0x0, "=", 0x0, " "
	DCB	0x0, "0", 0x0, "x", 0x0, "%", 0x0, "X", 0x0, 0xd, 0x0, 0xa
	DCB	0x0, 0x0, 0x0				; `string'

  00000			 AREA	 |.rdata|, DATA, READONLY
|??_C@_1GM@NHAICGBK@?$AAW?$AAr?$AAi?$AAt?$AAe?$AAF?$AAl?$AAa?$AAs?$AAh?$AAN?$AAK?$AA?3?$AA?5?$AAE?$AAr?$AAr?$AAo?$AAr?$AA?5?$AAi?$AAn?$AAi?$AAt?$AAi?$AAa?$AAl?$AAi?$AAz?$AAi?$AAn?$AAg@| DCB "W"
	DCB	0x0, "r", 0x0, "i", 0x0, "t", 0x0, "e", 0x0, "F", 0x0, "l"
	DCB	0x0, "a", 0x0, "s", 0x0, "h", 0x0, "N", 0x0, "K", 0x0, ":"
	DCB	0x0, " ", 0x0, "E", 0x0, "r", 0x0, "r", 0x0, "o", 0x0, "r"
	DCB	0x0, " ", 0x0, "i", 0x0, "n", 0x0, "i", 0x0, "t", 0x0, "i"
	DCB	0x0, "a", 0x0, "l", 0x0, "i", 0x0, "z", 0x0, "i", 0x0, "n"
	DCB	0x0, "g", 0x0, " ", 0x0, "b", 0x0, "o", 0x0, "o", 0x0, "t"
	DCB	0x0, "p", 0x0, "a", 0x0, "r", 0x0, "t", 0x0, " ", 0x0, "l"
	DCB	0x0, "i", 0x0, "b", 0x0, "r", 0x0, "a", 0x0, "r", 0x0, "y"
	DCB	0x0, "!", 0x0, "!", 0x0, 0xd, 0x0, 0xa, 0x0, 0x0, 0x0 ; `string'

  00000			 AREA	 |.rdata|, DATA, READONLY
|??_C@_1GK@ILFHOAHO@?$AAE?$AAR?$AAR?$AAO?$AAR?$AA?3?$AA?5?$AAO?$AAE?$AAM?$AAW?$AAr?$AAi?$AAt?$AAe?$AAF?$AAl?$AAa?$AAs?$AAh?$AA?3?$AA?5?$AAN?$AAK?$AA?5?$AAi?$AAm?$AAa?$AAg?$AAe?$AA?5?$AAs@| DCB "E"
	DCB	0x0, "R", 0x0, "R", 0x0, "O", 0x0, "R", 0x0, ":", 0x0, " "
	DCB	0x0, "O", 0x0, "E", 0x0, "M", 0x0, "W", 0x0, "r", 0x0, "i"
	DCB	0x0, "t", 0x0, "e", 0x0, "F", 0x0, "l", 0x0, "a", 0x0, "s"
	DCB	0x0, "h", 0x0, ":", 0x0, " ", 0x0, "N", 0x0, "K", 0x0, " "
	DCB	0x0, "i", 0x0, "m", 0x0, "a", 0x0, "g", 0x0, "e", 0x0, " "
	DCB	0x0, "s", 0x0, "i", 0x0, "g", 0x0, "n", 0x0, "a", 0x0, "t"
	DCB	0x0, "u", 0x0, "r", 0x0, "e", 0x0, " ", 0x0, "n", 0x0, "o"
	DCB	0x0, "t", 0x0, " ", 0x0, "f", 0x0, "o", 0x0, "u", 0x0, "n"
	DCB	0x0, "d", 0x0, 0xd, 0x0, 0xa, 0x0, 0x0, 0x0 ; `string'

  00000			 AREA	 |.rdata|, DATA, READONLY
|??_C@_1HC@KEGBBDA@?$AA?$AN?$AA?6?$AAW?$AAr?$AAi?$AAt?$AAi?$AAn?$AAg?$AA?5?$AAN?$AAK?$AA?5?$AAi?$AAm?$AAa?$AAg?$AAe?$AA?5?$AAt?$AAo?$AA?5?$AAO?$AAS?$AA?5?$AAp?$AAa?$AAr?$AAt?$AAi?$AAt?$AAi@| DCB 0xd
	DCB	0x0, 0xa, 0x0, "W", 0x0, "r", 0x0, "i", 0x0, "t", 0x0, "i"
	DCB	0x0, "n", 0x0, "g", 0x0, " ", 0x0, "N", 0x0, "K", 0x0, " "
	DCB	0x0, "i", 0x0, "m", 0x0, "a", 0x0, "g", 0x0, "e", 0x0, " "
	DCB	0x0, "t", 0x0, "o", 0x0, " ", 0x0, "O", 0x0, "S", 0x0, " "
	DCB	0x0, "p", 0x0, "a", 0x0, "r", 0x0, "t", 0x0, "i", 0x0, "t"
	DCB	0x0, "i", 0x0, "o", 0x0, "n", 0x0, " ", 0x0, "a", 0x0, "d"
	DCB	0x0, "d", 0x0, "r", 0x0, "e", 0x0, "s", 0x0, "s", 0x0, "="
	DCB	0x0, "%", 0x0, "x", 0x0, ",", 0x0, " ", 0x0, "S", 0x0, "I"
	DCB	0x0, "Z", 0x0, "E", 0x0, "=", 0x0, "%", 0x0, "x", 0x0, 0xd
	DCB	0x0, 0xa, 0x0, 0x0, 0x0			; `string'
; Function compile flags: /Ogspy

  00000			 AREA	 |.text|, CODE, ARM

  00000	00000000	 DCD         |__GSHandlerCheck|
  00004	00000000	 DCD         |$T48572|

  00008		 |WriteFlashNK| PROC

; 609  : {

  00008		 |$LN27@WriteFlash@4|
  00008	e92d41f0	 stmdb       sp!, {r4 - r8, lr}
  0000c	e24ddfe2	 sub         sp, sp, #0xE2, 30
  00010		 |$M48573|
  00010	e1a06001	 mov         r6, r1
  00014	e1a04000	 mov         r4, r0
  00018	e59f31e4	 ldr         r3, [pc, #0x1E4]
  0001c	e5933000	 ldr         r3, [r3]
  00020	e58d3384	 str         r3, [sp, #0x384]

; 610  :     BOOL rc = FALSE;
; 611  :     BOOL bExt = FALSE;
; 612  : 
; 613  :     HANDLE hPartition;
; 614  :     UCHAR *pData;
; 615  :     PCI_REG_INFO regInfo;
; 616  : 
; 617  :     memset(&regInfo, 0, sizeof(PCI_REG_INFO));

  00024	e3a02d0e	 mov         r2, #0xE, 26
  00028	e3a01000	 mov         r1, #0
  0002c	e28d0004	 add         r0, sp, #4
  00030	e3a05000	 mov         r5, #0
  00034	eb000000	 bl          memset

; 618  :     regInfo.MemBase.Num    = 1;
; 619  :     regInfo.MemLen.Num     = 1;
; 620  :     regInfo.MemBase.Reg[0] = g_ulFlashBase;

  00038	e59f81c0	 ldr         r8, [pc, #0x1C0]
  0003c	e3a0e001	 mov         lr, #1
  00040	e3a07001	 mov         r7, #1
  00044	e5983000	 ldr         r3, [r8]

; 621  :     regInfo.MemLen.Reg[0]  = g_ulFlashLengthBytes;

  00048	e5982004	 ldr         r2, [r8, #4]

; 622  : 
; 623  : 
; 624  :     // Get data location
; 625  :     pData = OEMMapMemAddr(address, address);

  0004c	e1a01004	 mov         r1, r4
  00050	e1a00004	 mov         r0, r4
  00054	e58d3314	 str         r3, [sp, #0x314]
  00058	e58d2330	 str         r2, [sp, #0x330]
  0005c	e58de310	 str         lr, [sp, #0x310]
  00060	e58d732c	 str         r7, [sp, #0x32C]
  00064	eb000000	 bl          OEMMapMemAddr
  00068	e1a07000	 mov         r7, r0

; 626  : 
; 627  : #ifdef IMGMULTIXIP
; 628  :     // Checking if this is an EXT region
; 629  :     if((address == (IMAGE_WINCE_EXT_CA + NAND_ROMOFFSET)) || (address == IMAGE_WINCE_EXT_CA) )
; 630  :     {
; 631  :         bExt = TRUE;
; 632  :         OALLog(L"\r\nWriting EXT image to OS partition, address=%x, SIZE=%x\r\n", address, size);
; 633  :     }
; 634  :     else if ((address == (IMAGE_WINCE_CODE_CA + NAND_ROMOFFSET) )|| (address == IMAGE_WINCE_CODE_CA))
; 635  : #endif		
; 636  : 		
; 637  :     {
; 638  :         OALLog(L"\r\nWriting NK image to OS partition address=%x, SIZE=%x\r\n", address, size);

  0006c	e59f0188	 ldr         r0, [pc, #0x188]
  00070	e1a02006	 mov         r2, r6
  00074	e1a01004	 mov         r1, r4
  00078	eb000000	 bl          NKDbgPrintfW

; 639  :     }
; 640  : 	
; 641  :     // Verify that we get CE image.
; 642  :     if (!VerifyImage(pData, NULL))

  0007c	e1a01007	 mov         r1, r7
  00080	e5b12040	 ldr         r2, [r1, #0x40]!
  00084	e59f316c	 ldr         r3, [pc, #0x16C]
  00088	e1520003	 cmp         r2, r3
  0008c	1a000045	 bne         |$LN23@WriteFlash@4|
  00090	e5913008	 ldr         r3, [r1, #8]
  00094	e0830007	 add         r0, r3, r7
  00098	eb000000	 bl          DumpTOC

; 648  :         goto cleanUp;
; 649  :         }
; 650  : 
; 651  :     // Initialize boot partition library
; 652  :     if (!BP_Init((LPBYTE)g_ulBPartBase, g_ulBPartLengthBytes, NULL, &regInfo, NULL))

  0009c	e598100c	 ldr         r1, [r8, #0xC]
  000a0	e5980008	 ldr         r0, [r8, #8]
  000a4	e3a0e000	 mov         lr, #0
  000a8	e28d3004	 add         r3, sp, #4
  000ac	e3a02000	 mov         r2, #0
  000b0	e58de000	 str         lr, [sp]
  000b4		 |$cleanUp$48559|
  000b4	eb000000	 bl          BP_Init
  000b8	e3500000	 cmp         r0, #0
  000bc	1a000002	 bne         |$LN11@WriteFlash@4|

; 653  :     {
; 654  :         OALLog(L"WriteFlashNK: Error initializing bootpart library!!\r\n");

  000c0	e59f012c	 ldr         r0, [pc, #0x12C]
  000c4	eb000000	 bl          NKDbgPrintfW

; 655  :         goto cleanUp;

  000c8	ea00003c	 b           |$cleanUp$47913|
  000cc		 |$LN11@WriteFlash@4|

; 656  :     }
; 657  :     
; 658  :     // Open partition based on region type 
; 659  :     hPartition = BP_OpenPartition((DWORD)NEXT_FREE_LOC, (DWORD)USE_REMAINING_SPACE, bExt ? PART_BINFS : PART_BOOTSECTION, FALSE, PART_OPEN_EXISTING);

  000cc	e3a03001	 mov         r3, #1
  000d0	e3e00000	 mvn         r0, #0
  000d4	e58d3000	 str         r3, [sp]
  000d8	e3a03000	 mov         r3, #0
  000dc	e1a01000	 mov         r1, r0
  000e0	e3a02020	 mov         r2, #0x20
  000e4	eb000000	 bl          BP_OpenPartition
  000e8	e1a04000	 mov         r4, r0

; 660  : 
; 661  :     if (hPartition == INVALID_HANDLE_VALUE)

  000ec	e3740001	 cmn         r4, #1
  000f0	1a000006	 bne         |$LN4@WriteFlash@4|

; 662  :     {
; 663  :         OALMSG(OAL_ERROR, (L"ERROR: OS partition not found!\r\n"));

  000f4	e59f30e0	 ldr         r3, [pc, #0xE0]
  000f8	e5933440	 ldr         r3, [r3, #0x440]
  000fc	e3130001	 tst         r3, #1
  00100	0a00002e	 beq         |$cleanUp$47913|
  00104	e59f00e4	 ldr         r0, [pc, #0xE4]
  00108	eb000000	 bl          NKDbgPrintfW
  0010c	ea00002b	 b           |$cleanUp$47913|
  00110		 |$LN4@WriteFlash@4|

; 664  :         goto cleanUp;
; 665  :     }
; 666  : 	else
; 667  : 	{
; 668  : 		OALLog(L"hPartition = 0x%X\r\n", (int)hPartition);

  00110	e59f00d4	 ldr         r0, [pc, #0xD4]
  00114	e1a01004	 mov         r1, r4
  00118	eb000000	 bl          NKDbgPrintfW

; 669  : 	}
; 670  :     
; 671  :     // Check length against size of partition
; 672  :     if (!BP_SetDataPointer(hPartition, size))

  0011c	e1a01006	 mov         r1, r6
  00120	e1a00004	 mov         r0, r4
  00124	eb000000	 bl          BP_SetDataPointer
  00128	e3500000	 cmp         r0, #0
  0012c	1a000006	 bne         |$LN2@WriteFlash@4|

; 673  :     {
; 674  :         OALMSG(OAL_ERROR, (L"ERROR: OS partition too small!  Aborting...\r\n"));

  00130	e59f30a4	 ldr         r3, [pc, #0xA4]
  00134	e5933440	 ldr         r3, [r3, #0x440]
  00138	e3130001	 tst         r3, #1
  0013c	0a00001f	 beq         |$cleanUp$47913|
  00140	e59f00a0	 ldr         r0, [pc, #0xA0]
  00144	eb000000	 bl          NKDbgPrintfW
  00148	ea00001c	 b           |$cleanUp$47913|
  0014c		 |$LN2@WriteFlash@4|

; 675  :         goto cleanUp;
; 676  :     }
; 677  :     
; 678  :     // Write image to partition
; 679  :     BP_SetDataPointer(hPartition, 0);

  0014c	e3a01000	 mov         r1, #0
  00150	e1a00004	 mov         r0, r4
  00154	eb000000	 bl          BP_SetDataPointer

; 680  :     if (!BP_WriteData(hPartition, pData, size))

  00158	e1a02006	 mov         r2, r6
  0015c	e1a01007	 mov         r1, r7
  00160	e1a00004	 mov         r0, r4
  00164	eb000000	 bl          BP_WriteData
  00168	e3500000	 cmp         r0, #0
  0016c	1a000006	 bne         |$LN1@WriteFlash@4|

; 681  :     {
; 682  :         OALMSG(OAL_ERROR, (L"ERROR: Failed writing to OS partition!\r\n"));

  00170	e59f3064	 ldr         r3, [pc, #0x64]
  00174	e5933440	 ldr         r3, [r3, #0x440]
  00178	e3130001	 tst         r3, #1
  0017c	0a00000f	 beq         |$cleanUp$47913|
  00180	e59f005c	 ldr         r0, [pc, #0x5C]
  00184	eb000000	 bl          NKDbgPrintfW
  00188	ea00000c	 b           |$cleanUp$47913|
  0018c		 |$LN1@WriteFlash@4|

; 683  :         goto cleanUp;
; 684  :     }
; 685  :     
; 686  :     //OALLog(L"%s image written\r\n", bExt ? L"EXT" :L"nk");
; 687  : 
; 688  :     // Change boot device to NAND
; 689  :     g_bootCfg.bootDevLoc.IfcType = Internal;

  0018c	e59f204c	 ldr         r2, [pc, #0x4C]
  00190	e3a03000	 mov         r3, #0
  00194	e3a01302	 mov         r1, #2, 6
  00198	e5823008	 str         r3, [r2, #8]

; 690  :     g_bootCfg.bootDevLoc.LogicalLoc = BSP_NAND_REGS_PA + 0x20;

  0019c	e3813020	 orr         r3, r1, #0x20
  001a0	e5823010	 str         r3, [r2, #0x10]

; 691  : 
; 692  :     // Done
; 693  :     rc = TRUE;

  001a4	ea000004	 b           |$LN9@WriteFlash@4|
  001a8		 |$LN23@WriteFlash@4|

; 643  :         {
; 644  :         OALMSG(OAL_ERROR, (L"ERROR: OEMWriteFlash: "
; 645  :             L"NK image signature not found\r\n"
; 646  :             ));

  001a8	e59f302c	 ldr         r3, [pc, #0x2C]
  001ac	e5933440	 ldr         r3, [r3, #0x440]
  001b0	e3130001	 tst         r3, #1
  001b4	159f001c	 ldrne       r0, [pc, #0x1C]
  001b8	1b000000	 blne        NKDbgPrintfW
  001bc		 |$LN9@WriteFlash@4|

; 647  :         rc = TRUE;

  001bc	e3a05001	 mov         r5, #1

; 691  : 
; 692  :     // Done
; 693  :     rc = TRUE;

  001c0		 |$cleanUp$47913|

; 694  : 
; 695  : cleanUp:
; 696  :     return rc;

  001c0	e59d0384	 ldr         r0, [sp, #0x384]
  001c4	eb000000	 bl          __security_check_cookie

; 697  : }

  001c8	e1a00005	 mov         r0, r5
  001cc	e28ddfe2	 add         sp, sp, #0xE2, 30
  001d0	e8bd41f0	 ldmia       sp!, {r4 - r8, lr}
  001d4	e12fff1e	 bx          lr
  001d8		 |$LN28@WriteFlash@4|
  001d8		 |$LN29@WriteFlash@4|
  001d8	00000000	 DCD         |??_C@_1GK@ILFHOAHO@?$AAE?$AAR?$AAR?$AAO?$AAR?$AA?3?$AA?5?$AAO?$AAE?$AAM?$AAW?$AAr?$AAi?$AAt?$AAe?$AAF?$AAl?$AAa?$AAs?$AAh?$AA?3?$AA?5?$AAN?$AAK?$AA?5?$AAi?$AAm?$AAa?$AAg?$AAe?$AA?5?$AAs@|
  001dc		 |$LN30@WriteFlash@4|
  001dc	00000000	 DCD         |dpCurSettings|
  001e0		 |$LN31@WriteFlash@4|
  001e0	00000000	 DCD         |g_bootCfg|
  001e4		 |$LN32@WriteFlash@4|
  001e4	00000000	 DCD         |??_C@_1FC@DLJHBOIG@?$AAE?$AAR?$AAR?$AAO?$AAR?$AA?3?$AA?5?$AAF?$AAa?$AAi?$AAl?$AAe?$AAd?$AA?5?$AAw?$AAr?$AAi?$AAt?$AAi?$AAn?$AAg?$AA?5?$AAt?$AAo?$AA?5?$AAO?$AAS?$AA?5?$AAp?$AAa?$AAr?$AAt@|
  001e8		 |$LN33@WriteFlash@4|
  001e8	00000000	 DCD         |??_C@_1FM@NBKLFBCM@?$AAE?$AAR?$AAR?$AAO?$AAR?$AA?3?$AA?5?$AAO?$AAS?$AA?5?$AAp?$AAa?$AAr?$AAt?$AAi?$AAt?$AAi?$AAo?$AAn?$AA?5?$AAt?$AAo?$AAo?$AA?5?$AAs?$AAm?$AAa?$AAl?$AAl?$AA?$CB?$AA?5?$AA?5@|
  001ec		 |$LN34@WriteFlash@4|
  001ec	00000000	 DCD         |??_C@_1CI@BAKEFGCP@?$AAh?$AAP?$AAa?$AAr?$AAt?$AAi?$AAt?$AAi?$AAo?$AAn?$AA?5?$AA?$DN?$AA?5?$AA0?$AAx?$AA?$CF?$AAX?$AA?$AN?$AA?6?$AA?$AA@|
  001f0		 |$LN35@WriteFlash@4|
  001f0	00000000	 DCD         |??_C@_1EC@KEKCJKLC@?$AAE?$AAR?$AAR?$AAO?$AAR?$AA?3?$AA?5?$AAO?$AAS?$AA?5?$AAp?$AAa?$AAr?$AAt?$AAi?$AAt?$AAi?$AAo?$AAn?$AA?5?$AAn?$AAo?$AAt?$AA?5?$AAf?$AAo?$AAu?$AAn?$AAd?$AA?$CB?$AA?$AN?$AA?6@|
  001f4		 |$LN36@WriteFlash@4|
  001f4	00000000	 DCD         |??_C@_1GM@NHAICGBK@?$AAW?$AAr?$AAi?$AAt?$AAe?$AAF?$AAl?$AAa?$AAs?$AAh?$AAN?$AAK?$AA?3?$AA?5?$AAE?$AAr?$AAr?$AAo?$AAr?$AA?5?$AAi?$AAn?$AAi?$AAt?$AAi?$AAa?$AAl?$AAi?$AAz?$AAi?$AAn?$AAg@|
  001f8		 |$LN37@WriteFlash@4|
  001f8	43454345	 DCD         0x43454345
  001fc		 |$LN38@WriteFlash@4|
  001fc	00000000	 DCD         |??_C@_1HC@KEGBBDA@?$AA?$AN?$AA?6?$AAW?$AAr?$AAi?$AAt?$AAi?$AAn?$AAg?$AA?5?$AAN?$AAK?$AA?5?$AAi?$AAm?$AAa?$AAg?$AAe?$AA?5?$AAt?$AAo?$AA?5?$AAO?$AAS?$AA?5?$AAp?$AAa?$AAr?$AAt?$AAi?$AAt?$AAi@|
  00200		 |$LN39@WriteFlash@4|
  00200	00000000	 DCD         |g_ulFlashBase|
  00204		 |$LN40@WriteFlash@4|
  00204	00000000	 DCD         |__security_cookie|
  00208		 |$M48574|

			 ENDP  ; |WriteFlashNK|

	EXPORT	|BLFlashDownload|

  00000			 AREA	 |.pdata|, PDATA
|$T48601| DCD	|$LN11@BLFlashDow|
	DCD	0x40000c01
; Function compile flags: /Ogspy

  00000			 AREA	 |.text|, CODE, ARM

  00000		 |BLFlashDownload| PROC

; 120  : {

  00000		 |$LN11@BLFlashDow|
  00000	e52de004	 str         lr, [sp, #-4]!
  00004		 |$M48598|
  00004	e1a02000	 mov         r2, r0

; 121  :     UINT32 rc = (UINT32) BL_ERROR;
; 122  : 
; 123  :     UNREFERENCED_PARAMETER(pBootDevices);
; 124  : 
; 125  :     // We have do device initialization for some devices
; 126  :     switch (pConfig->bootDevLoc.IfcType)

  00008	e5923008	 ldr         r3, [r2, #8]
  0000c	e3e00000	 mvn         r0, #0
  00010	e3530000	 cmp         r3, #0

; 127  :         {
; 128  :         case Internal:
; 129  :             switch (pConfig->bootDevLoc.LogicalLoc)

  00014	05922010	 ldreq       r2, [r2, #0x10]
  00018	03a03302	 moveq       r3, #2, 6
  0001c	03833020	 orreq       r3, r3, #0x20
  00020	01520003	 cmpeq       r2, r3

; 130  :                 {
; 131  :                 case BSP_NAND_REGS_PA + 0x20:
; 132  :                 rc = ReadFlashNK();

  00024	0b000000	 bleq        ReadFlashNK

; 133  :                 break;
; 134  :                 }
; 135  :             break;
; 136  :         }
; 137  : 
; 138  :     return rc;
; 139  : }

  00028	e49de004	 ldr         lr, [sp], #4
  0002c	e12fff1e	 bx          lr
  00030		 |$M48599|

			 ENDP  ; |BLFlashDownload|

	EXPORT	|OEMWriteFlash|

  00000			 AREA	 |.pdata|, PDATA
|$T48613| DCD	|$LN12@OEMWriteFl|
	DCD	0x40001a01
; Function compile flags: /Ogspy

  00000			 AREA	 |.text|, CODE, ARM

  00000		 |OEMWriteFlash| PROC

; 317  : {

  00000		 |$LN12@OEMWriteFl|
  00000	e52de004	 str         lr, [sp, #-4]!
  00004		 |$M48610|

; 318  :     BOOL rc;
; 319  : 
; 320  :     switch (g_eboot.type)

  00004	e59f3058	 ldr         r3, [pc, #0x58]
  00008	e5933004	 ldr         r3, [r3, #4]
  0000c	e3530003	 cmp         r3, #3
  00010	0a000010	 beq         |$LN5@OEMWriteFl|
  00014	e3530004	 cmp         r3, #4
  00018	0a00000b	 beq         |$LN4@OEMWriteFl|
  0001c	e3530006	 cmp         r3, #6
  00020	0a000006	 beq         |$LN2@OEMWriteFl|
  00024	e3530008	 cmp         r3, #8

; 333  :             break;
; 334  : #ifdef IMGMULTIXIP
; 335  :         case DOWNLOAD_TYPE_EXT:
; 336  :             rc = WriteFlashEXT(address, size);
; 337  :             break;
; 338  : #endif			
; 339  :         default:
; 340  :             rc = FALSE;

  00028	13a00000	 movne       r0, #0

; 341  :             break;
; 342  :         }
; 343  : 
; 344  :     return rc;
; 345  : }

  0002c	149de004	 ldrne       lr, [sp], #4
  00030	112fff1e	 bxne        lr

; 327  :             break;
; 328  : 		case DOWNLOAD_TYPE_LOGO:
; 329  :             rc = WriteFlashLogo(address, size);

  00034	eb000000	 bl          WriteFlashLogo

; 341  :             break;
; 342  :         }
; 343  : 
; 344  :     return rc;
; 345  : }

  00038	e49de004	 ldr         lr, [sp], #4
  0003c	e12fff1e	 bx          lr
  00040		 |$LN2@OEMWriteFl|

; 330  : 			break;
; 331  :         case DOWNLOAD_TYPE_FLASHNAND:
; 332  :             rc = WriteFlashNK(address, size);

  00040	eb000000	 bl          WriteFlashNK

; 341  :             break;
; 342  :         }
; 343  : 
; 344  :     return rc;
; 345  : }

  00044	e49de004	 ldr         lr, [sp], #4
  00048	e12fff1e	 bx          lr
  0004c		 |$LN4@OEMWriteFl|

; 324  :             break;
; 325  :         case DOWNLOAD_TYPE_EBOOT:
; 326  :             rc = WriteFlashEBOOT(address, size);

  0004c	eb000000	 bl          WriteFlashEBOOT

; 341  :             break;
; 342  :         }
; 343  : 
; 344  :     return rc;
; 345  : }

  00050	e49de004	 ldr         lr, [sp], #4
  00054	e12fff1e	 bx          lr
  00058		 |$LN5@OEMWriteFl|

; 321  :         {
; 322  :         case DOWNLOAD_TYPE_XLDR:
; 323  :             rc = WriteFlashXLDR(address, size);

  00058	eb000000	 bl          WriteFlashXLDR

; 341  :             break;
; 342  :         }
; 343  : 
; 344  :     return rc;
; 345  : }

  0005c	e49de004	 ldr         lr, [sp], #4
  00060	e12fff1e	 bx          lr
  00064		 |$LN13@OEMWriteFl|
  00064		 |$LN14@OEMWriteFl|
  00064	00000000	 DCD         |g_eboot|
  00068		 |$M48611|

			 ENDP  ; |OEMWriteFlash|

	END
