; Listing generated by Microsoft (R) Optimizing Compiler Version 14.01.60511.01 

	TTL	C:\WINCE600\PLATFORM\Z2170P\SRC\BOOTLOADER\EBOOT\menu.c
	CODE32

  00000			 AREA	 |.drectve|, DRECTVE
	DCB	"-defaultlib:LIBCMT "
	DCB	"-defaultlib:OLDNAMES "

	EXPORT	|??_C@_1FK@IBMDHDI@?$AAM?$AAP?$AAU?$AA?$FL?$AA1?$AA0?$AA0?$AA0?$AAM?$AAh?$AAz?$AA?5?$AA?$EA?$AA?5?$AA1?$AA?4?$AA3?$AA7?$AA5?$AAV?$AA?$FN?$AA?0?$AA?5?$AAI?$AAV?$AAA?$AA2?$AA?$FL?$AA8?$AA0?$AA0?$AAM@| [ DATA ] ; `string'
	EXPORT	|??_C@_1FO@MCHCGGFD@?$AAM?$AAP?$AAU?$AA?$FL?$AA8?$AA0?$AA0?$AAM?$AAh?$AAz?$AA?5?$AA?5?$AA?$EA?$AA?5?$AA1?$AA?4?$AA2?$AA6?$AA2?$AA5?$AAV?$AA?$FN?$AA?0?$AA?5?$AAI?$AAV?$AAA?$AA2?$AA?$FL?$AA6?$AA6?$AA0@| [ DATA ] ; `string'
	EXPORT	|??_C@_1FO@CAGHGIKC@?$AAM?$AAP?$AAU?$AA?$FL?$AA6?$AA0?$AA0?$AAM?$AAh?$AAz?$AA?5?$AA?5?$AA?$EA?$AA?5?$AA1?$AA?4?$AA1?$AA0?$AA0?$AA0?$AAV?$AA?$FN?$AA?0?$AA?5?$AAI?$AAV?$AAA?$AA2?$AA?$FL?$AA5?$AA2?$AA0@| [ DATA ] ; `string'
	EXPORT	|??_C@_1FO@ELABMNJD@?$AAM?$AAP?$AAU?$AA?$FL?$AA3?$AA0?$AA0?$AAM?$AAh?$AAz?$AA?5?$AA?5?$AA?$EA?$AA?5?$AA0?$AA?4?$AA9?$AA3?$AA7?$AA5?$AAV?$AA?$FN?$AA?0?$AA?5?$AAI?$AAV?$AAA?$AA2?$AA?$FL?$AA2?$AA6?$AA0@| [ DATA ] ; `string'
	EXPORT	|??_C@_1FG@KPBOKIAA@?$AAM?$AAP?$AAU?$AA?$FL?$AA7?$AA2?$AA0?$AAh?$AAz?$AA?5?$AA?$EA?$AA?5?$AA1?$AA?4?$AA3?$AA5?$AA0?$AA0?$AAV?$AA?$FN?$AA?0?$AA?5?$AAI?$AAV?$AAA?$AA2?$AA?$FL?$AA5?$AA2?$AA0?$AAM?$AAh@| [ DATA ] ; `string'
	EXPORT	|??_C@_1FI@GKLNGOFA@?$AAM?$AAP?$AAU?$AA?$FL?$AA6?$AA0?$AA0?$AAM?$AAh?$AAz?$AA?5?$AA?$EA?$AA?5?$AA1?$AA?4?$AA3?$AA5?$AA0?$AA0?$AAV?$AA?$FN?$AA?0?$AA?5?$AAI?$AAV?$AAA?$AA2?$AA?$FL?$AA4?$AA3?$AA0?$AAM@| [ DATA ] ; `string'
	EXPORT	|??_C@_1FI@GMIAOKFE@?$AAM?$AAP?$AAU?$AA?$FL?$AA5?$AA5?$AA0?$AAM?$AAh?$AAz?$AA?5?$AA?$EA?$AA?5?$AA1?$AA?4?$AA2?$AA7?$AA5?$AA0?$AAV?$AA?$FN?$AA?0?$AA?5?$AAI?$AAV?$AAA?$AA2?$AA?$FL?$AA4?$AA0?$AA0?$AAM@| [ DATA ] ; `string'
	EXPORT	|??_C@_1FI@LNIHINJA@?$AAM?$AAP?$AAU?$AA?$FL?$AA5?$AA0?$AA0?$AAM?$AAh?$AAz?$AA?5?$AA?$EA?$AA?5?$AA1?$AA?4?$AA2?$AA0?$AA0?$AA0?$AAV?$AA?$FN?$AA?0?$AA?5?$AAI?$AAV?$AAA?$AA2?$AA?$FL?$AA3?$AA6?$AA0?$AAM@| [ DATA ] ; `string'
	EXPORT	|??_C@_1FG@IMGDNCBP@?$AAM?$AAP?$AAU?$AA?$FL?$AA2?$AA5?$AA0?$AAM?$AAh?$AAz?$AA?5?$AA?$EA?$AA?5?$AA1?$AA?4?$AA0?$AA0?$AA0?$AAV?$AA?$FN?$AA?0?$AA?5?$AAI?$AAV?$AAA?$AA2?$AA?$FL?$AA1?$AA8?$AA0?$AAM?$AAh@| [ DATA ] ; `string'
	EXPORT	|??_C@_1FI@HKFGBOFG@?$AAM?$AAP?$AAU?$AA?$FL?$AA1?$AA2?$AA5?$AAM?$AAh?$AAz?$AA?5?$AA?$EA?$AA?5?$AA0?$AA?4?$AA9?$AA7?$AA5?$AAV?$AA?$FN?$AA?0?$AA?5?$AAI?$AAV?$AAA?$AA2?$AA?$FL?$AA?5?$AA9?$AA0?$AAM?$AAh@| [ DATA ] ; `string'
	EXPORT	|??_C@_1BM@KBHAINFM@?$AAI?$AAn?$AAv?$AAa?$AAl?$AAi?$AAd?$AA?5?$AAE?$AAn?$AAt?$AAr?$AAy?$AA?$AA@| [ DATA ] ; `string'
	EXPORT	|??_C@_1CE@BMIKEEML@?$AAD?$AAV?$AAI?$AA?5?$AA1?$AA2?$AA8?$AA0?$AAx?$AA7?$AA2?$AA0?$AA?5?$AA6?$AA0?$AAH?$AAz?$AA?$AA@| [ DATA ] ; `string'
	EXPORT	|??_C@_1CE@LJDPDOKE@?$AAD?$AAV?$AAI?$AA?5?$AA1?$AA0?$AA2?$AA4?$AAx?$AA7?$AA6?$AA8?$AA?5?$AA6?$AA0?$AAH?$AAz?$AA?$AA@| [ DATA ] ; `string'
	EXPORT	|??_C@_1CE@NBKEBDGN@?$AAD?$AAV?$AAI?$AA?5?$AA?5?$AA8?$AA0?$AA0?$AAx?$AA6?$AA0?$AA0?$AA?5?$AA5?$AA6?$AAH?$AAz?$AA?$AA@| [ DATA ] ; `string'
	EXPORT	|??_C@_1CE@PMPMKBOJ@?$AAD?$AAV?$AAI?$AA?5?$AA?5?$AA8?$AA0?$AA0?$AAx?$AA6?$AA0?$AA0?$AA?5?$AA6?$AA0?$AAH?$AAz?$AA?$AA@| [ DATA ] ; `string'
	EXPORT	|??_C@_1CE@IKDLFFCF@?$AAD?$AAV?$AAI?$AA?5?$AA?5?$AA8?$AA0?$AA0?$AAx?$AA4?$AA8?$AA0?$AA?5?$AA6?$AA0?$AAH?$AAz?$AA?$AA@| [ DATA ] ; `string'
	EXPORT	|??_C@_1CE@CECNFHDE@?$AAD?$AAV?$AAI?$AA?5?$AA?5?$AA6?$AA4?$AA0?$AAx?$AA4?$AA8?$AA0?$AA?5?$AA7?$AA2?$AAH?$AAz?$AA?$AA@| [ DATA ] ; `string'
	EXPORT	|??_C@_1CE@IJMKDLHH@?$AAD?$AAV?$AAI?$AA?5?$AA?5?$AA6?$AA4?$AA0?$AAx?$AA4?$AA8?$AA0?$AA?5?$AA6?$AA0?$AAH?$AAz?$AA?$AA@| [ DATA ] ; `string'
	EXPORT	|??_C@_1CE@FKEPMAF@?$AAL?$AAC?$AAD?$AA?5?$AA?5?$AA4?$AA8?$AA0?$AAx?$AA6?$AA4?$AA0?$AA?5?$AA6?$AA0?$AAH?$AAz?$AA?$AA@| [ DATA ] ; `string'
	EXPORT	|??_C@_1BE@FNAHCCDL@?$AAM?$AAa?$AAi?$AAn?$AA?5?$AAM?$AAe?$AAn?$AAu?$AA?$AA@| [ DATA ] ; `string'
	EXPORT	|??_C@_1CA@MOPOGELI@?$AAS?$AAe?$AAl?$AAe?$AAc?$AAt?$AA?5?$AAO?$AAP?$AAP?$AA?5?$AAM?$AAo?$AAd?$AAe?$AA?$AA@| [ DATA ] ; `string'
	EXPORT	|??_C@_1DE@DBBLEEO@?$AAS?$AAe?$AAl?$AAe?$AAc?$AAt?$AA?5?$AAD?$AAi?$AAs?$AAp?$AAl?$AAa?$AAy?$AA?5?$AAR?$AAe?$AAs?$AAo?$AAl?$AAu?$AAt?$AAi?$AAo?$AAn?$AA?$AA@| [ DATA ] ; `string'
	EXPORT	|??_C@_1EG@HMEOLENI@?$AAE?$AAn?$AAa?$AAb?$AAl?$AAe?$AA?1?$AAD?$AAi?$AAs?$AAa?$AAb?$AAl?$AAe?$AA?5?$AAO?$AAA?$AAL?$AA?5?$AAR?$AAe?$AAt?$AAa?$AAi?$AAl?$AA?5?$AAM?$AAe?$AAs?$AAs?$AAa?$AAg@| [ DATA ] ; `string'
	EXPORT	|??_C@_1BM@MOEMNNDE@?$AAS?$AAa?$AAv?$AAe?$AA?5?$AAS?$AAe?$AAt?$AAt?$AAi?$AAn?$AAg?$AAs?$AA?$AA@| [ DATA ] ; `string'
	EXPORT	|??_C@_1BM@LAACEGCM@?$AAS?$AAe?$AAt?$AA?5?$AAD?$AAe?$AAv?$AAi?$AAc?$AAe?$AA?5?$AAI?$AAD?$AA?$AA@| [ DATA ] ; `string'
	EXPORT	|??_C@_1CC@GBKCLJHP@?$AAF?$AAl?$AAa?$AAs?$AAh?$AA?5?$AAM?$AAa?$AAn?$AAa?$AAg?$AAe?$AAm?$AAe?$AAn?$AAt?$AA?$AA@| [ DATA ] ; `string'
	EXPORT	|??_C@_1CC@PCCBMLKB@?$AAN?$AAe?$AAt?$AAw?$AAo?$AAr?$AAk?$AA?5?$AAS?$AAe?$AAt?$AAt?$AAi?$AAn?$AAg?$AAs?$AA?$AA@| [ DATA ] ; `string'
	EXPORT	|??_C@_1M@OPFBIOCF@?$AAD?$AAe?$AAb?$AAu?$AAg?$AA?$AA@| [ DATA ] ; `string'
	EXPORT	|??_C@_1DG@LLAJHPJA@?$AAS?$AAe?$AAl?$AAe?$AAc?$AAt?$AA?5?$AAK?$AAI?$AAT?$AAL?$AA?5?$AA?$CI?$AAD?$AAe?$AAb?$AAu?$AAg?$AA?$CJ?$AA?5?$AAD?$AAe?$AAv?$AAi?$AAc?$AAe?$AA?$AA@| [ DATA ] ; `string'
	EXPORT	|??_C@_19JCAOHIEH@?$AAB?$AAo?$AAo?$AAt?$AA?$AA@| [ DATA ] ; `string'
	EXPORT	|??_C@_1CG@BBALNGAE@?$AAS?$AAe?$AAl?$AAe?$AAc?$AAt?$AA?5?$AAB?$AAo?$AAo?$AAt?$AA?5?$AAD?$AAe?$AAv?$AAi?$AAc?$AAe?$AA?$AA@| [ DATA ] ; `string'
	EXPORT	|??_C@_1CE@DFLFAFMD@?$AAE?$AAx?$AAi?$AAt?$AA?5?$AAa?$AAn?$AAd?$AA?5?$AAC?$AAo?$AAn?$AAt?$AAi?$AAn?$AAu?$AAe?$AA?$AA@| [ DATA ] ; `string'
	EXPORT	|??_C@_1CA@LLFAIJM@?$AAS?$AAe?$AAt?$AA?5?$AAM?$AAA?$AAC?$AA?5?$AAa?$AAd?$AAd?$AAr?$AAe?$AAs?$AAs?$AA?$AA@| [ DATA ] ; `string'
	EXPORT	|??_C@_1M@NJLEOPAB@?$AAV?$AAM?$AAI?$AAN?$AAI?$AA?$AA@| [ DATA ] ; `string'
	EXPORT	|??_C@_1CK@OKOLJFGH@?$AAE?$AAn?$AAa?$AAb?$AAl?$AAe?$AA?1?$AAd?$AAi?$AAs?$AAa?$AAb?$AAl?$AAe?$AA?5?$AAV?$AAM?$AAI?$AAN?$AAI?$AA?$AA@| [ DATA ] ; `string'
	EXPORT	|??_C@_1BO@BODFGHPI@?$AAD?$AAe?$AAf?$AAa?$AAu?$AAl?$AAt?$AA?5?$AAr?$AAo?$AAu?$AAt?$AAe?$AAr?$AA?$AA@| [ DATA ] ; `string'
	EXPORT	|??_C@_1CG@PDJPJAON@?$AAS?$AAe?$AAt?$AA?5?$AAd?$AAe?$AAf?$AAa?$AAu?$AAl?$AAt?$AA?5?$AAr?$AAo?$AAu?$AAt?$AAe?$AAr?$AA?$AA@| [ DATA ] ; `string'
	EXPORT	|??_C@_1BI@BNFAJPCD@?$AAS?$AAe?$AAt?$AA?5?$AAI?$AAP?$AA?5?$AAm?$AAa?$AAs?$AAk?$AA?$AA@| [ DATA ] ; `string'
	EXPORT	|??_C@_1O@HAMLNBEA@?$AAD?$AAe?$AAv?$AAi?$AAc?$AAe?$AA?$AA@| [ DATA ] ; `string'
	EXPORT	|??_C@_1BO@OBBADFOO@?$AAS?$AAe?$AAt?$AA?5?$AAI?$AAP?$AA?5?$AAa?$AAd?$AAd?$AAr?$AAe?$AAs?$AAs?$AA?$AA@| [ DATA ] ; `string'
	EXPORT	|??_C@_19DDJNJOGL@?$AAD?$AAH?$AAC?$AAP?$AA?$AA@| [ DATA ] ; `string'
	EXPORT	|??_C@_1CI@OHHEPHNA@?$AAE?$AAn?$AAa?$AAb?$AAl?$AAe?$AA?1?$AAd?$AAi?$AAs?$AAa?$AAb?$AAl?$AAe?$AA?5?$AAD?$AAH?$AAC?$AAP?$AA?$AA@| [ DATA ] ; `string'
	EXPORT	|??_C@_1DC@FMHJOEGL@?$AAK?$AAI?$AAT?$AAL?$AA?5?$AAA?$AAc?$AAt?$AAi?$AAv?$AAe?$AA?1?$AAP?$AAa?$AAs?$AAs?$AAi?$AAv?$AAe?$AA?5?$AAm?$AAo?$AAd?$AAe?$AA?$AA@| [ DATA ] ; `string'
	EXPORT	|??_C@_1DC@FHPHDMKC@?$AAK?$AAI?$AAT?$AAL?$AA?5?$AAi?$AAn?$AAt?$AAe?$AAr?$AAr?$AAu?$AAp?$AAt?$AA?1?$AAp?$AAo?$AAl?$AAl?$AA?5?$AAm?$AAo?$AAd?$AAe?$AA?$AA@| [ DATA ] ; `string'
	EXPORT	|??_C@_19KCABPHM@?$AAK?$AAI?$AAT?$AAL?$AA?$AA@| [ DATA ] ; `string'
	EXPORT	|??_C@_1CI@NOMJHGMH@?$AAE?$AAn?$AAa?$AAb?$AAl?$AAe?$AA?1?$AAd?$AAi?$AAs?$AAa?$AAb?$AAl?$AAe?$AA?5?$AAK?$AAI?$AAT?$AAL?$AA?$AA@| [ DATA ] ; `string'
	EXPORT	|??_C@_1CM@CFLHLMJF@?$AAS?$AAh?$AAo?$AAw?$AA?5?$AAC?$AAu?$AAr?$AAr?$AAe?$AAn?$AAt?$AA?5?$AAS?$AAe?$AAt?$AAt?$AAi?$AAn?$AAg?$AAs?$AA?$AA@| [ DATA ] ; `string'
	EXPORT	|dispResMenu| [ DATA ]
	EXPORT	|oppModeMenu35x| [ DATA ]
	EXPORT	|oppModeMenu37x| [ DATA ]
	IMPORT	|g_menuFlash|
	IMPORT	|OALBLMenuShow|
	IMPORT	|g_kitlDevices|
	IMPORT	|g_bootDevices|
	IMPORT	|OALBLMenuSelectDevice|
	IMPORT	|OALBLMenuSetIpMask|
	IMPORT	|OALBLMenuSetIpAddress|
	IMPORT	|g_bootCfg|
	IMPORT	|OALBLMenuEnable|

  00000			 AREA	 |.rdata|, DATA, READONLY
|??_C@_1FK@IBMDHDI@?$AAM?$AAP?$AAU?$AA?$FL?$AA1?$AA0?$AA0?$AA0?$AAM?$AAh?$AAz?$AA?5?$AA?$EA?$AA?5?$AA1?$AA?4?$AA3?$AA7?$AA5?$AAV?$AA?$FN?$AA?0?$AA?5?$AAI?$AAV?$AAA?$AA2?$AA?$FL?$AA8?$AA0?$AA0?$AAM@| DCB "M"
	DCB	0x0, "P", 0x0, "U", 0x0, "[", 0x0, "1", 0x0, "0", 0x0, "0"
	DCB	0x0, "0", 0x0, "M", 0x0, "h", 0x0, "z", 0x0, " ", 0x0, "@"
	DCB	0x0, " ", 0x0, "1", 0x0, ".", 0x0, "3", 0x0, "7", 0x0, "5"
	DCB	0x0, "V", 0x0, "]", 0x0, ",", 0x0, " ", 0x0, "I", 0x0, "V"
	DCB	0x0, "A", 0x0, "2", 0x0, "[", 0x0, "8", 0x0, "0", 0x0, "0"
	DCB	0x0, "M", 0x0, "h", 0x0, "z", 0x0, " ", 0x0, "@", 0x0, " "
	DCB	0x0, "1", 0x0, ".", 0x0, "3", 0x0, "7", 0x0, "5", 0x0, "V"
	DCB	0x0, "]", 0x0, 0x0, 0x0			; `string'

  00000			 AREA	 |.rdata|, DATA, READONLY
|??_C@_1FO@MCHCGGFD@?$AAM?$AAP?$AAU?$AA?$FL?$AA8?$AA0?$AA0?$AAM?$AAh?$AAz?$AA?5?$AA?5?$AA?$EA?$AA?5?$AA1?$AA?4?$AA2?$AA6?$AA2?$AA5?$AAV?$AA?$FN?$AA?0?$AA?5?$AAI?$AAV?$AAA?$AA2?$AA?$FL?$AA6?$AA6?$AA0@| DCB "M"
	DCB	0x0, "P", 0x0, "U", 0x0, "[", 0x0, "8", 0x0, "0", 0x0, "0"
	DCB	0x0, "M", 0x0, "h", 0x0, "z", 0x0, " ", 0x0, " ", 0x0, "@"
	DCB	0x0, " ", 0x0, "1", 0x0, ".", 0x0, "2", 0x0, "6", 0x0, "2"
	DCB	0x0, "5", 0x0, "V", 0x0, "]", 0x0, ",", 0x0, " ", 0x0, "I"
	DCB	0x0, "V", 0x0, "A", 0x0, "2", 0x0, "[", 0x0, "6", 0x0, "6"
	DCB	0x0, "0", 0x0, "M", 0x0, "h", 0x0, "z", 0x0, " ", 0x0, "@"
	DCB	0x0, " ", 0x0, "1", 0x0, ".", 0x0, "2", 0x0, "6", 0x0, "2"
	DCB	0x0, "5", 0x0, "V", 0x0, "]", 0x0, 0x0, 0x0 ; `string'

  00000			 AREA	 |.rdata|, DATA, READONLY
|??_C@_1FO@CAGHGIKC@?$AAM?$AAP?$AAU?$AA?$FL?$AA6?$AA0?$AA0?$AAM?$AAh?$AAz?$AA?5?$AA?5?$AA?$EA?$AA?5?$AA1?$AA?4?$AA1?$AA0?$AA0?$AA0?$AAV?$AA?$FN?$AA?0?$AA?5?$AAI?$AAV?$AAA?$AA2?$AA?$FL?$AA5?$AA2?$AA0@| DCB "M"
	DCB	0x0, "P", 0x0, "U", 0x0, "[", 0x0, "6", 0x0, "0", 0x0, "0"
	DCB	0x0, "M", 0x0, "h", 0x0, "z", 0x0, " ", 0x0, " ", 0x0, "@"
	DCB	0x0, " ", 0x0, "1", 0x0, ".", 0x0, "1", 0x0, "0", 0x0, "0"
	DCB	0x0, "0", 0x0, "V", 0x0, "]", 0x0, ",", 0x0, " ", 0x0, "I"
	DCB	0x0, "V", 0x0, "A", 0x0, "2", 0x0, "[", 0x0, "5", 0x0, "2"
	DCB	0x0, "0", 0x0, "M", 0x0, "h", 0x0, "z", 0x0, " ", 0x0, "@"
	DCB	0x0, " ", 0x0, "1", 0x0, ".", 0x0, "1", 0x0, "0", 0x0, "0"
	DCB	0x0, "0", 0x0, "V", 0x0, "]", 0x0, 0x0, 0x0 ; `string'

  00000			 AREA	 |.rdata|, DATA, READONLY
|??_C@_1FO@ELABMNJD@?$AAM?$AAP?$AAU?$AA?$FL?$AA3?$AA0?$AA0?$AAM?$AAh?$AAz?$AA?5?$AA?5?$AA?$EA?$AA?5?$AA0?$AA?4?$AA9?$AA3?$AA7?$AA5?$AAV?$AA?$FN?$AA?0?$AA?5?$AAI?$AAV?$AAA?$AA2?$AA?$FL?$AA2?$AA6?$AA0@| DCB "M"
	DCB	0x0, "P", 0x0, "U", 0x0, "[", 0x0, "3", 0x0, "0", 0x0, "0"
	DCB	0x0, "M", 0x0, "h", 0x0, "z", 0x0, " ", 0x0, " ", 0x0, "@"
	DCB	0x0, " ", 0x0, "0", 0x0, ".", 0x0, "9", 0x0, "3", 0x0, "7"
	DCB	0x0, "5", 0x0, "V", 0x0, "]", 0x0, ",", 0x0, " ", 0x0, "I"
	DCB	0x0, "V", 0x0, "A", 0x0, "2", 0x0, "[", 0x0, "2", 0x0, "6"
	DCB	0x0, "0", 0x0, "M", 0x0, "h", 0x0, "z", 0x0, " ", 0x0, "@"
	DCB	0x0, " ", 0x0, "0", 0x0, ".", 0x0, "9", 0x0, "3", 0x0, "7"
	DCB	0x0, "5", 0x0, "V", 0x0, "]", 0x0, 0x0, 0x0 ; `string'

  00000			 AREA	 |.rdata|, DATA, READONLY
|??_C@_1FG@KPBOKIAA@?$AAM?$AAP?$AAU?$AA?$FL?$AA7?$AA2?$AA0?$AAh?$AAz?$AA?5?$AA?$EA?$AA?5?$AA1?$AA?4?$AA3?$AA5?$AA0?$AA0?$AAV?$AA?$FN?$AA?0?$AA?5?$AAI?$AAV?$AAA?$AA2?$AA?$FL?$AA5?$AA2?$AA0?$AAM?$AAh@| DCB "M"
	DCB	0x0, "P", 0x0, "U", 0x0, "[", 0x0, "7", 0x0, "2", 0x0, "0"
	DCB	0x0, "h", 0x0, "z", 0x0, " ", 0x0, "@", 0x0, " ", 0x0, "1"
	DCB	0x0, ".", 0x0, "3", 0x0, "5", 0x0, "0", 0x0, "0", 0x0, "V"
	DCB	0x0, "]", 0x0, ",", 0x0, " ", 0x0, "I", 0x0, "V", 0x0, "A"
	DCB	0x0, "2", 0x0, "[", 0x0, "5", 0x0, "2", 0x0, "0", 0x0, "M"
	DCB	0x0, "h", 0x0, "z", 0x0, " ", 0x0, "@", 0x0, " ", 0x0, "1"
	DCB	0x0, ".", 0x0, "3", 0x0, "5", 0x0, "V", 0x0, "]", 0x0, 0x0
	DCB	0x0					; `string'

  00000			 AREA	 |.rdata|, DATA, READONLY
|??_C@_1FI@GKLNGOFA@?$AAM?$AAP?$AAU?$AA?$FL?$AA6?$AA0?$AA0?$AAM?$AAh?$AAz?$AA?5?$AA?$EA?$AA?5?$AA1?$AA?4?$AA3?$AA5?$AA0?$AA0?$AAV?$AA?$FN?$AA?0?$AA?5?$AAI?$AAV?$AAA?$AA2?$AA?$FL?$AA4?$AA3?$AA0?$AAM@| DCB "M"
	DCB	0x0, "P", 0x0, "U", 0x0, "[", 0x0, "6", 0x0, "0", 0x0, "0"
	DCB	0x0, "M", 0x0, "h", 0x0, "z", 0x0, " ", 0x0, "@", 0x0, " "
	DCB	0x0, "1", 0x0, ".", 0x0, "3", 0x0, "5", 0x0, "0", 0x0, "0"
	DCB	0x0, "V", 0x0, "]", 0x0, ",", 0x0, " ", 0x0, "I", 0x0, "V"
	DCB	0x0, "A", 0x0, "2", 0x0, "[", 0x0, "4", 0x0, "3", 0x0, "0"
	DCB	0x0, "M", 0x0, "h", 0x0, "z", 0x0, " ", 0x0, "@", 0x0, " "
	DCB	0x0, "1", 0x0, ".", 0x0, "3", 0x0, "5", 0x0, "V", 0x0, "]"
	DCB	0x0, 0x0, 0x0				; `string'

  00000			 AREA	 |.rdata|, DATA, READONLY
|??_C@_1FI@GMIAOKFE@?$AAM?$AAP?$AAU?$AA?$FL?$AA5?$AA5?$AA0?$AAM?$AAh?$AAz?$AA?5?$AA?$EA?$AA?5?$AA1?$AA?4?$AA2?$AA7?$AA5?$AA0?$AAV?$AA?$FN?$AA?0?$AA?5?$AAI?$AAV?$AAA?$AA2?$AA?$FL?$AA4?$AA0?$AA0?$AAM@| DCB "M"
	DCB	0x0, "P", 0x0, "U", 0x0, "[", 0x0, "5", 0x0, "5", 0x0, "0"
	DCB	0x0, "M", 0x0, "h", 0x0, "z", 0x0, " ", 0x0, "@", 0x0, " "
	DCB	0x0, "1", 0x0, ".", 0x0, "2", 0x0, "7", 0x0, "5", 0x0, "0"
	DCB	0x0, "V", 0x0, "]", 0x0, ",", 0x0, " ", 0x0, "I", 0x0, "V"
	DCB	0x0, "A", 0x0, "2", 0x0, "[", 0x0, "4", 0x0, "0", 0x0, "0"
	DCB	0x0, "M", 0x0, "h", 0x0, "z", 0x0, " ", 0x0, "@", 0x0, " "
	DCB	0x0, "1", 0x0, ".", 0x0, "2", 0x0, "7", 0x0, "V", 0x0, "]"
	DCB	0x0, 0x0, 0x0				; `string'

  00000			 AREA	 |.rdata|, DATA, READONLY
|??_C@_1FI@LNIHINJA@?$AAM?$AAP?$AAU?$AA?$FL?$AA5?$AA0?$AA0?$AAM?$AAh?$AAz?$AA?5?$AA?$EA?$AA?5?$AA1?$AA?4?$AA2?$AA0?$AA0?$AA0?$AAV?$AA?$FN?$AA?0?$AA?5?$AAI?$AAV?$AAA?$AA2?$AA?$FL?$AA3?$AA6?$AA0?$AAM@| DCB "M"
	DCB	0x0, "P", 0x0, "U", 0x0, "[", 0x0, "5", 0x0, "0", 0x0, "0"
	DCB	0x0, "M", 0x0, "h", 0x0, "z", 0x0, " ", 0x0, "@", 0x0, " "
	DCB	0x0, "1", 0x0, ".", 0x0, "2", 0x0, "0", 0x0, "0", 0x0, "0"
	DCB	0x0, "V", 0x0, "]", 0x0, ",", 0x0, " ", 0x0, "I", 0x0, "V"
	DCB	0x0, "A", 0x0, "2", 0x0, "[", 0x0, "3", 0x0, "6", 0x0, "0"
	DCB	0x0, "M", 0x0, "h", 0x0, "z", 0x0, " ", 0x0, "@", 0x0, " "
	DCB	0x0, "1", 0x0, ".", 0x0, "2", 0x0, "0", 0x0, "V", 0x0, "]"
	DCB	0x0, 0x0, 0x0				; `string'

  00000			 AREA	 |.rdata|, DATA, READONLY
|??_C@_1FG@IMGDNCBP@?$AAM?$AAP?$AAU?$AA?$FL?$AA2?$AA5?$AA0?$AAM?$AAh?$AAz?$AA?5?$AA?$EA?$AA?5?$AA1?$AA?4?$AA0?$AA0?$AA0?$AAV?$AA?$FN?$AA?0?$AA?5?$AAI?$AAV?$AAA?$AA2?$AA?$FL?$AA1?$AA8?$AA0?$AAM?$AAh@| DCB "M"
	DCB	0x0, "P", 0x0, "U", 0x0, "[", 0x0, "2", 0x0, "5", 0x0, "0"
	DCB	0x0, "M", 0x0, "h", 0x0, "z", 0x0, " ", 0x0, "@", 0x0, " "
	DCB	0x0, "1", 0x0, ".", 0x0, "0", 0x0, "0", 0x0, "0", 0x0, "V"
	DCB	0x0, "]", 0x0, ",", 0x0, " ", 0x0, "I", 0x0, "V", 0x0, "A"
	DCB	0x0, "2", 0x0, "[", 0x0, "1", 0x0, "8", 0x0, "0", 0x0, "M"
	DCB	0x0, "h", 0x0, "z", 0x0, " ", 0x0, "@", 0x0, " ", 0x0, "1"
	DCB	0x0, ".", 0x0, "0", 0x0, "0", 0x0, "V", 0x0, "]", 0x0, 0x0
	DCB	0x0					; `string'

  00000			 AREA	 |.rdata|, DATA, READONLY
|??_C@_1FI@HKFGBOFG@?$AAM?$AAP?$AAU?$AA?$FL?$AA1?$AA2?$AA5?$AAM?$AAh?$AAz?$AA?5?$AA?$EA?$AA?5?$AA0?$AA?4?$AA9?$AA7?$AA5?$AAV?$AA?$FN?$AA?0?$AA?5?$AAI?$AAV?$AAA?$AA2?$AA?$FL?$AA?5?$AA9?$AA0?$AAM?$AAh@| DCB "M"
	DCB	0x0, "P", 0x0, "U", 0x0, "[", 0x0, "1", 0x0, "2", 0x0, "5"
	DCB	0x0, "M", 0x0, "h", 0x0, "z", 0x0, " ", 0x0, "@", 0x0, " "
	DCB	0x0, "0", 0x0, ".", 0x0, "9", 0x0, "7", 0x0, "5", 0x0, "V"
	DCB	0x0, "]", 0x0, ",", 0x0, " ", 0x0, "I", 0x0, "V", 0x0, "A"
	DCB	0x0, "2", 0x0, "[", 0x0, " ", 0x0, "9", 0x0, "0", 0x0, "M"
	DCB	0x0, "h", 0x0, "z", 0x0, " ", 0x0, "@", 0x0, " ", 0x0, "0"
	DCB	0x0, ".", 0x0, "9", 0x0, "7", 0x0, "5", 0x0, "V", 0x0, "]"
	DCB	0x0, 0x0, 0x0				; `string'

  00000			 AREA	 |.rdata|, DATA, READONLY
|??_C@_1BM@KBHAINFM@?$AAI?$AAn?$AAv?$AAa?$AAl?$AAi?$AAd?$AA?5?$AAE?$AAn?$AAt?$AAr?$AAy?$AA?$AA@| DCB "I"
	DCB	0x0, "n", 0x0, "v", 0x0, "a", 0x0, "l", 0x0, "i", 0x0, "d"
	DCB	0x0, " ", 0x0, "E", 0x0, "n", 0x0, "t", 0x0, "r", 0x0, "y"
	DCB	0x0, 0x0, 0x0				; `string'

  00000			 AREA	 |.rdata|, DATA, READONLY
|??_C@_1CE@BMIKEEML@?$AAD?$AAV?$AAI?$AA?5?$AA1?$AA2?$AA8?$AA0?$AAx?$AA7?$AA2?$AA0?$AA?5?$AA6?$AA0?$AAH?$AAz?$AA?$AA@| DCB "D"
	DCB	0x0, "V", 0x0, "I", 0x0, " ", 0x0, "1", 0x0, "2", 0x0, "8"
	DCB	0x0, "0", 0x0, "x", 0x0, "7", 0x0, "2", 0x0, "0", 0x0, " "
	DCB	0x0, "6", 0x0, "0", 0x0, "H", 0x0, "z", 0x0, 0x0, 0x0 ; `string'

  00000			 AREA	 |.rdata|, DATA, READONLY
|??_C@_1CE@LJDPDOKE@?$AAD?$AAV?$AAI?$AA?5?$AA1?$AA0?$AA2?$AA4?$AAx?$AA7?$AA6?$AA8?$AA?5?$AA6?$AA0?$AAH?$AAz?$AA?$AA@| DCB "D"
	DCB	0x0, "V", 0x0, "I", 0x0, " ", 0x0, "1", 0x0, "0", 0x0, "2"
	DCB	0x0, "4", 0x0, "x", 0x0, "7", 0x0, "6", 0x0, "8", 0x0, " "
	DCB	0x0, "6", 0x0, "0", 0x0, "H", 0x0, "z", 0x0, 0x0, 0x0 ; `string'

  00000			 AREA	 |.rdata|, DATA, READONLY
|??_C@_1CE@NBKEBDGN@?$AAD?$AAV?$AAI?$AA?5?$AA?5?$AA8?$AA0?$AA0?$AAx?$AA6?$AA0?$AA0?$AA?5?$AA5?$AA6?$AAH?$AAz?$AA?$AA@| DCB "D"
	DCB	0x0, "V", 0x0, "I", 0x0, " ", 0x0, " ", 0x0, "8", 0x0, "0"
	DCB	0x0, "0", 0x0, "x", 0x0, "6", 0x0, "0", 0x0, "0", 0x0, " "
	DCB	0x0, "5", 0x0, "6", 0x0, "H", 0x0, "z", 0x0, 0x0, 0x0 ; `string'

  00000			 AREA	 |.rdata|, DATA, READONLY
|??_C@_1CE@PMPMKBOJ@?$AAD?$AAV?$AAI?$AA?5?$AA?5?$AA8?$AA0?$AA0?$AAx?$AA6?$AA0?$AA0?$AA?5?$AA6?$AA0?$AAH?$AAz?$AA?$AA@| DCB "D"
	DCB	0x0, "V", 0x0, "I", 0x0, " ", 0x0, " ", 0x0, "8", 0x0, "0"
	DCB	0x0, "0", 0x0, "x", 0x0, "6", 0x0, "0", 0x0, "0", 0x0, " "
	DCB	0x0, "6", 0x0, "0", 0x0, "H", 0x0, "z", 0x0, 0x0, 0x0 ; `string'

  00000			 AREA	 |.rdata|, DATA, READONLY
|??_C@_1CE@IKDLFFCF@?$AAD?$AAV?$AAI?$AA?5?$AA?5?$AA8?$AA0?$AA0?$AAx?$AA4?$AA8?$AA0?$AA?5?$AA6?$AA0?$AAH?$AAz?$AA?$AA@| DCB "D"
	DCB	0x0, "V", 0x0, "I", 0x0, " ", 0x0, " ", 0x0, "8", 0x0, "0"
	DCB	0x0, "0", 0x0, "x", 0x0, "4", 0x0, "8", 0x0, "0", 0x0, " "
	DCB	0x0, "6", 0x0, "0", 0x0, "H", 0x0, "z", 0x0, 0x0, 0x0 ; `string'

  00000			 AREA	 |.rdata|, DATA, READONLY
|??_C@_1CE@CECNFHDE@?$AAD?$AAV?$AAI?$AA?5?$AA?5?$AA6?$AA4?$AA0?$AAx?$AA4?$AA8?$AA0?$AA?5?$AA7?$AA2?$AAH?$AAz?$AA?$AA@| DCB "D"
	DCB	0x0, "V", 0x0, "I", 0x0, " ", 0x0, " ", 0x0, "6", 0x0, "4"
	DCB	0x0, "0", 0x0, "x", 0x0, "4", 0x0, "8", 0x0, "0", 0x0, " "
	DCB	0x0, "7", 0x0, "2", 0x0, "H", 0x0, "z", 0x0, 0x0, 0x0 ; `string'

  00000			 AREA	 |.rdata|, DATA, READONLY
|??_C@_1CE@IJMKDLHH@?$AAD?$AAV?$AAI?$AA?5?$AA?5?$AA6?$AA4?$AA0?$AAx?$AA4?$AA8?$AA0?$AA?5?$AA6?$AA0?$AAH?$AAz?$AA?$AA@| DCB "D"
	DCB	0x0, "V", 0x0, "I", 0x0, " ", 0x0, " ", 0x0, "6", 0x0, "4"
	DCB	0x0, "0", 0x0, "x", 0x0, "4", 0x0, "8", 0x0, "0", 0x0, " "
	DCB	0x0, "6", 0x0, "0", 0x0, "H", 0x0, "z", 0x0, 0x0, 0x0 ; `string'

  00000			 AREA	 |.rdata|, DATA, READONLY
|??_C@_1CE@FKEPMAF@?$AAL?$AAC?$AAD?$AA?5?$AA?5?$AA4?$AA8?$AA0?$AAx?$AA6?$AA4?$AA0?$AA?5?$AA6?$AA0?$AAH?$AAz?$AA?$AA@| DCB "L"
	DCB	0x0, "C", 0x0, "D", 0x0, " ", 0x0, " ", 0x0, "4", 0x0, "8"
	DCB	0x0, "0", 0x0, "x", 0x0, "6", 0x0, "4", 0x0, "0", 0x0, " "
	DCB	0x0, "6", 0x0, "0", 0x0, "H", 0x0, "z", 0x0, 0x0, 0x0 ; `string'

  00000			 AREA	 |.rdata|, DATA, READONLY
|??_C@_1BE@FNAHCCDL@?$AAM?$AAa?$AAi?$AAn?$AA?5?$AAM?$AAe?$AAn?$AAu?$AA?$AA@| DCB "M"
	DCB	0x0, "a", 0x0, "i", 0x0, "n", 0x0, " ", 0x0, "M", 0x0, "e"
	DCB	0x0, "n", 0x0, "u", 0x0, 0x0, 0x0	; `string'

  00000			 AREA	 |.rdata|, DATA, READONLY
|??_C@_1CA@MOPOGELI@?$AAS?$AAe?$AAl?$AAe?$AAc?$AAt?$AA?5?$AAO?$AAP?$AAP?$AA?5?$AAM?$AAo?$AAd?$AAe?$AA?$AA@| DCB "S"
	DCB	0x0, "e", 0x0, "l", 0x0, "e", 0x0, "c", 0x0, "t", 0x0, " "
	DCB	0x0, "O", 0x0, "P", 0x0, "P", 0x0, " ", 0x0, "M", 0x0, "o"
	DCB	0x0, "d", 0x0, "e", 0x0, 0x0, 0x0	; `string'

  00000			 AREA	 |.rdata|, DATA, READONLY
|??_C@_1DE@DBBLEEO@?$AAS?$AAe?$AAl?$AAe?$AAc?$AAt?$AA?5?$AAD?$AAi?$AAs?$AAp?$AAl?$AAa?$AAy?$AA?5?$AAR?$AAe?$AAs?$AAo?$AAl?$AAu?$AAt?$AAi?$AAo?$AAn?$AA?$AA@| DCB "S"
	DCB	0x0, "e", 0x0, "l", 0x0, "e", 0x0, "c", 0x0, "t", 0x0, " "
	DCB	0x0, "D", 0x0, "i", 0x0, "s", 0x0, "p", 0x0, "l", 0x0, "a"
	DCB	0x0, "y", 0x0, " ", 0x0, "R", 0x0, "e", 0x0, "s", 0x0, "o"
	DCB	0x0, "l", 0x0, "u", 0x0, "t", 0x0, "i", 0x0, "o", 0x0, "n"
	DCB	0x0, 0x0, 0x0				; `string'

  00000			 AREA	 |.rdata|, DATA, READONLY
|??_C@_1EG@HMEOLENI@?$AAE?$AAn?$AAa?$AAb?$AAl?$AAe?$AA?1?$AAD?$AAi?$AAs?$AAa?$AAb?$AAl?$AAe?$AA?5?$AAO?$AAA?$AAL?$AA?5?$AAR?$AAe?$AAt?$AAa?$AAi?$AAl?$AA?5?$AAM?$AAe?$AAs?$AAs?$AAa?$AAg@| DCB "E"
	DCB	0x0, "n", 0x0, "a", 0x0, "b", 0x0, "l", 0x0, "e", 0x0, "/"
	DCB	0x0, "D", 0x0, "i", 0x0, "s", 0x0, "a", 0x0, "b", 0x0, "l"
	DCB	0x0, "e", 0x0, " ", 0x0, "O", 0x0, "A", 0x0, "L", 0x0, " "
	DCB	0x0, "R", 0x0, "e", 0x0, "t", 0x0, "a", 0x0, "i", 0x0, "l"
	DCB	0x0, " ", 0x0, "M", 0x0, "e", 0x0, "s", 0x0, "s", 0x0, "a"
	DCB	0x0, "g", 0x0, "e", 0x0, "s", 0x0, 0x0, 0x0 ; `string'

  00000			 AREA	 |.rdata|, DATA, READONLY
|??_C@_1BM@MOEMNNDE@?$AAS?$AAa?$AAv?$AAe?$AA?5?$AAS?$AAe?$AAt?$AAt?$AAi?$AAn?$AAg?$AAs?$AA?$AA@| DCB "S"
	DCB	0x0, "a", 0x0, "v", 0x0, "e", 0x0, " ", 0x0, "S", 0x0, "e"
	DCB	0x0, "t", 0x0, "t", 0x0, "i", 0x0, "n", 0x0, "g", 0x0, "s"
	DCB	0x0, 0x0, 0x0				; `string'

  00000			 AREA	 |.rdata|, DATA, READONLY
|??_C@_1BM@LAACEGCM@?$AAS?$AAe?$AAt?$AA?5?$AAD?$AAe?$AAv?$AAi?$AAc?$AAe?$AA?5?$AAI?$AAD?$AA?$AA@| DCB "S"
	DCB	0x0, "e", 0x0, "t", 0x0, " ", 0x0, "D", 0x0, "e", 0x0, "v"
	DCB	0x0, "i", 0x0, "c", 0x0, "e", 0x0, " ", 0x0, "I", 0x0, "D"
	DCB	0x0, 0x0, 0x0				; `string'

  00000			 AREA	 |.rdata|, DATA, READONLY
|??_C@_1CC@GBKCLJHP@?$AAF?$AAl?$AAa?$AAs?$AAh?$AA?5?$AAM?$AAa?$AAn?$AAa?$AAg?$AAe?$AAm?$AAe?$AAn?$AAt?$AA?$AA@| DCB "F"
	DCB	0x0, "l", 0x0, "a", 0x0, "s", 0x0, "h", 0x0, " ", 0x0, "M"
	DCB	0x0, "a", 0x0, "n", 0x0, "a", 0x0, "g", 0x0, "e", 0x0, "m"
	DCB	0x0, "e", 0x0, "n", 0x0, "t", 0x0, 0x0, 0x0 ; `string'

  00000			 AREA	 |.rdata|, DATA, READONLY
|??_C@_1CC@PCCBMLKB@?$AAN?$AAe?$AAt?$AAw?$AAo?$AAr?$AAk?$AA?5?$AAS?$AAe?$AAt?$AAt?$AAi?$AAn?$AAg?$AAs?$AA?$AA@| DCB "N"
	DCB	0x0, "e", 0x0, "t", 0x0, "w", 0x0, "o", 0x0, "r", 0x0, "k"
	DCB	0x0, " ", 0x0, "S", 0x0, "e", 0x0, "t", 0x0, "t", 0x0, "i"
	DCB	0x0, "n", 0x0, "g", 0x0, "s", 0x0, 0x0, 0x0 ; `string'

  00000			 AREA	 |.rdata|, DATA, READONLY
|??_C@_1M@OPFBIOCF@?$AAD?$AAe?$AAb?$AAu?$AAg?$AA?$AA@| DCB "D", 0x0, "e", 0x0
	DCB	"b", 0x0, "u", 0x0, "g", 0x0, 0x0, 0x0	; `string'

  00000			 AREA	 |.rdata|, DATA, READONLY
|??_C@_1DG@LLAJHPJA@?$AAS?$AAe?$AAl?$AAe?$AAc?$AAt?$AA?5?$AAK?$AAI?$AAT?$AAL?$AA?5?$AA?$CI?$AAD?$AAe?$AAb?$AAu?$AAg?$AA?$CJ?$AA?5?$AAD?$AAe?$AAv?$AAi?$AAc?$AAe?$AA?$AA@| DCB "S"
	DCB	0x0, "e", 0x0, "l", 0x0, "e", 0x0, "c", 0x0, "t", 0x0, " "
	DCB	0x0, "K", 0x0, "I", 0x0, "T", 0x0, "L", 0x0, " ", 0x0, "("
	DCB	0x0, "D", 0x0, "e", 0x0, "b", 0x0, "u", 0x0, "g", 0x0, ")"
	DCB	0x0, " ", 0x0, "D", 0x0, "e", 0x0, "v", 0x0, "i", 0x0, "c"
	DCB	0x0, "e", 0x0, 0x0, 0x0			; `string'

  00000			 AREA	 |.rdata|, DATA, READONLY
|??_C@_19JCAOHIEH@?$AAB?$AAo?$AAo?$AAt?$AA?$AA@| DCB "B", 0x0, "o", 0x0, "o"
	DCB	0x0, "t", 0x0, 0x0, 0x0			; `string'

  00000			 AREA	 |.rdata|, DATA, READONLY
|??_C@_1CG@BBALNGAE@?$AAS?$AAe?$AAl?$AAe?$AAc?$AAt?$AA?5?$AAB?$AAo?$AAo?$AAt?$AA?5?$AAD?$AAe?$AAv?$AAi?$AAc?$AAe?$AA?$AA@| DCB "S"
	DCB	0x0, "e", 0x0, "l", 0x0, "e", 0x0, "c", 0x0, "t", 0x0, " "
	DCB	0x0, "B", 0x0, "o", 0x0, "o", 0x0, "t", 0x0, " ", 0x0, "D"
	DCB	0x0, "e", 0x0, "v", 0x0, "i", 0x0, "c", 0x0, "e", 0x0, 0x0
	DCB	0x0					; `string'

  00000			 AREA	 |.data|, DATA
|g_menuNetwork| DCW 0x31
	%	2
	DCD	|??_C@_1CM@CFLHLMJF@?$AAS?$AAh?$AAo?$AAw?$AA?5?$AAC?$AAu?$AAr?$AAr?$AAe?$AAn?$AAt?$AA?5?$AAS?$AAe?$AAt?$AAt?$AAi?$AAn?$AAg?$AAs?$AA?$AA@|
	DCD	|ShowNetworkSettings|
	DCD	0x0
	DCD	0x0
	DCD	0x0
	DCW	0x32
	%	2
	DCD	|??_C@_1CI@NOMJHGMH@?$AAE?$AAn?$AAa?$AAb?$AAl?$AAe?$AA?1?$AAd?$AAi?$AAs?$AAa?$AAb?$AAl?$AAe?$AA?5?$AAK?$AAI?$AAT?$AAL?$AA?$AA@|
	DCD	|OALBLMenuEnable|
	DCD	|??_C@_19KCABPHM@?$AAK?$AAI?$AAT?$AAL?$AA?$AA@|
	DCD	|g_bootCfg|+48
	DCD	0x1
	DCW	0x33
	%	2
	DCD	|??_C@_1DC@FHPHDMKC@?$AAK?$AAI?$AAT?$AAL?$AA?5?$AAi?$AAn?$AAt?$AAe?$AAr?$AAr?$AAu?$AAp?$AAt?$AA?1?$AAp?$AAo?$AAl?$AAl?$AA?5?$AAm?$AAo?$AAd?$AAe?$AA?$AA@|
	DCD	|SetKitlMode|
	DCD	0x0
	DCD	0x0
	DCD	0x0
	DCW	0x34
	%	2
	DCD	|??_C@_1DC@FMHJOEGL@?$AAK?$AAI?$AAT?$AAL?$AA?5?$AAA?$AAc?$AAt?$AAi?$AAv?$AAe?$AA?1?$AAP?$AAa?$AAs?$AAs?$AAi?$AAv?$AAe?$AA?5?$AAm?$AAo?$AAd?$AAe?$AA?$AA@|
	DCD	|SetKitlType|
	DCD	0x0
	DCD	0x0
	DCD	0x0
	DCW	0x35
	%	2
	DCD	|??_C@_1CI@OHHEPHNA@?$AAE?$AAn?$AAa?$AAb?$AAl?$AAe?$AA?1?$AAd?$AAi?$AAs?$AAa?$AAb?$AAl?$AAe?$AA?5?$AAD?$AAH?$AAC?$AAP?$AA?$AA@|
	DCD	|OALBLMenuEnable|
	DCD	|??_C@_19DDJNJOGL@?$AAD?$AAH?$AAC?$AAP?$AA?$AA@|
	DCD	|g_bootCfg|+48
	DCD	0x4
	DCW	0x36
	%	2
	DCD	|??_C@_1BO@OBBADFOO@?$AAS?$AAe?$AAt?$AA?5?$AAI?$AAP?$AA?5?$AAa?$AAd?$AAd?$AAr?$AAe?$AAs?$AAs?$AA?$AA@|
	DCD	|OALBLMenuSetIpAddress|
	DCD	|??_C@_1O@HAMLNBEA@?$AAD?$AAe?$AAv?$AAi?$AAc?$AAe?$AA?$AA@|
	DCD	|g_bootCfg|+56
	DCD	0x0
	DCW	0x37
	%	2
	DCD	|??_C@_1BI@BNFAJPCD@?$AAS?$AAe?$AAt?$AA?5?$AAI?$AAP?$AA?5?$AAm?$AAa?$AAs?$AAk?$AA?$AA@|
	DCD	|OALBLMenuSetIpMask|
	DCD	|??_C@_1O@HAMLNBEA@?$AAD?$AAe?$AAv?$AAi?$AAc?$AAe?$AA?$AA@|
	DCD	|g_bootCfg|+60
	DCD	0x0
	DCW	0x38
	%	2
	DCD	|??_C@_1CG@PDJPJAON@?$AAS?$AAe?$AAt?$AA?5?$AAd?$AAe?$AAf?$AAa?$AAu?$AAl?$AAt?$AA?5?$AAr?$AAo?$AAu?$AAt?$AAe?$AAr?$AA?$AA@|
	DCD	|OALBLMenuSetIpAddress|
	DCD	|??_C@_1BO@BODFGHPI@?$AAD?$AAe?$AAf?$AAa?$AAu?$AAl?$AAt?$AA?5?$AAr?$AAo?$AAu?$AAt?$AAe?$AAr?$AA?$AA@|
	DCD	|g_bootCfg|+64
	DCD	0x0
	DCW	0x39
	%	2
	DCD	|??_C@_1CK@OKOLJFGH@?$AAE?$AAn?$AAa?$AAb?$AAl?$AAe?$AA?1?$AAd?$AAi?$AAs?$AAa?$AAb?$AAl?$AAe?$AA?5?$AAV?$AAM?$AAI?$AAN?$AAI?$AA?$AA@|
	DCD	|OALBLMenuEnable|
	DCD	|??_C@_1M@NJLEOPAB@?$AAV?$AAM?$AAI?$AAN?$AAI?$AA?$AA@|
	DCD	|g_bootCfg|+48
	DCD	0x8
	DCW	0x61
	%	2
	DCD	|??_C@_1CA@LLFAIJM@?$AAS?$AAe?$AAt?$AA?5?$AAM?$AAA?$AAC?$AA?5?$AAa?$AAd?$AAd?$AAr?$AAe?$AAs?$AAs?$AA?$AA@|
	DCD	|SetMacAddress|
	DCD	0x0
	DCD	0x0
	DCD	0x0
	DCW	0x30
	%	2
	DCD	|??_C@_1CE@DFLFAFMD@?$AAE?$AAx?$AAi?$AAt?$AA?5?$AAa?$AAn?$AAd?$AA?5?$AAC?$AAo?$AAn?$AAt?$AAi?$AAn?$AAu?$AAe?$AA?$AA@|
	DCD	0x0
	DCD	0x0
	DCD	0x0
	DCD	0x0
	DCW	0x0
	%	2
	DCD	0x0
	DCD	0x0
	DCD	0x0
	DCD	0x0
	DCD	0x0
|g_menuMain| DCW 0x31
	%	2
	DCD	|??_C@_1CM@CFLHLMJF@?$AAS?$AAh?$AAo?$AAw?$AA?5?$AAC?$AAu?$AAr?$AAr?$AAe?$AAn?$AAt?$AA?5?$AAS?$AAe?$AAt?$AAt?$AAi?$AAn?$AAg?$AAs?$AA?$AA@|
	DCD	|ShowSettings|
	DCD	0x0
	DCD	0x0
	DCD	0x0
	DCW	0x32
	%	2
	DCD	|??_C@_1CG@BBALNGAE@?$AAS?$AAe?$AAl?$AAe?$AAc?$AAt?$AA?5?$AAB?$AAo?$AAo?$AAt?$AA?5?$AAD?$AAe?$AAv?$AAi?$AAc?$AAe?$AA?$AA@|
	DCD	|OALBLMenuSelectDevice|
	DCD	|??_C@_19JCAOHIEH@?$AAB?$AAo?$AAo?$AAt?$AA?$AA@|
	DCD	|g_bootCfg|+8
	DCD	|g_bootDevices|
	DCW	0x33
	%	2
	DCD	|??_C@_1DG@LLAJHPJA@?$AAS?$AAe?$AAl?$AAe?$AAc?$AAt?$AA?5?$AAK?$AAI?$AAT?$AAL?$AA?5?$AA?$CI?$AAD?$AAe?$AAb?$AAu?$AAg?$AA?$CJ?$AA?5?$AAD?$AAe?$AAv?$AAi?$AAc?$AAe?$AA?$AA@|
	DCD	|OALBLMenuSelectDevice|
	DCD	|??_C@_1M@OPFBIOCF@?$AAD?$AAe?$AAb?$AAu?$AAg?$AA?$AA@|
	DCD	|g_bootCfg|+28
	DCD	|g_kitlDevices|
	DCW	0x34
	%	2
	DCD	|??_C@_1CC@PCCBMLKB@?$AAN?$AAe?$AAt?$AAw?$AAo?$AAr?$AAk?$AA?5?$AAS?$AAe?$AAt?$AAt?$AAi?$AAn?$AAg?$AAs?$AA?$AA@|
	DCD	|OALBLMenuShow|
	DCD	|??_C@_1CC@PCCBMLKB@?$AAN?$AAe?$AAt?$AAw?$AAo?$AAr?$AAk?$AA?5?$AAS?$AAe?$AAt?$AAt?$AAi?$AAn?$AAg?$AAs?$AA?$AA@|
	DCD	|g_menuNetwork|
	DCD	0x0
	DCW	0x35
	%	2
	DCD	|??_C@_1CC@GBKCLJHP@?$AAF?$AAl?$AAa?$AAs?$AAh?$AA?5?$AAM?$AAa?$AAn?$AAa?$AAg?$AAe?$AAm?$AAe?$AAn?$AAt?$AA?$AA@|
	DCD	|OALBLMenuShow|
	DCD	|??_C@_1CC@GBKCLJHP@?$AAF?$AAl?$AAa?$AAs?$AAh?$AA?5?$AAM?$AAa?$AAn?$AAa?$AAg?$AAe?$AAm?$AAe?$AAn?$AAt?$AA?$AA@|
	DCD	|g_menuFlash|
	DCD	0x0
	DCW	0x36
	%	2
	DCD	|??_C@_1BM@LAACEGCM@?$AAS?$AAe?$AAt?$AA?5?$AAD?$AAe?$AAv?$AAi?$AAc?$AAe?$AA?5?$AAI?$AAD?$AA?$AA@|
	DCD	|SetDeviceID|
	DCD	0x0
	DCD	0x0
	DCD	0x0
	DCW	0x37
	%	2
	DCD	|??_C@_1BM@MOEMNNDE@?$AAS?$AAa?$AAv?$AAe?$AA?5?$AAS?$AAe?$AAt?$AAt?$AAi?$AAn?$AAg?$AAs?$AA?$AA@|
	DCD	|SaveSettings|
	DCD	0x0
	DCD	0x0
	DCD	0x0
	DCW	0x38
	%	2
	DCD	|??_C@_1EG@HMEOLENI@?$AAE?$AAn?$AAa?$AAb?$AAl?$AAe?$AA?1?$AAD?$AAi?$AAs?$AAa?$AAb?$AAl?$AAe?$AA?5?$AAO?$AAA?$AAL?$AA?5?$AAR?$AAe?$AAt?$AAa?$AAi?$AAl?$AA?5?$AAM?$AAe?$AAs?$AAs?$AAa?$AAg@|
	DCD	|SetRetailMsgMode|
	DCD	0x0
	DCD	0x0
	DCD	0x0
	DCW	0x39
	%	2
	DCD	|??_C@_1DE@DBBLEEO@?$AAS?$AAe?$AAl?$AAe?$AAc?$AAt?$AA?5?$AAD?$AAi?$AAs?$AAp?$AAl?$AAa?$AAy?$AA?5?$AAR?$AAe?$AAs?$AAo?$AAl?$AAu?$AAt?$AAi?$AAo?$AAn?$AA?$AA@|
	DCD	|SetDisplayResolution|
	DCD	0x0
	DCD	0x0
	DCD	0x0
	DCW	0x61
	%	2
	DCD	|??_C@_1CA@MOPOGELI@?$AAS?$AAe?$AAl?$AAe?$AAc?$AAt?$AA?5?$AAO?$AAP?$AAP?$AA?5?$AAM?$AAo?$AAd?$AAe?$AA?$AA@|
	DCD	|SetOPPmode|
	DCD	0x0
	DCD	0x0
	DCD	0x0
	DCW	0x30
	%	2
	DCD	|??_C@_1CE@DFLFAFMD@?$AAE?$AAx?$AAi?$AAt?$AA?5?$AAa?$AAn?$AAd?$AA?5?$AAC?$AAo?$AAn?$AAt?$AAi?$AAn?$AAu?$AAe?$AA?$AA@|
	DCD	0x0
	DCD	0x0
	DCD	0x0
	DCD	0x0
	DCW	0x0
	%	2
	DCD	0x0
	DCD	0x0
	DCD	0x0
	DCD	0x0
	DCD	0x0
|g_menuRoot| DCW 0x0
	%	2
	DCD	0x0
	DCD	|OALBLMenuShow|
	DCD	|??_C@_1BE@FNAHCCDL@?$AAM?$AAa?$AAi?$AAn?$AA?5?$AAM?$AAe?$AAn?$AAu?$AA?$AA@|
	DCD	|g_menuMain|
	DCD	0x0
|dispResMenu| DCD 0x0
	DCD	|??_C@_1CE@FKEPMAF@?$AAL?$AAC?$AAD?$AA?5?$AA?5?$AA4?$AA8?$AA0?$AAx?$AA6?$AA4?$AA0?$AA?5?$AA6?$AA0?$AAH?$AAz?$AA?$AA@|
	DCD	0x1
	DCD	|??_C@_1CE@IJMKDLHH@?$AAD?$AAV?$AAI?$AA?5?$AA?5?$AA6?$AA4?$AA0?$AAx?$AA4?$AA8?$AA0?$AA?5?$AA6?$AA0?$AAH?$AAz?$AA?$AA@|
	DCD	0x2
	DCD	|??_C@_1CE@CECNFHDE@?$AAD?$AAV?$AAI?$AA?5?$AA?5?$AA6?$AA4?$AA0?$AAx?$AA4?$AA8?$AA0?$AA?5?$AA7?$AA2?$AAH?$AAz?$AA?$AA@|
	DCD	0x3
	DCD	|??_C@_1CE@IKDLFFCF@?$AAD?$AAV?$AAI?$AA?5?$AA?5?$AA8?$AA0?$AA0?$AAx?$AA4?$AA8?$AA0?$AA?5?$AA6?$AA0?$AAH?$AAz?$AA?$AA@|
	DCD	0x4
	DCD	|??_C@_1CE@PMPMKBOJ@?$AAD?$AAV?$AAI?$AA?5?$AA?5?$AA8?$AA0?$AA0?$AAx?$AA6?$AA0?$AA0?$AA?5?$AA6?$AA0?$AAH?$AAz?$AA?$AA@|
	DCD	0x5
	DCD	|??_C@_1CE@NBKEBDGN@?$AAD?$AAV?$AAI?$AA?5?$AA?5?$AA8?$AA0?$AA0?$AAx?$AA6?$AA0?$AA0?$AA?5?$AA5?$AA6?$AAH?$AAz?$AA?$AA@|
	DCD	0x6
	DCD	|??_C@_1CE@LJDPDOKE@?$AAD?$AAV?$AAI?$AA?5?$AA1?$AA0?$AA2?$AA4?$AAx?$AA7?$AA6?$AA8?$AA?5?$AA6?$AA0?$AAH?$AAz?$AA?$AA@|
	DCD	0x7
	DCD	|??_C@_1CE@BMIKEEML@?$AAD?$AAV?$AAI?$AA?5?$AA1?$AA2?$AA8?$AA0?$AAx?$AA7?$AA2?$AA0?$AA?5?$AA6?$AA0?$AAH?$AAz?$AA?$AA@|
	DCD	0x8
	DCD	|??_C@_1BM@KBHAINFM@?$AAI?$AAn?$AAv?$AAa?$AAl?$AAi?$AAd?$AA?5?$AAE?$AAn?$AAt?$AAr?$AAy?$AA?$AA@|
|oppModeMenu35x| DCD |??_C@_1FI@HKFGBOFG@?$AAM?$AAP?$AAU?$AA?$FL?$AA1?$AA2?$AA5?$AAM?$AAh?$AAz?$AA?5?$AA?$EA?$AA?5?$AA0?$AA?4?$AA9?$AA7?$AA5?$AAV?$AA?$FN?$AA?0?$AA?5?$AAI?$AAV?$AAA?$AA2?$AA?$FL?$AA?5?$AA9?$AA0?$AAM?$AAh@|
	DCD	|??_C@_1FG@IMGDNCBP@?$AAM?$AAP?$AAU?$AA?$FL?$AA2?$AA5?$AA0?$AAM?$AAh?$AAz?$AA?5?$AA?$EA?$AA?5?$AA1?$AA?4?$AA0?$AA0?$AA0?$AAV?$AA?$FN?$AA?0?$AA?5?$AAI?$AAV?$AAA?$AA2?$AA?$FL?$AA1?$AA8?$AA0?$AAM?$AAh@|
	DCD	|??_C@_1FI@LNIHINJA@?$AAM?$AAP?$AAU?$AA?$FL?$AA5?$AA0?$AA0?$AAM?$AAh?$AAz?$AA?5?$AA?$EA?$AA?5?$AA1?$AA?4?$AA2?$AA0?$AA0?$AA0?$AAV?$AA?$FN?$AA?0?$AA?5?$AAI?$AAV?$AAA?$AA2?$AA?$FL?$AA3?$AA6?$AA0?$AAM@|
	DCD	|??_C@_1FI@GMIAOKFE@?$AAM?$AAP?$AAU?$AA?$FL?$AA5?$AA5?$AA0?$AAM?$AAh?$AAz?$AA?5?$AA?$EA?$AA?5?$AA1?$AA?4?$AA2?$AA7?$AA5?$AA0?$AAV?$AA?$FN?$AA?0?$AA?5?$AAI?$AAV?$AAA?$AA2?$AA?$FL?$AA4?$AA0?$AA0?$AAM@|
	DCD	|??_C@_1FI@GKLNGOFA@?$AAM?$AAP?$AAU?$AA?$FL?$AA6?$AA0?$AA0?$AAM?$AAh?$AAz?$AA?5?$AA?$EA?$AA?5?$AA1?$AA?4?$AA3?$AA5?$AA0?$AA0?$AAV?$AA?$FN?$AA?0?$AA?5?$AAI?$AAV?$AAA?$AA2?$AA?$FL?$AA4?$AA3?$AA0?$AAM@|
	DCD	|??_C@_1FG@KPBOKIAA@?$AAM?$AAP?$AAU?$AA?$FL?$AA7?$AA2?$AA0?$AAh?$AAz?$AA?5?$AA?$EA?$AA?5?$AA1?$AA?4?$AA3?$AA5?$AA0?$AA0?$AAV?$AA?$FN?$AA?0?$AA?5?$AAI?$AAV?$AAA?$AA2?$AA?$FL?$AA5?$AA2?$AA0?$AAM?$AAh@|
|oppModeMenu37x| DCD |??_C@_1FO@ELABMNJD@?$AAM?$AAP?$AAU?$AA?$FL?$AA3?$AA0?$AA0?$AAM?$AAh?$AAz?$AA?5?$AA?5?$AA?$EA?$AA?5?$AA0?$AA?4?$AA9?$AA3?$AA7?$AA5?$AAV?$AA?$FN?$AA?0?$AA?5?$AAI?$AAV?$AAA?$AA2?$AA?$FL?$AA2?$AA6?$AA0@|
	DCD	|??_C@_1FO@CAGHGIKC@?$AAM?$AAP?$AAU?$AA?$FL?$AA6?$AA0?$AA0?$AAM?$AAh?$AAz?$AA?5?$AA?5?$AA?$EA?$AA?5?$AA1?$AA?4?$AA1?$AA0?$AA0?$AA0?$AAV?$AA?$FN?$AA?0?$AA?5?$AAI?$AAV?$AAA?$AA2?$AA?$FL?$AA5?$AA2?$AA0@|
	DCD	|??_C@_1FO@MCHCGGFD@?$AAM?$AAP?$AAU?$AA?$FL?$AA8?$AA0?$AA0?$AAM?$AAh?$AAz?$AA?5?$AA?5?$AA?$EA?$AA?5?$AA1?$AA?4?$AA2?$AA6?$AA2?$AA5?$AAV?$AA?$FN?$AA?0?$AA?5?$AAI?$AAV?$AAA?$AA2?$AA?$FL?$AA6?$AA6?$AA0@|
	DCD	|??_C@_1FK@IBMDHDI@?$AAM?$AAP?$AAU?$AA?$FL?$AA1?$AA0?$AA0?$AA0?$AAM?$AAh?$AAz?$AA?5?$AA?$EA?$AA?5?$AA1?$AA?4?$AA3?$AA7?$AA5?$AAV?$AA?$FN?$AA?0?$AA?5?$AAI?$AAV?$AAA?$AA2?$AA?$FL?$AA8?$AA0?$AA0?$AAM@|

  00000			 AREA	 |.rdata|, DATA, READONLY
|??_C@_1CE@DFLFAFMD@?$AAE?$AAx?$AAi?$AAt?$AA?5?$AAa?$AAn?$AAd?$AA?5?$AAC?$AAo?$AAn?$AAt?$AAi?$AAn?$AAu?$AAe?$AA?$AA@| DCB "E"
	DCB	0x0, "x", 0x0, "i", 0x0, "t", 0x0, " ", 0x0, "a", 0x0, "n"
	DCB	0x0, "d", 0x0, " ", 0x0, "C", 0x0, "o", 0x0, "n", 0x0, "t"
	DCB	0x0, "i", 0x0, "n", 0x0, "u", 0x0, "e", 0x0, 0x0, 0x0 ; `string'

  00000			 AREA	 |.rdata|, DATA, READONLY
|??_C@_1CA@LLFAIJM@?$AAS?$AAe?$AAt?$AA?5?$AAM?$AAA?$AAC?$AA?5?$AAa?$AAd?$AAd?$AAr?$AAe?$AAs?$AAs?$AA?$AA@| DCB "S"
	DCB	0x0, "e", 0x0, "t", 0x0, " ", 0x0, "M", 0x0, "A", 0x0, "C"
	DCB	0x0, " ", 0x0, "a", 0x0, "d", 0x0, "d", 0x0, "r", 0x0, "e"
	DCB	0x0, "s", 0x0, "s", 0x0, 0x0, 0x0	; `string'

  00000			 AREA	 |.rdata|, DATA, READONLY
|??_C@_1M@NJLEOPAB@?$AAV?$AAM?$AAI?$AAN?$AAI?$AA?$AA@| DCB "V", 0x0, "M", 0x0
	DCB	"I", 0x0, "N", 0x0, "I", 0x0, 0x0, 0x0	; `string'

  00000			 AREA	 |.rdata|, DATA, READONLY
|??_C@_1CK@OKOLJFGH@?$AAE?$AAn?$AAa?$AAb?$AAl?$AAe?$AA?1?$AAd?$AAi?$AAs?$AAa?$AAb?$AAl?$AAe?$AA?5?$AAV?$AAM?$AAI?$AAN?$AAI?$AA?$AA@| DCB "E"
	DCB	0x0, "n", 0x0, "a", 0x0, "b", 0x0, "l", 0x0, "e", 0x0, "/"
	DCB	0x0, "d", 0x0, "i", 0x0, "s", 0x0, "a", 0x0, "b", 0x0, "l"
	DCB	0x0, "e", 0x0, " ", 0x0, "V", 0x0, "M", 0x0, "I", 0x0, "N"
	DCB	0x0, "I", 0x0, 0x0, 0x0			; `string'

  00000			 AREA	 |.rdata|, DATA, READONLY
|??_C@_1BO@BODFGHPI@?$AAD?$AAe?$AAf?$AAa?$AAu?$AAl?$AAt?$AA?5?$AAr?$AAo?$AAu?$AAt?$AAe?$AAr?$AA?$AA@| DCB "D"
	DCB	0x0, "e", 0x0, "f", 0x0, "a", 0x0, "u", 0x0, "l", 0x0, "t"
	DCB	0x0, " ", 0x0, "r", 0x0, "o", 0x0, "u", 0x0, "t", 0x0, "e"
	DCB	0x0, "r", 0x0, 0x0, 0x0			; `string'

  00000			 AREA	 |.rdata|, DATA, READONLY
|??_C@_1CG@PDJPJAON@?$AAS?$AAe?$AAt?$AA?5?$AAd?$AAe?$AAf?$AAa?$AAu?$AAl?$AAt?$AA?5?$AAr?$AAo?$AAu?$AAt?$AAe?$AAr?$AA?$AA@| DCB "S"
	DCB	0x0, "e", 0x0, "t", 0x0, " ", 0x0, "d", 0x0, "e", 0x0, "f"
	DCB	0x0, "a", 0x0, "u", 0x0, "l", 0x0, "t", 0x0, " ", 0x0, "r"
	DCB	0x0, "o", 0x0, "u", 0x0, "t", 0x0, "e", 0x0, "r", 0x0, 0x0
	DCB	0x0					; `string'

  00000			 AREA	 |.rdata|, DATA, READONLY
|??_C@_1BI@BNFAJPCD@?$AAS?$AAe?$AAt?$AA?5?$AAI?$AAP?$AA?5?$AAm?$AAa?$AAs?$AAk?$AA?$AA@| DCB "S"
	DCB	0x0, "e", 0x0, "t", 0x0, " ", 0x0, "I", 0x0, "P", 0x0, " "
	DCB	0x0, "m", 0x0, "a", 0x0, "s", 0x0, "k", 0x0, 0x0, 0x0 ; `string'

  00000			 AREA	 |.rdata|, DATA, READONLY
|??_C@_1O@HAMLNBEA@?$AAD?$AAe?$AAv?$AAi?$AAc?$AAe?$AA?$AA@| DCB "D", 0x0, "e"
	DCB	0x0, "v", 0x0, "i", 0x0, "c", 0x0, "e", 0x0, 0x0, 0x0 ; `string'

  00000			 AREA	 |.rdata|, DATA, READONLY
|??_C@_1BO@OBBADFOO@?$AAS?$AAe?$AAt?$AA?5?$AAI?$AAP?$AA?5?$AAa?$AAd?$AAd?$AAr?$AAe?$AAs?$AAs?$AA?$AA@| DCB "S"
	DCB	0x0, "e", 0x0, "t", 0x0, " ", 0x0, "I", 0x0, "P", 0x0, " "
	DCB	0x0, "a", 0x0, "d", 0x0, "d", 0x0, "r", 0x0, "e", 0x0, "s"
	DCB	0x0, "s", 0x0, 0x0, 0x0			; `string'

  00000			 AREA	 |.rdata|, DATA, READONLY
|??_C@_19DDJNJOGL@?$AAD?$AAH?$AAC?$AAP?$AA?$AA@| DCB "D", 0x0, "H", 0x0, "C"
	DCB	0x0, "P", 0x0, 0x0, 0x0			; `string'

  00000			 AREA	 |.rdata|, DATA, READONLY
|??_C@_1CI@OHHEPHNA@?$AAE?$AAn?$AAa?$AAb?$AAl?$AAe?$AA?1?$AAd?$AAi?$AAs?$AAa?$AAb?$AAl?$AAe?$AA?5?$AAD?$AAH?$AAC?$AAP?$AA?$AA@| DCB "E"
	DCB	0x0, "n", 0x0, "a", 0x0, "b", 0x0, "l", 0x0, "e", 0x0, "/"
	DCB	0x0, "d", 0x0, "i", 0x0, "s", 0x0, "a", 0x0, "b", 0x0, "l"
	DCB	0x0, "e", 0x0, " ", 0x0, "D", 0x0, "H", 0x0, "C", 0x0, "P"
	DCB	0x0, 0x0, 0x0				; `string'

  00000			 AREA	 |.rdata|, DATA, READONLY
|??_C@_1DC@FMHJOEGL@?$AAK?$AAI?$AAT?$AAL?$AA?5?$AAA?$AAc?$AAt?$AAi?$AAv?$AAe?$AA?1?$AAP?$AAa?$AAs?$AAs?$AAi?$AAv?$AAe?$AA?5?$AAm?$AAo?$AAd?$AAe?$AA?$AA@| DCB "K"
	DCB	0x0, "I", 0x0, "T", 0x0, "L", 0x0, " ", 0x0, "A", 0x0, "c"
	DCB	0x0, "t", 0x0, "i", 0x0, "v", 0x0, "e", 0x0, "/", 0x0, "P"
	DCB	0x0, "a", 0x0, "s", 0x0, "s", 0x0, "i", 0x0, "v", 0x0, "e"
	DCB	0x0, " ", 0x0, "m", 0x0, "o", 0x0, "d", 0x0, "e", 0x0, 0x0
	DCB	0x0					; `string'

  00000			 AREA	 |.rdata|, DATA, READONLY
|??_C@_1DC@FHPHDMKC@?$AAK?$AAI?$AAT?$AAL?$AA?5?$AAi?$AAn?$AAt?$AAe?$AAr?$AAr?$AAu?$AAp?$AAt?$AA?1?$AAp?$AAo?$AAl?$AAl?$AA?5?$AAm?$AAo?$AAd?$AAe?$AA?$AA@| DCB "K"
	DCB	0x0, "I", 0x0, "T", 0x0, "L", 0x0, " ", 0x0, "i", 0x0, "n"
	DCB	0x0, "t", 0x0, "e", 0x0, "r", 0x0, "r", 0x0, "u", 0x0, "p"
	DCB	0x0, "t", 0x0, "/", 0x0, "p", 0x0, "o", 0x0, "l", 0x0, "l"
	DCB	0x0, " ", 0x0, "m", 0x0, "o", 0x0, "d", 0x0, "e", 0x0, 0x0
	DCB	0x0					; `string'

  00000			 AREA	 |.rdata|, DATA, READONLY
|??_C@_19KCABPHM@?$AAK?$AAI?$AAT?$AAL?$AA?$AA@| DCB "K", 0x0, "I", 0x0, "T"
	DCB	0x0, "L", 0x0, 0x0, 0x0			; `string'

  00000			 AREA	 |.rdata|, DATA, READONLY
|??_C@_1CI@NOMJHGMH@?$AAE?$AAn?$AAa?$AAb?$AAl?$AAe?$AA?1?$AAd?$AAi?$AAs?$AAa?$AAb?$AAl?$AAe?$AA?5?$AAK?$AAI?$AAT?$AAL?$AA?$AA@| DCB "E"
	DCB	0x0, "n", 0x0, "a", 0x0, "b", 0x0, "l", 0x0, "e", 0x0, "/"
	DCB	0x0, "d", 0x0, "i", 0x0, "s", 0x0, "a", 0x0, "b", 0x0, "l"
	DCB	0x0, "e", 0x0, " ", 0x0, "K", 0x0, "I", 0x0, "T", 0x0, "L"
	DCB	0x0, 0x0, 0x0				; `string'

  00000			 AREA	 |.rdata|, DATA, READONLY
|??_C@_1CM@CFLHLMJF@?$AAS?$AAh?$AAo?$AAw?$AA?5?$AAC?$AAu?$AAr?$AAr?$AAe?$AAn?$AAt?$AA?5?$AAS?$AAe?$AAt?$AAt?$AAi?$AAn?$AAg?$AAs?$AA?$AA@| DCB "S"
	DCB	0x0, "h", 0x0, "o", 0x0, "w", 0x0, " ", 0x0, "C", 0x0, "u"
	DCB	0x0, "r", 0x0, "r", 0x0, "e", 0x0, "n", 0x0, "t", 0x0, " "
	DCB	0x0, "S", 0x0, "e", 0x0, "t", 0x0, "t", 0x0, "i", 0x0, "n"
	DCB	0x0, "g", 0x0, "s", 0x0, 0x0, 0x0	; `string'

  00000			 AREA	 |.rdata|, DATA, READONLY
|EdbgVendorIds| DCW 0x0
	DCW	0x0
	DCD	0x4033
	DCB	0x1
	DCB	"AD", 0x0
	DCW	0x1050
	DCW	0x940
	DCD	0x4005
	DCB	0x1
	DCB	"LS", 0x0
	DCW	0x1050
	DCW	0x940
	DCD	0x2078
	DCB	0x1
	DCB	"LS", 0x0
	DCW	0x10ec
	DCW	0x8029
	DCD	0xc0f0
	DCB	0x1
	DCB	"KS", 0x0
	DCW	0x10ec
	DCW	0x8129
	DCD	0x0
	DCB	0x4
	DCB	"RT", 0x0
	DCW	0x10ec
	DCW	0x8139
	DCD	0x900b
	DCB	0x4
	DCB	"RT", 0x0
	DCW	0x10ec
	DCW	0x8139
	DCD	0xd0c9
	DCB	0x4
	DCB	"RT", 0x0
	DCW	0x10ec
	DCW	0x8139
	DCD	0xe04c
	DCB	0x4
	DCB	"RT", 0x0
	DCW	0x1186
	DCW	0x1300
	DCD	0x50ba
	DCB	0x4
	DCB	"DL", 0x0
	DCW	0x100b
	DCW	0x20
	DCD	0xa0cc
	DCB	0x5
	DCB	"NG", 0x0
	DCW	0x10b7
	DCW	0x9050
	DCD	0x6008
	DCB	0x6
	DCB	"3C", 0x0
	DCW	0x10b7
	DCW	0x9200
	DCD	0x476
	DCB	0x6
	DCB	"3C", 0x0
	EXPORT	|BLMenu|
	EXPORT	|??_C@_1FM@KKEGFMMC@?$AAH?$AAi?$AAt?$AA?5?$AAs?$AAp?$AAa?$AAc?$AAe?$AA?5?$AAt?$AAo?$AA?5?$AAe?$AAn?$AAt?$AAe?$AAr?$AA?5?$AAc?$AAo?$AAn?$AAf?$AAi?$AAg?$AAu?$AAr?$AAa?$AAt?$AAi?$AAo?$AAn@| [ DATA ] ; `string'
	IMPORT	|OALBLMenuReadKey|
	IMPORT	|OALGetTickCount|
	IMPORT	|NKDbgPrintfW|
; File c:\wince600\platform\z2170p\src\bootloader\eboot\menu.c

  00000			 AREA	 |.pdata|, PDATA
|$T47241| DCD	|$LN21@BLMenu|
	DCD	0x40002801

  00000			 AREA	 |.rdata|, DATA, READONLY
|??_C@_1FM@KKEGFMMC@?$AAH?$AAi?$AAt?$AA?5?$AAs?$AAp?$AAa?$AAc?$AAe?$AA?5?$AAt?$AAo?$AA?5?$AAe?$AAn?$AAt?$AAe?$AAr?$AA?5?$AAc?$AAo?$AAn?$AAf?$AAi?$AAg?$AAu?$AAr?$AAa?$AAt?$AAi?$AAo?$AAn@| DCB "H"
	DCB	0x0, "i", 0x0, "t", 0x0, " ", 0x0, "s", 0x0, "p", 0x0, "a"
	DCB	0x0, "c", 0x0, "e", 0x0, " ", 0x0, "t", 0x0, "o", 0x0, " "
	DCB	0x0, "e", 0x0, "n", 0x0, "t", 0x0, "e", 0x0, "r", 0x0, " "
	DCB	0x0, "c", 0x0, "o", 0x0, "n", 0x0, "f", 0x0, "i", 0x0, "g"
	DCB	0x0, "u", 0x0, "r", 0x0, "a", 0x0, "t", 0x0, "i", 0x0, "o"
	DCB	0x0, "n", 0x0, " ", 0x0, "m", 0x0, "e", 0x0, "n", 0x0, "u"
	DCB	0x0, " ", 0x0, "%", 0x0, "d", 0x0, ".", 0x0, ".", 0x0, "."
	DCB	0x0, 0xd, 0x0, 0xa, 0x0, 0x0, 0x0	; `string'
; Function compile flags: /Ogspy

  00000			 AREA	 |.text|, CODE, ARM

  00000		 |BLMenu| PROC

; 250  : {

  00000		 |$LN21@BLMenu|
  00000	e92d40f0	 stmdb       sp!, {r4 - r7, lr}
  00004		 |$M47238|
  00004	e3500000	 cmp         r0, #0

; 251  :     UINT32 time, delay = 3;

  00008	e3a04003	 mov         r4, #3

; 252  :     WCHAR key = 0;

  0000c	e3a05000	 mov         r5, #0

; 253  :     BSP_ARGS *pArgs = OALCAtoUA(IMAGE_SHARE_ARGS_CA);

  00010	e3a0720a	 mov         r7, #0xA, 4

; 254  :     
; 255  :     // First let user break to menu
; 256  :     while (!bForced && (delay > 0 && key != L' ')) 

  00014	1a000015	 bne         |$LN6@BLMenu|
  00018		 |$LL7@BLMenu|
  00018	e3540000	 cmp         r4, #0
  0001c	0a000015	 beq         |$LN14@BLMenu|
  00020	e3550020	 cmp         r5, #0x20
  00024	0a000015	 beq         |$LN1@BLMenu|

; 257  : 	{
; 258  : 		OALLog(L"Hit space to enter configuration menu %d...\r\n", delay);

  00028	e59f006c	 ldr         r0, [pc, #0x6C]
  0002c	e1a01004	 mov         r1, r4
  00030	eb000000	 bl          NKDbgPrintfW

; 259  : 		time = OALGetTickCount();

  00034	eb000000	 bl          OALGetTickCount
  00038	e1a06000	 mov         r6, r0

; 260  : 		while ((OALGetTickCount() - time) < 1000) 

  0003c	ea000005	 b           |$LN18@BLMenu|
  00040		 |$LL5@BLMenu|

; 261  : 		{
; 262  : 			if ((key = OALBLMenuReadKey(FALSE)) == L' ') 

  00040	e3a00000	 mov         r0, #0
  00044	eb000000	 bl          OALBLMenuReadKey
  00048	e1a05800	 mov         r5, r0, lsl #16
  0004c	e1a05825	 mov         r5, r5, lsr #16
  00050	e3550020	 cmp         r5, #0x20
  00054	0a000003	 beq         |$LN15@BLMenu|
  00058		 |$LN18@BLMenu|
  00058	eb000000	 bl          OALGetTickCount
  0005c	e0403006	 sub         r3, r0, r6
  00060	e3530ffa	 cmp         r3, #0xFA, 30
  00064	3afffff5	 bcc         |$LL5@BLMenu|
  00068		 |$LN15@BLMenu|

; 263  : 				break;
; 264  : 		}
; 265  : 		delay--;

  00068	e2444001	 sub         r4, r4, #1

; 254  :     
; 255  :     // First let user break to menu
; 256  :     while (!bForced && (delay > 0 && key != L' ')) 

  0006c	eaffffe9	 b           |$LL7@BLMenu|
  00070		 |$LN6@BLMenu|

; 266  : 	}
; 267  :     
; 268  :     if ((bForced == TRUE) || (key == L' ')) 

  00070	e3500001	 cmp         r0, #1
  00074	0a000001	 beq         |$LN1@BLMenu|
  00078		 |$LN14@BLMenu|
  00078	e3550020	 cmp         r5, #0x20
  0007c	1a000003	 bne         |$LN2@BLMenu|
  00080		 |$LN1@BLMenu|

; 269  :     {
; 270  :         OALBLMenuShow(&g_menuRoot);

  00080	e59f0010	 ldr         r0, [pc, #0x10]
  00084	eb000000	 bl          OALBLMenuShow

; 271  :         // Invalidate arguments to force them to be reinitialized
; 272  :         // with new config data generated by the boot menu
; 273  :         pArgs->header.signature = 0;

  00088	e3a03000	 mov         r3, #0
  0008c	e5873000	 str         r3, [r7]
  00090		 |$LN2@BLMenu|

; 274  :     }        
; 275  : }

  00090	e8bd40f0	 ldmia       sp!, {r4 - r7, lr}
  00094	e12fff1e	 bx          lr
  00098		 |$LN22@BLMenu|
  00098		 |$LN23@BLMenu|
  00098	00000000	 DCD         |g_menuRoot|
  0009c		 |$LN24@BLMenu|
  0009c	00000000	 DCD         |??_C@_1FM@KKEGFMMC@?$AAH?$AAi?$AAt?$AA?5?$AAs?$AAp?$AAa?$AAc?$AAe?$AA?5?$AAt?$AAo?$AA?5?$AAe?$AAn?$AAt?$AAe?$AAr?$AA?5?$AAc?$AAo?$AAn?$AAf?$AAi?$AAg?$AAu?$AAr?$AAa?$AAt?$AAi?$AAo?$AAn@|
  000a0		 |$M47239|

			 ENDP  ; |BLMenu|

	EXPORT	|__$ArrayPad$| [ DATA ]
	EXPORT	|??_C@_1FI@GAMDHEMA@?$AA?$AN?$AA?6?$AA?5?$AA?5?$AA?5?$AAW?$AAA?$AAR?$AAN?$AAI?$AAN?$AAG?$AA?3?$AA?5?$AAM?$AAA?$AAC?$AA?5?$AAa?$AAd?$AAd?$AAr?$AAe?$AAs?$AAs?$AA?5?$AAn?$AAo?$AAt?$AA?5?$AAp?$AAr@| [ DATA ] ; `string'
	EXPORT	|??_C@_1KG@MHFLKBMF@?$AAm?$AAa?$AAc?$AA?5?$AAa?$AAd?$AAd?$AAr?$AAe?$AAs?$AAs?$AA?5?$AAn?$AAo?$AAt?$AA?5?$AAf?$AAo?$AAu?$AAn?$AAd?$AA?5?$AAi?$AAn?$AA?5?$AAE?$AAE?$AAP?$AAR?$AAO?$AAM?$AA?4@| [ DATA ] ; `string'
	EXPORT	|??_C@_19OEFLBHKA@?$AAE?$AAV?$AAM?$AA?5?$AA?$AA@| [ DATA ] ; `string'
	EXPORT	|??_C@_1FC@DDNFDPMF@?$AA?$AN?$AA?6?$AA?5?$AAS?$AAe?$AAt?$AA?5?$AAE?$AAt?$AAh?$AAe?$AAr?$AAn?$AAe?$AAt?$AA?5?$AA?$CI?$AAL?$AAA?$AAN?$AA9?$AAx?$AAx?$AAx?$AA?$CJ?$AA?5?$AAM?$AAA?$AAC?$AA?5?$AAA?$AAd@| [ DATA ] ; `string'
	IMPORT	|LAN911XSetMacAddress|
	IMPORT	|LAN911XFindController|
	IMPORT	|OALBLMenuSetMacAddress|
	IMPORT	|LAN911XGetMacAddress|
	IMPORT	|OALPAtoVA|
	IMPORT	|__GSHandlerCheck|
	IMPORT	|__security_cookie|
	IMPORT	|memcpy|
	IMPORT	|__security_check_cookie|

  00000			 AREA	 |.pdata|, PDATA
|$T47261| DCD	|$LN12@SetMacAddr|
	DCD	0xc0006502

  00000			 AREA	 |.xdata|, DATA
|$T47257| DCD	0xffffffe8

  00000			 AREA	 |.rdata|, DATA, READONLY
|??_C@_1FI@GAMDHEMA@?$AA?$AN?$AA?6?$AA?5?$AA?5?$AA?5?$AAW?$AAA?$AAR?$AAN?$AAI?$AAN?$AAG?$AA?3?$AA?5?$AAM?$AAA?$AAC?$AA?5?$AAa?$AAd?$AAd?$AAr?$AAe?$AAs?$AAs?$AA?5?$AAn?$AAo?$AAt?$AA?5?$AAp?$AAr@| DCB 0xd
	DCB	0x0, 0xa, 0x0, " ", 0x0, " ", 0x0, " ", 0x0, "W", 0x0, "A"
	DCB	0x0, "R", 0x0, "N", 0x0, "I", 0x0, "N", 0x0, "G", 0x0, ":"
	DCB	0x0, " ", 0x0, "M", 0x0, "A", 0x0, "C", 0x0, " ", 0x0, "a"
	DCB	0x0, "d", 0x0, "d", 0x0, "r", 0x0, "e", 0x0, "s", 0x0, "s"
	DCB	0x0, " ", 0x0, "n", 0x0, "o", 0x0, "t", 0x0, " ", 0x0, "p"
	DCB	0x0, "r", 0x0, "o", 0x0, "g", 0x0, "r", 0x0, "a", 0x0, "m"
	DCB	0x0, "m", 0x0, "e", 0x0, "d", 0x0, "!", 0x0, 0xd, 0x0, 0xa
	DCB	0x0, 0x0, 0x0				; `string'

  00000			 AREA	 |.rdata|, DATA, READONLY
|??_C@_1KG@MHFLKBMF@?$AAm?$AAa?$AAc?$AA?5?$AAa?$AAd?$AAd?$AAr?$AAe?$AAs?$AAs?$AA?5?$AAn?$AAo?$AAt?$AA?5?$AAf?$AAo?$AAu?$AAn?$AAd?$AA?5?$AAi?$AAn?$AA?5?$AAE?$AAE?$AAP?$AAR?$AAO?$AAM?$AA?4@| DCB "m"
	DCB	0x0, "a", 0x0, "c", 0x0, " ", 0x0, "a", 0x0, "d", 0x0, "d"
	DCB	0x0, "r", 0x0, "e", 0x0, "s", 0x0, "s", 0x0, " ", 0x0, "n"
	DCB	0x0, "o", 0x0, "t", 0x0, " ", 0x0, "f", 0x0, "o", 0x0, "u"
	DCB	0x0, "n", 0x0, "d", 0x0, " ", 0x0, "i", 0x0, "n", 0x0, " "
	DCB	0x0, "E", 0x0, "E", 0x0, "P", 0x0, "R", 0x0, "O", 0x0, "M"
	DCB	0x0, ".", 0x0, " ", 0x0, "U", 0x0, "s", 0x0, "i", 0x0, "n"
	DCB	0x0, "g", 0x0, " ", 0x0, "M", 0x0, "a", 0x0, "c", 0x0, " "
	DCB	0x0, "a", 0x0, "d", 0x0, "d", 0x0, "r", 0x0, "e", 0x0, "s"
	DCB	0x0, "s", 0x0, " ", 0x0, "s", 0x0, "t", 0x0, "o", 0x0, "r"
	DCB	0x0, "e", 0x0, "d", 0x0, " ", 0x0, "w", 0x0, "i", 0x0, "t"
	DCB	0x0, "h", 0x0, " ", 0x0, "t", 0x0, "h", 0x0, "e", 0x0, " "
	DCB	0x0, "b", 0x0, "o", 0x0, "o", 0x0, "t", 0x0, " ", 0x0, "s"
	DCB	0x0, "e", 0x0, "t", 0x0, "t", 0x0, "i", 0x0, "n", 0x0, "g"
	DCB	0x0, "s", 0x0, 0xd, 0x0, 0xa, 0x0, 0x0, 0x0 ; `string'

  00000			 AREA	 |.rdata|, DATA, READONLY
|??_C@_19OEFLBHKA@?$AAE?$AAV?$AAM?$AA?5?$AA?$AA@| DCB "E", 0x0, "V", 0x0, "M"
	DCB	0x0, " ", 0x0, 0x0, 0x0			; `string'

  00000			 AREA	 |.rdata|, DATA, READONLY
|??_C@_1FC@DDNFDPMF@?$AA?$AN?$AA?6?$AA?5?$AAS?$AAe?$AAt?$AA?5?$AAE?$AAt?$AAh?$AAe?$AAr?$AAn?$AAe?$AAt?$AA?5?$AA?$CI?$AAL?$AAA?$AAN?$AA9?$AAx?$AAx?$AAx?$AA?$CJ?$AA?5?$AAM?$AAA?$AAC?$AA?5?$AAA?$AAd@| DCB 0xd
	DCB	0x0, 0xa, 0x0, " ", 0x0, "S", 0x0, "e", 0x0, "t", 0x0, " "
	DCB	0x0, "E", 0x0, "t", 0x0, "h", 0x0, "e", 0x0, "r", 0x0, "n"
	DCB	0x0, "e", 0x0, "t", 0x0, " ", 0x0, "(", 0x0, "L", 0x0, "A"
	DCB	0x0, "N", 0x0, "9", 0x0, "x", 0x0, "x", 0x0, "x", 0x0, ")"
	DCB	0x0, " ", 0x0, "M", 0x0, "A", 0x0, "C", 0x0, " ", 0x0, "A"
	DCB	0x0, "d", 0x0, "d", 0x0, "r", 0x0, "e", 0x0, "s", 0x0, "s"
	DCB	0x0, ":", 0x0, 0xd, 0x0, 0xa, 0x0, 0x0, 0x0 ; `string'
; Function compile flags: /Ogspy

  00000			 AREA	 |.text|, CODE, ARM

  00000	00000000	 DCD         |__GSHandlerCheck|
  00004	00000000	 DCD         |$T47257|

  00008		 |SetMacAddress| PROC

; 280  : {

  00008		 |$LN12@SetMacAddr|
  00008	e92d40f0	 stmdb       sp!, {r4 - r7, lr}
  0000c	e24dd028	 sub         sp, sp, #0x28
  00010		 |$M47258|
  00010	e59f3180	 ldr         r3, [pc, #0x180]
  00014	e5933000	 ldr         r3, [r3]
  00018	e58d3024	 str         r3, [sp, #0x24]

; 281  :     DWORD dummy;
; 282  : #pragma warning(push)
; 283  : #pragma warning(disable:4204 4221)
; 284  :     UINT16 mac[3] = {0xFFFF, 0xFFFF, 0xFFFF};
; 285  :     // We're using OALBLMenuSetMacAddress outside of a menu, but it still requires 
; 286  :     // a menu item input structure
; 287  :     OAL_BLMENU_ITEM DummyMacMenuItem = 
; 288  :     {
; 289  :         0, NULL, NULL,
; 290  :         L"EVM ", mac, NULL

  0001c	e59f3170	 ldr         r3, [pc, #0x170]

; 291  :     };
; 292  : #pragma warning(pop)
; 293  : 
; 294  :     UNREFERENCED_PARAMETER(pMenu);
; 295  : 
; 296  :     OALLog(L"\r\n Set Ethernet (LAN9xxx) MAC Address:\r\n");   

  00020	e59f0168	 ldr         r0, [pc, #0x168]
  00024	e3a01cff	 mov         r1, #0xFF, 24
  00028	e38140ff	 orr         r4, r1, #0xFF
  0002c	e3a0e000	 mov         lr, #0
  00030	e3a05000	 mov         r5, #0
  00034	e3a06000	 mov         r6, #0
  00038	e28d201c	 add         r2, sp, #0x1C
  0003c	e3a07000	 mov         r7, #0
  00040	e58d300c	 str         r3, [sp, #0xC]
  00044	e1cd41bc	 strh        r4, [sp, #0x1C]
  00048	e1cd41be	 strh        r4, [sp, #0x1E]
  0004c	e1cd42b0	 strh        r4, [sp, #0x20]
  00050	e1cde0b0	 strh        lr, [sp]
  00054	e58d5004	 str         r5, [sp, #4]
  00058	e58d6008	 str         r6, [sp, #8]
  0005c	e58d2010	 str         r2, [sp, #0x10]
  00060	e58d7014	 str         r7, [sp, #0x14]
  00064	eb000000	 bl          NKDbgPrintfW

; 297  : 	
; 298  : 	
; 299  :     memset(mac,0xFF,sizeof(mac));

  00068	e1cd41bc	 strh        r4, [sp, #0x1C]
  0006c	e1cd41be	 strh        r4, [sp, #0x1E]

; 300  :     LAN911XGetMacAddress(OALPAtoUA((DWORD) BSP_LAN9115_REGS_PA),mac);

  00070	e3a01000	 mov         r1, #0
  00074	e3a00415	 mov         r0, #0x15, 8
  00078	e1cd42b0	 strh        r4, [sp, #0x20]
  0007c	eb000000	 bl          OALPAtoVA
  00080	e28d101c	 add         r1, sp, #0x1C
  00084	eb000000	 bl          LAN911XGetMacAddress

; 301  :     if (((mac[0]== 0xFFFF) && (mac[1] == 0xFFFF) && (mac[2] == 0xFFFF)) || ((mac[0]== 0x0) && (mac[1] == 0x0) && (mac[2] == 0x0)))

  00088	e1dd11bc	 ldrh        r1, [sp, #0x1C]
  0008c	e59f50f8	 ldr         r5, [pc, #0xF8]
  00090	e1dd32b0	 ldrh        r3, [sp, #0x20]
  00094	e1dd21be	 ldrh        r2, [sp, #0x1E]
  00098	e1510004	 cmp         r1, r4
  0009c	1a000003	 bne         |$LN5@SetMacAddr|
  000a0	e1520004	 cmp         r2, r4
  000a4	1a000001	 bne         |$LN5@SetMacAddr|
  000a8	e1530004	 cmp         r3, r4
  000ac	0a000005	 beq         |$LN6@SetMacAddr|
  000b0		 |$LN5@SetMacAddr|
  000b0	e3510000	 cmp         r1, #0
  000b4	1a000009	 bne         |$LN7@SetMacAddr|
  000b8	e3520000	 cmp         r2, #0
  000bc	1a000007	 bne         |$LN7@SetMacAddr|
  000c0	e3530000	 cmp         r3, #0
  000c4	1a000005	 bne         |$LN7@SetMacAddr|
  000c8		 |$LN6@SetMacAddr|

; 302  :     {
; 303  :         RETAILMSG(1,(TEXT("mac address not found in EEPROM. Using Mac address stored with the boot settings\r\n")));

  000c8	e59f00b8	 ldr         r0, [pc, #0xB8]
  000cc	eb000000	 bl          NKDbgPrintfW

; 304  :         memcpy(mac,g_bootCfg.mac,sizeof(mac));       

  000d0	e2851066	 add         r1, r5, #0x66
  000d4	e28d001c	 add         r0, sp, #0x1C
  000d8	e3a02006	 mov         r2, #6
  000dc	eb000000	 bl          memcpy
  000e0		 |$LN7@SetMacAddr|

; 305  :     }
; 306  : 
; 307  :     OALBLMenuSetMacAddress(&DummyMacMenuItem);

  000e0	e28d0000	 add         r0, sp, #0
  000e4	eb000000	 bl          OALBLMenuSetMacAddress

; 308  :     
; 309  :     // Make sure we don't come out of OALBLMenuSetMacAddress with the original 0xFFFF FFFF FFFF or with all zeros
; 310  :     if (((mac[0]== 0xFFFF) && (mac[1] == 0xFFFF) && (mac[2] == 0xFFFF)) || ((mac[0]== 0x0) && (mac[1] == 0x0) && (mac[2] == 0x0)))

  000e8	e1dd11bc	 ldrh        r1, [sp, #0x1C]
  000ec	e1dd32b0	 ldrh        r3, [sp, #0x20]
  000f0	e1dd21be	 ldrh        r2, [sp, #0x1E]
  000f4	e1510004	 cmp         r1, r4
  000f8	1a000003	 bne         |$LN2@SetMacAddr|
  000fc	e1520004	 cmp         r2, r4
  00100	1a000001	 bne         |$LN2@SetMacAddr|
  00104	e1530004	 cmp         r3, r4
  00108	0a000005	 beq         |$LN3@SetMacAddr|
  0010c		 |$LN2@SetMacAddr|
  0010c	e3510000	 cmp         r1, #0
  00110	1a000006	 bne         |$LN4@SetMacAddr|
  00114	e3520000	 cmp         r2, #0
  00118	1a000004	 bne         |$LN4@SetMacAddr|
  0011c	e3530000	 cmp         r3, #0
  00120	1a000002	 bne         |$LN4@SetMacAddr|
  00124		 |$LN3@SetMacAddr|

; 311  :     {
; 312  :         OALLog(L"\r\n   WARNING: MAC address not programmed!\r\n");

  00124	e59f0058	 ldr         r0, [pc, #0x58]
  00128	eb000000	 bl          NKDbgPrintfW

; 313  :         return;

  0012c	ea00000f	 b           |$LN8@SetMacAddr|
  00130		 |$LN4@SetMacAddr|

; 314  :     }
; 315  :         
; 316  :    memcpy(g_bootCfg.mac,mac,sizeof(mac));

  00130	e2850066	 add         r0, r5, #0x66
  00134	e28d101c	 add         r1, sp, #0x1C
  00138	e3a02006	 mov         r2, #6
  0013c	eb000000	 bl          memcpy

; 317  : 
; 318  : 
; 319  :     if (!LAN911XFindController(OALPAtoUA((DWORD) BSP_LAN9115_REGS_PA),&dummy))

  00140	e3a01000	 mov         r1, #0
  00144	e3a00415	 mov         r0, #0x15, 8
  00148	eb000000	 bl          OALPAtoVA
  0014c	e28d1018	 add         r1, sp, #0x18
  00150	eb000000	 bl          LAN911XFindController
  00154	e3500000	 cmp         r0, #0
  00158	0a000004	 beq         |$LN8@SetMacAddr|

; 320  :     {     
; 321  :         return;
; 322  :     }
; 323  :    LAN911XSetMacAddress(OALPAtoUA((DWORD) BSP_LAN9115_REGS_PA),mac);  

  0015c	e3a01000	 mov         r1, #0
  00160	e3a00415	 mov         r0, #0x15, 8
  00164	eb000000	 bl          OALPAtoVA
  00168	e28d101c	 add         r1, sp, #0x1C
  0016c	eb000000	 bl          LAN911XSetMacAddress
  00170		 |$LN8@SetMacAddr|
  00170	e59d0024	 ldr         r0, [sp, #0x24]
  00174	eb000000	 bl          __security_check_cookie

; 324  : }

  00178	e28dd028	 add         sp, sp, #0x28
  0017c	e8bd40f0	 ldmia       sp!, {r4 - r7, lr}
  00180	e12fff1e	 bx          lr
  00184		 |$LN13@SetMacAddr|
  00184		 |$LN14@SetMacAddr|
  00184	00000000	 DCD         |??_C@_1FI@GAMDHEMA@?$AA?$AN?$AA?6?$AA?5?$AA?5?$AA?5?$AAW?$AAA?$AAR?$AAN?$AAI?$AAN?$AAG?$AA?3?$AA?5?$AAM?$AAA?$AAC?$AA?5?$AAa?$AAd?$AAd?$AAr?$AAe?$AAs?$AAs?$AA?5?$AAn?$AAo?$AAt?$AA?5?$AAp?$AAr@|
  00188		 |$LN15@SetMacAddr|
  00188	00000000	 DCD         |??_C@_1KG@MHFLKBMF@?$AAm?$AAa?$AAc?$AA?5?$AAa?$AAd?$AAd?$AAr?$AAe?$AAs?$AAs?$AA?5?$AAn?$AAo?$AAt?$AA?5?$AAf?$AAo?$AAu?$AAn?$AAd?$AA?5?$AAi?$AAn?$AA?5?$AAE?$AAE?$AAP?$AAR?$AAO?$AAM?$AA?4@|
  0018c		 |$LN16@SetMacAddr|
  0018c	00000000	 DCD         |g_bootCfg|
  00190		 |$LN17@SetMacAddr|
  00190	00000000	 DCD         |??_C@_1FC@DDNFDPMF@?$AA?$AN?$AA?6?$AA?5?$AAS?$AAe?$AAt?$AA?5?$AAE?$AAt?$AAh?$AAe?$AAr?$AAn?$AAe?$AAt?$AA?5?$AA?$CI?$AAL?$AAA?$AAN?$AA9?$AAx?$AAx?$AAx?$AA?$CJ?$AA?5?$AAM?$AAA?$AAC?$AA?5?$AAA?$AAd@|
  00194		 |$LN18@SetMacAddr|
  00194	00000000	 DCD         |??_C@_19OEFLBHKA@?$AAE?$AAV?$AAM?$AA?5?$AA?$AA@|
  00198		 |$LN19@SetMacAddr|
  00198	00000000	 DCD         |__security_cookie|
  0019c		 |$M47259|

			 ENDP  ; |SetMacAddress|

	EXPORT	|__$ArrayPad$| [ DATA ]
	EXPORT	|??_C@_1CM@MBNEBDDK@?$AA?5?$AA?5?$AAV?$AAM?$AAI?$AAN?$AAI?$AA?3?$AA?5?$AA?5?$AA?5?$AA?5?$AA?5?$AA?5?$AA?5?$AA?5?$AA?5?$AA?$CF?$AAs?$AA?$AN?$AA?6?$AA?$AA@| [ DATA ] ; `string'
	EXPORT	|??_C@_1GE@BGIPLJDA@?$AA?5?$AA?5?$AAN?$AAo?$AAt?$AAe?$AA?3?$AA?5?$AAU?$AAS?$AAB?$AAF?$AAN?$AA?5?$AAR?$AAN?$AAD?$AAI?$AAS?$AA?5?$AAM?$AAA?$AAC?$AA?5?$AAA?$AAd?$AAd?$AAr?$AA?5?$AAc?$AAa?$AAn@| [ DATA ] ; `string'
	EXPORT	|??_C@_1DG@LEIGGFEH@?$AA?5?$AA?5?$AAE?$AAt?$AAh?$AA?5?$AAM?$AAA?$AAC?$AA?5?$AAA?$AAd?$AAd?$AAr?$AA?3?$AA?5?$AA?5?$AA?$CF?$AAs?$AA?5?$AA?$CI?$AA?$CF?$AAs?$AA?$CJ?$AA?$AN?$AA?6?$AA?$AA@| [ DATA ] ; `string'
	EXPORT	|??_C@_1BM@HBILLBOB@?$AAB?$AAo?$AAo?$AAt?$AA?5?$AAs?$AAe?$AAt?$AAt?$AAi?$AAn?$AAg?$AAs?$AA?$AA@| [ DATA ] ; `string'
	EXPORT	|??_C@_1O@HKPJJFOO@?$AAE?$AAE?$AAP?$AAR?$AAO?$AAM?$AA?$AA@| [ DATA ] ; `string'
	EXPORT	|??_C@_1CM@ENNBLIDC@?$AA?5?$AA?5?$AAD?$AAH?$AAC?$AAP?$AA?3?$AA?5?$AA?5?$AA?5?$AA?5?$AA?5?$AA?5?$AA?5?$AA?5?$AA?5?$AA?5?$AA?$CF?$AAs?$AA?$AN?$AA?6?$AA?$AA@| [ DATA ] ; `string'
	EXPORT	|??_C@_1CM@PFJOPCHK@?$AA?5?$AA?5?$AAI?$AAP?$AA?5?$AAa?$AAd?$AAd?$AAr?$AAe?$AAs?$AAs?$AA?3?$AA?5?$AA?5?$AA?5?$AA?5?$AA?$CF?$AAs?$AA?$AN?$AA?6?$AA?$AA@| [ DATA ] ; `string'
	EXPORT	|??_C@_1CM@MFPGPOHA@?$AA?5?$AA?5?$AAI?$AAP?$AA?5?$AAm?$AAa?$AAs?$AAk?$AA?3?$AA?5?$AA?5?$AA?5?$AA?5?$AA?5?$AA?5?$AA?5?$AA?$CF?$AAs?$AA?$AN?$AA?6?$AA?$AA@| [ DATA ] ; `string'
	EXPORT	|??_C@_1CM@IMEGPKBH@?$AA?5?$AA?5?$AAI?$AAP?$AA?5?$AAr?$AAo?$AAu?$AAt?$AAe?$AAr?$AA?3?$AA?5?$AA?5?$AA?5?$AA?5?$AA?5?$AA?$CF?$AAs?$AA?$AN?$AA?6?$AA?$AA@| [ DATA ] ; `string'
	EXPORT	|??_C@_1CM@OEGKHNAF@?$AA?5?$AA?5?$AAK?$AAI?$AAT?$AAL?$AA?5?$AAm?$AAo?$AAd?$AAe?$AA?3?$AA?5?$AA?5?$AA?5?$AA?5?$AA?5?$AA?$CF?$AAs?$AA?$AN?$AA?6?$AA?$AA@| [ DATA ] ; `string'
	EXPORT	|??_C@_1BE@OLFPFCKI@?$AAi?$AAn?$AAt?$AAe?$AAr?$AAr?$AAu?$AAp?$AAt?$AA?$AA@| [ DATA ] ; `string'
	EXPORT	|??_C@_1O@DOAPGJLD@?$AAp?$AAo?$AAl?$AAl?$AAe?$AAd?$AA?$AA@| [ DATA ] ; `string'
	EXPORT	|??_C@_1CM@OLFKODG@?$AA?5?$AA?5?$AAK?$AAI?$AAT?$AAL?$AA?5?$AAt?$AAy?$AAp?$AAe?$AA?3?$AA?5?$AA?5?$AA?5?$AA?5?$AA?5?$AA?$CF?$AAs?$AA?$AN?$AA?6?$AA?$AA@| [ DATA ] ; `string'
	EXPORT	|??_C@_1O@IBNPCBAA@?$AAa?$AAc?$AAt?$AAi?$AAv?$AAe?$AA?$AA@| [ DATA ] ; `string'
	EXPORT	|??_C@_1BA@INHNFGAO@?$AAp?$AAa?$AAs?$AAs?$AAi?$AAv?$AAe?$AA?$AA@| [ DATA ] ; `string'
	EXPORT	|??_C@_1CM@KKLHLKH@?$AA?5?$AA?5?$AAK?$AAI?$AAT?$AAL?$AA?5?$AAs?$AAt?$AAa?$AAt?$AAe?$AA?3?$AA?5?$AA?5?$AA?5?$AA?5?$AA?$CF?$AAs?$AA?$AN?$AA?6?$AA?$AA@| [ DATA ] ; `string'
	EXPORT	|??_C@_1BC@LGPIFEA@?$AAd?$AAi?$AAs?$AAa?$AAb?$AAl?$AAe?$AAd?$AA?$AA@| [ DATA ] ; `string'
	EXPORT	|??_C@_1BA@BKMGIBPB@?$AAe?$AAn?$AAa?$AAb?$AAl?$AAe?$AAd?$AA?$AA@| [ DATA ] ; `string'
	EXPORT	|??_C@_1BM@NCMLOBGF@?$AA?$AN?$AA?6?$AA?5?$AAN?$AAe?$AAt?$AAw?$AAo?$AAr?$AAk?$AA?3?$AA?$AN?$AA?6?$AA?$AA@| [ DATA ] ; `string'
	IMPORT	|OALKitlMACtoString|
	IMPORT	|OALKitlIPtoString|

  00000			 AREA	 |.pdata|, PDATA
|$T47295| DCD	|$LN23@ShowNetwor|
	DCD	0xc0007b02

  00000			 AREA	 |.xdata|, DATA
|$T47291| DCD	0xffffffe8

  00000			 AREA	 |.rdata|, DATA, READONLY
|??_C@_1CM@MBNEBDDK@?$AA?5?$AA?5?$AAV?$AAM?$AAI?$AAN?$AAI?$AA?3?$AA?5?$AA?5?$AA?5?$AA?5?$AA?5?$AA?5?$AA?5?$AA?5?$AA?5?$AA?$CF?$AAs?$AA?$AN?$AA?6?$AA?$AA@| DCB " "
	DCB	0x0, " ", 0x0, "V", 0x0, "M", 0x0, "I", 0x0, "N", 0x0, "I"
	DCB	0x0, ":", 0x0, " ", 0x0, " ", 0x0, " ", 0x0, " ", 0x0, " "
	DCB	0x0, " ", 0x0, " ", 0x0, " ", 0x0, " ", 0x0, "%", 0x0, "s"
	DCB	0x0, 0xd, 0x0, 0xa, 0x0, 0x0, 0x0	; `string'

  00000			 AREA	 |.rdata|, DATA, READONLY
|??_C@_1GE@BGIPLJDA@?$AA?5?$AA?5?$AAN?$AAo?$AAt?$AAe?$AA?3?$AA?5?$AAU?$AAS?$AAB?$AAF?$AAN?$AA?5?$AAR?$AAN?$AAD?$AAI?$AAS?$AA?5?$AAM?$AAA?$AAC?$AA?5?$AAA?$AAd?$AAd?$AAr?$AA?5?$AAc?$AAa?$AAn@| DCB " "
	DCB	0x0, " ", 0x0, "N", 0x0, "o", 0x0, "t", 0x0, "e", 0x0, ":"
	DCB	0x0, " ", 0x0, "U", 0x0, "S", 0x0, "B", 0x0, "F", 0x0, "N"
	DCB	0x0, " ", 0x0, "R", 0x0, "N", 0x0, "D", 0x0, "I", 0x0, "S"
	DCB	0x0, " ", 0x0, "M", 0x0, "A", 0x0, "C", 0x0, " ", 0x0, "A"
	DCB	0x0, "d", 0x0, "d", 0x0, "r", 0x0, " ", 0x0, "c", 0x0, "a"
	DCB	0x0, "n", 0x0, "n", 0x0, "o", 0x0, "t", 0x0, " ", 0x0, "b"
	DCB	0x0, "e", 0x0, " ", 0x0, "c", 0x0, "h", 0x0, "a", 0x0, "n"
	DCB	0x0, "g", 0x0, "e", 0x0, "d", 0x0, ".", 0x0, 0xd, 0x0, 0xa
	DCB	0x0, 0x0, 0x0				; `string'

  00000			 AREA	 |.rdata|, DATA, READONLY
|??_C@_1DG@LEIGGFEH@?$AA?5?$AA?5?$AAE?$AAt?$AAh?$AA?5?$AAM?$AAA?$AAC?$AA?5?$AAA?$AAd?$AAd?$AAr?$AA?3?$AA?5?$AA?5?$AA?$CF?$AAs?$AA?5?$AA?$CI?$AA?$CF?$AAs?$AA?$CJ?$AA?$AN?$AA?6?$AA?$AA@| DCB " "
	DCB	0x0, " ", 0x0, "E", 0x0, "t", 0x0, "h", 0x0, " ", 0x0, "M"
	DCB	0x0, "A", 0x0, "C", 0x0, " ", 0x0, "A", 0x0, "d", 0x0, "d"
	DCB	0x0, "r", 0x0, ":", 0x0, " ", 0x0, " ", 0x0, "%", 0x0, "s"
	DCB	0x0, " ", 0x0, "(", 0x0, "%", 0x0, "s", 0x0, ")", 0x0, 0xd
	DCB	0x0, 0xa, 0x0, 0x0, 0x0			; `string'

  00000			 AREA	 |.rdata|, DATA, READONLY
|??_C@_1BM@HBILLBOB@?$AAB?$AAo?$AAo?$AAt?$AA?5?$AAs?$AAe?$AAt?$AAt?$AAi?$AAn?$AAg?$AAs?$AA?$AA@| DCB "B"
	DCB	0x0, "o", 0x0, "o", 0x0, "t", 0x0, " ", 0x0, "s", 0x0, "e"
	DCB	0x0, "t", 0x0, "t", 0x0, "i", 0x0, "n", 0x0, "g", 0x0, "s"
	DCB	0x0, 0x0, 0x0				; `string'

  00000			 AREA	 |.rdata|, DATA, READONLY
|??_C@_1O@HKPJJFOO@?$AAE?$AAE?$AAP?$AAR?$AAO?$AAM?$AA?$AA@| DCB "E", 0x0, "E"
	DCB	0x0, "P", 0x0, "R", 0x0, "O", 0x0, "M", 0x0, 0x0, 0x0 ; `string'

  00000			 AREA	 |.rdata|, DATA, READONLY
|??_C@_1CM@ENNBLIDC@?$AA?5?$AA?5?$AAD?$AAH?$AAC?$AAP?$AA?3?$AA?5?$AA?5?$AA?5?$AA?5?$AA?5?$AA?5?$AA?5?$AA?5?$AA?5?$AA?5?$AA?$CF?$AAs?$AA?$AN?$AA?6?$AA?$AA@| DCB " "
	DCB	0x0, " ", 0x0, "D", 0x0, "H", 0x0, "C", 0x0, "P", 0x0, ":"
	DCB	0x0, " ", 0x0, " ", 0x0, " ", 0x0, " ", 0x0, " ", 0x0, " "
	DCB	0x0, " ", 0x0, " ", 0x0, " ", 0x0, " ", 0x0, "%", 0x0, "s"
	DCB	0x0, 0xd, 0x0, 0xa, 0x0, 0x0, 0x0	; `string'

  00000			 AREA	 |.rdata|, DATA, READONLY
|??_C@_1CM@PFJOPCHK@?$AA?5?$AA?5?$AAI?$AAP?$AA?5?$AAa?$AAd?$AAd?$AAr?$AAe?$AAs?$AAs?$AA?3?$AA?5?$AA?5?$AA?5?$AA?5?$AA?$CF?$AAs?$AA?$AN?$AA?6?$AA?$AA@| DCB " "
	DCB	0x0, " ", 0x0, "I", 0x0, "P", 0x0, " ", 0x0, "a", 0x0, "d"
	DCB	0x0, "d", 0x0, "r", 0x0, "e", 0x0, "s", 0x0, "s", 0x0, ":"
	DCB	0x0, " ", 0x0, " ", 0x0, " ", 0x0, " ", 0x0, "%", 0x0, "s"
	DCB	0x0, 0xd, 0x0, 0xa, 0x0, 0x0, 0x0	; `string'

  00000			 AREA	 |.rdata|, DATA, READONLY
|??_C@_1CM@MFPGPOHA@?$AA?5?$AA?5?$AAI?$AAP?$AA?5?$AAm?$AAa?$AAs?$AAk?$AA?3?$AA?5?$AA?5?$AA?5?$AA?5?$AA?5?$AA?5?$AA?5?$AA?$CF?$AAs?$AA?$AN?$AA?6?$AA?$AA@| DCB " "
	DCB	0x0, " ", 0x0, "I", 0x0, "P", 0x0, " ", 0x0, "m", 0x0, "a"
	DCB	0x0, "s", 0x0, "k", 0x0, ":", 0x0, " ", 0x0, " ", 0x0, " "
	DCB	0x0, " ", 0x0, " ", 0x0, " ", 0x0, " ", 0x0, "%", 0x0, "s"
	DCB	0x0, 0xd, 0x0, 0xa, 0x0, 0x0, 0x0	; `string'

  00000			 AREA	 |.rdata|, DATA, READONLY
|??_C@_1CM@IMEGPKBH@?$AA?5?$AA?5?$AAI?$AAP?$AA?5?$AAr?$AAo?$AAu?$AAt?$AAe?$AAr?$AA?3?$AA?5?$AA?5?$AA?5?$AA?5?$AA?5?$AA?$CF?$AAs?$AA?$AN?$AA?6?$AA?$AA@| DCB " "
	DCB	0x0, " ", 0x0, "I", 0x0, "P", 0x0, " ", 0x0, "r", 0x0, "o"
	DCB	0x0, "u", 0x0, "t", 0x0, "e", 0x0, "r", 0x0, ":", 0x0, " "
	DCB	0x0, " ", 0x0, " ", 0x0, " ", 0x0, " ", 0x0, "%", 0x0, "s"
	DCB	0x0, 0xd, 0x0, 0xa, 0x0, 0x0, 0x0	; `string'

  00000			 AREA	 |.rdata|, DATA, READONLY
|??_C@_1CM@OEGKHNAF@?$AA?5?$AA?5?$AAK?$AAI?$AAT?$AAL?$AA?5?$AAm?$AAo?$AAd?$AAe?$AA?3?$AA?5?$AA?5?$AA?5?$AA?5?$AA?5?$AA?$CF?$AAs?$AA?$AN?$AA?6?$AA?$AA@| DCB " "
	DCB	0x0, " ", 0x0, "K", 0x0, "I", 0x0, "T", 0x0, "L", 0x0, " "
	DCB	0x0, "m", 0x0, "o", 0x0, "d", 0x0, "e", 0x0, ":", 0x0, " "
	DCB	0x0, " ", 0x0, " ", 0x0, " ", 0x0, " ", 0x0, "%", 0x0, "s"
	DCB	0x0, 0xd, 0x0, 0xa, 0x0, 0x0, 0x0	; `string'

  00000			 AREA	 |.rdata|, DATA, READONLY
|??_C@_1BE@OLFPFCKI@?$AAi?$AAn?$AAt?$AAe?$AAr?$AAr?$AAu?$AAp?$AAt?$AA?$AA@| DCB "i"
	DCB	0x0, "n", 0x0, "t", 0x0, "e", 0x0, "r", 0x0, "r", 0x0, "u"
	DCB	0x0, "p", 0x0, "t", 0x0, 0x0, 0x0	; `string'

  00000			 AREA	 |.rdata|, DATA, READONLY
|??_C@_1O@DOAPGJLD@?$AAp?$AAo?$AAl?$AAl?$AAe?$AAd?$AA?$AA@| DCB "p", 0x0, "o"
	DCB	0x0, "l", 0x0, "l", 0x0, "e", 0x0, "d", 0x0, 0x0, 0x0 ; `string'

  00000			 AREA	 |.rdata|, DATA, READONLY
|??_C@_1CM@OLFKODG@?$AA?5?$AA?5?$AAK?$AAI?$AAT?$AAL?$AA?5?$AAt?$AAy?$AAp?$AAe?$AA?3?$AA?5?$AA?5?$AA?5?$AA?5?$AA?5?$AA?$CF?$AAs?$AA?$AN?$AA?6?$AA?$AA@| DCB " "
	DCB	0x0, " ", 0x0, "K", 0x0, "I", 0x0, "T", 0x0, "L", 0x0, " "
	DCB	0x0, "t", 0x0, "y", 0x0, "p", 0x0, "e", 0x0, ":", 0x0, " "
	DCB	0x0, " ", 0x0, " ", 0x0, " ", 0x0, " ", 0x0, "%", 0x0, "s"
	DCB	0x0, 0xd, 0x0, 0xa, 0x0, 0x0, 0x0	; `string'

  00000			 AREA	 |.rdata|, DATA, READONLY
|??_C@_1O@IBNPCBAA@?$AAa?$AAc?$AAt?$AAi?$AAv?$AAe?$AA?$AA@| DCB "a", 0x0, "c"
	DCB	0x0, "t", 0x0, "i", 0x0, "v", 0x0, "e", 0x0, 0x0, 0x0 ; `string'

  00000			 AREA	 |.rdata|, DATA, READONLY
|??_C@_1BA@INHNFGAO@?$AAp?$AAa?$AAs?$AAs?$AAi?$AAv?$AAe?$AA?$AA@| DCB "p", 0x0
	DCB	"a", 0x0, "s", 0x0, "s", 0x0, "i", 0x0, "v", 0x0, "e", 0x0
	DCB	0x0, 0x0				; `string'

  00000			 AREA	 |.rdata|, DATA, READONLY
|??_C@_1CM@KKLHLKH@?$AA?5?$AA?5?$AAK?$AAI?$AAT?$AAL?$AA?5?$AAs?$AAt?$AAa?$AAt?$AAe?$AA?3?$AA?5?$AA?5?$AA?5?$AA?5?$AA?$CF?$AAs?$AA?$AN?$AA?6?$AA?$AA@| DCB " "
	DCB	0x0, " ", 0x0, "K", 0x0, "I", 0x0, "T", 0x0, "L", 0x0, " "
	DCB	0x0, "s", 0x0, "t", 0x0, "a", 0x0, "t", 0x0, "e", 0x0, ":"
	DCB	0x0, " ", 0x0, " ", 0x0, " ", 0x0, " ", 0x0, "%", 0x0, "s"
	DCB	0x0, 0xd, 0x0, 0xa, 0x0, 0x0, 0x0	; `string'

  00000			 AREA	 |.rdata|, DATA, READONLY
|??_C@_1BC@LGPIFEA@?$AAd?$AAi?$AAs?$AAa?$AAb?$AAl?$AAe?$AAd?$AA?$AA@| DCB "d"
	DCB	0x0, "i", 0x0, "s", 0x0, "a", 0x0, "b", 0x0, "l", 0x0, "e"
	DCB	0x0, "d", 0x0, 0x0, 0x0			; `string'

  00000			 AREA	 |.rdata|, DATA, READONLY
|??_C@_1BA@BKMGIBPB@?$AAe?$AAn?$AAa?$AAb?$AAl?$AAe?$AAd?$AA?$AA@| DCB "e", 0x0
	DCB	"n", 0x0, "a", 0x0, "b", 0x0, "l", 0x0, "e", 0x0, "d", 0x0
	DCB	0x0, 0x0				; `string'

  00000			 AREA	 |.rdata|, DATA, READONLY
|??_C@_1BM@NCMLOBGF@?$AA?$AN?$AA?6?$AA?5?$AAN?$AAe?$AAt?$AAw?$AAo?$AAr?$AAk?$AA?3?$AA?$AN?$AA?6?$AA?$AA@| DCB 0xd
	DCB	0x0, 0xa, 0x0, " ", 0x0, "N", 0x0, "e", 0x0, "t", 0x0, "w"
	DCB	0x0, "o", 0x0, "r", 0x0, "k", 0x0, ":", 0x0, 0xd, 0x0, 0xa
	DCB	0x0, 0x0, 0x0				; `string'
; Function compile flags: /Ogspy

  00000			 AREA	 |.text|, CODE, ARM

  00000	00000000	 DCD         |__GSHandlerCheck|
  00004	00000000	 DCD         |$T47291|

  00008		 |ShowNetworkSettings| PROC

; 374  : {

  00008		 |$LN23@ShowNetwor|
  00008	e92d40f0	 stmdb       sp!, {r4 - r7, lr}
  0000c	e24dd00c	 sub         sp, sp, #0xC
  00010		 |$M47292|
  00010	e59f31d8	 ldr         r3, [pc, #0x1D8]
  00014	e5933000	 ldr         r3, [r3]
  00018	e58d3008	 str         r3, [sp, #8]

; 375  :     BOOL fValidExtMacAddr;
; 376  :     UINT16 mac[3];
; 377  :     UNREFERENCED_PARAMETER(pMenu);
; 378  : 
; 379  :     memset(mac,0xFF,sizeof(mac));

  0001c	e3a03cff	 mov         r3, #0xFF, 24
  00020	e38340ff	 orr         r4, r3, #0xFF
  00024	e1cd40b0	 strh        r4, [sp]
  00028	e1cd40b2	 strh        r4, [sp, #2]

; 380  :     LAN911XGetMacAddress(OALPAtoUA((DWORD) BSP_LAN9115_REGS_PA),mac);

  0002c	e3a01000	 mov         r1, #0
  00030	e3a00415	 mov         r0, #0x15, 8
  00034	e1cd40b4	 strh        r4, [sp, #4]
  00038	eb000000	 bl          OALPAtoVA
  0003c	e28d1000	 add         r1, sp, #0
  00040	eb000000	 bl          LAN911XGetMacAddress

; 381  :     if (((mac[0]== 0xFFFF) && (mac[1] == 0xFFFF) && (mac[2] == 0xFFFF)) || ((mac[0]== 0x0) && (mac[1] == 0x0) && (mac[2] == 0x0)))

  00044	e1dd10b0	 ldrh        r1, [sp]
  00048	e1dd30b4	 ldrh        r3, [sp, #4]
  0004c	e1dd20b2	 ldrh        r2, [sp, #2]
  00050	e1510004	 cmp         r1, r4
  00054	1a000003	 bne         |$LN2@ShowNetwor|
  00058	e1520004	 cmp         r2, r4
  0005c	1a000001	 bne         |$LN2@ShowNetwor|
  00060	e1530004	 cmp         r3, r4
  00064	0a000005	 beq         |$LN3@ShowNetwor|
  00068		 |$LN2@ShowNetwor|
  00068	e3510000	 cmp         r1, #0
  0006c	1a000005	 bne         |$LN4@ShowNetwor|
  00070	e3520000	 cmp         r2, #0
  00074	1a000003	 bne         |$LN4@ShowNetwor|
  00078	e3530000	 cmp         r3, #0
  0007c	1a000001	 bne         |$LN4@ShowNetwor|
  00080		 |$LN3@ShowNetwor|

; 382  :     {
; 383  :         fValidExtMacAddr = FALSE;        

  00080	e3a06000	 mov         r6, #0

; 384  :     }
; 385  :     else

  00084	ea000000	 b           |$LN1@ShowNetwor|
  00088		 |$LN4@ShowNetwor|

; 386  :     {
; 387  :         fValidExtMacAddr = TRUE;        

  00088	e3a06001	 mov         r6, #1
  0008c		 |$LN1@ShowNetwor|

; 388  :     }
; 389  : 
; 390  : 
; 391  :     OALLog(L"\r\n Network:\r\n");

  0008c	e59f0158	 ldr         r0, [pc, #0x158]
  00090	eb000000	 bl          NKDbgPrintfW

; 392  :     OALLog(
; 393  :         L"  KITL state:    %s\r\n",
; 394  :         (g_bootCfg.kitlFlags & OAL_KITL_FLAGS_ENABLED) ? L"enabled" : L"disabled"
; 395  :     );

  00094	e59f414c	 ldr         r4, [pc, #0x14C]
  00098	e59f5144	 ldr         r5, [pc, #0x144]
  0009c	e59f013c	 ldr         r0, [pc, #0x13C]
  000a0	e5943030	 ldr         r3, [r4, #0x30]
  000a4	e3130001	 tst         r3, #1
  000a8	11a01005	 movne       r1, r5
  000ac	059f10f0	 ldreq       r1, [pc, #0xF0]
  000b0	eb000000	 bl          NKDbgPrintfW

; 396  : 
; 397  :     OALLog(
; 398  :         L"  KITL type:     %s\r\n",
; 399  :         (g_bootCfg.kitlFlags & OAL_KITL_FLAGS_PASSIVE) ? L"passive" : L"active"
; 400  :     );

  000b4	e5943030	 ldr         r3, [r4, #0x30]
  000b8	e59f011c	 ldr         r0, [pc, #0x11C]
  000bc	e3130002	 tst         r3, #2
  000c0	159f1110	 ldrne       r1, [pc, #0x110]
  000c4	059f1108	 ldreq       r1, [pc, #0x108]
  000c8	eb000000	 bl          NKDbgPrintfW

; 401  : 
; 402  :     OALLog(
; 403  :         L"  KITL mode:     %s\r\n",
; 404  :         (g_bootCfg.kitlFlags & OAL_KITL_FLAGS_POLL) ? L"polled" : L"interrupt"
; 405  :     );

  000cc	e5943030	 ldr         r3, [r4, #0x30]
  000d0	e59f00f8	 ldr         r0, [pc, #0xF8]
  000d4	e3130010	 tst         r3, #0x10
  000d8	159f10ec	 ldrne       r1, [pc, #0xEC]
  000dc	059f10e4	 ldreq       r1, [pc, #0xE4]
  000e0	eb000000	 bl          NKDbgPrintfW

; 406  :     OALLog(
; 407  :         L"  DHCP:          %s\r\n",
; 408  :         (g_bootCfg.kitlFlags & OAL_KITL_FLAGS_DHCP) ? L"enabled" : L"disabled"
; 409  :     );

  000e4	e5943030	 ldr         r3, [r4, #0x30]
  000e8	e59f00d4	 ldr         r0, [pc, #0xD4]
  000ec	e3130004	 tst         r3, #4
  000f0	11a01005	 movne       r1, r5
  000f4	059f10a8	 ldreq       r1, [pc, #0xA8]
  000f8	eb000000	 bl          NKDbgPrintfW

; 410  :     OALLog(L"  IP address:    %s\r\n", OALKitlIPtoString(g_bootCfg.ipAddress));

  000fc	e5940038	 ldr         r0, [r4, #0x38]
  00100	eb000000	 bl          OALKitlIPtoString
  00104	e1a01000	 mov         r1, r0
  00108	e59f00b0	 ldr         r0, [pc, #0xB0]
  0010c	eb000000	 bl          NKDbgPrintfW

; 411  :     OALLog(L"  IP mask:       %s\r\n", OALKitlIPtoString(g_bootCfg.ipMask));

  00110	e594003c	 ldr         r0, [r4, #0x3C]
  00114	eb000000	 bl          OALKitlIPtoString
  00118	e1a01000	 mov         r1, r0
  0011c	e59f0098	 ldr         r0, [pc, #0x98]
  00120	eb000000	 bl          NKDbgPrintfW

; 412  :     OALLog(L"  IP router:     %s\r\n", OALKitlIPtoString(g_bootCfg.ipRoute));

  00124	e5940040	 ldr         r0, [r4, #0x40]
  00128	eb000000	 bl          OALKitlIPtoString
  0012c	e1a01000	 mov         r1, r0
  00130	e59f0080	 ldr         r0, [pc, #0x80]
  00134	eb000000	 bl          NKDbgPrintfW

; 413  :     OALLog(L"  Eth MAC Addr:  %s (%s)\r\n", 
; 414  :         OALKitlMACtoString(fValidExtMacAddr ? mac : g_bootCfg.mac)
; 415  :         ,fValidExtMacAddr ? L"EEPROM" : L"Boot settings");

  00138	e3560000	 cmp         r6, #0
  0013c	159f7070	 ldrne       r7, [pc, #0x70]
  00140	059f7068	 ldreq       r7, [pc, #0x68]
  00144	e3560000	 cmp         r6, #0
  00148	128d0000	 addne       r0, sp, #0
  0014c	02840066	 addeq       r0, r4, #0x66
  00150	eb000000	 bl          OALKitlMACtoString
  00154	e1a01000	 mov         r1, r0
  00158	e59f004c	 ldr         r0, [pc, #0x4C]
  0015c	e1a02007	 mov         r2, r7
  00160	eb000000	 bl          NKDbgPrintfW

; 416  :     OALLog(
; 417  :         L"  VMINI:         %s\r\n",
; 418  :         (g_bootCfg.kitlFlags & OAL_KITL_FLAGS_VMINI) ? L"enabled" : L"disabled"
; 419  :     );

  00164	e5943030	 ldr         r3, [r4, #0x30]
  00168	e59f0038	 ldr         r0, [pc, #0x38]
  0016c	e3130008	 tst         r3, #8
  00170	059f502c	 ldreq       r5, [pc, #0x2C]
  00174	e1a01005	 mov         r1, r5
  00178	eb000000	 bl          NKDbgPrintfW

; 420  :     OALLog(L"  Note: USBFN RNDIS MAC Addr cannot be changed.\r\n");

  0017c	e59f001c	 ldr         r0, [pc, #0x1C]
  00180	eb000000	 bl          NKDbgPrintfW

; 421  :     
; 422  :     OALBLMenuReadKey(TRUE);

  00184	e3a00001	 mov         r0, #1
  00188	eb000000	 bl          OALBLMenuReadKey
  0018c	e59d0008	 ldr         r0, [sp, #8]
  00190	eb000000	 bl          __security_check_cookie

; 423  : }

  00194	e28dd00c	 add         sp, sp, #0xC
  00198	e8bd40f0	 ldmia       sp!, {r4 - r7, lr}
  0019c	e12fff1e	 bx          lr
  001a0		 |$LN24@ShowNetwor|
  001a0		 |$LN25@ShowNetwor|
  001a0	00000000	 DCD         |??_C@_1GE@BGIPLJDA@?$AA?5?$AA?5?$AAN?$AAo?$AAt?$AAe?$AA?3?$AA?5?$AAU?$AAS?$AAB?$AAF?$AAN?$AA?5?$AAR?$AAN?$AAD?$AAI?$AAS?$AA?5?$AAM?$AAA?$AAC?$AA?5?$AAA?$AAd?$AAd?$AAr?$AA?5?$AAc?$AAa?$AAn@|
  001a4		 |$LN26@ShowNetwor|
  001a4	00000000	 DCD         |??_C@_1BC@LGPIFEA@?$AAd?$AAi?$AAs?$AAa?$AAb?$AAl?$AAe?$AAd?$AA?$AA@|
  001a8		 |$LN27@ShowNetwor|
  001a8	00000000	 DCD         |??_C@_1CM@MBNEBDDK@?$AA?5?$AA?5?$AAV?$AAM?$AAI?$AAN?$AAI?$AA?3?$AA?5?$AA?5?$AA?5?$AA?5?$AA?5?$AA?5?$AA?5?$AA?5?$AA?5?$AA?$CF?$AAs?$AA?$AN?$AA?6?$AA?$AA@|
  001ac		 |$LN28@ShowNetwor|
  001ac	00000000	 DCD         |??_C@_1DG@LEIGGFEH@?$AA?5?$AA?5?$AAE?$AAt?$AAh?$AA?5?$AAM?$AAA?$AAC?$AA?5?$AAA?$AAd?$AAd?$AAr?$AA?3?$AA?5?$AA?5?$AA?$CF?$AAs?$AA?5?$AA?$CI?$AA?$CF?$AAs?$AA?$CJ?$AA?$AN?$AA?6?$AA?$AA@|
  001b0		 |$LN29@ShowNetwor|
  001b0	00000000	 DCD         |??_C@_1BM@HBILLBOB@?$AAB?$AAo?$AAo?$AAt?$AA?5?$AAs?$AAe?$AAt?$AAt?$AAi?$AAn?$AAg?$AAs?$AA?$AA@|
  001b4		 |$LN30@ShowNetwor|
  001b4	00000000	 DCD         |??_C@_1O@HKPJJFOO@?$AAE?$AAE?$AAP?$AAR?$AAO?$AAM?$AA?$AA@|
  001b8		 |$LN31@ShowNetwor|
  001b8	00000000	 DCD         |??_C@_1CM@IMEGPKBH@?$AA?5?$AA?5?$AAI?$AAP?$AA?5?$AAr?$AAo?$AAu?$AAt?$AAe?$AAr?$AA?3?$AA?5?$AA?5?$AA?5?$AA?5?$AA?5?$AA?$CF?$AAs?$AA?$AN?$AA?6?$AA?$AA@|
  001bc		 |$LN32@ShowNetwor|
  001bc	00000000	 DCD         |??_C@_1CM@MFPGPOHA@?$AA?5?$AA?5?$AAI?$AAP?$AA?5?$AAm?$AAa?$AAs?$AAk?$AA?3?$AA?5?$AA?5?$AA?5?$AA?5?$AA?5?$AA?5?$AA?5?$AA?$CF?$AAs?$AA?$AN?$AA?6?$AA?$AA@|
  001c0		 |$LN33@ShowNetwor|
  001c0	00000000	 DCD         |??_C@_1CM@PFJOPCHK@?$AA?5?$AA?5?$AAI?$AAP?$AA?5?$AAa?$AAd?$AAd?$AAr?$AAe?$AAs?$AAs?$AA?3?$AA?5?$AA?5?$AA?5?$AA?5?$AA?$CF?$AAs?$AA?$AN?$AA?6?$AA?$AA@|
  001c4		 |$LN34@ShowNetwor|
  001c4	00000000	 DCD         |??_C@_1CM@ENNBLIDC@?$AA?5?$AA?5?$AAD?$AAH?$AAC?$AAP?$AA?3?$AA?5?$AA?5?$AA?5?$AA?5?$AA?5?$AA?5?$AA?5?$AA?5?$AA?5?$AA?5?$AA?$CF?$AAs?$AA?$AN?$AA?6?$AA?$AA@|
  001c8		 |$LN35@ShowNetwor|
  001c8	00000000	 DCD         |??_C@_1BE@OLFPFCKI@?$AAi?$AAn?$AAt?$AAe?$AAr?$AAr?$AAu?$AAp?$AAt?$AA?$AA@|
  001cc		 |$LN36@ShowNetwor|
  001cc	00000000	 DCD         |??_C@_1O@DOAPGJLD@?$AAp?$AAo?$AAl?$AAl?$AAe?$AAd?$AA?$AA@|
  001d0		 |$LN37@ShowNetwor|
  001d0	00000000	 DCD         |??_C@_1CM@OEGKHNAF@?$AA?5?$AA?5?$AAK?$AAI?$AAT?$AAL?$AA?5?$AAm?$AAo?$AAd?$AAe?$AA?3?$AA?5?$AA?5?$AA?5?$AA?5?$AA?5?$AA?$CF?$AAs?$AA?$AN?$AA?6?$AA?$AA@|
  001d4		 |$LN38@ShowNetwor|
  001d4	00000000	 DCD         |??_C@_1O@IBNPCBAA@?$AAa?$AAc?$AAt?$AAi?$AAv?$AAe?$AA?$AA@|
  001d8		 |$LN39@ShowNetwor|
  001d8	00000000	 DCD         |??_C@_1BA@INHNFGAO@?$AAp?$AAa?$AAs?$AAs?$AAi?$AAv?$AAe?$AA?$AA@|
  001dc		 |$LN40@ShowNetwor|
  001dc	00000000	 DCD         |??_C@_1CM@OLFKODG@?$AA?5?$AA?5?$AAK?$AAI?$AAT?$AAL?$AA?5?$AAt?$AAy?$AAp?$AAe?$AA?3?$AA?5?$AA?5?$AA?5?$AA?5?$AA?5?$AA?$CF?$AAs?$AA?$AN?$AA?6?$AA?$AA@|
  001e0		 |$LN41@ShowNetwor|
  001e0	00000000	 DCD         |??_C@_1CM@KKLHLKH@?$AA?5?$AA?5?$AAK?$AAI?$AAT?$AAL?$AA?5?$AAs?$AAt?$AAa?$AAt?$AAe?$AA?3?$AA?5?$AA?5?$AA?5?$AA?5?$AA?$CF?$AAs?$AA?$AN?$AA?6?$AA?$AA@|
  001e4		 |$LN42@ShowNetwor|
  001e4	00000000	 DCD         |??_C@_1BA@BKMGIBPB@?$AAe?$AAn?$AAa?$AAb?$AAl?$AAe?$AAd?$AA?$AA@|
  001e8		 |$LN43@ShowNetwor|
  001e8	00000000	 DCD         |g_bootCfg|
  001ec		 |$LN44@ShowNetwor|
  001ec	00000000	 DCD         |??_C@_1BM@NCMLOBGF@?$AA?$AN?$AA?6?$AA?5?$AAN?$AAe?$AAt?$AAw?$AAo?$AAr?$AAk?$AA?3?$AA?$AN?$AA?6?$AA?$AA@|
  001f0		 |$LN45@ShowNetwor|
  001f0	00000000	 DCD         |__security_cookie|
  001f4		 |$M47293|

			 ENDP  ; |ShowNetworkSettings|

	EXPORT	|??_C@_1DG@GANBFOFA@?$AA?5?$AAK?$AAI?$AAT?$AAL?$AA?5?$AAs?$AAe?$AAt?$AA?5?$AAt?$AAo?$AA?5?$AAp?$AAo?$AAl?$AAl?$AAe?$AAd?$AA?5?$AAm?$AAo?$AAd?$AAe?$AA?$AN?$AA?6?$AA?$AA@| [ DATA ] ; `string'
	EXPORT	|??_C@_1DM@IPPCLHEI@?$AA?5?$AAK?$AAI?$AAT?$AAL?$AA?5?$AAs?$AAe?$AAt?$AA?5?$AAt?$AAo?$AA?5?$AAi?$AAn?$AAt?$AAe?$AAr?$AAr?$AAu?$AAp?$AAt?$AA?5?$AAm?$AAo?$AAd?$AAe?$AA?$AN?$AA?6?$AA?$AA@| [ DATA ] ; `string'
	EXPORT	|??_C@_19DIEGALPP@?$AA?$CF?$AAc?$AA?$AN?$AA?6?$AA?$AA@| [ DATA ] ; `string'
	EXPORT	|??_C@_1EC@JHPHMHOA@?$AA?5?$AAS?$AAe?$AAt?$AA?5?$AAK?$AAI?$AAT?$AAL?$AA?5?$AAt?$AAo?$AA?5?$AAp?$AAo?$AAl?$AAl?$AAe?$AAd?$AA?5?$AAm?$AAo?$AAd?$AAe?$AA?5?$AA?$FL?$AAy?$AA?1?$AA?9?$AA?$FN?$AA?3?$AA?5@| [ DATA ] ; `string'
	EXPORT	|??_C@_1EI@CAADENIK@?$AA?5?$AAS?$AAe?$AAt?$AA?5?$AAK?$AAI?$AAT?$AAL?$AA?5?$AAt?$AAo?$AA?5?$AAi?$AAn?$AAt?$AAe?$AAr?$AAr?$AAu?$AAp?$AAt?$AA?5?$AAm?$AAo?$AAd?$AAe?$AA?5?$AA?$FL?$AAy?$AA?1?$AA?9@| [ DATA ] ; `string'

  00000			 AREA	 |.pdata|, PDATA
|$T47328| DCD	|$LN13@SetKitlMod|
	DCD	0x40002201

  00000			 AREA	 |.rdata|, DATA, READONLY
|??_C@_1DG@GANBFOFA@?$AA?5?$AAK?$AAI?$AAT?$AAL?$AA?5?$AAs?$AAe?$AAt?$AA?5?$AAt?$AAo?$AA?5?$AAp?$AAo?$AAl?$AAl?$AAe?$AAd?$AA?5?$AAm?$AAo?$AAd?$AAe?$AA?$AN?$AA?6?$AA?$AA@| DCB " "
	DCB	0x0, "K", 0x0, "I", 0x0, "T", 0x0, "L", 0x0, " ", 0x0, "s"
	DCB	0x0, "e", 0x0, "t", 0x0, " ", 0x0, "t", 0x0, "o", 0x0, " "
	DCB	0x0, "p", 0x0, "o", 0x0, "l", 0x0, "l", 0x0, "e", 0x0, "d"
	DCB	0x0, " ", 0x0, "m", 0x0, "o", 0x0, "d", 0x0, "e", 0x0, 0xd
	DCB	0x0, 0xa, 0x0, 0x0, 0x0			; `string'

  00000			 AREA	 |.rdata|, DATA, READONLY
|??_C@_1DM@IPPCLHEI@?$AA?5?$AAK?$AAI?$AAT?$AAL?$AA?5?$AAs?$AAe?$AAt?$AA?5?$AAt?$AAo?$AA?5?$AAi?$AAn?$AAt?$AAe?$AAr?$AAr?$AAu?$AAp?$AAt?$AA?5?$AAm?$AAo?$AAd?$AAe?$AA?$AN?$AA?6?$AA?$AA@| DCB " "
	DCB	0x0, "K", 0x0, "I", 0x0, "T", 0x0, "L", 0x0, " ", 0x0, "s"
	DCB	0x0, "e", 0x0, "t", 0x0, " ", 0x0, "t", 0x0, "o", 0x0, " "
	DCB	0x0, "i", 0x0, "n", 0x0, "t", 0x0, "e", 0x0, "r", 0x0, "r"
	DCB	0x0, "u", 0x0, "p", 0x0, "t", 0x0, " ", 0x0, "m", 0x0, "o"
	DCB	0x0, "d", 0x0, "e", 0x0, 0xd, 0x0, 0xa, 0x0, 0x0, 0x0 ; `string'

  00000			 AREA	 |.rdata|, DATA, READONLY
|??_C@_19DIEGALPP@?$AA?$CF?$AAc?$AA?$AN?$AA?6?$AA?$AA@| DCB "%", 0x0, "c", 0x0
	DCB	0xd, 0x0, 0xa, 0x0, 0x0, 0x0		; `string'

  00000			 AREA	 |.rdata|, DATA, READONLY
|??_C@_1EC@JHPHMHOA@?$AA?5?$AAS?$AAe?$AAt?$AA?5?$AAK?$AAI?$AAT?$AAL?$AA?5?$AAt?$AAo?$AA?5?$AAp?$AAo?$AAl?$AAl?$AAe?$AAd?$AA?5?$AAm?$AAo?$AAd?$AAe?$AA?5?$AA?$FL?$AAy?$AA?1?$AA?9?$AA?$FN?$AA?3?$AA?5@| DCB " "
	DCB	0x0, "S", 0x0, "e", 0x0, "t", 0x0, " ", 0x0, "K", 0x0, "I"
	DCB	0x0, "T", 0x0, "L", 0x0, " ", 0x0, "t", 0x0, "o", 0x0, " "
	DCB	0x0, "p", 0x0, "o", 0x0, "l", 0x0, "l", 0x0, "e", 0x0, "d"
	DCB	0x0, " ", 0x0, "m", 0x0, "o", 0x0, "d", 0x0, "e", 0x0, " "
	DCB	0x0, "[", 0x0, "y", 0x0, "/", 0x0, "-", 0x0, "]", 0x0, ":"
	DCB	0x0, " ", 0x0, 0x0, 0x0			; `string'

  00000			 AREA	 |.rdata|, DATA, READONLY
|??_C@_1EI@CAADENIK@?$AA?5?$AAS?$AAe?$AAt?$AA?5?$AAK?$AAI?$AAT?$AAL?$AA?5?$AAt?$AAo?$AA?5?$AAi?$AAn?$AAt?$AAe?$AAr?$AAr?$AAu?$AAp?$AAt?$AA?5?$AAm?$AAo?$AAd?$AAe?$AA?5?$AA?$FL?$AAy?$AA?1?$AA?9@| DCB " "
	DCB	0x0, "S", 0x0, "e", 0x0, "t", 0x0, " ", 0x0, "K", 0x0, "I"
	DCB	0x0, "T", 0x0, "L", 0x0, " ", 0x0, "t", 0x0, "o", 0x0, " "
	DCB	0x0, "i", 0x0, "n", 0x0, "t", 0x0, "e", 0x0, "r", 0x0, "r"
	DCB	0x0, "u", 0x0, "p", 0x0, "t", 0x0, " ", 0x0, "m", 0x0, "o"
	DCB	0x0, "d", 0x0, "e", 0x0, " ", 0x0, "[", 0x0, "y", 0x0, "/"
	DCB	0x0, "-", 0x0, "]", 0x0, ":", 0x0, " ", 0x0, 0x0, 0x0 ; `string'
; Function compile flags: /Ogspy

  00000			 AREA	 |.text|, CODE, ARM

  00000		 |SetKitlMode| PROC

; 428  : {

  00000		 |$LN13@SetKitlMod|
  00000	e92d4030	 stmdb       sp!, {r4, r5, lr}
  00004		 |$M47325|

; 429  :     WCHAR key;
; 430  :     UNREFERENCED_PARAMETER(pMenu);
; 431  : 
; 432  :     if ((g_bootCfg.kitlFlags & OAL_KITL_FLAGS_POLL) != 0) {

  00004	e59f4078	 ldr         r4, [pc, #0x78]
  00008	e5943030	 ldr         r3, [r4, #0x30]
  0000c	e3130010	 tst         r3, #0x10

; 433  :         OALLog(L" Set KITL to interrupt mode [y/-]: ");

  00010	159f0068	 ldrne       r0, [pc, #0x68]

; 434  :     } else {
; 435  :         OALLog(L" Set KITL to polled mode [y/-]: ");

  00014	059f0060	 ldreq       r0, [pc, #0x60]
  00018	eb000000	 bl          NKDbgPrintfW

; 436  :     }    
; 437  : 
; 438  :     // Get key
; 439  :     key = OALBLMenuReadKey(TRUE);

  0001c	e3a00001	 mov         r0, #1
  00020	eb000000	 bl          OALBLMenuReadKey
  00024	e1a05800	 mov         r5, r0, lsl #16

; 440  :     OALLog(L"%c\r\n", key);

  00028	e59f0048	 ldr         r0, [pc, #0x48]
  0002c	e1a05825	 mov         r5, r5, lsr #16
  00030	e1a01005	 mov         r1, r5
  00034	eb000000	 bl          NKDbgPrintfW

; 441  : 
; 442  :     if (key == L'y' || key == L'Y') {

  00038	e3550079	 cmp         r5, #0x79
  0003c	0a000001	 beq         |$LN3@SetKitlMod|
  00040	e3550059	 cmp         r5, #0x59
  00044	1a000007	 bne         |$LN1@SetKitlMod|
  00048		 |$LN3@SetKitlMod|

; 443  :         if ((g_bootCfg.kitlFlags & OAL_KITL_FLAGS_POLL) != 0) {

  00048	e5943030	 ldr         r3, [r4, #0x30]
  0004c	e3130010	 tst         r3, #0x10

; 444  :             g_bootCfg.kitlFlags &= ~OAL_KITL_FLAGS_POLL;
; 445  :             OALLog(L" KITL set to interrupt mode\r\n");

  00050	159f001c	 ldrne       r0, [pc, #0x1C]

; 446  :         } else {
; 447  :             g_bootCfg.kitlFlags |= OAL_KITL_FLAGS_POLL;
; 448  :             OALLog(L" KITL set to polled mode\r\n");

  00054	059f0014	 ldreq       r0, [pc, #0x14]
  00058	13c33010	 bicne       r3, r3, #0x10
  0005c	03833010	 orreq       r3, r3, #0x10
  00060	e5843030	 str         r3, [r4, #0x30]
  00064	eb000000	 bl          NKDbgPrintfW
  00068		 |$LN1@SetKitlMod|

; 449  :         }            
; 450  :     }
; 451  : }

  00068	e8bd4030	 ldmia       sp!, {r4, r5, lr}
  0006c	e12fff1e	 bx          lr
  00070		 |$LN14@SetKitlMod|
  00070		 |$LN15@SetKitlMod|
  00070	00000000	 DCD         |??_C@_1DG@GANBFOFA@?$AA?5?$AAK?$AAI?$AAT?$AAL?$AA?5?$AAs?$AAe?$AAt?$AA?5?$AAt?$AAo?$AA?5?$AAp?$AAo?$AAl?$AAl?$AAe?$AAd?$AA?5?$AAm?$AAo?$AAd?$AAe?$AA?$AN?$AA?6?$AA?$AA@|
  00074		 |$LN16@SetKitlMod|
  00074	00000000	 DCD         |??_C@_1DM@IPPCLHEI@?$AA?5?$AAK?$AAI?$AAT?$AAL?$AA?5?$AAs?$AAe?$AAt?$AA?5?$AAt?$AAo?$AA?5?$AAi?$AAn?$AAt?$AAe?$AAr?$AAr?$AAu?$AAp?$AAt?$AA?5?$AAm?$AAo?$AAd?$AAe?$AA?$AN?$AA?6?$AA?$AA@|
  00078		 |$LN17@SetKitlMod|
  00078	00000000	 DCD         |??_C@_19DIEGALPP@?$AA?$CF?$AAc?$AA?$AN?$AA?6?$AA?$AA@|
  0007c		 |$LN18@SetKitlMod|
  0007c	00000000	 DCD         |??_C@_1EC@JHPHMHOA@?$AA?5?$AAS?$AAe?$AAt?$AA?5?$AAK?$AAI?$AAT?$AAL?$AA?5?$AAt?$AAo?$AA?5?$AAp?$AAo?$AAl?$AAl?$AAe?$AAd?$AA?5?$AAm?$AAo?$AAd?$AAe?$AA?5?$AA?$FL?$AAy?$AA?1?$AA?9?$AA?$FN?$AA?3?$AA?5@|
  00080		 |$LN19@SetKitlMod|
  00080	00000000	 DCD         |??_C@_1EI@CAADENIK@?$AA?5?$AAS?$AAe?$AAt?$AA?5?$AAK?$AAI?$AAT?$AAL?$AA?5?$AAt?$AAo?$AA?5?$AAi?$AAn?$AAt?$AAe?$AAr?$AAr?$AAu?$AAp?$AAt?$AA?5?$AAm?$AAo?$AAd?$AAe?$AA?5?$AA?$FL?$AAy?$AA?1?$AA?9@|
  00084		 |$LN20@SetKitlMod|
  00084	00000000	 DCD         |g_bootCfg|
  00088		 |$M47326|

			 ENDP  ; |SetKitlMode|

	EXPORT	|??_C@_1DI@DNJMHDAE@?$AA?5?$AAK?$AAI?$AAT?$AAL?$AA?5?$AAs?$AAe?$AAt?$AA?5?$AAt?$AAo?$AA?5?$AAp?$AAa?$AAs?$AAs?$AAi?$AAv?$AAe?$AA?5?$AAm?$AAo?$AAd?$AAe?$AA?$AN?$AA?6?$AA?$AA@| [ DATA ] ; `string'
	EXPORT	|??_C@_1DG@EDFECNLC@?$AA?5?$AAK?$AAI?$AAT?$AAL?$AA?5?$AAs?$AAe?$AAt?$AA?5?$AAt?$AAo?$AA?5?$AAa?$AAc?$AAt?$AAi?$AAv?$AAe?$AA?5?$AAm?$AAo?$AAd?$AAe?$AA?$AN?$AA?6?$AA?$AA@| [ DATA ] ; `string'
	EXPORT	|??_C@_1EE@HIABIPBL@?$AA?5?$AAS?$AAe?$AAt?$AA?5?$AAK?$AAI?$AAT?$AAL?$AA?5?$AAt?$AAo?$AA?5?$AAp?$AAa?$AAs?$AAs?$AAi?$AAv?$AAe?$AA?5?$AAm?$AAo?$AAd?$AAe?$AA?5?$AA?$FL?$AAy?$AA?1?$AA?9?$AA?$FN?$AA?3@| [ DATA ] ; `string'
	EXPORT	|??_C@_1EC@OPMJBCEG@?$AA?5?$AAS?$AAe?$AAt?$AA?5?$AAK?$AAI?$AAT?$AAL?$AA?5?$AAt?$AAo?$AA?5?$AAa?$AAc?$AAt?$AAi?$AAv?$AAe?$AA?5?$AAm?$AAo?$AAd?$AAe?$AA?5?$AA?$FL?$AAy?$AA?1?$AA?9?$AA?$FN?$AA?3?$AA?5@| [ DATA ] ; `string'

  00000			 AREA	 |.pdata|, PDATA
|$T47345| DCD	|$LN13@SetKitlTyp|
	DCD	0x40002201

  00000			 AREA	 |.rdata|, DATA, READONLY
|??_C@_1DI@DNJMHDAE@?$AA?5?$AAK?$AAI?$AAT?$AAL?$AA?5?$AAs?$AAe?$AAt?$AA?5?$AAt?$AAo?$AA?5?$AAp?$AAa?$AAs?$AAs?$AAi?$AAv?$AAe?$AA?5?$AAm?$AAo?$AAd?$AAe?$AA?$AN?$AA?6?$AA?$AA@| DCB " "
	DCB	0x0, "K", 0x0, "I", 0x0, "T", 0x0, "L", 0x0, " ", 0x0, "s"
	DCB	0x0, "e", 0x0, "t", 0x0, " ", 0x0, "t", 0x0, "o", 0x0, " "
	DCB	0x0, "p", 0x0, "a", 0x0, "s", 0x0, "s", 0x0, "i", 0x0, "v"
	DCB	0x0, "e", 0x0, " ", 0x0, "m", 0x0, "o", 0x0, "d", 0x0, "e"
	DCB	0x0, 0xd, 0x0, 0xa, 0x0, 0x0, 0x0	; `string'

  00000			 AREA	 |.rdata|, DATA, READONLY
|??_C@_1DG@EDFECNLC@?$AA?5?$AAK?$AAI?$AAT?$AAL?$AA?5?$AAs?$AAe?$AAt?$AA?5?$AAt?$AAo?$AA?5?$AAa?$AAc?$AAt?$AAi?$AAv?$AAe?$AA?5?$AAm?$AAo?$AAd?$AAe?$AA?$AN?$AA?6?$AA?$AA@| DCB " "
	DCB	0x0, "K", 0x0, "I", 0x0, "T", 0x0, "L", 0x0, " ", 0x0, "s"
	DCB	0x0, "e", 0x0, "t", 0x0, " ", 0x0, "t", 0x0, "o", 0x0, " "
	DCB	0x0, "a", 0x0, "c", 0x0, "t", 0x0, "i", 0x0, "v", 0x0, "e"
	DCB	0x0, " ", 0x0, "m", 0x0, "o", 0x0, "d", 0x0, "e", 0x0, 0xd
	DCB	0x0, 0xa, 0x0, 0x0, 0x0			; `string'

  00000			 AREA	 |.rdata|, DATA, READONLY
|??_C@_1EE@HIABIPBL@?$AA?5?$AAS?$AAe?$AAt?$AA?5?$AAK?$AAI?$AAT?$AAL?$AA?5?$AAt?$AAo?$AA?5?$AAp?$AAa?$AAs?$AAs?$AAi?$AAv?$AAe?$AA?5?$AAm?$AAo?$AAd?$AAe?$AA?5?$AA?$FL?$AAy?$AA?1?$AA?9?$AA?$FN?$AA?3@| DCB " "
	DCB	0x0, "S", 0x0, "e", 0x0, "t", 0x0, " ", 0x0, "K", 0x0, "I"
	DCB	0x0, "T", 0x0, "L", 0x0, " ", 0x0, "t", 0x0, "o", 0x0, " "
	DCB	0x0, "p", 0x0, "a", 0x0, "s", 0x0, "s", 0x0, "i", 0x0, "v"
	DCB	0x0, "e", 0x0, " ", 0x0, "m", 0x0, "o", 0x0, "d", 0x0, "e"
	DCB	0x0, " ", 0x0, "[", 0x0, "y", 0x0, "/", 0x0, "-", 0x0, "]"
	DCB	0x0, ":", 0x0, " ", 0x0, 0x0, 0x0	; `string'

  00000			 AREA	 |.rdata|, DATA, READONLY
|??_C@_1EC@OPMJBCEG@?$AA?5?$AAS?$AAe?$AAt?$AA?5?$AAK?$AAI?$AAT?$AAL?$AA?5?$AAt?$AAo?$AA?5?$AAa?$AAc?$AAt?$AAi?$AAv?$AAe?$AA?5?$AAm?$AAo?$AAd?$AAe?$AA?5?$AA?$FL?$AAy?$AA?1?$AA?9?$AA?$FN?$AA?3?$AA?5@| DCB " "
	DCB	0x0, "S", 0x0, "e", 0x0, "t", 0x0, " ", 0x0, "K", 0x0, "I"
	DCB	0x0, "T", 0x0, "L", 0x0, " ", 0x0, "t", 0x0, "o", 0x0, " "
	DCB	0x0, "a", 0x0, "c", 0x0, "t", 0x0, "i", 0x0, "v", 0x0, "e"
	DCB	0x0, " ", 0x0, "m", 0x0, "o", 0x0, "d", 0x0, "e", 0x0, " "
	DCB	0x0, "[", 0x0, "y", 0x0, "/", 0x0, "-", 0x0, "]", 0x0, ":"
	DCB	0x0, " ", 0x0, 0x0, 0x0			; `string'
; Function compile flags: /Ogspy

  00000			 AREA	 |.text|, CODE, ARM

  00000		 |SetKitlType| PROC

; 459  : {

  00000		 |$LN13@SetKitlTyp|
  00000	e92d4030	 stmdb       sp!, {r4, r5, lr}
  00004		 |$M47342|

; 460  :     WCHAR key;
; 461  :     UNREFERENCED_PARAMETER(pMenu);
; 462  : 
; 463  :     if ((g_bootCfg.kitlFlags & OAL_KITL_FLAGS_PASSIVE) != 0) 

  00004	e59f4078	 ldr         r4, [pc, #0x78]
  00008	e5943030	 ldr         r3, [r4, #0x30]
  0000c	e3130002	 tst         r3, #2

; 464  :         {
; 465  :         OALLog(L" Set KITL to active mode [y/-]: ");

  00010	159f0068	 ldrne       r0, [pc, #0x68]

; 466  :         } 
; 467  :    else 
; 468  :         {
; 469  :         OALLog(L" Set KITL to passive mode [y/-]: ");

  00014	059f0060	 ldreq       r0, [pc, #0x60]
  00018	eb000000	 bl          NKDbgPrintfW

; 470  :         }    
; 471  : 
; 472  :     // Get key
; 473  :     key = OALBLMenuReadKey(TRUE);

  0001c	e3a00001	 mov         r0, #1
  00020	eb000000	 bl          OALBLMenuReadKey
  00024	e1a05800	 mov         r5, r0, lsl #16

; 474  :     OALLog(L"%c\r\n", key);

  00028	e59f0048	 ldr         r0, [pc, #0x48]
  0002c	e1a05825	 mov         r5, r5, lsr #16
  00030	e1a01005	 mov         r1, r5
  00034	eb000000	 bl          NKDbgPrintfW

; 475  : 
; 476  :     if (key == L'y' || key == L'Y') 

  00038	e3550079	 cmp         r5, #0x79
  0003c	0a000001	 beq         |$LN3@SetKitlTyp|
  00040	e3550059	 cmp         r5, #0x59
  00044	1a000007	 bne         |$LN1@SetKitlTyp|
  00048		 |$LN3@SetKitlTyp|

; 477  :         {
; 478  :         if ((g_bootCfg.kitlFlags & OAL_KITL_FLAGS_PASSIVE) != 0) 

  00048	e5943030	 ldr         r3, [r4, #0x30]
  0004c	e3130002	 tst         r3, #2

; 479  :             {
; 480  :             g_bootCfg.kitlFlags &= ~OAL_KITL_FLAGS_PASSIVE;
; 481  :             OALLog(L" KITL set to active mode\r\n");

  00050	159f001c	 ldrne       r0, [pc, #0x1C]

; 482  :             }
; 483  :         else 
; 484  :             {
; 485  :             g_bootCfg.kitlFlags |= OAL_KITL_FLAGS_PASSIVE;
; 486  :             OALLog(L" KITL set to passive mode\r\n");

  00054	059f0014	 ldreq       r0, [pc, #0x14]
  00058	13c33002	 bicne       r3, r3, #2
  0005c	03833002	 orreq       r3, r3, #2
  00060	e5843030	 str         r3, [r4, #0x30]
  00064	eb000000	 bl          NKDbgPrintfW
  00068		 |$LN1@SetKitlTyp|

; 487  :             }            
; 488  :         }
; 489  : }

  00068	e8bd4030	 ldmia       sp!, {r4, r5, lr}
  0006c	e12fff1e	 bx          lr
  00070		 |$LN14@SetKitlTyp|
  00070		 |$LN15@SetKitlTyp|
  00070	00000000	 DCD         |??_C@_1DI@DNJMHDAE@?$AA?5?$AAK?$AAI?$AAT?$AAL?$AA?5?$AAs?$AAe?$AAt?$AA?5?$AAt?$AAo?$AA?5?$AAp?$AAa?$AAs?$AAs?$AAi?$AAv?$AAe?$AA?5?$AAm?$AAo?$AAd?$AAe?$AA?$AN?$AA?6?$AA?$AA@|
  00074		 |$LN16@SetKitlTyp|
  00074	00000000	 DCD         |??_C@_1DG@EDFECNLC@?$AA?5?$AAK?$AAI?$AAT?$AAL?$AA?5?$AAs?$AAe?$AAt?$AA?5?$AAt?$AAo?$AA?5?$AAa?$AAc?$AAt?$AAi?$AAv?$AAe?$AA?5?$AAm?$AAo?$AAd?$AAe?$AA?$AN?$AA?6?$AA?$AA@|
  00078		 |$LN17@SetKitlTyp|
  00078	00000000	 DCD         |??_C@_19DIEGALPP@?$AA?$CF?$AAc?$AA?$AN?$AA?6?$AA?$AA@|
  0007c		 |$LN18@SetKitlTyp|
  0007c	00000000	 DCD         |??_C@_1EE@HIABIPBL@?$AA?5?$AAS?$AAe?$AAt?$AA?5?$AAK?$AAI?$AAT?$AAL?$AA?5?$AAt?$AAo?$AA?5?$AAp?$AAa?$AAs?$AAs?$AAi?$AAv?$AAe?$AA?5?$AAm?$AAo?$AAd?$AAe?$AA?5?$AA?$FL?$AAy?$AA?1?$AA?9?$AA?$FN?$AA?3@|
  00080		 |$LN19@SetKitlTyp|
  00080	00000000	 DCD         |??_C@_1EC@OPMJBCEG@?$AA?5?$AAS?$AAe?$AAt?$AA?5?$AAK?$AAI?$AAT?$AAL?$AA?5?$AAt?$AAo?$AA?5?$AAa?$AAc?$AAt?$AAi?$AAv?$AAe?$AA?5?$AAm?$AAo?$AAd?$AAe?$AA?5?$AA?$FL?$AAy?$AA?1?$AA?9?$AA?$FN?$AA?3?$AA?5@|
  00084		 |$LN20@SetKitlTyp|
  00084	00000000	 DCD         |g_bootCfg|
  00088		 |$M47343|

			 ENDP  ; |SetKitlType|

	EXPORT	|??_C@_1DO@IPDMADGH@?$AA?5?$AAO?$AAA?$AAL?$AA?5?$AAR?$AAe?$AAt?$AAa?$AAi?$AAl?$AA?5?$AAM?$AAe?$AAs?$AAs?$AAa?$AAg?$AAe?$AAs?$AA?5?$AAe?$AAn?$AAa?$AAb?$AAl?$AAe?$AAd?$AA?$AN?$AA?6?$AA?$AA@| [ DATA ] ; `string'
	EXPORT	|??_C@_1EA@EDIKANLP@?$AA?5?$AAO?$AAA?$AAL?$AA?5?$AAR?$AAe?$AAt?$AAa?$AAi?$AAl?$AA?5?$AAM?$AAe?$AAs?$AAs?$AAa?$AAg?$AAe?$AAs?$AA?5?$AAd?$AAi?$AAs?$AAa?$AAb?$AAl?$AAe?$AAd?$AA?$AN?$AA?6?$AA?$AA@| [ DATA ] ; `string'
	EXPORT	|??_C@_1EI@IEOEJKJK@?$AA?5?$AAE?$AAn?$AAa?$AAb?$AAl?$AAe?$AA?5?$AAO?$AAA?$AAL?$AA?5?$AAR?$AAe?$AAt?$AAa?$AAi?$AAl?$AA?5?$AAM?$AAe?$AAs?$AAs?$AAa?$AAg?$AAe?$AAs?$AA?5?$AA?$FL?$AAy?$AA?1?$AA?9@| [ DATA ] ; `string'
	EXPORT	|??_C@_1EK@NMKAIECH@?$AA?5?$AAD?$AAi?$AAs?$AAa?$AAb?$AAl?$AAe?$AA?5?$AAO?$AAA?$AAL?$AA?5?$AAR?$AAe?$AAt?$AAa?$AAi?$AAl?$AA?5?$AAM?$AAe?$AAs?$AAs?$AAa?$AAg?$AAe?$AAs?$AA?5?$AA?$FL?$AAy?$AA?1@| [ DATA ] ; `string'

  00000			 AREA	 |.pdata|, PDATA
|$T47362| DCD	|$LN13@SetRetailM|
	DCD	0x40002201

  00000			 AREA	 |.rdata|, DATA, READONLY
|??_C@_1DO@IPDMADGH@?$AA?5?$AAO?$AAA?$AAL?$AA?5?$AAR?$AAe?$AAt?$AAa?$AAi?$AAl?$AA?5?$AAM?$AAe?$AAs?$AAs?$AAa?$AAg?$AAe?$AAs?$AA?5?$AAe?$AAn?$AAa?$AAb?$AAl?$AAe?$AAd?$AA?$AN?$AA?6?$AA?$AA@| DCB " "
	DCB	0x0, "O", 0x0, "A", 0x0, "L", 0x0, " ", 0x0, "R", 0x0, "e"
	DCB	0x0, "t", 0x0, "a", 0x0, "i", 0x0, "l", 0x0, " ", 0x0, "M"
	DCB	0x0, "e", 0x0, "s", 0x0, "s", 0x0, "a", 0x0, "g", 0x0, "e"
	DCB	0x0, "s", 0x0, " ", 0x0, "e", 0x0, "n", 0x0, "a", 0x0, "b"
	DCB	0x0, "l", 0x0, "e", 0x0, "d", 0x0, 0xd, 0x0, 0xa, 0x0, 0x0
	DCB	0x0					; `string'

  00000			 AREA	 |.rdata|, DATA, READONLY
|??_C@_1EA@EDIKANLP@?$AA?5?$AAO?$AAA?$AAL?$AA?5?$AAR?$AAe?$AAt?$AAa?$AAi?$AAl?$AA?5?$AAM?$AAe?$AAs?$AAs?$AAa?$AAg?$AAe?$AAs?$AA?5?$AAd?$AAi?$AAs?$AAa?$AAb?$AAl?$AAe?$AAd?$AA?$AN?$AA?6?$AA?$AA@| DCB " "
	DCB	0x0, "O", 0x0, "A", 0x0, "L", 0x0, " ", 0x0, "R", 0x0, "e"
	DCB	0x0, "t", 0x0, "a", 0x0, "i", 0x0, "l", 0x0, " ", 0x0, "M"
	DCB	0x0, "e", 0x0, "s", 0x0, "s", 0x0, "a", 0x0, "g", 0x0, "e"
	DCB	0x0, "s", 0x0, " ", 0x0, "d", 0x0, "i", 0x0, "s", 0x0, "a"
	DCB	0x0, "b", 0x0, "l", 0x0, "e", 0x0, "d", 0x0, 0xd, 0x0, 0xa
	DCB	0x0, 0x0, 0x0				; `string'

  00000			 AREA	 |.rdata|, DATA, READONLY
|??_C@_1EI@IEOEJKJK@?$AA?5?$AAE?$AAn?$AAa?$AAb?$AAl?$AAe?$AA?5?$AAO?$AAA?$AAL?$AA?5?$AAR?$AAe?$AAt?$AAa?$AAi?$AAl?$AA?5?$AAM?$AAe?$AAs?$AAs?$AAa?$AAg?$AAe?$AAs?$AA?5?$AA?$FL?$AAy?$AA?1?$AA?9@| DCB " "
	DCB	0x0, "E", 0x0, "n", 0x0, "a", 0x0, "b", 0x0, "l", 0x0, "e"
	DCB	0x0, " ", 0x0, "O", 0x0, "A", 0x0, "L", 0x0, " ", 0x0, "R"
	DCB	0x0, "e", 0x0, "t", 0x0, "a", 0x0, "i", 0x0, "l", 0x0, " "
	DCB	0x0, "M", 0x0, "e", 0x0, "s", 0x0, "s", 0x0, "a", 0x0, "g"
	DCB	0x0, "e", 0x0, "s", 0x0, " ", 0x0, "[", 0x0, "y", 0x0, "/"
	DCB	0x0, "-", 0x0, "]", 0x0, ":", 0x0, " ", 0x0, 0x0, 0x0 ; `string'

  00000			 AREA	 |.rdata|, DATA, READONLY
|??_C@_1EK@NMKAIECH@?$AA?5?$AAD?$AAi?$AAs?$AAa?$AAb?$AAl?$AAe?$AA?5?$AAO?$AAA?$AAL?$AA?5?$AAR?$AAe?$AAt?$AAa?$AAi?$AAl?$AA?5?$AAM?$AAe?$AAs?$AAs?$AAa?$AAg?$AAe?$AAs?$AA?5?$AA?$FL?$AAy?$AA?1@| DCB " "
	DCB	0x0, "D", 0x0, "i", 0x0, "s", 0x0, "a", 0x0, "b", 0x0, "l"
	DCB	0x0, "e", 0x0, " ", 0x0, "O", 0x0, "A", 0x0, "L", 0x0, " "
	DCB	0x0, "R", 0x0, "e", 0x0, "t", 0x0, "a", 0x0, "i", 0x0, "l"
	DCB	0x0, " ", 0x0, "M", 0x0, "e", 0x0, "s", 0x0, "s", 0x0, "a"
	DCB	0x0, "g", 0x0, "e", 0x0, "s", 0x0, " ", 0x0, "[", 0x0, "y"
	DCB	0x0, "/", 0x0, "-", 0x0, "]", 0x0, ":", 0x0, " ", 0x0, 0x0
	DCB	0x0					; `string'
; Function compile flags: /Ogspy

  00000			 AREA	 |.text|, CODE, ARM

  00000		 |SetRetailMsgMode| PROC

; 522  : {

  00000		 |$LN13@SetRetailM|
  00000	e92d4030	 stmdb       sp!, {r4, r5, lr}
  00004		 |$M47359|

; 523  :     WCHAR key;
; 524  : 
; 525  :     UNREFERENCED_PARAMETER(pMenu);
; 526  : 
; 527  :     if (g_bootCfg.oalFlags & BOOT_CFG_OAL_FLAGS_RETAILMSG_ENABLE) {

  00004	e59f4078	 ldr         r4, [pc, #0x78]
  00008	e5943034	 ldr         r3, [r4, #0x34]
  0000c	e3130001	 tst         r3, #1

; 528  :         OALLog(L" Disable OAL Retail Messages [y/-]: ");

  00010	159f0068	 ldrne       r0, [pc, #0x68]

; 529  :     } else {
; 530  :         OALLog(L" Enable OAL Retail Messages [y/-]: ");

  00014	059f0060	 ldreq       r0, [pc, #0x60]
  00018	eb000000	 bl          NKDbgPrintfW

; 531  :     }    
; 532  : 
; 533  :     // Get key
; 534  :     key = OALBLMenuReadKey(TRUE);

  0001c	e3a00001	 mov         r0, #1
  00020	eb000000	 bl          OALBLMenuReadKey
  00024	e1a05800	 mov         r5, r0, lsl #16

; 535  :     OALLog(L"%c\r\n", key);

  00028	e59f0048	 ldr         r0, [pc, #0x48]
  0002c	e1a05825	 mov         r5, r5, lsr #16
  00030	e1a01005	 mov         r1, r5
  00034	eb000000	 bl          NKDbgPrintfW

; 536  : 
; 537  :     if (key == L'y' || key == L'Y') {

  00038	e3550079	 cmp         r5, #0x79
  0003c	0a000001	 beq         |$LN3@SetRetailM|
  00040	e3550059	 cmp         r5, #0x59
  00044	1a000007	 bne         |$LN1@SetRetailM|
  00048		 |$LN3@SetRetailM|

; 538  :         if (g_bootCfg.oalFlags & BOOT_CFG_OAL_FLAGS_RETAILMSG_ENABLE) 

  00048	e5943034	 ldr         r3, [r4, #0x34]
  0004c	e3130001	 tst         r3, #1

; 539  : 		{
; 540  :             g_bootCfg.oalFlags &= ~BOOT_CFG_OAL_FLAGS_RETAILMSG_ENABLE;
; 541  :             OALLog(L" OAL Retail Messages disabled\r\n");

  00050	159f001c	 ldrne       r0, [pc, #0x1C]

; 542  :         }
; 543  : 		else 
; 544  : 		{
; 545  :             g_bootCfg.oalFlags |= BOOT_CFG_OAL_FLAGS_RETAILMSG_ENABLE;
; 546  :             OALLog(L" OAL Retail Messages enabled\r\n");

  00054	059f0014	 ldreq       r0, [pc, #0x14]
  00058	13c33001	 bicne       r3, r3, #1
  0005c	03833001	 orreq       r3, r3, #1
  00060	e5843034	 str         r3, [r4, #0x34]
  00064	eb000000	 bl          NKDbgPrintfW
  00068		 |$LN1@SetRetailM|

; 547  :         }    
; 548  :     }
; 549  : }

  00068	e8bd4030	 ldmia       sp!, {r4, r5, lr}
  0006c	e12fff1e	 bx          lr
  00070		 |$LN14@SetRetailM|
  00070		 |$LN15@SetRetailM|
  00070	00000000	 DCD         |??_C@_1DO@IPDMADGH@?$AA?5?$AAO?$AAA?$AAL?$AA?5?$AAR?$AAe?$AAt?$AAa?$AAi?$AAl?$AA?5?$AAM?$AAe?$AAs?$AAs?$AAa?$AAg?$AAe?$AAs?$AA?5?$AAe?$AAn?$AAa?$AAb?$AAl?$AAe?$AAd?$AA?$AN?$AA?6?$AA?$AA@|
  00074		 |$LN16@SetRetailM|
  00074	00000000	 DCD         |??_C@_1EA@EDIKANLP@?$AA?5?$AAO?$AAA?$AAL?$AA?5?$AAR?$AAe?$AAt?$AAa?$AAi?$AAl?$AA?5?$AAM?$AAe?$AAs?$AAs?$AAa?$AAg?$AAe?$AAs?$AA?5?$AAd?$AAi?$AAs?$AAa?$AAb?$AAl?$AAe?$AAd?$AA?$AN?$AA?6?$AA?$AA@|
  00078		 |$LN17@SetRetailM|
  00078	00000000	 DCD         |??_C@_19DIEGALPP@?$AA?$CF?$AAc?$AA?$AN?$AA?6?$AA?$AA@|
  0007c		 |$LN18@SetRetailM|
  0007c	00000000	 DCD         |??_C@_1EI@IEOEJKJK@?$AA?5?$AAE?$AAn?$AAa?$AAb?$AAl?$AAe?$AA?5?$AAO?$AAA?$AAL?$AA?5?$AAR?$AAe?$AAt?$AAa?$AAi?$AAl?$AA?5?$AAM?$AAe?$AAs?$AAs?$AAa?$AAg?$AAe?$AAs?$AA?5?$AA?$FL?$AAy?$AA?1?$AA?9@|
  00080		 |$LN19@SetRetailM|
  00080	00000000	 DCD         |??_C@_1EK@NMKAIECH@?$AA?5?$AAD?$AAi?$AAs?$AAa?$AAb?$AAl?$AAe?$AA?5?$AAO?$AAA?$AAL?$AA?5?$AAR?$AAe?$AAt?$AAa?$AAi?$AAl?$AA?5?$AAM?$AAe?$AAs?$AAs?$AAa?$AAg?$AAe?$AAs?$AA?5?$AA?$FL?$AAy?$AA?1@|
  00084		 |$LN20@SetRetailM|
  00084	00000000	 DCD         |g_bootCfg|
  00088		 |$M47360|

			 ENDP  ; |SetRetailMsgMode|

	EXPORT	|??_C@_1DC@KGICMHCL@?$AA?5?$AA?$FL?$AA0?$AA?$FN?$AA?5?$AAE?$AAx?$AAi?$AAt?$AA?5?$AAa?$AAn?$AAd?$AA?5?$AAC?$AAo?$AAn?$AAt?$AAi?$AAn?$AAu?$AAe?$AA?$AN?$AA?6?$AA?$AA@| [ DATA ] ; `string'
	EXPORT	|??_C@_1DG@FKDJCDHM@?$AA?$AN?$AA?6?$AA?5?$AAS?$AAe?$AAl?$AAe?$AAc?$AAt?$AAi?$AAo?$AAn?$AA?5?$AA?$CI?$AAa?$AAc?$AAt?$AAu?$AAa?$AAl?$AA?5?$AA?$CF?$AAs?$AA?$CJ?$AA?3?$AA?5?$AA?$AA@| [ DATA ] ; `string'
	EXPORT	|??_C@_1BG@LMIBJJCD@?$AA?5?$AA?$FL?$AA?$CF?$AAd?$AA?$FN?$AA?5?$AA?$CF?$AAs?$AA?$AN?$AA?6?$AA?$AA@| [ DATA ] ; `string'
	IMPORT	|OALBLMenuHeader|

  00000			 AREA	 |.pdata|, PDATA
|$T47382| DCD	|$LN16@SetDisplay|
	DCD	0x40002e01

  00000			 AREA	 |.rdata|, DATA, READONLY
|??_C@_1DC@KGICMHCL@?$AA?5?$AA?$FL?$AA0?$AA?$FN?$AA?5?$AAE?$AAx?$AAi?$AAt?$AA?5?$AAa?$AAn?$AAd?$AA?5?$AAC?$AAo?$AAn?$AAt?$AAi?$AAn?$AAu?$AAe?$AA?$AN?$AA?6?$AA?$AA@| DCB " "
	DCB	0x0, "[", 0x0, "0", 0x0, "]", 0x0, " ", 0x0, "E", 0x0, "x"
	DCB	0x0, "i", 0x0, "t", 0x0, " ", 0x0, "a", 0x0, "n", 0x0, "d"
	DCB	0x0, " ", 0x0, "C", 0x0, "o", 0x0, "n", 0x0, "t", 0x0, "i"
	DCB	0x0, "n", 0x0, "u", 0x0, "e", 0x0, 0xd, 0x0, 0xa, 0x0, 0x0
	DCB	0x0					; `string'

  00000			 AREA	 |.rdata|, DATA, READONLY
|??_C@_1DG@FKDJCDHM@?$AA?$AN?$AA?6?$AA?5?$AAS?$AAe?$AAl?$AAe?$AAc?$AAt?$AAi?$AAo?$AAn?$AA?5?$AA?$CI?$AAa?$AAc?$AAt?$AAu?$AAa?$AAl?$AA?5?$AA?$CF?$AAs?$AA?$CJ?$AA?3?$AA?5?$AA?$AA@| DCB 0xd
	DCB	0x0, 0xa, 0x0, " ", 0x0, "S", 0x0, "e", 0x0, "l", 0x0, "e"
	DCB	0x0, "c", 0x0, "t", 0x0, "i", 0x0, "o", 0x0, "n", 0x0, " "
	DCB	0x0, "(", 0x0, "a", 0x0, "c", 0x0, "t", 0x0, "u", 0x0, "a"
	DCB	0x0, "l", 0x0, " ", 0x0, "%", 0x0, "s", 0x0, ")", 0x0, ":"
	DCB	0x0, " ", 0x0, 0x0, 0x0			; `string'

  00000			 AREA	 |.rdata|, DATA, READONLY
|??_C@_1BG@LMIBJJCD@?$AA?5?$AA?$FL?$AA?$CF?$AAd?$AA?$FN?$AA?5?$AA?$CF?$AAs?$AA?$AN?$AA?6?$AA?$AA@| DCB " "
	DCB	0x0, "[", 0x0, "%", 0x0, "d", 0x0, "]", 0x0, " ", 0x0, "%"
	DCB	0x0, "s", 0x0, 0xd, 0x0, 0xa, 0x0, 0x0, 0x0 ; `string'
; Function compile flags: /Ogspy

  00000			 AREA	 |.text|, CODE, ARM

  00000		 |SetDisplayResolution| PROC

; 554  : {

  00000		 |$LN16@SetDisplay|
  00000	e92d4070	 stmdb       sp!, {r4 - r6, lr}
  00004		 |$M47379|

; 555  :     WCHAR key;
; 556  :     UINT32 i;
; 557  : 
; 558  :     UNREFERENCED_PARAMETER(pMenu);
; 559  :     
; 560  :     OALBLMenuHeader(L"Select Display Resolution");

  00004	e59f00a8	 ldr         r0, [pc, #0xA8]
  00008	eb000000	 bl          OALBLMenuHeader
  0000c	e59f409c	 ldr         r4, [pc, #0x9C]

; 561  : 
; 562  :     for (i=0; i<OMAP_RES_INVALID; i++)

  00010	e3a05000	 mov         r5, #0
  00014	e1a06004	 mov         r6, r4
  00018		 |$LL7@SetDisplay|

; 563  :     {
; 564  :         OALLog(L" [%d] %s\r\n", i+1 , dispResMenu[i].resName);

  00018	e5962004	 ldr         r2, [r6, #4]
  0001c	e59f0088	 ldr         r0, [pc, #0x88]
  00020	e2855001	 add         r5, r5, #1
  00024	e1a01005	 mov         r1, r5
  00028	eb000000	 bl          NKDbgPrintfW
  0002c	e2866008	 add         r6, r6, #8
  00030	e3550008	 cmp         r5, #8
  00034	3afffff7	 bcc         |$LL7@SetDisplay|

; 565  :     }
; 566  :     OALLog(L" [0] Exit and Continue\r\n");

  00038	e59f0068	 ldr         r0, [pc, #0x68]
  0003c	eb000000	 bl          NKDbgPrintfW

; 567  : 
; 568  :     OALLog(L"\r\n Selection (actual %s): ", dispResMenu[g_bootCfg.displayRes].resName);

  00040	e59f605c	 ldr         r6, [pc, #0x5C]
  00044	e59f0054	 ldr         r0, [pc, #0x54]
  00048	e596306c	 ldr         r3, [r6, #0x6C]
  0004c	e0843183	 add         r3, r4, r3, lsl #3
  00050	e5931004	 ldr         r1, [r3, #4]
  00054	eb000000	 bl          NKDbgPrintfW
  00058		 |$LL4@SetDisplay|

; 569  :     // Get key
; 570  :     do {
; 571  :         key = OALBLMenuReadKey(TRUE);

  00058	e3a00001	 mov         r0, #1
  0005c	eb000000	 bl          OALBLMenuReadKey
  00060	e1a04800	 mov         r4, r0, lsl #16
  00064	e1a04824	 mov         r4, r4, lsr #16

; 572  :     } while (key < L'0' || key > L'0' + i);    

  00068	e3540030	 cmp         r4, #0x30
  0006c	3afffff9	 bcc         |$LL4@SetDisplay|
  00070	e2853030	 add         r3, r5, #0x30
  00074	e1540003	 cmp         r4, r3
  00078	8afffff6	 bhi         |$LL4@SetDisplay|

; 573  :     OALLog(L"%c\r\n", key);

  0007c	e59f0018	 ldr         r0, [pc, #0x18]
  00080	e1a01004	 mov         r1, r4
  00084	eb000000	 bl          NKDbgPrintfW

; 574  :     
; 575  :     // If user select exit don't change device
; 576  :     if (key == L'0') return;

  00088	e3540030	 cmp         r4, #0x30

; 577  : 
; 578  :     g_bootCfg.displayRes = (key - L'0' - 1);

  0008c	12443031	 subne       r3, r4, #0x31
  00090	1586306c	 strne       r3, [r6, #0x6C]

; 579  : 
; 580  : }

  00094	e8bd4070	 ldmia       sp!, {r4 - r6, lr}
  00098	e12fff1e	 bx          lr
  0009c		 |$LN17@SetDisplay|
  0009c		 |$LN18@SetDisplay|
  0009c	00000000	 DCD         |??_C@_19DIEGALPP@?$AA?$CF?$AAc?$AA?$AN?$AA?6?$AA?$AA@|
  000a0		 |$LN19@SetDisplay|
  000a0	00000000	 DCD         |??_C@_1DG@FKDJCDHM@?$AA?$AN?$AA?6?$AA?5?$AAS?$AAe?$AAl?$AAe?$AAc?$AAt?$AAi?$AAo?$AAn?$AA?5?$AA?$CI?$AAa?$AAc?$AAt?$AAu?$AAa?$AAl?$AA?5?$AA?$CF?$AAs?$AA?$CJ?$AA?3?$AA?5?$AA?$AA@|
  000a4		 |$LN20@SetDisplay|
  000a4	00000000	 DCD         |g_bootCfg|
  000a8		 |$LN21@SetDisplay|
  000a8	00000000	 DCD         |??_C@_1DC@KGICMHCL@?$AA?5?$AA?$FL?$AA0?$AA?$FN?$AA?5?$AAE?$AAx?$AAi?$AAt?$AA?5?$AAa?$AAn?$AAd?$AA?5?$AAC?$AAo?$AAn?$AAt?$AAi?$AAn?$AAu?$AAe?$AA?$AN?$AA?6?$AA?$AA@|
  000ac		 |$LN22@SetDisplay|
  000ac	00000000	 DCD         |??_C@_1BG@LMIBJJCD@?$AA?5?$AA?$FL?$AA?$CF?$AAd?$AA?$FN?$AA?5?$AA?$CF?$AAs?$AA?$AN?$AA?6?$AA?$AA@|
  000b0		 |$LN23@SetDisplay|
  000b0	00000000	 DCD         |dispResMenu|
  000b4		 |$LN24@SetDisplay|
  000b4	00000000	 DCD         |??_C@_1DE@DBBLEEO@?$AAS?$AAe?$AAl?$AAe?$AAc?$AAt?$AA?5?$AAD?$AAi?$AAs?$AAp?$AAl?$AAa?$AAy?$AA?5?$AAR?$AAe?$AAs?$AAo?$AAl?$AAu?$AAt?$AAi?$AAo?$AAn?$AA?$AA@|
  000b8		 |$M47380|

			 ENDP  ; |SetDisplayResolution|

	EXPORT	|??_C@_1DK@EBBOCKOO@?$AA?$AN?$AA?6?$AA?5?$AAS?$AAe?$AAl?$AAe?$AAc?$AAt?$AAi?$AAo?$AAn?$AA?5?$AA?$CI?$AAa?$AAc?$AAt?$AAu?$AAa?$AAl?$AA?5?$AA?$FL?$AA?$CF?$AAs?$AA?$FN?$AA?$CJ?$AA?3?$AA?5?$AA?$AA@| [ DATA ] ; `string'
	IMPORT	|g_CPUFamily|

  00000			 AREA	 |.pdata|, PDATA
|$T47405| DCD	|$LN17@SetOPPmode|
	DCD	0x40003501

  00000			 AREA	 |.rdata|, DATA, READONLY
|??_C@_1DK@EBBOCKOO@?$AA?$AN?$AA?6?$AA?5?$AAS?$AAe?$AAl?$AAe?$AAc?$AAt?$AAi?$AAo?$AAn?$AA?5?$AA?$CI?$AAa?$AAc?$AAt?$AAu?$AAa?$AAl?$AA?5?$AA?$FL?$AA?$CF?$AAs?$AA?$FN?$AA?$CJ?$AA?3?$AA?5?$AA?$AA@| DCB 0xd
	DCB	0x0, 0xa, 0x0, " ", 0x0, "S", 0x0, "e", 0x0, "l", 0x0, "e"
	DCB	0x0, "c", 0x0, "t", 0x0, "i", 0x0, "o", 0x0, "n", 0x0, " "
	DCB	0x0, "(", 0x0, "a", 0x0, "c", 0x0, "t", 0x0, "u", 0x0, "a"
	DCB	0x0, "l", 0x0, " ", 0x0, "[", 0x0, "%", 0x0, "s", 0x0, "]"
	DCB	0x0, ")", 0x0, ":", 0x0, " ", 0x0, 0x0, 0x0 ; `string'
; Function compile flags: /Ogspy

  00000			 AREA	 |.text|, CODE, ARM

  00000		 |SetOPPmode| PROC

; 586  : {

  00000		 |$LN17@SetOPPmode|
  00000	e92d40f0	 stmdb       sp!, {r4 - r7, lr}
  00004		 |$M47402|

; 587  :     WCHAR key;
; 588  :     UINT32 i;
; 589  :     UINT32 len = OMAP35x_OPP_NUM;
; 590  :     OPP_MODE_MENU * pOppMenu = oppModeMenu35x;
; 591  : 
; 592  :     UNREFERENCED_PARAMETER(pMenu);
; 593  :     
; 594  :     OALBLMenuHeader(L"Select OPP Mode");

  00004	e59f00c4	 ldr         r0, [pc, #0xC4]
  00008	e59f40bc	 ldr         r4, [pc, #0xBC]
  0000c	e3a05006	 mov         r5, #6
  00010	eb000000	 bl          OALBLMenuHeader

; 595  : 
; 596  :     
; 597  :     if(g_CPUFamily == CPU_FAMILY_DM37XX)

  00014	e59f30ac	 ldr         r3, [pc, #0xAC]

; 598  :     {
; 599  :         len = OMAP37x_OPP_NUM;
; 600  :         pOppMenu = oppModeMenu37x;
; 601  :     }
; 602  :     
; 603  :     for (i=0; i<len; i++)

  00018	e3a06000	 mov         r6, #0
  0001c	e5933000	 ldr         r3, [r3]
  00020	e3530001	 cmp         r3, #1
  00024	03a05004	 moveq       r5, #4
  00028	02844018	 addeq       r4, r4, #0x18
  0002c	e3550000	 cmp         r5, #0
  00030	0a000007	 beq         |$LN5@SetOPPmode|
  00034	e1a07004	 mov         r7, r4
  00038		 |$LL7@SetOPPmode|

; 604  :     {
; 605  :         OALLog(L" [%d] %s\r\n", i+1 , pOppMenu[i].oppModeName);

  00038	e4972004	 ldr         r2, [r7], #4
  0003c	e59f0080	 ldr         r0, [pc, #0x80]
  00040	e2866001	 add         r6, r6, #1
  00044	e1a01006	 mov         r1, r6
  00048	eb000000	 bl          NKDbgPrintfW
  0004c	e1560005	 cmp         r6, r5
  00050	3afffff8	 bcc         |$LL7@SetOPPmode|
  00054		 |$LN5@SetOPPmode|

; 606  :     }
; 607  :     OALLog(L" [0] Exit and Continue\r\n");

  00054	e59f0064	 ldr         r0, [pc, #0x64]
  00058	eb000000	 bl          NKDbgPrintfW

; 608  : 
; 609  :     OALLog(L"\r\n Selection (actual [%s]): ", pOppMenu[g_bootCfg.opp_mode].oppModeName);

  0005c	e59f5058	 ldr         r5, [pc, #0x58]
  00060	e59f0050	 ldr         r0, [pc, #0x50]
  00064	e5953078	 ldr         r3, [r5, #0x78]
  00068	e7941103	 ldr         r1, [r4, +r3, lsl #2]
  0006c	eb000000	 bl          NKDbgPrintfW
  00070	e2866030	 add         r6, r6, #0x30
  00074		 |$LL4@SetOPPmode|

; 610  :     
; 611  :     // Get key
; 612  :     do {
; 613  :         key = OALBLMenuReadKey(TRUE);

  00074	e3a00001	 mov         r0, #1
  00078	eb000000	 bl          OALBLMenuReadKey
  0007c	e1a04800	 mov         r4, r0, lsl #16
  00080	e1a04824	 mov         r4, r4, lsr #16

; 614  :     } while (key < L'0' || key > L'0' + i);    

  00084	e3540030	 cmp         r4, #0x30
  00088	3afffff9	 bcc         |$LL4@SetOPPmode|
  0008c	e1540006	 cmp         r4, r6
  00090	8afffff7	 bhi         |$LL4@SetOPPmode|

; 615  :     OALLog(L"%c\r\n", key);

  00094	e59f0018	 ldr         r0, [pc, #0x18]
  00098	e1a01004	 mov         r1, r4
  0009c	eb000000	 bl          NKDbgPrintfW

; 616  :     
; 617  :     // If user select exit don't change device
; 618  :     if (key == L'0') return;

  000a0	e3540030	 cmp         r4, #0x30

; 619  : 
; 620  :     g_bootCfg.opp_mode = (key - L'0' -1);

  000a4	12443031	 subne       r3, r4, #0x31
  000a8	15853078	 strne       r3, [r5, #0x78]

; 621  : 
; 622  : }

  000ac	e8bd40f0	 ldmia       sp!, {r4 - r7, lr}
  000b0	e12fff1e	 bx          lr
  000b4		 |$LN18@SetOPPmode|
  000b4		 |$LN19@SetOPPmode|
  000b4	00000000	 DCD         |??_C@_19DIEGALPP@?$AA?$CF?$AAc?$AA?$AN?$AA?6?$AA?$AA@|
  000b8		 |$LN20@SetOPPmode|
  000b8	00000000	 DCD         |??_C@_1DK@EBBOCKOO@?$AA?$AN?$AA?6?$AA?5?$AAS?$AAe?$AAl?$AAe?$AAc?$AAt?$AAi?$AAo?$AAn?$AA?5?$AA?$CI?$AAa?$AAc?$AAt?$AAu?$AAa?$AAl?$AA?5?$AA?$FL?$AA?$CF?$AAs?$AA?$FN?$AA?$CJ?$AA?3?$AA?5?$AA?$AA@|
  000bc		 |$LN21@SetOPPmode|
  000bc	00000000	 DCD         |g_bootCfg|
  000c0		 |$LN22@SetOPPmode|
  000c0	00000000	 DCD         |??_C@_1DC@KGICMHCL@?$AA?5?$AA?$FL?$AA0?$AA?$FN?$AA?5?$AAE?$AAx?$AAi?$AAt?$AA?5?$AAa?$AAn?$AAd?$AA?5?$AAC?$AAo?$AAn?$AAt?$AAi?$AAn?$AAu?$AAe?$AA?$AN?$AA?6?$AA?$AA@|
  000c4		 |$LN23@SetOPPmode|
  000c4	00000000	 DCD         |??_C@_1BG@LMIBJJCD@?$AA?5?$AA?$FL?$AA?$CF?$AAd?$AA?$FN?$AA?5?$AA?$CF?$AAs?$AA?$AN?$AA?6?$AA?$AA@|
  000c8		 |$LN24@SetOPPmode|
  000c8	00000000	 DCD         |g_CPUFamily|
  000cc		 |$LN25@SetOPPmode|
  000cc	00000000	 DCD         |oppModeMenu35x|
  000d0		 |$LN26@SetOPPmode|
  000d0	00000000	 DCD         |??_C@_1CA@MOPOGELI@?$AAS?$AAe?$AAl?$AAe?$AAc?$AAt?$AA?5?$AAO?$AAP?$AAP?$AA?5?$AAM?$AAo?$AAd?$AAe?$AA?$AA@|
  000d4		 |$M47403|

			 ENDP  ; |SetOPPmode|

	EXPORT	|??_C@_1DO@GCBJIIGC@?$AAE?$AAR?$AAR?$AAO?$AAR?$AA?3?$AA?5?$AAS?$AAe?$AAt?$AAt?$AAi?$AAn?$AAg?$AAs?$AA?5?$AAs?$AAa?$AAv?$AAe?$AA?5?$AAf?$AAa?$AAi?$AAl?$AAe?$AAd?$AA?$CB?$AA?$AN?$AA?6?$AA?$AA@| [ DATA ] ; `string'
	EXPORT	|??_C@_1EG@EPHHPOIA@?$AA?5?$AAC?$AAu?$AAr?$AAr?$AAe?$AAn?$AAt?$AA?5?$AAs?$AAe?$AAt?$AAt?$AAi?$AAn?$AAg?$AAs?$AA?5?$AAh?$AAa?$AAs?$AA?5?$AAb?$AAe?$AAe?$AAn?$AA?5?$AAs?$AAa?$AAv?$AAe?$AAd@| [ DATA ] ; `string'
	EXPORT	|??_C@_1FG@NGGODBPB@?$AA?5?$AAD?$AAo?$AA?5?$AAy?$AAo?$AAu?$AA?5?$AAw?$AAa?$AAn?$AAt?$AA?5?$AAs?$AAa?$AAv?$AAe?$AA?5?$AAc?$AAu?$AAr?$AAr?$AAe?$AAn?$AAt?$AA?5?$AAs?$AAe?$AAt?$AAt?$AAi?$AAn@| [ DATA ] ; `string'
	IMPORT	|BLWriteBootCfg|

  00000			 AREA	 |.pdata|, PDATA
|$T47423| DCD	|$LN9@SaveSettin|
	DCD	0x40001b01

  00000			 AREA	 |.rdata|, DATA, READONLY
|??_C@_1DO@GCBJIIGC@?$AAE?$AAR?$AAR?$AAO?$AAR?$AA?3?$AA?5?$AAS?$AAe?$AAt?$AAt?$AAi?$AAn?$AAg?$AAs?$AA?5?$AAs?$AAa?$AAv?$AAe?$AA?5?$AAf?$AAa?$AAi?$AAl?$AAe?$AAd?$AA?$CB?$AA?$AN?$AA?6?$AA?$AA@| DCB "E"
	DCB	0x0, "R", 0x0, "R", 0x0, "O", 0x0, "R", 0x0, ":", 0x0, " "
	DCB	0x0, "S", 0x0, "e", 0x0, "t", 0x0, "t", 0x0, "i", 0x0, "n"
	DCB	0x0, "g", 0x0, "s", 0x0, " ", 0x0, "s", 0x0, "a", 0x0, "v"
	DCB	0x0, "e", 0x0, " ", 0x0, "f", 0x0, "a", 0x0, "i", 0x0, "l"
	DCB	0x0, "e", 0x0, "d", 0x0, "!", 0x0, 0xd, 0x0, 0xa, 0x0, 0x0
	DCB	0x0					; `string'

  00000			 AREA	 |.rdata|, DATA, READONLY
|??_C@_1EG@EPHHPOIA@?$AA?5?$AAC?$AAu?$AAr?$AAr?$AAe?$AAn?$AAt?$AA?5?$AAs?$AAe?$AAt?$AAt?$AAi?$AAn?$AAg?$AAs?$AA?5?$AAh?$AAa?$AAs?$AA?5?$AAb?$AAe?$AAe?$AAn?$AA?5?$AAs?$AAa?$AAv?$AAe?$AAd@| DCB " "
	DCB	0x0, "C", 0x0, "u", 0x0, "r", 0x0, "r", 0x0, "e", 0x0, "n"
	DCB	0x0, "t", 0x0, " ", 0x0, "s", 0x0, "e", 0x0, "t", 0x0, "t"
	DCB	0x0, "i", 0x0, "n", 0x0, "g", 0x0, "s", 0x0, " ", 0x0, "h"
	DCB	0x0, "a", 0x0, "s", 0x0, " ", 0x0, "b", 0x0, "e", 0x0, "e"
	DCB	0x0, "n", 0x0, " ", 0x0, "s", 0x0, "a", 0x0, "v", 0x0, "e"
	DCB	0x0, "d", 0x0, 0xd, 0x0, 0xa, 0x0, 0x0, 0x0 ; `string'

  00000			 AREA	 |.rdata|, DATA, READONLY
|??_C@_1FG@NGGODBPB@?$AA?5?$AAD?$AAo?$AA?5?$AAy?$AAo?$AAu?$AA?5?$AAw?$AAa?$AAn?$AAt?$AA?5?$AAs?$AAa?$AAv?$AAe?$AA?5?$AAc?$AAu?$AAr?$AAr?$AAe?$AAn?$AAt?$AA?5?$AAs?$AAe?$AAt?$AAt?$AAi?$AAn@| DCB " "
	DCB	0x0, "D", 0x0, "o", 0x0, " ", 0x0, "y", 0x0, "o", 0x0, "u"
	DCB	0x0, " ", 0x0, "w", 0x0, "a", 0x0, "n", 0x0, "t", 0x0, " "
	DCB	0x0, "s", 0x0, "a", 0x0, "v", 0x0, "e", 0x0, " ", 0x0, "c"
	DCB	0x0, "u", 0x0, "r", 0x0, "r", 0x0, "e", 0x0, "n", 0x0, "t"
	DCB	0x0, " ", 0x0, "s", 0x0, "e", 0x0, "t", 0x0, "t", 0x0, "i"
	DCB	0x0, "n", 0x0, "g", 0x0, "s", 0x0, " ", 0x0, "[", 0x0, "-"
	DCB	0x0, "/", 0x0, "y", 0x0, "]", 0x0, "?", 0x0, " ", 0x0, 0x0
	DCB	0x0					; `string'
; Function compile flags: /Ogspy

  00000			 AREA	 |.text|, CODE, ARM

  00000		 |SaveSettings| PROC

; 628  : {

  00000		 |$LN9@SaveSettin|
  00000	e92d4010	 stmdb       sp!, {r4, lr}
  00004		 |$M47420|

; 629  :     WCHAR key;
; 630  :     UNREFERENCED_PARAMETER(pMenu);
; 631  : 
; 632  :     OALLog(L" Do you want save current settings [-/y]? ");

  00004	e59f005c	 ldr         r0, [pc, #0x5C]
  00008	eb000000	 bl          NKDbgPrintfW

; 633  : 
; 634  :     // Get key
; 635  :     key = OALBLMenuReadKey(TRUE);

  0000c	e3a00001	 mov         r0, #1
  00010	eb000000	 bl          OALBLMenuReadKey
  00014	e1a04800	 mov         r4, r0, lsl #16

; 636  :     OALLog(L"%c\r\n", key);

  00018	e59f0044	 ldr         r0, [pc, #0x44]
  0001c	e1a04824	 mov         r4, r4, lsr #16
  00020	e1a01004	 mov         r1, r4
  00024	eb000000	 bl          NKDbgPrintfW

; 637  : 
; 638  :     // Depending on result
; 639  :     if (key != L'y' && key != L'Y') goto cleanUp;

  00028	e3540079	 cmp         r4, #0x79
  0002c	0a000001	 beq         |$LN3@SaveSettin|
  00030	e3540059	 cmp         r4, #0x59
  00034	1a000005	 bne         |$cleanUp$47060|
  00038		 |$LN3@SaveSettin|

; 640  : 
; 641  :     if (BLWriteBootCfg(&g_bootCfg)) {

  00038	e59f0020	 ldr         r0, [pc, #0x20]
  0003c	eb000000	 bl          BLWriteBootCfg
  00040	e3500000	 cmp         r0, #0

; 642  :         OALLog(L" Current settings has been saved\r\n");

  00044	159f0010	 ldrne       r0, [pc, #0x10]

; 643  :     } else {        
; 644  :         OALLog(L"ERROR: Settings save failed!\r\n");

  00048	059f0008	 ldreq       r0, [pc, #8]
  0004c	eb000000	 bl          NKDbgPrintfW
  00050		 |$cleanUp$47060|

; 645  :     }
; 646  : 
; 647  : cleanUp:
; 648  :     return;
; 649  : }

  00050	e8bd4010	 ldmia       sp!, {r4, lr}
  00054	e12fff1e	 bx          lr
  00058		 |$LN10@SaveSettin|
  00058		 |$LN11@SaveSettin|
  00058	00000000	 DCD         |??_C@_1DO@GCBJIIGC@?$AAE?$AAR?$AAR?$AAO?$AAR?$AA?3?$AA?5?$AAS?$AAe?$AAt?$AAt?$AAi?$AAn?$AAg?$AAs?$AA?5?$AAs?$AAa?$AAv?$AAe?$AA?5?$AAf?$AAa?$AAi?$AAl?$AAe?$AAd?$AA?$CB?$AA?$AN?$AA?6?$AA?$AA@|
  0005c		 |$LN12@SaveSettin|
  0005c	00000000	 DCD         |??_C@_1EG@EPHHPOIA@?$AA?5?$AAC?$AAu?$AAr?$AAr?$AAe?$AAn?$AAt?$AA?5?$AAs?$AAe?$AAt?$AAt?$AAi?$AAn?$AAg?$AAs?$AA?5?$AAh?$AAa?$AAs?$AA?5?$AAb?$AAe?$AAe?$AAn?$AA?5?$AAs?$AAa?$AAv?$AAe?$AAd@|
  00060		 |$LN13@SaveSettin|
  00060	00000000	 DCD         |g_bootCfg|
  00064		 |$LN14@SaveSettin|
  00064	00000000	 DCD         |??_C@_19DIEGALPP@?$AA?$CF?$AAc?$AA?$AN?$AA?6?$AA?$AA@|
  00068		 |$LN15@SaveSettin|
  00068	00000000	 DCD         |??_C@_1FG@NGGODBPB@?$AA?5?$AAD?$AAo?$AA?5?$AAy?$AAo?$AAu?$AA?5?$AAw?$AAa?$AAn?$AAt?$AA?5?$AAs?$AAa?$AAv?$AAe?$AA?5?$AAc?$AAu?$AAr?$AAr?$AAe?$AAn?$AAt?$AA?5?$AAs?$AAe?$AAt?$AAt?$AAi?$AAn@|
  0006c		 |$M47421|

			 ENDP  ; |SaveSettings|

	EXPORT	|OALStringToUINT32|

  00000			 AREA	 |.pdata|, PDATA
|$T47444| DCD	|$LN13@OALStringT|
	DCD	0x40001000
; Function compile flags: /Ogspy

  00000			 AREA	 |.text|, CODE, ARM

  00000		 |OALStringToUINT32| PROC

; 654  : {

  00000		 |$LN13@OALStringT|
  00000		 |$M47441|
  00000	e1b01000	 movs        r1, r0

; 655  :     UINT32 i = 0;

  00004	e3a00000	 mov         r0, #0

; 656  : 
; 657  :     // Replace the dots with NULL terminators
; 658  :     while (psz != NULL && *psz != L'\0') 

  00008	0a00000b	 beq         |$LN10@OALStringT|
  0000c		 |$LL4@OALStringT|
  0000c	e1d130b0	 ldrh        r3, [r1]
  00010	e1b02003	 movs        r2, r3
  00014	0a000008	 beq         |$LN10@OALStringT|

; 659  :         {
; 660  :         if (*psz < L'0' || *psz > L'9') 

  00018	e3520030	 cmp         r2, #0x30
  0001c	3a000006	 bcc         |$LN10@OALStringT|
  00020	e3520039	 cmp         r2, #0x39
  00024	8a000004	 bhi         |$LN10@OALStringT|

; 661  :             {
; 662  :             break;
; 663  :             }
; 664  :         i = i * 10 + (*psz - L'0');

  00028	e0803100	 add         r3, r0, r0, lsl #2
  0002c	e0823083	 add         r3, r2, r3, lsl #1
  00030	e2430030	 sub         r0, r3, #0x30

; 665  :         psz++;

  00034	e2911002	 adds        r1, r1, #2
  00038	1afffff3	 bne         |$LL4@OALStringT|
  0003c		 |$LN10@OALStringT|

; 666  :         }
; 667  : 
; 668  :     return i;
; 669  : }

  0003c	e12fff1e	 bx          lr
  00040		 |$M47442|

			 ENDP  ; |OALStringToUINT32|

	EXPORT	|??_C@_1DE@FKCOLIJA@?$AA?5?$AA?5?$AAF?$AAl?$AAa?$AAs?$AAh?$AAi?$AAn?$AAg?$AA?5?$AAN?$AAK?$AA?4?$AAb?$AAi?$AAn?$AA?3?$AA?5?$AA?5?$AA?5?$AA?$CF?$AAs?$AA?$AN?$AA?6?$AA?$AA@| [ DATA ] ; `string'
	EXPORT	|??_C@_1CG@OIGCIHAG@?$AA?5?$AA?5?$AAO?$AAP?$AAP?$AA?5?$AAM?$AAo?$AAd?$AAe?$AA?3?$AA?5?$AA?5?$AA?5?$AA?$CF?$AAs?$AA?$AN?$AA?6?$AA?$AA@| [ DATA ] ; `string'
	EXPORT	|??_C@_1CM@JIGPKFND@?$AA?5?$AA?5?$AAR?$AAe?$AAt?$AAa?$AAi?$AAl?$AA?5?$AAM?$AAs?$AAg?$AAs?$AA?3?$AA?5?$AA?5?$AA?5?$AA?$CF?$AAs?$AA?$AN?$AA?6?$AA?$AA@| [ DATA ] ; `string'
	EXPORT	|??_C@_1CM@NDEIFMBL@?$AA?5?$AA?5?$AAD?$AAe?$AAv?$AAi?$AAc?$AAe?$AA?5?$AAI?$AAD?$AA?3?$AA?5?$AA?5?$AA?5?$AA?5?$AA?5?$AA?$CF?$AAd?$AA?$AN?$AA?6?$AA?$AA@| [ DATA ] ; `string'
	EXPORT	|??_C@_1CM@FFHNOGK@?$AA?5?$AA?5?$AAD?$AAi?$AAs?$AAp?$AAl?$AAa?$AAy?$AA?5?$AAR?$AAe?$AAs?$AA?3?$AA?5?$AA?5?$AA?5?$AA?$CF?$AAs?$AA?$AN?$AA?6?$AA?$AA@| [ DATA ] ; `string'
	EXPORT	|??_C@_1CM@NPGGEGKD@?$AA?5?$AA?5?$AAD?$AAe?$AAb?$AAu?$AAg?$AA?5?$AAd?$AAe?$AAv?$AAi?$AAc?$AAe?$AA?3?$AA?5?$AA?5?$AA?$CF?$AAs?$AA?$AN?$AA?6?$AA?$AA@| [ DATA ] ; `string'
	EXPORT	|??_C@_1BM@PMDNGDGM@?$AAn?$AAo?$AAt?$AA?5?$AAs?$AAp?$AAe?$AAc?$AAi?$AAf?$AAi?$AAe?$AAd?$AA?$AA@| [ DATA ] ; `string'
	EXPORT	|??_C@_1BG@CEFCIDHI@?$AA?$AN?$AA?6?$AA?5?$AAM?$AAa?$AAi?$AAn?$AA?3?$AA?$AN?$AA?6?$AA?$AA@| [ DATA ] ; `string'
	EXPORT	|??_C@_1CM@IGJFNOHM@?$AA?5?$AA?5?$AAB?$AAo?$AAo?$AAt?$AA?5?$AAd?$AAe?$AAv?$AAi?$AAc?$AAe?$AA?3?$AA?5?$AA?5?$AA?5?$AA?$CF?$AAs?$AA?$AN?$AA?6?$AA?$AA@| [ DATA ] ; `string'
	IMPORT	|OALKitlDeviceName|

  00000			 AREA	 |.pdata|, PDATA
|$T47459| DCD	|$LN12@ShowSettin|
	DCD	0x40004901

  00000			 AREA	 |.rdata|, DATA, READONLY
|??_C@_1DE@FKCOLIJA@?$AA?5?$AA?5?$AAF?$AAl?$AAa?$AAs?$AAh?$AAi?$AAn?$AAg?$AA?5?$AAN?$AAK?$AA?4?$AAb?$AAi?$AAn?$AA?3?$AA?5?$AA?5?$AA?5?$AA?$CF?$AAs?$AA?$AN?$AA?6?$AA?$AA@| DCB " "
	DCB	0x0, " ", 0x0, "F", 0x0, "l", 0x0, "a", 0x0, "s", 0x0, "h"
	DCB	0x0, "i", 0x0, "n", 0x0, "g", 0x0, " ", 0x0, "N", 0x0, "K"
	DCB	0x0, ".", 0x0, "b", 0x0, "i", 0x0, "n", 0x0, ":", 0x0, " "
	DCB	0x0, " ", 0x0, " ", 0x0, "%", 0x0, "s", 0x0, 0xd, 0x0, 0xa
	DCB	0x0, 0x0, 0x0				; `string'

  00000			 AREA	 |.rdata|, DATA, READONLY
|??_C@_1CG@OIGCIHAG@?$AA?5?$AA?5?$AAO?$AAP?$AAP?$AA?5?$AAM?$AAo?$AAd?$AAe?$AA?3?$AA?5?$AA?5?$AA?5?$AA?$CF?$AAs?$AA?$AN?$AA?6?$AA?$AA@| DCB " "
	DCB	0x0, " ", 0x0, "O", 0x0, "P", 0x0, "P", 0x0, " ", 0x0, "M"
	DCB	0x0, "o", 0x0, "d", 0x0, "e", 0x0, ":", 0x0, " ", 0x0, " "
	DCB	0x0, " ", 0x0, "%", 0x0, "s", 0x0, 0xd, 0x0, 0xa, 0x0, 0x0
	DCB	0x0					; `string'

  00000			 AREA	 |.rdata|, DATA, READONLY
|??_C@_1CM@JIGPKFND@?$AA?5?$AA?5?$AAR?$AAe?$AAt?$AAa?$AAi?$AAl?$AA?5?$AAM?$AAs?$AAg?$AAs?$AA?3?$AA?5?$AA?5?$AA?5?$AA?$CF?$AAs?$AA?$AN?$AA?6?$AA?$AA@| DCB " "
	DCB	0x0, " ", 0x0, "R", 0x0, "e", 0x0, "t", 0x0, "a", 0x0, "i"
	DCB	0x0, "l", 0x0, " ", 0x0, "M", 0x0, "s", 0x0, "g", 0x0, "s"
	DCB	0x0, ":", 0x0, " ", 0x0, " ", 0x0, " ", 0x0, "%", 0x0, "s"
	DCB	0x0, 0xd, 0x0, 0xa, 0x0, 0x0, 0x0	; `string'

  00000			 AREA	 |.rdata|, DATA, READONLY
|??_C@_1CM@NDEIFMBL@?$AA?5?$AA?5?$AAD?$AAe?$AAv?$AAi?$AAc?$AAe?$AA?5?$AAI?$AAD?$AA?3?$AA?5?$AA?5?$AA?5?$AA?5?$AA?5?$AA?$CF?$AAd?$AA?$AN?$AA?6?$AA?$AA@| DCB " "
	DCB	0x0, " ", 0x0, "D", 0x0, "e", 0x0, "v", 0x0, "i", 0x0, "c"
	DCB	0x0, "e", 0x0, " ", 0x0, "I", 0x0, "D", 0x0, ":", 0x0, " "
	DCB	0x0, " ", 0x0, " ", 0x0, " ", 0x0, " ", 0x0, "%", 0x0, "d"
	DCB	0x0, 0xd, 0x0, 0xa, 0x0, 0x0, 0x0	; `string'

  00000			 AREA	 |.rdata|, DATA, READONLY
|??_C@_1CM@FFHNOGK@?$AA?5?$AA?5?$AAD?$AAi?$AAs?$AAp?$AAl?$AAa?$AAy?$AA?5?$AAR?$AAe?$AAs?$AA?3?$AA?5?$AA?5?$AA?5?$AA?$CF?$AAs?$AA?$AN?$AA?6?$AA?$AA@| DCB " "
	DCB	0x0, " ", 0x0, "D", 0x0, "i", 0x0, "s", 0x0, "p", 0x0, "l"
	DCB	0x0, "a", 0x0, "y", 0x0, " ", 0x0, "R", 0x0, "e", 0x0, "s"
	DCB	0x0, ":", 0x0, " ", 0x0, " ", 0x0, " ", 0x0, "%", 0x0, "s"
	DCB	0x0, 0xd, 0x0, 0xa, 0x0, 0x0, 0x0	; `string'

  00000			 AREA	 |.rdata|, DATA, READONLY
|??_C@_1CM@NPGGEGKD@?$AA?5?$AA?5?$AAD?$AAe?$AAb?$AAu?$AAg?$AA?5?$AAd?$AAe?$AAv?$AAi?$AAc?$AAe?$AA?3?$AA?5?$AA?5?$AA?$CF?$AAs?$AA?$AN?$AA?6?$AA?$AA@| DCB " "
	DCB	0x0, " ", 0x0, "D", 0x0, "e", 0x0, "b", 0x0, "u", 0x0, "g"
	DCB	0x0, " ", 0x0, "d", 0x0, "e", 0x0, "v", 0x0, "i", 0x0, "c"
	DCB	0x0, "e", 0x0, ":", 0x0, " ", 0x0, " ", 0x0, "%", 0x0, "s"
	DCB	0x0, 0xd, 0x0, 0xa, 0x0, 0x0, 0x0	; `string'

  00000			 AREA	 |.rdata|, DATA, READONLY
|??_C@_1BM@PMDNGDGM@?$AAn?$AAo?$AAt?$AA?5?$AAs?$AAp?$AAe?$AAc?$AAi?$AAf?$AAi?$AAe?$AAd?$AA?$AA@| DCB "n"
	DCB	0x0, "o", 0x0, "t", 0x0, " ", 0x0, "s", 0x0, "p", 0x0, "e"
	DCB	0x0, "c", 0x0, "i", 0x0, "f", 0x0, "i", 0x0, "e", 0x0, "d"
	DCB	0x0, 0x0, 0x0				; `string'

  00000			 AREA	 |.rdata|, DATA, READONLY
|??_C@_1BG@CEFCIDHI@?$AA?$AN?$AA?6?$AA?5?$AAM?$AAa?$AAi?$AAn?$AA?3?$AA?$AN?$AA?6?$AA?$AA@| DCB 0xd
	DCB	0x0, 0xa, 0x0, " ", 0x0, "M", 0x0, "a", 0x0, "i", 0x0, "n"
	DCB	0x0, ":", 0x0, 0xd, 0x0, 0xa, 0x0, 0x0, 0x0 ; `string'

  00000			 AREA	 |.rdata|, DATA, READONLY
|??_C@_1CM@IGJFNOHM@?$AA?5?$AA?5?$AAB?$AAo?$AAo?$AAt?$AA?5?$AAd?$AAe?$AAv?$AAi?$AAc?$AAe?$AA?3?$AA?5?$AA?5?$AA?5?$AA?$CF?$AAs?$AA?$AN?$AA?6?$AA?$AA@| DCB " "
	DCB	0x0, " ", 0x0, "B", 0x0, "o", 0x0, "o", 0x0, "t", 0x0, " "
	DCB	0x0, "d", 0x0, "e", 0x0, "v", 0x0, "i", 0x0, "c", 0x0, "e"
	DCB	0x0, ":", 0x0, " ", 0x0, " ", 0x0, " ", 0x0, "%", 0x0, "s"
	DCB	0x0, 0xd, 0x0, 0xa, 0x0, 0x0, 0x0	; `string'
; Function compile flags: /Ogspy

  00000			 AREA	 |.text|, CODE, ARM

  00000		 |ShowSettings| PROC

; 329  : {

  00000		 |$LN12@ShowSettin|
  00000	e92d41f0	 stmdb       sp!, {r4 - r8, lr}
  00004		 |$M47456|
  00004	e1a08000	 mov         r8, r0

; 330  :     OPP_MODE_MENU * pOppMenu = oppModeMenu35x;
; 331  :     UNREFERENCED_PARAMETER(pMenu);
; 332  :     
; 333  :     if(g_CPUFamily == CPU_FAMILY_DM37XX)

  00008	e59f3110	 ldr         r3, [pc, #0x110]
  0000c	e59f6108	 ldr         r6, [pc, #0x108]

; 334  :     {
; 335  :         pOppMenu = oppModeMenu37x;
; 336  :     }
; 337  : 
; 338  :     OALLog(L"\r\n Main:\r\n");

  00010	e59f0100	 ldr         r0, [pc, #0x100]
  00014	e5933000	 ldr         r3, [r3]
  00018	e2867048	 add         r7, r6, #0x48
  0001c	e3530001	 cmp         r3, #1
  00020	02867060	 addeq       r7, r6, #0x60
  00024	eb000000	 bl          NKDbgPrintfW

; 339  :     OALLog(
; 340  :         L"  Boot device:   %s\r\n",
; 341  :         OALKitlDeviceName(&g_bootCfg.bootDevLoc, g_bootDevices)
; 342  :     );

  00028	e59f40e4	 ldr         r4, [pc, #0xE4]
  0002c	e59f10dc	 ldr         r1, [pc, #0xDC]
  00030	e2840008	 add         r0, r4, #8
  00034	eb000000	 bl          OALKitlDeviceName
  00038	e1a01000	 mov         r1, r0
  0003c	e59f00c8	 ldr         r0, [pc, #0xC8]
  00040	eb000000	 bl          NKDbgPrintfW

; 343  :     OALLog(
; 344  :         L"  Debug device:  %s\r\n",
; 345  :         (g_bootCfg.kitlDevLoc.LogicalLoc) ? OALKitlDeviceName(&g_bootCfg.kitlDevLoc, g_kitlDevices) : L"not specified"
; 346  :     );

  00044	e5943024	 ldr         r3, [r4, #0x24]
  00048	e3530000	 cmp         r3, #0
  0004c	0a000004	 beq         |$LN4@ShowSettin|
  00050	e59f10b0	 ldr         r1, [pc, #0xB0]
  00054	e284001c	 add         r0, r4, #0x1C
  00058	eb000000	 bl          OALKitlDeviceName
  0005c	e1a01000	 mov         r1, r0
  00060	ea000000	 b           |$LN5@ShowSettin|
  00064		 |$LN4@ShowSettin|
  00064	e59f1098	 ldr         r1, [pc, #0x98]
  00068		 |$LN5@ShowSettin|
  00068	e59f0090	 ldr         r0, [pc, #0x90]
  0006c	eb000000	 bl          NKDbgPrintfW

; 347  :     OALLog(
; 348  :         L"  Retail Msgs:   %s\r\n",
; 349  :         (g_bootCfg.oalFlags & BOOT_CFG_OAL_FLAGS_RETAILMSG_ENABLE) ? L"enabled" : L"disabled"
; 350  :     );

  00070	e5943034	 ldr         r3, [r4, #0x34]
  00074	e59f5080	 ldr         r5, [pc, #0x80]
  00078	e59f0078	 ldr         r0, [pc, #0x78]
  0007c	e3130001	 tst         r3, #1
  00080	11a01005	 movne       r1, r5
  00084	059f105c	 ldreq       r1, [pc, #0x5C]
  00088	eb000000	 bl          NKDbgPrintfW

; 351  :     OALLog(
; 352  :         L"  Device ID:     %d\r\n", g_bootCfg.deviceID
; 353  :     );

  0008c	e5941044	 ldr         r1, [r4, #0x44]
  00090	e59f005c	 ldr         r0, [pc, #0x5C]
  00094	eb000000	 bl          NKDbgPrintfW

; 354  :     OALLog(
; 355  :         L"  Display Res:   %s\r\n", dispResMenu[g_bootCfg.displayRes].resName
; 356  :     );

  00098	e594306c	 ldr         r3, [r4, #0x6C]
  0009c	e59f004c	 ldr         r0, [pc, #0x4C]
  000a0	e0863183	 add         r3, r6, r3, lsl #3
  000a4	e5931004	 ldr         r1, [r3, #4]
  000a8	eb000000	 bl          NKDbgPrintfW

; 357  :     OALLog(
; 358  :         L"  Flashing NK.bin:   %s\r\n", 
; 359  :         (g_bootCfg.flashNKFlags & ENABLE_FLASH_NK) ? L"enabled" : L"disabled"
; 360  :     );    

  000ac	e5943070	 ldr         r3, [r4, #0x70]
  000b0	e59f0034	 ldr         r0, [pc, #0x34]
  000b4	e3130001	 tst         r3, #1
  000b8	059f5028	 ldreq       r5, [pc, #0x28]
  000bc	e1a01005	 mov         r1, r5
  000c0	eb000000	 bl          NKDbgPrintfW

; 361  :     OALLog(
; 362  :         L"  OPP Mode:   %s\r\n", pOppMenu[g_bootCfg.opp_mode].oppModeName
; 363  :     );

  000c4	e5943078	 ldr         r3, [r4, #0x78]
  000c8	e59f0014	 ldr         r0, [pc, #0x14]
  000cc	e7971103	 ldr         r1, [r7, +r3, lsl #2]
  000d0	eb000000	 bl          NKDbgPrintfW

; 364  : 	
; 365  : #if BUILDING_EBOOT_SD
; 366  :     ShowSDCardSettings(pMenu);
; 367  : #endif
; 368  :     ShowNetworkSettings(pMenu);

  000d4	e1a00008	 mov         r0, r8
  000d8	eb000000	 bl          ShowNetworkSettings

; 369  : }

  000dc	e8bd41f0	 ldmia       sp!, {r4 - r8, lr}
  000e0	e12fff1e	 bx          lr
  000e4		 |$LN13@ShowSettin|
  000e4		 |$LN14@ShowSettin|
  000e4	00000000	 DCD         |??_C@_1CG@OIGCIHAG@?$AA?5?$AA?5?$AAO?$AAP?$AAP?$AA?5?$AAM?$AAo?$AAd?$AAe?$AA?3?$AA?5?$AA?5?$AA?5?$AA?$CF?$AAs?$AA?$AN?$AA?6?$AA?$AA@|
  000e8		 |$LN15@ShowSettin|
  000e8	00000000	 DCD         |??_C@_1BC@LGPIFEA@?$AAd?$AAi?$AAs?$AAa?$AAb?$AAl?$AAe?$AAd?$AA?$AA@|
  000ec		 |$LN16@ShowSettin|
  000ec	00000000	 DCD         |??_C@_1DE@FKCOLIJA@?$AA?5?$AA?5?$AAF?$AAl?$AAa?$AAs?$AAh?$AAi?$AAn?$AAg?$AA?5?$AAN?$AAK?$AA?4?$AAb?$AAi?$AAn?$AA?3?$AA?5?$AA?5?$AA?5?$AA?$CF?$AAs?$AA?$AN?$AA?6?$AA?$AA@|
  000f0		 |$LN17@ShowSettin|
  000f0	00000000	 DCD         |??_C@_1CM@FFHNOGK@?$AA?5?$AA?5?$AAD?$AAi?$AAs?$AAp?$AAl?$AAa?$AAy?$AA?5?$AAR?$AAe?$AAs?$AA?3?$AA?5?$AA?5?$AA?5?$AA?$CF?$AAs?$AA?$AN?$AA?6?$AA?$AA@|
  000f4		 |$LN18@ShowSettin|
  000f4	00000000	 DCD         |??_C@_1CM@NDEIFMBL@?$AA?5?$AA?5?$AAD?$AAe?$AAv?$AAi?$AAc?$AAe?$AA?5?$AAI?$AAD?$AA?3?$AA?5?$AA?5?$AA?5?$AA?5?$AA?5?$AA?$CF?$AAd?$AA?$AN?$AA?6?$AA?$AA@|
  000f8		 |$LN19@ShowSettin|
  000f8	00000000	 DCD         |??_C@_1CM@JIGPKFND@?$AA?5?$AA?5?$AAR?$AAe?$AAt?$AAa?$AAi?$AAl?$AA?5?$AAM?$AAs?$AAg?$AAs?$AA?3?$AA?5?$AA?5?$AA?5?$AA?$CF?$AAs?$AA?$AN?$AA?6?$AA?$AA@|
  000fc		 |$LN20@ShowSettin|
  000fc	00000000	 DCD         |??_C@_1BA@BKMGIBPB@?$AAe?$AAn?$AAa?$AAb?$AAl?$AAe?$AAd?$AA?$AA@|
  00100		 |$LN21@ShowSettin|
  00100	00000000	 DCD         |??_C@_1CM@NPGGEGKD@?$AA?5?$AA?5?$AAD?$AAe?$AAb?$AAu?$AAg?$AA?5?$AAd?$AAe?$AAv?$AAi?$AAc?$AAe?$AA?3?$AA?5?$AA?5?$AA?$CF?$AAs?$AA?$AN?$AA?6?$AA?$AA@|
  00104		 |$LN22@ShowSettin|
  00104	00000000	 DCD         |??_C@_1BM@PMDNGDGM@?$AAn?$AAo?$AAt?$AA?5?$AAs?$AAp?$AAe?$AAc?$AAi?$AAf?$AAi?$AAe?$AAd?$AA?$AA@|
  00108		 |$LN23@ShowSettin|
  00108	00000000	 DCD         |g_kitlDevices|
  0010c		 |$LN24@ShowSettin|
  0010c	00000000	 DCD         |??_C@_1CM@IGJFNOHM@?$AA?5?$AA?5?$AAB?$AAo?$AAo?$AAt?$AA?5?$AAd?$AAe?$AAv?$AAi?$AAc?$AAe?$AA?3?$AA?5?$AA?5?$AA?5?$AA?$CF?$AAs?$AA?$AN?$AA?6?$AA?$AA@|
  00110		 |$LN25@ShowSettin|
  00110	00000000	 DCD         |g_bootDevices|
  00114		 |$LN26@ShowSettin|
  00114	00000000	 DCD         |g_bootCfg|
  00118		 |$LN27@ShowSettin|
  00118	00000000	 DCD         |??_C@_1BG@CEFCIDHI@?$AA?$AN?$AA?6?$AA?5?$AAM?$AAa?$AAi?$AAn?$AA?3?$AA?$AN?$AA?6?$AA?$AA@|
  0011c		 |$LN28@ShowSettin|
  0011c	00000000	 DCD         |dispResMenu|
  00120		 |$LN29@ShowSettin|
  00120	00000000	 DCD         |g_CPUFamily|
  00124		 |$M47457|

			 ENDP  ; |ShowSettings|

	EXPORT	|__$ArrayPad$| [ DATA ]
	EXPORT	|??_C@_1DE@MLCCPHNO@?$AA?5?$AAC?$AAu?$AAr?$AAr?$AAe?$AAn?$AAt?$AA?5?$AAD?$AAe?$AAv?$AAi?$AAc?$AAe?$AA?5?$AAI?$AAD?$AA?3?$AA?5?$AA?5?$AA?$CF?$AAd?$AA?$AN?$AA?6?$AA?$AA@| [ DATA ] ; `string'
	EXPORT	|??_C@_1CG@DEECOADH@?$AA?$AN?$AA?6?$AA?5?$AAN?$AAe?$AAw?$AA?5?$AAD?$AAe?$AAv?$AAi?$AAc?$AAe?$AA?5?$AAI?$AAD?$AA?3?$AA?5?$AA?$AA@| [ DATA ] ; `string'
	IMPORT	|OALBLMenuReadLine|

  00000			 AREA	 |.pdata|, PDATA
|$T47485| DCD	|$LN6@SetDeviceI|
	DCD	0xc0001c02

  00000			 AREA	 |.xdata|, DATA
|$T47481| DCD	0xfffffff4

  00000			 AREA	 |.rdata|, DATA, READONLY
|??_C@_1DE@MLCCPHNO@?$AA?5?$AAC?$AAu?$AAr?$AAr?$AAe?$AAn?$AAt?$AA?5?$AAD?$AAe?$AAv?$AAi?$AAc?$AAe?$AA?5?$AAI?$AAD?$AA?3?$AA?5?$AA?5?$AA?$CF?$AAd?$AA?$AN?$AA?6?$AA?$AA@| DCB " "
	DCB	0x0, "C", 0x0, "u", 0x0, "r", 0x0, "r", 0x0, "e", 0x0, "n"
	DCB	0x0, "t", 0x0, " ", 0x0, "D", 0x0, "e", 0x0, "v", 0x0, "i"
	DCB	0x0, "c", 0x0, "e", 0x0, " ", 0x0, "I", 0x0, "D", 0x0, ":"
	DCB	0x0, " ", 0x0, " ", 0x0, "%", 0x0, "d", 0x0, 0xd, 0x0, 0xa
	DCB	0x0, 0x0, 0x0				; `string'

  00000			 AREA	 |.rdata|, DATA, READONLY
|??_C@_1CG@DEECOADH@?$AA?$AN?$AA?6?$AA?5?$AAN?$AAe?$AAw?$AA?5?$AAD?$AAe?$AAv?$AAi?$AAc?$AAe?$AA?5?$AAI?$AAD?$AA?3?$AA?5?$AA?$AA@| DCB 0xd
	DCB	0x0, 0xa, 0x0, " ", 0x0, "N", 0x0, "e", 0x0, "w", 0x0, " "
	DCB	0x0, "D", 0x0, "e", 0x0, "v", 0x0, "i", 0x0, "c", 0x0, "e"
	DCB	0x0, " ", 0x0, "I", 0x0, "D", 0x0, ":", 0x0, " ", 0x0, 0x0
	DCB	0x0					; `string'
; Function compile flags: /Ogspy

  00000			 AREA	 |.text|, CODE, ARM

  00000	00000000	 DCD         |__GSHandlerCheck|
  00004	00000000	 DCD         |$T47481|

  00008		 |SetDeviceID| PROC

; 497  : {

  00008		 |$LN6@SetDeviceI|
  00008	e92d4010	 stmdb       sp!, {r4, lr}
  0000c	e24dd024	 sub         sp, sp, #0x24
  00010		 |$M47482|
  00010	e59f305c	 ldr         r3, [pc, #0x5C]
  00014	e5933000	 ldr         r3, [r3]
  00018	e58d3020	 str         r3, [sp, #0x20]

; 498  :     WCHAR  szInputLine[16];
; 499  :     UNREFERENCED_PARAMETER(pMenu);
; 500  : 
; 501  :     OALLog(
; 502  :         L" Current Device ID:  %d\r\n", g_bootCfg.deviceID
; 503  :     );

  0001c	e59f404c	 ldr         r4, [pc, #0x4C]
  00020	e59f0044	 ldr         r0, [pc, #0x44]
  00024	e5941044	 ldr         r1, [r4, #0x44]
  00028	eb000000	 bl          NKDbgPrintfW

; 504  : 
; 505  :     OALLog(L"\r\n New Device ID: ");

  0002c	e59f0034	 ldr         r0, [pc, #0x34]
  00030	eb000000	 bl          NKDbgPrintfW

; 506  : 
; 507  :     if (OALBLMenuReadLine(szInputLine, dimof(szInputLine)) == 0) 

  00034	e3a01010	 mov         r1, #0x10
  00038	e28d0000	 add         r0, sp, #0
  0003c	eb000000	 bl          OALBLMenuReadLine
  00040	e3500000	 cmp         r0, #0
  00044	0a000002	 beq         |$cleanUp$47008|

; 508  :         {
; 509  :         goto cleanUp;
; 510  :         }
; 511  : 
; 512  :     // Get device ID
; 513  :     g_bootCfg.deviceID = OALStringToUINT32(szInputLine);

  00048	e28d0000	 add         r0, sp, #0
  0004c	eb000000	 bl          OALStringToUINT32
  00050	e5840044	 str         r0, [r4, #0x44]
  00054		 |$cleanUp$47008|
  00054	e59d0020	 ldr         r0, [sp, #0x20]
  00058	eb000000	 bl          __security_check_cookie

; 514  : 
; 515  : cleanUp:
; 516  :     return;
; 517  : }

  0005c	e28dd024	 add         sp, sp, #0x24
  00060	e8bd4010	 ldmia       sp!, {r4, lr}
  00064	e12fff1e	 bx          lr
  00068		 |$LN7@SetDeviceI|
  00068		 |$LN8@SetDeviceI|
  00068	00000000	 DCD         |??_C@_1CG@DEECOADH@?$AA?$AN?$AA?6?$AA?5?$AAN?$AAe?$AAw?$AA?5?$AAD?$AAe?$AAv?$AAi?$AAc?$AAe?$AA?5?$AAI?$AAD?$AA?3?$AA?5?$AA?$AA@|
  0006c		 |$LN9@SetDeviceI|
  0006c	00000000	 DCD         |??_C@_1DE@MLCCPHNO@?$AA?5?$AAC?$AAu?$AAr?$AAr?$AAe?$AAn?$AAt?$AA?5?$AAD?$AAe?$AAv?$AAi?$AAc?$AAe?$AA?5?$AAI?$AAD?$AA?3?$AA?5?$AA?5?$AA?$CF?$AAd?$AA?$AN?$AA?6?$AA?$AA@|
  00070		 |$LN10@SetDeviceI|
  00070	00000000	 DCD         |g_bootCfg|
  00074		 |$LN11@SetDeviceI|
  00074	00000000	 DCD         |__security_cookie|
  00078		 |$M47483|

			 ENDP  ; |SetDeviceID|

	END
