; Listing generated by Microsoft (R) Optimizing Compiler Version 14.01.60511.01 

	TTL	C:\WINCE600\PLATFORM\EVM_OMAP3530\SRC\DRIVERS\CAMERA\PDD\IspCtrl.cpp
	CODE32

  00000			 AREA	 |.drectve|, DRECTVE
	DCB	"-defaultlib:LIBCMT "
	DCB	"-defaultlib:OLDNAMES "

	EXPORT	|??0CIspCtrl@@QAA@XZ|			; CIspCtrl::CIspCtrl
; File c:\wince600\platform\evm_omap3530\src\drivers\camera\pdd\ispctrl.cpp

  00000			 AREA	 |.pdata|, PDATA
|$T40719| DCD	|$LN5@CIspCtrl|
	DCD	0x40000800
; Function compile flags: /Ogspy

  00000			 AREA	 |.text|, CODE, ARM

  00000		 |??0CIspCtrl@@QAA@XZ| PROC		; CIspCtrl::CIspCtrl

; 55   : {   

  00000		 |$LN5@CIspCtrl|
  00000		 |$M40716|

; 56   :     m_pIspConfigRegs=NULL;

  00000	e3a03000	 mov         r3, #0
  00004	e5803004	 str         r3, [r0, #4]

; 57   :     m_pCCDCRegs = NULL;

  00008	e5803008	 str         r3, [r0, #8]

; 58   :     m_pYUVDMAAddr=NULL;

  0000c	e5803014	 str         r3, [r0, #0x14]

; 59   :     m_pYUVVirtualAddr=NULL;

  00010	e580300c	 str         r3, [r0, #0xC]

; 60   :     m_pYUVPhysicalAddr=NULL;

  00014	e5803010	 str         r3, [r0, #0x10]

; 61   :     m_bEnabled= FALSE;

  00018	e5803000	 str         r3, [r0]

; 62   : }

  0001c	e12fff1e	 bx          lr
  00020		 |$M40717|

			 ENDP  ; |??0CIspCtrl@@QAA@XZ|, CIspCtrl::CIspCtrl

	EXPORT	|??1CIspCtrl@@QAA@XZ|			; CIspCtrl::~CIspCtrl

  00000			 AREA	 |.pdata|, PDATA
|$T40726| DCD	|$LN5@CIspCtrl@2|
	DCD	0x40000100
; Function compile flags: /Ogspy

  00000			 AREA	 |.text|, CODE, ARM

  00000		 |??1CIspCtrl@@QAA@XZ| PROC		; CIspCtrl::~CIspCtrl

; 65   : {

  00000		 |$LN5@CIspCtrl@2|
  00000		 |$M40723|

; 66   : }

  00000	e12fff1e	 bx          lr
  00004		 |$M40724|

			 ENDP  ; |??1CIspCtrl@@QAA@XZ|, CIspCtrl::~CIspCtrl

	EXPORT	|?GetPhysFromVirt@CIspCtrl@@AAAPAXK@Z|	; CIspCtrl::GetPhysFromVirt
	IMPORT	|LockPages|

  00000			 AREA	 |.pdata|, PDATA
|$T40737| DCD	|$LN7@GetPhysFro|
	DCD	0x40001c02
; Function compile flags: /Ogspy

  00000			 AREA	 |.text|, CODE, ARM

  00000		 |?GetPhysFromVirt@CIspCtrl@@AAAPAXK@Z| PROC ; CIspCtrl::GetPhysFromVirt

; 80   : {

  00000		 |$LN7@GetPhysFro|
  00000	e92d4010	 stmdb       sp!, {r4, lr}
  00004	e24dd004	 sub         sp, sp, #4
  00008		 |$M40734|
  00008	e1a04001	 mov         r4, r1
  0000c	e3e03b0d	 mvn         r3, #0xD, 22

; 81   :     ULONG aPFNTab[1];
; 82   :     ULONG ulPhysAddr;
; 83   : 
; 84   : 
; 85   :     if (LockPages((LPVOID)ulVirtAddr, UserKInfo[KINX_PAGESIZE], aPFNTab,
; 86   :                    LOCKFLAG_QUERY_ONLY))

  00010	e22330fb	 eor         r3, r3, #0xFB
  00014	e5931000	 ldr         r1, [r3]
  00018	e3a03002	 mov         r3, #2
  0001c	e28d2000	 add         r2, sp, #0
  00020	e1a00004	 mov         r0, r4
  00024	eb000000	 bl          LockPages
  00028	e3500000	 cmp         r0, #0
  0002c	0a00000b	 beq         |$LN2@GetPhysFro|
  00030	e3e02b0d	 mvn         r2, #0xD, 22

; 87   :         {
; 88   :          // Merge PFN with address offset to get physical address         
; 89   :          ulPhysAddr= ((*aPFNTab << UserKInfo[KINX_PFN_SHIFT]) & UserKInfo[KINX_PFN_MASK])|(ulVirtAddr & 0xFFF);

  00034	e22230f7	 eor         r3, r2, #0xF7
  00038	e22220f3	 eor         r2, r2, #0xF3
  0003c	e5920000	 ldr         r0, [r2]
  00040	e59d2000	 ldr         r2, [sp]
  00044	e593e000	 ldr         lr, [r3]
  00048	e3a03c0f	 mov         r3, #0xF, 24
  0004c	e38330ff	 orr         r3, r3, #0xFF
  00050	e0002e12	 and         r2, r0, r2, lsl lr
  00054	e0043003	 and         r3, r4, r3
  00058	e1820003	 orr         r0, r2, r3

; 90   :         } else {

  0005c	ea000000	 b           |$LN1@GetPhysFro|
  00060		 |$LN2@GetPhysFro|

; 91   :         ulPhysAddr = 0;

  00060	e3a00000	 mov         r0, #0
  00064		 |$LN1@GetPhysFro|

; 92   :         }
; 93   :     return ((LPVOID)ulPhysAddr);
; 94   : }

  00064	e28dd004	 add         sp, sp, #4
  00068	e8bd4010	 ldmia       sp!, {r4, lr}
  0006c	e12fff1e	 bx          lr
  00070		 |$M40735|

			 ENDP  ; |?GetPhysFromVirt@CIspCtrl@@AAAPAXK@Z|, CIspCtrl::GetPhysFromVirt

	EXPORT	|?MapCameraReg@CIspCtrl@@AAAHXZ|	; CIspCtrl::MapCameraReg
	EXPORT	|??_C@_1IE@EHGCADLK@?$AAF?$AAa?$AAi?$AAl?$AAe?$AAd?$AA?5?$AAm?$AAa?$AAp?$AA?5?$AAC?$AAa?$AAm?$AAe?$AAr?$AAa?$AA?5?$AAI?$AAS?$AAP?$AA?5?$AAC?$AAC?$AAD?$AAC?$AA?5?$AAp?$AAh?$AAy?$AAs?$AAi@| [ DATA ] ; `string'
	EXPORT	|??_C@_1IO@IJFHFDNE@?$AAC?$AA?3?$AA?2?$AAW?$AAI?$AAN?$AAC?$AAE?$AA6?$AA0?$AA0?$AA?2?$AAP?$AAL?$AAA?$AAT?$AAF?$AAO?$AAR?$AAM?$AA?2?$AAE?$AAV?$AAM?$AA_?$AAO?$AAM?$AAA?$AAP?$AA3?$AA5?$AA3@| [ DATA ] ; `string'
	EXPORT	|??_C@_1CI@OHCJFJPM@?$AAE?$AAR?$AAR?$AAO?$AAR?$AA?3?$AA?5?$AA?$CF?$AAs?$AA?5?$AAl?$AAi?$AAn?$AAe?$AA?5?$AA?$CF?$AAd?$AA?3?$AA?5?$AA?$AA@| [ DATA ] ; `string'
	EXPORT	|??_C@_1II@LGBHMHDJ@?$AAF?$AAa?$AAi?$AAl?$AAe?$AAd?$AA?5?$AAm?$AAa?$AAp?$AA?5?$AAC?$AAa?$AAm?$AAe?$AAr?$AAa?$AA?5?$AAI?$AAS?$AAP?$AA?5?$AAC?$AAO?$AAN?$AAF?$AAI?$AAG?$AA?5?$AAp?$AAh?$AAy@| [ DATA ] ; `string'
	EXPORT	|??_C@_1CA@LGPICJNI@?$AA?$CL?$AAM?$AAa?$AAp?$AAC?$AAa?$AAm?$AAe?$AAr?$AAa?$AAR?$AAe?$AAg?$AA?$AN?$AA?6?$AA?$AA@| [ DATA ] ; `string'
	IMPORT	|MmMapIoSpace|
	IMPORT	|NKDbgPrintfW|
	IMPORT	|dpCurSettings|

  00000			 AREA	 |.pdata|, PDATA
|$T40758| DCD	|$LN14@MapCameraR|
	DCD	0x40003701

  00000			 AREA	 |.rdata|, DATA, READONLY
|??_C@_1IE@EHGCADLK@?$AAF?$AAa?$AAi?$AAl?$AAe?$AAd?$AA?5?$AAm?$AAa?$AAp?$AA?5?$AAC?$AAa?$AAm?$AAe?$AAr?$AAa?$AA?5?$AAI?$AAS?$AAP?$AA?5?$AAC?$AAC?$AAD?$AAC?$AA?5?$AAp?$AAh?$AAy?$AAs?$AAi@| DCB "F"
	DCB	0x0, "a", 0x0, "i", 0x0, "l", 0x0, "e", 0x0, "d", 0x0, " "
	DCB	0x0, "m", 0x0, "a", 0x0, "p", 0x0, " ", 0x0, "C", 0x0, "a"
	DCB	0x0, "m", 0x0, "e", 0x0, "r", 0x0, "a", 0x0, " ", 0x0, "I"
	DCB	0x0, "S", 0x0, "P", 0x0, " ", 0x0, "C", 0x0, "C", 0x0, "D"
	DCB	0x0, "C", 0x0, " ", 0x0, "p", 0x0, "h", 0x0, "y", 0x0, "s"
	DCB	0x0, "i", 0x0, "c", 0x0, "a", 0x0, "l", 0x0, " ", 0x0, "a"
	DCB	0x0, "d", 0x0, "d", 0x0, "r", 0x0, "e", 0x0, "s", 0x0, "s"
	DCB	0x0, " ", 0x0, "t", 0x0, "o", 0x0, " ", 0x0, "v", 0x0, "i"
	DCB	0x0, "r", 0x0, "t", 0x0, "u", 0x0, "a", 0x0, "l", 0x0, " "
	DCB	0x0, "a", 0x0, "d", 0x0, "d", 0x0, "r", 0x0, "e", 0x0, "s"
	DCB	0x0, "s", 0x0, "!", 0x0, 0xd, 0x0, 0xa, 0x0, 0x0, 0x0 ; `string'

  00000			 AREA	 |.rdata|, DATA, READONLY
|??_C@_1IO@IJFHFDNE@?$AAC?$AA?3?$AA?2?$AAW?$AAI?$AAN?$AAC?$AAE?$AA6?$AA0?$AA0?$AA?2?$AAP?$AAL?$AAA?$AAT?$AAF?$AAO?$AAR?$AAM?$AA?2?$AAE?$AAV?$AAM?$AA_?$AAO?$AAM?$AAA?$AAP?$AA3?$AA5?$AA3@| DCB "C"
	DCB	0x0, ":", 0x0, "\\", 0x0, "W", 0x0, "I", 0x0, "N", 0x0, "C"
	DCB	0x0, "E", 0x0, "6", 0x0, "0", 0x0, "0", 0x0, "\\", 0x0, "P"
	DCB	0x0, "L", 0x0, "A", 0x0, "T", 0x0, "F", 0x0, "O", 0x0, "R"
	DCB	0x0, "M", 0x0, "\\", 0x0, "E", 0x0, "V", 0x0, "M", 0x0, "_"
	DCB	0x0, "O", 0x0, "M", 0x0, "A", 0x0, "P", 0x0, "3", 0x0, "5"
	DCB	0x0, "3", 0x0, "0", 0x0, "\\", 0x0, "S", 0x0, "R", 0x0, "C"
	DCB	0x0, "\\", 0x0, "D", 0x0, "R", 0x0, "I", 0x0, "V", 0x0, "E"
	DCB	0x0, "R", 0x0, "S", 0x0, "\\", 0x0, "C", 0x0, "A", 0x0, "M"
	DCB	0x0, "E", 0x0, "R", 0x0, "A", 0x0, "\\", 0x0, "P", 0x0, "D"
	DCB	0x0, "D", 0x0, "\\", 0x0, ".", 0x0, "\\", 0x0, "I", 0x0, "s"
	DCB	0x0, "p", 0x0, "C", 0x0, "t", 0x0, "r", 0x0, "l", 0x0, "."
	DCB	0x0, "c", 0x0, "p", 0x0, "p", 0x0, 0x0, 0x0 ; `string'

  00000			 AREA	 |.rdata|, DATA, READONLY
|??_C@_1CI@OHCJFJPM@?$AAE?$AAR?$AAR?$AAO?$AAR?$AA?3?$AA?5?$AA?$CF?$AAs?$AA?5?$AAl?$AAi?$AAn?$AAe?$AA?5?$AA?$CF?$AAd?$AA?3?$AA?5?$AA?$AA@| DCB "E"
	DCB	0x0, "R", 0x0, "R", 0x0, "O", 0x0, "R", 0x0, ":", 0x0, " "
	DCB	0x0, "%", 0x0, "s", 0x0, " ", 0x0, "l", 0x0, "i", 0x0, "n"
	DCB	0x0, "e", 0x0, " ", 0x0, "%", 0x0, "d", 0x0, ":", 0x0, " "
	DCB	0x0, 0x0, 0x0				; `string'

  00000			 AREA	 |.rdata|, DATA, READONLY
|??_C@_1II@LGBHMHDJ@?$AAF?$AAa?$AAi?$AAl?$AAe?$AAd?$AA?5?$AAm?$AAa?$AAp?$AA?5?$AAC?$AAa?$AAm?$AAe?$AAr?$AAa?$AA?5?$AAI?$AAS?$AAP?$AA?5?$AAC?$AAO?$AAN?$AAF?$AAI?$AAG?$AA?5?$AAp?$AAh?$AAy@| DCB "F"
	DCB	0x0, "a", 0x0, "i", 0x0, "l", 0x0, "e", 0x0, "d", 0x0, " "
	DCB	0x0, "m", 0x0, "a", 0x0, "p", 0x0, " ", 0x0, "C", 0x0, "a"
	DCB	0x0, "m", 0x0, "e", 0x0, "r", 0x0, "a", 0x0, " ", 0x0, "I"
	DCB	0x0, "S", 0x0, "P", 0x0, " ", 0x0, "C", 0x0, "O", 0x0, "N"
	DCB	0x0, "F", 0x0, "I", 0x0, "G", 0x0, " ", 0x0, "p", 0x0, "h"
	DCB	0x0, "y", 0x0, "s", 0x0, "i", 0x0, "c", 0x0, "a", 0x0, "l"
	DCB	0x0, " ", 0x0, "a", 0x0, "d", 0x0, "d", 0x0, "r", 0x0, "e"
	DCB	0x0, "s", 0x0, "s", 0x0, " ", 0x0, "t", 0x0, "o", 0x0, " "
	DCB	0x0, "v", 0x0, "i", 0x0, "r", 0x0, "t", 0x0, "u", 0x0, "a"
	DCB	0x0, "l", 0x0, " ", 0x0, "a", 0x0, "d", 0x0, "d", 0x0, "r"
	DCB	0x0, "e", 0x0, "s", 0x0, "s", 0x0, "!", 0x0, 0xd, 0x0, 0xa
	DCB	0x0, 0x0, 0x0				; `string'

  00000			 AREA	 |.rdata|, DATA, READONLY
|??_C@_1CA@LGPICJNI@?$AA?$CL?$AAM?$AAa?$AAp?$AAC?$AAa?$AAm?$AAe?$AAr?$AAa?$AAR?$AAe?$AAg?$AA?$AN?$AA?6?$AA?$AA@| DCB "+"
	DCB	0x0, "M", 0x0, "a", 0x0, "p", 0x0, "C", 0x0, "a", 0x0, "m"
	DCB	0x0, "e", 0x0, "r", 0x0, "a", 0x0, "R", 0x0, "e", 0x0, "g"
	DCB	0x0, 0xd, 0x0, 0xa, 0x0, 0x0, 0x0	; `string'
; Function compile flags: /Ogspy

  00000			 AREA	 |.text|, CODE, ARM

  00000		 |?MapCameraReg@CIspCtrl@@AAAHXZ| PROC	; CIspCtrl::MapCameraReg

; 102  : {

  00000		 |$LN14@MapCameraR|
  00000	e92d4030	 stmdb       sp!, {r4, r5, lr}
  00004		 |$M40755|
  00004	e1a05000	 mov         r5, r0

; 103  :         DEBUGMSG(ZONE_FUNCTION,(TEXT("+MapCameraReg\r\n")));

  00008	e59f40c8	 ldr         r4, [pc, #0xC8]
  0000c	e5943440	 ldr         r3, [r4, #0x440]
  00010	e3130008	 tst         r3, #8
  00014	159f00b8	 ldrne       r0, [pc, #0xB8]
  00018	1b000000	 blne        NKDbgPrintfW
  0001c	e3a03312	 mov         r3, #0x12, 6

; 104  :         PHYSICAL_ADDRESS pa;
; 105  : //    UINT32 *pAddress = NULL;
; 106  : 
; 107  :         
; 108  :         //To map Camera ISP register
; 109  :     pa.QuadPart = CAM_ISP_CONFIG_BASE_ADDRESS;

  00020	e383092f	 orr         r0, r3, #0x2F, 18

; 110  :     m_pIspConfigRegs = (CAM_ISP_CONFIG_REGS *)MmMapIoSpace(pa, sizeof(CAM_ISP_CONFIG_REGS), FALSE);

  00024	e3a03000	 mov         r3, #0
  00028	e3a01000	 mov         r1, #0
  0002c	e3a0207c	 mov         r2, #0x7C
  00030	eb000000	 bl          MmMapIoSpace
  00034	e3500000	 cmp         r0, #0
  00038	e5850004	 str         r0, [r5, #4]

; 111  :     if (m_pIspConfigRegs == NULL)

  0003c	1a00000b	 bne         |$LN2@MapCameraR|

; 112  :     {
; 113  :         ERRORMSG(ZONE_ERROR,(TEXT("Failed map Camera ISP CONFIG physical address to virtual address!\r\n")));

  00040	e5943440	 ldr         r3, [r4, #0x440]
  00044	e3130001	 tst         r3, #1
  00048	0a000005	 beq         |$LN7@MapCameraR|
  0004c	e59f1074	 ldr         r1, [pc, #0x74]
  00050	e59f006c	 ldr         r0, [pc, #0x6C]
  00054	e3a02071	 mov         r2, #0x71
  00058	eb000000	 bl          NKDbgPrintfW
  0005c	e59f006c	 ldr         r0, [pc, #0x6C]
  00060		 |$LN11@MapCameraR|
  00060	eb000000	 bl          NKDbgPrintfW
  00064		 |$LN7@MapCameraR|

; 114  :         return FALSE;

  00064	e3a00000	 mov         r0, #0

; 127  : }

  00068	e8bd4030	 ldmia       sp!, {r4, r5, lr}
  0006c	e12fff1e	 bx          lr
  00070		 |$LN2@MapCameraR|

; 115  :     }
; 116  :     
; 117  :     //To map Camera ISP CCDC register
; 118  :     pa.QuadPart = CAM_ISP_CCDC_BASE_ADDRESS;

  00070	e59f0054	 ldr         r0, [pc, #0x54]
  00074	e3a01000	 mov         r1, #0

; 119  :     m_pCCDCRegs = (CAM_ISP_CCDC_REGS *)MmMapIoSpace(pa, sizeof(CAM_ISP_CCDC_REGS), FALSE);

  00078	e3a03000	 mov         r3, #0
  0007c	e3a020a8	 mov         r2, #0xA8
  00080	eb000000	 bl          MmMapIoSpace
  00084	e3500000	 cmp         r0, #0
  00088	e5850008	 str         r0, [r5, #8]

; 120  :     if (m_pCCDCRegs == NULL)

  0008c	1a000008	 bne         |$LN1@MapCameraR|

; 121  :     {
; 122  :         ERRORMSG(ZONE_ERROR,(TEXT("Failed map Camera ISP CCDC physical address to virtual address!\r\n")));

  00090	e5943440	 ldr         r3, [r4, #0x440]
  00094	e3130001	 tst         r3, #1
  00098	0afffff1	 beq         |$LN7@MapCameraR|
  0009c	e59f1024	 ldr         r1, [pc, #0x24]
  000a0	e59f001c	 ldr         r0, [pc, #0x1C]
  000a4	e3a0207a	 mov         r2, #0x7A
  000a8	eb000000	 bl          NKDbgPrintfW
  000ac	e59f000c	 ldr         r0, [pc, #0xC]

; 123  :         return FALSE;

  000b0	eaffffea	 b           |$LN11@MapCameraR|
  000b4		 |$LN1@MapCameraR|

; 124  :     }
; 125  :     
; 126  :     return TRUE;

  000b4	e3a00001	 mov         r0, #1

; 127  : }

  000b8	e8bd4030	 ldmia       sp!, {r4, r5, lr}
  000bc	e12fff1e	 bx          lr
  000c0		 |$LN15@MapCameraR|
  000c0		 |$LN16@MapCameraR|
  000c0	00000000	 DCD         |??_C@_1IE@EHGCADLK@?$AAF?$AAa?$AAi?$AAl?$AAe?$AAd?$AA?5?$AAm?$AAa?$AAp?$AA?5?$AAC?$AAa?$AAm?$AAe?$AAr?$AAa?$AA?5?$AAI?$AAS?$AAP?$AA?5?$AAC?$AAC?$AAD?$AAC?$AA?5?$AAp?$AAh?$AAy?$AAs?$AAi@|
  000c4		 |$LN17@MapCameraR|
  000c4	00000000	 DCD         |??_C@_1CI@OHCJFJPM@?$AAE?$AAR?$AAR?$AAO?$AAR?$AA?3?$AA?5?$AA?$CF?$AAs?$AA?5?$AAl?$AAi?$AAn?$AAe?$AA?5?$AA?$CF?$AAd?$AA?3?$AA?5?$AA?$AA@|
  000c8		 |$LN18@MapCameraR|
  000c8	00000000	 DCD         |??_C@_1IO@IJFHFDNE@?$AAC?$AA?3?$AA?2?$AAW?$AAI?$AAN?$AAC?$AAE?$AA6?$AA0?$AA0?$AA?2?$AAP?$AAL?$AAA?$AAT?$AAF?$AAO?$AAR?$AAM?$AA?2?$AAE?$AAV?$AAM?$AA_?$AAO?$AAM?$AAA?$AAP?$AA3?$AA5?$AA3@|
  000cc		 |$LN19@MapCameraR|
  000cc	480bc600	 DCD         0x480bc600
  000d0		 |$LN20@MapCameraR|
  000d0	00000000	 DCD         |??_C@_1II@LGBHMHDJ@?$AAF?$AAa?$AAi?$AAl?$AAe?$AAd?$AA?5?$AAm?$AAa?$AAp?$AA?5?$AAC?$AAa?$AAm?$AAe?$AAr?$AAa?$AA?5?$AAI?$AAS?$AAP?$AA?5?$AAC?$AAO?$AAN?$AAF?$AAI?$AAG?$AA?5?$AAp?$AAh?$AAy@|
  000d4		 |$LN21@MapCameraR|
  000d4	00000000	 DCD         |??_C@_1CA@LGPICJNI@?$AA?$CL?$AAM?$AAa?$AAp?$AAC?$AAa?$AAm?$AAe?$AAr?$AAa?$AAR?$AAe?$AAg?$AA?$AN?$AA?6?$AA?$AA@|
  000d8		 |$LN22@MapCameraR|
  000d8	00000000	 DCD         |dpCurSettings|
  000dc		 |$M40756|

			 ENDP  ; |?MapCameraReg@CIspCtrl@@AAAHXZ|, CIspCtrl::MapCameraReg

	EXPORT	|?ConfigGPIO4MDC@CIspCtrl@@AAAHXZ|	; CIspCtrl::ConfigGPIO4MDC
	EXPORT	|??_C@_1CE@BGOPMMJH@?$AA?$CL?$AAC?$AAo?$AAn?$AAf?$AAi?$AAg?$AAG?$AAP?$AAI?$AAO?$AA4?$AAM?$AAD?$AAC?$AA?$AN?$AA?6?$AA?$AA@| [ DATA ] ; `string'
	IMPORT	|GPIOClose|
	IMPORT	|Sleep|
	IMPORT	|GPIOSetBit|
	IMPORT	|GPIOSetMode|
	IMPORT	|GPIOClrBit|
	IMPORT	|GPIOOpen|

  00000			 AREA	 |.pdata|, PDATA
|$T40778| DCD	|$LN7@ConfigGPIO|
	DCD	0x40002e01

  00000			 AREA	 |.rdata|, DATA, READONLY
|??_C@_1CE@BGOPMMJH@?$AA?$CL?$AAC?$AAo?$AAn?$AAf?$AAi?$AAg?$AAG?$AAP?$AAI?$AAO?$AA4?$AAM?$AAD?$AAC?$AA?$AN?$AA?6?$AA?$AA@| DCB "+"
	DCB	0x0, "C", 0x0, "o", 0x0, "n", 0x0, "f", 0x0, "i", 0x0, "g"
	DCB	0x0, "G", 0x0, "P", 0x0, "I", 0x0, "O", 0x0, "4", 0x0, "M"
	DCB	0x0, "D", 0x0, "C", 0x0, 0xd, 0x0, 0xa, 0x0, 0x0, 0x0 ; `string'
; Function compile flags: /Ogspy

  00000			 AREA	 |.text|, CODE, ARM

  00000		 |?ConfigGPIO4MDC@CIspCtrl@@AAAHXZ| PROC ; CIspCtrl::ConfigGPIO4MDC

; 140  : {

  00000		 |$LN7@ConfigGPIO|
  00000	e92d4010	 stmdb       sp!, {r4, lr}
  00004		 |$M40775|

; 141  :     DEBUGMSG(ZONE_FUNCTION,(TEXT("+ConfigGPIO4MDC\r\n")));

  00004	e59f30a8	 ldr         r3, [pc, #0xA8]
  00008	e5933440	 ldr         r3, [r3, #0x440]
  0000c	e3130008	 tst         r3, #8
  00010	159f0098	 ldrne       r0, [pc, #0x98]
  00014	1b000000	 blne        NKDbgPrintfW

; 142  : 
; 143  :     HANDLE hGpio = GPIOOpen();

  00018	eb000000	 bl          GPIOOpen

; 144  :   
; 145  :     // CAM_VD_EN_1V8
; 146  :     GPIOClrBit(hGpio, VIDEO_CAPTURE_SELECT1);

  0001c	e3a01f42	 mov         r1, #0x42, 30
  00020	e1a04000	 mov         r4, r0
  00024	eb000000	 bl          GPIOClrBit

; 147  :     GPIOSetMode(hGpio, VIDEO_CAPTURE_SELECT1, GPIO_DIR_OUTPUT);

  00028	e3a02000	 mov         r2, #0
  0002c	e3a01f42	 mov         r1, #0x42, 30
  00030	e1a00004	 mov         r0, r4
  00034	eb000000	 bl          GPIOSetMode

; 148  : 
; 149  :     // CAM_VD_SEL_1V8
; 150  :     GPIOSetBit(hGpio, VIDEO_CAPTURE_SELECT2);

  00038	e3a0109d	 mov         r1, #0x9D
  0003c	e1a00004	 mov         r0, r4
  00040	eb000000	 bl          GPIOSetBit

; 151  :     GPIOSetMode(hGpio, VIDEO_CAPTURE_SELECT2, GPIO_DIR_OUTPUT);

  00044	e3a02000	 mov         r2, #0
  00048	e3a0109d	 mov         r1, #0x9D
  0004c	e1a00004	 mov         r0, r4
  00050	eb000000	 bl          GPIOSetMode

; 152  : 
; 153  :     Sleep(20);

  00054	e3a00014	 mov         r0, #0x14
  00058	eb000000	 bl          Sleep

; 154  :     GPIOClrBit(hGpio, VIDEO_CAPTURE_RESET);

  0005c	e3a01062	 mov         r1, #0x62
  00060	e1a00004	 mov         r0, r4
  00064	eb000000	 bl          GPIOClrBit

; 155  :     GPIOSetMode(hGpio, VIDEO_CAPTURE_RESET, GPIO_DIR_OUTPUT);

  00068	e3a02000	 mov         r2, #0
  0006c	e3a01062	 mov         r1, #0x62
  00070	e1a00004	 mov         r0, r4
  00074	eb000000	 bl          GPIOSetMode

; 156  :     Sleep(20);

  00078	e3a00014	 mov         r0, #0x14
  0007c	eb000000	 bl          Sleep

; 157  :     GPIOSetBit(hGpio, VIDEO_CAPTURE_RESET);

  00080	e3a01062	 mov         r1, #0x62
  00084	e1a00004	 mov         r0, r4
  00088	eb000000	 bl          GPIOSetBit

; 158  :     GPIOSetMode(hGpio, VIDEO_CAPTURE_RESET, GPIO_DIR_OUTPUT);

  0008c	e3a02000	 mov         r2, #0
  00090	e3a01062	 mov         r1, #0x62
  00094	e1a00004	 mov         r0, r4
  00098	eb000000	 bl          GPIOSetMode

; 159  : 
; 160  :     GPIOClose(hGpio);

  0009c	e1a00004	 mov         r0, r4
  000a0	eb000000	 bl          GPIOClose

; 161  : 
; 162  : 
; 163  : #ifndef BSP_EVM2
; 164  :     PHYSICAL_ADDRESS pa;
; 165  :     CAM_GPIO_REGS   *pCamGPIO;
; 166  : 
; 167  :     // map in pad control registers for camera GPIO pins
; 168  :     pa.QuadPart = CAM_GPIO_BASE_ADDRESS;
; 169  :     pCamGPIO = (CAM_GPIO_REGS *)MmMapIoSpace(pa, sizeof(CAM_GPIO_REGS), FALSE);
; 170  :     if (pCamGPIO == NULL)
; 171  :     {
; 172  :         ERRORMSG(ZONE_ERROR,(TEXT("Failed map Camera GPIO physical address to virtual address!\r\n")));
; 173  :         return FALSE;
; 174  :     }
; 175  : 
; 176  :     UINT32 reg_value;
; 177  :     
; 178  :     //Set GPIO54 mode4
; 179  :     reg_value = INREG32(&pCamGPIO->GPIO54);
; 180  :     reg_value &= GPIO_MODE_MASK_EVENPIN;
; 181  :     reg_value |= 0x4;
; 182  :     OUTREG32(&pCamGPIO->GPIO54, reg_value);
; 183  :     
; 184  :     //Set GPIO58 mode4
; 185  :     reg_value = INREG32(&pCamGPIO->GPIO58);
; 186  :     reg_value &= GPIO_MODE_MASK_EVENPIN;
; 187  :     reg_value |= 0x4;
; 188  :     OUTREG32(&pCamGPIO->GPIO58, reg_value);
; 189  :     
; 190  :     //Set GPIO134 mode4
; 191  :     reg_value = INREG32(&pCamGPIO->GPIO134);
; 192  :     reg_value &= GPIO_MODE_MASK_EVENPIN;
; 193  :     reg_value |= 0x4;
; 194  :     OUTREG32(&pCamGPIO->GPIO134, reg_value);
; 195  :     
; 196  :     //Set GPIO136 mode4
; 197  :     reg_value = INREG32(&pCamGPIO->GPIO136);
; 198  :     reg_value &= GPIO_MODE_MASK_EVENPIN;
; 199  :     reg_value |= 0x4;
; 200  :     OUTREG32(&pCamGPIO->GPIO136, reg_value);        
; 201  :     
; 202  :     //Set GPIO139 mode4
; 203  :     reg_value = INREG32(&pCamGPIO->GPIO139);
; 204  :     reg_value &= GPIO_MODE_MASK_ODDPIN;
; 205  :     reg_value |= 0x00040000;
; 206  :     OUTREG32(&pCamGPIO->GPIO139, reg_value);    
; 207  :     
; 208  : 
; 209  :     HANDLE hGPIO = NULL;    
; 210  :     hGPIO = CreateFile(L"GIO1:",  
; 211  :     GENERIC_READ | GENERIC_WRITE,       
; 212  :     FILE_SHARE_READ|FILE_SHARE_WRITE,                                
; 213  :     NULL,                         
; 214  :     OPEN_EXISTING,              
; 215  :     0,                                
; 216  :     NULL);                            
; 217  : 
; 218  :     DEBUGMSG(ZONE_VERBOSE, (TEXT("hGPIO=0x%x. \r\n"),hGPIO)); 
; 219  :     
; 220  :     DWORD   GPIO_PIN_Number;
; 221  :     DWORD GPIOoutBuffer ;
; 222  :     DWORD GPIOinBuffer[2];
; 223  :     
; 224  :     // set GPIO58 0 -> 1 (reset)
; 225  : 
; 226  :     GPIOinBuffer[0] = 58;
; 227  :     GPIOinBuffer[1] = GPIO_DIR_OUTPUT;
; 228  :     if (DeviceIoControl(hGPIO, IOCTL_GPIO_SETMODE, &GPIOinBuffer, 
; 229  :             sizeof(GPIOinBuffer), &GPIOoutBuffer, sizeof(GPIOoutBuffer), NULL, NULL) == 0)
; 230  :     {
; 231  :         ERRORMSG(ZONE_ERROR, (TEXT("DeviceIoControl:IOCTL_GPIO_SETMODE of GPIO58 communication has problem. \r\n")));    
; 232  :         return FALSE;
; 233  :     }       
; 234  :     
; 235  :     GPIO_PIN_Number = 58;
; 236  :     
; 237  :     if (DeviceIoControl(hGPIO, IOCTL_GPIO_CLRBIT, &GPIO_PIN_Number, 
; 238  :             sizeof(GPIO_PIN_Number), &GPIOoutBuffer, sizeof(GPIOoutBuffer), NULL, NULL) == 0)
; 239  :     {
; 240  :         DEBUGMSG(ZONE_ERROR, (TEXT("DeviceIoControl:IOCTL_GPIO_CLRBIT of GPIO58 communication has problem. \r\n")));    
; 241  :         return FALSE;
; 242  :     }       
; 243  :     
; 244  :     Sleep(10);
; 245  : 
; 246  :     if (DeviceIoControl(hGPIO, IOCTL_GPIO_SETBIT, &GPIO_PIN_Number, 
; 247  :             sizeof(GPIO_PIN_Number), &GPIOoutBuffer, sizeof(GPIOoutBuffer), NULL, NULL) == 0)
; 248  :     {
; 249  :         DEBUGMSG(ZONE_ERROR, (TEXT("DeviceIoControl:IOCTL_GPIO_CLRBIT of GPIO58 communication has problem. \r\n")));    
; 250  :         return FALSE;
; 251  :     }
; 252  :     // Set GPIO134 "0"
; 253  :     
; 254  :     GPIOinBuffer[0] = 134;
; 255  :     GPIOinBuffer[1] = GPIO_DIR_OUTPUT;
; 256  :     if (DeviceIoControl(hGPIO, IOCTL_GPIO_SETMODE, &GPIOinBuffer, 
; 257  :             sizeof(GPIOinBuffer), &GPIOoutBuffer, sizeof(GPIOoutBuffer), NULL, NULL) == 0)
; 258  :     {
; 259  :         DEBUGMSG(ZONE_ERROR, (TEXT("DeviceIoControl:IOCTL_GPIO_SETMODE of GPIO134 communication has problem. \r\n")));    
; 260  :         return FALSE;
; 261  :     }       
; 262  :     
; 263  :     GPIO_PIN_Number = 134;
; 264  :     if (DeviceIoControl(hGPIO, IOCTL_GPIO_CLRBIT, &GPIO_PIN_Number, 
; 265  :             sizeof(GPIO_PIN_Number), &GPIOoutBuffer, sizeof(GPIOoutBuffer), NULL, NULL) == 0)
; 266  :     {
; 267  :         DEBUGMSG(ZONE_ERROR, (TEXT("DeviceIoControl:IOCTL_GPIO_CLRBIT of GPIO134 communication has problem. \r\n")));    
; 268  :         return FALSE;
; 269  :     }
; 270  :     
; 271  :     // Set GPIO136 "1"
; 272  :     
; 273  :     GPIOinBuffer[0] = 136;
; 274  :     GPIOinBuffer[1] = GPIO_DIR_OUTPUT;
; 275  :     if (DeviceIoControl(hGPIO, IOCTL_GPIO_SETMODE, &GPIOinBuffer, 
; 276  :             sizeof(GPIOinBuffer), &GPIOoutBuffer, sizeof(GPIOoutBuffer), NULL, NULL) == 0)
; 277  :     {
; 278  :         DEBUGMSG(ZONE_ERROR, (TEXT("DeviceIoControl:IOCTL_GPIO_SETMODE of GPIO136 communication has problem. \r\n")));    
; 279  :         return FALSE;
; 280  :     }       
; 281  :     
; 282  :     GPIO_PIN_Number = 136;
; 283  :     if (DeviceIoControl(hGPIO, IOCTL_GPIO_SETBIT, &GPIO_PIN_Number, 
; 284  :             sizeof(GPIO_PIN_Number), &GPIOoutBuffer, sizeof(GPIOoutBuffer), NULL, NULL) == 0)
; 285  :     {
; 286  :         DEBUGMSG(ZONE_ERROR, (TEXT("DeviceIoControl:IOCTL_GPIO_CLRBIT of GPIO136 communication has problem. \r\n")));    
; 287  :         return FALSE;
; 288  :     }
; 289  :     
; 290  :     //set GPIO54 "1"
; 291  :     
; 292  :     GPIOinBuffer[0] = 54;
; 293  :     GPIOinBuffer[1] = GPIO_DIR_OUTPUT;
; 294  :     if (DeviceIoControl(hGPIO, IOCTL_GPIO_SETMODE, &GPIOinBuffer, 
; 295  :             sizeof(GPIOinBuffer), &GPIOoutBuffer, sizeof(GPIOoutBuffer), NULL, NULL) == 0)
; 296  :     {
; 297  :         DEBUGMSG(ZONE_ERROR, (TEXT("DeviceIoControl:IOCTL_GPIO_SETMODE of GPIO54 communication has problem. \r\n")));    
; 298  :         return FALSE;
; 299  :     }       
; 300  :     
; 301  :     GPIO_PIN_Number = 54;
; 302  :     if (DeviceIoControl(hGPIO, IOCTL_GPIO_SETBIT, &GPIO_PIN_Number, 
; 303  :             sizeof(GPIO_PIN_Number), &GPIOoutBuffer, sizeof(GPIOoutBuffer), NULL, NULL) == 0)
; 304  :     {
; 305  :         DEBUGMSG(ZONE_ERROR, (TEXT("DeviceIoControl:IOCTL_GPIO_CLRBIT of GPIO54 communication has problem. \r\n")));    
; 306  :         return FALSE;
; 307  :     }
; 308  :     // Set GPIO139 input
; 309  :     
; 310  :     GPIOinBuffer[0] = 139;
; 311  :     GPIOinBuffer[1] = GPIO_DIR_OUTPUT;
; 312  :     if (DeviceIoControl(hGPIO, IOCTL_GPIO_SETMODE, &GPIOinBuffer, 
; 313  :             sizeof(GPIOinBuffer), &GPIOoutBuffer, sizeof(GPIOoutBuffer), NULL, NULL) == 0)
; 314  :     {
; 315  :         DEBUGMSG(ZONE_ERROR, (TEXT("DeviceIoControl:IOCTL_GPIO_SETMODE of GPIO139 communication has problem. \r\n")));    
; 316  :         return FALSE;
; 317  :     }   
; 318  : 
; 319  :     // Close GPIO handle
; 320  :     if(CloseHandle(hGPIO) == 0)    // Call this function to close port.
; 321  :     {
; 322  :         DEBUGMSG(ZONE_ERROR, (TEXT("CloseHandle(hGPIO) failed.\r\n")));    
; 323  :         return FALSE;
; 324  :     }       
; 325  : 
; 326  : #else
; 327  :     // GPIO setup is handled by XLDR/EBOOT
; 328  : #endif  
; 329  : 
; 330  :     return TRUE;

  000a4	e3a00001	 mov         r0, #1

; 331  : }       

  000a8	e8bd4010	 ldmia       sp!, {r4, lr}
  000ac	e12fff1e	 bx          lr
  000b0		 |$LN8@ConfigGPIO|
  000b0		 |$LN9@ConfigGPIO|
  000b0	00000000	 DCD         |??_C@_1CE@BGOPMMJH@?$AA?$CL?$AAC?$AAo?$AAn?$AAf?$AAi?$AAg?$AAG?$AAP?$AAI?$AAO?$AA4?$AAM?$AAD?$AAC?$AA?$AN?$AA?6?$AA?$AA@|
  000b4		 |$LN10@ConfigGPIO|
  000b4	00000000	 DCD         |dpCurSettings|
  000b8		 |$M40776|

			 ENDP  ; |?ConfigGPIO4MDC@CIspCtrl@@AAAHXZ|, CIspCtrl::ConfigGPIO4MDC

	EXPORT	|?CCDCInitSYNC@CIspCtrl@@AAAHXZ|	; CIspCtrl::CCDCInitSYNC
	EXPORT	|??_C@_1CA@BNLNAABP@?$AA?$CL?$AAC?$AAC?$AAD?$AAC?$AAI?$AAn?$AAi?$AAt?$AAS?$AAY?$AAN?$AAC?$AA?$AN?$AA?6?$AA?$AA@| [ DATA ] ; `string'
	IMPORT	|?ISP_OutReg32@@YAHPCII@Z|		; ISP_OutReg32

  00000			 AREA	 |.pdata|, PDATA
|$T40793| DCD	|$LN7@CCDCInitSY|
	DCD	0x40001501

  00000			 AREA	 |.rdata|, DATA, READONLY
|??_C@_1CA@BNLNAABP@?$AA?$CL?$AAC?$AAC?$AAD?$AAC?$AAI?$AAn?$AAi?$AAt?$AAS?$AAY?$AAN?$AAC?$AA?$AN?$AA?6?$AA?$AA@| DCB "+"
	DCB	0x0, "C", 0x0, "C", 0x0, "D", 0x0, "C", 0x0, "I", 0x0, "n"
	DCB	0x0, "i", 0x0, "t", 0x0, "S", 0x0, "Y", 0x0, "N", 0x0, "C"
	DCB	0x0, 0xd, 0x0, 0xa, 0x0, 0x0, 0x0	; `string'
; Function compile flags: /Ogspy

  00000			 AREA	 |.text|, CODE, ARM

  00000		 |?CCDCInitSYNC@CIspCtrl@@AAAHXZ| PROC	; CIspCtrl::CCDCInitSYNC

; 341  : {

  00000		 |$LN7@CCDCInitSY|
  00000	e92d4010	 stmdb       sp!, {r4, lr}
  00004		 |$M40790|
  00004	e1a04000	 mov         r4, r0

; 342  :         DEBUGMSG(ZONE_FUNCTION, (TEXT("+CCDCInitSYNC\r\n")));

  00008	e59f3040	 ldr         r3, [pc, #0x40]
  0000c	e5933440	 ldr         r3, [r3, #0x440]
  00010	e3130008	 tst         r3, #8
  00014	159f0030	 ldrne       r0, [pc, #0x30]
  00018	1b000000	 blne        NKDbgPrintfW

; 343  :         
; 344  :         UINT32 syn_mode = 0 ;
; 345  :         syn_mode |= ISPCCDC_SYN_MODE_WEN;// Video data to memory 
; 346  :         syn_mode |= ISPCCDC_SYN_MODE_DATSIZ_10;// cam_d is 10 bits
; 347  :         syn_mode |= ISPCCDC_SYN_MODE_VDHDEN;// Enable timing generator
; 348  : #ifdef ENABLE_PROGRESSIVE_INPUT
; 349  :         syn_mode |= ISPCCDC_SYN_MODE_FLDMODE_PROGRESSIVE; // Set field mode: interlaced
; 350  : #else
; 351  :         syn_mode |= ISPCCDC_SYN_MODE_FLDMODE_INTERLACED; // Set field mode: interlaced
; 352  : #endif
; 353  : 
; 354  :         syn_mode = (syn_mode & ISPCCDC_SYN_MODE_INPMOD_MASK)| ISPCCDC_SYN_MODE_INPMOD_RAW;//Set input mode: RAW
; 355  : #ifdef ENABLE_PACK8     
; 356  :         syn_mode |=ISPCCDC_SYN_MODE_PACK8; //pack 8-bit in memory
; 357  : #endif //   ENABLE_PACK8    
; 358  :         ISP_OutReg32(&m_pCCDCRegs->CCDC_SYN_MODE, syn_mode);

  0001c	e5943008	 ldr         r3, [r4, #8]
  00020	e3a02bc3	 mov         r2, #0xC3, 22
  00024	e3821c02	 orr         r1, r2, #2, 24
  00028	e2830008	 add         r0, r3, #8
  0002c	eb000000	 bl          |?ISP_OutReg32@@YAHPCII@Z|

; 359  :         
; 360  : #ifdef ENABLE_BT656     
; 361  :         ISP_OutReg32(&m_pCCDCRegs->CCDC_REC656IF, ISPCCDC_REC656IF_R656ON); //enable BT656

  00030	e5943008	 ldr         r3, [r4, #8]
  00034	e3a01001	 mov         r1, #1
  00038	e2830050	 add         r0, r3, #0x50
  0003c	eb000000	 bl          |?ISP_OutReg32@@YAHPCII@Z|

; 362  : #endif //ENABLE_BT656
; 363  :         return TRUE;

  00040	e3a00001	 mov         r0, #1

; 364  : }

  00044	e8bd4010	 ldmia       sp!, {r4, lr}
  00048	e12fff1e	 bx          lr
  0004c		 |$LN8@CCDCInitSY|
  0004c		 |$LN9@CCDCInitSY|
  0004c	00000000	 DCD         |??_C@_1CA@BNLNAABP@?$AA?$CL?$AAC?$AAC?$AAD?$AAC?$AAI?$AAn?$AAi?$AAt?$AAS?$AAY?$AAN?$AAC?$AA?$AN?$AA?6?$AA?$AA@|
  00050		 |$LN10@CCDCInitSY|
  00050	00000000	 DCD         |dpCurSettings|
  00054		 |$M40791|

			 ENDP  ; |?CCDCInitSYNC@CIspCtrl@@AAAHXZ|, CIspCtrl::CCDCInitSYNC

	EXPORT	|?CCDCInitCFG@CIspCtrl@@AAAHPAUtagCS_DATARANGE_VIDEO@@@Z| ; CIspCtrl::CCDCInitCFG
	EXPORT	|??_C@_1GI@NEHEHOEG@?$AAC?$AAI?$AAs?$AAp?$AAC?$AAt?$AAr?$AAl?$AA?3?$AA?3?$AAC?$AAC?$AAD?$AAC?$AAI?$AAn?$AAi?$AAt?$AAC?$AAF?$AAG?$AA?3?$AA?5?$AAE?$AAR?$AAR?$AAO?$AAR?$AA?5?$AA?9?$AA?5?$AAU@| [ DATA ] ; `string'
	EXPORT	|??_C@_1BO@IHENKABD@?$AA?$CL?$AAC?$AAC?$AAD?$AAC?$AAI?$AAn?$AAi?$AAt?$AAC?$AAF?$AAG?$AA?$AN?$AA?6?$AA?$AA@| [ DATA ] ; `string'
	IMPORT	|?ISP_InReg32@@YAHPCIPAI@Z|		; ISP_InReg32

  00000			 AREA	 |.pdata|, PDATA
|$T40815| DCD	|$LN14@CCDCInitCF|
	DCD	0x40003202

  00000			 AREA	 |.rdata|, DATA, READONLY
|??_C@_1GI@NEHEHOEG@?$AAC?$AAI?$AAs?$AAp?$AAC?$AAt?$AAr?$AAl?$AA?3?$AA?3?$AAC?$AAC?$AAD?$AAC?$AAI?$AAn?$AAi?$AAt?$AAC?$AAF?$AAG?$AA?3?$AA?5?$AAE?$AAR?$AAR?$AAO?$AAR?$AA?5?$AA?9?$AA?5?$AAU@| DCB "C"
	DCB	0x0, "I", 0x0, "s", 0x0, "p", 0x0, "C", 0x0, "t", 0x0, "r"
	DCB	0x0, "l", 0x0, ":", 0x0, ":", 0x0, "C", 0x0, "C", 0x0, "D"
	DCB	0x0, "C", 0x0, "I", 0x0, "n", 0x0, "i", 0x0, "t", 0x0, "C"
	DCB	0x0, "F", 0x0, "G", 0x0, ":", 0x0, " ", 0x0, "E", 0x0, "R"
	DCB	0x0, "R", 0x0, "O", 0x0, "R", 0x0, " ", 0x0, "-", 0x0, " "
	DCB	0x0, "U", 0x0, "n", 0x0, "s", 0x0, "u", 0x0, "p", 0x0, "p"
	DCB	0x0, "o", 0x0, "r", 0x0, "t", 0x0, "e", 0x0, "d", 0x0, " "
	DCB	0x0, "F", 0x0, "O", 0x0, "U", 0x0, "R", 0x0, "C", 0x0, "C"
	DCB	0x0, 0xd, 0x0, 0xa, 0x0, 0x0, 0x0	; `string'

  00000			 AREA	 |.rdata|, DATA, READONLY
|??_C@_1BO@IHENKABD@?$AA?$CL?$AAC?$AAC?$AAD?$AAC?$AAI?$AAn?$AAi?$AAt?$AAC?$AAF?$AAG?$AA?$AN?$AA?6?$AA?$AA@| DCB "+"
	DCB	0x0, "C", 0x0, "C", 0x0, "D", 0x0, "C", 0x0, "I", 0x0, "n"
	DCB	0x0, "i", 0x0, "t", 0x0, "C", 0x0, "F", 0x0, "G", 0x0, 0xd
	DCB	0x0, 0xa, 0x0, 0x0, 0x0			; `string'
; Function compile flags: /Ogspy

  00000			 AREA	 |.text|, CODE, ARM

  00000		 |?CCDCInitCFG@CIspCtrl@@AAAHPAUtagCS_DATARANGE_VIDEO@@@Z| PROC ; CIspCtrl::CCDCInitCFG

; 372  : {

  00000		 |$LN14@CCDCInitCF|
  00000	e92d4070	 stmdb       sp!, {r4 - r6, lr}
  00004	e24dd004	 sub         sp, sp, #4
  00008		 |$M40812|
  00008	e1a06001	 mov         r6, r1
  0000c	e1a05000	 mov         r5, r0

; 373  :         DEBUGMSG(ZONE_FUNCTION, (TEXT("+CCDCInitCFG\r\n")));

  00010	e59f40ac	 ldr         r4, [pc, #0xAC]
  00014	e5943440	 ldr         r3, [r4, #0x440]
  00018	e3130008	 tst         r3, #8
  0001c	159f009c	 ldrne       r0, [pc, #0x9C]
  00020	1b000000	 blne        NKDbgPrintfW

; 374  : 
; 375  :         PCS_VIDEOINFOHEADER pCsVideoInfoHdr = &(pCsDataRangeVideo->VideoInfoHeader);
; 376  : 
; 377  :         UINT biCompression = pCsVideoInfoHdr->bmiHeader.biCompression & ~BI_SRCPREROTATE;
; 378  : 
; 379  :         // Request Init
; 380  :         UINT32 setting = 0 ;
; 381  :         ISP_InReg32(&m_pCCDCRegs->CCDC_CFG, &setting);

  00024	e5953008	 ldr         r3, [r5, #8]
  00028	e5962110	 ldr         r2, [r6, #0x110]
  0002c	e3a0e000	 mov         lr, #0
  00030	e2830054	 add         r0, r3, #0x54
  00034	e28d1000	 add         r1, sp, #0
  00038	e3c26902	 bic         r6, r2, #2, 18
  0003c	e58de000	 str         lr, [sp]
  00040	eb000000	 bl          |?ISP_InReg32@@YAHPCIPAI@Z|

; 382  :         
; 383  :         setting |= (ISPCCDC_CFG_VDLC | (1 << ISPCCDC_CFG_FIDMD_SHIFT)); // must be set to 1 according to TRM

  00044	e59d3000	 ldr         r3, [sp]

; 384  : 
; 385  :         setting &= ~ISPCCDC_CFG_MSBINVI; // MSB of chroma input signal not inverted when stored to memory
; 386  :         
; 387  :         #ifdef ENABLE_PACK8
; 388  :             if (FOURCC_UYVY == biCompression) {

  00048	e59f106c	 ldr         r1, [pc, #0x6C]
  0004c	e3a00902	 mov         r0, #2, 18
  00050	e3c32a02	 bic         r2, r3, #2, 20
  00054	e3803040	 orr         r3, r0, #0x40
  00058	e1822003	 orr         r2, r2, r3
  0005c	e1560001	 cmp         r6, r1
  00060	e58d2000	 str         r2, [sp]

; 389  :                 setting &= ~ISPCCDC_CFG_BSWD; // normal - don't swap bytes

  00064	03c21a01	 biceq       r1, r2, #1, 20
  00068	0a000003	 beq         |$LN11@CCDCInitCF|

; 390  :             }
; 391  :             else if (FOURCC_YUY2 == biCompression) {

  0006c	e59f3044	 ldr         r3, [pc, #0x44]
  00070	e1560003	 cmp         r6, r3
  00074	1a000006	 bne         |$LN2@CCDCInitCF|

; 392  :                 setting |= ISPCCDC_CFG_BSWD; //swap byte

  00078	e3821a01	 orr         r1, r2, #1, 20
  0007c		 |$LN11@CCDCInitCF|

; 399  :             }
; 400  :         #endif
; 401  :         
; 402  :         #ifdef ENABLE_BT656
; 403  :             #ifndef ENABLE_PACK8
; 404  :                 setting |=ISPCCDC_CFG_BW656; //using 10-bit BT656
; 405  :             #endif //ENABLE_PACK8
; 406  :         #endif //ENABLE_BT656
; 407  :         
; 408  :         ISP_OutReg32(&m_pCCDCRegs->CCDC_CFG, setting);

  0007c	e5953008	 ldr         r3, [r5, #8]
  00080	e58d1000	 str         r1, [sp]
  00084	e2830054	 add         r0, r3, #0x54
  00088	eb000000	 bl          |?ISP_OutReg32@@YAHPCII@Z|

; 409  :         return TRUE;

  0008c	e3a00001	 mov         r0, #1
  00090	ea000004	 b           |$LN5@CCDCInitCF|
  00094		 |$LN2@CCDCInitCF|

; 393  :             }
; 394  :             else {
; 395  :                 // Unsupported format
; 396  :                 DEBUGMSG(ZONE_ERROR, 
; 397  :                     (TEXT("CIspCtrl::CCDCInitCFG: ERROR - Unsupported FOURCC\r\n")));

  00094	e5943440	 ldr         r3, [r4, #0x440]
  00098	e3130001	 tst         r3, #1
  0009c	159f0010	 ldrne       r0, [pc, #0x10]
  000a0	1b000000	 blne        NKDbgPrintfW

; 398  :                 return FALSE;

  000a4	e3a00000	 mov         r0, #0
  000a8		 |$LN5@CCDCInitCF|

; 410  : }

  000a8	e28dd004	 add         sp, sp, #4
  000ac	e8bd4070	 ldmia       sp!, {r4 - r6, lr}
  000b0	e12fff1e	 bx          lr
  000b4		 |$LN15@CCDCInitCF|
  000b4		 |$LN16@CCDCInitCF|
  000b4	00000000	 DCD         |??_C@_1GI@NEHEHOEG@?$AAC?$AAI?$AAs?$AAp?$AAC?$AAt?$AAr?$AAl?$AA?3?$AA?3?$AAC?$AAC?$AAD?$AAC?$AAI?$AAn?$AAi?$AAt?$AAC?$AAF?$AAG?$AA?3?$AA?5?$AAE?$AAR?$AAR?$AAO?$AAR?$AA?5?$AA?9?$AA?5?$AAU@|
  000b8		 |$LN17@CCDCInitCF|
  000b8	32595559	 DCD         0x32595559
  000bc		 |$LN18@CCDCInitCF|
  000bc	59565955	 DCD         0x59565955
  000c0		 |$LN19@CCDCInitCF|
  000c0	00000000	 DCD         |??_C@_1BO@IHENKABD@?$AA?$CL?$AAC?$AAC?$AAD?$AAC?$AAI?$AAn?$AAi?$AAt?$AAC?$AAF?$AAG?$AA?$AN?$AA?6?$AA?$AA@|
  000c4		 |$LN20@CCDCInitCF|
  000c4	00000000	 DCD         |dpCurSettings|
  000c8		 |$M40813|

			 ENDP  ; |?CCDCInitCFG@CIspCtrl@@AAAHPAUtagCS_DATARANGE_VIDEO@@@Z|, CIspCtrl::CCDCInitCFG

	EXPORT	|?ConfigOutlineOffset@CIspCtrl@@AAAHIEE@Z| ; CIspCtrl::ConfigOutlineOffset
	EXPORT	|??_C@_1CO@FNHHDHGB@?$AA?$CL?$AAC?$AAo?$AAn?$AAf?$AAi?$AAg?$AAO?$AAu?$AAt?$AAl?$AAi?$AAn?$AAe?$AAO?$AAf?$AAf?$AAs?$AAe?$AAt?$AA?$AN?$AA?6?$AA?$AA@| [ DATA ] ; `string'

  00000			 AREA	 |.pdata|, PDATA
|$T40850| DCD	|$LN15@ConfigOutl|
	DCD	0x40005702

  00000			 AREA	 |.rdata|, DATA, READONLY
|??_C@_1CO@FNHHDHGB@?$AA?$CL?$AAC?$AAo?$AAn?$AAf?$AAi?$AAg?$AAO?$AAu?$AAt?$AAl?$AAi?$AAn?$AAe?$AAO?$AAf?$AAf?$AAs?$AAe?$AAt?$AA?$AN?$AA?6?$AA?$AA@| DCB "+"
	DCB	0x0, "C", 0x0, "o", 0x0, "n", 0x0, "f", 0x0, "i", 0x0, "g"
	DCB	0x0, "O", 0x0, "u", 0x0, "t", 0x0, "l", 0x0, "i", 0x0, "n"
	DCB	0x0, "e", 0x0, "O", 0x0, "f", 0x0, "f", 0x0, "s", 0x0, "e"
	DCB	0x0, "t", 0x0, 0xd, 0x0, 0xa, 0x0, 0x0, 0x0 ; `string'
; Function compile flags: /Ogspy

  00000			 AREA	 |.text|, CODE, ARM

  00000		 |?ConfigOutlineOffset@CIspCtrl@@AAAHIEE@Z| PROC ; CIspCtrl::ConfigOutlineOffset

; 423  : {       

  00000		 |$LN15@ConfigOutl|
  00000	e92d41f0	 stmdb       sp!, {r4 - r8, lr}
  00004	e24dd004	 sub         sp, sp, #4
  00008		 |$M40847|
  00008	e1a07003	 mov         r7, r3
  0000c	e1a06002	 mov         r6, r2
  00010	e1a08001	 mov         r8, r1
  00014	e1a05000	 mov         r5, r0

; 424  :      DEBUGMSG(ZONE_FUNCTION, (TEXT("+ConfigOutlineOffset\r\n")));

  00018	e59fe138	 ldr         lr, [pc, #0x138]
  0001c	e59ee440	 ldr         lr, [lr, #0x440]
  00020	e31e0008	 tst         lr, #8
  00024	159f0128	 ldrne       r0, [pc, #0x128]
  00028	1b000000	 blne        NKDbgPrintfW

; 425  :      UINT32 setting = 0;    
; 426  :      
; 427  :     // Make sure offset is multiple of 32bytes. ie last 5bits should be zero 
; 428  :     setting = offset & ISP_32B_BOUNDARY_OFFSET;
; 429  :     ISP_OutReg32(&m_pCCDCRegs->CCDC_HSIZE_OFF, setting);

  0002c	e5954008	 ldr         r4, [r5, #8]
  00030	e3a03cff	 mov         r3, #0xFF, 24
  00034	e383e0e0	 orr         lr, r3, #0xE0
  00038	e008100e	 and         r1, r8, lr
  0003c	e2840024	 add         r0, r4, #0x24
  00040	e58d1000	 str         r1, [sp]
  00044	eb000000	 bl          |?ISP_OutReg32@@YAHPCII@Z|

; 430  : 
; 431  :     // By default Donot inverse the field identification 
; 432  :     ISP_InReg32(&m_pCCDCRegs->CCDC_SDOFST, &setting);

  00048	e595e008	 ldr         lr, [r5, #8]
  0004c	e28d1000	 add         r1, sp, #0
  00050	e28e0028	 add         r0, lr, #0x28
  00054	eb000000	 bl          |?ISP_InReg32@@YAHPCIPAI@Z|

; 433  :     setting &= (~ISPCCDC_SDOFST_FINV);
; 434  :     ISP_OutReg32(&m_pCCDCRegs->CCDC_SDOFST, setting);

  00058	e59d3000	 ldr         r3, [sp]
  0005c	e5952008	 ldr         r2, [r5, #8]
  00060	e3c31901	 bic         r1, r3, #1, 18
  00064	e2820028	 add         r0, r2, #0x28
  00068	e58d1000	 str         r1, [sp]
  0006c	eb000000	 bl          |?ISP_OutReg32@@YAHPCII@Z|

; 435  : 
; 436  :     // By default one line offset
; 437  :     ISP_InReg32(&m_pCCDCRegs->CCDC_SDOFST, &setting);

  00070	e5953008	 ldr         r3, [r5, #8]
  00074	e28d1000	 add         r1, sp, #0
  00078	e2830028	 add         r0, r3, #0x28
  0007c	eb000000	 bl          |?ISP_InReg32@@YAHPCIPAI@Z|

; 438  :     setting &= ISPCCDC_SDOFST_FOFST_1L;
; 439  :     ISP_OutReg32(&m_pCCDCRegs->CCDC_SDOFST, setting);

  00080	e59d3000	 ldr         r3, [sp]
  00084	e5952008	 ldr         r2, [r5, #8]
  00088	e3c31a03	 bic         r1, r3, #3, 20
  0008c	e2820028	 add         r0, r2, #0x28
  00090	e58d1000	 str         r1, [sp]
  00094	eb000000	 bl          |?ISP_OutReg32@@YAHPCII@Z|

; 440  : 
; 441  :     switch (oddeven) {

  00098	e3560001	 cmp         r6, #1
  0009c	0a00001d	 beq         |$LN5@ConfigOutl|
  000a0	e3560002	 cmp         r6, #2
  000a4	0a000013	 beq         |$LN4@ConfigOutl|
  000a8	e3560003	 cmp         r6, #3
  000ac	0a000009	 beq         |$LN3@ConfigOutl|
  000b0	e3560004	 cmp         r6, #4
  000b4	1a000022	 bne         |$LN6@ConfigOutl|

; 457  :     case ODDODD:        /*odd lines odd fields*/
; 458  :         ISP_InReg32(&m_pCCDCRegs->CCDC_SDOFST, &setting);

  000b8	e5953008	 ldr         r3, [r5, #8]
  000bc	e28d1000	 add         r1, sp, #0
  000c0	e2830028	 add         r0, r3, #0x28
  000c4	eb000000	 bl          |?ISP_InReg32@@YAHPCIPAI@Z|

; 459  :         setting |= ((numlines & 0x7) << ISPCCDC_SDOFST_LOFST3_SHIFT);
; 460  :         ISP_OutReg32(&m_pCCDCRegs->CCDC_SDOFST, setting);

  000c8	e59d3000	 ldr         r3, [sp]
  000cc	e2072007	 and         r2, r7, #7
  000d0	e1821003	 orr         r1, r2, r3

; 461  :         break;

  000d4	ea000016	 b           |$LN12@ConfigOutl|
  000d8		 |$LN3@ConfigOutl|

; 452  :     case EVENODD:       /*even lines odd fields*/
; 453  :         ISP_InReg32(&m_pCCDCRegs->CCDC_SDOFST, &setting);

  000d8	e5953008	 ldr         r3, [r5, #8]
  000dc	e28d1000	 add         r1, sp, #0
  000e0	e2830028	 add         r0, r3, #0x28
  000e4	eb000000	 bl          |?ISP_InReg32@@YAHPCIPAI@Z|

; 454  :         setting |= ((numlines & 0x7) << ISPCCDC_SDOFST_LOFST2_SHIFT);
; 455  :         ISP_OutReg32(&m_pCCDCRegs->CCDC_SDOFST, setting);

  000e8	e59d3000	 ldr         r3, [sp]
  000ec	e2072007	 and         r2, r7, #7
  000f0	e1831182	 orr         r1, r3, r2, lsl #3

; 456  :         break;

  000f4	ea00000e	 b           |$LN12@ConfigOutl|
  000f8		 |$LN4@ConfigOutl|

; 446  :         break;
; 447  :     case ODDEVEN:       /*odd lines even fields*/
; 448  :         ISP_InReg32(&m_pCCDCRegs->CCDC_SDOFST, &setting);

  000f8	e5953008	 ldr         r3, [r5, #8]
  000fc	e28d1000	 add         r1, sp, #0
  00100	e2830028	 add         r0, r3, #0x28
  00104	eb000000	 bl          |?ISP_InReg32@@YAHPCIPAI@Z|

; 449  :         setting |= ((numlines & 0x7) << ISPCCDC_SDOFST_LOFST1_SHIFT);
; 450  :         ISP_OutReg32(&m_pCCDCRegs->CCDC_SDOFST, setting);

  00108	e59d3000	 ldr         r3, [sp]
  0010c	e2072007	 and         r2, r7, #7
  00110	e1831302	 orr         r1, r3, r2, lsl #6

; 451  :         break;

  00114	ea000006	 b           |$LN12@ConfigOutl|
  00118		 |$LN5@ConfigOutl|

; 442  :     case EVENEVEN:      /*even lines even fields*/
; 443  :         ISP_InReg32(&m_pCCDCRegs->CCDC_SDOFST, &setting);

  00118	e5953008	 ldr         r3, [r5, #8]
  0011c	e28d1000	 add         r1, sp, #0
  00120	e2830028	 add         r0, r3, #0x28
  00124	eb000000	 bl          |?ISP_InReg32@@YAHPCIPAI@Z|

; 444  :         setting |= ((numlines & 0x7) << ISPCCDC_SDOFST_LOFST0_SHIFT);
; 445  :         ISP_OutReg32(&m_pCCDCRegs->CCDC_SDOFST, setting);

  00128	e59d3000	 ldr         r3, [sp]
  0012c	e2072007	 and         r2, r7, #7
  00130	e1831482	 orr         r1, r3, r2, lsl #9
  00134		 |$LN12@ConfigOutl|
  00134	e5950008	 ldr         r0, [r5, #8]
  00138	e58d1000	 str         r1, [sp]
  0013c	e2800028	 add         r0, r0, #0x28
  00140	eb000000	 bl          |?ISP_OutReg32@@YAHPCII@Z|
  00144		 |$LN6@ConfigOutl|

; 462  :     default:
; 463  :         break;
; 464  :     }
; 465  :     return TRUE;

  00144	e3a00001	 mov         r0, #1

; 466  : }       

  00148	e28dd004	 add         sp, sp, #4
  0014c	e8bd41f0	 ldmia       sp!, {r4 - r8, lr}
  00150	e12fff1e	 bx          lr
  00154		 |$LN16@ConfigOutl|
  00154		 |$LN17@ConfigOutl|
  00154	00000000	 DCD         |??_C@_1CO@FNHHDHGB@?$AA?$CL?$AAC?$AAo?$AAn?$AAf?$AAi?$AAg?$AAO?$AAu?$AAt?$AAl?$AAi?$AAn?$AAe?$AAO?$AAf?$AAf?$AAs?$AAe?$AAt?$AA?$AN?$AA?6?$AA?$AA@|
  00158		 |$LN18@ConfigOutl|
  00158	00000000	 DCD         |dpCurSettings|
  0015c		 |$M40848|

			 ENDP  ; |?ConfigOutlineOffset@CIspCtrl@@AAAHIEE@Z|, CIspCtrl::ConfigOutlineOffset

	EXPORT	|?CCDCSetOutputAddress@CIspCtrl@@AAAHK@Z| ; CIspCtrl::CCDCSetOutputAddress

  00000			 AREA	 |.pdata|, PDATA
|$T40864| DCD	|$LN5@CCDCSetOut|
	DCD	0x40000801
; Function compile flags: /Ogspy

  00000			 AREA	 |.text|, CODE, ARM

  00000		 |?CCDCSetOutputAddress@CIspCtrl@@AAAHK@Z| PROC ; CIspCtrl::CCDCSetOutputAddress

; 474  : {       

  00000		 |$LN5@CCDCSetOut|
  00000	e52de004	 str         lr, [sp, #-4]!
  00004		 |$M40861|

; 475  :         //DEBUGMSG(ISP_MSG_FLAG, (TEXT("+TVPReadReg(SlaveAddress0x81: 0x%x)\r\n"), reg_value));
; 476  :                 
; 477  :         ULONG addr = (SDA_Address) ;
; 478  :         addr = addr & ISP_32B_BOUNDARY_BUF;
; 479  :         ISP_OutReg32(&m_pCCDCRegs->CCDC_SDR_ADDR, addr);

  00004	e5903008	 ldr         r3, [r0, #8]
  00008	e3c1101f	 bic         r1, r1, #0x1F
  0000c	e283002c	 add         r0, r3, #0x2C
  00010	eb000000	 bl          |?ISP_OutReg32@@YAHPCII@Z|

; 480  :         return TRUE;            

  00014	e3a00001	 mov         r0, #1

; 481  : }   

  00018	e49de004	 ldr         lr, [sp], #4
  0001c	e12fff1e	 bx          lr
  00020		 |$M40862|

			 ENDP  ; |?CCDCSetOutputAddress@CIspCtrl@@AAAHK@Z|, CIspCtrl::CCDCSetOutputAddress

	EXPORT	|?CCDCEnable@CIspCtrl@@AAAHH@Z|		; CIspCtrl::CCDCEnable
	EXPORT	|??_C@_1BM@BAEMAPNM@?$AA?$CL?$AAC?$AAC?$AAD?$AAC?$AAE?$AAn?$AAa?$AAb?$AAl?$AAe?$AA?$AN?$AA?6?$AA?$AA@| [ DATA ] ; `string'

  00000			 AREA	 |.pdata|, PDATA
|$T40881| DCD	|$LN10@CCDCEnable|
	DCD	0x40001c02

  00000			 AREA	 |.rdata|, DATA, READONLY
|??_C@_1BM@BAEMAPNM@?$AA?$CL?$AAC?$AAC?$AAD?$AAC?$AAE?$AAn?$AAa?$AAb?$AAl?$AAe?$AA?$AN?$AA?6?$AA?$AA@| DCB "+"
	DCB	0x0, "C", 0x0, "C", 0x0, "D", 0x0, "C", 0x0, "E", 0x0, "n"
	DCB	0x0, "a", 0x0, "b", 0x0, "l", 0x0, "e", 0x0, 0xd, 0x0, 0xa
	DCB	0x0, 0x0, 0x0				; `string'
; Function compile flags: /Ogspy

  00000			 AREA	 |.text|, CODE, ARM

  00000		 |?CCDCEnable@CIspCtrl@@AAAHH@Z| PROC	; CIspCtrl::CCDCEnable

; 489  : {       

  00000		 |$LN10@CCDCEnable|
  00000	e92d4030	 stmdb       sp!, {r4, r5, lr}
  00004	e24dd004	 sub         sp, sp, #4
  00008		 |$M40878|
  00008	e1a05001	 mov         r5, r1
  0000c	e1a04000	 mov         r4, r0

; 490  :         DEBUGMSG(ZONE_FUNCTION, (TEXT("+CCDCEnable\r\n"))); 

  00010	e59f3054	 ldr         r3, [pc, #0x54]
  00014	e5933440	 ldr         r3, [r3, #0x440]
  00018	e3130008	 tst         r3, #8
  0001c	159f0044	 ldrne       r0, [pc, #0x44]
  00020	1b000000	 blne        NKDbgPrintfW

; 491  :         BOOL rc = FALSE;
; 492  :         UINT32 setting = 0 ;
; 493  :         
; 494  :         ISP_InReg32(&m_pCCDCRegs->CCDC_PCR, &setting);  

  00024	e5943008	 ldr         r3, [r4, #8]
  00028	e3a02000	 mov         r2, #0
  0002c	e28d1000	 add         r1, sp, #0
  00030	e2830004	 add         r0, r3, #4
  00034	e58d2000	 str         r2, [sp]
  00038	eb000000	 bl          |?ISP_InReg32@@YAHPCIPAI@Z|

; 495  :         if (bEnable == 1)
; 496  :             setting |= (ISPCCDC_PCR_EN);

  0003c	e59d3000	 ldr         r3, [sp]
  00040	e3550001	 cmp         r5, #1
  00044	03831001	 orreq       r1, r3, #1

; 497  :         else
; 498  :             setting &= ~(ISPCCDC_PCR_EN);

  00048	13c31001	 bicne       r1, r3, #1

; 499  :             
; 500  :         rc = ISP_OutReg32(&m_pCCDCRegs->CCDC_PCR, setting);

  0004c	e5943008	 ldr         r3, [r4, #8]
  00050	e58d1000	 str         r1, [sp]
  00054	e2830004	 add         r0, r3, #4
  00058	eb000000	 bl          |?ISP_OutReg32@@YAHPCII@Z|

; 501  :         return rc;          
; 502  : }   

  0005c	e28dd004	 add         sp, sp, #4
  00060	e8bd4030	 ldmia       sp!, {r4, r5, lr}
  00064	e12fff1e	 bx          lr
  00068		 |$LN11@CCDCEnable|
  00068		 |$LN12@CCDCEnable|
  00068	00000000	 DCD         |??_C@_1BM@BAEMAPNM@?$AA?$CL?$AAC?$AAC?$AAD?$AAC?$AAE?$AAn?$AAa?$AAb?$AAl?$AAe?$AA?$AN?$AA?6?$AA?$AA@|
  0006c		 |$LN13@CCDCEnable|
  0006c	00000000	 DCD         |dpCurSettings|
  00070		 |$M40879|

			 ENDP  ; |?CCDCEnable@CIspCtrl@@AAAHH@Z|, CIspCtrl::CCDCEnable

	EXPORT	|?AllocBuffer@CIspCtrl@@AAAHXZ|		; CIspCtrl::AllocBuffer
	EXPORT	|??_C@_1DC@HEIGKIMG@?$AAm?$AA_?$AAp?$AAY?$AAU?$AAV?$AAV?$AAi?$AAr?$AAt?$AAu?$AAa?$AAl?$AAA?$AAd?$AAd?$AAr?$AA?$DN?$AA0?$AAx?$AA?$CF?$AAx?$AA?$AN?$AA?6?$AA?$AA@| [ DATA ] ; `string'
	EXPORT	|??_C@_1DE@KBFDFBCA@?$AAm?$AA_?$AAp?$AAY?$AAU?$AAV?$AAP?$AAh?$AAy?$AAs?$AAi?$AAc?$AAa?$AAl?$AAA?$AAd?$AAd?$AAr?$AA?$DN?$AA0?$AAx?$AA?$CF?$AAx?$AA?$AN?$AA?6?$AA?$AA@| [ DATA ] ; `string'
	EXPORT	|??_C@_1CK@EBPAMEED@?$AAm?$AA_?$AAp?$AAY?$AAU?$AAV?$AAD?$AAM?$AAA?$AAA?$AAd?$AAd?$AAr?$AA?$DN?$AA0?$AAx?$AA?$CF?$AAx?$AA?$AN?$AA?6?$AA?$AA@| [ DATA ] ; `string'
	EXPORT	|??_C@_1EE@CFPHGNKL@?$AAG?$AAe?$AAt?$AAP?$AAh?$AAy?$AAs?$AAF?$AAr?$AAo?$AAm?$AAV?$AAi?$AAr?$AAt?$AA?5?$AA0?$AAx?$AA?$CF?$AA0?$AA8?$AAX?$AA?5?$AAf?$AAa?$AAi?$AAl?$AAe?$AAd?$AA?3?$AA?5?$AA?$AN@| [ DATA ] ; `string'
	EXPORT	|??_C@_1FA@IKCPJDIE@?$AAS?$AAe?$AAn?$AAs?$AAo?$AAr?$AA?5?$AAb?$AAu?$AAf?$AAf?$AAe?$AAr?$AA?5?$AAm?$AAe?$AAm?$AAo?$AAr?$AAy?$AA?5?$AAa?$AAl?$AAl?$AAo?$AAc?$AA?5?$AAf?$AAa?$AAi?$AAl?$AAe@| [ DATA ] ; `string'
	EXPORT	|??_C@_1EK@IKBAJAHP@?$AAH?$AAa?$AAl?$AAA?$AAl?$AAl?$AAo?$AAc?$AAa?$AAt?$AAe?$AAC?$AAo?$AAm?$AAm?$AAo?$AAn?$AAB?$AAu?$AAf?$AAf?$AAe?$AAr?$AA?5?$AAf?$AAa?$AAi?$AAl?$AAe?$AAd?$AA?5?$AA?$CB@| [ DATA ] ; `string'
	EXPORT	|??_C@_1BO@OEOFDELP@?$AA?$CL?$AAA?$AAl?$AAl?$AAo?$AAc?$AAB?$AAu?$AAf?$AAf?$AAe?$AAr?$AA?$AN?$AA?6?$AA?$AA@| [ DATA ] ; `string'
	IMPORT	|VirtualCopy|
	IMPORT	|VirtualAlloc|
	IMPORT	|HalAllocateCommonBuffer|

  00000			 AREA	 |.pdata|, PDATA
|$T40910| DCD	|$LN25@AllocBuffe|
	DCD	0x40006802

  00000			 AREA	 |.rdata|, DATA, READONLY
|??_C@_1DC@HEIGKIMG@?$AAm?$AA_?$AAp?$AAY?$AAU?$AAV?$AAV?$AAi?$AAr?$AAt?$AAu?$AAa?$AAl?$AAA?$AAd?$AAd?$AAr?$AA?$DN?$AA0?$AAx?$AA?$CF?$AAx?$AA?$AN?$AA?6?$AA?$AA@| DCB "m"
	DCB	0x0, "_", 0x0, "p", 0x0, "Y", 0x0, "U", 0x0, "V", 0x0, "V"
	DCB	0x0, "i", 0x0, "r", 0x0, "t", 0x0, "u", 0x0, "a", 0x0, "l"
	DCB	0x0, "A", 0x0, "d", 0x0, "d", 0x0, "r", 0x0, "=", 0x0, "0"
	DCB	0x0, "x", 0x0, "%", 0x0, "x", 0x0, 0xd, 0x0, 0xa, 0x0, 0x0
	DCB	0x0					; `string'

  00000			 AREA	 |.rdata|, DATA, READONLY
|??_C@_1DE@KBFDFBCA@?$AAm?$AA_?$AAp?$AAY?$AAU?$AAV?$AAP?$AAh?$AAy?$AAs?$AAi?$AAc?$AAa?$AAl?$AAA?$AAd?$AAd?$AAr?$AA?$DN?$AA0?$AAx?$AA?$CF?$AAx?$AA?$AN?$AA?6?$AA?$AA@| DCB "m"
	DCB	0x0, "_", 0x0, "p", 0x0, "Y", 0x0, "U", 0x0, "V", 0x0, "P"
	DCB	0x0, "h", 0x0, "y", 0x0, "s", 0x0, "i", 0x0, "c", 0x0, "a"
	DCB	0x0, "l", 0x0, "A", 0x0, "d", 0x0, "d", 0x0, "r", 0x0, "="
	DCB	0x0, "0", 0x0, "x", 0x0, "%", 0x0, "x", 0x0, 0xd, 0x0, 0xa
	DCB	0x0, 0x0, 0x0				; `string'

  00000			 AREA	 |.rdata|, DATA, READONLY
|??_C@_1CK@EBPAMEED@?$AAm?$AA_?$AAp?$AAY?$AAU?$AAV?$AAD?$AAM?$AAA?$AAA?$AAd?$AAd?$AAr?$AA?$DN?$AA0?$AAx?$AA?$CF?$AAx?$AA?$AN?$AA?6?$AA?$AA@| DCB "m"
	DCB	0x0, "_", 0x0, "p", 0x0, "Y", 0x0, "U", 0x0, "V", 0x0, "D"
	DCB	0x0, "M", 0x0, "A", 0x0, "A", 0x0, "d", 0x0, "d", 0x0, "r"
	DCB	0x0, "=", 0x0, "0", 0x0, "x", 0x0, "%", 0x0, "x", 0x0, 0xd
	DCB	0x0, 0xa, 0x0, 0x0, 0x0			; `string'

  00000			 AREA	 |.rdata|, DATA, READONLY
|??_C@_1EE@CFPHGNKL@?$AAG?$AAe?$AAt?$AAP?$AAh?$AAy?$AAs?$AAF?$AAr?$AAo?$AAm?$AAV?$AAi?$AAr?$AAt?$AA?5?$AA0?$AAx?$AA?$CF?$AA0?$AA8?$AAX?$AA?5?$AAf?$AAa?$AAi?$AAl?$AAe?$AAd?$AA?3?$AA?5?$AA?$AN@| DCB "G"
	DCB	0x0, "e", 0x0, "t", 0x0, "P", 0x0, "h", 0x0, "y", 0x0, "s"
	DCB	0x0, "F", 0x0, "r", 0x0, "o", 0x0, "m", 0x0, "V", 0x0, "i"
	DCB	0x0, "r", 0x0, "t", 0x0, " ", 0x0, "0", 0x0, "x", 0x0, "%"
	DCB	0x0, "0", 0x0, "8", 0x0, "X", 0x0, " ", 0x0, "f", 0x0, "a"
	DCB	0x0, "i", 0x0, "l", 0x0, "e", 0x0, "d", 0x0, ":", 0x0, " "
	DCB	0x0, 0xd, 0x0, 0xa, 0x0, 0x0, 0x0	; `string'

  00000			 AREA	 |.rdata|, DATA, READONLY
|??_C@_1FA@IKCPJDIE@?$AAS?$AAe?$AAn?$AAs?$AAo?$AAr?$AA?5?$AAb?$AAu?$AAf?$AAf?$AAe?$AAr?$AA?5?$AAm?$AAe?$AAm?$AAo?$AAr?$AAy?$AA?5?$AAa?$AAl?$AAl?$AAo?$AAc?$AA?5?$AAf?$AAa?$AAi?$AAl?$AAe@| DCB "S"
	DCB	0x0, "e", 0x0, "n", 0x0, "s", 0x0, "o", 0x0, "r", 0x0, " "
	DCB	0x0, "b", 0x0, "u", 0x0, "f", 0x0, "f", 0x0, "e", 0x0, "r"
	DCB	0x0, " ", 0x0, "m", 0x0, "e", 0x0, "m", 0x0, "o", 0x0, "r"
	DCB	0x0, "y", 0x0, " ", 0x0, "a", 0x0, "l", 0x0, "l", 0x0, "o"
	DCB	0x0, "c", 0x0, " ", 0x0, "f", 0x0, "a", 0x0, "i", 0x0, "l"
	DCB	0x0, "e", 0x0, "d", 0x0, " ", 0x0, "!", 0x0, "!", 0x0, "!"
	DCB	0x0, 0xd, 0x0, 0xa, 0x0, 0x0, 0x0	; `string'

  00000			 AREA	 |.rdata|, DATA, READONLY
|??_C@_1EK@IKBAJAHP@?$AAH?$AAa?$AAl?$AAA?$AAl?$AAl?$AAo?$AAc?$AAa?$AAt?$AAe?$AAC?$AAo?$AAm?$AAm?$AAo?$AAn?$AAB?$AAu?$AAf?$AAf?$AAe?$AAr?$AA?5?$AAf?$AAa?$AAi?$AAl?$AAe?$AAd?$AA?5?$AA?$CB@| DCB "H"
	DCB	0x0, "a", 0x0, "l", 0x0, "A", 0x0, "l", 0x0, "l", 0x0, "o"
	DCB	0x0, "c", 0x0, "a", 0x0, "t", 0x0, "e", 0x0, "C", 0x0, "o"
	DCB	0x0, "m", 0x0, "m", 0x0, "o", 0x0, "n", 0x0, "B", 0x0, "u"
	DCB	0x0, "f", 0x0, "f", 0x0, "e", 0x0, "r", 0x0, " ", 0x0, "f"
	DCB	0x0, "a", 0x0, "i", 0x0, "l", 0x0, "e", 0x0, "d", 0x0, " "
	DCB	0x0, "!", 0x0, "!", 0x0, "!", 0x0, 0xd, 0x0, 0xa, 0x0, 0x0
	DCB	0x0					; `string'

  00000			 AREA	 |.rdata|, DATA, READONLY
|??_C@_1BO@OEOFDELP@?$AA?$CL?$AAA?$AAl?$AAl?$AAo?$AAc?$AAB?$AAu?$AAf?$AAf?$AAe?$AAr?$AA?$AN?$AA?6?$AA?$AA@| DCB "+"
	DCB	0x0, "A", 0x0, "l", 0x0, "l", 0x0, "o", 0x0, "c", 0x0, "B"
	DCB	0x0, "u", 0x0, "f", 0x0, "f", 0x0, "e", 0x0, "r", 0x0, 0xd
	DCB	0x0, 0xa, 0x0, 0x0, 0x0			; `string'
; Function compile flags: /Ogspy

  00000			 AREA	 |.text|, CODE, ARM

  00000		 |?AllocBuffer@CIspCtrl@@AAAHXZ| PROC	; CIspCtrl::AllocBuffer

; 511  : {

  00000		 |$LN25@AllocBuffe|
  00000	e92d4070	 stmdb       sp!, {r4 - r6, lr}
  00004	e24dd014	 sub         sp, sp, #0x14
  00008		 |$M40907|
  00008	e1a04000	 mov         r4, r0

; 512  :     DEBUGMSG(ZONE_FUNCTION, (TEXT("+AllocBuffer\r\n")));

  0000c	e59f5188	 ldr         r5, [pc, #0x188]
  00010	e5953440	 ldr         r3, [r5, #0x440]
  00014	e3130008	 tst         r3, #8
  00018	159f0178	 ldrne       r0, [pc, #0x178]
  0001c	1b000000	 blne        NKDbgPrintfW

; 513  :     if(m_pYUVDMAAddr)

  00020	e5943014	 ldr         r3, [r4, #0x14]
  00024	e3530000	 cmp         r3, #0

; 514  :         return TRUE;

  00028	1a00004e	 bne         |$LN21@AllocBuffe|

; 515  :     DWORD dwSize = IMAGE_CAMBUFF_SIZE;
; 516  :     PHYSICAL_ADDRESS   pCamBufferPhys; 
; 517  :     DMA_ADAPTER_OBJECT camBuffer;
; 518  :         
; 519  :     camBuffer.ObjectSize = sizeof(camBuffer);

  0002c	e3a0300c	 mov         r3, #0xC

; 520  :     camBuffer.InterfaceType = Internal;

  00030	e3a02000	 mov         r2, #0

; 521  :     camBuffer.BusNumber = 0;        

  00034	e3a00000	 mov         r0, #0

; 522  :     
; 523  :     m_pYUVDMAAddr = (PBYTE)HalAllocateCommonBuffer(&camBuffer, dwSize, &pCamBufferPhys, TRUE );

  00038	e3a06aca	 mov         r6, #0xCA, 20
  0003c	e1cd30b8	 strh        r3, [sp, #8]
  00040	e58d200c	 str         r2, [sp, #0xC]
  00044	e58d0010	 str         r0, [sp, #0x10]
  00048	e3a03001	 mov         r3, #1
  0004c	e28d2000	 add         r2, sp, #0
  00050	e28d0008	 add         r0, sp, #8
  00054	e3861b02	 orr         r1, r6, #2, 22
  00058	eb000000	 bl          HalAllocateCommonBuffer
  0005c	e3500000	 cmp         r0, #0
  00060	e5840014	 str         r0, [r4, #0x14]

; 524  :     
; 525  :     if (m_pYUVDMAAddr == NULL)

  00064	1a00000b	 bne         |$LN3@AllocBuffe|

; 526  :     {   
; 527  :         ERRORMSG(ZONE_ERROR, (TEXT("HalAllocateCommonBuffer failed !!!\r\n")));

  00068	e5953440	 ldr         r3, [r5, #0x440]
  0006c	e3130001	 tst         r3, #1
  00070	0a000006	 beq         |$LN9@AllocBuffe|
  00074	e59f1110	 ldr         r1, [pc, #0x110]
  00078	e59f0108	 ldr         r0, [pc, #0x108]
  0007c	e3a03c02	 mov         r3, #2, 24
  00080	e383200f	 orr         r2, r3, #0xF
  00084	eb000000	 bl          NKDbgPrintfW
  00088	e59f0104	 ldr         r0, [pc, #0x104]
  0008c		 |$LN22@AllocBuffe|
  0008c	eb000000	 bl          NKDbgPrintfW
  00090		 |$LN9@AllocBuffe|

; 528  :         return FALSE;

  00090	e3a00000	 mov         r0, #0
  00094	ea000034	 b           |$LN5@AllocBuffe|
  00098		 |$LN3@AllocBuffe|

; 529  :     }
; 530  :         
; 531  :         m_pYUVVirtualAddr = (PBYTE)VirtualAlloc(NULL,dwSize, MEM_RESERVE,PAGE_NOACCESS);        

  00098	e3a03001	 mov         r3, #1
  0009c	e3a02a02	 mov         r2, #2, 20
  000a0	e3861b02	 orr         r1, r6, #2, 22
  000a4	e3a00000	 mov         r0, #0
  000a8	eb000000	 bl          VirtualAlloc
  000ac	e3500000	 cmp         r0, #0
  000b0	e584000c	 str         r0, [r4, #0xC]

; 532  : 
; 533  :         if (m_pYUVVirtualAddr == NULL)

  000b4	1a000009	 bne         |$LN2@AllocBuffe|

; 534  :         {   ERRORMSG(ZONE_ERROR, (TEXT("Sensor buffer memory alloc failed !!!\r\n")));

  000b8	e5953440	 ldr         r3, [r5, #0x440]
  000bc	e3130001	 tst         r3, #1
  000c0	0afffff2	 beq         |$LN9@AllocBuffe|
  000c4	e59f10c0	 ldr         r1, [pc, #0xC0]
  000c8	e59f00b8	 ldr         r0, [pc, #0xB8]
  000cc	e3a03c02	 mov         r3, #2, 24
  000d0	e3832016	 orr         r2, r3, #0x16
  000d4	eb000000	 bl          NKDbgPrintfW
  000d8	e59f00b0	 ldr         r0, [pc, #0xB0]

; 535  :             return FALSE;

  000dc	eaffffea	 b           |$LN22@AllocBuffe|
  000e0		 |$LN2@AllocBuffe|

; 536  :         }
; 537  :       
; 538  :       VirtualCopy(m_pYUVVirtualAddr, (VOID *) (pCamBufferPhys.LowPart >> 8), dwSize, PAGE_READWRITE | PAGE_PHYSICAL); // | PAGE_NOCACHE  );

  000e0	e59d2000	 ldr         r2, [sp]
  000e4	e3a03b01	 mov         r3, #1, 22
  000e8	e3833004	 orr         r3, r3, #4
  000ec	e1a01422	 mov         r1, r2, lsr #8
  000f0	e3862b02	 orr         r2, r6, #2, 22
  000f4	eb000000	 bl          VirtualCopy

; 539  :       
; 540  :       m_pYUVPhysicalAddr = GetPhysFromVirt((ULONG)m_pYUVVirtualAddr);

  000f8	e594100c	 ldr         r1, [r4, #0xC]
  000fc	e1a00004	 mov         r0, r4
  00100	eb000000	 bl          |?GetPhysFromVirt@CIspCtrl@@AAAPAXK@Z|
  00104	e3500000	 cmp         r0, #0
  00108	e5840010	 str         r0, [r4, #0x10]

; 541  :       if(!m_pYUVPhysicalAddr)

  0010c	1a00000c	 bne         |$LN1@AllocBuffe|

; 542  :       {
; 543  :         ERRORMSG(ZONE_ERROR,(_T("GetPhysFromVirt 0x%08X failed: \r\n"), m_pYUVVirtualAddr));

  00110	e5953440	 ldr         r3, [r5, #0x440]
  00114	e3130001	 tst         r3, #1
  00118	0affffdc	 beq         |$LN9@AllocBuffe|
  0011c	e59f1068	 ldr         r1, [pc, #0x68]
  00120	e59f0060	 ldr         r0, [pc, #0x60]
  00124	e3a03c02	 mov         r3, #2, 24
  00128	e383201f	 orr         r2, r3, #0x1F
  0012c	eb000000	 bl          NKDbgPrintfW
  00130	e594100c	 ldr         r1, [r4, #0xC]
  00134	e59f0048	 ldr         r0, [pc, #0x48]
  00138	eb000000	 bl          NKDbgPrintfW
  0013c	e3a00000	 mov         r0, #0
  00140	ea000009	 b           |$LN5@AllocBuffe|
  00144		 |$LN1@AllocBuffe|

; 544  :         return FALSE;
; 545  :       }
; 546  :         
; 547  :       DEBUGMSG(MASK_DMA, (TEXT("m_pYUVVirtualAddr=0x%x\r\n"),m_pYUVVirtualAddr));   

  00144	e594100c	 ldr         r1, [r4, #0xC]
  00148	e59f0030	 ldr         r0, [pc, #0x30]
  0014c	eb000000	 bl          NKDbgPrintfW

; 548  :       DEBUGMSG(MASK_DMA, (TEXT("m_pYUVPhysicalAddr=0x%x\r\n"),m_pYUVPhysicalAddr)); 

  00150	e5941010	 ldr         r1, [r4, #0x10]
  00154	e59f0020	 ldr         r0, [pc, #0x20]
  00158	eb000000	 bl          NKDbgPrintfW

; 549  :       DEBUGMSG(MASK_DMA, (TEXT("m_pYUVDMAAddr=0x%x\r\n"),m_pYUVDMAAddr));   

  0015c	e5941014	 ldr         r1, [r4, #0x14]
  00160	e59f0010	 ldr         r0, [pc, #0x10]
  00164	eb000000	 bl          NKDbgPrintfW
  00168		 |$LN21@AllocBuffe|

; 550  :       
; 551  :       return TRUE;      

  00168	e3a00001	 mov         r0, #1
  0016c		 |$LN5@AllocBuffe|

; 552  : }   

  0016c	e28dd014	 add         sp, sp, #0x14
  00170	e8bd4070	 ldmia       sp!, {r4 - r6, lr}
  00174	e12fff1e	 bx          lr
  00178		 |$LN26@AllocBuffe|
  00178		 |$LN27@AllocBuffe|
  00178	00000000	 DCD         |??_C@_1CK@EBPAMEED@?$AAm?$AA_?$AAp?$AAY?$AAU?$AAV?$AAD?$AAM?$AAA?$AAA?$AAd?$AAd?$AAr?$AA?$DN?$AA0?$AAx?$AA?$CF?$AAx?$AA?$AN?$AA?6?$AA?$AA@|
  0017c		 |$LN28@AllocBuffe|
  0017c	00000000	 DCD         |??_C@_1DE@KBFDFBCA@?$AAm?$AA_?$AAp?$AAY?$AAU?$AAV?$AAP?$AAh?$AAy?$AAs?$AAi?$AAc?$AAa?$AAl?$AAA?$AAd?$AAd?$AAr?$AA?$DN?$AA0?$AAx?$AA?$CF?$AAx?$AA?$AN?$AA?6?$AA?$AA@|
  00180		 |$LN29@AllocBuffe|
  00180	00000000	 DCD         |??_C@_1DC@HEIGKIMG@?$AAm?$AA_?$AAp?$AAY?$AAU?$AAV?$AAV?$AAi?$AAr?$AAt?$AAu?$AAa?$AAl?$AAA?$AAd?$AAd?$AAr?$AA?$DN?$AA0?$AAx?$AA?$CF?$AAx?$AA?$AN?$AA?6?$AA?$AA@|
  00184		 |$LN30@AllocBuffe|
  00184	00000000	 DCD         |??_C@_1EE@CFPHGNKL@?$AAG?$AAe?$AAt?$AAP?$AAh?$AAy?$AAs?$AAF?$AAr?$AAo?$AAm?$AAV?$AAi?$AAr?$AAt?$AA?5?$AA0?$AAx?$AA?$CF?$AA0?$AA8?$AAX?$AA?5?$AAf?$AAa?$AAi?$AAl?$AAe?$AAd?$AA?3?$AA?5?$AA?$AN@|
  00188		 |$LN31@AllocBuffe|
  00188	00000000	 DCD         |??_C@_1CI@OHCJFJPM@?$AAE?$AAR?$AAR?$AAO?$AAR?$AA?3?$AA?5?$AA?$CF?$AAs?$AA?5?$AAl?$AAi?$AAn?$AAe?$AA?5?$AA?$CF?$AAd?$AA?3?$AA?5?$AA?$AA@|
  0018c		 |$LN32@AllocBuffe|
  0018c	00000000	 DCD         |??_C@_1IO@IJFHFDNE@?$AAC?$AA?3?$AA?2?$AAW?$AAI?$AAN?$AAC?$AAE?$AA6?$AA0?$AA0?$AA?2?$AAP?$AAL?$AAA?$AAT?$AAF?$AAO?$AAR?$AAM?$AA?2?$AAE?$AAV?$AAM?$AA_?$AAO?$AAM?$AAA?$AAP?$AA3?$AA5?$AA3@|
  00190		 |$LN33@AllocBuffe|
  00190	00000000	 DCD         |??_C@_1FA@IKCPJDIE@?$AAS?$AAe?$AAn?$AAs?$AAo?$AAr?$AA?5?$AAb?$AAu?$AAf?$AAf?$AAe?$AAr?$AA?5?$AAm?$AAe?$AAm?$AAo?$AAr?$AAy?$AA?5?$AAa?$AAl?$AAl?$AAo?$AAc?$AA?5?$AAf?$AAa?$AAi?$AAl?$AAe@|
  00194		 |$LN34@AllocBuffe|
  00194	00000000	 DCD         |??_C@_1EK@IKBAJAHP@?$AAH?$AAa?$AAl?$AAA?$AAl?$AAl?$AAo?$AAc?$AAa?$AAt?$AAe?$AAC?$AAo?$AAm?$AAm?$AAo?$AAn?$AAB?$AAu?$AAf?$AAf?$AAe?$AAr?$AA?5?$AAf?$AAa?$AAi?$AAl?$AAe?$AAd?$AA?5?$AA?$CB@|
  00198		 |$LN35@AllocBuffe|
  00198	00000000	 DCD         |??_C@_1BO@OEOFDELP@?$AA?$CL?$AAA?$AAl?$AAl?$AAo?$AAc?$AAB?$AAu?$AAf?$AAf?$AAe?$AAr?$AA?$AN?$AA?6?$AA?$AA@|
  0019c		 |$LN36@AllocBuffe|
  0019c	00000000	 DCD         |dpCurSettings|
  001a0		 |$M40908|

			 ENDP  ; |?AllocBuffer@CIspCtrl@@AAAHXZ|, CIspCtrl::AllocBuffer

	EXPORT	|?DeAllocBuffer@CIspCtrl@@AAAHXZ|	; CIspCtrl::DeAllocBuffer
	EXPORT	|??_C@_1CC@NBADCKDL@?$AA?$CL?$AAD?$AAe?$AAA?$AAl?$AAl?$AAo?$AAc?$AAB?$AAu?$AAf?$AAf?$AAe?$AAr?$AA?$AN?$AA?6?$AA?$AA@| [ DATA ] ; `string'

  00000			 AREA	 |.pdata|, PDATA
|$T40932| DCD	|$LN7@DeAllocBuf|
	DCD	0x40000b01

  00000			 AREA	 |.rdata|, DATA, READONLY
|??_C@_1CC@NBADCKDL@?$AA?$CL?$AAD?$AAe?$AAA?$AAl?$AAl?$AAo?$AAc?$AAB?$AAu?$AAf?$AAf?$AAe?$AAr?$AA?$AN?$AA?6?$AA?$AA@| DCB "+"
	DCB	0x0, "D", 0x0, "e", 0x0, "A", 0x0, "l", 0x0, "l", 0x0, "o"
	DCB	0x0, "c", 0x0, "B", 0x0, "u", 0x0, "f", 0x0, "f", 0x0, "e"
	DCB	0x0, "r", 0x0, 0xd, 0x0, 0xa, 0x0, 0x0, 0x0 ; `string'
; Function compile flags: /Ogspy

  00000			 AREA	 |.text|, CODE, ARM

  00000		 |?DeAllocBuffer@CIspCtrl@@AAAHXZ| PROC	; CIspCtrl::DeAllocBuffer

; 560  : {

  00000		 |$LN7@DeAllocBuf|
  00000	e52de004	 str         lr, [sp, #-4]!
  00004		 |$M40929|

; 561  :     DEBUGMSG(ZONE_FUNCTION, (TEXT("+DeAllocBuffer\r\n")));

  00004	e59f301c	 ldr         r3, [pc, #0x1C]
  00008	e5933440	 ldr         r3, [r3, #0x440]
  0000c	e3130008	 tst         r3, #8
  00010	159f000c	 ldrne       r0, [pc, #0xC]
  00014	1b000000	 blne        NKDbgPrintfW

; 562  :     //Do not free memory to prevent the memory fragment.
; 563  : #if 0   
; 564  :     if(!m_pYUVDMAAddr)
; 565  :         return TRUE;
; 566  :     if(!VirtualFree( m_pYUVDMAAddr, 0, MEM_RELEASE ))
; 567  :         DEBUGMSG(1,(_T("CIspCtrl::DeAllocBuffer failed \r\n")));
; 568  :         
; 569  :     m_pYUVVirtualAddr=NULL;
; 570  :     m_pYUVPhysicalAddr=NULL;
; 571  :     m_pYUVDMAAddr=NULL;
; 572  : #endif  
; 573  :     return TRUE;    

  00018	e3a00001	 mov         r0, #1

; 574  : }

  0001c	e49de004	 ldr         lr, [sp], #4
  00020	e12fff1e	 bx          lr
  00024		 |$LN8@DeAllocBuf|
  00024		 |$LN9@DeAllocBuf|
  00024	00000000	 DCD         |??_C@_1CC@NBADCKDL@?$AA?$CL?$AAD?$AAe?$AAA?$AAl?$AAl?$AAo?$AAc?$AAB?$AAu?$AAf?$AAf?$AAe?$AAr?$AA?$AN?$AA?6?$AA?$AA@|
  00028		 |$LN10@DeAllocBuf|
  00028	00000000	 DCD         |dpCurSettings|
  0002c		 |$M40930|

			 ENDP  ; |?DeAllocBuffer@CIspCtrl@@AAAHXZ|, CIspCtrl::DeAllocBuffer

	EXPORT	|?CCDCInit@CIspCtrl@@AAAHPAUtagCS_DATARANGE_VIDEO@@@Z| ; CIspCtrl::CCDCInit
	EXPORT	|??_C@_1BI@PEICMML@?$AA?$CL?$AAC?$AAC?$AAD?$AAC?$AAI?$AAn?$AAi?$AAt?$AA?$AN?$AA?6?$AA?$AA@| [ DATA ] ; `string'

  00000			 AREA	 |.pdata|, PDATA
|$T40961| DCD	|$LN18@CCDCInit|
	DCD	0x40002201

  00000			 AREA	 |.rdata|, DATA, READONLY
|??_C@_1BI@PEICMML@?$AA?$CL?$AAC?$AAC?$AAD?$AAC?$AAI?$AAn?$AAi?$AAt?$AA?$AN?$AA?6?$AA?$AA@| DCB "+"
	DCB	0x0, "C", 0x0, "C", 0x0, "D", 0x0, "C", 0x0, "I", 0x0, "n"
	DCB	0x0, "i", 0x0, "t", 0x0, 0xd, 0x0, 0xa, 0x0, 0x0, 0x0 ; `string'
; Function compile flags: /Ogspy

  00000			 AREA	 |.text|, CODE, ARM

  00000		 |?CCDCInit@CIspCtrl@@AAAHPAUtagCS_DATARANGE_VIDEO@@@Z| PROC ; CIspCtrl::CCDCInit

; 582  : {

  00000		 |$LN18@CCDCInit|
  00000	e92d4030	 stmdb       sp!, {r4, r5, lr}
  00004		 |$M40958|
  00004	e1a05001	 mov         r5, r1
  00008	e1a04000	 mov         r4, r0

; 583  :     DEBUGMSG(ZONE_FUNCTION, (TEXT("+CCDCInit\r\n")));

  0000c	e59f3070	 ldr         r3, [pc, #0x70]
  00010	e5933440	 ldr         r3, [r3, #0x440]
  00014	e3130008	 tst         r3, #8
  00018	159f0060	 ldrne       r0, [pc, #0x60]
  0001c	1b000000	 blne        NKDbgPrintfW

; 584  : 
; 585  :     if (!CCDCInitCFG(pCsDataRangeVideo))

  00020	e1a01005	 mov         r1, r5
  00024	e1a00004	 mov         r0, r4
  00028	eb000000	 bl          |?CCDCInitCFG@CIspCtrl@@AAAHPAUtagCS_DATARANGE_VIDEO@@@Z|
  0002c	e3500000	 cmp         r0, #0
  00030	1a000002	 bne         |$LN4@CCDCInit|
  00034		 |$LN15@CCDCInit|

; 586  :         return FALSE;

  00034	e3a00000	 mov         r0, #0

; 602  : }       

  00038	e8bd4030	 ldmia       sp!, {r4, r5, lr}
  0003c	e12fff1e	 bx          lr
  00040		 |$LN4@CCDCInit|

; 587  :         
; 588  :     if (!CCDCInitSYNC())

  00040	e1a00004	 mov         r0, r4
  00044	eb000000	 bl          |?CCDCInitSYNC@CIspCtrl@@AAAHXZ|
  00048	e3500000	 cmp         r0, #0

; 589  :         return FALSE;

  0004c	0afffff8	 beq         |$LN15@CCDCInit|

; 590  : 
; 591  :     // Allocate buffer for YUV
; 592  :     if(!AllocBuffer())

  00050	e1a00004	 mov         r0, r4
  00054	eb000000	 bl          |?AllocBuffer@CIspCtrl@@AAAHXZ|
  00058	e3500000	 cmp         r0, #0

; 593  :         return FALSE;

  0005c	0afffff4	 beq         |$LN15@CCDCInit|

; 594  :     
; 595  :     //Set CCDC_SDR address
; 596  :     if (!CCDCSetOutputAddress((ULONG) m_pYUVPhysicalAddr)) {

  00060	e5943010	 ldr         r3, [r4, #0x10]
  00064	e5942008	 ldr         r2, [r4, #8]
  00068	e3c3101f	 bic         r1, r3, #0x1F
  0006c	e282002c	 add         r0, r2, #0x2C
  00070	eb000000	 bl          |?ISP_OutReg32@@YAHPCII@Z|

; 597  :         DeAllocBuffer();
; 598  :         return FALSE;
; 599  :     }
; 600  :     
; 601  :     return TRUE;        

  00074	e3a00001	 mov         r0, #1

; 602  : }       

  00078	e8bd4030	 ldmia       sp!, {r4, r5, lr}
  0007c	e12fff1e	 bx          lr
  00080		 |$LN19@CCDCInit|
  00080		 |$LN20@CCDCInit|
  00080	00000000	 DCD         |??_C@_1BI@PEICMML@?$AA?$CL?$AAC?$AAC?$AAD?$AAC?$AAI?$AAn?$AAi?$AAt?$AA?$AN?$AA?6?$AA?$AA@|
  00084		 |$LN21@CCDCInit|
  00084	00000000	 DCD         |dpCurSettings|
  00088		 |$M40959|

			 ENDP  ; |?CCDCInit@CIspCtrl@@AAAHPAUtagCS_DATARANGE_VIDEO@@@Z|, CIspCtrl::CCDCInit

	EXPORT	|?ISPInit@CIspCtrl@@AAAHXZ|		; CIspCtrl::ISPInit
	EXPORT	|??_C@_1BG@NMIANHMN@?$AA?$CL?$AAI?$AAS?$AAP?$AAI?$AAn?$AAi?$AAt?$AA?$AN?$AA?6?$AA?$AA@| [ DATA ] ; `string'

  00000			 AREA	 |.pdata|, PDATA
|$T40978| DCD	|$LN7@ISPInit|
	DCD	0x40003402

  00000			 AREA	 |.rdata|, DATA, READONLY
|??_C@_1BG@NMIANHMN@?$AA?$CL?$AAI?$AAS?$AAP?$AAI?$AAn?$AAi?$AAt?$AA?$AN?$AA?6?$AA?$AA@| DCB "+"
	DCB	0x0, "I", 0x0, "S", 0x0, "P", 0x0, "I", 0x0, "n", 0x0, "i"
	DCB	0x0, "t", 0x0, 0xd, 0x0, 0xa, 0x0, 0x0, 0x0 ; `string'
; Function compile flags: /Ogspy

  00000			 AREA	 |.text|, CODE, ARM

  00000		 |?ISPInit@CIspCtrl@@AAAHXZ| PROC	; CIspCtrl::ISPInit

; 611  : {

  00000		 |$LN7@ISPInit|
  00000	e92d4010	 stmdb       sp!, {r4, lr}
  00004	e24dd004	 sub         sp, sp, #4
  00008		 |$M40975|
  00008	e1a04000	 mov         r4, r0

; 612  :     DEBUGMSG(ZONE_FUNCTION, (TEXT("+ISPInit\r\n")));

  0000c	e59f30b8	 ldr         r3, [pc, #0xB8]
  00010	e5933440	 ldr         r3, [r3, #0x440]
  00014	e3130008	 tst         r3, #8
  00018	159f00a8	 ldrne       r0, [pc, #0xA8]
  0001c	1b000000	 blne        NKDbgPrintfW

; 613  :             
; 614  :     UINT32 setting = 0;
; 615  : 
; 616  :     // Init ISP power capability
; 617  :     ISP_InReg32(&m_pIspConfigRegs->SYSCONFIG, &setting);

  00020	e5943004	 ldr         r3, [r4, #4]
  00024	e3a02000	 mov         r2, #0
  00028	e28d1000	 add         r1, sp, #0
  0002c	e2830004	 add         r0, r3, #4
  00030	e58d2000	 str         r2, [sp]
  00034	eb000000	 bl          |?ISP_InReg32@@YAHPCIPAI@Z|

; 618  :     setting &= ~ISP_SYSCONFIG_AUTOIDLE;// Disable auto idle for subsystem
; 619  :     setting |= (ISP_SYSCONFIG_MIdleMode_NoStandBy << ISP_SYSCONFIG_MIdleMode_SHIFT);// No standby   
; 620  :     ISP_OutReg32(&m_pIspConfigRegs->SYSCONFIG, setting);

  00038	e59d3000	 ldr         r3, [sp]
  0003c	e5942004	 ldr         r2, [r4, #4]
  00040	e3831a01	 orr         r1, r3, #1, 20
  00044	e2820004	 add         r0, r2, #4
  00048	e58d1000	 str         r1, [sp]
  0004c	eb000000	 bl          |?ISP_OutReg32@@YAHPCII@Z|

; 621  : 
; 622  :     // Disable all interrupts and clear interrupt status 
; 623  :     setting = 0;
; 624  :     ISP_OutReg32(&m_pIspConfigRegs->IRQ0ENABLE, setting);

  00050	e5943004	 ldr         r3, [r4, #4]
  00054	e3a02000	 mov         r2, #0
  00058	e3a01000	 mov         r1, #0
  0005c	e283000c	 add         r0, r3, #0xC
  00060	e58d2000	 str         r2, [sp]
  00064	eb000000	 bl          |?ISP_OutReg32@@YAHPCII@Z|

; 625  :     ISP_OutReg32(&m_pIspConfigRegs->IRQ1ENABLE, setting);

  00068	e5943004	 ldr         r3, [r4, #4]
  0006c	e59d1000	 ldr         r1, [sp]
  00070	e2830014	 add         r0, r3, #0x14
  00074	eb000000	 bl          |?ISP_OutReg32@@YAHPCII@Z|

; 626  : 
; 627  :     ISP_InReg32(&m_pIspConfigRegs->IRQ0STATUS, &setting);

  00078	e5943004	 ldr         r3, [r4, #4]
  0007c	e28d1000	 add         r1, sp, #0
  00080	e2830010	 add         r0, r3, #0x10
  00084	eb000000	 bl          |?ISP_InReg32@@YAHPCIPAI@Z|

; 628  :     ISP_OutReg32(&m_pIspConfigRegs->IRQ0STATUS, setting);

  00088	e5943004	 ldr         r3, [r4, #4]
  0008c	e59d1000	 ldr         r1, [sp]
  00090	e2830010	 add         r0, r3, #0x10
  00094	eb000000	 bl          |?ISP_OutReg32@@YAHPCII@Z|

; 629  :     ISP_InReg32(&m_pIspConfigRegs->IRQ1STATUS, &setting);

  00098	e5943004	 ldr         r3, [r4, #4]
  0009c	e28d1000	 add         r1, sp, #0
  000a0	e2830018	 add         r0, r3, #0x18
  000a4	eb000000	 bl          |?ISP_InReg32@@YAHPCIPAI@Z|

; 630  :     ISP_OutReg32(&m_pIspConfigRegs->IRQ1STATUS, setting);

  000a8	e5943004	 ldr         r3, [r4, #4]
  000ac	e59d1000	 ldr         r1, [sp]
  000b0	e2830018	 add         r0, r3, #0x18
  000b4	eb000000	 bl          |?ISP_OutReg32@@YAHPCII@Z|

; 631  :         
; 632  : 
; 633  :     return TRUE;        

  000b8	e3a00001	 mov         r0, #1

; 634  : }

  000bc	e28dd004	 add         sp, sp, #4
  000c0	e8bd4010	 ldmia       sp!, {r4, lr}
  000c4	e12fff1e	 bx          lr
  000c8		 |$LN8@ISPInit|
  000c8		 |$LN9@ISPInit|
  000c8	00000000	 DCD         |??_C@_1BG@NMIANHMN@?$AA?$CL?$AAI?$AAS?$AAP?$AAI?$AAn?$AAi?$AAt?$AA?$AN?$AA?6?$AA?$AA@|
  000cc		 |$LN10@ISPInit|
  000cc	00000000	 DCD         |dpCurSettings|
  000d0		 |$M40976|

			 ENDP  ; |?ISPInit@CIspCtrl@@AAAHXZ|, CIspCtrl::ISPInit

	EXPORT	|?ISPEnable@CIspCtrl@@AAAHH@Z|		; CIspCtrl::ISPEnable
	EXPORT	|??_C@_1HK@FNPBJMNP@?$AA?$CL?$AAI?$AAS?$AAP?$AAE?$AAn?$AAa?$AAb?$AAl?$AAe?$AA?3?$AA?5?$AAs?$AAo?$AAf?$AAt?$AA?5?$AAr?$AAe?$AAs?$AAe?$AAt?$AA?5?$AAc?$AAo?$AAm?$AAp?$AAl?$AAe?$AAt?$AAe?$AAd@| [ DATA ] ; `string'
	EXPORT	|??_C@_1FK@KMKNPHEN@?$AA?$CL?$AAI?$AAS?$AAP?$AAI?$AAn?$AAi?$AAt?$AA?3?$AA?5?$AAr?$AAe?$AAs?$AAe?$AAt?$AA?5?$AAn?$AAo?$AAt?$AA?5?$AAc?$AAo?$AAm?$AAp?$AAl?$AAe?$AAt?$AAe?$AAd?$AA?0?$AAu?$AAl@| [ DATA ] ; `string'
	EXPORT	|??_C@_1BK@JAEPBCBJ@?$AA?$CL?$AAI?$AAS?$AAP?$AAE?$AAn?$AAa?$AAb?$AAl?$AAe?$AA?$AN?$AA?6?$AA?$AA@| [ DATA ] ; `string'

  00000			 AREA	 |.pdata|, PDATA
|$T41011| DCD	|$LN23@ISPEnable|
	DCD	0x40004e02

  00000			 AREA	 |.rdata|, DATA, READONLY
|??_C@_1HK@FNPBJMNP@?$AA?$CL?$AAI?$AAS?$AAP?$AAE?$AAn?$AAa?$AAb?$AAl?$AAe?$AA?3?$AA?5?$AAs?$AAo?$AAf?$AAt?$AA?5?$AAr?$AAe?$AAs?$AAe?$AAt?$AA?5?$AAc?$AAo?$AAm?$AAp?$AAl?$AAe?$AAt?$AAe?$AAd@| DCB "+"
	DCB	0x0, "I", 0x0, "S", 0x0, "P", 0x0, "E", 0x0, "n", 0x0, "a"
	DCB	0x0, "b", 0x0, "l", 0x0, "e", 0x0, ":", 0x0, " ", 0x0, "s"
	DCB	0x0, "o", 0x0, "f", 0x0, "t", 0x0, " ", 0x0, "r", 0x0, "e"
	DCB	0x0, "s", 0x0, "e", 0x0, "t", 0x0, " ", 0x0, "c", 0x0, "o"
	DCB	0x0, "m", 0x0, "p", 0x0, "l", 0x0, "e", 0x0, "t", 0x0, "e"
	DCB	0x0, "d", 0x0, ":", 0x0, " ", 0x0, "s", 0x0, "e", 0x0, "t"
	DCB	0x0, "t", 0x0, "i", 0x0, "n", 0x0, "g", 0x0, "=", 0x0, "%"
	DCB	0x0, "d", 0x0, ",", 0x0, " ", 0x0, "u", 0x0, "l", 0x0, "T"
	DCB	0x0, "i", 0x0, "m", 0x0, "e", 0x0, "o", 0x0, "u", 0x0, "t"
	DCB	0x0, "=", 0x0, "%", 0x0, "d", 0x0, 0xd, 0x0, 0xa, 0x0, 0x0
	DCB	0x0					; `string'

  00000			 AREA	 |.rdata|, DATA, READONLY
|??_C@_1FK@KMKNPHEN@?$AA?$CL?$AAI?$AAS?$AAP?$AAI?$AAn?$AAi?$AAt?$AA?3?$AA?5?$AAr?$AAe?$AAs?$AAe?$AAt?$AA?5?$AAn?$AAo?$AAt?$AA?5?$AAc?$AAo?$AAm?$AAp?$AAl?$AAe?$AAt?$AAe?$AAd?$AA?0?$AAu?$AAl@| DCB "+"
	DCB	0x0, "I", 0x0, "S", 0x0, "P", 0x0, "I", 0x0, "n", 0x0, "i"
	DCB	0x0, "t", 0x0, ":", 0x0, " ", 0x0, "r", 0x0, "e", 0x0, "s"
	DCB	0x0, "e", 0x0, "t", 0x0, " ", 0x0, "n", 0x0, "o", 0x0, "t"
	DCB	0x0, " ", 0x0, "c", 0x0, "o", 0x0, "m", 0x0, "p", 0x0, "l"
	DCB	0x0, "e", 0x0, "t", 0x0, "e", 0x0, "d", 0x0, ",", 0x0, "u"
	DCB	0x0, "l", 0x0, "T", 0x0, "i", 0x0, "m", 0x0, "e", 0x0, "o"
	DCB	0x0, "u", 0x0, "t", 0x0, "=", 0x0, "%", 0x0, "d", 0x0, 0xd
	DCB	0x0, 0xa, 0x0, 0x0, 0x0			; `string'

  00000			 AREA	 |.rdata|, DATA, READONLY
|??_C@_1BK@JAEPBCBJ@?$AA?$CL?$AAI?$AAS?$AAP?$AAE?$AAn?$AAa?$AAb?$AAl?$AAe?$AA?$AN?$AA?6?$AA?$AA@| DCB "+"
	DCB	0x0, "I", 0x0, "S", 0x0, "P", 0x0, "E", 0x0, "n", 0x0, "a"
	DCB	0x0, "b", 0x0, "l", 0x0, "e", 0x0, 0xd, 0x0, 0xa, 0x0, 0x0
	DCB	0x0					; `string'
; Function compile flags: /Ogspy

  00000			 AREA	 |.text|, CODE, ARM

  00000		 |?ISPEnable@CIspCtrl@@AAAHH@Z| PROC	; CIspCtrl::ISPEnable

; 642  : {

  00000		 |$LN23@ISPEnable|
  00000	e92d40f0	 stmdb       sp!, {r4 - r7, lr}
  00004	e24dd004	 sub         sp, sp, #4
  00008		 |$M41008|
  00008	e1a07001	 mov         r7, r1
  0000c	e1a05000	 mov         r5, r0

; 643  :       
; 644  :       DEBUGMSG(ZONE_FUNCTION, (TEXT("+ISPEnable\r\n")));

  00010	e59f611c	 ldr         r6, [pc, #0x11C]
  00014	e5963440	 ldr         r3, [r6, #0x440]
  00018	e3130008	 tst         r3, #8
  0001c	159f010c	 ldrne       r0, [pc, #0x10C]
  00020	1b000000	 blne        NKDbgPrintfW

; 645  :         UINT32 setting = 0;

  00024	e3a03000	 mov         r3, #0
  00028	e58d3000	 str         r3, [sp]

; 646  :         ULONG ulTimeout = 50;       
; 647  : 
; 648  :         if (bEnable == TRUE)
; 649  :         {
; 650  :             ISP_InReg32(&m_pIspConfigRegs->SYSCONFIG, &setting);    

  0002c	e5953004	 ldr         r3, [r5, #4]
  00030	e3a04032	 mov         r4, #0x32
  00034	e3570001	 cmp         r7, #1
  00038	1a00002a	 bne         |$LN2@ISPEnable|
  0003c	e28d1000	 add         r1, sp, #0
  00040	e2830004	 add         r0, r3, #4
  00044	eb000000	 bl          |?ISP_InReg32@@YAHPCIPAI@Z|

; 651  :             setting |= (ISP_SYSCONFIG_SOFTRESET);   
; 652  :             ISP_OutReg32(&m_pIspConfigRegs->SYSCONFIG, setting);

  00048	e59d3000	 ldr         r3, [sp]
  0004c	e5952004	 ldr         r2, [r5, #4]
  00050	e3831002	 orr         r1, r3, #2
  00054	e2820004	 add         r0, r2, #4
  00058	e58d1000	 str         r1, [sp]
  0005c	eb000000	 bl          |?ISP_OutReg32@@YAHPCII@Z|

; 653  :              
; 654  :              
; 655  :             // Wait till the isp wakes out of reset 
; 656  :             ISP_InReg32(&m_pIspConfigRegs->SYSSTATUS, &setting);
; 657  :             setting &= 0x1;

  00060	ea000009	 b           |$LN19@ISPEnable|

; 658  : 
; 659  :             while ((setting != 0x1) && ulTimeout--)

  00064		 |$LL4@ISPEnable|
  00064	e3540000	 cmp         r4, #0
  00068	e2444001	 sub         r4, r4, #1
  0006c	0a00000f	 beq         |$LN17@ISPEnable|

; 660  :             {     
; 661  :                 DEBUGMSG(ZONE_VERBOSE, (TEXT("+ISPInit: reset not completed,ulTimeout=%d\r\n"),ulTimeout));

  00070	e5963440	 ldr         r3, [r6, #0x440]
  00074	e3130b02	 tst         r3, #2, 22
  00078	159f00ac	 ldrne       r0, [pc, #0xAC]
  0007c	11a01004	 movne       r1, r4
  00080	1b000000	 blne        NKDbgPrintfW

; 662  :                 Sleep(10);// Reset not completed

  00084	e3a0000a	 mov         r0, #0xA
  00088	eb000000	 bl          Sleep
  0008c		 |$LN19@ISPEnable|

; 663  :                 ISP_InReg32(&m_pIspConfigRegs->SYSSTATUS, &setting);

  0008c	e5953004	 ldr         r3, [r5, #4]
  00090	e28d1000	 add         r1, sp, #0
  00094	e2830008	 add         r0, r3, #8
  00098	eb000000	 bl          |?ISP_InReg32@@YAHPCIPAI@Z|

; 664  :                 setting &= (0x1);

  0009c	e59d3000	 ldr         r3, [sp]
  000a0	e2031001	 and         r1, r3, #1
  000a4	e3510001	 cmp         r1, #1
  000a8	e58d1000	 str         r1, [sp]
  000ac	1affffec	 bne         |$LL4@ISPEnable|
  000b0		 |$LN17@ISPEnable|

; 665  :             }  
; 666  :             DEBUGMSG(ZONE_VERBOSE, (TEXT("+ISPEnable: soft reset completed: setting=%d, ulTimeout=%d\r\n"),setting,ulTimeout));

  000b0	e5963440	 ldr         r3, [r6, #0x440]
  000b4	e3130b02	 tst         r3, #2, 22
  000b8	159f0068	 ldrne       r0, [pc, #0x68]
  000bc	11a02004	 movne       r2, r4
  000c0	1b000000	 blne        NKDbgPrintfW

; 667  :         }    
; 668  :         setting = 0;
; 669  :     if (bEnable == TRUE)
; 670  :     {
; 671  :         // Enable using module clock and disable SBL_AUTOIDLE, PAR BRIDGE
; 672  :         setting |= (ISPCTRL_CCDC_WEN_POL | ISPCTRL_CCDC_CLK_EN | ISPCTRL_CCDC_RAM_EN | (ISPCTRL_SYNC_DETECT_VSFALL << ISPCTRL_SYNC_DETECT_SHIFT) | (0 << ISPCTRL_SHIFT_SHIFT) | ISPCTRL_CCDC_FLUSH
; 673  :                     |ISPCTRL_SBL_WR0_RAM_EN |ISPCTRL_SBL_WR1_RAM_EN | ISPCTRL_SBL_RD_RAM_EN  | (0 << ISPCTRL_PAR_BRIDGE_SHIFT)                    
; 674  :                                );
; 675  : #ifdef ENABLE_PACK8                            
; 676  :             setting |=ISPCTRL_SHIFT_2;   
; 677  : #endif //ENABLE_PACK8           
; 678  :             ISP_OutReg32(&m_pIspConfigRegs->CTRL, setting);

  000c4	e5953004	 ldr         r3, [r5, #4]
  000c8	e59f2054	 ldr         r2, [pc, #0x54]
  000cc	e2830040	 add         r0, r3, #0x40
  000d0	e1a01002	 mov         r1, r2
  000d4	e58d2000	 str         r2, [sp]
  000d8	eb000000	 bl          |?ISP_OutReg32@@YAHPCII@Z|

; 679  :                 
; 680  :             // Enable IRQ0
; 681  :         setting = 0xFFFFFFFF;
; 682  :         ISP_OutReg32(&m_pIspConfigRegs->IRQ0ENABLE, setting);    

  000dc	e3e02000	 mvn         r2, #0
  000e0	e1a01002	 mov         r1, r2

; 683  :         }
; 684  :         else

  000e4	ea000006	 b           |$LN20@ISPEnable|
  000e8		 |$LN2@ISPEnable|

; 685  :         {   
; 686  :             // Disable using module clock
; 687  :         setting &= ~(ISPCTRL_CCDC_CLK_EN | ISPCTRL_CCDC_RAM_EN |ISPCTRL_SBL_WR0_RAM_EN |ISPCTRL_SBL_WR1_RAM_EN | ISPCTRL_SBL_RD_RAM_EN | ISPCTRL_RSZ_CLK_EN);                  
; 688  :             ISP_OutReg32(&m_pIspConfigRegs->CTRL, setting);

  000e8	e3a02000	 mov         r2, #0
  000ec	e3a01000	 mov         r1, #0
  000f0	e2830040	 add         r0, r3, #0x40
  000f4	e58d2000	 str         r2, [sp]
  000f8	eb000000	 bl          |?ISP_OutReg32@@YAHPCII@Z|

; 689  :             
; 690  :             // Disable IRQ0
; 691  :         setting = 0;
; 692  :         ISP_OutReg32(&m_pIspConfigRegs->IRQ0ENABLE, setting);  

  000fc	e3a02000	 mov         r2, #0
  00100	e3a01000	 mov         r1, #0
  00104		 |$LN20@ISPEnable|
  00104	e5953004	 ldr         r3, [r5, #4]
  00108	e58d2000	 str         r2, [sp]
  0010c	e283000c	 add         r0, r3, #0xC
  00110	eb000000	 bl          |?ISP_OutReg32@@YAHPCII@Z|

; 693  :         }
; 694  :      
; 695  :         return TRUE;        

  00114	e3a00001	 mov         r0, #1

; 696  : }

  00118	e28dd004	 add         sp, sp, #4
  0011c	e8bd40f0	 ldmia       sp!, {r4 - r7, lr}
  00120	e12fff1e	 bx          lr
  00124		 |$LN24@ISPEnable|
  00124		 |$LN25@ISPEnable|
  00124	a01d8140	 DCD         0xa01d8140
  00128		 |$LN26@ISPEnable|
  00128	00000000	 DCD         |??_C@_1HK@FNPBJMNP@?$AA?$CL?$AAI?$AAS?$AAP?$AAE?$AAn?$AAa?$AAb?$AAl?$AAe?$AA?3?$AA?5?$AAs?$AAo?$AAf?$AAt?$AA?5?$AAr?$AAe?$AAs?$AAe?$AAt?$AA?5?$AAc?$AAo?$AAm?$AAp?$AAl?$AAe?$AAt?$AAe?$AAd@|
  0012c		 |$LN27@ISPEnable|
  0012c	00000000	 DCD         |??_C@_1FK@KMKNPHEN@?$AA?$CL?$AAI?$AAS?$AAP?$AAI?$AAn?$AAi?$AAt?$AA?3?$AA?5?$AAr?$AAe?$AAs?$AAe?$AAt?$AA?5?$AAn?$AAo?$AAt?$AA?5?$AAc?$AAo?$AAm?$AAp?$AAl?$AAe?$AAt?$AAe?$AAd?$AA?0?$AAu?$AAl@|
  00130		 |$LN28@ISPEnable|
  00130	00000000	 DCD         |??_C@_1BK@JAEPBCBJ@?$AA?$CL?$AAI?$AAS?$AAP?$AAE?$AAn?$AAa?$AAb?$AAl?$AAe?$AA?$AN?$AA?6?$AA?$AA@|
  00134		 |$LN29@ISPEnable|
  00134	00000000	 DCD         |dpCurSettings|
  00138		 |$M41009|

			 ENDP  ; |?ISPEnable@CIspCtrl@@AAAHH@Z|, CIspCtrl::ISPEnable

	EXPORT	|?ISPConfigSize@CIspCtrl@@AAAHIII@Z|	; CIspCtrl::ISPConfigSize
	EXPORT	|??_C@_1HI@MKMMNOOC@?$AAC?$AAI?$AAs?$AAp?$AAC?$AAt?$AAr?$AAl?$AA?3?$AA?3?$AAI?$AAS?$AAP?$AAC?$AAo?$AAn?$AAf?$AAi?$AAg?$AAS?$AAi?$AAz?$AAe?$AA?3?$AA?5?$AAE?$AAR?$AAR?$AAO?$AAR?$AA?5?$AA?9@| [ DATA ] ; `string'
	EXPORT	|??_C@_1CC@OKHEFPJE@?$AA?$CL?$AAI?$AAS?$AAP?$AAC?$AAo?$AAn?$AAf?$AAi?$AAg?$AAS?$AAi?$AAz?$AAe?$AA?$AN?$AA?6?$AA?$AA@| [ DATA ] ; `string'

  00000			 AREA	 |.pdata|, PDATA
|$T41035| DCD	|$LN10@ISPConfigS|
	DCD	0x40003001

  00000			 AREA	 |.rdata|, DATA, READONLY
|??_C@_1HI@MKMMNOOC@?$AAC?$AAI?$AAs?$AAp?$AAC?$AAt?$AAr?$AAl?$AA?3?$AA?3?$AAI?$AAS?$AAP?$AAC?$AAo?$AAn?$AAf?$AAi?$AAg?$AAS?$AAi?$AAz?$AAe?$AA?3?$AA?5?$AAE?$AAR?$AAR?$AAO?$AAR?$AA?5?$AA?9@| DCB "C"
	DCB	0x0, "I", 0x0, "s", 0x0, "p", 0x0, "C", 0x0, "t", 0x0, "r"
	DCB	0x0, "l", 0x0, ":", 0x0, ":", 0x0, "I", 0x0, "S", 0x0, "P"
	DCB	0x0, "C", 0x0, "o", 0x0, "n", 0x0, "f", 0x0, "i", 0x0, "g"
	DCB	0x0, "S", 0x0, "i", 0x0, "z", 0x0, "e", 0x0, ":", 0x0, " "
	DCB	0x0, "E", 0x0, "R", 0x0, "R", 0x0, "O", 0x0, "R", 0x0, " "
	DCB	0x0, "-", 0x0, " ", 0x0, "U", 0x0, "n", 0x0, "s", 0x0, "u"
	DCB	0x0, "p", 0x0, "p", 0x0, "o", 0x0, "r", 0x0, "t", 0x0, "e"
	DCB	0x0, "d", 0x0, " ", 0x0, "b", 0x0, "p", 0x0, "p", 0x0, " "
	DCB	0x0, "v", 0x0, "a", 0x0, "l", 0x0, "u", 0x0, "e", 0x0, " "
	DCB	0x0, "%", 0x0, "d", 0x0, 0xd, 0x0, 0xa, 0x0, 0x0, 0x0 ; `string'

  00000			 AREA	 |.rdata|, DATA, READONLY
|??_C@_1CC@OKHEFPJE@?$AA?$CL?$AAI?$AAS?$AAP?$AAC?$AAo?$AAn?$AAf?$AAi?$AAg?$AAS?$AAi?$AAz?$AAe?$AA?$AN?$AA?6?$AA?$AA@| DCB "+"
	DCB	0x0, "I", 0x0, "S", 0x0, "P", 0x0, "C", 0x0, "o", 0x0, "n"
	DCB	0x0, "f", 0x0, "i", 0x0, "g", 0x0, "S", 0x0, "i", 0x0, "z"
	DCB	0x0, "e", 0x0, 0xd, 0x0, 0xa, 0x0, 0x0, 0x0 ; `string'
; Function compile flags: /Ogspy

  00000			 AREA	 |.text|, CODE, ARM

  00000		 |?ISPConfigSize@CIspCtrl@@AAAHIII@Z| PROC ; CIspCtrl::ISPConfigSize

; 710  : {

  00000		 |$LN10@ISPConfigS|
  00000	e92d41f0	 stmdb       sp!, {r4 - r8, lr}
  00004		 |$M41032|
  00004	e1a04003	 mov         r4, r3
  00008	e1a07002	 mov         r7, r2
  0000c	e1a08001	 mov         r8, r1
  00010	e1a06000	 mov         r6, r0

; 711  : 
; 712  :     DEBUGMSG(ZONE_FUNCTION, (TEXT("+ISPConfigSize\r\n")));

  00014	e59f50a0	 ldr         r5, [pc, #0xA0]
  00018	e595e440	 ldr         lr, [r5, #0x440]
  0001c	e31e0008	 tst         lr, #8
  00020	0a000002	 beq         |$LN4@ISPConfigS|
  00024	e59f008c	 ldr         r0, [pc, #0x8C]
  00028	eb000000	 bl          NKDbgPrintfW
  0002c	e595e440	 ldr         lr, [r5, #0x440]
  00030		 |$LN4@ISPConfigS|

; 713  : 
; 714  :     UINT32 setting ;
; 715  :     UINT numBytesLine = 0;
; 716  :     UINT lines = 0;
; 717  : 
; 718  :     if (bpp != 16) {

  00030	e3540010	 cmp         r4, #0x10
  00034	0a000006	 beq         |$LN1@ISPConfigS|

; 719  :         DEBUGMSG(ZONE_ERROR, 
; 720  :             (TEXT("CIspCtrl::ISPConfigSize: ERROR - Unsupported bpp value %d\r\n"), 
; 721  :             bpp));

  00038	e31e0001	 tst         lr, #1
  0003c	159f0070	 ldrne       r0, [pc, #0x70]
  00040	11a01004	 movne       r1, r4
  00044	1b000000	 blne        NKDbgPrintfW

; 722  :         return FALSE;

  00048	e3a00000	 mov         r0, #0

; 754  : }

  0004c	e8bd41f0	 ldmia       sp!, {r4 - r8, lr}
  00050	e12fff1e	 bx          lr
  00054		 |$LN1@ISPConfigS|

; 723  :     }
; 724  : 
; 725  :     numBytesLine = (width * bpp)/8;

  00054	e1a03208	 mov         r3, r8, lsl #4

; 726  : 
; 727  : #ifdef ENABLE_PROGRESSIVE_INPUT
; 728  :     lines = height;
; 729  : #else
; 730  :     lines = (height/2);
; 731  : #endif
; 732  :     // Set output_w         
; 733  :     setting = (HORZ_INFO_SPH_VAL << ISPCCDC_HORZ_INFO_SPH_SHIFT) | ((numBytesLine - 1)<< ISPCCDC_HORZ_INFO_NPH_SHIFT);
; 734  :     ISP_OutReg32(&m_pCCDCRegs->CCDC_HORZ_INFO, setting);

  00058	e5962008	 ldr         r2, [r6, #8]
  0005c	e1a041a3	 mov         r4, r3, lsr #3
  00060	e2443001	 sub         r3, r4, #1
  00064	e3831702	 orr         r1, r3, #2, 14
  00068	e2820014	 add         r0, r2, #0x14
  0006c	eb000000	 bl          |?ISP_OutReg32@@YAHPCII@Z|

; 735  :     
; 736  :     //vertical shift
; 737  :     setting = ((VERT_START_VAL) << ISPCCDC_VERT_START_SLV0_SHIFT | (VERT_START_VAL) << ISPCCDC_VERT_START_SLV1_SHIFT);
; 738  :     ISP_OutReg32(&m_pCCDCRegs->CCDC_VERT_START, setting);

  00070	e5963008	 ldr         r3, [r6, #8]
  00074	e3a02706	 mov         r2, #6, 14
  00078	e3821018	 orr         r1, r2, #0x18
  0007c	e2830018	 add         r0, r3, #0x18
  00080	eb000000	 bl          |?ISP_OutReg32@@YAHPCII@Z|

; 739  :          
; 740  :     // Set output_h
; 741  :     setting = (lines - 1) << ISPCCDC_VERT_LINES_NLV_SHIFT;
; 742  :     ISP_OutReg32(&m_pCCDCRegs->CCDC_VERT_LINES, setting);

  00084	e5963008	 ldr         r3, [r6, #8]
  00088	e2471001	 sub         r1, r7, #1
  0008c	e283001c	 add         r0, r3, #0x1C
  00090	eb000000	 bl          |?ISP_OutReg32@@YAHPCII@Z|

; 743  : 
; 744  : 
; 745  :     ConfigOutlineOffset(numBytesLine, 0, 0);

  00094	e3a03000	 mov         r3, #0
  00098	e3a02000	 mov         r2, #0
  0009c	e1a01004	 mov         r1, r4
  000a0	e1a00006	 mov         r0, r6
  000a4	eb000000	 bl          |?ConfigOutlineOffset@CIspCtrl@@AAAHIEE@Z|

; 746  : #ifdef ENABLE_DEINTERLACED_OUTPUT    //There is no field pin connected to OMAP3 from tvp5416, so only for BT656.
; 747  :     //de-interlace
; 748  :     ConfigOutlineOffset(numBytesLine, EVENEVEN, 1);
; 749  :     ConfigOutlineOffset(numBytesLine, ODDEVEN, 1);
; 750  :     ConfigOutlineOffset(numBytesLine, EVENODD, 1);
; 751  :     ConfigOutlineOffset(numBytesLine, ODDODD, 1);   
; 752  : #endif //ENABLE_DEINTERLACED_OUTPUT
; 753  :     return TRUE;        

  000a8	e3a00001	 mov         r0, #1

; 754  : }

  000ac	e8bd41f0	 ldmia       sp!, {r4 - r8, lr}
  000b0	e12fff1e	 bx          lr
  000b4		 |$LN11@ISPConfigS|
  000b4		 |$LN12@ISPConfigS|
  000b4	00000000	 DCD         |??_C@_1HI@MKMMNOOC@?$AAC?$AAI?$AAs?$AAp?$AAC?$AAt?$AAr?$AAl?$AA?3?$AA?3?$AAI?$AAS?$AAP?$AAC?$AAo?$AAn?$AAf?$AAi?$AAg?$AAS?$AAi?$AAz?$AAe?$AA?3?$AA?5?$AAE?$AAR?$AAR?$AAO?$AAR?$AA?5?$AA?9@|
  000b8		 |$LN13@ISPConfigS|
  000b8	00000000	 DCD         |??_C@_1CC@OKHEFPJE@?$AA?$CL?$AAI?$AAS?$AAP?$AAC?$AAo?$AAn?$AAf?$AAi?$AAg?$AAS?$AAi?$AAz?$AAe?$AA?$AN?$AA?6?$AA?$AA@|
  000bc		 |$LN14@ISPConfigS|
  000bc	00000000	 DCD         |dpCurSettings|
  000c0		 |$M41033|

			 ENDP  ; |?ISPConfigSize@CIspCtrl@@AAAHIII@Z|, CIspCtrl::ISPConfigSize

	EXPORT	|?IsCCDCBusy@CIspCtrl@@AAAHXZ|		; CIspCtrl::IsCCDCBusy
	EXPORT	|??_C@_1BM@HBFIPOLM@?$AA?$CL?$AAI?$AAs?$AAC?$AAC?$AAD?$AAC?$AAB?$AAu?$AAs?$AAy?$AA?$AN?$AA?6?$AA?$AA@| [ DATA ] ; `string'

  00000			 AREA	 |.pdata|, PDATA
|$T41052| DCD	|$LN9@IsCCDCBusy|
	DCD	0x40001802

  00000			 AREA	 |.rdata|, DATA, READONLY
|??_C@_1BM@HBFIPOLM@?$AA?$CL?$AAI?$AAs?$AAC?$AAC?$AAD?$AAC?$AAB?$AAu?$AAs?$AAy?$AA?$AN?$AA?6?$AA?$AA@| DCB "+"
	DCB	0x0, "I", 0x0, "s", 0x0, "C", 0x0, "C", 0x0, "D", 0x0, "C"
	DCB	0x0, "B", 0x0, "u", 0x0, "s", 0x0, "y", 0x0, 0xd, 0x0, 0xa
	DCB	0x0, 0x0, 0x0				; `string'
; Function compile flags: /Ogspy

  00000			 AREA	 |.text|, CODE, ARM

  00000		 |?IsCCDCBusy@CIspCtrl@@AAAHXZ| PROC	; CIspCtrl::IsCCDCBusy

; 763  : {

  00000		 |$LN9@IsCCDCBusy|
  00000	e92d4010	 stmdb       sp!, {r4, lr}
  00004	e24dd004	 sub         sp, sp, #4
  00008		 |$M41049|
  00008	e1a04000	 mov         r4, r0

; 764  :         DEBUGMSG(ZONE_FUNCTION, (TEXT("+IsCCDCBusy\r\n")));

  0000c	e59f3048	 ldr         r3, [pc, #0x48]
  00010	e5933440	 ldr         r3, [r3, #0x440]
  00014	e3130008	 tst         r3, #8
  00018	159f0038	 ldrne       r0, [pc, #0x38]
  0001c	1b000000	 blne        NKDbgPrintfW

; 765  :                 
; 766  :         UINT32 setting = 0;
; 767  :         
; 768  :         ISP_InReg32(&m_pCCDCRegs->CCDC_PCR, &setting); 

  00020	e5943008	 ldr         r3, [r4, #8]
  00024	e3a02000	 mov         r2, #0
  00028	e28d1000	 add         r1, sp, #0
  0002c	e2830004	 add         r0, r3, #4
  00030	e58d2000	 str         r2, [sp]
  00034	eb000000	 bl          |?ISP_InReg32@@YAHPCIPAI@Z|

; 769  :         setting &= ISPCCDC_PCR_BUSY;

  00038	e59d3000	 ldr         r3, [sp]
  0003c	e2133002	 ands        r3, r3, #2

; 770  : 
; 771  :         if (setting)
; 772  :             return TRUE;    

  00040	13a00001	 movne       r0, #1

; 773  :         else
; 774  :             return FALSE;                   

  00044	03a00000	 moveq       r0, #0
  00048	e58d3000	 str         r3, [sp]

; 775  : }

  0004c	e28dd004	 add         sp, sp, #4
  00050	e8bd4010	 ldmia       sp!, {r4, lr}
  00054	e12fff1e	 bx          lr
  00058		 |$LN10@IsCCDCBusy|
  00058		 |$LN11@IsCCDCBusy|
  00058	00000000	 DCD         |??_C@_1BM@HBFIPOLM@?$AA?$CL?$AAI?$AAs?$AAC?$AAC?$AAD?$AAC?$AAB?$AAu?$AAs?$AAy?$AA?$AN?$AA?6?$AA?$AA@|
  0005c		 |$LN12@IsCCDCBusy|
  0005c	00000000	 DCD         |dpCurSettings|
  00060		 |$M41050|

			 ENDP  ; |?IsCCDCBusy@CIspCtrl@@AAAHXZ|, CIspCtrl::IsCCDCBusy

	EXPORT	|?Check_IRQ0STATUS@CIspCtrl@@AAAHXZ|	; CIspCtrl::Check_IRQ0STATUS
	EXPORT	|??_C@_1CO@DLNBFLKP@?$AA?$CL?$AAI?$AAS?$AAP?$AA_?$AAI?$AAR?$AAQ?$AA0?$AAS?$AAT?$AAA?$AAT?$AAU?$AAS?$AA?3?$AA0?$AAx?$AA?$CF?$AAx?$AA?$AN?$AA?6?$AA?$AA@| [ DATA ] ; `string'

  00000			 AREA	 |.pdata|, PDATA
|$T41069| DCD	|$LN11@Check_IRQ0|
	DCD	0x40001d02

  00000			 AREA	 |.rdata|, DATA, READONLY
|??_C@_1CO@DLNBFLKP@?$AA?$CL?$AAI?$AAS?$AAP?$AA_?$AAI?$AAR?$AAQ?$AA0?$AAS?$AAT?$AAA?$AAT?$AAU?$AAS?$AA?3?$AA0?$AAx?$AA?$CF?$AAx?$AA?$AN?$AA?6?$AA?$AA@| DCB "+"
	DCB	0x0, "I", 0x0, "S", 0x0, "P", 0x0, "_", 0x0, "I", 0x0, "R"
	DCB	0x0, "Q", 0x0, "0", 0x0, "S", 0x0, "T", 0x0, "A", 0x0, "T"
	DCB	0x0, "U", 0x0, "S", 0x0, ":", 0x0, "0", 0x0, "x", 0x0, "%"
	DCB	0x0, "x", 0x0, 0xd, 0x0, 0xa, 0x0, 0x0, 0x0 ; `string'
; Function compile flags: /Ogspy

  00000			 AREA	 |.text|, CODE, ARM

  00000		 |?Check_IRQ0STATUS@CIspCtrl@@AAAHXZ| PROC ; CIspCtrl::Check_IRQ0STATUS

; 783  : {

  00000		 |$LN11@Check_IRQ0|
  00000	e92d4030	 stmdb       sp!, {r4, r5, lr}
  00004	e24dd004	 sub         sp, sp, #4
  00008		 |$M41066|
  00008	e1a05000	 mov         r5, r0

; 784  :         DEBUGMSG(ZONE_FUNCTION, (TEXT("+IsCCDCBusy\r\n")));

  0000c	e59f405c	 ldr         r4, [pc, #0x5C]
  00010	e5943440	 ldr         r3, [r4, #0x440]
  00014	e3130008	 tst         r3, #8
  00018	159f004c	 ldrne       r0, [pc, #0x4C]
  0001c	1b000000	 blne        NKDbgPrintfW

; 785  :                 
; 786  :         UINT32 setting = 0;
; 787  :         UINT32 check_bit = 0;
; 788  : 
; 789  :         ISP_InReg32(&m_pIspConfigRegs->IRQ0STATUS, &setting);

  00020	e5953004	 ldr         r3, [r5, #4]
  00024	e3a02000	 mov         r2, #0
  00028	e28d1000	 add         r1, sp, #0
  0002c	e2830010	 add         r0, r3, #0x10
  00030	e58d2000	 str         r2, [sp]
  00034	eb000000	 bl          |?ISP_InReg32@@YAHPCIPAI@Z|

; 790  : 
; 791  :         DEBUGMSG(ZONE_VERBOSE, (TEXT("+ISP_IRQ0STATUS:0x%x\r\n"),setting)); 

  00038	e5943440	 ldr         r3, [r4, #0x440]
  0003c	e3130b02	 tst         r3, #2, 22
  00040	159d1000	 ldrne       r1, [sp]
  00044	159f001c	 ldrne       r0, [pc, #0x1C]
  00048	1b000000	 blne        NKDbgPrintfW

; 792  :         check_bit = setting & IRQ0STATUS_CCDC_VD0_IRQ;
; 793  : 
; 794  :         if (check_bit)

  0004c	e59d3000	 ldr         r3, [sp]
  00050	e3130c01	 tst         r3, #1, 24

; 795  :         {
; 796  :             //CCDCEnable(false);    
; 797  :             return TRUE;

  00054	13a00001	 movne       r0, #1

; 798  :         }       
; 799  :         else
; 800  :             return FALSE;                   

  00058	03a00000	 moveq       r0, #0

; 801  : }

  0005c	e28dd004	 add         sp, sp, #4
  00060	e8bd4030	 ldmia       sp!, {r4, r5, lr}
  00064	e12fff1e	 bx          lr
  00068		 |$LN12@Check_IRQ0|
  00068		 |$LN13@Check_IRQ0|
  00068	00000000	 DCD         |??_C@_1CO@DLNBFLKP@?$AA?$CL?$AAI?$AAS?$AAP?$AA_?$AAI?$AAR?$AAQ?$AA0?$AAS?$AAT?$AAA?$AAT?$AAU?$AAS?$AA?3?$AA0?$AAx?$AA?$CF?$AAx?$AA?$AN?$AA?6?$AA?$AA@|
  0006c		 |$LN14@Check_IRQ0|
  0006c	00000000	 DCD         |??_C@_1BM@HBFIPOLM@?$AA?$CL?$AAI?$AAs?$AAC?$AAC?$AAD?$AAC?$AAB?$AAu?$AAs?$AAy?$AA?$AN?$AA?6?$AA?$AA@|
  00070		 |$LN15@Check_IRQ0|
  00070	00000000	 DCD         |dpCurSettings|
  00074		 |$M41067|

			 ENDP  ; |?Check_IRQ0STATUS@CIspCtrl@@AAAHXZ|, CIspCtrl::Check_IRQ0STATUS

	EXPORT	|?InitializeCamera@CIspCtrl@@QAAHXZ|	; CIspCtrl::InitializeCamera
	EXPORT	|??_C@_1CK@MGFMBNEK@?$AAG?$AAP?$AAI?$AAO?$AA?5?$AAI?$AAn?$AAi?$AAt?$AA?4?$AA?5?$AAf?$AAa?$AAi?$AAl?$AAe?$AAd?$AA?5?$AA?$AN?$AA?6?$AA?$AA@| [ DATA ] ; `string'
	EXPORT	|??_C@_1CI@FCIMJGHK@?$AA?$CL?$AAI?$AAn?$AAi?$AAt?$AAi?$AAa?$AAl?$AAi?$AAz?$AAe?$AAC?$AAa?$AAm?$AAe?$AAr?$AAa?$AA?$AN?$AA?6?$AA?$AA@| [ DATA ] ; `string'

  00000			 AREA	 |.pdata|, PDATA
|$T41087| DCD	|$LN10@Initialize|
	DCD	0x40001a01

  00000			 AREA	 |.rdata|, DATA, READONLY
|??_C@_1CK@MGFMBNEK@?$AAG?$AAP?$AAI?$AAO?$AA?5?$AAI?$AAn?$AAi?$AAt?$AA?4?$AA?5?$AAf?$AAa?$AAi?$AAl?$AAe?$AAd?$AA?5?$AA?$AN?$AA?6?$AA?$AA@| DCB "G"
	DCB	0x0, "P", 0x0, "I", 0x0, "O", 0x0, " ", 0x0, "I", 0x0, "n"
	DCB	0x0, "i", 0x0, "t", 0x0, ".", 0x0, " ", 0x0, "f", 0x0, "a"
	DCB	0x0, "i", 0x0, "l", 0x0, "e", 0x0, "d", 0x0, " ", 0x0, 0xd
	DCB	0x0, 0xa, 0x0, 0x0, 0x0			; `string'

  00000			 AREA	 |.rdata|, DATA, READONLY
|??_C@_1CI@FCIMJGHK@?$AA?$CL?$AAI?$AAn?$AAi?$AAt?$AAi?$AAa?$AAl?$AAi?$AAz?$AAe?$AAC?$AAa?$AAm?$AAe?$AAr?$AAa?$AA?$AN?$AA?6?$AA?$AA@| DCB "+"
	DCB	0x0, "I", 0x0, "n", 0x0, "i", 0x0, "t", 0x0, "i", 0x0, "a"
	DCB	0x0, "l", 0x0, "i", 0x0, "z", 0x0, "e", 0x0, "C", 0x0, "a"
	DCB	0x0, "m", 0x0, "e", 0x0, "r", 0x0, "a", 0x0, 0xd, 0x0, 0xa
	DCB	0x0, 0x0, 0x0				; `string'
; Function compile flags: /Ogspy

  00000			 AREA	 |.text|, CODE, ARM

  00000		 |?InitializeCamera@CIspCtrl@@QAAHXZ| PROC ; CIspCtrl::InitializeCamera

; 810  : {    

  00000		 |$LN10@Initialize|
  00000	e92d4030	 stmdb       sp!, {r4, r5, lr}
  00004		 |$M41084|
  00004	e1a04000	 mov         r4, r0

; 811  :     DEBUGMSG(ZONE_FUNCTION, (TEXT("+InitializeCamera\r\n")));    

  00008	e59f5054	 ldr         r5, [pc, #0x54]
  0000c	e5953440	 ldr         r3, [r5, #0x440]
  00010	e3130008	 tst         r3, #8
  00014	159f0044	 ldrne       r0, [pc, #0x44]
  00018	1b000000	 blne        NKDbgPrintfW

; 812  :             
; 813  :     if (ConfigGPIO4MDC() == FALSE)

  0001c	e1a00004	 mov         r0, r4
  00020	eb000000	 bl          |?ConfigGPIO4MDC@CIspCtrl@@AAAHXZ|
  00024	e3500000	 cmp         r0, #0
  00028	1a000006	 bne         |$LN1@Initialize|

; 814  :     {   DEBUGMSG(ZONE_ERROR, (TEXT("GPIO Init. failed \r\n")));     

  0002c	e5953440	 ldr         r3, [r5, #0x440]
  00030	e3130001	 tst         r3, #1
  00034	159f0020	 ldrne       r0, [pc, #0x20]
  00038	1b000000	 blne        NKDbgPrintfW

; 815  :         return FALSE;

  0003c	e3a00000	 mov         r0, #0

; 820  : }

  00040	e8bd4030	 ldmia       sp!, {r4, r5, lr}
  00044	e12fff1e	 bx          lr
  00048		 |$LN1@Initialize|

; 816  :     }
; 817  :     MapCameraReg(); //Map camera registers

  00048	e1a00004	 mov         r0, r4
  0004c	eb000000	 bl          |?MapCameraReg@CIspCtrl@@AAAHXZ|

; 818  :         
; 819  :     return TRUE;

  00050	e3a00001	 mov         r0, #1

; 820  : }

  00054	e8bd4030	 ldmia       sp!, {r4, r5, lr}
  00058	e12fff1e	 bx          lr
  0005c		 |$LN11@Initialize|
  0005c		 |$LN12@Initialize|
  0005c	00000000	 DCD         |??_C@_1CK@MGFMBNEK@?$AAG?$AAP?$AAI?$AAO?$AA?5?$AAI?$AAn?$AAi?$AAt?$AA?4?$AA?5?$AAf?$AAa?$AAi?$AAl?$AAe?$AAd?$AA?5?$AA?$AN?$AA?6?$AA?$AA@|
  00060		 |$LN13@Initialize|
  00060	00000000	 DCD         |??_C@_1CI@FCIMJGHK@?$AA?$CL?$AAI?$AAn?$AAi?$AAt?$AAi?$AAa?$AAl?$AAi?$AAz?$AAe?$AAC?$AAa?$AAm?$AAe?$AAr?$AAa?$AA?$AN?$AA?6?$AA?$AA@|
  00064		 |$LN14@Initialize|
  00064	00000000	 DCD         |dpCurSettings|
  00068		 |$M41085|

			 ENDP  ; |?InitializeCamera@CIspCtrl@@QAAHXZ|, CIspCtrl::InitializeCamera

	EXPORT	|?EnableCamera@CIspCtrl@@QAAHPAUtagCS_DATARANGE_VIDEO@@@Z| ; CIspCtrl::EnableCamera
	EXPORT	|??_C@_1CA@PAJBOML@?$AA?$CL?$AAE?$AAn?$AAa?$AAb?$AAl?$AAe?$AAC?$AAa?$AAm?$AAe?$AAr?$AAa?$AA?$AN?$AA?6?$AA?$AA@| [ DATA ] ; `string'
	IMPORT	|memset|

  00000			 AREA	 |.pdata|, PDATA
|$T41112| DCD	|$LN13@EnableCame|
	DCD	0x40003501

  00000			 AREA	 |.rdata|, DATA, READONLY
|??_C@_1CA@PAJBOML@?$AA?$CL?$AAE?$AAn?$AAa?$AAb?$AAl?$AAe?$AAC?$AAa?$AAm?$AAe?$AAr?$AAa?$AA?$AN?$AA?6?$AA?$AA@| DCB "+"
	DCB	0x0, "E", 0x0, "n", 0x0, "a", 0x0, "b", 0x0, "l", 0x0, "e"
	DCB	0x0, "C", 0x0, "a", 0x0, "m", 0x0, "e", 0x0, "r", 0x0, "a"
	DCB	0x0, 0xd, 0x0, 0xa, 0x0, 0x0, 0x0	; `string'
; Function compile flags: /Ogspy

  00000			 AREA	 |.text|, CODE, ARM

  00000		 |?EnableCamera@CIspCtrl@@QAAHPAUtagCS_DATARANGE_VIDEO@@@Z| PROC ; CIspCtrl::EnableCamera

; 829  : {    

  00000		 |$LN13@EnableCame|
  00000	e92d43f0	 stmdb       sp!, {r4 - r9, lr}
  00004		 |$M41109|
  00004	e1a05001	 mov         r5, r1
  00008	e1a04000	 mov         r4, r0

; 830  :     DEBUGMSG(ZONE_FUNCTION, (TEXT("+EnableCamera\r\n")));

  0000c	e59f30bc	 ldr         r3, [pc, #0xBC]
  00010	e5933440	 ldr         r3, [r3, #0x440]
  00014	e3130008	 tst         r3, #8
  00018	159f00ac	 ldrne       r0, [pc, #0xAC]
  0001c	1b000000	 blne        NKDbgPrintfW

; 831  : 
; 832  :     if (m_bEnabled) {

  00020	e5943000	 ldr         r3, [r4]
  00024	e3530000	 cmp         r3, #0

; 833  :         return TRUE;

  00028	1a000024	 bne         |$LN9@EnableCame|

; 834  :     }
; 835  : 
; 836  :     ISPInit();// Init. ISP      

  0002c	e1a00004	 mov         r0, r4
  00030	eb000000	 bl          |?ISPInit@CIspCtrl@@AAAHXZ|

; 837  :     ISPEnable(TRUE);// Soft reset ISP and clock on used module      

  00034	e3a01001	 mov         r1, #1
  00038	e1a00004	 mov         r0, r4
  0003c	eb000000	 bl          |?ISPEnable@CIspCtrl@@AAAHH@Z|

; 838  :     
; 839  : 
; 840  :     PCS_VIDEOINFOHEADER pCsVideoInfoHdr = &(pCsDataRangeVideo->VideoInfoHeader);

  00040	e28530d0	 add         r3, r5, #0xD0

; 841  : 
; 842  :     UINT biWidth        = pCsVideoInfoHdr->bmiHeader.biWidth;
; 843  :     UINT biHeight       = abs(pCsVideoInfoHdr->bmiHeader.biHeight);

  00044	e5936038	 ldr         r6, [r3, #0x38]

; 844  :     UINT biSizeImage    = pCsVideoInfoHdr->bmiHeader.biSizeImage;
; 845  :     UINT biBitCount     = pCsVideoInfoHdr->bmiHeader.biBitCount;
; 846  : 
; 847  :     if(!CCDCInit(pCsDataRangeVideo)) // Init. CCDC               

  00048	e5938034	 ldr         r8, [r3, #0x34]
  0004c	e1d393be	 ldrh        r9, [r3, #0x3E]
  00050	e1a01005	 mov         r1, r5
  00054	e5935044	 ldr         r5, [r3, #0x44]
  00058	e1a00004	 mov         r0, r4
  0005c	e0267fc6	 eor         r7, r6, r6, asr #31
  00060	eb000000	 bl          |?CCDCInit@CIspCtrl@@AAAHPAUtagCS_DATARANGE_VIDEO@@@Z|
  00064	e3500000	 cmp         r0, #0
  00068	1a000002	 bne         |$LN3@EnableCame|
  0006c		 |$LN10@EnableCame|

; 848  :         return FALSE;

  0006c	e3a00000	 mov         r0, #0

; 861  : 
; 862  : }

  00070	e8bd43f0	 ldmia       sp!, {r4 - r9, lr}
  00074	e12fff1e	 bx          lr
  00078		 |$LN3@EnableCame|

; 849  : 
; 850  :     if (!ISPConfigSize(biWidth, biHeight, biBitCount))// Init. video size 

  00078	e1a03009	 mov         r3, r9
  0007c	e0472fc6	 sub         r2, r7, r6, asr #31
  00080	e1a01008	 mov         r1, r8
  00084	e1a00004	 mov         r0, r4
  00088	eb000000	 bl          |?ISPConfigSize@CIspCtrl@@AAAHIII@Z|
  0008c	e3500000	 cmp         r0, #0

; 851  :         return FALSE;

  00090	0afffff5	 beq         |$LN10@EnableCame|

; 852  :         
; 853  :     memset(m_pYUVVirtualAddr, 0, biSizeImage); //clear the frame buffer

  00094	e594000c	 ldr         r0, [r4, #0xC]
  00098	e1a02005	 mov         r2, r5
  0009c	e3a01000	 mov         r1, #0
  000a0	eb000000	 bl          memset

; 854  : 
; 855  :     if (!CCDCEnable(TRUE))

  000a4	e3a01001	 mov         r1, #1
  000a8	e1a00004	 mov         r0, r4
  000ac	eb000000	 bl          |?CCDCEnable@CIspCtrl@@AAAHH@Z|
  000b0	e3500000	 cmp         r0, #0

; 856  :         return FALSE;

  000b4	0affffec	 beq         |$LN10@EnableCame|

; 857  : 
; 858  :     m_bEnabled = TRUE;

  000b8	e3a03001	 mov         r3, #1
  000bc	e5843000	 str         r3, [r4]
  000c0		 |$LN9@EnableCame|

; 859  : 
; 860  :     return TRUE;

  000c0	e3a00001	 mov         r0, #1

; 861  : 
; 862  : }

  000c4	e8bd43f0	 ldmia       sp!, {r4 - r9, lr}
  000c8	e12fff1e	 bx          lr
  000cc		 |$LN14@EnableCame|
  000cc		 |$LN15@EnableCame|
  000cc	00000000	 DCD         |??_C@_1CA@PAJBOML@?$AA?$CL?$AAE?$AAn?$AAa?$AAb?$AAl?$AAe?$AAC?$AAa?$AAm?$AAe?$AAr?$AAa?$AA?$AN?$AA?6?$AA?$AA@|
  000d0		 |$LN16@EnableCame|
  000d0	00000000	 DCD         |dpCurSettings|
  000d4		 |$M41110|

			 ENDP  ; |?EnableCamera@CIspCtrl@@QAAHPAUtagCS_DATARANGE_VIDEO@@@Z|, CIspCtrl::EnableCamera

	EXPORT	|?DisableCamera@CIspCtrl@@QAAHXZ|	; CIspCtrl::DisableCamera
	EXPORT	|??_C@_1CC@KDBCPCGC@?$AA?$CL?$AAD?$AAi?$AAs?$AAa?$AAb?$AAl?$AAe?$AAC?$AAa?$AAm?$AAe?$AAr?$AAa?$AA?$AN?$AA?6?$AA?$AA@| [ DATA ] ; `string'

  00000			 AREA	 |.pdata|, PDATA
|$T41135| DCD	|$LN13@DisableCam|
	DCD	0x40001c01

  00000			 AREA	 |.rdata|, DATA, READONLY
|??_C@_1CC@KDBCPCGC@?$AA?$CL?$AAD?$AAi?$AAs?$AAa?$AAb?$AAl?$AAe?$AAC?$AAa?$AAm?$AAe?$AAr?$AAa?$AA?$AN?$AA?6?$AA?$AA@| DCB "+"
	DCB	0x0, "D", 0x0, "i", 0x0, "s", 0x0, "a", 0x0, "b", 0x0, "l"
	DCB	0x0, "e", 0x0, "C", 0x0, "a", 0x0, "m", 0x0, "e", 0x0, "r"
	DCB	0x0, "a", 0x0, 0xd, 0x0, 0xa, 0x0, 0x0, 0x0 ; `string'
; Function compile flags: /Ogspy

  00000			 AREA	 |.text|, CODE, ARM

  00000		 |?DisableCamera@CIspCtrl@@QAAHXZ| PROC	; CIspCtrl::DisableCamera

; 871  : {

  00000		 |$LN13@DisableCam|
  00000	e92d4030	 stmdb       sp!, {r4, r5, lr}
  00004		 |$M41132|
  00004	e1a04000	 mov         r4, r0

; 872  :     DEBUGMSG(ZONE_FUNCTION, (TEXT("+DisableCamera\r\n")));

  00008	e59f505c	 ldr         r5, [pc, #0x5C]
  0000c	e5953440	 ldr         r3, [r5, #0x440]
  00010	e3130008	 tst         r3, #8
  00014	159f004c	 ldrne       r0, [pc, #0x4C]
  00018	1b000000	 blne        NKDbgPrintfW

; 873  : 
; 874  :     if (!m_bEnabled) {

  0001c	e5943000	 ldr         r3, [r4]
  00020	e3530000	 cmp         r3, #0

; 875  :         return TRUE;

  00024	0a00000b	 beq         |$LN10@DisableCam|

; 876  :     }
; 877  :     
; 878  :     CCDCEnable(FALSE);

  00028	e3a01000	 mov         r1, #0
  0002c	e1a00004	 mov         r0, r4
  00030	eb000000	 bl          |?CCDCEnable@CIspCtrl@@AAAHH@Z|

; 879  :     ISPEnable(FALSE);

  00034	e3a01000	 mov         r1, #0
  00038	e1a00004	 mov         r0, r4
  0003c	eb000000	 bl          |?ISPEnable@CIspCtrl@@AAAHH@Z|

; 880  :     
; 881  :     // Free camera buffer
; 882  :     DeAllocBuffer();

  00040	e5953440	 ldr         r3, [r5, #0x440]
  00044	e3130008	 tst         r3, #8
  00048	159f0014	 ldrne       r0, [pc, #0x14]
  0004c	1b000000	 blne        NKDbgPrintfW

; 883  : 
; 884  :     m_bEnabled = FALSE;

  00050	e3a03000	 mov         r3, #0
  00054	e5843000	 str         r3, [r4]
  00058		 |$LN10@DisableCam|

; 885  : 
; 886  :     return TRUE;

  00058	e3a00001	 mov         r0, #1

; 887  : }

  0005c	e8bd4030	 ldmia       sp!, {r4, r5, lr}
  00060	e12fff1e	 bx          lr
  00064		 |$LN14@DisableCam|
  00064		 |$LN15@DisableCam|
  00064	00000000	 DCD         |??_C@_1CC@NBADCKDL@?$AA?$CL?$AAD?$AAe?$AAA?$AAl?$AAl?$AAo?$AAc?$AAB?$AAu?$AAf?$AAf?$AAe?$AAr?$AA?$AN?$AA?6?$AA?$AA@|
  00068		 |$LN16@DisableCam|
  00068	00000000	 DCD         |??_C@_1CC@KDBCPCGC@?$AA?$CL?$AAD?$AAi?$AAs?$AAa?$AAb?$AAl?$AAe?$AAC?$AAa?$AAm?$AAe?$AAr?$AAa?$AA?$AN?$AA?6?$AA?$AA@|
  0006c		 |$LN17@DisableCam|
  0006c	00000000	 DCD         |dpCurSettings|
  00070		 |$M41133|

			 ENDP  ; |?DisableCamera@CIspCtrl@@QAAHXZ|, CIspCtrl::DisableCamera

	EXPORT	|?ChangeFrameBuffer@CIspCtrl@@QAAHK@Z|	; CIspCtrl::ChangeFrameBuffer
	EXPORT	|??_C@_1CK@KIFFJDFO@?$AA?$CL?$AAC?$AAh?$AAa?$AAn?$AAg?$AAe?$AAF?$AAr?$AAa?$AAm?$AAe?$AAB?$AAu?$AAf?$AAf?$AAe?$AAr?$AA?$AN?$AA?6?$AA?$AA@| [ DATA ] ; `string'

  00000			 AREA	 |.pdata|, PDATA
|$T41157| DCD	|$LN10@ChangeFram|
	DCD	0x40001a01

  00000			 AREA	 |.rdata|, DATA, READONLY
|??_C@_1CK@KIFFJDFO@?$AA?$CL?$AAC?$AAh?$AAa?$AAn?$AAg?$AAe?$AAF?$AAr?$AAa?$AAm?$AAe?$AAB?$AAu?$AAf?$AAf?$AAe?$AAr?$AA?$AN?$AA?6?$AA?$AA@| DCB "+"
	DCB	0x0, "C", 0x0, "h", 0x0, "a", 0x0, "n", 0x0, "g", 0x0, "e"
	DCB	0x0, "F", 0x0, "r", 0x0, "a", 0x0, "m", 0x0, "e", 0x0, "B"
	DCB	0x0, "u", 0x0, "f", 0x0, "f", 0x0, "e", 0x0, "r", 0x0, 0xd
	DCB	0x0, 0xa, 0x0, 0x0, 0x0			; `string'
; Function compile flags: /Ogspy

  00000			 AREA	 |.text|, CODE, ARM

  00000		 |?ChangeFrameBuffer@CIspCtrl@@QAAHK@Z| PROC ; CIspCtrl::ChangeFrameBuffer

; 896  : {

  00000		 |$LN10@ChangeFram|
  00000	e92d4030	 stmdb       sp!, {r4, r5, lr}
  00004		 |$M41154|
  00004	e1a05001	 mov         r5, r1
  00008	e1a04000	 mov         r4, r0

; 897  :     DEBUGMSG(ZONE_FUNCTION, (TEXT("+ChangeFrameBuffer\r\n")));  

  0000c	e59f3050	 ldr         r3, [pc, #0x50]
  00010	e5933440	 ldr         r3, [r3, #0x440]
  00014	e3130008	 tst         r3, #8
  00018	159f0040	 ldrne       r0, [pc, #0x40]
  0001c	1b000000	 blne        NKDbgPrintfW

; 898  : 
; 899  :     m_pYUVVirtualAddr= (LPVOID) ulVirtAddr;
; 900  :     m_pYUVPhysicalAddr = GetPhysFromVirt((ULONG)m_pYUVVirtualAddr);

  00020	e1a01005	 mov         r1, r5
  00024	e1a00004	 mov         r0, r4
  00028	e584500c	 str         r5, [r4, #0xC]
  0002c	eb000000	 bl          |?GetPhysFromVirt@CIspCtrl@@AAAPAXK@Z|
  00030	e3500000	 cmp         r0, #0
  00034	e5840010	 str         r0, [r4, #0x10]

; 901  :     if(!m_pYUVPhysicalAddr)
; 902  :         return FALSE;   

  00038	03a00000	 moveq       r0, #0

; 908  : }

  0003c	08bd4030	 ldmeqia     sp!, {r4, r5, lr}
  00040	012fff1e	 bxeq        lr

; 903  :     
; 904  :     //Set CCDC_SDR address
; 905  :     CCDCSetOutputAddress((ULONG) m_pYUVPhysicalAddr);

  00044	e5943008	 ldr         r3, [r4, #8]
  00048	e3c0101f	 bic         r1, r0, #0x1F
  0004c	e283002c	 add         r0, r3, #0x2C
  00050	eb000000	 bl          |?ISP_OutReg32@@YAHPCII@Z|

; 906  :     
; 907  :     return TRUE;

  00054	e3a00001	 mov         r0, #1

; 908  : }

  00058	e8bd4030	 ldmia       sp!, {r4, r5, lr}
  0005c	e12fff1e	 bx          lr
  00060		 |$LN11@ChangeFram|
  00060		 |$LN12@ChangeFram|
  00060	00000000	 DCD         |??_C@_1CK@KIFFJDFO@?$AA?$CL?$AAC?$AAh?$AAa?$AAn?$AAg?$AAe?$AAF?$AAr?$AAa?$AAm?$AAe?$AAB?$AAu?$AAf?$AAf?$AAe?$AAr?$AA?$AN?$AA?6?$AA?$AA@|
  00064		 |$LN13@ChangeFram|
  00064	00000000	 DCD         |dpCurSettings|
  00068		 |$M41155|

			 ENDP  ; |?ChangeFrameBuffer@CIspCtrl@@QAAHK@Z|, CIspCtrl::ChangeFrameBuffer

	END
