; Listing generated by Microsoft (R) Optimizing Compiler Version 14.01.60511.01 

	TTL	C:\WINCE600\PLATFORM\EVM_OMAP3530\SRC\DRIVERS\CAMERA\PDD\PDD_Intf.cpp
	CODE32

  00000			 AREA	 |.drectve|, DRECTVE
	DCB	"-defaultlib:LIBCMT "
	DCB	"-defaultlib:OLDNAMES "

	EXPORT	|PDD_Init|
	IMPORT	|?PDDInit@CCameraPdd@@QAAKPAXPAU__PDD_FuncTbl@@@Z| ; CCameraPdd::PDDInit
	IMPORT	|??0CCameraPdd@@QAA@XZ|			; CCameraPdd::CCameraPdd
	IMPORT	|??2@YAPAXI@Z|				; operator new
; File c:\wince600\platform\evm_omap3530\src\drivers\camera\pdd\pdd_intf.cpp

  00000			 AREA	 |.pdata|, PDATA
|$T35100| DCD	|$LN10@PDD_Init|
	DCD	0x40001701
; Function compile flags: /Ogspy

  00000			 AREA	 |.text|, CODE, ARM

  00000		 |PDD_Init| PROC

; 38   : {

  00000		 |$LN10@PDD_Init|
  00000	e92d4070	 stmdb       sp!, {r4 - r6, lr}
  00004		 |$M35097|
  00004	e1a05001	 mov         r5, r1
  00008	e1a06000	 mov         r6, r0

; 39   :     DWORD dwRet = ERROR_SUCCESS;
; 40   :     CCameraPdd *pDD = new CCameraPdd();

  0000c	e3a00fca	 mov         r0, #0xCA, 30
  00010	eb000000	 bl          |??2@YAPAXI@Z|
  00014	e3500000	 cmp         r0, #0
  00018	0a000002	 beq         |$LN5@PDD_Init|
  0001c	eb000000	 bl          |??0CCameraPdd@@QAA@XZ|
  00020	e1a04000	 mov         r4, r0
  00024	ea000000	 b           |$LN6@PDD_Init|
  00028		 |$LN5@PDD_Init|
  00028	e3a04000	 mov         r4, #0
  0002c		 |$LN6@PDD_Init|

; 41   :     if ( pDD == NULL )

  0002c	e3540000	 cmp         r4, #0

; 42   :     {
; 43   :         return NULL;

  00030	0a000005	 beq         |$LN7@PDD_Init|

; 44   :     }
; 45   :     dwRet = pDD->PDDInit( MDDContext, pPDDFuncTbl );

  00034	e1a02005	 mov         r2, r5
  00038	e1a01006	 mov         r1, r6
  0003c	e1a00004	 mov         r0, r4
  00040	eb000000	 bl          |?PDDInit@CCameraPdd@@QAAKPAXPAU__PDD_FuncTbl@@@Z|
  00044	e3500000	 cmp         r0, #0

; 46   :     if( ERROR_SUCCESS != dwRet )

  00048	0a000000	 beq         |$LN1@PDD_Init|
  0004c		 |$LN7@PDD_Init|

; 47   :     {
; 48   :         return NULL;

  0004c	e3a04000	 mov         r4, #0
  00050		 |$LN1@PDD_Init|

; 49   :     }
; 50   :     return pDD;    
; 51   : 
; 52   : }

  00050	e1a00004	 mov         r0, r4
  00054	e8bd4070	 ldmia       sp!, {r4 - r6, lr}
  00058	e12fff1e	 bx          lr
  0005c		 |$M35098|

			 ENDP  ; |PDD_Init|

	EXPORT	|??_GCCameraPdd@@QAAPAXI@Z|		; CCameraPdd::`scalar deleting destructor'
	IMPORT	|??3@YAXPAX@Z|				; operator delete
	IMPORT	|??1CCameraPdd@@QAA@XZ|			; CCameraPdd::~CCameraPdd

  00000			 AREA	 |.pdata|, PDATA
|$T35111| DCD	|$LN6@scalar|
	DCD	0x40000a01
; Function compile flags: /Ogspy

  00000			 AREA	 |.text|, CODE, ARM

  00000		 |??_GCCameraPdd@@QAAPAXI@Z| PROC	; CCameraPdd::`scalar deleting destructor'
  00000		 |$LN6@scalar|
  00000	e92d4030	 stmdb       sp!, {r4, r5, lr}
  00004		 |$M35108|
  00004	e1a04001	 mov         r4, r1
  00008	e1a05000	 mov         r5, r0
  0000c	eb000000	 bl          |??1CCameraPdd@@QAA@XZ|
  00010	e3140001	 tst         r4, #1
  00014	11a00005	 movne       r0, r5
  00018	1b000000	 blne        |??3@YAXPAX@Z|
  0001c	e1a00005	 mov         r0, r5
  00020	e8bd4030	 ldmia       sp!, {r4, r5, lr}
  00024	e12fff1e	 bx          lr
  00028		 |$M35109|

			 ENDP  ; |??_GCCameraPdd@@QAAPAXI@Z|, CCameraPdd::`scalar deleting destructor'

	EXPORT	|PDD_GetAdapterInfo|
	IMPORT	|?GetAdapterInfo@CCameraPdd@@QAAKPAU_AdapterInfo@@@Z| ; CCameraPdd::GetAdapterInfo

  00000			 AREA	 |.pdata|, PDATA
|$T35122| DCD	|$LN6@PDD_GetAda|
	DCD	0x40000801
; Function compile flags: /Ogspy

  00000			 AREA	 |.text|, CODE, ARM

  00000		 |PDD_GetAdapterInfo| PROC

; 69   : {

  00000		 |$LN6@PDD_GetAda|
  00000	e52de004	 str         lr, [sp, #-4]!
  00004		 |$M35119|
  00004	e3500000	 cmp         r0, #0

; 70   :     CCameraPdd *pDD = (CCameraPdd *)PDDContext;
; 71   :     if( NULL == pDD )
; 72   :     {
; 73   :         return ERROR_INVALID_PARAMETER;

  00008	03a00057	 moveq       r0, #0x57

; 77   : }

  0000c	049de004	 ldreq       lr, [sp], #4
  00010	012fff1e	 bxeq        lr

; 74   :     }
; 75   : 
; 76   :     return pDD->GetAdapterInfo( pAdapterInfo );

  00014	eb000000	 bl          |?GetAdapterInfo@CCameraPdd@@QAAKPAU_AdapterInfo@@@Z|

; 77   : }

  00018	e49de004	 ldr         lr, [sp], #4
  0001c	e12fff1e	 bx          lr
  00020		 |$M35120|

			 ENDP  ; |PDD_GetAdapterInfo|

	EXPORT	|PDD_HandleVidProcAmpChanges|
	IMPORT	|?HandleVidProcAmpChanges@CCameraPdd@@QAAKKJJ@Z| ; CCameraPdd::HandleVidProcAmpChanges

  00000			 AREA	 |.pdata|, PDATA
|$T35135| DCD	|$LN6@PDD_Handle|
	DCD	0x40000801
; Function compile flags: /Ogspy

  00000			 AREA	 |.text|, CODE, ARM

  00000		 |PDD_HandleVidProcAmpChanges| PROC

; 80   : {

  00000		 |$LN6@PDD_Handle|
  00000	e52de004	 str         lr, [sp, #-4]!
  00004		 |$M35132|
  00004	e3500000	 cmp         r0, #0

; 81   :     CCameraPdd *pDD = (CCameraPdd *)PDDContext;
; 82   :     if ( pDD == NULL )
; 83   :     {
; 84   :         return ERROR_INVALID_PARAMETER;

  00008	03a00057	 moveq       r0, #0x57

; 88   : }

  0000c	049de004	 ldreq       lr, [sp], #4
  00010	012fff1e	 bxeq        lr

; 85   :     }
; 86   : 
; 87   :     return pDD->HandleVidProcAmpChanges( dwPropId, lFlags, lValue );

  00014	eb000000	 bl          |?HandleVidProcAmpChanges@CCameraPdd@@QAAKKJJ@Z|

; 88   : }

  00018	e49de004	 ldr         lr, [sp], #4
  0001c	e12fff1e	 bx          lr
  00020		 |$M35133|

			 ENDP  ; |PDD_HandleVidProcAmpChanges|

	EXPORT	|PDD_HandleCamControlChanges|
	IMPORT	|?HandleCamControlChanges@CCameraPdd@@QAAKKJJ@Z| ; CCameraPdd::HandleCamControlChanges

  00000			 AREA	 |.pdata|, PDATA
|$T35148| DCD	|$LN6@PDD_Handle@2|
	DCD	0x40000801
; Function compile flags: /Ogspy

  00000			 AREA	 |.text|, CODE, ARM

  00000		 |PDD_HandleCamControlChanges| PROC

; 91   : {    

  00000		 |$LN6@PDD_Handle@2|
  00000	e52de004	 str         lr, [sp, #-4]!
  00004		 |$M35145|
  00004	e3500000	 cmp         r0, #0

; 92   :     CCameraPdd *pDD = (CCameraPdd *)PDDContext;
; 93   :     if ( pDD == NULL )
; 94   :     {
; 95   :         return ERROR_INVALID_PARAMETER;

  00008	03a00057	 moveq       r0, #0x57

; 99   : }

  0000c	049de004	 ldreq       lr, [sp], #4
  00010	012fff1e	 bxeq        lr

; 96   :     }
; 97   : 
; 98   :     return pDD->HandleCamControlChanges( dwPropId, lFlags, lValue );

  00014	eb000000	 bl          |?HandleCamControlChanges@CCameraPdd@@QAAKKJJ@Z|

; 99   : }

  00018	e49de004	 ldr         lr, [sp], #4
  0001c	e12fff1e	 bx          lr
  00020		 |$M35146|

			 ENDP  ; |PDD_HandleCamControlChanges|

	EXPORT	|PDD_HandleVideoControlCapsChanges|
	IMPORT	|?HandleVideoControlCapsChanges@CCameraPdd@@QAAKJK@Z| ; CCameraPdd::HandleVideoControlCapsChanges

  00000			 AREA	 |.pdata|, PDATA
|$T35160| DCD	|$LN6@PDD_Handle@3|
	DCD	0x40000801
; Function compile flags: /Ogspy

  00000			 AREA	 |.text|, CODE, ARM

  00000		 |PDD_HandleVideoControlCapsChanges| PROC

; 102  : {

  00000		 |$LN6@PDD_Handle@3|
  00000	e52de004	 str         lr, [sp, #-4]!
  00004		 |$M35157|
  00004	e3500000	 cmp         r0, #0

; 103  :     CCameraPdd *pDD = (CCameraPdd *)PDDContext;
; 104  :     if ( pDD == NULL )
; 105  :     {
; 106  :         return ERROR_INVALID_PARAMETER;

  00008	03a00057	 moveq       r0, #0x57

; 110  : }

  0000c	049de004	 ldreq       lr, [sp], #4
  00010	012fff1e	 bxeq        lr

; 107  :     }
; 108  : 
; 109  :     return pDD->HandleVideoControlCapsChanges( lModeType, ulCaps );

  00014	eb000000	 bl          |?HandleVideoControlCapsChanges@CCameraPdd@@QAAKJK@Z|

; 110  : }

  00018	e49de004	 ldr         lr, [sp], #4
  0001c	e12fff1e	 bx          lr
  00020		 |$M35158|

			 ENDP  ; |PDD_HandleVideoControlCapsChanges|

	EXPORT	|PDD_SetPowerState|
	IMPORT	|?SetPowerState@CCameraPdd@@QAAKW4_CEDEVICE_POWER_STATE@@@Z| ; CCameraPdd::SetPowerState

  00000			 AREA	 |.pdata|, PDATA
|$T35171| DCD	|$LN6@PDD_SetPow|
	DCD	0x40000801
; Function compile flags: /Ogspy

  00000			 AREA	 |.text|, CODE, ARM

  00000		 |PDD_SetPowerState| PROC

; 113  : {

  00000		 |$LN6@PDD_SetPow|
  00000	e52de004	 str         lr, [sp, #-4]!
  00004		 |$M35168|
  00004	e3500000	 cmp         r0, #0

; 114  :     CCameraPdd *pDD = (CCameraPdd *)PDDContext;
; 115  :     if ( pDD == NULL )
; 116  :     {
; 117  :         return ERROR_INVALID_PARAMETER;

  00008	03a00057	 moveq       r0, #0x57

; 121  : }

  0000c	049de004	 ldreq       lr, [sp], #4
  00010	012fff1e	 bxeq        lr

; 118  :     }
; 119  : 
; 120  :     return pDD->SetPowerState( PowerState );

  00014	eb000000	 bl          |?SetPowerState@CCameraPdd@@QAAKW4_CEDEVICE_POWER_STATE@@@Z|

; 121  : }

  00018	e49de004	 ldr         lr, [sp], #4
  0001c	e12fff1e	 bx          lr
  00020		 |$M35169|

			 ENDP  ; |PDD_SetPowerState|

	EXPORT	|PDD_HandleAdapterCustomProperties|
	IMPORT	|?HandleAdapterCustomProperties@CCameraPdd@@QAAKPAEK0KPAK@Z| ; CCameraPdd::HandleAdapterCustomProperties

  00000			 AREA	 |.pdata|, PDATA
|$T35184| DCD	|$LN6@PDD_Handle@4|
	DCD	0x40001002
; Function compile flags: /Ogspy

  00000			 AREA	 |.text|, CODE, ARM

  00000		 |PDD_HandleAdapterCustomProperties| PROC

; 125  : {

  00000		 |$LN6@PDD_Handle@4|
  00000	e92d4010	 stmdb       sp!, {r4, lr}
  00004	e24dd008	 sub         sp, sp, #8
  00008		 |$M35181|
  00008	e1a0e002	 mov         lr, r2
  0000c	e1a04001	 mov         r4, r1
  00010	e3500000	 cmp         r0, #0

; 126  :     CCameraPdd *pDD = (CCameraPdd *)PDDContext;
; 127  :     if ( pDD == NULL )
; 128  :     {
; 129  :         return ERROR_INVALID_PARAMETER;
; 130  :     }
; 131  : 
; 132  :     return pDD->HandleAdapterCustomProperties( pInBuf, InBufLen, pOutBuf, OutBufLen, pdwBytesTransferred );

  00014	159d2014	 ldrne       r2, [sp, #0x14]
  00018	159d1010	 ldrne       r1, [sp, #0x10]
  0001c	03a00057	 moveq       r0, #0x57
  00020	158d2004	 strne       r2, [sp, #4]
  00024	158d1000	 strne       r1, [sp]
  00028	11a0200e	 movne       r2, lr
  0002c	11a01004	 movne       r1, r4
  00030	1b000000	 blne        |?HandleAdapterCustomProperties@CCameraPdd@@QAAKPAEK0KPAK@Z|

; 133  : }

  00034	e28dd008	 add         sp, sp, #8
  00038	e8bd4010	 ldmia       sp!, {r4, lr}
  0003c	e12fff1e	 bx          lr
  00040		 |$M35182|

			 ENDP  ; |PDD_HandleAdapterCustomProperties|

	EXPORT	|PDD_InitSensorMode|
	IMPORT	|?InitSensorMode@CCameraPdd@@QAAKKPAX@Z| ; CCameraPdd::InitSensorMode

  00000			 AREA	 |.pdata|, PDATA
|$T35196| DCD	|$LN6@PDD_InitSe|
	DCD	0x40000801
; Function compile flags: /Ogspy

  00000			 AREA	 |.text|, CODE, ARM

  00000		 |PDD_InitSensorMode| PROC

; 137  : {

  00000		 |$LN6@PDD_InitSe|
  00000	e52de004	 str         lr, [sp, #-4]!
  00004		 |$M35193|
  00004	e3500000	 cmp         r0, #0

; 138  :     CCameraPdd *pDD = (CCameraPdd *)PDDContext;
; 139  :     if ( pDD == NULL )
; 140  :     {
; 141  :         return ERROR_INVALID_PARAMETER;

  00008	03a00057	 moveq       r0, #0x57

; 145  : }

  0000c	049de004	 ldreq       lr, [sp], #4
  00010	012fff1e	 bxeq        lr

; 142  :     }
; 143  : 
; 144  :     return pDD->InitSensorMode( ulModeType, ModeContext );

  00014	eb000000	 bl          |?InitSensorMode@CCameraPdd@@QAAKKPAX@Z|

; 145  : }

  00018	e49de004	 ldr         lr, [sp], #4
  0001c	e12fff1e	 bx          lr
  00020		 |$M35194|

			 ENDP  ; |PDD_InitSensorMode|

	EXPORT	|PDD_DeInitSensorMode|
	IMPORT	|?DeInitSensorMode@CCameraPdd@@QAAKK@Z|	; CCameraPdd::DeInitSensorMode

  00000			 AREA	 |.pdata|, PDATA
|$T35207| DCD	|$LN6@PDD_DeInit|
	DCD	0x40000801
; Function compile flags: /Ogspy

  00000			 AREA	 |.text|, CODE, ARM

  00000		 |PDD_DeInitSensorMode| PROC

; 148  : {

  00000		 |$LN6@PDD_DeInit|
  00000	e52de004	 str         lr, [sp, #-4]!
  00004		 |$M35204|
  00004	e3500000	 cmp         r0, #0

; 149  :     CCameraPdd *pDD = (CCameraPdd *)PDDContext;
; 150  :     if ( pDD == NULL )
; 151  :     {
; 152  :         return ERROR_INVALID_PARAMETER;

  00008	03a00057	 moveq       r0, #0x57

; 156  : }

  0000c	049de004	 ldreq       lr, [sp], #4
  00010	012fff1e	 bxeq        lr

; 153  :     }
; 154  : 
; 155  :     return pDD->DeInitSensorMode( ulModeType );

  00014	eb000000	 bl          |?DeInitSensorMode@CCameraPdd@@QAAKK@Z|

; 156  : }

  00018	e49de004	 ldr         lr, [sp], #4
  0001c	e12fff1e	 bx          lr
  00020		 |$M35205|

			 ENDP  ; |PDD_DeInitSensorMode|

	EXPORT	|PDD_SetSensorState|
	IMPORT	|?SetSensorState@CCameraPdd@@QAAKKW4CSSTATE@@@Z| ; CCameraPdd::SetSensorState

  00000			 AREA	 |.pdata|, PDATA
|$T35219| DCD	|$LN6@PDD_SetSen|
	DCD	0x40000801
; Function compile flags: /Ogspy

  00000			 AREA	 |.text|, CODE, ARM

  00000		 |PDD_SetSensorState| PROC

; 159  : {

  00000		 |$LN6@PDD_SetSen|
  00000	e52de004	 str         lr, [sp, #-4]!
  00004		 |$M35216|
  00004	e3500000	 cmp         r0, #0

; 160  :     CCameraPdd *pDD = (CCameraPdd *)PDDContext;
; 161  :     if ( pDD == NULL )
; 162  :     {
; 163  :         return ERROR_INVALID_PARAMETER;

  00008	03a00057	 moveq       r0, #0x57

; 167  : }

  0000c	049de004	 ldreq       lr, [sp], #4
  00010	012fff1e	 bxeq        lr

; 164  :     }
; 165  : 
; 166  :     return pDD->SetSensorState( ulModeType, CsState );

  00014	eb000000	 bl          |?SetSensorState@CCameraPdd@@QAAKKW4CSSTATE@@@Z|

; 167  : }

  00018	e49de004	 ldr         lr, [sp], #4
  0001c	e12fff1e	 bx          lr
  00020		 |$M35217|

			 ENDP  ; |PDD_SetSensorState|

	EXPORT	|PDD_GetSensorModeInfo|
	IMPORT	|?GetSensorModeInfo@CCameraPdd@@QAAKKPAU_SensorModeInfo@@@Z| ; CCameraPdd::GetSensorModeInfo

  00000			 AREA	 |.pdata|, PDATA
|$T35231| DCD	|$LN6@PDD_GetSen|
	DCD	0x40000801
; Function compile flags: /Ogspy

  00000			 AREA	 |.text|, CODE, ARM

  00000		 |PDD_GetSensorModeInfo| PROC

; 170  : {

  00000		 |$LN6@PDD_GetSen|
  00000	e52de004	 str         lr, [sp, #-4]!
  00004		 |$M35228|
  00004	e3500000	 cmp         r0, #0

; 171  :     CCameraPdd *pDD = (CCameraPdd *)PDDContext;
; 172  :     if ( pDD == NULL )
; 173  :     {
; 174  :         return ERROR_INVALID_PARAMETER;

  00008	03a00057	 moveq       r0, #0x57

; 178  : }

  0000c	049de004	 ldreq       lr, [sp], #4
  00010	012fff1e	 bxeq        lr

; 175  :     }
; 176  : 
; 177  :     return pDD->GetSensorModeInfo( ulModeType, pSensorModeInfo );

  00014	eb000000	 bl          |?GetSensorModeInfo@CCameraPdd@@QAAKKPAU_SensorModeInfo@@@Z|

; 178  : }

  00018	e49de004	 ldr         lr, [sp], #4
  0001c	e12fff1e	 bx          lr
  00020		 |$M35229|

			 ENDP  ; |PDD_GetSensorModeInfo|

	EXPORT	|PDD_SetSensorModeFormat|
	IMPORT	|?SetSensorModeFormat@CCameraPdd@@QAAKKPAUtagCS_DATARANGE_VIDEO@@@Z| ; CCameraPdd::SetSensorModeFormat

  00000			 AREA	 |.pdata|, PDATA
|$T35243| DCD	|$LN6@PDD_SetSen@2|
	DCD	0x40000801
; Function compile flags: /Ogspy

  00000			 AREA	 |.text|, CODE, ARM

  00000		 |PDD_SetSensorModeFormat| PROC

; 181  : {

  00000		 |$LN6@PDD_SetSen@2|
  00000	e52de004	 str         lr, [sp, #-4]!
  00004		 |$M35240|
  00004	e3500000	 cmp         r0, #0

; 182  :     CCameraPdd *pDD = (CCameraPdd *)PDDContext;
; 183  :     if ( pDD == NULL )
; 184  :     {
; 185  :         return ERROR_INVALID_PARAMETER;

  00008	03a00057	 moveq       r0, #0x57

; 189  : }

  0000c	049de004	 ldreq       lr, [sp], #4
  00010	012fff1e	 bxeq        lr

; 186  :     }
; 187  : 
; 188  :     return pDD->SetSensorModeFormat( ulModeType, pCsDataRangeVideo );

  00014	eb000000	 bl          |?SetSensorModeFormat@CCameraPdd@@QAAKKPAUtagCS_DATARANGE_VIDEO@@@Z|

; 189  : }

  00018	e49de004	 ldr         lr, [sp], #4
  0001c	e12fff1e	 bx          lr
  00020		 |$M35241|

			 ENDP  ; |PDD_SetSensorModeFormat|

	EXPORT	|PDD_AllocateBuffer|
	IMPORT	|?AllocateBuffer@CCameraPdd@@QAAPAXK@Z|	; CCameraPdd::AllocateBuffer

  00000			 AREA	 |.pdata|, PDATA
|$T35254| DCD	|$LN6@PDD_Alloca|
	DCD	0x40000801
; Function compile flags: /Ogspy

  00000			 AREA	 |.text|, CODE, ARM

  00000		 |PDD_AllocateBuffer| PROC

; 192  : {

  00000		 |$LN6@PDD_Alloca|
  00000	e52de004	 str         lr, [sp, #-4]!
  00004		 |$M35251|
  00004	e3500000	 cmp         r0, #0

; 193  :     CCameraPdd *pDD = (CCameraPdd *)PDDContext;
; 194  :     if ( pDD == NULL )
; 195  :     {
; 196  :         return NULL;

  00008	03a00000	 moveq       r0, #0

; 200  : }

  0000c	049de004	 ldreq       lr, [sp], #4
  00010	012fff1e	 bxeq        lr

; 197  :     }
; 198  : 
; 199  :     return pDD->AllocateBuffer( ulModeType );

  00014	eb000000	 bl          |?AllocateBuffer@CCameraPdd@@QAAPAXK@Z|

; 200  : }

  00018	e49de004	 ldr         lr, [sp], #4
  0001c	e12fff1e	 bx          lr
  00020		 |$M35252|

			 ENDP  ; |PDD_AllocateBuffer|

	EXPORT	|PDD_DeAllocateBuffer|
	IMPORT	|?DeAllocateBuffer@CCameraPdd@@QAAKKPAX@Z| ; CCameraPdd::DeAllocateBuffer

  00000			 AREA	 |.pdata|, PDATA
|$T35266| DCD	|$LN6@PDD_DeAllo|
	DCD	0x40000801
; Function compile flags: /Ogspy

  00000			 AREA	 |.text|, CODE, ARM

  00000		 |PDD_DeAllocateBuffer| PROC

; 203  : {

  00000		 |$LN6@PDD_DeAllo|
  00000	e52de004	 str         lr, [sp, #-4]!
  00004		 |$M35263|
  00004	e3500000	 cmp         r0, #0

; 204  :     CCameraPdd *pDD = (CCameraPdd *)PDDContext;
; 205  :     if ( pDD == NULL )
; 206  :     {
; 207  :         return ERROR_INVALID_PARAMETER;

  00008	03a00057	 moveq       r0, #0x57

; 211  : }

  0000c	049de004	 ldreq       lr, [sp], #4
  00010	012fff1e	 bxeq        lr

; 208  :     }
; 209  : 
; 210  :     return pDD->DeAllocateBuffer( ulModeType, pBuffer );

  00014	eb000000	 bl          |?DeAllocateBuffer@CCameraPdd@@QAAKKPAX@Z|

; 211  : }

  00018	e49de004	 ldr         lr, [sp], #4
  0001c	e12fff1e	 bx          lr
  00020		 |$M35264|

			 ENDP  ; |PDD_DeAllocateBuffer|

	EXPORT	|PDD_RegisterClientBuffer|
	IMPORT	|?RegisterClientBuffer@CCameraPdd@@QAAKKPAX@Z| ; CCameraPdd::RegisterClientBuffer

  00000			 AREA	 |.pdata|, PDATA
|$T35278| DCD	|$LN6@PDD_Regist|
	DCD	0x40000801
; Function compile flags: /Ogspy

  00000			 AREA	 |.text|, CODE, ARM

  00000		 |PDD_RegisterClientBuffer| PROC

; 214  : {

  00000		 |$LN6@PDD_Regist|
  00000	e52de004	 str         lr, [sp, #-4]!
  00004		 |$M35275|
  00004	e3500000	 cmp         r0, #0

; 215  :     CCameraPdd *pDD = (CCameraPdd *)PDDContext;
; 216  :     if ( pDD == NULL )
; 217  :     {
; 218  :         return ERROR_INVALID_PARAMETER;

  00008	03a00057	 moveq       r0, #0x57

; 222  : }

  0000c	049de004	 ldreq       lr, [sp], #4
  00010	012fff1e	 bxeq        lr

; 219  :     }
; 220  : 
; 221  :     return pDD->RegisterClientBuffer( ulModeType, pBuffer );

  00014	eb000000	 bl          |?RegisterClientBuffer@CCameraPdd@@QAAKKPAX@Z|

; 222  : }

  00018	e49de004	 ldr         lr, [sp], #4
  0001c	e12fff1e	 bx          lr
  00020		 |$M35276|

			 ENDP  ; |PDD_RegisterClientBuffer|

	EXPORT	|PDD_UnRegisterClientBuffer|
	IMPORT	|?UnRegisterClientBuffer@CCameraPdd@@QAAKKPAX@Z| ; CCameraPdd::UnRegisterClientBuffer

  00000			 AREA	 |.pdata|, PDATA
|$T35290| DCD	|$LN6@PDD_UnRegi|
	DCD	0x40000801
; Function compile flags: /Ogspy

  00000			 AREA	 |.text|, CODE, ARM

  00000		 |PDD_UnRegisterClientBuffer| PROC

; 225  : {

  00000		 |$LN6@PDD_UnRegi|
  00000	e52de004	 str         lr, [sp, #-4]!
  00004		 |$M35287|
  00004	e3500000	 cmp         r0, #0

; 226  :     CCameraPdd *pDD = (CCameraPdd *)PDDContext;
; 227  :     if ( pDD == NULL )
; 228  :     {
; 229  :         return ERROR_INVALID_PARAMETER;

  00008	03a00057	 moveq       r0, #0x57

; 233  : }

  0000c	049de004	 ldreq       lr, [sp], #4
  00010	012fff1e	 bxeq        lr

; 230  :     }
; 231  : 
; 232  :     return pDD->UnRegisterClientBuffer( ulModeType, pBuffer );

  00014	eb000000	 bl          |?UnRegisterClientBuffer@CCameraPdd@@QAAKKPAX@Z|

; 233  : }

  00018	e49de004	 ldr         lr, [sp], #4
  0001c	e12fff1e	 bx          lr
  00020		 |$M35288|

			 ENDP  ; |PDD_UnRegisterClientBuffer|

	EXPORT	|PDD_FillBuffer|
	IMPORT	|?FillBuffer@CCameraPdd@@QAAKKPAE@Z|	; CCameraPdd::FillBuffer

  00000			 AREA	 |.pdata|, PDATA
|$T35302| DCD	|$LN6@PDD_FillBu|
	DCD	0x40000801
; Function compile flags: /Ogspy

  00000			 AREA	 |.text|, CODE, ARM

  00000		 |PDD_FillBuffer| PROC

; 236  : {

  00000		 |$LN6@PDD_FillBu|
  00000	e52de004	 str         lr, [sp, #-4]!
  00004		 |$M35299|
  00004	e3500000	 cmp         r0, #0

; 237  :     CCameraPdd *pDD = (CCameraPdd *)PDDContext;
; 238  :     if ( pDD == NULL )
; 239  :     {
; 240  :         return ERROR_INVALID_PARAMETER;

  00008	03a00057	 moveq       r0, #0x57

; 244  : }

  0000c	049de004	 ldreq       lr, [sp], #4
  00010	012fff1e	 bxeq        lr

; 241  :     }
; 242  : 
; 243  :     return pDD->FillBuffer( ulModeType, pImage );

  00014	eb000000	 bl          |?FillBuffer@CCameraPdd@@QAAKKPAE@Z|

; 244  : }

  00018	e49de004	 ldr         lr, [sp], #4
  0001c	e12fff1e	 bx          lr
  00020		 |$M35300|

			 ENDP  ; |PDD_FillBuffer|

	EXPORT	|PDD_HandleModeCustomProperties|
	IMPORT	|?HandleSensorModeCustomProperties@CCameraPdd@@QAAKKPAEK0KPAK@Z| ; CCameraPdd::HandleSensorModeCustomProperties

  00000			 AREA	 |.pdata|, PDATA
|$T35315| DCD	|$LN6@PDD_Handle@5|
	DCD	0x40001502
; Function compile flags: /Ogspy

  00000			 AREA	 |.text|, CODE, ARM

  00000		 |PDD_HandleModeCustomProperties| PROC

; 247  : {

  00000		 |$LN6@PDD_Handle@5|
  00000	e92d4030	 stmdb       sp!, {r4, r5, lr}
  00004	e24dd00c	 sub         sp, sp, #0xC
  00008		 |$M35312|
  00008	e1a0e003	 mov         lr, r3
  0000c	e1a04002	 mov         r4, r2
  00010	e1a05001	 mov         r5, r1
  00014	e3500000	 cmp         r0, #0

; 248  :     CCameraPdd *pDD = (CCameraPdd *)PDDContext;
; 249  :     if ( pDD == NULL )
; 250  :     {
; 251  :         return ERROR_INVALID_PARAMETER;

  00018	03a00057	 moveq       r0, #0x57
  0001c	0a000009	 beq         |$LN2@PDD_Handle@5|

; 252  :     }
; 253  : 
; 254  :     return pDD->HandleSensorModeCustomProperties( ulModeType, pInBuf, InBufLen, pOutBuf, OutBufLen, pdwBytesTransferred );

  00020	e59d3020	 ldr         r3, [sp, #0x20]
  00024	e59d201c	 ldr         r2, [sp, #0x1C]
  00028	e59d1018	 ldr         r1, [sp, #0x18]
  0002c	e58d3008	 str         r3, [sp, #8]
  00030	e58d2004	 str         r2, [sp, #4]
  00034	e58d1000	 str         r1, [sp]
  00038	e1a0300e	 mov         r3, lr
  0003c	e1a02004	 mov         r2, r4
  00040	e1a01005	 mov         r1, r5
  00044	eb000000	 bl          |?HandleSensorModeCustomProperties@CCameraPdd@@QAAKKPAEK0KPAK@Z|
  00048		 |$LN2@PDD_Handle@5|

; 255  : }

  00048	e28dd00c	 add         sp, sp, #0xC
  0004c	e8bd4030	 ldmia       sp!, {r4, r5, lr}
  00050	e12fff1e	 bx          lr
  00054		 |$M35313|

			 ENDP  ; |PDD_HandleModeCustomProperties|

	EXPORT	|PDD_DeInit|
	IMPORT	|?PDDDeinit@CCameraPdd@@QAAKXZ|		; CCameraPdd::PDDDeinit

  00000			 AREA	 |.pdata|, PDATA
|$T35334| DCD	|$LN11@PDD_DeInit@2|
	DCD	0x40000e01
; Function compile flags: /Ogspy

  00000			 AREA	 |.text|, CODE, ARM

  00000		 |PDD_DeInit| PROC

; 55   : {

  00000		 |$LN11@PDD_DeInit@2|
  00000	e92d4030	 stmdb       sp!, {r4, r5, lr}
  00004		 |$M35331|
  00004	e1b05000	 movs        r5, r0

; 56   :     DWORD dwRet = ERROR_SUCCESS;

  00008	e3a04000	 mov         r4, #0

; 57   :     CCameraPdd *pDD = (CCameraPdd *)PDDContext;
; 58   : 
; 59   :     if ( pDD != NULL )

  0000c	0a000006	 beq         |$LN4@PDD_DeInit@2|

; 60   :     {
; 61   :         dwRet = pDD->PDDDeinit( );

  00010	e1a00005	 mov         r0, r5
  00014	eb000000	 bl          |?PDDDeinit@CCameraPdd@@QAAKXZ|
  00018	e1a04000	 mov         r4, r0

; 62   :         delete pDD;

  0001c	e1a00005	 mov         r0, r5
  00020	eb000000	 bl          |??1CCameraPdd@@QAA@XZ|
  00024	e1a00005	 mov         r0, r5
  00028	eb000000	 bl          |??3@YAXPAX@Z|
  0002c		 |$LN4@PDD_DeInit@2|

; 63   :     }
; 64   :     
; 65   :     return dwRet;
; 66   : }

  0002c	e1a00004	 mov         r0, r4
  00030	e8bd4030	 ldmia       sp!, {r4, r5, lr}
  00034	e12fff1e	 bx          lr
  00038		 |$M35332|

			 ENDP  ; |PDD_DeInit|

	END
