; Listing generated by Microsoft (R) Optimizing Compiler Version 14.01.60511.01 

	TTL	C:\WINCE600\PLATFORM\EVM_OMAP3530\SRC\DRIVERS\CAMERA\PDD\util.cpp
	CODE32

  00000			 AREA	 |.drectve|, DRECTVE
	DCB	"-defaultlib:LIBCMT "
	DCB	"-defaultlib:OLDNAMES "

	EXPORT	|?ISP_InReg32@@YAHPCIPAI@Z|		; ISP_InReg32
; File c:\wince600\platform\evm_omap3530\src\drivers\camera\pdd\util.cpp

  00000			 AREA	 |.pdata|, PDATA
|$T38372| DCD	|$LN5@ISP_InReg3|
	DCD	0x40000400
; Function compile flags: /Ogspy

  00000			 AREA	 |.text|, CODE, ARM

  00000		 |?ISP_InReg32@@YAHPCIPAI@Z| PROC	; ISP_InReg32

; 16   : {

  00000		 |$LN5@ISP_InReg3|
  00000		 |$M38369|

; 17   :     *data = INREG32(address);

  00000	e5903000	 ldr         r3, [r0]

; 18   :         return TRUE;

  00004	e3a00001	 mov         r0, #1
  00008	e5813000	 str         r3, [r1]

; 19   : }

  0000c	e12fff1e	 bx          lr
  00010		 |$M38370|

			 ENDP  ; |?ISP_InReg32@@YAHPCIPAI@Z|, ISP_InReg32

	EXPORT	|?ISP_OutReg32@@YAHPCII@Z|		; ISP_OutReg32

  00000			 AREA	 |.pdata|, PDATA
|$T38383| DCD	|$LN5@ISP_OutReg|
	DCD	0x40000300
; Function compile flags: /Ogspy

  00000			 AREA	 |.text|, CODE, ARM

  00000		 |?ISP_OutReg32@@YAHPCII@Z| PROC	; ISP_OutReg32

; 31   : {

  00000		 |$LN5@ISP_OutReg|
  00000		 |$M38380|

; 32   : 
; 33   :     OUTREG32(address, value);

  00000	e5801000	 str         r1, [r0]

; 34   :         return TRUE;

  00004	e3a00001	 mov         r0, #1

; 35   : 
; 36   : }

  00008	e12fff1e	 bx          lr
  0000c		 |$M38381|

			 ENDP  ; |?ISP_OutReg32@@YAHPCII@Z|, ISP_OutReg32

	END
