; Listing generated by Microsoft (R) Optimizing Compiler Version 14.01.60511.01 

	TTL	C:\WINCE600\PLATFORM\COMMON\SRC\COMMON\INTR\BASE\map.c
	CODE32

  00000			 AREA	 |.drectve|, DRECTVE
	DCB	"-defaultlib:LIBCMT "
	DCB	"-defaultlib:OLDNAMES "

	EXPORT	|??_C@_1CE@HFBIALPK@?$AA?9?$AAO?$AAA?$AAL?$AAI?$AAn?$AAt?$AAr?$AAM?$AAa?$AAp?$AAI?$AAn?$AAi?$AAt?$AA?$AN?$AA?6?$AA?$AA@| [ DATA ] ; `string'
	EXPORT	|??_C@_1CE@LMNIPMAG@?$AA?$CL?$AAO?$AAA?$AAL?$AAI?$AAn?$AAt?$AAr?$AAM?$AAa?$AAp?$AAI?$AAn?$AAi?$AAt?$AA?$AN?$AA?6?$AA?$AA@| [ DATA ] ; `string'
	EXPORT	|OALIntrMapInit|
	IMPORT	|NKDbgPrintfW|
	IMPORT	|dpCurSettings|

  00000			 AREA	 |.bss|, NOINIT
|g_oalIrq2SysIntr| % 0x100
|g_oalSysIntr2Irq| % 0x120

  00000			 AREA	 |.pdata|, PDATA
|$T39300| DCD	|$LN15@OALIntrMap|
	DCD	0x40004a02
; File c:\wince600\platform\common\src\common\intr\base\map.c

  00000			 AREA	 |.rdata|, DATA, READONLY
|??_C@_1CE@HFBIALPK@?$AA?9?$AAO?$AAA?$AAL?$AAI?$AAn?$AAt?$AAr?$AAM?$AAa?$AAp?$AAI?$AAn?$AAi?$AAt?$AA?$AN?$AA?6?$AA?$AA@| DCB "-"
	DCB	0x0, "O", 0x0, "A", 0x0, "L", 0x0, "I", 0x0, "n", 0x0, "t"
	DCB	0x0, "r", 0x0, "M", 0x0, "a", 0x0, "p", 0x0, "I", 0x0, "n"
	DCB	0x0, "i", 0x0, "t", 0x0, 0xd, 0x0, 0xa, 0x0, 0x0, 0x0 ; `string'

  00000			 AREA	 |.rdata|, DATA, READONLY
|??_C@_1CE@LMNIPMAG@?$AA?$CL?$AAO?$AAA?$AAL?$AAI?$AAn?$AAt?$AAr?$AAM?$AAa?$AAp?$AAI?$AAn?$AAi?$AAt?$AA?$AN?$AA?6?$AA?$AA@| DCB "+"
	DCB	0x0, "O", 0x0, "A", 0x0, "L", 0x0, "I", 0x0, "n", 0x0, "t"
	DCB	0x0, "r", 0x0, "M", 0x0, "a", 0x0, "p", 0x0, "I", 0x0, "n"
	DCB	0x0, "i", 0x0, "t", 0x0, 0xd, 0x0, 0xa, 0x0, 0x0, 0x0 ; `string'
; Function compile flags: /Odtp

  00000			 AREA	 |.text|, CODE, ARM

  00000		 |OALIntrMapInit| PROC

; 40   : {

  00000		 |$LN15@OALIntrMap|
  00000	e52de004	 str         lr, [sp, #-4]!
  00004	e24dd00c	 sub         sp, sp, #0xC
  00008		 |$M39297|

; 41   :     UINT32 i;
; 42   : 
; 43   :     OALMSG(OAL_FUNC&&OAL_INTR, (L"+OALIntrMapInit\r\n"));

  00008	e59f3108	 ldr         r3, [pc, #0x108]
  0000c	e5933440	 ldr         r3, [r3, #0x440]
  00010	e3130004	 tst         r3, #4
  00014	0a000008	 beq         |$LN9@OALIntrMap|
  00018	e59f30f8	 ldr         r3, [pc, #0xF8]
  0001c	e5933440	 ldr         r3, [r3, #0x440]
  00020	e3130901	 tst         r3, #1, 18
  00024	0a000004	 beq         |$LN9@OALIntrMap|
  00028	e59f00f4	 ldr         r0, [pc, #0xF4]
  0002c	eb000000	 bl          NKDbgPrintfW
  00030	e3a03001	 mov         r3, #1
  00034	e58d3004	 str         r3, [sp, #4]
  00038	ea000001	 b           |$LN10@OALIntrMap|
  0003c		 |$LN9@OALIntrMap|
  0003c	e3a03000	 mov         r3, #0
  00040	e58d3004	 str         r3, [sp, #4]
  00044		 |$LN10@OALIntrMap|

; 44   : 
; 45   :     // Initialize interrupt maps
; 46   :     for (i = 0; i < SYSINTR_MAXIMUM; i++)

  00044	e3a03000	 mov         r3, #0
  00048	e58d3000	 str         r3, [sp]
  0004c	ea000002	 b           |$LN6@OALIntrMap|
  00050		 |$LN5@OALIntrMap|
  00050	e59d3000	 ldr         r3, [sp]
  00054	e2833001	 add         r3, r3, #1
  00058	e58d3000	 str         r3, [sp]
  0005c		 |$LN6@OALIntrMap|
  0005c	e59d3000	 ldr         r3, [sp]
  00060	e3530048	 cmp         r3, #0x48
  00064	2a000007	 bcs         |$LN4@OALIntrMap|

; 47   :         {
; 48   :         g_oalSysIntr2Irq[i] = OAL_INTR_IRQ_UNDEFINED;

  00068	e59d1000	 ldr         r1, [sp]
  0006c	e3a03004	 mov         r3, #4
  00070	e0020391	 mul         r2, r1, r3
  00074	e59f30a4	 ldr         r3, [pc, #0xA4]
  00078	e0832002	 add         r2, r3, r2
  0007c	e3e03000	 mvn         r3, #0
  00080	e5823000	 str         r3, [r2]

; 49   :         }

  00084	eafffff1	 b           |$LN5@OALIntrMap|
  00088		 |$LN4@OALIntrMap|

; 50   :     for (i = 0; i < OAL_INTR_IRQ_MAXIMUM; i++)

  00088	e3a03000	 mov         r3, #0
  0008c	e58d3000	 str         r3, [sp]
  00090	ea000002	 b           |$LN3@OALIntrMap|
  00094		 |$LN2@OALIntrMap|
  00094	e59d3000	 ldr         r3, [sp]
  00098	e2833001	 add         r3, r3, #1
  0009c	e58d3000	 str         r3, [sp]
  000a0		 |$LN3@OALIntrMap|
  000a0	e59d3000	 ldr         r3, [sp]
  000a4	e3530040	 cmp         r3, #0x40
  000a8	2a000007	 bcs         |$LN1@OALIntrMap|

; 51   :         {
; 52   :         g_oalIrq2SysIntr[i] = SYSINTR_UNDEFINED;

  000ac	e59d1000	 ldr         r1, [sp]
  000b0	e3a03004	 mov         r3, #4
  000b4	e0020391	 mul         r2, r1, r3
  000b8	e59f305c	 ldr         r3, [pc, #0x5C]
  000bc	e0832002	 add         r2, r3, r2
  000c0	e3e03000	 mvn         r3, #0
  000c4	e5823000	 str         r3, [r2]

; 53   :         }

  000c8	eafffff1	 b           |$LN2@OALIntrMap|
  000cc		 |$LN1@OALIntrMap|

; 54   : 
; 55   :     OALMSG(OAL_FUNC&&OAL_INTR, (L"-OALIntrMapInit\r\n"));

  000cc	e59f3044	 ldr         r3, [pc, #0x44]
  000d0	e5933440	 ldr         r3, [r3, #0x440]
  000d4	e3130004	 tst         r3, #4
  000d8	0a000008	 beq         |$LN11@OALIntrMap|
  000dc	e59f3034	 ldr         r3, [pc, #0x34]
  000e0	e5933440	 ldr         r3, [r3, #0x440]
  000e4	e3130901	 tst         r3, #1, 18
  000e8	0a000004	 beq         |$LN11@OALIntrMap|
  000ec	e59f0020	 ldr         r0, [pc, #0x20]
  000f0	eb000000	 bl          NKDbgPrintfW
  000f4	e3a03001	 mov         r3, #1
  000f8	e58d3008	 str         r3, [sp, #8]
  000fc	ea000001	 b           |$LN12@OALIntrMap|
  00100		 |$LN11@OALIntrMap|
  00100	e3a03000	 mov         r3, #0
  00104	e58d3008	 str         r3, [sp, #8]
  00108		 |$LN12@OALIntrMap|

; 56   : }

  00108	e28dd00c	 add         sp, sp, #0xC
  0010c	e49de004	 ldr         lr, [sp], #4
  00110	e12fff1e	 bx          lr
  00114		 |$LN16@OALIntrMap|
  00114		 |$LN17@OALIntrMap|
  00114	00000000	 DCD         |??_C@_1CE@HFBIALPK@?$AA?9?$AAO?$AAA?$AAL?$AAI?$AAn?$AAt?$AAr?$AAM?$AAa?$AAp?$AAI?$AAn?$AAi?$AAt?$AA?$AN?$AA?6?$AA?$AA@|
  00118		 |$LN18@OALIntrMap|
  00118	00000000	 DCD         |dpCurSettings|
  0011c		 |$LN19@OALIntrMap|
  0011c	00000000	 DCD         |g_oalIrq2SysIntr|
  00120		 |$LN20@OALIntrMap|
  00120	00000000	 DCD         |g_oalSysIntr2Irq|
  00124		 |$LN21@OALIntrMap|
  00124	00000000	 DCD         |??_C@_1CE@LMNIPMAG@?$AA?$CL?$AAO?$AAA?$AAL?$AAI?$AAn?$AAt?$AAr?$AAM?$AAa?$AAp?$AAI?$AAn?$AAi?$AAt?$AA?$AN?$AA?6?$AA?$AA@|
  00128		 |$M39298|

			 ENDP  ; |OALIntrMapInit|

	EXPORT	|??_C@_1DE@CBLJKBBB@?$AA?9?$AAO?$AAA?$AAL?$AAI?$AAn?$AAt?$AAr?$AAS?$AAt?$AAa?$AAt?$AAi?$AAc?$AAT?$AAr?$AAa?$AAn?$AAs?$AAl?$AAa?$AAt?$AAe?$AA?$AN?$AA?6?$AA?$AA@| [ DATA ] ; `string'
	EXPORT	|??_C@_1EE@DPKCCBO@?$AA?$CL?$AAO?$AAA?$AAL?$AAI?$AAn?$AAt?$AAr?$AAS?$AAt?$AAa?$AAt?$AAi?$AAc?$AAT?$AAr?$AAa?$AAn?$AAs?$AAl?$AAa?$AAt?$AAe?$AA?$CI?$AA?$CF?$AAd?$AA?0?$AA?5?$AA?$CF?$AAd?$AA?$CJ?$AA?$AN@| [ DATA ] ; `string'
	EXPORT	|OALIntrStaticTranslate|

  00008			 AREA	 |.pdata|, PDATA
|$T39315| DCD	|$LN10@OALIntrSta|
	DCD	0x40004004

  00000			 AREA	 |.rdata|, DATA, READONLY
|??_C@_1DE@CBLJKBBB@?$AA?9?$AAO?$AAA?$AAL?$AAI?$AAn?$AAt?$AAr?$AAS?$AAt?$AAa?$AAt?$AAi?$AAc?$AAT?$AAr?$AAa?$AAn?$AAs?$AAl?$AAa?$AAt?$AAe?$AA?$AN?$AA?6?$AA?$AA@| DCB "-"
	DCB	0x0, "O", 0x0, "A", 0x0, "L", 0x0, "I", 0x0, "n", 0x0, "t"
	DCB	0x0, "r", 0x0, "S", 0x0, "t", 0x0, "a", 0x0, "t", 0x0, "i"
	DCB	0x0, "c", 0x0, "T", 0x0, "r", 0x0, "a", 0x0, "n", 0x0, "s"
	DCB	0x0, "l", 0x0, "a", 0x0, "t", 0x0, "e", 0x0, 0xd, 0x0, 0xa
	DCB	0x0, 0x0, 0x0				; `string'

  00000			 AREA	 |.rdata|, DATA, READONLY
|??_C@_1EE@DPKCCBO@?$AA?$CL?$AAO?$AAA?$AAL?$AAI?$AAn?$AAt?$AAr?$AAS?$AAt?$AAa?$AAt?$AAi?$AAc?$AAT?$AAr?$AAa?$AAn?$AAs?$AAl?$AAa?$AAt?$AAe?$AA?$CI?$AA?$CF?$AAd?$AA?0?$AA?5?$AA?$CF?$AAd?$AA?$CJ?$AA?$AN@| DCB "+"
	DCB	0x0, "O", 0x0, "A", 0x0, "L", 0x0, "I", 0x0, "n", 0x0, "t"
	DCB	0x0, "r", 0x0, "S", 0x0, "t", 0x0, "a", 0x0, "t", 0x0, "i"
	DCB	0x0, "c", 0x0, "T", 0x0, "r", 0x0, "a", 0x0, "n", 0x0, "s"
	DCB	0x0, "l", 0x0, "a", 0x0, "t", 0x0, "e", 0x0, "(", 0x0, "%"
	DCB	0x0, "d", 0x0, ",", 0x0, " ", 0x0, "%", 0x0, "d", 0x0, ")"
	DCB	0x0, 0xd, 0x0, 0xa, 0x0, 0x0, 0x0	; `string'
; Function compile flags: /Odtp

  00128			 AREA	 |.text|, CODE, ARM

  00128		 |OALIntrStaticTranslate| PROC

; 71   : {

  00128		 |$LN10@OALIntrSta|
  00128	e1a0c00d	 mov         r12, sp
  0012c	e92d0003	 stmdb       sp!, {r0, r1}
  00130	e92d5000	 stmdb       sp!, {r12, lr}
  00134	e24dd008	 sub         sp, sp, #8
  00138		 |$M39312|

; 72   :     OALMSG(OAL_FUNC&&OAL_INTR, (
; 73   :         L"+OALIntrStaticTranslate(%d, %d)\r\n", sysIntr, irq
; 74   :         ));

  00138	e59f30d8	 ldr         r3, [pc, #0xD8]
  0013c	e5933440	 ldr         r3, [r3, #0x440]
  00140	e3130004	 tst         r3, #4
  00144	0a00000a	 beq         |$LN4@OALIntrSta|
  00148	e59f30c8	 ldr         r3, [pc, #0xC8]
  0014c	e5933440	 ldr         r3, [r3, #0x440]
  00150	e3130901	 tst         r3, #1, 18
  00154	0a000006	 beq         |$LN4@OALIntrSta|
  00158	e59d2014	 ldr         r2, [sp, #0x14]
  0015c	e59d1010	 ldr         r1, [sp, #0x10]
  00160	e59f00bc	 ldr         r0, [pc, #0xBC]
  00164	eb000000	 bl          NKDbgPrintfW
  00168	e3a03001	 mov         r3, #1
  0016c	e58d3000	 str         r3, [sp]
  00170	ea000001	 b           |$LN5@OALIntrSta|
  00174		 |$LN4@OALIntrSta|
  00174	e3a03000	 mov         r3, #0
  00178	e58d3000	 str         r3, [sp]
  0017c		 |$LN5@OALIntrSta|

; 75   :     
; 76   :     if ((irq < OAL_INTR_IRQ_MAXIMUM) && (sysIntr < SYSINTR_MAXIMUM))

  0017c	e59d3014	 ldr         r3, [sp, #0x14]
  00180	e3530040	 cmp         r3, #0x40
  00184	2a000010	 bcs         |$LN1@OALIntrSta|
  00188	e59d3010	 ldr         r3, [sp, #0x10]
  0018c	e3530048	 cmp         r3, #0x48
  00190	2a00000d	 bcs         |$LN1@OALIntrSta|

; 77   :         {
; 78   :         g_oalSysIntr2Irq[sysIntr] = irq;

  00194	e59d1010	 ldr         r1, [sp, #0x10]
  00198	e3a03004	 mov         r3, #4
  0019c	e0020391	 mul         r2, r1, r3
  001a0	e59f3078	 ldr         r3, [pc, #0x78]
  001a4	e0832002	 add         r2, r3, r2
  001a8	e59d3014	 ldr         r3, [sp, #0x14]
  001ac	e5823000	 str         r3, [r2]

; 79   :         g_oalIrq2SysIntr[irq] = sysIntr;

  001b0	e59d1014	 ldr         r1, [sp, #0x14]
  001b4	e3a03004	 mov         r3, #4
  001b8	e0020391	 mul         r2, r1, r3
  001bc	e59f3058	 ldr         r3, [pc, #0x58]
  001c0	e0832002	 add         r2, r3, r2
  001c4	e59d3010	 ldr         r3, [sp, #0x10]
  001c8	e5823000	 str         r3, [r2]
  001cc		 |$LN1@OALIntrSta|

; 80   :         }
; 81   :     OALMSG(OAL_FUNC&&OAL_INTR, (L"-OALIntrStaticTranslate\r\n"));

  001cc	e59f3044	 ldr         r3, [pc, #0x44]
  001d0	e5933440	 ldr         r3, [r3, #0x440]
  001d4	e3130004	 tst         r3, #4
  001d8	0a000008	 beq         |$LN6@OALIntrSta|
  001dc	e59f3034	 ldr         r3, [pc, #0x34]
  001e0	e5933440	 ldr         r3, [r3, #0x440]
  001e4	e3130901	 tst         r3, #1, 18
  001e8	0a000004	 beq         |$LN6@OALIntrSta|
  001ec	e59f0020	 ldr         r0, [pc, #0x20]
  001f0	eb000000	 bl          NKDbgPrintfW
  001f4	e3a03001	 mov         r3, #1
  001f8	e58d3004	 str         r3, [sp, #4]
  001fc	ea000001	 b           |$LN7@OALIntrSta|
  00200		 |$LN6@OALIntrSta|
  00200	e3a03000	 mov         r3, #0
  00204	e58d3004	 str         r3, [sp, #4]
  00208		 |$LN7@OALIntrSta|

; 82   : }

  00208	e28dd008	 add         sp, sp, #8
  0020c	e89d6000	 ldmia       sp, {sp, lr}
  00210	e12fff1e	 bx          lr
  00214		 |$LN11@OALIntrSta|
  00214		 |$LN12@OALIntrSta|
  00214	00000000	 DCD         |??_C@_1DE@CBLJKBBB@?$AA?9?$AAO?$AAA?$AAL?$AAI?$AAn?$AAt?$AAr?$AAS?$AAt?$AAa?$AAt?$AAi?$AAc?$AAT?$AAr?$AAa?$AAn?$AAs?$AAl?$AAa?$AAt?$AAe?$AA?$AN?$AA?6?$AA?$AA@|
  00218		 |$LN13@OALIntrSta|
  00218	00000000	 DCD         |dpCurSettings|
  0021c		 |$LN14@OALIntrSta|
  0021c	00000000	 DCD         |g_oalIrq2SysIntr|
  00220		 |$LN15@OALIntrSta|
  00220	00000000	 DCD         |g_oalSysIntr2Irq|
  00224		 |$LN16@OALIntrSta|
  00224	00000000	 DCD         |??_C@_1EE@DPKCCBO@?$AA?$CL?$AAO?$AAA?$AAL?$AAI?$AAn?$AAt?$AAr?$AAS?$AAt?$AAa?$AAt?$AAi?$AAc?$AAT?$AAr?$AAa?$AAn?$AAs?$AAl?$AAa?$AAt?$AAe?$AA?$CI?$AA?$CF?$AAd?$AA?0?$AA?5?$AA?$CF?$AAd?$AA?$CJ?$AA?$AN@|
  00228		 |$M39313|

			 ENDP  ; |OALIntrStaticTranslate|

	EXPORT	|??_C@_1EA@JDMBMDEN@?$AA?9?$AAO?$AAA?$AAL?$AAT?$AAr?$AAa?$AAn?$AAs?$AAl?$AAa?$AAt?$AAe?$AAS?$AAy?$AAs?$AAI?$AAn?$AAt?$AAr?$AA?$CI?$AAr?$AAc?$AA?5?$AA?$DN?$AA?5?$AA?$CF?$AAd?$AA?$CJ?$AA?$AN?$AA?6?$AA?$AA@| [ DATA ] ; `string'
	EXPORT	|??_C@_1DG@HAMHNOBJ@?$AA?$CL?$AAO?$AAA?$AAL?$AAT?$AAr?$AAa?$AAn?$AAs?$AAl?$AAa?$AAt?$AAe?$AAS?$AAy?$AAs?$AAI?$AAn?$AAt?$AAr?$AA?$CI?$AA?$CF?$AAd?$AA?$CJ?$AA?$AN?$AA?6?$AA?$AA@| [ DATA ] ; `string'
	EXPORT	|OALIntrTranslateSysIntr|

  00010			 AREA	 |.pdata|, PDATA
|$T39331| DCD	|$LN10@OALIntrTra|
	DCD	0x40004004

  00000			 AREA	 |.rdata|, DATA, READONLY
|??_C@_1EA@JDMBMDEN@?$AA?9?$AAO?$AAA?$AAL?$AAT?$AAr?$AAa?$AAn?$AAs?$AAl?$AAa?$AAt?$AAe?$AAS?$AAy?$AAs?$AAI?$AAn?$AAt?$AAr?$AA?$CI?$AAr?$AAc?$AA?5?$AA?$DN?$AA?5?$AA?$CF?$AAd?$AA?$CJ?$AA?$AN?$AA?6?$AA?$AA@| DCB "-"
	DCB	0x0, "O", 0x0, "A", 0x0, "L", 0x0, "T", 0x0, "r", 0x0, "a"
	DCB	0x0, "n", 0x0, "s", 0x0, "l", 0x0, "a", 0x0, "t", 0x0, "e"
	DCB	0x0, "S", 0x0, "y", 0x0, "s", 0x0, "I", 0x0, "n", 0x0, "t"
	DCB	0x0, "r", 0x0, "(", 0x0, "r", 0x0, "c", 0x0, " ", 0x0, "="
	DCB	0x0, " ", 0x0, "%", 0x0, "d", 0x0, ")", 0x0, 0xd, 0x0, 0xa
	DCB	0x0, 0x0, 0x0				; `string'

  00000			 AREA	 |.rdata|, DATA, READONLY
|??_C@_1DG@HAMHNOBJ@?$AA?$CL?$AAO?$AAA?$AAL?$AAT?$AAr?$AAa?$AAn?$AAs?$AAl?$AAa?$AAt?$AAe?$AAS?$AAy?$AAs?$AAI?$AAn?$AAt?$AAr?$AA?$CI?$AA?$CF?$AAd?$AA?$CJ?$AA?$AN?$AA?6?$AA?$AA@| DCB "+"
	DCB	0x0, "O", 0x0, "A", 0x0, "L", 0x0, "T", 0x0, "r", 0x0, "a"
	DCB	0x0, "n", 0x0, "s", 0x0, "l", 0x0, "a", 0x0, "t", 0x0, "e"
	DCB	0x0, "S", 0x0, "y", 0x0, "s", 0x0, "I", 0x0, "n", 0x0, "t"
	DCB	0x0, "r", 0x0, "(", 0x0, "%", 0x0, "d", 0x0, ")", 0x0, 0xd
	DCB	0x0, 0xa, 0x0, 0x0, 0x0			; `string'
; Function compile flags: /Odtp

  00228			 AREA	 |.text|, CODE, ARM

  00228		 |OALIntrTranslateSysIntr| PROC

; 93   : ) {

  00228		 |$LN10@OALIntrTra|
  00228	e1a0c00d	 mov         r12, sp
  0022c	e92d0007	 stmdb       sp!, {r0 - r2}
  00230	e92d5000	 stmdb       sp!, {r12, lr}
  00234	e24dd010	 sub         sp, sp, #0x10
  00238		 |$M39328|

; 94   :     BOOL rc;
; 95   : 
; 96   :     OALMSG(OAL_INTR&&OAL_VERBOSE, (L"+OALTranslateSysIntr(%d)\r\n", sysIntr));

  00238	e59f30dc	 ldr         r3, [pc, #0xDC]
  0023c	e5933440	 ldr         r3, [r3, #0x440]
  00240	e3130901	 tst         r3, #1, 18
  00244	0a000009	 beq         |$LN4@OALIntrTra|
  00248	e59f30cc	 ldr         r3, [pc, #0xCC]
  0024c	e5933440	 ldr         r3, [r3, #0x440]
  00250	e3130902	 tst         r3, #2, 18
  00254	0a000005	 beq         |$LN4@OALIntrTra|
  00258	e59d1018	 ldr         r1, [sp, #0x18]
  0025c	e59f00c0	 ldr         r0, [pc, #0xC0]
  00260	eb000000	 bl          NKDbgPrintfW
  00264	e3a03001	 mov         r3, #1
  00268	e58d3008	 str         r3, [sp, #8]
  0026c	ea000001	 b           |$LN5@OALIntrTra|
  00270		 |$LN4@OALIntrTra|
  00270	e3a03000	 mov         r3, #0
  00274	e58d3008	 str         r3, [sp, #8]
  00278		 |$LN5@OALIntrTra|

; 97   : 
; 98   :     // Valid SYSINTR?
; 99   :     if (sysIntr >= SYSINTR_MAXIMUM)

  00278	e59d3018	 ldr         r3, [sp, #0x18]
  0027c	e3530048	 cmp         r3, #0x48
  00280	3a000002	 bcc         |$LN1@OALIntrTra|

; 100  :         {
; 101  :         rc = FALSE;

  00284	e3a03000	 mov         r3, #0
  00288	e58d3000	 str         r3, [sp]

; 102  :         goto cleanUp;

  0028c	ea00000b	 b           |$cleanUp$39164|
  00290		 |$LN1@OALIntrTra|

; 103  :         }
; 104  :     *pCount = 1;

  00290	e59d201c	 ldr         r2, [sp, #0x1C]
  00294	e3a03001	 mov         r3, #1
  00298	e5823000	 str         r3, [r2]

; 105  :     *ppIrqs = &g_oalSysIntr2Irq[sysIntr];

  0029c	e59d1018	 ldr         r1, [sp, #0x18]
  002a0	e3a03004	 mov         r3, #4
  002a4	e0020391	 mul         r2, r1, r3
  002a8	e59f3070	 ldr         r3, [pc, #0x70]
  002ac	e0832002	 add         r2, r3, r2
  002b0	e59d3020	 ldr         r3, [sp, #0x20]
  002b4	e5832000	 str         r2, [r3]

; 106  :     rc = TRUE;

  002b8	e3a03001	 mov         r3, #1
  002bc	e58d3000	 str         r3, [sp]
  002c0		 |$cleanUp$39164|

; 107  : 
; 108  : cleanUp:
; 109  :     OALMSG(OAL_INTR&&OAL_VERBOSE, (L"-OALTranslateSysIntr(rc = %d)\r\n", rc));

  002c0	e59f3054	 ldr         r3, [pc, #0x54]
  002c4	e5933440	 ldr         r3, [r3, #0x440]
  002c8	e3130901	 tst         r3, #1, 18
  002cc	0a000009	 beq         |$LN6@OALIntrTra|
  002d0	e59f3044	 ldr         r3, [pc, #0x44]
  002d4	e5933440	 ldr         r3, [r3, #0x440]
  002d8	e3130902	 tst         r3, #2, 18
  002dc	0a000005	 beq         |$LN6@OALIntrTra|
  002e0	e59d1000	 ldr         r1, [sp]
  002e4	e59f002c	 ldr         r0, [pc, #0x2C]
  002e8	eb000000	 bl          NKDbgPrintfW
  002ec	e3a03001	 mov         r3, #1
  002f0	e58d300c	 str         r3, [sp, #0xC]
  002f4	ea000001	 b           |$LN7@OALIntrTra|
  002f8		 |$LN6@OALIntrTra|
  002f8	e3a03000	 mov         r3, #0
  002fc	e58d300c	 str         r3, [sp, #0xC]
  00300		 |$LN7@OALIntrTra|

; 110  :     return rc;

  00300	e59d3000	 ldr         r3, [sp]
  00304	e58d3004	 str         r3, [sp, #4]

; 111  : }

  00308	e59d0004	 ldr         r0, [sp, #4]
  0030c	e28dd010	 add         sp, sp, #0x10
  00310	e89d6000	 ldmia       sp, {sp, lr}
  00314	e12fff1e	 bx          lr
  00318		 |$LN11@OALIntrTra|
  00318		 |$LN12@OALIntrTra|
  00318	00000000	 DCD         |??_C@_1EA@JDMBMDEN@?$AA?9?$AAO?$AAA?$AAL?$AAT?$AAr?$AAa?$AAn?$AAs?$AAl?$AAa?$AAt?$AAe?$AAS?$AAy?$AAs?$AAI?$AAn?$AAt?$AAr?$AA?$CI?$AAr?$AAc?$AA?5?$AA?$DN?$AA?5?$AA?$CF?$AAd?$AA?$CJ?$AA?$AN?$AA?6?$AA?$AA@|
  0031c		 |$LN13@OALIntrTra|
  0031c	00000000	 DCD         |dpCurSettings|
  00320		 |$LN14@OALIntrTra|
  00320	00000000	 DCD         |g_oalSysIntr2Irq|
  00324		 |$LN15@OALIntrTra|
  00324	00000000	 DCD         |??_C@_1DG@HAMHNOBJ@?$AA?$CL?$AAO?$AAA?$AAL?$AAT?$AAr?$AAa?$AAn?$AAs?$AAl?$AAa?$AAt?$AAe?$AAS?$AAy?$AAs?$AAI?$AAn?$AAt?$AAr?$AA?$CI?$AA?$CF?$AAd?$AA?$CJ?$AA?$AN?$AA?6?$AA?$AA@|
  00328		 |$M39329|

			 ENDP  ; |OALIntrTranslateSysIntr|

	EXPORT	|??_C@_1EK@JOJPHPGP@?$AA?9?$AAO?$AAA?$AAL?$AAI?$AAn?$AAt?$AAr?$AAT?$AAr?$AAa?$AAn?$AAs?$AAl?$AAa?$AAt?$AAe?$AAI?$AAr?$AAq?$AA?$CI?$AAs?$AAy?$AAs?$AAI?$AAn?$AAt?$AAr?$AA?5?$AA?$DN?$AA?5?$AA?$CF@| [ DATA ] ; `string'
	EXPORT	|??_C@_1DG@IAFKCJEB@?$AA?$CL?$AAO?$AAA?$AAL?$AAI?$AAn?$AAt?$AAr?$AAT?$AAr?$AAa?$AAn?$AAs?$AAl?$AAa?$AAt?$AAe?$AAI?$AAr?$AAq?$AA?$CI?$AA?$CF?$AAd?$AA?$CJ?$AA?$AN?$AA?6?$AA?$AA@| [ DATA ] ; `string'
	EXPORT	|OALIntrTranslateIrq|

  00018			 AREA	 |.pdata|, PDATA
|$T39346| DCD	|$LN10@OALIntrTra@2|
	DCD	0x40003b04

  00000			 AREA	 |.rdata|, DATA, READONLY
|??_C@_1EK@JOJPHPGP@?$AA?9?$AAO?$AAA?$AAL?$AAI?$AAn?$AAt?$AAr?$AAT?$AAr?$AAa?$AAn?$AAs?$AAl?$AAa?$AAt?$AAe?$AAI?$AAr?$AAq?$AA?$CI?$AAs?$AAy?$AAs?$AAI?$AAn?$AAt?$AAr?$AA?5?$AA?$DN?$AA?5?$AA?$CF@| DCB "-"
	DCB	0x0, "O", 0x0, "A", 0x0, "L", 0x0, "I", 0x0, "n", 0x0, "t"
	DCB	0x0, "r", 0x0, "T", 0x0, "r", 0x0, "a", 0x0, "n", 0x0, "s"
	DCB	0x0, "l", 0x0, "a", 0x0, "t", 0x0, "e", 0x0, "I", 0x0, "r"
	DCB	0x0, "q", 0x0, "(", 0x0, "s", 0x0, "y", 0x0, "s", 0x0, "I"
	DCB	0x0, "n", 0x0, "t", 0x0, "r", 0x0, " ", 0x0, "=", 0x0, " "
	DCB	0x0, "%", 0x0, "d", 0x0, ")", 0x0, 0xd, 0x0, 0xa, 0x0, 0x0
	DCB	0x0					; `string'

  00000			 AREA	 |.rdata|, DATA, READONLY
|??_C@_1DG@IAFKCJEB@?$AA?$CL?$AAO?$AAA?$AAL?$AAI?$AAn?$AAt?$AAr?$AAT?$AAr?$AAa?$AAn?$AAs?$AAl?$AAa?$AAt?$AAe?$AAI?$AAr?$AAq?$AA?$CI?$AA?$CF?$AAd?$AA?$CJ?$AA?$AN?$AA?6?$AA?$AA@| DCB "+"
	DCB	0x0, "O", 0x0, "A", 0x0, "L", 0x0, "I", 0x0, "n", 0x0, "t"
	DCB	0x0, "r", 0x0, "T", 0x0, "r", 0x0, "a", 0x0, "n", 0x0, "s"
	DCB	0x0, "l", 0x0, "a", 0x0, "t", 0x0, "e", 0x0, "I", 0x0, "r"
	DCB	0x0, "q", 0x0, "(", 0x0, "%", 0x0, "d", 0x0, ")", 0x0, 0xd
	DCB	0x0, 0xa, 0x0, 0x0, 0x0			; `string'
; Function compile flags: /Odtp

  00328			 AREA	 |.text|, CODE, ARM

  00328		 |OALIntrTranslateIrq| PROC

; 124  : {

  00328		 |$LN10@OALIntrTra@2|
  00328	e1a0c00d	 mov         r12, sp
  0032c	e92d0001	 stmdb       sp!, {r0}
  00330	e92d5000	 stmdb       sp!, {r12, lr}
  00334	e24dd010	 sub         sp, sp, #0x10
  00338		 |$M39343|

; 125  :     UINT32 sysIntr = SYSINTR_UNDEFINED;

  00338	e3e03000	 mvn         r3, #0
  0033c	e58d3000	 str         r3, [sp]

; 126  : 
; 127  :     OALMSG(OAL_FUNC&&OAL_VERBOSE, (L"+OALIntrTranslateIrq(%d)\r\n", irq));

  00340	e59f30c0	 ldr         r3, [pc, #0xC0]
  00344	e5933440	 ldr         r3, [r3, #0x440]
  00348	e3130004	 tst         r3, #4
  0034c	0a000009	 beq         |$LN4@OALIntrTra@2|
  00350	e59f30b0	 ldr         r3, [pc, #0xB0]
  00354	e5933440	 ldr         r3, [r3, #0x440]
  00358	e3130902	 tst         r3, #2, 18
  0035c	0a000005	 beq         |$LN4@OALIntrTra@2|
  00360	e59d1018	 ldr         r1, [sp, #0x18]
  00364	e59f00a4	 ldr         r0, [pc, #0xA4]
  00368	eb000000	 bl          NKDbgPrintfW
  0036c	e3a03001	 mov         r3, #1
  00370	e58d3008	 str         r3, [sp, #8]
  00374	ea000001	 b           |$LN5@OALIntrTra@2|
  00378		 |$LN4@OALIntrTra@2|
  00378	e3a03000	 mov         r3, #0
  0037c	e58d3008	 str         r3, [sp, #8]
  00380		 |$LN5@OALIntrTra@2|

; 128  : 
; 129  :     if (irq >= OAL_INTR_IRQ_MAXIMUM) goto cleanUp;

  00380	e59d3018	 ldr         r3, [sp, #0x18]
  00384	e3530040	 cmp         r3, #0x40
  00388	3a000000	 bcc         |$LN1@OALIntrTra@2|
  0038c	ea000006	 b           |$cleanUp$39174|
  00390		 |$LN1@OALIntrTra@2|

; 130  :     sysIntr = g_oalIrq2SysIntr[irq];

  00390	e59d1018	 ldr         r1, [sp, #0x18]
  00394	e3a03004	 mov         r3, #4
  00398	e0020391	 mul         r2, r1, r3
  0039c	e59f3068	 ldr         r3, [pc, #0x68]
  003a0	e0833002	 add         r3, r3, r2
  003a4	e5933000	 ldr         r3, [r3]
  003a8	e58d3000	 str         r3, [sp]
  003ac		 |$cleanUp$39174|

; 131  : 
; 132  : cleanUp:
; 133  :     OALMSG(OAL_FUNC&&OAL_VERBOSE, (
; 134  :         L"-OALIntrTranslateIrq(sysIntr = %d)\r\n", sysIntr
; 135  :         ));

  003ac	e59f3054	 ldr         r3, [pc, #0x54]
  003b0	e5933440	 ldr         r3, [r3, #0x440]
  003b4	e3130004	 tst         r3, #4
  003b8	0a000009	 beq         |$LN6@OALIntrTra@2|
  003bc	e59f3044	 ldr         r3, [pc, #0x44]
  003c0	e5933440	 ldr         r3, [r3, #0x440]
  003c4	e3130902	 tst         r3, #2, 18
  003c8	0a000005	 beq         |$LN6@OALIntrTra@2|
  003cc	e59d1000	 ldr         r1, [sp]
  003d0	e59f002c	 ldr         r0, [pc, #0x2C]
  003d4	eb000000	 bl          NKDbgPrintfW
  003d8	e3a03001	 mov         r3, #1
  003dc	e58d300c	 str         r3, [sp, #0xC]
  003e0	ea000001	 b           |$LN7@OALIntrTra@2|
  003e4		 |$LN6@OALIntrTra@2|
  003e4	e3a03000	 mov         r3, #0
  003e8	e58d300c	 str         r3, [sp, #0xC]
  003ec		 |$LN7@OALIntrTra@2|

; 136  :     return sysIntr;

  003ec	e59d3000	 ldr         r3, [sp]
  003f0	e58d3004	 str         r3, [sp, #4]

; 137  : }

  003f4	e59d0004	 ldr         r0, [sp, #4]
  003f8	e28dd010	 add         sp, sp, #0x10
  003fc	e89d6000	 ldmia       sp, {sp, lr}
  00400	e12fff1e	 bx          lr
  00404		 |$LN11@OALIntrTra@2|
  00404		 |$LN12@OALIntrTra@2|
  00404	00000000	 DCD         |??_C@_1EK@JOJPHPGP@?$AA?9?$AAO?$AAA?$AAL?$AAI?$AAn?$AAt?$AAr?$AAT?$AAr?$AAa?$AAn?$AAs?$AAl?$AAa?$AAt?$AAe?$AAI?$AAr?$AAq?$AA?$CI?$AAs?$AAy?$AAs?$AAI?$AAn?$AAt?$AAr?$AA?5?$AA?$DN?$AA?5?$AA?$CF@|
  00408		 |$LN13@OALIntrTra@2|
  00408	00000000	 DCD         |dpCurSettings|
  0040c		 |$LN14@OALIntrTra@2|
  0040c	00000000	 DCD         |g_oalIrq2SysIntr|
  00410		 |$LN15@OALIntrTra@2|
  00410	00000000	 DCD         |??_C@_1DG@IAFKCJEB@?$AA?$CL?$AAO?$AAA?$AAL?$AAI?$AAn?$AAt?$AAr?$AAT?$AAr?$AAa?$AAn?$AAs?$AAl?$AAa?$AAt?$AAe?$AAI?$AAr?$AAq?$AA?$CI?$AA?$CF?$AAd?$AA?$CJ?$AA?$AN?$AA?6?$AA?$AA@|
  00414		 |$M39344|

			 ENDP  ; |OALIntrTranslateIrq|

	EXPORT	|??_C@_1EO@CCPDBEFN@?$AA?9?$AAO?$AAA?$AAL?$AAI?$AAn?$AAt?$AAr?$AAR?$AAe?$AAq?$AAu?$AAe?$AAs?$AAt?$AAS?$AAy?$AAs?$AAI?$AAn?$AAt?$AAr?$AA?$CI?$AAs?$AAy?$AAs?$AAI?$AAn?$AAt?$AAr?$AA?5?$AA?$DN@| [ DATA ] ; `string'
	EXPORT	|??_C@_1HE@LGNFBECO@?$AAE?$AAR?$AAR?$AAO?$AAR?$AA?3?$AA?5?$AAO?$AAA?$AAL?$AAI?$AAn?$AAt?$AAr?$AAR?$AAe?$AAq?$AAu?$AAe?$AAs?$AAt?$AAS?$AAy?$AAs?$AAI?$AAn?$AAt?$AAr?$AA?3?$AA?5?$AAN?$AAo@| [ DATA ] ; `string'
	EXPORT	|??_C@_1JG@CKDDKDGB@?$AAE?$AAR?$AAR?$AAO?$AAR?$AA?3?$AA?5?$AAO?$AAA?$AAL?$AAI?$AAn?$AAt?$AAr?$AAR?$AAe?$AAq?$AAu?$AAe?$AAs?$AAt?$AAS?$AAy?$AAs?$AAI?$AAn?$AAt?$AAr?$AA?3?$AA?5?$AAS?$AAt@| [ DATA ] ; `string'
	EXPORT	|??_C@_1FK@JNHCPMAP@?$AA?$CL?$AAO?$AAA?$AAL?$AAI?$AAn?$AAt?$AAr?$AAR?$AAe?$AAq?$AAu?$AAe?$AAs?$AAt?$AAS?$AAy?$AAs?$AAI?$AAn?$AAt?$AAr?$AA?$CI?$AA?$CF?$AAd?$AA?0?$AA?5?$AA0?$AAx?$AA?$CF?$AA0?$AA8@| [ DATA ] ; `string'
	EXPORT	|OALIntrRequestSysIntr|

  00020			 AREA	 |.pdata|, PDATA
|$T39365| DCD	|$LN26@OALIntrReq|
	DCD	0x4000a504

  00000			 AREA	 |.rdata|, DATA, READONLY
|??_C@_1EO@CCPDBEFN@?$AA?9?$AAO?$AAA?$AAL?$AAI?$AAn?$AAt?$AAr?$AAR?$AAe?$AAq?$AAu?$AAe?$AAs?$AAt?$AAS?$AAy?$AAs?$AAI?$AAn?$AAt?$AAr?$AA?$CI?$AAs?$AAy?$AAs?$AAI?$AAn?$AAt?$AAr?$AA?5?$AA?$DN@| DCB "-"
	DCB	0x0, "O", 0x0, "A", 0x0, "L", 0x0, "I", 0x0, "n", 0x0, "t"
	DCB	0x0, "r", 0x0, "R", 0x0, "e", 0x0, "q", 0x0, "u", 0x0, "e"
	DCB	0x0, "s", 0x0, "t", 0x0, "S", 0x0, "y", 0x0, "s", 0x0, "I"
	DCB	0x0, "n", 0x0, "t", 0x0, "r", 0x0, "(", 0x0, "s", 0x0, "y"
	DCB	0x0, "s", 0x0, "I", 0x0, "n", 0x0, "t", 0x0, "r", 0x0, " "
	DCB	0x0, "=", 0x0, " ", 0x0, "%", 0x0, "d", 0x0, ")", 0x0, 0xd
	DCB	0x0, 0xa, 0x0, 0x0, 0x0			; `string'

  00000			 AREA	 |.rdata|, DATA, READONLY
|??_C@_1HE@LGNFBECO@?$AAE?$AAR?$AAR?$AAO?$AAR?$AA?3?$AA?5?$AAO?$AAA?$AAL?$AAI?$AAn?$AAt?$AAr?$AAR?$AAe?$AAq?$AAu?$AAe?$AAs?$AAt?$AAS?$AAy?$AAs?$AAI?$AAn?$AAt?$AAr?$AA?3?$AA?5?$AAN?$AAo@| DCB "E"
	DCB	0x0, "R", 0x0, "R", 0x0, "O", 0x0, "R", 0x0, ":", 0x0, " "
	DCB	0x0, "O", 0x0, "A", 0x0, "L", 0x0, "I", 0x0, "n", 0x0, "t"
	DCB	0x0, "r", 0x0, "R", 0x0, "e", 0x0, "q", 0x0, "u", 0x0, "e"
	DCB	0x0, "s", 0x0, "t", 0x0, "S", 0x0, "y", 0x0, "s", 0x0, "I"
	DCB	0x0, "n", 0x0, "t", 0x0, "r", 0x0, ":", 0x0, " ", 0x0, "N"
	DCB	0x0, "o", 0x0, " ", 0x0, "a", 0x0, "v", 0x0, "a", 0x0, "i"
	DCB	0x0, "a", 0x0, "b", 0x0, "l", 0x0, "e", 0x0, " ", 0x0, "S"
	DCB	0x0, "Y", 0x0, "S", 0x0, "I", 0x0, "N", 0x0, "T", 0x0, "R"
	DCB	0x0, " ", 0x0, "f", 0x0, "o", 0x0, "u", 0x0, "n", 0x0, "d"
	DCB	0x0, 0xd, 0x0, 0xa, 0x0, 0x0, 0x0	; `string'

  00000			 AREA	 |.rdata|, DATA, READONLY
|??_C@_1JG@CKDDKDGB@?$AAE?$AAR?$AAR?$AAO?$AAR?$AA?3?$AA?5?$AAO?$AAA?$AAL?$AAI?$AAn?$AAt?$AAr?$AAR?$AAe?$AAq?$AAu?$AAe?$AAs?$AAt?$AAS?$AAy?$AAs?$AAI?$AAn?$AAt?$AAr?$AA?3?$AA?5?$AAS?$AAt@| DCB "E"
	DCB	0x0, "R", 0x0, "R", 0x0, "O", 0x0, "R", 0x0, ":", 0x0, " "
	DCB	0x0, "O", 0x0, "A", 0x0, "L", 0x0, "I", 0x0, "n", 0x0, "t"
	DCB	0x0, "r", 0x0, "R", 0x0, "e", 0x0, "q", 0x0, "u", 0x0, "e"
	DCB	0x0, "s", 0x0, "t", 0x0, "S", 0x0, "y", 0x0, "s", 0x0, "I"
	DCB	0x0, "n", 0x0, "t", 0x0, "r", 0x0, ":", 0x0, " ", 0x0, "S"
	DCB	0x0, "t", 0x0, "a", 0x0, "t", 0x0, "i", 0x0, "c", 0x0, " "
	DCB	0x0, "m", 0x0, "a", 0x0, "p", 0x0, "p", 0x0, "i", 0x0, "n"
	DCB	0x0, "g", 0x0, " ", 0x0, "f", 0x0, "o", 0x0, "r", 0x0, " "
	DCB	0x0, "I", 0x0, "R", 0x0, "Q", 0x0, " ", 0x0, "%", 0x0, "d"
	DCB	0x0, " ", 0x0, "a", 0x0, "l", 0x0, "r", 0x0, "e", 0x0, "a"
	DCB	0x0, "d", 0x0, "y", 0x0, " ", 0x0, "a", 0x0, "s", 0x0, "s"
	DCB	0x0, "i", 0x0, "g", 0x0, "n", 0x0, "e", 0x0, "d", 0x0, 0xd
	DCB	0x0, 0xa, 0x0, 0x0, 0x0			; `string'

  00000			 AREA	 |.rdata|, DATA, READONLY
|??_C@_1FK@JNHCPMAP@?$AA?$CL?$AAO?$AAA?$AAL?$AAI?$AAn?$AAt?$AAr?$AAR?$AAe?$AAq?$AAu?$AAe?$AAs?$AAt?$AAS?$AAy?$AAs?$AAI?$AAn?$AAt?$AAr?$AA?$CI?$AA?$CF?$AAd?$AA?0?$AA?5?$AA0?$AAx?$AA?$CF?$AA0?$AA8@| DCB "+"
	DCB	0x0, "O", 0x0, "A", 0x0, "L", 0x0, "I", 0x0, "n", 0x0, "t"
	DCB	0x0, "r", 0x0, "R", 0x0, "e", 0x0, "q", 0x0, "u", 0x0, "e"
	DCB	0x0, "s", 0x0, "t", 0x0, "S", 0x0, "y", 0x0, "s", 0x0, "I"
	DCB	0x0, "n", 0x0, "t", 0x0, "r", 0x0, "(", 0x0, "%", 0x0, "d"
	DCB	0x0, ",", 0x0, " ", 0x0, "0", 0x0, "x", 0x0, "%", 0x0, "0"
	DCB	0x0, "8", 0x0, "x", 0x0, ",", 0x0, " ", 0x0, "0", 0x0, "x"
	DCB	0x0, "%", 0x0, "0", 0x0, "8", 0x0, "x", 0x0, ")", 0x0, 0xd
	DCB	0x0, 0xa, 0x0, 0x0, 0x0			; `string'
; Function compile flags: /Odtp

  00414			 AREA	 |.text|, CODE, ARM

  00414		 |OALIntrRequestSysIntr| PROC

; 152  : {

  00414		 |$LN26@OALIntrReq|
  00414	e1a0c00d	 mov         r12, sp
  00418	e92d0007	 stmdb       sp!, {r0 - r2}
  0041c	e92d5000	 stmdb       sp!, {r12, lr}
  00420	e24dd01c	 sub         sp, sp, #0x1C
  00424		 |$M39362|

; 153  :     UINT32 irq, sysIntr;
; 154  : 
; 155  :     OALMSG(OAL_INTR&&OAL_FUNC, (
; 156  :         L"+OALIntrRequestSysIntr(%d, 0x%08x, 0x%08x)\r\n", count, pIrqs, flags
; 157  :         ));

  00424	e59f3264	 ldr         r3, [pc, #0x264]
  00428	e5933440	 ldr         r3, [r3, #0x440]
  0042c	e3130901	 tst         r3, #1, 18
  00430	0a00000b	 beq         |$LN16@OALIntrReq|
  00434	e59f3254	 ldr         r3, [pc, #0x254]
  00438	e5933440	 ldr         r3, [r3, #0x440]
  0043c	e3130004	 tst         r3, #4
  00440	0a000007	 beq         |$LN16@OALIntrReq|
  00444	e59d302c	 ldr         r3, [sp, #0x2C]
  00448	e59d2028	 ldr         r2, [sp, #0x28]
  0044c	e59d1024	 ldr         r1, [sp, #0x24]
  00450	e59f024c	 ldr         r0, [pc, #0x24C]
  00454	eb000000	 bl          NKDbgPrintfW
  00458	e3a03001	 mov         r3, #1
  0045c	e58d300c	 str         r3, [sp, #0xC]
  00460	ea000001	 b           |$LN17@OALIntrReq|
  00464		 |$LN16@OALIntrReq|
  00464	e3a03000	 mov         r3, #0
  00468	e58d300c	 str         r3, [sp, #0xC]
  0046c		 |$LN17@OALIntrReq|

; 158  : 
; 159  :     irq = pIrqs[0];

  0046c	e59d3028	 ldr         r3, [sp, #0x28]
  00470	e5933000	 ldr         r3, [r3]
  00474	e58d3004	 str         r3, [sp, #4]

; 160  : 
; 161  :     // Valid IRQ?
; 162  :     if (count != 1 || irq >= OAL_INTR_IRQ_MAXIMUM)

  00478	e59d3024	 ldr         r3, [sp, #0x24]
  0047c	e3530001	 cmp         r3, #1
  00480	1a000002	 bne         |$LN12@OALIntrReq|
  00484	e59d3004	 ldr         r3, [sp, #4]
  00488	e3530040	 cmp         r3, #0x40
  0048c	3a000002	 bcc         |$LN13@OALIntrReq|
  00490		 |$LN12@OALIntrReq|

; 163  :         {
; 164  :         sysIntr = SYSINTR_UNDEFINED;

  00490	e3e03000	 mvn         r3, #0
  00494	e58d3000	 str         r3, [sp]

; 165  :         goto cleanUp;

  00498	ea000065	 b           |$cleanUp$39190|
  0049c		 |$LN13@OALIntrReq|

; 166  :         }
; 167  : 
; 168  :     // If there is mapping for given irq check for special cases
; 169  :     if (g_oalIrq2SysIntr[irq] != SYSINTR_UNDEFINED)

  0049c	e59d1004	 ldr         r1, [sp, #4]
  004a0	e3a03004	 mov         r3, #4
  004a4	e0020391	 mul         r2, r1, r3
  004a8	e59f31e4	 ldr         r3, [pc, #0x1E4]
  004ac	e0833002	 add         r3, r3, r2
  004b0	e5933000	 ldr         r3, [r3]
  004b4	e3730001	 cmn         r3, #1
  004b8	0a00001c	 beq         |$LN11@OALIntrReq|

; 170  :         {
; 171  :         // If static mapping is requested we fail
; 172  :         if ((flags & OAL_INTR_STATIC) != 0)

  004bc	e59d302c	 ldr         r3, [sp, #0x2C]
  004c0	e3130002	 tst         r3, #2
  004c4	0a00000e	 beq         |$LN10@OALIntrReq|

; 173  :             {
; 174  :             OALMSG(OAL_ERROR, (L"ERROR: OALIntrRequestSysIntr: "
; 175  :                 L"Static mapping for IRQ %d already assigned\r\n", irq
; 176  :                 ));

  004c8	e59f31c0	 ldr         r3, [pc, #0x1C0]
  004cc	e5933440	 ldr         r3, [r3, #0x440]
  004d0	e3130001	 tst         r3, #1
  004d4	0a000005	 beq         |$LN18@OALIntrReq|
  004d8	e59d1004	 ldr         r1, [sp, #4]
  004dc	e59f01bc	 ldr         r0, [pc, #0x1BC]
  004e0	eb000000	 bl          NKDbgPrintfW
  004e4	e3a03001	 mov         r3, #1
  004e8	e58d3010	 str         r3, [sp, #0x10]
  004ec	ea000001	 b           |$LN19@OALIntrReq|
  004f0		 |$LN18@OALIntrReq|
  004f0	e3a03000	 mov         r3, #0
  004f4	e58d3010	 str         r3, [sp, #0x10]
  004f8		 |$LN19@OALIntrReq|

; 177  :             sysIntr = SYSINTR_UNDEFINED;

  004f8	e3e03000	 mvn         r3, #0
  004fc	e58d3000	 str         r3, [sp]

; 178  :             goto cleanUp;

  00500	ea00004b	 b           |$cleanUp$39190|
  00504		 |$LN10@OALIntrReq|

; 179  :             }
; 180  :         // If we should translate, return existing SYSINTR
; 181  :         if ((flags & OAL_INTR_TRANSLATE) != 0)

  00504	e59d302c	 ldr         r3, [sp, #0x2C]
  00508	e3130008	 tst         r3, #8
  0050c	0a000007	 beq         |$LN9@OALIntrReq|

; 182  :             {
; 183  :             sysIntr = g_oalIrq2SysIntr[irq];

  00510	e59d1004	 ldr         r1, [sp, #4]
  00514	e3a03004	 mov         r3, #4
  00518	e0020391	 mul         r2, r1, r3
  0051c	e59f3170	 ldr         r3, [pc, #0x170]
  00520	e0833002	 add         r3, r3, r2
  00524	e5933000	 ldr         r3, [r3]
  00528	e58d3000	 str         r3, [sp]

; 184  :             goto cleanUp;

  0052c	ea000040	 b           |$cleanUp$39190|
  00530		 |$LN9@OALIntrReq|
  00530		 |$LN11@OALIntrReq|

; 185  :             }
; 186  :         }
; 187  : 
; 188  :     // Find next available SYSINTR value...
; 189  :     for (sysIntr = SYSINTR_FIRMWARE; sysIntr < SYSINTR_MAXIMUM; sysIntr++)

  00530	e3a03010	 mov         r3, #0x10
  00534	e58d3000	 str         r3, [sp]
  00538	ea000002	 b           |$LN8@OALIntrReq|
  0053c		 |$LN7@OALIntrReq|
  0053c	e59d3000	 ldr         r3, [sp]
  00540	e2833001	 add         r3, r3, #1
  00544	e58d3000	 str         r3, [sp]
  00548		 |$LN8@OALIntrReq|
  00548	e59d3000	 ldr         r3, [sp]
  0054c	e3530048	 cmp         r3, #0x48
  00550	2a000009	 bcs         |$LN6@OALIntrReq|

; 190  :         {
; 191  :         if (g_oalSysIntr2Irq[sysIntr] == OAL_INTR_IRQ_UNDEFINED) break;

  00554	e59d1000	 ldr         r1, [sp]
  00558	e3a03004	 mov         r3, #4
  0055c	e0020391	 mul         r2, r1, r3
  00560	e59f3130	 ldr         r3, [pc, #0x130]
  00564	e0833002	 add         r3, r3, r2
  00568	e5933000	 ldr         r3, [r3]
  0056c	e3730001	 cmn         r3, #1
  00570	1a000000	 bne         |$LN5@OALIntrReq|
  00574	ea000000	 b           |$LN6@OALIntrReq|
  00578		 |$LN5@OALIntrReq|

; 192  :         }

  00578	eaffffef	 b           |$LN7@OALIntrReq|
  0057c		 |$LN6@OALIntrReq|

; 193  : 
; 194  :     // Any available SYSINTRs left?
; 195  :     if (sysIntr >= SYSINTR_MAXIMUM)

  0057c	e59d3000	 ldr         r3, [sp]
  00580	e3530048	 cmp         r3, #0x48
  00584	3a00000d	 bcc         |$LN4@OALIntrReq|

; 196  :         {
; 197  :         OALMSG(OAL_ERROR, (L"ERROR: OALIntrRequestSysIntr: "
; 198  :             L"No avaiable SYSINTR found\r\n"
; 199  :             ));

  00588	e59f3100	 ldr         r3, [pc, #0x100]
  0058c	e5933440	 ldr         r3, [r3, #0x440]
  00590	e3130001	 tst         r3, #1
  00594	0a000004	 beq         |$LN20@OALIntrReq|
  00598	e59f00fc	 ldr         r0, [pc, #0xFC]
  0059c	eb000000	 bl          NKDbgPrintfW
  005a0	e3a03001	 mov         r3, #1
  005a4	e58d3014	 str         r3, [sp, #0x14]
  005a8	ea000001	 b           |$LN21@OALIntrReq|
  005ac		 |$LN20@OALIntrReq|
  005ac	e3a03000	 mov         r3, #0
  005b0	e58d3014	 str         r3, [sp, #0x14]
  005b4		 |$LN21@OALIntrReq|

; 200  :         sysIntr = SYSINTR_UNDEFINED;

  005b4	e3e03000	 mvn         r3, #0
  005b8	e58d3000	 str         r3, [sp]

; 201  :         goto cleanUp;

  005bc	ea00001c	 b           |$cleanUp$39190|
  005c0		 |$LN4@OALIntrReq|

; 202  :         }
; 203  : 
; 204  :     // Make SYSINTR -> IRQ association.
; 205  :     g_oalSysIntr2Irq[sysIntr] = irq;

  005c0	e59d1000	 ldr         r1, [sp]
  005c4	e3a03004	 mov         r3, #4
  005c8	e0020391	 mul         r2, r1, r3
  005cc	e59f30c4	 ldr         r3, [pc, #0xC4]
  005d0	e0832002	 add         r2, r3, r2
  005d4	e59d3004	 ldr         r3, [sp, #4]
  005d8	e5823000	 str         r3, [r2]

; 206  : 
; 207  :     // Make IRQ -> SYSINTR association if required
; 208  :     if ((flags & OAL_INTR_DYNAMIC) != 0) goto cleanUp;

  005dc	e59d302c	 ldr         r3, [sp, #0x2C]
  005e0	e3130001	 tst         r3, #1
  005e4	0a000000	 beq         |$LN3@OALIntrReq|
  005e8	ea000011	 b           |$cleanUp$39190|
  005ec		 |$LN3@OALIntrReq|

; 209  :     if ((g_oalIrq2SysIntr[irq] == SYSINTR_UNDEFINED) ||
; 210  :         ((flags & OAL_INTR_FORCE_STATIC) != 0))

  005ec	e59d1004	 ldr         r1, [sp, #4]
  005f0	e3a03004	 mov         r3, #4
  005f4	e0020391	 mul         r2, r1, r3
  005f8	e59f3094	 ldr         r3, [pc, #0x94]
  005fc	e0833002	 add         r3, r3, r2
  00600	e5933000	 ldr         r3, [r3]
  00604	e3730001	 cmn         r3, #1
  00608	0a000002	 beq         |$LN1@OALIntrReq|
  0060c	e59d302c	 ldr         r3, [sp, #0x2C]
  00610	e3130004	 tst         r3, #4
  00614	0a000006	 beq         |$LN2@OALIntrReq|
  00618		 |$LN1@OALIntrReq|

; 211  :         {
; 212  :         g_oalIrq2SysIntr[irq] = sysIntr;

  00618	e59d1004	 ldr         r1, [sp, #4]
  0061c	e3a03004	 mov         r3, #4
  00620	e0020391	 mul         r2, r1, r3
  00624	e59f3068	 ldr         r3, [pc, #0x68]
  00628	e0832002	 add         r2, r3, r2
  0062c	e59d3000	 ldr         r3, [sp]
  00630	e5823000	 str         r3, [r2]
  00634		 |$LN2@OALIntrReq|
  00634		 |$cleanUp$39190|

; 213  :         }
; 214  : 
; 215  : cleanUp:
; 216  :     OALMSG(OAL_INTR&&OAL_FUNC, (
; 217  :         L"-OALIntrRequestSysIntr(sysIntr = %d)\r\n", sysIntr
; 218  :         ));

  00634	e59f3054	 ldr         r3, [pc, #0x54]
  00638	e5933440	 ldr         r3, [r3, #0x440]
  0063c	e3130901	 tst         r3, #1, 18
  00640	0a000009	 beq         |$LN22@OALIntrReq|
  00644	e59f3044	 ldr         r3, [pc, #0x44]
  00648	e5933440	 ldr         r3, [r3, #0x440]
  0064c	e3130004	 tst         r3, #4
  00650	0a000005	 beq         |$LN22@OALIntrReq|
  00654	e59d1000	 ldr         r1, [sp]
  00658	e59f002c	 ldr         r0, [pc, #0x2C]
  0065c	eb000000	 bl          NKDbgPrintfW
  00660	e3a03001	 mov         r3, #1
  00664	e58d3018	 str         r3, [sp, #0x18]
  00668	ea000001	 b           |$LN23@OALIntrReq|
  0066c		 |$LN22@OALIntrReq|
  0066c	e3a03000	 mov         r3, #0
  00670	e58d3018	 str         r3, [sp, #0x18]
  00674		 |$LN23@OALIntrReq|

; 219  :     return sysIntr;

  00674	e59d3000	 ldr         r3, [sp]
  00678	e58d3008	 str         r3, [sp, #8]

; 220  : }

  0067c	e59d0008	 ldr         r0, [sp, #8]
  00680	e28dd01c	 add         sp, sp, #0x1C
  00684	e89d6000	 ldmia       sp, {sp, lr}
  00688	e12fff1e	 bx          lr
  0068c		 |$LN27@OALIntrReq|
  0068c		 |$LN28@OALIntrReq|
  0068c	00000000	 DCD         |??_C@_1EO@CCPDBEFN@?$AA?9?$AAO?$AAA?$AAL?$AAI?$AAn?$AAt?$AAr?$AAR?$AAe?$AAq?$AAu?$AAe?$AAs?$AAt?$AAS?$AAy?$AAs?$AAI?$AAn?$AAt?$AAr?$AA?$CI?$AAs?$AAy?$AAs?$AAI?$AAn?$AAt?$AAr?$AA?5?$AA?$DN@|
  00690		 |$LN29@OALIntrReq|
  00690	00000000	 DCD         |dpCurSettings|
  00694		 |$LN30@OALIntrReq|
  00694	00000000	 DCD         |g_oalIrq2SysIntr|
  00698		 |$LN31@OALIntrReq|
  00698	00000000	 DCD         |g_oalSysIntr2Irq|
  0069c		 |$LN32@OALIntrReq|
  0069c	00000000	 DCD         |??_C@_1HE@LGNFBECO@?$AAE?$AAR?$AAR?$AAO?$AAR?$AA?3?$AA?5?$AAO?$AAA?$AAL?$AAI?$AAn?$AAt?$AAr?$AAR?$AAe?$AAq?$AAu?$AAe?$AAs?$AAt?$AAS?$AAy?$AAs?$AAI?$AAn?$AAt?$AAr?$AA?3?$AA?5?$AAN?$AAo@|
  006a0		 |$LN33@OALIntrReq|
  006a0	00000000	 DCD         |??_C@_1JG@CKDDKDGB@?$AAE?$AAR?$AAR?$AAO?$AAR?$AA?3?$AA?5?$AAO?$AAA?$AAL?$AAI?$AAn?$AAt?$AAr?$AAR?$AAe?$AAq?$AAu?$AAe?$AAs?$AAt?$AAS?$AAy?$AAs?$AAI?$AAn?$AAt?$AAr?$AA?3?$AA?5?$AAS?$AAt@|
  006a4		 |$LN34@OALIntrReq|
  006a4	00000000	 DCD         |??_C@_1FK@JNHCPMAP@?$AA?$CL?$AAO?$AAA?$AAL?$AAI?$AAn?$AAt?$AAr?$AAR?$AAe?$AAq?$AAu?$AAe?$AAs?$AAt?$AAS?$AAy?$AAs?$AAI?$AAn?$AAt?$AAr?$AA?$CI?$AA?$CF?$AAd?$AA?0?$AA?5?$AA0?$AAx?$AA?$CF?$AA0?$AA8@|
  006a8		 |$M39363|

			 ENDP  ; |OALIntrRequestSysIntr|

	EXPORT	|??_C@_1EE@GBADJBKJ@?$AA?9?$AAO?$AAA?$AAL?$AAI?$AAn?$AAt?$AAr?$AAR?$AAe?$AAl?$AAe?$AAa?$AAs?$AAe?$AAS?$AAy?$AAs?$AAI?$AAn?$AAt?$AAr?$AA?$CI?$AAr?$AAc?$AA?5?$AA?$DN?$AA?5?$AA?$CF?$AAd?$AA?$CJ?$AA?$AN@| [ DATA ] ; `string'
	EXPORT	|??_C@_1HC@BIEMDHNG@?$AAE?$AAR?$AAR?$AAO?$AAR?$AA?3?$AA?5?$AAO?$AAA?$AAL?$AAI?$AAn?$AAt?$AAr?$AAR?$AAe?$AAl?$AAe?$AAa?$AAs?$AAe?$AAS?$AAy?$AAs?$AAI?$AAn?$AAt?$AAr?$AA?3?$AA?5?$AAI?$AAn@| [ DATA ] ; `string'
	EXPORT	|??_C@_1DK@GDEEGDPM@?$AA?$CL?$AAO?$AAA?$AAL?$AAI?$AAn?$AAt?$AAr?$AAR?$AAe?$AAl?$AAe?$AAa?$AAs?$AAe?$AAS?$AAy?$AAs?$AAI?$AAn?$AAt?$AAr?$AA?$CI?$AA?$CF?$AAd?$AA?$CJ?$AA?$AN?$AA?6?$AA?$AA@| [ DATA ] ; `string'
	EXPORT	|OALIntrReleaseSysIntr|

  00028			 AREA	 |.pdata|, PDATA
|$T39385| DCD	|$LN15@OALIntrRel|
	DCD	0x40006e04

  00000			 AREA	 |.rdata|, DATA, READONLY
|??_C@_1EE@GBADJBKJ@?$AA?9?$AAO?$AAA?$AAL?$AAI?$AAn?$AAt?$AAr?$AAR?$AAe?$AAl?$AAe?$AAa?$AAs?$AAe?$AAS?$AAy?$AAs?$AAI?$AAn?$AAt?$AAr?$AA?$CI?$AAr?$AAc?$AA?5?$AA?$DN?$AA?5?$AA?$CF?$AAd?$AA?$CJ?$AA?$AN@| DCB "-"
	DCB	0x0, "O", 0x0, "A", 0x0, "L", 0x0, "I", 0x0, "n", 0x0, "t"
	DCB	0x0, "r", 0x0, "R", 0x0, "e", 0x0, "l", 0x0, "e", 0x0, "a"
	DCB	0x0, "s", 0x0, "e", 0x0, "S", 0x0, "y", 0x0, "s", 0x0, "I"
	DCB	0x0, "n", 0x0, "t", 0x0, "r", 0x0, "(", 0x0, "r", 0x0, "c"
	DCB	0x0, " ", 0x0, "=", 0x0, " ", 0x0, "%", 0x0, "d", 0x0, ")"
	DCB	0x0, 0xd, 0x0, 0xa, 0x0, 0x0, 0x0	; `string'

  00000			 AREA	 |.rdata|, DATA, READONLY
|??_C@_1HC@BIEMDHNG@?$AAE?$AAR?$AAR?$AAO?$AAR?$AA?3?$AA?5?$AAO?$AAA?$AAL?$AAI?$AAn?$AAt?$AAr?$AAR?$AAe?$AAl?$AAe?$AAa?$AAs?$AAe?$AAS?$AAy?$AAs?$AAI?$AAn?$AAt?$AAr?$AA?3?$AA?5?$AAI?$AAn@| DCB "E"
	DCB	0x0, "R", 0x0, "R", 0x0, "O", 0x0, "R", 0x0, ":", 0x0, " "
	DCB	0x0, "O", 0x0, "A", 0x0, "L", 0x0, "I", 0x0, "n", 0x0, "t"
	DCB	0x0, "r", 0x0, "R", 0x0, "e", 0x0, "l", 0x0, "e", 0x0, "a"
	DCB	0x0, "s", 0x0, "e", 0x0, "S", 0x0, "y", 0x0, "s", 0x0, "I"
	DCB	0x0, "n", 0x0, "t", 0x0, "r", 0x0, ":", 0x0, " ", 0x0, "I"
	DCB	0x0, "n", 0x0, "v", 0x0, "a", 0x0, "l", 0x0, "i", 0x0, "d"
	DCB	0x0, " ", 0x0, "s", 0x0, "y", 0x0, "s", 0x0, "I", 0x0, "n"
	DCB	0x0, "t", 0x0, "r", 0x0, " ", 0x0, "v", 0x0, "a", 0x0, "l"
	DCB	0x0, "u", 0x0, "e", 0x0, " ", 0x0, "%", 0x0, "d", 0x0, 0xd
	DCB	0x0, 0xa, 0x0, 0x0, 0x0			; `string'

  00000			 AREA	 |.rdata|, DATA, READONLY
|??_C@_1DK@GDEEGDPM@?$AA?$CL?$AAO?$AAA?$AAL?$AAI?$AAn?$AAt?$AAr?$AAR?$AAe?$AAl?$AAe?$AAa?$AAs?$AAe?$AAS?$AAy?$AAs?$AAI?$AAn?$AAt?$AAr?$AA?$CI?$AA?$CF?$AAd?$AA?$CJ?$AA?$AN?$AA?6?$AA?$AA@| DCB "+"
	DCB	0x0, "O", 0x0, "A", 0x0, "L", 0x0, "I", 0x0, "n", 0x0, "t"
	DCB	0x0, "r", 0x0, "R", 0x0, "e", 0x0, "l", 0x0, "e", 0x0, "a"
	DCB	0x0, "s", 0x0, "e", 0x0, "S", 0x0, "y", 0x0, "s", 0x0, "I"
	DCB	0x0, "n", 0x0, "t", 0x0, "r", 0x0, "(", 0x0, "%", 0x0, "d"
	DCB	0x0, ")", 0x0, 0xd, 0x0, 0xa, 0x0, 0x0, 0x0 ; `string'
; Function compile flags: /Odtp

  006a8			 AREA	 |.text|, CODE, ARM

  006a8		 |OALIntrReleaseSysIntr| PROC

; 232  : {

  006a8		 |$LN15@OALIntrRel|
  006a8	e1a0c00d	 mov         r12, sp
  006ac	e92d0001	 stmdb       sp!, {r0}
  006b0	e92d5000	 stmdb       sp!, {r12, lr}
  006b4	e24dd018	 sub         sp, sp, #0x18
  006b8		 |$M39382|

; 233  :     BOOL rc = FALSE;

  006b8	e3a03000	 mov         r3, #0
  006bc	e58d3000	 str         r3, [sp]

; 234  :     UINT32 irq;
; 235  : 
; 236  :     OALMSG(OAL_INTR&&OAL_FUNC, (L"+OALIntrReleaseSysIntr(%d)\r\n", sysIntr));

  006c0	e59f3184	 ldr         r3, [pc, #0x184]
  006c4	e5933440	 ldr         r3, [r3, #0x440]
  006c8	e3130901	 tst         r3, #1, 18
  006cc	0a000009	 beq         |$LN7@OALIntrRel|
  006d0	e59f3174	 ldr         r3, [pc, #0x174]
  006d4	e5933440	 ldr         r3, [r3, #0x440]
  006d8	e3130004	 tst         r3, #4
  006dc	0a000005	 beq         |$LN7@OALIntrRel|
  006e0	e59d1020	 ldr         r1, [sp, #0x20]
  006e4	e59f0170	 ldr         r0, [pc, #0x170]
  006e8	eb000000	 bl          NKDbgPrintfW
  006ec	e3a03001	 mov         r3, #1
  006f0	e58d300c	 str         r3, [sp, #0xC]
  006f4	ea000001	 b           |$LN8@OALIntrRel|
  006f8		 |$LN7@OALIntrRel|
  006f8	e3a03000	 mov         r3, #0
  006fc	e58d300c	 str         r3, [sp, #0xC]
  00700		 |$LN8@OALIntrRel|

; 237  : 
; 238  :     // is Valid sysIntr?
; 239  :     if ((sysIntr < SYSINTR_FIRMWARE) || (sysIntr >= SYSINTR_MAXIMUM))

  00700	e59d3020	 ldr         r3, [sp, #0x20]
  00704	e3530010	 cmp         r3, #0x10
  00708	3a000002	 bcc         |$LN3@OALIntrRel|
  0070c	e59d3020	 ldr         r3, [sp, #0x20]
  00710	e3530048	 cmp         r3, #0x48
  00714	3a00000c	 bcc         |$LN4@OALIntrRel|
  00718		 |$LN3@OALIntrRel|

; 240  :         {
; 241  :         OALMSG(OAL_ERROR, (L"ERROR: OALIntrReleaseSysIntr: "
; 242  :             L"Invalid sysIntr value %d\r\n", sysIntr
; 243  :             ));

  00718	e59f312c	 ldr         r3, [pc, #0x12C]
  0071c	e5933440	 ldr         r3, [r3, #0x440]
  00720	e3130001	 tst         r3, #1
  00724	0a000005	 beq         |$LN9@OALIntrRel|
  00728	e59d1020	 ldr         r1, [sp, #0x20]
  0072c	e59f0124	 ldr         r0, [pc, #0x124]
  00730	eb000000	 bl          NKDbgPrintfW
  00734	e3a03001	 mov         r3, #1
  00738	e58d3010	 str         r3, [sp, #0x10]
  0073c	ea000001	 b           |$LN10@OALIntrRel|
  00740		 |$LN9@OALIntrRel|
  00740	e3a03000	 mov         r3, #0
  00744	e58d3010	 str         r3, [sp, #0x10]
  00748		 |$LN10@OALIntrRel|

; 244  :         goto cleanUp;

  00748	ea000028	 b           |$cleanUp$39219|
  0074c		 |$LN4@OALIntrRel|

; 245  :         }
; 246  : 
; 247  :     // Is the SYSINTR already released?
; 248  :     if (g_oalSysIntr2Irq[sysIntr] == OAL_INTR_IRQ_UNDEFINED) goto cleanUp;

  0074c	e59d1020	 ldr         r1, [sp, #0x20]
  00750	e3a03004	 mov         r3, #4
  00754	e0020391	 mul         r2, r1, r3
  00758	e59f30f4	 ldr         r3, [pc, #0xF4]
  0075c	e0833002	 add         r3, r3, r2
  00760	e5933000	 ldr         r3, [r3]
  00764	e3730001	 cmn         r3, #1
  00768	1a000000	 bne         |$LN2@OALIntrRel|
  0076c	ea00001f	 b           |$cleanUp$39219|
  00770		 |$LN2@OALIntrRel|

; 249  : 
; 250  :     // Remove the SYSINTR -> IRQ mapping
; 251  :     irq = g_oalSysIntr2Irq[sysIntr];

  00770	e59d1020	 ldr         r1, [sp, #0x20]
  00774	e3a03004	 mov         r3, #4
  00778	e0020391	 mul         r2, r1, r3
  0077c	e59f30d0	 ldr         r3, [pc, #0xD0]
  00780	e0833002	 add         r3, r3, r2
  00784	e5933000	 ldr         r3, [r3]
  00788	e58d3004	 str         r3, [sp, #4]

; 252  :     g_oalSysIntr2Irq[sysIntr] = OAL_INTR_IRQ_UNDEFINED;

  0078c	e59d1020	 ldr         r1, [sp, #0x20]
  00790	e3a03004	 mov         r3, #4
  00794	e0020391	 mul         r2, r1, r3
  00798	e59f30b4	 ldr         r3, [pc, #0xB4]
  0079c	e0832002	 add         r2, r3, r2
  007a0	e3e03000	 mvn         r3, #0
  007a4	e5823000	 str         r3, [r2]

; 253  : 
; 254  :     // If we're releasing the SYSINTR directly mapped in the IRQ mapping,
; 255  :     // remove the IRQ mapping also
; 256  :     if (g_oalIrq2SysIntr[irq] == sysIntr)

  007a8	e59d1004	 ldr         r1, [sp, #4]
  007ac	e3a03004	 mov         r3, #4
  007b0	e0020391	 mul         r2, r1, r3
  007b4	e59f3094	 ldr         r3, [pc, #0x94]
  007b8	e0833002	 add         r3, r3, r2
  007bc	e5932000	 ldr         r2, [r3]
  007c0	e59d3020	 ldr         r3, [sp, #0x20]
  007c4	e1520003	 cmp         r2, r3
  007c8	1a000006	 bne         |$LN1@OALIntrRel|

; 257  :         {
; 258  :         g_oalIrq2SysIntr[irq] = SYSINTR_UNDEFINED;

  007cc	e59d1004	 ldr         r1, [sp, #4]
  007d0	e3a03004	 mov         r3, #4
  007d4	e0020391	 mul         r2, r1, r3
  007d8	e59f3070	 ldr         r3, [pc, #0x70]
  007dc	e0832002	 add         r2, r3, r2
  007e0	e3e03000	 mvn         r3, #0
  007e4	e5823000	 str         r3, [r2]
  007e8		 |$LN1@OALIntrRel|

; 259  :         }
; 260  : 
; 261  :     rc = TRUE;

  007e8	e3a03001	 mov         r3, #1
  007ec	e58d3000	 str         r3, [sp]
  007f0		 |$cleanUp$39219|

; 262  : 
; 263  : cleanUp:
; 264  :     OALMSG(OAL_INTR&&OAL_FUNC, (L"-OALIntrReleaseSysIntr(rc = %d)\r\n", rc));

  007f0	e59f3054	 ldr         r3, [pc, #0x54]
  007f4	e5933440	 ldr         r3, [r3, #0x440]
  007f8	e3130901	 tst         r3, #1, 18
  007fc	0a000009	 beq         |$LN11@OALIntrRel|
  00800	e59f3044	 ldr         r3, [pc, #0x44]
  00804	e5933440	 ldr         r3, [r3, #0x440]
  00808	e3130004	 tst         r3, #4
  0080c	0a000005	 beq         |$LN11@OALIntrRel|
  00810	e59d1000	 ldr         r1, [sp]
  00814	e59f002c	 ldr         r0, [pc, #0x2C]
  00818	eb000000	 bl          NKDbgPrintfW
  0081c	e3a03001	 mov         r3, #1
  00820	e58d3014	 str         r3, [sp, #0x14]
  00824	ea000001	 b           |$LN12@OALIntrRel|
  00828		 |$LN11@OALIntrRel|
  00828	e3a03000	 mov         r3, #0
  0082c	e58d3014	 str         r3, [sp, #0x14]
  00830		 |$LN12@OALIntrRel|

; 265  :     return rc;

  00830	e59d3000	 ldr         r3, [sp]
  00834	e58d3008	 str         r3, [sp, #8]

; 266  : }

  00838	e59d0008	 ldr         r0, [sp, #8]
  0083c	e28dd018	 add         sp, sp, #0x18
  00840	e89d6000	 ldmia       sp, {sp, lr}
  00844	e12fff1e	 bx          lr
  00848		 |$LN16@OALIntrRel|
  00848		 |$LN17@OALIntrRel|
  00848	00000000	 DCD         |??_C@_1EE@GBADJBKJ@?$AA?9?$AAO?$AAA?$AAL?$AAI?$AAn?$AAt?$AAr?$AAR?$AAe?$AAl?$AAe?$AAa?$AAs?$AAe?$AAS?$AAy?$AAs?$AAI?$AAn?$AAt?$AAr?$AA?$CI?$AAr?$AAc?$AA?5?$AA?$DN?$AA?5?$AA?$CF?$AAd?$AA?$CJ?$AA?$AN@|
  0084c		 |$LN18@OALIntrRel|
  0084c	00000000	 DCD         |dpCurSettings|
  00850		 |$LN19@OALIntrRel|
  00850	00000000	 DCD         |g_oalIrq2SysIntr|
  00854		 |$LN20@OALIntrRel|
  00854	00000000	 DCD         |g_oalSysIntr2Irq|
  00858		 |$LN21@OALIntrRel|
  00858	00000000	 DCD         |??_C@_1HC@BIEMDHNG@?$AAE?$AAR?$AAR?$AAO?$AAR?$AA?3?$AA?5?$AAO?$AAA?$AAL?$AAI?$AAn?$AAt?$AAr?$AAR?$AAe?$AAl?$AAe?$AAa?$AAs?$AAe?$AAS?$AAy?$AAs?$AAI?$AAn?$AAt?$AAr?$AA?3?$AA?5?$AAI?$AAn@|
  0085c		 |$LN22@OALIntrRel|
  0085c	00000000	 DCD         |??_C@_1DK@GDEEGDPM@?$AA?$CL?$AAO?$AAA?$AAL?$AAI?$AAn?$AAt?$AAr?$AAR?$AAe?$AAl?$AAe?$AAa?$AAs?$AAe?$AAS?$AAy?$AAs?$AAI?$AAn?$AAt?$AAr?$AA?$CI?$AA?$CF?$AAd?$AA?$CJ?$AA?$AN?$AA?6?$AA?$AA@|
  00860		 |$M39383|

			 ENDP  ; |OALIntrReleaseSysIntr|

	EXPORT	|??_C@_1DM@KHBFOEPK@?$AA?9?$AAO?$AAE?$AAM?$AAI?$AAn?$AAt?$AAe?$AAr?$AAr?$AAu?$AAp?$AAt?$AAE?$AAn?$AAa?$AAb?$AAl?$AAe?$AA?$CI?$AAr?$AAc?$AA?5?$AA?$DN?$AA?5?$AA1?$AA?$CJ?$AA?$AN?$AA?6?$AA?$AA@| [ DATA ] ; `string'
	EXPORT	|??_C@_1EI@HHGIJMMI@?$AA?$CL?$AAO?$AAE?$AAM?$AAI?$AAn?$AAt?$AAe?$AAr?$AAr?$AAu?$AAp?$AAt?$AAE?$AAn?$AAa?$AAb?$AAl?$AAe?$AA?$CI?$AA?$CF?$AAd?$AA?0?$AA?5?$AA0?$AAx?$AA?$CF?$AAx?$AA?0?$AA?5?$AA?$CF?$AAd@| [ DATA ] ; `string'
	EXPORT	|OEMInterruptEnable|
	IMPORT	|OALIntrEnableIrqs|

  00030			 AREA	 |.pdata|, PDATA
|$T39402| DCD	|$LN11@OEMInterru|
	DCD	0x40004404

  00000			 AREA	 |.rdata|, DATA, READONLY
|??_C@_1DM@KHBFOEPK@?$AA?9?$AAO?$AAE?$AAM?$AAI?$AAn?$AAt?$AAe?$AAr?$AAr?$AAu?$AAp?$AAt?$AAE?$AAn?$AAa?$AAb?$AAl?$AAe?$AA?$CI?$AAr?$AAc?$AA?5?$AA?$DN?$AA?5?$AA1?$AA?$CJ?$AA?$AN?$AA?6?$AA?$AA@| DCB "-"
	DCB	0x0, "O", 0x0, "E", 0x0, "M", 0x0, "I", 0x0, "n", 0x0, "t"
	DCB	0x0, "e", 0x0, "r", 0x0, "r", 0x0, "u", 0x0, "p", 0x0, "t"
	DCB	0x0, "E", 0x0, "n", 0x0, "a", 0x0, "b", 0x0, "l", 0x0, "e"
	DCB	0x0, "(", 0x0, "r", 0x0, "c", 0x0, " ", 0x0, "=", 0x0, " "
	DCB	0x0, "1", 0x0, ")", 0x0, 0xd, 0x0, 0xa, 0x0, 0x0, 0x0 ; `string'

  00000			 AREA	 |.rdata|, DATA, READONLY
|??_C@_1EI@HHGIJMMI@?$AA?$CL?$AAO?$AAE?$AAM?$AAI?$AAn?$AAt?$AAe?$AAr?$AAr?$AAu?$AAp?$AAt?$AAE?$AAn?$AAa?$AAb?$AAl?$AAe?$AA?$CI?$AA?$CF?$AAd?$AA?0?$AA?5?$AA0?$AAx?$AA?$CF?$AAx?$AA?0?$AA?5?$AA?$CF?$AAd@| DCB "+"
	DCB	0x0, "O", 0x0, "E", 0x0, "M", 0x0, "I", 0x0, "n", 0x0, "t"
	DCB	0x0, "e", 0x0, "r", 0x0, "r", 0x0, "u", 0x0, "p", 0x0, "t"
	DCB	0x0, "E", 0x0, "n", 0x0, "a", 0x0, "b", 0x0, "l", 0x0, "e"
	DCB	0x0, "(", 0x0, "%", 0x0, "d", 0x0, ",", 0x0, " ", 0x0, "0"
	DCB	0x0, "x", 0x0, "%", 0x0, "x", 0x0, ",", 0x0, " ", 0x0, "%"
	DCB	0x0, "d", 0x0, ")", 0x0, 0xd, 0x0, 0xa, 0x0, 0x0, 0x0 ; `string'
; Function compile flags: /Odtp

  00860			 AREA	 |.text|, CODE, ARM

  00860		 |OEMInterruptEnable| PROC

; 281  : {

  00860		 |$LN11@OEMInterru|
  00860	e1a0c00d	 mov         r12, sp
  00864	e92d0007	 stmdb       sp!, {r0 - r2}
  00868	e92d5000	 stmdb       sp!, {r12, lr}
  0086c	e24dd014	 sub         sp, sp, #0x14
  00870		 |$M39399|

; 282  :     BOOL rc = FALSE;

  00870	e3a03000	 mov         r3, #0
  00874	e58d3000	 str         r3, [sp]

; 283  : 
; 284  :     OALMSG(OAL_INTR&&OAL_VERBOSE, 
; 285  :         (L"+OEMInterruptEnable(%d, 0x%x, %d)\r\n", sysIntr, pData, dataSize
; 286  :         ));

  00878	e59f30e4	 ldr         r3, [pc, #0xE4]
  0087c	e5933440	 ldr         r3, [r3, #0x440]
  00880	e3130901	 tst         r3, #1, 18
  00884	0a00000b	 beq         |$LN5@OEMInterru|
  00888	e59f30d4	 ldr         r3, [pc, #0xD4]
  0088c	e5933440	 ldr         r3, [r3, #0x440]
  00890	e3130902	 tst         r3, #2, 18
  00894	0a000007	 beq         |$LN5@OEMInterru|
  00898	e59d3024	 ldr         r3, [sp, #0x24]
  0089c	e59d2020	 ldr         r2, [sp, #0x20]
  008a0	e59d101c	 ldr         r1, [sp, #0x1C]
  008a4	e59f00c0	 ldr         r0, [pc, #0xC0]
  008a8	eb000000	 bl          NKDbgPrintfW
  008ac	e3a03001	 mov         r3, #1
  008b0	e58d3008	 str         r3, [sp, #8]
  008b4	ea000001	 b           |$LN6@OEMInterru|
  008b8		 |$LN5@OEMInterru|
  008b8	e3a03000	 mov         r3, #0
  008bc	e58d3008	 str         r3, [sp, #8]
  008c0		 |$LN6@OEMInterru|

; 287  : 
; 288  :     // SYSINTR_VMINI & SYSINTR_TIMING are special cases
; 289  :     if ((sysIntr == SYSINTR_VMINI) || (sysIntr == SYSINTR_TIMING))

  008c0	e59d301c	 ldr         r3, [sp, #0x1C]
  008c4	e353000f	 cmp         r3, #0xF
  008c8	0a000002	 beq         |$LN1@OEMInterru|
  008cc	e59d301c	 ldr         r3, [sp, #0x1C]
  008d0	e353000a	 cmp         r3, #0xA
  008d4	1a000002	 bne         |$LN2@OEMInterru|
  008d8		 |$LN1@OEMInterru|

; 290  :         {
; 291  :         rc = TRUE;

  008d8	e3a03001	 mov         r3, #1
  008dc	e58d3000	 str         r3, [sp]

; 292  :         goto cleanUp;

  008e0	ea000009	 b           |$cleanUp$39236|
  008e4		 |$LN2@OEMInterru|

; 293  :         }
; 294  : 
; 295  :     // Enable interrupts
; 296  :     rc = OALIntrEnableIrqs(1, &g_oalSysIntr2Irq[sysIntr]);

  008e4	e59d101c	 ldr         r1, [sp, #0x1C]
  008e8	e3a03004	 mov         r3, #4
  008ec	e0020391	 mul         r2, r1, r3
  008f0	e59f3070	 ldr         r3, [pc, #0x70]
  008f4	e0831002	 add         r1, r3, r2
  008f8	e3a00001	 mov         r0, #1
  008fc	eb000000	 bl          OALIntrEnableIrqs
  00900	e58d000c	 str         r0, [sp, #0xC]
  00904	e59d300c	 ldr         r3, [sp, #0xC]
  00908	e58d3000	 str         r3, [sp]
  0090c		 |$cleanUp$39236|

; 297  : 
; 298  : cleanUp:    
; 299  :     OALMSG(OAL_INTR&&OAL_VERBOSE, (L"-OEMInterruptEnable(rc = 1)\r\n"));

  0090c	e59f3050	 ldr         r3, [pc, #0x50]
  00910	e5933440	 ldr         r3, [r3, #0x440]
  00914	e3130901	 tst         r3, #1, 18
  00918	0a000008	 beq         |$LN7@OEMInterru|
  0091c	e59f3040	 ldr         r3, [pc, #0x40]
  00920	e5933440	 ldr         r3, [r3, #0x440]
  00924	e3130902	 tst         r3, #2, 18
  00928	0a000004	 beq         |$LN7@OEMInterru|
  0092c	e59f002c	 ldr         r0, [pc, #0x2C]
  00930	eb000000	 bl          NKDbgPrintfW
  00934	e3a03001	 mov         r3, #1
  00938	e58d3010	 str         r3, [sp, #0x10]
  0093c	ea000001	 b           |$LN8@OEMInterru|
  00940		 |$LN7@OEMInterru|
  00940	e3a03000	 mov         r3, #0
  00944	e58d3010	 str         r3, [sp, #0x10]
  00948		 |$LN8@OEMInterru|

; 300  :     return rc;

  00948	e59d3000	 ldr         r3, [sp]
  0094c	e58d3004	 str         r3, [sp, #4]

; 301  : }

  00950	e59d0004	 ldr         r0, [sp, #4]
  00954	e28dd014	 add         sp, sp, #0x14
  00958	e89d6000	 ldmia       sp, {sp, lr}
  0095c	e12fff1e	 bx          lr
  00960		 |$LN12@OEMInterru|
  00960		 |$LN13@OEMInterru|
  00960	00000000	 DCD         |??_C@_1DM@KHBFOEPK@?$AA?9?$AAO?$AAE?$AAM?$AAI?$AAn?$AAt?$AAe?$AAr?$AAr?$AAu?$AAp?$AAt?$AAE?$AAn?$AAa?$AAb?$AAl?$AAe?$AA?$CI?$AAr?$AAc?$AA?5?$AA?$DN?$AA?5?$AA1?$AA?$CJ?$AA?$AN?$AA?6?$AA?$AA@|
  00964		 |$LN14@OEMInterru|
  00964	00000000	 DCD         |dpCurSettings|
  00968		 |$LN15@OEMInterru|
  00968	00000000	 DCD         |g_oalSysIntr2Irq|
  0096c		 |$LN16@OEMInterru|
  0096c	00000000	 DCD         |??_C@_1EI@HHGIJMMI@?$AA?$CL?$AAO?$AAE?$AAM?$AAI?$AAn?$AAt?$AAe?$AAr?$AAr?$AAu?$AAp?$AAt?$AAE?$AAn?$AAa?$AAb?$AAl?$AAe?$AA?$CI?$AA?$CF?$AAd?$AA?0?$AA?5?$AA0?$AAx?$AA?$CF?$AAx?$AA?0?$AA?5?$AA?$CF?$AAd@|
  00970		 |$M39400|

			 ENDP  ; |OEMInterruptEnable|

	EXPORT	|??_C@_1CO@FKOPLHGO@?$AA?9?$AAO?$AAE?$AAM?$AAI?$AAn?$AAt?$AAe?$AAr?$AAr?$AAu?$AAp?$AAt?$AAD?$AAi?$AAs?$AAa?$AAb?$AAl?$AAe?$AA?$AN?$AA?6?$AA?$AA@| [ DATA ] ; `string'
	EXPORT	|??_C@_1DG@HOKLDENP@?$AA?$CL?$AAO?$AAE?$AAM?$AAI?$AAn?$AAt?$AAe?$AAr?$AAr?$AAu?$AAp?$AAt?$AAD?$AAi?$AAs?$AAa?$AAb?$AAl?$AAe?$AA?$CI?$AA?$CF?$AAd?$AA?$CJ?$AA?$AN?$AA?6?$AA?$AA@| [ DATA ] ; `string'
	EXPORT	|OEMInterruptDisable|
	IMPORT	|OALIntrDisableIrqs|

  00038			 AREA	 |.pdata|, PDATA
|$T39416| DCD	|$LN9@OEMInterru@2|
	DCD	0x40003104

  00000			 AREA	 |.rdata|, DATA, READONLY
|??_C@_1CO@FKOPLHGO@?$AA?9?$AAO?$AAE?$AAM?$AAI?$AAn?$AAt?$AAe?$AAr?$AAr?$AAu?$AAp?$AAt?$AAD?$AAi?$AAs?$AAa?$AAb?$AAl?$AAe?$AA?$AN?$AA?6?$AA?$AA@| DCB "-"
	DCB	0x0, "O", 0x0, "E", 0x0, "M", 0x0, "I", 0x0, "n", 0x0, "t"
	DCB	0x0, "e", 0x0, "r", 0x0, "r", 0x0, "u", 0x0, "p", 0x0, "t"
	DCB	0x0, "D", 0x0, "i", 0x0, "s", 0x0, "a", 0x0, "b", 0x0, "l"
	DCB	0x0, "e", 0x0, 0xd, 0x0, 0xa, 0x0, 0x0, 0x0 ; `string'

  00000			 AREA	 |.rdata|, DATA, READONLY
|??_C@_1DG@HOKLDENP@?$AA?$CL?$AAO?$AAE?$AAM?$AAI?$AAn?$AAt?$AAe?$AAr?$AAr?$AAu?$AAp?$AAt?$AAD?$AAi?$AAs?$AAa?$AAb?$AAl?$AAe?$AA?$CI?$AA?$CF?$AAd?$AA?$CJ?$AA?$AN?$AA?6?$AA?$AA@| DCB "+"
	DCB	0x0, "O", 0x0, "E", 0x0, "M", 0x0, "I", 0x0, "n", 0x0, "t"
	DCB	0x0, "e", 0x0, "r", 0x0, "r", 0x0, "u", 0x0, "p", 0x0, "t"
	DCB	0x0, "D", 0x0, "i", 0x0, "s", 0x0, "a", 0x0, "b", 0x0, "l"
	DCB	0x0, "e", 0x0, "(", 0x0, "%", 0x0, "d", 0x0, ")", 0x0, 0xd
	DCB	0x0, 0xa, 0x0, 0x0, 0x0			; `string'
; Function compile flags: /Odtp

  00970			 AREA	 |.text|, CODE, ARM

  00970		 |OEMInterruptDisable| PROC

; 313  : {

  00970		 |$LN9@OEMInterru@2|
  00970	e1a0c00d	 mov         r12, sp
  00974	e92d0001	 stmdb       sp!, {r0}
  00978	e92d5000	 stmdb       sp!, {r12, lr}
  0097c	e24dd008	 sub         sp, sp, #8
  00980		 |$M39413|

; 314  :     OALMSG(OAL_INTR&&OAL_VERBOSE, (L"+OEMInterruptDisable(%d)\r\n", sysIntr));

  00980	e59f30a0	 ldr         r3, [pc, #0xA0]
  00984	e5933440	 ldr         r3, [r3, #0x440]
  00988	e3130901	 tst         r3, #1, 18
  0098c	0a000009	 beq         |$LN3@OEMInterru@2|
  00990	e59f3090	 ldr         r3, [pc, #0x90]
  00994	e5933440	 ldr         r3, [r3, #0x440]
  00998	e3130902	 tst         r3, #2, 18
  0099c	0a000005	 beq         |$LN3@OEMInterru@2|
  009a0	e59d1010	 ldr         r1, [sp, #0x10]
  009a4	e59f0084	 ldr         r0, [pc, #0x84]
  009a8	eb000000	 bl          NKDbgPrintfW
  009ac	e3a03001	 mov         r3, #1
  009b0	e58d3000	 str         r3, [sp]
  009b4	ea000001	 b           |$LN4@OEMInterru@2|
  009b8		 |$LN3@OEMInterru@2|
  009b8	e3a03000	 mov         r3, #0
  009bc	e58d3000	 str         r3, [sp]
  009c0		 |$LN4@OEMInterru@2|

; 315  : 
; 316  :     // Disable interrupts
; 317  :     OALIntrDisableIrqs(1, &g_oalSysIntr2Irq[sysIntr]);

  009c0	e59d1010	 ldr         r1, [sp, #0x10]
  009c4	e3a03004	 mov         r3, #4
  009c8	e0020391	 mul         r2, r1, r3
  009cc	e59f3058	 ldr         r3, [pc, #0x58]
  009d0	e0831002	 add         r1, r3, r2
  009d4	e3a00001	 mov         r0, #1
  009d8	eb000000	 bl          OALIntrDisableIrqs

; 318  : 
; 319  :     OALMSG(OAL_INTR&&OAL_VERBOSE, (L"-OEMInterruptDisable\r\n"));

  009dc	e59f3044	 ldr         r3, [pc, #0x44]
  009e0	e5933440	 ldr         r3, [r3, #0x440]
  009e4	e3130901	 tst         r3, #1, 18
  009e8	0a000008	 beq         |$LN5@OEMInterru@2|
  009ec	e59f3034	 ldr         r3, [pc, #0x34]
  009f0	e5933440	 ldr         r3, [r3, #0x440]
  009f4	e3130902	 tst         r3, #2, 18
  009f8	0a000004	 beq         |$LN5@OEMInterru@2|
  009fc	e59f0020	 ldr         r0, [pc, #0x20]
  00a00	eb000000	 bl          NKDbgPrintfW
  00a04	e3a03001	 mov         r3, #1
  00a08	e58d3004	 str         r3, [sp, #4]
  00a0c	ea000001	 b           |$LN6@OEMInterru@2|
  00a10		 |$LN5@OEMInterru@2|
  00a10	e3a03000	 mov         r3, #0
  00a14	e58d3004	 str         r3, [sp, #4]
  00a18		 |$LN6@OEMInterru@2|

; 320  : }

  00a18	e28dd008	 add         sp, sp, #8
  00a1c	e89d6000	 ldmia       sp, {sp, lr}
  00a20	e12fff1e	 bx          lr
  00a24		 |$LN10@OEMInterru@2|
  00a24		 |$LN11@OEMInterru@2|
  00a24	00000000	 DCD         |??_C@_1CO@FKOPLHGO@?$AA?9?$AAO?$AAE?$AAM?$AAI?$AAn?$AAt?$AAe?$AAr?$AAr?$AAu?$AAp?$AAt?$AAD?$AAi?$AAs?$AAa?$AAb?$AAl?$AAe?$AA?$AN?$AA?6?$AA?$AA@|
  00a28		 |$LN12@OEMInterru@2|
  00a28	00000000	 DCD         |dpCurSettings|
  00a2c		 |$LN13@OEMInterru@2|
  00a2c	00000000	 DCD         |g_oalSysIntr2Irq|
  00a30		 |$LN14@OEMInterru@2|
  00a30	00000000	 DCD         |??_C@_1DG@HOKLDENP@?$AA?$CL?$AAO?$AAE?$AAM?$AAI?$AAn?$AAt?$AAe?$AAr?$AAr?$AAu?$AAp?$AAt?$AAD?$AAi?$AAs?$AAa?$AAb?$AAl?$AAe?$AA?$CI?$AA?$CF?$AAd?$AA?$CJ?$AA?$AN?$AA?6?$AA?$AA@|
  00a34		 |$M39414|

			 ENDP  ; |OEMInterruptDisable|

	EXPORT	|??_C@_1CI@OPHGDEL@?$AA?9?$AAO?$AAE?$AAM?$AAI?$AAn?$AAt?$AAe?$AAr?$AAr?$AAu?$AAp?$AAt?$AAM?$AAa?$AAs?$AAk?$AA?$AN?$AA?6?$AA?$AA@| [ DATA ] ; `string'
	EXPORT	|??_C@_1DI@MFEEGIMP@?$AA?$CL?$AAO?$AAE?$AAM?$AAI?$AAn?$AAt?$AAe?$AAr?$AAr?$AAu?$AAp?$AAt?$AAM?$AAa?$AAs?$AAk?$AA?$CI?$AA?$CF?$AAd?$AA?0?$AA?5?$AA?$CF?$AAd?$AA?$CJ?$AA?$AN?$AA?6?$AA?$AA@| [ DATA ] ; `string'
	EXPORT	|OEMInterruptMask|

  00040			 AREA	 |.pdata|, PDATA
|$T39430| DCD	|$LN11@OEMInterru@3|
	DCD	0x40003d04

  00000			 AREA	 |.rdata|, DATA, READONLY
|??_C@_1CI@OPHGDEL@?$AA?9?$AAO?$AAE?$AAM?$AAI?$AAn?$AAt?$AAe?$AAr?$AAr?$AAu?$AAp?$AAt?$AAM?$AAa?$AAs?$AAk?$AA?$AN?$AA?6?$AA?$AA@| DCB "-"
	DCB	0x0, "O", 0x0, "E", 0x0, "M", 0x0, "I", 0x0, "n", 0x0, "t"
	DCB	0x0, "e", 0x0, "r", 0x0, "r", 0x0, "u", 0x0, "p", 0x0, "t"
	DCB	0x0, "M", 0x0, "a", 0x0, "s", 0x0, "k", 0x0, 0xd, 0x0, 0xa
	DCB	0x0, 0x0, 0x0				; `string'

  00000			 AREA	 |.rdata|, DATA, READONLY
|??_C@_1DI@MFEEGIMP@?$AA?$CL?$AAO?$AAE?$AAM?$AAI?$AAn?$AAt?$AAe?$AAr?$AAr?$AAu?$AAp?$AAt?$AAM?$AAa?$AAs?$AAk?$AA?$CI?$AA?$CF?$AAd?$AA?0?$AA?5?$AA?$CF?$AAd?$AA?$CJ?$AA?$AN?$AA?6?$AA?$AA@| DCB "+"
	DCB	0x0, "O", 0x0, "E", 0x0, "M", 0x0, "I", 0x0, "n", 0x0, "t"
	DCB	0x0, "e", 0x0, "r", 0x0, "r", 0x0, "u", 0x0, "p", 0x0, "t"
	DCB	0x0, "M", 0x0, "a", 0x0, "s", 0x0, "k", 0x0, "(", 0x0, "%"
	DCB	0x0, "d", 0x0, ",", 0x0, " ", 0x0, "%", 0x0, "d", 0x0, ")"
	DCB	0x0, 0xd, 0x0, 0xa, 0x0, 0x0, 0x0	; `string'
; Function compile flags: /Odtp

  00a34			 AREA	 |.text|, CODE, ARM

  00a34		 |OEMInterruptMask| PROC

; 334  : {

  00a34		 |$LN11@OEMInterru@3|
  00a34	e1a0c00d	 mov         r12, sp
  00a38	e92d0003	 stmdb       sp!, {r0, r1}
  00a3c	e92d5000	 stmdb       sp!, {r12, lr}
  00a40	e24dd008	 sub         sp, sp, #8
  00a44		 |$M39427|

; 335  :     OALMSG(OAL_INTR&&OAL_VERBOSE, (
; 336  :         L"+OEMInterruptMask(%d, %d)\r\n", sysIntr, mask
; 337  :         ));

  00a44	e59f30d0	 ldr         r3, [pc, #0xD0]
  00a48	e5933440	 ldr         r3, [r3, #0x440]
  00a4c	e3130901	 tst         r3, #1, 18
  00a50	0a00000a	 beq         |$LN5@OEMInterru@3|
  00a54	e59f30c0	 ldr         r3, [pc, #0xC0]
  00a58	e5933440	 ldr         r3, [r3, #0x440]
  00a5c	e3130902	 tst         r3, #2, 18
  00a60	0a000006	 beq         |$LN5@OEMInterru@3|
  00a64	e59d2014	 ldr         r2, [sp, #0x14]
  00a68	e59d1010	 ldr         r1, [sp, #0x10]
  00a6c	e59f00b0	 ldr         r0, [pc, #0xB0]
  00a70	eb000000	 bl          NKDbgPrintfW
  00a74	e3a03001	 mov         r3, #1
  00a78	e58d3000	 str         r3, [sp]
  00a7c	ea000001	 b           |$LN6@OEMInterru@3|
  00a80		 |$LN5@OEMInterru@3|
  00a80	e3a03000	 mov         r3, #0
  00a84	e58d3000	 str         r3, [sp]
  00a88		 |$LN6@OEMInterru@3|

; 338  : 
; 339  :     // Based on mask enable or disable
; 340  :     if (mask)

  00a88	e59d3014	 ldr         r3, [sp, #0x14]
  00a8c	e3530000	 cmp         r3, #0
  00a90	0a000007	 beq         |$LN2@OEMInterru@3|

; 341  :         {
; 342  :         OALIntrDisableIrqs(1, &g_oalSysIntr2Irq[sysIntr]);

  00a94	e59d1010	 ldr         r1, [sp, #0x10]
  00a98	e3a03004	 mov         r3, #4
  00a9c	e0020391	 mul         r2, r1, r3
  00aa0	e59f3078	 ldr         r3, [pc, #0x78]
  00aa4	e0831002	 add         r1, r3, r2
  00aa8	e3a00001	 mov         r0, #1
  00aac	eb000000	 bl          OALIntrDisableIrqs

; 343  :         }
; 344  :     else 

  00ab0	ea000006	 b           |$LN1@OEMInterru@3|
  00ab4		 |$LN2@OEMInterru@3|

; 345  :         {
; 346  :         OALIntrEnableIrqs(1, &g_oalSysIntr2Irq[sysIntr]);

  00ab4	e59d1010	 ldr         r1, [sp, #0x10]
  00ab8	e3a03004	 mov         r3, #4
  00abc	e0020391	 mul         r2, r1, r3
  00ac0	e59f3058	 ldr         r3, [pc, #0x58]
  00ac4	e0831002	 add         r1, r3, r2
  00ac8	e3a00001	 mov         r0, #1
  00acc	eb000000	 bl          OALIntrEnableIrqs
  00ad0		 |$LN1@OEMInterru@3|

; 347  :         }
; 348  : 
; 349  :     OALMSG(OAL_INTR&&OAL_VERBOSE, (L"-OEMInterruptMask\r\n"));

  00ad0	e59f3044	 ldr         r3, [pc, #0x44]
  00ad4	e5933440	 ldr         r3, [r3, #0x440]
  00ad8	e3130901	 tst         r3, #1, 18
  00adc	0a000008	 beq         |$LN7@OEMInterru@3|
  00ae0	e59f3034	 ldr         r3, [pc, #0x34]
  00ae4	e5933440	 ldr         r3, [r3, #0x440]
  00ae8	e3130902	 tst         r3, #2, 18
  00aec	0a000004	 beq         |$LN7@OEMInterru@3|
  00af0	e59f0020	 ldr         r0, [pc, #0x20]
  00af4	eb000000	 bl          NKDbgPrintfW
  00af8	e3a03001	 mov         r3, #1
  00afc	e58d3004	 str         r3, [sp, #4]
  00b00	ea000001	 b           |$LN8@OEMInterru@3|
  00b04		 |$LN7@OEMInterru@3|
  00b04	e3a03000	 mov         r3, #0
  00b08	e58d3004	 str         r3, [sp, #4]
  00b0c		 |$LN8@OEMInterru@3|

; 350  : }

  00b0c	e28dd008	 add         sp, sp, #8
  00b10	e89d6000	 ldmia       sp, {sp, lr}
  00b14	e12fff1e	 bx          lr
  00b18		 |$LN12@OEMInterru@3|
  00b18		 |$LN13@OEMInterru@3|
  00b18	00000000	 DCD         |??_C@_1CI@OPHGDEL@?$AA?9?$AAO?$AAE?$AAM?$AAI?$AAn?$AAt?$AAe?$AAr?$AAr?$AAu?$AAp?$AAt?$AAM?$AAa?$AAs?$AAk?$AA?$AN?$AA?6?$AA?$AA@|
  00b1c		 |$LN14@OEMInterru@3|
  00b1c	00000000	 DCD         |dpCurSettings|
  00b20		 |$LN15@OEMInterru@3|
  00b20	00000000	 DCD         |g_oalSysIntr2Irq|
  00b24		 |$LN16@OEMInterru@3|
  00b24	00000000	 DCD         |??_C@_1DI@MFEEGIMP@?$AA?$CL?$AAO?$AAE?$AAM?$AAI?$AAn?$AAt?$AAe?$AAr?$AAr?$AAu?$AAp?$AAt?$AAM?$AAa?$AAs?$AAk?$AA?$CI?$AA?$CF?$AAd?$AA?0?$AA?5?$AA?$CF?$AAd?$AA?$CJ?$AA?$AN?$AA?6?$AA?$AA@|
  00b28		 |$M39428|

			 ENDP  ; |OEMInterruptMask|

	EXPORT	|??_C@_1CI@IOEKFHHP@?$AA?9?$AAO?$AAE?$AAM?$AAI?$AAn?$AAt?$AAe?$AAr?$AAr?$AAu?$AAp?$AAt?$AAD?$AAo?$AAn?$AAe?$AA?$AN?$AA?6?$AA?$AA@| [ DATA ] ; `string'
	EXPORT	|??_C@_1DA@HAMHGFMF@?$AA?$CL?$AAO?$AAE?$AAM?$AAI?$AAn?$AAt?$AAe?$AAr?$AAr?$AAu?$AAp?$AAt?$AAD?$AAo?$AAn?$AAe?$AA?$CI?$AA?$CF?$AAd?$AA?$CJ?$AA?$AN?$AA?6?$AA?$AA@| [ DATA ] ; `string'
	EXPORT	|OEMInterruptDone|
	IMPORT	|OALIntrDoneIrqs|

  00048			 AREA	 |.pdata|, PDATA
|$T39444| DCD	|$LN9@OEMInterru@4|
	DCD	0x40003104

  00000			 AREA	 |.rdata|, DATA, READONLY
|??_C@_1CI@IOEKFHHP@?$AA?9?$AAO?$AAE?$AAM?$AAI?$AAn?$AAt?$AAe?$AAr?$AAr?$AAu?$AAp?$AAt?$AAD?$AAo?$AAn?$AAe?$AA?$AN?$AA?6?$AA?$AA@| DCB "-"
	DCB	0x0, "O", 0x0, "E", 0x0, "M", 0x0, "I", 0x0, "n", 0x0, "t"
	DCB	0x0, "e", 0x0, "r", 0x0, "r", 0x0, "u", 0x0, "p", 0x0, "t"
	DCB	0x0, "D", 0x0, "o", 0x0, "n", 0x0, "e", 0x0, 0xd, 0x0, 0xa
	DCB	0x0, 0x0, 0x0				; `string'

  00000			 AREA	 |.rdata|, DATA, READONLY
|??_C@_1DA@HAMHGFMF@?$AA?$CL?$AAO?$AAE?$AAM?$AAI?$AAn?$AAt?$AAe?$AAr?$AAr?$AAu?$AAp?$AAt?$AAD?$AAo?$AAn?$AAe?$AA?$CI?$AA?$CF?$AAd?$AA?$CJ?$AA?$AN?$AA?6?$AA?$AA@| DCB "+"
	DCB	0x0, "O", 0x0, "E", 0x0, "M", 0x0, "I", 0x0, "n", 0x0, "t"
	DCB	0x0, "e", 0x0, "r", 0x0, "r", 0x0, "u", 0x0, "p", 0x0, "t"
	DCB	0x0, "D", 0x0, "o", 0x0, "n", 0x0, "e", 0x0, "(", 0x0, "%"
	DCB	0x0, "d", 0x0, ")", 0x0, 0xd, 0x0, 0xa, 0x0, 0x0, 0x0 ; `string'
; Function compile flags: /Odtp

  00b28			 AREA	 |.text|, CODE, ARM

  00b28		 |OEMInterruptDone| PROC

; 364  : {

  00b28		 |$LN9@OEMInterru@4|
  00b28	e1a0c00d	 mov         r12, sp
  00b2c	e92d0001	 stmdb       sp!, {r0}
  00b30	e92d5000	 stmdb       sp!, {r12, lr}
  00b34	e24dd008	 sub         sp, sp, #8
  00b38		 |$M39441|

; 365  :     OALMSG(OAL_INTR&&OAL_VERBOSE, (L"+OEMInterruptDone(%d)\r\n", sysIntr));

  00b38	e59f30a0	 ldr         r3, [pc, #0xA0]
  00b3c	e5933440	 ldr         r3, [r3, #0x440]
  00b40	e3130901	 tst         r3, #1, 18
  00b44	0a000009	 beq         |$LN3@OEMInterru@4|
  00b48	e59f3090	 ldr         r3, [pc, #0x90]
  00b4c	e5933440	 ldr         r3, [r3, #0x440]
  00b50	e3130902	 tst         r3, #2, 18
  00b54	0a000005	 beq         |$LN3@OEMInterru@4|
  00b58	e59d1010	 ldr         r1, [sp, #0x10]
  00b5c	e59f0084	 ldr         r0, [pc, #0x84]
  00b60	eb000000	 bl          NKDbgPrintfW
  00b64	e3a03001	 mov         r3, #1
  00b68	e58d3000	 str         r3, [sp]
  00b6c	ea000001	 b           |$LN4@OEMInterru@4|
  00b70		 |$LN3@OEMInterru@4|
  00b70	e3a03000	 mov         r3, #0
  00b74	e58d3000	 str         r3, [sp]
  00b78		 |$LN4@OEMInterru@4|

; 366  : 
; 367  :     // Re-enable interrupts
; 368  :     OALIntrDoneIrqs(1, &g_oalSysIntr2Irq[sysIntr]);

  00b78	e59d1010	 ldr         r1, [sp, #0x10]
  00b7c	e3a03004	 mov         r3, #4
  00b80	e0020391	 mul         r2, r1, r3
  00b84	e59f3058	 ldr         r3, [pc, #0x58]
  00b88	e0831002	 add         r1, r3, r2
  00b8c	e3a00001	 mov         r0, #1
  00b90	eb000000	 bl          OALIntrDoneIrqs

; 369  :     
; 370  :     OALMSG(OAL_INTR&&OAL_VERBOSE, (L"-OEMInterruptDone\r\n"));

  00b94	e59f3044	 ldr         r3, [pc, #0x44]
  00b98	e5933440	 ldr         r3, [r3, #0x440]
  00b9c	e3130901	 tst         r3, #1, 18
  00ba0	0a000008	 beq         |$LN5@OEMInterru@4|
  00ba4	e59f3034	 ldr         r3, [pc, #0x34]
  00ba8	e5933440	 ldr         r3, [r3, #0x440]
  00bac	e3130902	 tst         r3, #2, 18
  00bb0	0a000004	 beq         |$LN5@OEMInterru@4|
  00bb4	e59f0020	 ldr         r0, [pc, #0x20]
  00bb8	eb000000	 bl          NKDbgPrintfW
  00bbc	e3a03001	 mov         r3, #1
  00bc0	e58d3004	 str         r3, [sp, #4]
  00bc4	ea000001	 b           |$LN6@OEMInterru@4|
  00bc8		 |$LN5@OEMInterru@4|
  00bc8	e3a03000	 mov         r3, #0
  00bcc	e58d3004	 str         r3, [sp, #4]
  00bd0		 |$LN6@OEMInterru@4|

; 371  : }

  00bd0	e28dd008	 add         sp, sp, #8
  00bd4	e89d6000	 ldmia       sp, {sp, lr}
  00bd8	e12fff1e	 bx          lr
  00bdc		 |$LN10@OEMInterru@4|
  00bdc		 |$LN11@OEMInterru@4|
  00bdc	00000000	 DCD         |??_C@_1CI@IOEKFHHP@?$AA?9?$AAO?$AAE?$AAM?$AAI?$AAn?$AAt?$AAe?$AAr?$AAr?$AAu?$AAp?$AAt?$AAD?$AAo?$AAn?$AAe?$AA?$AN?$AA?6?$AA?$AA@|
  00be0		 |$LN12@OEMInterru@4|
  00be0	00000000	 DCD         |dpCurSettings|
  00be4		 |$LN13@OEMInterru@4|
  00be4	00000000	 DCD         |g_oalSysIntr2Irq|
  00be8		 |$LN14@OEMInterru@4|
  00be8	00000000	 DCD         |??_C@_1DA@HAMHGFMF@?$AA?$CL?$AAO?$AAE?$AAM?$AAI?$AAn?$AAt?$AAe?$AAr?$AAr?$AAu?$AAp?$AAt?$AAD?$AAo?$AAn?$AAe?$AA?$CI?$AA?$CF?$AAd?$AA?$CJ?$AA?$AN?$AA?6?$AA?$AA@|
  00bec		 |$M39442|

			 ENDP  ; |OEMInterruptDone|

	END
