; Listing generated by Microsoft (R) Optimizing Compiler Version 14.01.60511.01 

	TTL	C:\WINCE600\PLATFORM\Z2170P\SRC\DRIVERS\PM\DLL\pmdisplay.cpp
	CODE32

  00000			 AREA	 |.drectve|, DRECTVE
	DCB	"-defaultlib:LIBCMT "
	DCB	"-defaultlib:OLDNAMES "

	EXPORT	|gDisplayInterface| [ DATA ]

  00000			 AREA	 |.bss|, NOINIT
|gpfnCreateDCW| % 0x4
|gpfnDeleteDC| % 0x4
|gpfnExtEscape| % 0x4
|ghevGwesAPISetReady| % 0x4
|gfGwesReady| %	0x4

  00000			 AREA	 |.data|, DATA
|gDisplayInterface| DCD |?InitDisplayDeviceInterface@@YAHXZ|
	DCD	|?OpenDisplayDevice@@YAPAXPAU_DeviceState_tag@@@Z|
	DCD	|?CloseDisplayDevice@@YAHPAX@Z|
	DCD	|?RequestDisplayDevice@@YAHPAXK0K0KPAK@Z|
	EXPORT	|__$ArrayPad$| [ DATA ]
	IMPORT	|CeLogData|
	IMPORT	|StringCchLengthW|
	IMPORT	|StringCchVPrintfW|
	IMPORT	|__GSHandlerCheck|
	IMPORT	|__security_cookie|
	IMPORT	|__security_check_cookie|
; File c:\wince600\public\common\sdk\inc\celog.h

  00000			 AREA	 |.pdata|, PDATA
|$T33743| DCD	|$LN7@CeLogMsg|
	DCD	0xc0002a04

  00000			 AREA	 |.xdata|, DATA
|$T33739| DCD	0xffffffe0
; Function compile flags: /Ogspy

  00000			 AREA	 |.text|, CODE, ARM

  00000	00000000	 DCD         |__GSHandlerCheck|
  00004	00000000	 DCD         |$T33739|

  00008		 |CeLogMsg| PROC

; 1015 : {

  00008		 |$LN7@CeLogMsg|
  00008	e1a0c00d	 mov         r12, sp
  0000c	e92d000f	 stmdb       sp!, {r0 - r3}
  00010	e92d5010	 stmdb       sp!, {r4, r12, lr}
  00014	e24dde22	 sub         sp, sp, #0x22, 28
  00018		 |$M33740|
  00018	e58d022c	 str         r0, [sp, #0x22C]
  0001c	e59f3088	 ldr         r3, [pc, #0x88]
  00020	e5933000	 ldr         r3, [r3]
  00024	e58d321c	 str         r3, [sp, #0x21C]

; 1016 :     va_list arglist;
; 1017 :     WCHAR   szTemp[MAX_PATH];
; 1018 :     size_t  cchLen;
; 1019 :     HRESULT hr;
; 1020 : 
; 1021 :     // Compose a single string using the input args
; 1022 :     va_start(arglist, szFormat);
; 1023 :     hr = StringCchVPrintfW(szTemp, MAX_PATH, szFormat, arglist);

  00028	e1a02000	 mov         r2, r0
  0002c	e28d0014	 add         r0, sp, #0x14
  00030	e28d3e23	 add         r3, sp, #0x23, 28
  00034	e3a01f41	 mov         r1, #0x41, 30
  00038	eb000000	 bl          StringCchVPrintfW
  0003c	e3500000	 cmp         r0, #0

; 1024 :     if (SUCCEEDED(hr)) {

  00040	4a000014	 bmi         |$LN1@CeLogMsg|

; 1025 :         hr = StringCchLengthW(szTemp, MAX_PATH, &cchLen);

  00044	e28d2010	 add         r2, sp, #0x10
  00048	e3a01f41	 mov         r1, #0x41, 30
  0004c	e28d0014	 add         r0, sp, #0x14
  00050	eb000000	 bl          StringCchLengthW
  00054	e3500000	 cmp         r0, #0

; 1026 :         if (SUCCEEDED(hr)) {

  00058	4a00000e	 bmi         |$LN1@CeLogMsg|

; 1027 :             CeLogData(TRUE, CELID_RAW_WCHAR, szTemp, (WORD)((cchLen + 1) * sizeof(WCHAR)),
; 1028 :                       0, CELZONE_ALWAYSON, 0, FALSE);

  0005c	e59d3010	 ldr         r3, [sp, #0x10]
  00060	e3a04101	 mov         r4, #1, 2
  00064	e3a0e000	 mov         lr, #0
  00068	e2833001	 add         r3, r3, #1
  0006c	e1a03083	 mov         r3, r3, lsl #1
  00070	e1a03803	 mov         r3, r3, lsl #16
  00074	e1a03823	 mov         r3, r3, lsr #16
  00078	e28d2014	 add         r2, sp, #0x14
  0007c	e3a0104a	 mov         r1, #0x4A
  00080	e3a00001	 mov         r0, #1
  00084	e58de00c	 str         lr, [sp, #0xC]
  00088	e58de008	 str         lr, [sp, #8]
  0008c	e58d4004	 str         r4, [sp, #4]
  00090	e58de000	 str         lr, [sp]
  00094	eb000000	 bl          CeLogData
  00098		 |$LN1@CeLogMsg|
  00098	e59d021c	 ldr         r0, [sp, #0x21C]
  0009c	eb000000	 bl          __security_check_cookie

; 1029 :         }
; 1030 :     }
; 1031 : }

  000a0	e28dde22	 add         sp, sp, #0x22, 28
  000a4	e89d6010	 ldmia       sp, {r4, sp, lr}
  000a8	e12fff1e	 bx          lr
  000ac		 |$LN8@CeLogMsg|
  000ac		 |$LN9@CeLogMsg|
  000ac	00000000	 DCD         |__security_cookie|
  000b0		 |$M33741|

			 ENDP  ; |CeLogMsg|

	EXPORT	|??_C@_1CG@EPNLEKEF@?$AA?$CF?$AAs?$AA?3?$AA?5?$AAr?$AAe?$AAt?$AAu?$AAr?$AAn?$AAi?$AAn?$AAg?$AA?5?$AA?$CF?$AAd?$AA?$AN?$AA?6?$AA?$AA@| [ DATA ] ; `string'
	EXPORT	|??_C@_1GC@GCFGMPI@?$AA?$CF?$AAs?$AA?3?$AA?5?$AAc?$AAa?$AAn?$AA?8?$AAt?$AA?5?$AAo?$AAp?$AAe?$AAn?$AA?5?$AAG?$AAW?$AAE?$AAS?$AA?5?$AAA?$AAP?$AAI?$AA?5?$AAs?$AAe?$AAt?$AA?5?$AAr?$AAe?$AAa?$AAd@| [ DATA ] ; `string'
	EXPORT	|??_C@_1CM@DKJPPKPA@?$AAS?$AAY?$AAS?$AAT?$AAE?$AAM?$AA?1?$AAG?$AAw?$AAe?$AAA?$AAp?$AAi?$AAS?$AAe?$AAt?$AAR?$AAe?$AAa?$AAd?$AAy?$AA?$AA@| [ DATA ] ; `string'
	EXPORT	|??_C@_1KG@HHIOCDCE@?$AA?$CF?$AAs?$AA?3?$AA?5?$AAc?$AAa?$AAn?$AA?8?$AAt?$AA?5?$AAg?$AAe?$AAt?$AA?5?$AAA?$AAP?$AAI?$AAs?$AA?3?$AA?5?$AAp?$AAf?$AAn?$AAC?$AAr?$AAe?$AAa?$AAt?$AAe?$AAD?$AAC?$AAW@| [ DATA ] ; `string'
	EXPORT	|??_C@_1BE@JGEOLONK@?$AAC?$AAr?$AAe?$AAa?$AAt?$AAe?$AAD?$AAC?$AAW?$AA?$AA@| [ DATA ] ; `string'
	EXPORT	|??_C@_1BC@GMBPGMN@?$AAD?$AAe?$AAl?$AAe?$AAt?$AAe?$AAD?$AAC?$AA?$AA@| [ DATA ] ; `string'
	EXPORT	|??_C@_1BE@IMLDAOJP@?$AAE?$AAx?$AAt?$AAE?$AAs?$AAc?$AAa?$AAp?$AAe?$AA?$AA@| [ DATA ] ; `string'
	EXPORT	|??_C@_1DG@PGIPNLAG@?$AAI?$AAn?$AAi?$AAt?$AAD?$AAi?$AAs?$AAp?$AAl?$AAa?$AAy?$AAD?$AAe?$AAv?$AAi?$AAc?$AAe?$AAI?$AAn?$AAt?$AAe?$AAr?$AAf?$AAa?$AAc?$AAe?$AA?$AA@| [ DATA ] ; `string'
	EXPORT	|??_C@_1DM@EMCCGGJK@?$AA?$CF?$AAs?$AA?3?$AA?5?$AAL?$AAo?$AAa?$AAd?$AAL?$AAi?$AAb?$AAr?$AAa?$AAr?$AAy?$AA?$CI?$AA?$CJ?$AA?5?$AAf?$AAa?$AAi?$AAl?$AAe?$AAd?$AA?5?$AA?$CF?$AAd?$AA?$AN?$AA?6?$AA?$AA@| [ DATA ] ; `string'
	EXPORT	|??_C@_1BI@CJKPFBEK@?$AAc?$AAo?$AAr?$AAe?$AAd?$AAl?$AAl?$AA?4?$AAd?$AAl?$AAl?$AA?$AA@| [ DATA ] ; `string'
	IMPORT	|OpenEventW|
	IMPORT	|FreeLibrary|
	IMPORT	|GetProcAddressW|
	IMPORT	|GetLastError|
	IMPORT	|LoadLibraryW|
	IMPORT	|dpCurSettings|
; File c:\wince600\platform\z2170p\src\drivers\pm\dll\pmdisplay.cpp

  00000			 AREA	 |.pdata|, PDATA
|$T33773| DCD	|$LN29@InitDispla|
	DCD	0x40007802

  00000			 AREA	 |.rdata|, DATA, READONLY
|??_C@_1CG@EPNLEKEF@?$AA?$CF?$AAs?$AA?3?$AA?5?$AAr?$AAe?$AAt?$AAu?$AAr?$AAn?$AAi?$AAn?$AAg?$AA?5?$AA?$CF?$AAd?$AA?$AN?$AA?6?$AA?$AA@| DCB "%"
	DCB	0x0, "s", 0x0, ":", 0x0, " ", 0x0, "r", 0x0, "e", 0x0, "t"
	DCB	0x0, "u", 0x0, "r", 0x0, "n", 0x0, "i", 0x0, "n", 0x0, "g"
	DCB	0x0, " ", 0x0, "%", 0x0, "d", 0x0, 0xd, 0x0, 0xa, 0x0, 0x0
	DCB	0x0					; `string'

  00000			 AREA	 |.rdata|, DATA, READONLY
|??_C@_1GC@GCFGMPI@?$AA?$CF?$AAs?$AA?3?$AA?5?$AAc?$AAa?$AAn?$AA?8?$AAt?$AA?5?$AAo?$AAp?$AAe?$AAn?$AA?5?$AAG?$AAW?$AAE?$AAS?$AA?5?$AAA?$AAP?$AAI?$AA?5?$AAs?$AAe?$AAt?$AA?5?$AAr?$AAe?$AAa?$AAd@| DCB "%"
	DCB	0x0, "s", 0x0, ":", 0x0, " ", 0x0, "c", 0x0, "a", 0x0, "n"
	DCB	0x0, "'", 0x0, "t", 0x0, " ", 0x0, "o", 0x0, "p", 0x0, "e"
	DCB	0x0, "n", 0x0, " ", 0x0, "G", 0x0, "W", 0x0, "E", 0x0, "S"
	DCB	0x0, " ", 0x0, "A", 0x0, "P", 0x0, "I", 0x0, " ", 0x0, "s"
	DCB	0x0, "e", 0x0, "t", 0x0, " ", 0x0, "r", 0x0, "e", 0x0, "a"
	DCB	0x0, "d", 0x0, "y", 0x0, " ", 0x0, "e", 0x0, "v", 0x0, "e"
	DCB	0x0, "n", 0x0, "t", 0x0, " ", 0x0, "h", 0x0, "a", 0x0, "n"
	DCB	0x0, "d", 0x0, "l", 0x0, "e", 0x0, 0xd, 0x0, 0xa, 0x0, 0x0
	DCB	0x0					; `string'

  00000			 AREA	 |.rdata|, DATA, READONLY
|??_C@_1CM@DKJPPKPA@?$AAS?$AAY?$AAS?$AAT?$AAE?$AAM?$AA?1?$AAG?$AAw?$AAe?$AAA?$AAp?$AAi?$AAS?$AAe?$AAt?$AAR?$AAe?$AAa?$AAd?$AAy?$AA?$AA@| DCB "S"
	DCB	0x0, "Y", 0x0, "S", 0x0, "T", 0x0, "E", 0x0, "M", 0x0, "/"
	DCB	0x0, "G", 0x0, "w", 0x0, "e", 0x0, "A", 0x0, "p", 0x0, "i"
	DCB	0x0, "S", 0x0, "e", 0x0, "t", 0x0, "R", 0x0, "e", 0x0, "a"
	DCB	0x0, "d", 0x0, "y", 0x0, 0x0, 0x0	; `string'

  00000			 AREA	 |.rdata|, DATA, READONLY
|??_C@_1KG@HHIOCDCE@?$AA?$CF?$AAs?$AA?3?$AA?5?$AAc?$AAa?$AAn?$AA?8?$AAt?$AA?5?$AAg?$AAe?$AAt?$AA?5?$AAA?$AAP?$AAI?$AAs?$AA?3?$AA?5?$AAp?$AAf?$AAn?$AAC?$AAr?$AAe?$AAa?$AAt?$AAe?$AAD?$AAC?$AAW@| DCB "%"
	DCB	0x0, "s", 0x0, ":", 0x0, " ", 0x0, "c", 0x0, "a", 0x0, "n"
	DCB	0x0, "'", 0x0, "t", 0x0, " ", 0x0, "g", 0x0, "e", 0x0, "t"
	DCB	0x0, " ", 0x0, "A", 0x0, "P", 0x0, "I", 0x0, "s", 0x0, ":"
	DCB	0x0, " ", 0x0, "p", 0x0, "f", 0x0, "n", 0x0, "C", 0x0, "r"
	DCB	0x0, "e", 0x0, "a", 0x0, "t", 0x0, "e", 0x0, "D", 0x0, "C"
	DCB	0x0, "W", 0x0, " ", 0x0, "0", 0x0, "x", 0x0, "%", 0x0, "0"
	DCB	0x0, "8", 0x0, "x", 0x0, ",", 0x0, " ", 0x0, "p", 0x0, "f"
	DCB	0x0, "n", 0x0, "D", 0x0, "e", 0x0, "l", 0x0, "e", 0x0, "t"
	DCB	0x0, "e", 0x0, "D", 0x0, "C", 0x0, " ", 0x0, "0", 0x0, "x"
	DCB	0x0, "%", 0x0, "0", 0x0, "8", 0x0, "x", 0x0, ",", 0x0, " "
	DCB	0x0, "p", 0x0, "f", 0x0, "n", 0x0, "E", 0x0, "x", 0x0, "t"
	DCB	0x0, "E", 0x0, "s", 0x0, "c", 0x0, "a", 0x0, "p", 0x0, "e"
	DCB	0x0, " ", 0x0, "0", 0x0, "x", 0x0, "%", 0x0, "0", 0x0, "8"
	DCB	0x0, "x", 0x0, 0xd, 0x0, 0xa, 0x0, 0x0, 0x0 ; `string'

  00000			 AREA	 |.rdata|, DATA, READONLY
|??_C@_1BE@JGEOLONK@?$AAC?$AAr?$AAe?$AAa?$AAt?$AAe?$AAD?$AAC?$AAW?$AA?$AA@| DCB "C"
	DCB	0x0, "r", 0x0, "e", 0x0, "a", 0x0, "t", 0x0, "e", 0x0, "D"
	DCB	0x0, "C", 0x0, "W", 0x0, 0x0, 0x0	; `string'

  00000			 AREA	 |.rdata|, DATA, READONLY
|??_C@_1BC@GMBPGMN@?$AAD?$AAe?$AAl?$AAe?$AAt?$AAe?$AAD?$AAC?$AA?$AA@| DCB "D"
	DCB	0x0, "e", 0x0, "l", 0x0, "e", 0x0, "t", 0x0, "e", 0x0, "D"
	DCB	0x0, "C", 0x0, 0x0, 0x0			; `string'

  00000			 AREA	 |.rdata|, DATA, READONLY
|??_C@_1BE@IMLDAOJP@?$AAE?$AAx?$AAt?$AAE?$AAs?$AAc?$AAa?$AAp?$AAe?$AA?$AA@| DCB "E"
	DCB	0x0, "x", 0x0, "t", 0x0, "E", 0x0, "s", 0x0, "c", 0x0, "a"
	DCB	0x0, "p", 0x0, "e", 0x0, 0x0, 0x0	; `string'

  00000			 AREA	 |.rdata|, DATA, READONLY
|??_C@_1DG@PGIPNLAG@?$AAI?$AAn?$AAi?$AAt?$AAD?$AAi?$AAs?$AAp?$AAl?$AAa?$AAy?$AAD?$AAe?$AAv?$AAi?$AAc?$AAe?$AAI?$AAn?$AAt?$AAe?$AAr?$AAf?$AAa?$AAc?$AAe?$AA?$AA@| DCB "I"
	DCB	0x0, "n", 0x0, "i", 0x0, "t", 0x0, "D", 0x0, "i", 0x0, "s"
	DCB	0x0, "p", 0x0, "l", 0x0, "a", 0x0, "y", 0x0, "D", 0x0, "e"
	DCB	0x0, "v", 0x0, "i", 0x0, "c", 0x0, "e", 0x0, "I", 0x0, "n"
	DCB	0x0, "t", 0x0, "e", 0x0, "r", 0x0, "f", 0x0, "a", 0x0, "c"
	DCB	0x0, "e", 0x0, 0x0, 0x0			; `string'

  00000			 AREA	 |.rdata|, DATA, READONLY
|??_C@_1DM@EMCCGGJK@?$AA?$CF?$AAs?$AA?3?$AA?5?$AAL?$AAo?$AAa?$AAd?$AAL?$AAi?$AAb?$AAr?$AAa?$AAr?$AAy?$AA?$CI?$AA?$CJ?$AA?5?$AAf?$AAa?$AAi?$AAl?$AAe?$AAd?$AA?5?$AA?$CF?$AAd?$AA?$AN?$AA?6?$AA?$AA@| DCB "%"
	DCB	0x0, "s", 0x0, ":", 0x0, " ", 0x0, "L", 0x0, "o", 0x0, "a"
	DCB	0x0, "d", 0x0, "L", 0x0, "i", 0x0, "b", 0x0, "r", 0x0, "a"
	DCB	0x0, "r", 0x0, "y", 0x0, "(", 0x0, ")", 0x0, " ", 0x0, "f"
	DCB	0x0, "a", 0x0, "i", 0x0, "l", 0x0, "e", 0x0, "d", 0x0, " "
	DCB	0x0, "%", 0x0, "d", 0x0, 0xd, 0x0, 0xa, 0x0, 0x0, 0x0 ; `string'

  00000			 AREA	 |.rdata|, DATA, READONLY
|??_C@_1BI@CJKPFBEK@?$AAc?$AAo?$AAr?$AAe?$AAd?$AAl?$AAl?$AA?4?$AAd?$AAl?$AAl?$AA?$AA@| DCB "c"
	DCB	0x0, "o", 0x0, "r", 0x0, "e", 0x0, "d", 0x0, "l", 0x0, "l"
	DCB	0x0, ".", 0x0, "d", 0x0, "l", 0x0, "l", 0x0, 0x0, 0x0 ; `string'
; Function compile flags: /Ogspy

  00000			 AREA	 |.text|, CODE, ARM

  00000		 |?InitDisplayDeviceInterface@@YAHXZ| PROC ; InitDisplayDeviceInterface

; 45   : {

  00000		 |$LN29@InitDispla|
  00000	e92d40f0	 stmdb       sp!, {r4 - r7, lr}
  00004	e24dd004	 sub         sp, sp, #4
  00008		 |$M33770|

; 46   :     BOOL fOk = FALSE;
; 47   : 
; 48   : #ifndef SHIP_BUILD
; 49   :     SETFNAME(_T("InitDisplayDeviceInterface"));
; 50   : #endif
; 51   : 
; 52   :     if(gpfnCreateDCW == NULL) {

  00008	e59f41cc	 ldr         r4, [pc, #0x1CC]
  0000c	e59f51c4	 ldr         r5, [pc, #0x1C4]
  00010	e3a06000	 mov         r6, #0
  00014	e5943000	 ldr         r3, [r4]
  00018	e3530000	 cmp         r3, #0
  0001c	1a000039	 bne         |$LN25@InitDispla|

; 53   :         HMODULE hmCore = (HMODULE) LoadLibrary(_T("coredll.dll"));

  00020	e59f01ac	 ldr         r0, [pc, #0x1AC]
  00024	eb000000	 bl          LoadLibraryW

; 54   :         PMLOGMSG(ZONE_WARN && hmCore == NULL, (_T("%s: LoadLibrary() failed %d\r\n"),
; 55   :             pszFname, GetLastError()));

  00028	e5953440	 ldr         r3, [r5, #0x440]
  0002c	e1a07000	 mov         r7, r0
  00030	e3130002	 tst         r3, #2
  00034	0a000006	 beq         |$LN11@InitDispla|
  00038	e3570000	 cmp         r7, #0
  0003c	1a000006	 bne         |$LN21@InitDispla|
  00040	eb000000	 bl          GetLastError
  00044	e59f1164	 ldr         r1, [pc, #0x164]
  00048	e1a02000	 mov         r2, r0
  0004c	e59f017c	 ldr         r0, [pc, #0x17C]
  00050	eb000000	 bl          CeLogMsg
  00054		 |$LN11@InitDispla|

; 56   :         if(hmCore != NULL) {

  00054	e3570000	 cmp         r7, #0
  00058	0a000025	 beq         |$LN24@InitDispla|
  0005c		 |$LN21@InitDispla|

; 57   :             // get procedure addresses
; 58   :             gpfnCreateDCW = (PFN_CreateDCW) GetProcAddress(hmCore, _T("CreateDCW"));

  0005c	e59f1168	 ldr         r1, [pc, #0x168]
  00060	e1a00007	 mov         r0, r7
  00064	eb000000	 bl          GetProcAddressW

; 59   :             gpfnDeleteDC = (PFN_DeleteDC) GetProcAddress(hmCore, _T("DeleteDC"));

  00068	e59f1158	 ldr         r1, [pc, #0x158]
  0006c	e1a03000	 mov         r3, r0
  00070	e1a00007	 mov         r0, r7
  00074	e5843000	 str         r3, [r4]
  00078	eb000000	 bl          GetProcAddressW

; 60   :             gpfnExtEscape = (PFN_ExtEscape) GetProcAddress(hmCore, _T("ExtEscape"));

  0007c	e59f1140	 ldr         r1, [pc, #0x140]
  00080	e1a03000	 mov         r3, r0
  00084	e1a00007	 mov         r0, r7
  00088	e5843004	 str         r3, [r4, #4]
  0008c	eb000000	 bl          GetProcAddressW

; 61   :             if(gpfnCreateDCW == NULL || gpfnExtEscape == NULL || gpfnDeleteDC == NULL) {

  00090	e5942000	 ldr         r2, [r4]
  00094	e1a0e000	 mov         lr, r0
  00098	e584e008	 str         lr, [r4, #8]
  0009c	e3520000	 cmp         r2, #0
  000a0	0a000004	 beq         |$LN5@InitDispla|
  000a4	e35e0000	 cmp         lr, #0
  000a8	0a000002	 beq         |$LN5@InitDispla|
  000ac	e5943004	 ldr         r3, [r4, #4]
  000b0	e3530000	 cmp         r3, #0
  000b4	1a000010	 bne         |$LN6@InitDispla|
  000b8		 |$LN5@InitDispla|

; 62   :                 PMLOGMSG(ZONE_WARN, 
; 63   :                     (_T("%s: can't get APIs: pfnCreateDCW 0x%08x, pfnDeleteDC 0x%08x, pfnExtEscape 0x%08x\r\n"),
; 64   :                     pszFname, gpfnCreateDCW, gpfnDeleteDC, gpfnExtEscape));

  000b8	e5953440	 ldr         r3, [r5, #0x440]
  000bc	e3130002	 tst         r3, #2
  000c0	15943004	 ldrne       r3, [r4, #4]
  000c4	159f00f4	 ldrne       r0, [pc, #0xF4]
  000c8	159f10e0	 ldrne       r1, [pc, #0xE0]
  000cc	158de000	 strne       lr, [sp]
  000d0	1b000000	 blne        CeLogMsg

; 65   :                 gpfnCreateDCW = NULL;

  000d4	e3a03000	 mov         r3, #0

; 66   :                 gpfnDeleteDC = NULL;

  000d8	e3a02000	 mov         r2, #0

; 67   :                 gpfnExtEscape = NULL;

  000dc	e3a01000	 mov         r1, #0

; 68   :                 FreeLibrary(hmCore);

  000e0	e1a00007	 mov         r0, r7
  000e4	e5843000	 str         r3, [r4]
  000e8	e5842004	 str         r2, [r4, #4]
  000ec	e5841008	 str         r1, [r4, #8]
  000f0	eb000000	 bl          FreeLibrary
  000f4		 |$LN24@InitDispla|
  000f4	e594e008	 ldr         lr, [r4, #8]
  000f8	e5942000	 ldr         r2, [r4]
  000fc		 |$LN6@InitDispla|

; 69   :             }
; 70   :         }
; 71   :     }
; 72   : 
; 73   :     // do we have the endpoints we need?
; 74   :     if(gpfnCreateDCW != NULL && gpfnExtEscape != NULL && gpfnDeleteDC != NULL) {

  000fc	e3520000	 cmp         r2, #0
  00100	0a000017	 beq         |$LN15@InitDispla|
  00104	ea000000	 b           |$LN22@InitDispla|
  00108		 |$LN25@InitDispla|
  00108	e594e008	 ldr         lr, [r4, #8]
  0010c		 |$LN22@InitDispla|
  0010c	e35e0000	 cmp         lr, #0
  00110	0a000013	 beq         |$LN15@InitDispla|
  00114	e5943004	 ldr         r3, [r4, #4]
  00118	e3530000	 cmp         r3, #0
  0011c	0a000010	 beq         |$LN15@InitDispla|

; 75   :         // yes, get a handle to the GWES API set event
; 76   :         if(ghevGwesAPISetReady == NULL) {

  00120	e594300c	 ldr         r3, [r4, #0xC]
  00124	e3530000	 cmp         r3, #0
  00128	1a000010	 bne         |$LN26@InitDispla|

; 77   :             ghevGwesAPISetReady = OpenEvent(EVENT_ALL_ACCESS, FALSE, _T("SYSTEM/GweApiSetReady"));

  0012c	e59f2088	 ldr         r2, [pc, #0x88]
  00130	e3a0381f	 mov         r3, #0x1F, 16
  00134	e3830003	 orr         r0, r3, #3
  00138	e3a01000	 mov         r1, #0
  0013c	eb000000	 bl          OpenEventW
  00140	e3500000	 cmp         r0, #0
  00144	e584000c	 str         r0, [r4, #0xC]

; 78   :             DEBUGCHK(ghevGwesAPISetReady != NULL);      // shouldn't happen since we have GWES APIs
; 79   :             if(ghevGwesAPISetReady == NULL) {

  00148	1a000008	 bne         |$LN26@InitDispla|
  0014c	e5953440	 ldr         r3, [r5, #0x440]

; 80   :                 PMLOGMSG(ZONE_WARN, (_T("%s: can't open GWES API set ready event handle\r\n"),
; 81   :                     pszFname));

  00150	e3130002	 tst         r3, #2
  00154	0a000006	 beq         |$LN1@InitDispla|
  00158	e59f0058	 ldr         r0, [pc, #0x58]
  0015c	e59f104c	 ldr         r1, [pc, #0x4C]
  00160	eb000000	 bl          CeLogMsg
  00164		 |$LN15@InitDispla|

; 82   :             }
; 83   :         }
; 84   :     }
; 85   : 
; 86   :     // did we get all the resources we'll need to eventually access
; 87   :     // devices of this type?
; 88   :     if(ghevGwesAPISetReady != NULL) {

  00164	e594300c	 ldr         r3, [r4, #0xC]
  00168	e3530000	 cmp         r3, #0
  0016c	0a000000	 beq         |$LN1@InitDispla|
  00170		 |$LN26@InitDispla|

; 89   :         // yes, return a good status
; 90   :         fOk = TRUE;

  00170	e3a06001	 mov         r6, #1
  00174		 |$LN1@InitDispla|

; 54   :         PMLOGMSG(ZONE_WARN && hmCore == NULL, (_T("%s: LoadLibrary() failed %d\r\n"),
; 55   :             pszFname, GetLastError()));

  00174	e5953440	 ldr         r3, [r5, #0x440]

; 91   :     }
; 92   :     
; 93   :     PMLOGMSG(ZONE_INIT || (ZONE_WARN && !fOk), (_T("%s: returning %d\r\n"), pszFname, fOk));

  00178	e3130004	 tst         r3, #4
  0017c	1a000003	 bne         |$LN18@InitDispla|
  00180	e3130002	 tst         r3, #2
  00184	0a000005	 beq         |$LN19@InitDispla|
  00188	e3560000	 cmp         r6, #0
  0018c	1a000003	 bne         |$LN19@InitDispla|
  00190		 |$LN18@InitDispla|
  00190	e59f001c	 ldr         r0, [pc, #0x1C]
  00194	e59f1014	 ldr         r1, [pc, #0x14]
  00198	e1a02006	 mov         r2, r6
  0019c	eb000000	 bl          CeLogMsg
  001a0		 |$LN19@InitDispla|

; 94   :     return fOk;
; 95   : }

  001a0	e1a00006	 mov         r0, r6
  001a4	e28dd004	 add         sp, sp, #4
  001a8	e8bd40f0	 ldmia       sp!, {r4 - r7, lr}
  001ac	e12fff1e	 bx          lr
  001b0		 |$LN30@InitDispla|
  001b0		 |$LN31@InitDispla|
  001b0	00000000	 DCD         |??_C@_1DG@PGIPNLAG@?$AAI?$AAn?$AAi?$AAt?$AAD?$AAi?$AAs?$AAp?$AAl?$AAa?$AAy?$AAD?$AAe?$AAv?$AAi?$AAc?$AAe?$AAI?$AAn?$AAt?$AAe?$AAr?$AAf?$AAa?$AAc?$AAe?$AA?$AA@|
  001b4		 |$LN32@InitDispla|
  001b4	00000000	 DCD         |??_C@_1CG@EPNLEKEF@?$AA?$CF?$AAs?$AA?3?$AA?5?$AAr?$AAe?$AAt?$AAu?$AAr?$AAn?$AAi?$AAn?$AAg?$AA?5?$AA?$CF?$AAd?$AA?$AN?$AA?6?$AA?$AA@|
  001b8		 |$LN33@InitDispla|
  001b8	00000000	 DCD         |??_C@_1GC@GCFGMPI@?$AA?$CF?$AAs?$AA?3?$AA?5?$AAc?$AAa?$AAn?$AA?8?$AAt?$AA?5?$AAo?$AAp?$AAe?$AAn?$AA?5?$AAG?$AAW?$AAE?$AAS?$AA?5?$AAA?$AAP?$AAI?$AA?5?$AAs?$AAe?$AAt?$AA?5?$AAr?$AAe?$AAa?$AAd@|
  001bc		 |$LN34@InitDispla|
  001bc	00000000	 DCD         |??_C@_1CM@DKJPPKPA@?$AAS?$AAY?$AAS?$AAT?$AAE?$AAM?$AA?1?$AAG?$AAw?$AAe?$AAA?$AAp?$AAi?$AAS?$AAe?$AAt?$AAR?$AAe?$AAa?$AAd?$AAy?$AA?$AA@|
  001c0		 |$LN35@InitDispla|
  001c0	00000000	 DCD         |??_C@_1KG@HHIOCDCE@?$AA?$CF?$AAs?$AA?3?$AA?5?$AAc?$AAa?$AAn?$AA?8?$AAt?$AA?5?$AAg?$AAe?$AAt?$AA?5?$AAA?$AAP?$AAI?$AAs?$AA?3?$AA?5?$AAp?$AAf?$AAn?$AAC?$AAr?$AAe?$AAa?$AAt?$AAe?$AAD?$AAC?$AAW@|
  001c4		 |$LN36@InitDispla|
  001c4	00000000	 DCD         |??_C@_1BE@IMLDAOJP@?$AAE?$AAx?$AAt?$AAE?$AAs?$AAc?$AAa?$AAp?$AAe?$AA?$AA@|
  001c8		 |$LN37@InitDispla|
  001c8	00000000	 DCD         |??_C@_1BC@GMBPGMN@?$AAD?$AAe?$AAl?$AAe?$AAt?$AAe?$AAD?$AAC?$AA?$AA@|
  001cc		 |$LN38@InitDispla|
  001cc	00000000	 DCD         |??_C@_1BE@JGEOLONK@?$AAC?$AAr?$AAe?$AAa?$AAt?$AAe?$AAD?$AAC?$AAW?$AA?$AA@|
  001d0		 |$LN39@InitDispla|
  001d0	00000000	 DCD         |??_C@_1DM@EMCCGGJK@?$AA?$CF?$AAs?$AA?3?$AA?5?$AAL?$AAo?$AAa?$AAd?$AAL?$AAi?$AAb?$AAr?$AAa?$AAr?$AAy?$AA?$CI?$AA?$CJ?$AA?5?$AAf?$AAa?$AAi?$AAl?$AAe?$AAd?$AA?5?$AA?$CF?$AAd?$AA?$AN?$AA?6?$AA?$AA@|
  001d4		 |$LN40@InitDispla|
  001d4	00000000	 DCD         |??_C@_1BI@CJKPFBEK@?$AAc?$AAo?$AAr?$AAe?$AAd?$AAl?$AAl?$AA?4?$AAd?$AAl?$AAl?$AA?$AA@|
  001d8		 |$LN41@InitDispla|
  001d8	00000000	 DCD         |dpCurSettings|
  001dc		 |$LN42@InitDispla|
  001dc	00000000	 DCD         |gpfnCreateDCW|
  001e0		 |$M33771|

			 ENDP  ; |?InitDisplayDeviceInterface@@YAHXZ|, InitDisplayDeviceInterface

	EXPORT	|??_C@_1DO@PDLLAHEA@?$AA?$CF?$AAs?$AA?3?$AA?5?$AAh?$AAa?$AAn?$AAd?$AAl?$AAe?$AA?5?$AAt?$AAo?$AA?5?$AA?8?$AA?$CF?$AAs?$AA?8?$AA?5?$AAi?$AAs?$AA?5?$AA0?$AAx?$AA?$CF?$AA0?$AA8?$AAx?$AA?$AN?$AA?6?$AA?$AA@| [ DATA ] ; `string'
	EXPORT	|??_C@_1HG@BLPIKJJG@?$AA?$CF?$AAs?$AA?3?$AA?5?$AA?8?$AA?$CF?$AAs?$AA?8?$AA?5?$AAd?$AAo?$AAe?$AAs?$AAn?$AA?8?$AAt?$AA?5?$AAs?$AAu?$AAp?$AAp?$AAo?$AAr?$AAt?$AA?5?$AAa?$AAl?$AAl?$AA?5?$AAp?$AAo?$AAw@| [ DATA ] ; `string'
	EXPORT	|??_C@_1FA@LMOJFAIF@?$AA?$CF?$AAs?$AA?3?$AA?5?$AAC?$AAr?$AAe?$AAa?$AAt?$AAe?$AAD?$AAC?$AA?$CI?$AA?8?$AA?$CF?$AAs?$AA?8?$AA?$CJ?$AA?5?$AAf?$AAa?$AAi?$AAl?$AAe?$AAd?$AA?5?$AA?$CF?$AAd?$AA?5?$AA?$CI?$AA0?$AAx@| [ DATA ] ; `string'
	EXPORT	|??_C@_1DM@KCHPFGBA@?$AA?$CF?$AAs?$AA?3?$AA?5?$AAG?$AAW?$AAE?$AAS?$AA?5?$AAA?$AAP?$AAI?$AA?5?$AAs?$AAe?$AAt?$AAs?$AA?5?$AAa?$AAr?$AAe?$AA?5?$AAr?$AAe?$AAa?$AAd?$AAy?$AA?$AN?$AA?6?$AA?$AA@| [ DATA ] ; `string'
	EXPORT	|??_C@_1IO@GLEDLCJG@?$AA?$CF?$AAs?$AA?3?$AA?5?$AAW?$AAa?$AAi?$AAt?$AAF?$AAo?$AAr?$AAS?$AAi?$AAn?$AAg?$AAl?$AAe?$AAO?$AAb?$AAj?$AAe?$AAc?$AAt?$AA?$CI?$AA?$CJ?$AA?5?$AAr?$AAe?$AAt?$AAu?$AAr?$AAn@| [ DATA ] ; `string'
	EXPORT	|??_C@_1CE@NLOFCKJG@?$AAO?$AAp?$AAe?$AAn?$AAD?$AAi?$AAs?$AAp?$AAl?$AAa?$AAy?$AAD?$AAe?$AAv?$AAi?$AAc?$AAe?$AA?$AA@| [ DATA ] ; `string'
	EXPORT	|??_C@_1EK@KLGFKKGB@?$AA?$CF?$AAs?$AA?3?$AA?5?$AAw?$AAa?$AAi?$AAt?$AAi?$AAn?$AAg?$AA?5?$AAf?$AAo?$AAr?$AA?5?$AAG?$AAW?$AAE?$AAS?$AA?5?$AAt?$AAo?$AA?5?$AAi?$AAn?$AAi?$AAt?$AAi?$AAa?$AAl?$AAi@| [ DATA ] ; `string'
	IMPORT	|CloseHandle|
	IMPORT	|WaitForSingleObject|

  00000			 AREA	 |.pdata|, PDATA
|$T33816| DCD	|$LN34@OpenDispla|
	DCD	0x40007e02

  00000			 AREA	 |.rdata|, DATA, READONLY
|??_C@_1DO@PDLLAHEA@?$AA?$CF?$AAs?$AA?3?$AA?5?$AAh?$AAa?$AAn?$AAd?$AAl?$AAe?$AA?5?$AAt?$AAo?$AA?5?$AA?8?$AA?$CF?$AAs?$AA?8?$AA?5?$AAi?$AAs?$AA?5?$AA0?$AAx?$AA?$CF?$AA0?$AA8?$AAx?$AA?$AN?$AA?6?$AA?$AA@| DCB "%"
	DCB	0x0, "s", 0x0, ":", 0x0, " ", 0x0, "h", 0x0, "a", 0x0, "n"
	DCB	0x0, "d", 0x0, "l", 0x0, "e", 0x0, " ", 0x0, "t", 0x0, "o"
	DCB	0x0, " ", 0x0, "'", 0x0, "%", 0x0, "s", 0x0, "'", 0x0, " "
	DCB	0x0, "i", 0x0, "s", 0x0, " ", 0x0, "0", 0x0, "x", 0x0, "%"
	DCB	0x0, "0", 0x0, "8", 0x0, "x", 0x0, 0xd, 0x0, 0xa, 0x0, 0x0
	DCB	0x0					; `string'

  00000			 AREA	 |.rdata|, DATA, READONLY
|??_C@_1HG@BLPIKJJG@?$AA?$CF?$AAs?$AA?3?$AA?5?$AA?8?$AA?$CF?$AAs?$AA?8?$AA?5?$AAd?$AAo?$AAe?$AAs?$AAn?$AA?8?$AAt?$AA?5?$AAs?$AAu?$AAp?$AAp?$AAo?$AAr?$AAt?$AA?5?$AAa?$AAl?$AAl?$AA?5?$AAp?$AAo?$AAw@| DCB "%"
	DCB	0x0, "s", 0x0, ":", 0x0, " ", 0x0, "'", 0x0, "%", 0x0, "s"
	DCB	0x0, "'", 0x0, " ", 0x0, "d", 0x0, "o", 0x0, "e", 0x0, "s"
	DCB	0x0, "n", 0x0, "'", 0x0, "t", 0x0, " ", 0x0, "s", 0x0, "u"
	DCB	0x0, "p", 0x0, "p", 0x0, "o", 0x0, "r", 0x0, "t", 0x0, " "
	DCB	0x0, "a", 0x0, "l", 0x0, "l", 0x0, " ", 0x0, "p", 0x0, "o"
	DCB	0x0, "w", 0x0, "e", 0x0, "r", 0x0, " ", 0x0, "m", 0x0, "a"
	DCB	0x0, "n", 0x0, "a", 0x0, "g", 0x0, "e", 0x0, "r", 0x0, " "
	DCB	0x0, "c", 0x0, "o", 0x0, "n", 0x0, "t", 0x0, "r", 0x0, "o"
	DCB	0x0, "l", 0x0, " ", 0x0, "c", 0x0, "o", 0x0, "d", 0x0, "e"
	DCB	0x0, "s", 0x0, 0xd, 0x0, 0xa, 0x0, 0x0, 0x0 ; `string'

  00000			 AREA	 |.rdata|, DATA, READONLY
|??_C@_1FA@LMOJFAIF@?$AA?$CF?$AAs?$AA?3?$AA?5?$AAC?$AAr?$AAe?$AAa?$AAt?$AAe?$AAD?$AAC?$AA?$CI?$AA?8?$AA?$CF?$AAs?$AA?8?$AA?$CJ?$AA?5?$AAf?$AAa?$AAi?$AAl?$AAe?$AAd?$AA?5?$AA?$CF?$AAd?$AA?5?$AA?$CI?$AA0?$AAx@| DCB "%"
	DCB	0x0, "s", 0x0, ":", 0x0, " ", 0x0, "C", 0x0, "r", 0x0, "e"
	DCB	0x0, "a", 0x0, "t", 0x0, "e", 0x0, "D", 0x0, "C", 0x0, "("
	DCB	0x0, "'", 0x0, "%", 0x0, "s", 0x0, "'", 0x0, ")", 0x0, " "
	DCB	0x0, "f", 0x0, "a", 0x0, "i", 0x0, "l", 0x0, "e", 0x0, "d"
	DCB	0x0, " ", 0x0, "%", 0x0, "d", 0x0, " ", 0x0, "(", 0x0, "0"
	DCB	0x0, "x", 0x0, "%", 0x0, "0", 0x0, "8", 0x0, "x", 0x0, ")"
	DCB	0x0, 0xd, 0x0, 0xa, 0x0, 0x0, 0x0	; `string'

  00000			 AREA	 |.rdata|, DATA, READONLY
|??_C@_1DM@KCHPFGBA@?$AA?$CF?$AAs?$AA?3?$AA?5?$AAG?$AAW?$AAE?$AAS?$AA?5?$AAA?$AAP?$AAI?$AA?5?$AAs?$AAe?$AAt?$AAs?$AA?5?$AAa?$AAr?$AAe?$AA?5?$AAr?$AAe?$AAa?$AAd?$AAy?$AA?$AN?$AA?6?$AA?$AA@| DCB "%"
	DCB	0x0, "s", 0x0, ":", 0x0, " ", 0x0, "G", 0x0, "W", 0x0, "E"
	DCB	0x0, "S", 0x0, " ", 0x0, "A", 0x0, "P", 0x0, "I", 0x0, " "
	DCB	0x0, "s", 0x0, "e", 0x0, "t", 0x0, "s", 0x0, " ", 0x0, "a"
	DCB	0x0, "r", 0x0, "e", 0x0, " ", 0x0, "r", 0x0, "e", 0x0, "a"
	DCB	0x0, "d", 0x0, "y", 0x0, 0xd, 0x0, 0xa, 0x0, 0x0, 0x0 ; `string'

  00000			 AREA	 |.rdata|, DATA, READONLY
|??_C@_1IO@GLEDLCJG@?$AA?$CF?$AAs?$AA?3?$AA?5?$AAW?$AAa?$AAi?$AAt?$AAF?$AAo?$AAr?$AAS?$AAi?$AAn?$AAg?$AAl?$AAe?$AAO?$AAb?$AAj?$AAe?$AAc?$AAt?$AA?$CI?$AA?$CJ?$AA?5?$AAr?$AAe?$AAt?$AAu?$AAr?$AAn@| DCB "%"
	DCB	0x0, "s", 0x0, ":", 0x0, " ", 0x0, "W", 0x0, "a", 0x0, "i"
	DCB	0x0, "t", 0x0, "F", 0x0, "o", 0x0, "r", 0x0, "S", 0x0, "i"
	DCB	0x0, "n", 0x0, "g", 0x0, "l", 0x0, "e", 0x0, "O", 0x0, "b"
	DCB	0x0, "j", 0x0, "e", 0x0, "c", 0x0, "t", 0x0, "(", 0x0, ")"
	DCB	0x0, " ", 0x0, "r", 0x0, "e", 0x0, "t", 0x0, "u", 0x0, "r"
	DCB	0x0, "n", 0x0, "e", 0x0, "d", 0x0, " ", 0x0, "%", 0x0, "d"
	DCB	0x0, " ", 0x0, "(", 0x0, "e", 0x0, "r", 0x0, "r", 0x0, "o"
	DCB	0x0, "r", 0x0, " ", 0x0, "%", 0x0, "d", 0x0, ")", 0x0, " "
	DCB	0x0, "o", 0x0, "n", 0x0, " ", 0x0, "G", 0x0, "W", 0x0, "E"
	DCB	0x0, "S", 0x0, " ", 0x0, "r", 0x0, "e", 0x0, "a", 0x0, "d"
	DCB	0x0, "y", 0x0, " ", 0x0, "e", 0x0, "v", 0x0, "e", 0x0, "n"
	DCB	0x0, "t", 0x0, 0xd, 0x0, 0xa, 0x0, 0x0, 0x0 ; `string'

  00000			 AREA	 |.rdata|, DATA, READONLY
|??_C@_1CE@NLOFCKJG@?$AAO?$AAp?$AAe?$AAn?$AAD?$AAi?$AAs?$AAp?$AAl?$AAa?$AAy?$AAD?$AAe?$AAv?$AAi?$AAc?$AAe?$AA?$AA@| DCB "O"
	DCB	0x0, "p", 0x0, "e", 0x0, "n", 0x0, "D", 0x0, "i", 0x0, "s"
	DCB	0x0, "p", 0x0, "l", 0x0, "a", 0x0, "y", 0x0, "D", 0x0, "e"
	DCB	0x0, "v", 0x0, "i", 0x0, "c", 0x0, "e", 0x0, 0x0, 0x0 ; `string'

  00000			 AREA	 |.rdata|, DATA, READONLY
|??_C@_1EK@KLGFKKGB@?$AA?$CF?$AAs?$AA?3?$AA?5?$AAw?$AAa?$AAi?$AAt?$AAi?$AAn?$AAg?$AA?5?$AAf?$AAo?$AAr?$AA?5?$AAG?$AAW?$AAE?$AAS?$AA?5?$AAt?$AAo?$AA?5?$AAi?$AAn?$AAi?$AAt?$AAi?$AAa?$AAl?$AAi@| DCB "%"
	DCB	0x0, "s", 0x0, ":", 0x0, " ", 0x0, "w", 0x0, "a", 0x0, "i"
	DCB	0x0, "t", 0x0, "i", 0x0, "n", 0x0, "g", 0x0, " ", 0x0, "f"
	DCB	0x0, "o", 0x0, "r", 0x0, " ", 0x0, "G", 0x0, "W", 0x0, "E"
	DCB	0x0, "S", 0x0, " ", 0x0, "t", 0x0, "o", 0x0, " ", 0x0, "i"
	DCB	0x0, "n", 0x0, "i", 0x0, "t", 0x0, "i", 0x0, "a", 0x0, "l"
	DCB	0x0, "i", 0x0, "z", 0x0, "e", 0x0, 0xd, 0x0, 0xa, 0x0, 0x0
	DCB	0x0					; `string'
; Function compile flags: /Ogspy

  00000			 AREA	 |.text|, CODE, ARM

  00000		 |?OpenDisplayDevice@@YAPAXPAU_DeviceState_tag@@@Z| PROC ; OpenDisplayDevice

; 102  : {

  00000		 |$LN34@OpenDispla|
  00000	e92d4ff0	 stmdb       sp!, {r4 - r11, lr}
  00004	e24dd014	 sub         sp, sp, #0x14
  00008		 |$M33813|
  00008	e1a09000	 mov         r9, r0

; 103  : #ifndef SHIP_BUILD
; 104  :     SETFNAME(_T("OpenDisplayDevice"));
; 105  : #endif
; 106  : 
; 107  :     HANDLE hRet = NULL;
; 108  : 
; 109  :     // Get a handle to the client device.  The client's name will generally be "DISPLAY" for 
; 110  :     // the default display, but it could be anything that CreateDC supports.
; 111  :     PREFAST_DEBUGCHK(gpfnCreateDCW != NULL);
; 112  :     PREFAST_DEBUGCHK(gpfnDeleteDC != NULL);
; 113  :     PREFAST_DEBUGCHK(gpfnExtEscape != NULL);
; 114  : 
; 115  :     // Make sure GWES is ready for us to access this device
; 116  :     if(!gfGwesReady) {

  0000c	e59f61e0	 ldr         r6, [pc, #0x1E0]
  00010	e59f51d8	 ldr         r5, [pc, #0x1D8]
  00014	e3a07000	 mov         r7, #0
  00018	e5963010	 ldr         r3, [r6, #0x10]
  0001c	e3530000	 cmp         r3, #0
  00020	1a00001d	 bne         |$LN29@OpenDispla|

; 117  :         // We need to wait for GWES to finish -- since this is happening
; 118  :         // at boot time, we shouldn't have to wait for long.
; 119  :         DEBUGCHK(ghevGwesAPISetReady != NULL);
; 120  :         PMLOGMSG(ZONE_INIT, (_T("%s: waiting for GWES to initialize\r\n"),
; 121  :             pszFname));

  00024	e5953440	 ldr         r3, [r5, #0x440]
  00028	e3130004	 tst         r3, #4
  0002c	159f01b8	 ldrne       r0, [pc, #0x1B8]
  00030	159f1194	 ldrne       r1, [pc, #0x194]
  00034	1b000000	 blne        CeLogMsg

; 122  :         DWORD dwStatus = WaitForSingleObject(ghevGwesAPISetReady, INFINITE);

  00038	e596000c	 ldr         r0, [r6, #0xC]
  0003c	e3e01000	 mvn         r1, #0
  00040	eb000000	 bl          WaitForSingleObject

; 123  :         if(dwStatus != WAIT_OBJECT_0) {
; 124  :             PMLOGMSG(ZONE_WARN, 
; 125  :                 (_T("%s: WaitForSingleObject() returned %d (error %d) on GWES ready event\r\n"),
; 126  :                 pszFname, GetLastError()));

  00044	e5953440	 ldr         r3, [r5, #0x440]
  00048	e3500000	 cmp         r0, #0
  0004c	0a000007	 beq         |$LN10@OpenDispla|
  00050	e3130002	 tst         r3, #2
  00054	0a00000d	 beq         |$LN30@OpenDispla|
  00058	eb000000	 bl          GetLastError
  0005c	e59f1168	 ldr         r1, [pc, #0x168]
  00060	e1a02000	 mov         r2, r0
  00064	e59f017c	 ldr         r0, [pc, #0x17C]
  00068	eb000000	 bl          CeLogMsg

; 127  :         } else {

  0006c	ea000007	 b           |$LN30@OpenDispla|
  00070		 |$LN10@OpenDispla|

; 128  :             PMLOGMSG(ZONE_INIT, (_T("%s: GWES API sets are ready\r\n"), pszFname));

  00070	e3130004	 tst         r3, #4
  00074	159f0168	 ldrne       r0, [pc, #0x168]
  00078	159f114c	 ldrne       r1, [pc, #0x14C]
  0007c	1b000000	 blne        CeLogMsg

; 129  :             // we don't need to access the event, but keep the handle value non-NULL
; 130  :             // in case more than one display registers itself
; 131  :             CloseHandle(ghevGwesAPISetReady);

  00080	e596000c	 ldr         r0, [r6, #0xC]
  00084	eb000000	 bl          CloseHandle

; 132  :             gfGwesReady = TRUE;

  00088	e3a03001	 mov         r3, #1
  0008c	e5863010	 str         r3, [r6, #0x10]
  00090		 |$LN30@OpenDispla|
  00090	e5963010	 ldr         r3, [r6, #0x10]

; 133  :         }
; 134  :     }
; 135  : 
; 136  :     if(gfGwesReady) {

  00094	e3530000	 cmp         r3, #0
  00098	0a00003d	 beq         |$LN31@OpenDispla|
  0009c		 |$LN29@OpenDispla|

; 137  :         hRet = gpfnCreateDCW(pds->pszName, NULL, NULL, NULL);

  0009c	e5990000	 ldr         r0, [r9]
  000a0	e5964000	 ldr         r4, [r6]
  000a4	e3a03000	 mov         r3, #0
  000a8	e3a02000	 mov         r2, #0
  000ac	e3a01000	 mov         r1, #0
  000b0	e1a0e00f	 mov         lr, pc
  000b4	e12fff14	 bx          r4
  000b8	e1b07000	 movs        r7, r0

; 138  :         if(hRet == NULL) {

  000bc	1a00000e	 bne         |$LN7@OpenDispla|
  000c0	e5953440	 ldr         r3, [r5, #0x440]

; 139  :             PMLOGMSG(ZONE_WARN || ZONE_IOCTL, (_T("%s: CreateDC('%s') failed %d (0x%08x)\r\n"), pszFname,
; 140  :                 pds->pszName, GetLastError(), GetLastError()));

  000c4	e3130002	 tst         r3, #2
  000c8	1a000001	 bne         |$LN20@OpenDispla|
  000cc	e3130020	 tst         r3, #0x20
  000d0	0a00002e	 beq         |$LN21@OpenDispla|
  000d4		 |$LN20@OpenDispla|
  000d4	eb000000	 bl          GetLastError
  000d8	e1a04000	 mov         r4, r0
  000dc	eb000000	 bl          GetLastError
  000e0	e5992000	 ldr         r2, [r9]
  000e4	e59f10e0	 ldr         r1, [pc, #0xE0]
  000e8	e1a03000	 mov         r3, r0
  000ec	e59f00ec	 ldr         r0, [pc, #0xEC]
  000f0	e58d4000	 str         r4, [sp]
  000f4	eb000000	 bl          CeLogMsg

; 141  :             hRet = INVALID_HANDLE_VALUE;
; 142  :         } else {

  000f8	ea000024	 b           |$LN21@OpenDispla|
  000fc		 |$LN7@OpenDispla|

; 143  :             // determine whether the display driver really supports the PM IOCTLs
; 144  :             DWORD dwIoctl[] = { IOCTL_POWER_CAPABILITIES, IOCTL_POWER_SET, IOCTL_POWER_GET };

  000fc	e59f20d8	 ldr         r2, [pc, #0xD8]
  00100	e59f10d0	 ldr         r1, [pc, #0xD0]
  00104	e3a03832	 mov         r3, #0x32, 16
  00108	e3833a01	 orr         r3, r3, #1, 20
  0010c	e58d3008	 str         r3, [sp, #8]
  00110	e58d200c	 str         r2, [sp, #0xC]
  00114	e58d1010	 str         r1, [sp, #0x10]

; 145  :             int i;
; 146  :             for(i = 0; i < dim(dwIoctl); i++) {

  00118	e3a08000	 mov         r8, #0
  0011c	e28da008	 add         r10, sp, #8
  00120	e3a0b000	 mov         r11, #0
  00124		 |$LL5@OpenDispla|

; 147  :                 if(gpfnExtEscape((HDC) hRet, QUERYESCSUPPORT, sizeof(dwIoctl[i]), (LPCSTR) &dwIoctl[i], 0, NULL) <= 0) {

  00124	e5964008	 ldr         r4, [r6, #8]
  00128	e1a0300a	 mov         r3, r10
  0012c	e3a02004	 mov         r2, #4
  00130	e3a01008	 mov         r1, #8
  00134	e1a00007	 mov         r0, r7
  00138	e58db004	 str         r11, [sp, #4]
  0013c	e58db000	 str         r11, [sp]
  00140	e1a0e00f	 mov         lr, pc
  00144	e12fff14	 bx          r4
  00148	e3500000	 cmp         r0, #0
  0014c	da000003	 ble         |$LN27@OpenDispla|
  00150	e2888001	 add         r8, r8, #1
  00154	e3580003	 cmp         r8, #3
  00158	e28aa004	 add         r10, r10, #4
  0015c	3afffff0	 bcc         |$LL5@OpenDispla|
  00160		 |$LN27@OpenDispla|

; 148  :                     break;
; 149  :                 }
; 150  :             }
; 151  :             if(i < dim(dwIoctl)) {

  00160	e3580003	 cmp         r8, #3
  00164	2a00000a	 bcs         |$LN31@OpenDispla|

; 152  :                 PMLOGMSG(ZONE_WARN, (_T("%s: '%s' doesn't support all power manager control codes\r\n"),
; 153  :                     pszFname, pds->pszName));

  00168	e5953440	 ldr         r3, [r5, #0x440]
  0016c	e3130002	 tst         r3, #2
  00170	15992000	 ldrne       r2, [r9]
  00174	159f0058	 ldrne       r0, [pc, #0x58]
  00178	159f104c	 ldrne       r1, [pc, #0x4C]
  0017c	1b000000	 blne        CeLogMsg

; 154  :                 gpfnDeleteDC((HDC) hRet);

  00180	e5963004	 ldr         r3, [r6, #4]
  00184	e1a00007	 mov         r0, r7
  00188	e1a0e00f	 mov         lr, pc
  0018c	e12fff13	 bx          r3
  00190		 |$LN21@OpenDispla|

; 155  :                 hRet = INVALID_HANDLE_VALUE;

  00190	e3e07000	 mvn         r7, #0
  00194		 |$LN31@OpenDispla|
  00194	e5953440	 ldr         r3, [r5, #0x440]

; 156  :             }
; 157  :         }
; 158  :     }
; 159  :     
; 160  :     PMLOGMSG(ZONE_DEVICE || ZONE_IOCTL, (_T("%s: handle to '%s' is 0x%08x\r\n"), \
; 161  :         pszFname, pds->pszName, hRet));

  00198	e3130010	 tst         r3, #0x10
  0019c	1a000001	 bne         |$LN24@OpenDispla|
  001a0	e3130020	 tst         r3, #0x20
  001a4	0a000004	 beq         |$LN25@OpenDispla|
  001a8		 |$LN24@OpenDispla|
  001a8	e5992000	 ldr         r2, [r9]
  001ac	e59f001c	 ldr         r0, [pc, #0x1C]
  001b0	e59f1014	 ldr         r1, [pc, #0x14]
  001b4	e1a03007	 mov         r3, r7
  001b8	eb000000	 bl          CeLogMsg
  001bc		 |$LN25@OpenDispla|

; 162  : 
; 163  :     return hRet;
; 164  : }

  001bc	e1a00007	 mov         r0, r7
  001c0	e28dd014	 add         sp, sp, #0x14
  001c4	e8bd4ff0	 ldmia       sp!, {r4 - r11, lr}
  001c8	e12fff1e	 bx          lr
  001cc		 |$LN35@OpenDispla|
  001cc		 |$LN36@OpenDispla|
  001cc	00000000	 DCD         |??_C@_1CE@NLOFCKJG@?$AAO?$AAp?$AAe?$AAn?$AAD?$AAi?$AAs?$AAp?$AAl?$AAa?$AAy?$AAD?$AAe?$AAv?$AAi?$AAc?$AAe?$AA?$AA@|
  001d0		 |$LN37@OpenDispla|
  001d0	00000000	 DCD         |??_C@_1DO@PDLLAHEA@?$AA?$CF?$AAs?$AA?3?$AA?5?$AAh?$AAa?$AAn?$AAd?$AAl?$AAe?$AA?5?$AAt?$AAo?$AA?5?$AA?8?$AA?$CF?$AAs?$AA?8?$AA?5?$AAi?$AAs?$AA?5?$AA0?$AAx?$AA?$CF?$AA0?$AA8?$AAx?$AA?$AN?$AA?6?$AA?$AA@|
  001d4		 |$LN38@OpenDispla|
  001d4	00000000	 DCD         |??_C@_1HG@BLPIKJJG@?$AA?$CF?$AAs?$AA?3?$AA?5?$AA?8?$AA?$CF?$AAs?$AA?8?$AA?5?$AAd?$AAo?$AAe?$AAs?$AAn?$AA?8?$AAt?$AA?5?$AAs?$AAu?$AAp?$AAp?$AAo?$AAr?$AAt?$AA?5?$AAa?$AAl?$AAl?$AA?5?$AAp?$AAo?$AAw@|
  001d8		 |$LN39@OpenDispla|
  001d8	00321004	 DCD         0x321004
  001dc		 |$LN40@OpenDispla|
  001dc	00321008	 DCD         0x321008
  001e0		 |$LN41@OpenDispla|
  001e0	00000000	 DCD         |??_C@_1FA@LMOJFAIF@?$AA?$CF?$AAs?$AA?3?$AA?5?$AAC?$AAr?$AAe?$AAa?$AAt?$AAe?$AAD?$AAC?$AA?$CI?$AA?8?$AA?$CF?$AAs?$AA?8?$AA?$CJ?$AA?5?$AAf?$AAa?$AAi?$AAl?$AAe?$AAd?$AA?5?$AA?$CF?$AAd?$AA?5?$AA?$CI?$AA0?$AAx@|
  001e4		 |$LN42@OpenDispla|
  001e4	00000000	 DCD         |??_C@_1DM@KCHPFGBA@?$AA?$CF?$AAs?$AA?3?$AA?5?$AAG?$AAW?$AAE?$AAS?$AA?5?$AAA?$AAP?$AAI?$AA?5?$AAs?$AAe?$AAt?$AAs?$AA?5?$AAa?$AAr?$AAe?$AA?5?$AAr?$AAe?$AAa?$AAd?$AAy?$AA?$AN?$AA?6?$AA?$AA@|
  001e8		 |$LN43@OpenDispla|
  001e8	00000000	 DCD         |??_C@_1IO@GLEDLCJG@?$AA?$CF?$AAs?$AA?3?$AA?5?$AAW?$AAa?$AAi?$AAt?$AAF?$AAo?$AAr?$AAS?$AAi?$AAn?$AAg?$AAl?$AAe?$AAO?$AAb?$AAj?$AAe?$AAc?$AAt?$AA?$CI?$AA?$CJ?$AA?5?$AAr?$AAe?$AAt?$AAu?$AAr?$AAn@|
  001ec		 |$LN44@OpenDispla|
  001ec	00000000	 DCD         |??_C@_1EK@KLGFKKGB@?$AA?$CF?$AAs?$AA?3?$AA?5?$AAw?$AAa?$AAi?$AAt?$AAi?$AAn?$AAg?$AA?5?$AAf?$AAo?$AAr?$AA?5?$AAG?$AAW?$AAE?$AAS?$AA?5?$AAt?$AAo?$AA?5?$AAi?$AAn?$AAi?$AAt?$AAi?$AAa?$AAl?$AAi@|
  001f0		 |$LN45@OpenDispla|
  001f0	00000000	 DCD         |dpCurSettings|
  001f4		 |$LN46@OpenDispla|
  001f4	00000000	 DCD         |gpfnCreateDCW|
  001f8		 |$M33814|

			 ENDP  ; |?OpenDisplayDevice@@YAPAXPAU_DeviceState_tag@@@Z|, OpenDisplayDevice

	EXPORT	|??_C@_1FE@DCIDGGHM@?$AA?$CF?$AAs?$AA?3?$AA?5?$AAD?$AAe?$AAl?$AAe?$AAt?$AAe?$AAD?$AAC?$AA?$CI?$AA0?$AAx?$AA?$CF?$AA0?$AA8?$AAx?$AA?$CJ?$AA?5?$AAf?$AAa?$AAi?$AAl?$AAe?$AAd?$AA?5?$AA?$CF?$AAd?$AA?5?$AA?$CI@| [ DATA ] ; `string'
	EXPORT	|??_C@_1CG@KPJCBOPI@?$AAC?$AAl?$AAo?$AAs?$AAe?$AAD?$AAi?$AAs?$AAp?$AAl?$AAa?$AAy?$AAD?$AAe?$AAv?$AAi?$AAc?$AAe?$AA?$AA@| [ DATA ] ; `string'
	EXPORT	|??_C@_1CK@OHDAKAFA@?$AA?$CF?$AAs?$AA?3?$AA?5?$AAc?$AAl?$AAo?$AAs?$AAi?$AAn?$AAg?$AA?5?$AA0?$AAx?$AA?$CF?$AA0?$AA8?$AAx?$AA?$AN?$AA?6?$AA?$AA@| [ DATA ] ; `string'

  00000			 AREA	 |.pdata|, PDATA
|$T33844| DCD	|$LN10@CloseDispl|
	DCD	0x40002b02

  00000			 AREA	 |.rdata|, DATA, READONLY
|??_C@_1FE@DCIDGGHM@?$AA?$CF?$AAs?$AA?3?$AA?5?$AAD?$AAe?$AAl?$AAe?$AAt?$AAe?$AAD?$AAC?$AA?$CI?$AA0?$AAx?$AA?$CF?$AA0?$AA8?$AAx?$AA?$CJ?$AA?5?$AAf?$AAa?$AAi?$AAl?$AAe?$AAd?$AA?5?$AA?$CF?$AAd?$AA?5?$AA?$CI@| DCB "%"
	DCB	0x0, "s", 0x0, ":", 0x0, " ", 0x0, "D", 0x0, "e", 0x0, "l"
	DCB	0x0, "e", 0x0, "t", 0x0, "e", 0x0, "D", 0x0, "C", 0x0, "("
	DCB	0x0, "0", 0x0, "x", 0x0, "%", 0x0, "0", 0x0, "8", 0x0, "x"
	DCB	0x0, ")", 0x0, " ", 0x0, "f", 0x0, "a", 0x0, "i", 0x0, "l"
	DCB	0x0, "e", 0x0, "d", 0x0, " ", 0x0, "%", 0x0, "d", 0x0, " "
	DCB	0x0, "(", 0x0, "0", 0x0, "x", 0x0, "%", 0x0, "0", 0x0, "8"
	DCB	0x0, "x", 0x0, ")", 0x0, 0xd, 0x0, 0xa, 0x0, 0x0, 0x0 ; `string'

  00000			 AREA	 |.rdata|, DATA, READONLY
|??_C@_1CG@KPJCBOPI@?$AAC?$AAl?$AAo?$AAs?$AAe?$AAD?$AAi?$AAs?$AAp?$AAl?$AAa?$AAy?$AAD?$AAe?$AAv?$AAi?$AAc?$AAe?$AA?$AA@| DCB "C"
	DCB	0x0, "l", 0x0, "o", 0x0, "s", 0x0, "e", 0x0, "D", 0x0, "i"
	DCB	0x0, "s", 0x0, "p", 0x0, "l", 0x0, "a", 0x0, "y", 0x0, "D"
	DCB	0x0, "e", 0x0, "v", 0x0, "i", 0x0, "c", 0x0, "e", 0x0, 0x0
	DCB	0x0					; `string'

  00000			 AREA	 |.rdata|, DATA, READONLY
|??_C@_1CK@OHDAKAFA@?$AA?$CF?$AAs?$AA?3?$AA?5?$AAc?$AAl?$AAo?$AAs?$AAi?$AAn?$AAg?$AA?5?$AA0?$AAx?$AA?$CF?$AA0?$AA8?$AAx?$AA?$AN?$AA?6?$AA?$AA@| DCB "%"
	DCB	0x0, "s", 0x0, ":", 0x0, " ", 0x0, "c", 0x0, "l", 0x0, "o"
	DCB	0x0, "s", 0x0, "i", 0x0, "n", 0x0, "g", 0x0, " ", 0x0, "0"
	DCB	0x0, "x", 0x0, "%", 0x0, "0", 0x0, "8", 0x0, "x", 0x0, 0xd
	DCB	0x0, 0xa, 0x0, 0x0, 0x0			; `string'
; Function compile flags: /Ogspy

  00000			 AREA	 |.text|, CODE, ARM

  00000		 |?CloseDisplayDevice@@YAHPAX@Z| PROC	; CloseDisplayDevice

; 170  : {

  00000		 |$LN10@CloseDispl|
  00000	e92d4070	 stmdb       sp!, {r4 - r6, lr}
  00004	e24dd004	 sub         sp, sp, #4
  00008		 |$M33841|
  00008	e1a05000	 mov         r5, r0

; 171  : #ifndef SHIP_BUILD
; 172  :     SETFNAME(_T("CloseDisplayDevice"));
; 173  : #endif
; 174  : 
; 175  :     DEBUGCHK(gpfnCreateDCW != NULL);
; 176  :     DEBUGCHK(gpfnDeleteDC != NULL);
; 177  :     DEBUGCHK(gpfnExtEscape != NULL);
; 178  :     DEBUGCHK(hDevice != NULL && hDevice != INVALID_HANDLE_VALUE);
; 179  :     DEBUGCHK(gfGwesReady);
; 180  : 
; 181  :     PMLOGMSG(ZONE_DEVICE || ZONE_IOCTL, (_T("%s: closing 0x%08x\r\n"), pszFname, hDevice));

  0000c	e59f4094	 ldr         r4, [pc, #0x94]
  00010	e5943440	 ldr         r3, [r4, #0x440]
  00014	e3130010	 tst         r3, #0x10
  00018	1a000001	 bne         |$LN3@CloseDispl|
  0001c	e3130020	 tst         r3, #0x20
  00020	0a000003	 beq         |$LN4@CloseDispl|
  00024		 |$LN3@CloseDispl|
  00024	e59f0078	 ldr         r0, [pc, #0x78]
  00028	e59f106c	 ldr         r1, [pc, #0x6C]
  0002c	e1a02005	 mov         r2, r5
  00030	eb000000	 bl          CeLogMsg
  00034		 |$LN4@CloseDispl|

; 182  :     BOOL fOk = gpfnDeleteDC((HDC) hDevice);

  00034	e59f3064	 ldr         r3, [pc, #0x64]
  00038	e1a00005	 mov         r0, r5
  0003c	e5933000	 ldr         r3, [r3]
  00040	e1a0e00f	 mov         lr, pc
  00044	e12fff13	 bx          r3
  00048	e1b06000	 movs        r6, r0

; 183  :     PMLOGMSG(!fOk && (ZONE_WARN || ZONE_IOCTL), (_T("%s: DeleteDC(0x%08x) failed %d (0x%08x)\r\n"), pszFname,
; 184  :         hDevice, GetLastError(), GetLastError()));

  0004c	1a00000d	 bne         |$LN6@CloseDispl|
  00050	e5943440	 ldr         r3, [r4, #0x440]
  00054	e3130002	 tst         r3, #2
  00058	1a000001	 bne         |$LN5@CloseDispl|
  0005c	e3130020	 tst         r3, #0x20
  00060	0a000008	 beq         |$LN6@CloseDispl|
  00064		 |$LN5@CloseDispl|
  00064	eb000000	 bl          GetLastError
  00068	e1a04000	 mov         r4, r0
  0006c	eb000000	 bl          GetLastError
  00070	e59f1024	 ldr         r1, [pc, #0x24]
  00074	e1a03000	 mov         r3, r0
  00078	e59f0018	 ldr         r0, [pc, #0x18]
  0007c	e1a02005	 mov         r2, r5
  00080	e58d4000	 str         r4, [sp]
  00084	eb000000	 bl          CeLogMsg
  00088		 |$LN6@CloseDispl|

; 185  :     return fOk;
; 186  : }

  00088	e1a00006	 mov         r0, r6
  0008c	e28dd004	 add         sp, sp, #4
  00090	e8bd4070	 ldmia       sp!, {r4 - r6, lr}
  00094	e12fff1e	 bx          lr
  00098		 |$LN11@CloseDispl|
  00098		 |$LN12@CloseDispl|
  00098	00000000	 DCD         |??_C@_1FE@DCIDGGHM@?$AA?$CF?$AAs?$AA?3?$AA?5?$AAD?$AAe?$AAl?$AAe?$AAt?$AAe?$AAD?$AAC?$AA?$CI?$AA0?$AAx?$AA?$CF?$AA0?$AA8?$AAx?$AA?$CJ?$AA?5?$AAf?$AAa?$AAi?$AAl?$AAe?$AAd?$AA?5?$AA?$CF?$AAd?$AA?5?$AA?$CI@|
  0009c		 |$LN13@CloseDispl|
  0009c	00000000	 DCD         |??_C@_1CG@KPJCBOPI@?$AAC?$AAl?$AAo?$AAs?$AAe?$AAD?$AAi?$AAs?$AAp?$AAl?$AAa?$AAy?$AAD?$AAe?$AAv?$AAi?$AAc?$AAe?$AA?$AA@|
  000a0		 |$LN14@CloseDispl|
  000a0	00000000	 DCD         |gpfnDeleteDC|
  000a4		 |$LN15@CloseDispl|
  000a4	00000000	 DCD         |??_C@_1CK@OHDAKAFA@?$AA?$CF?$AAs?$AA?3?$AA?5?$AAc?$AAl?$AAo?$AAs?$AAi?$AAn?$AAg?$AA?5?$AA0?$AAx?$AA?$CF?$AA0?$AA8?$AAx?$AA?$AN?$AA?6?$AA?$AA@|
  000a8		 |$LN16@CloseDispl|
  000a8	00000000	 DCD         |dpCurSettings|
  000ac		 |$M33842|

			 ENDP  ; |?CloseDisplayDevice@@YAHPAX@Z|, CloseDisplayDevice

	EXPORT	|??_C@_1GO@OABAJFNF@?$AA?$CF?$AAs?$AA?3?$AA?5?$AAD?$AAe?$AAv?$AAi?$AAc?$AAe?$AAI?$AAo?$AAC?$AAo?$AAn?$AAt?$AAr?$AAo?$AAl?$AA?$CI?$AA?$CF?$AAd?$AA?$CJ?$AA?5?$AAt?$AAo?$AA?5?$AA0?$AAx?$AA?$CF?$AA0?$AA8@| [ DATA ] ; `string'
	EXPORT	|??_C@_1EO@MFPADMDA@?$AA?$CF?$AAs?$AA?3?$AA?5?$AAe?$AAx?$AAc?$AAe?$AAp?$AAt?$AAi?$AAo?$AAn?$AA?5?$AAi?$AAn?$AA?5?$AAD?$AAe?$AAv?$AAi?$AAc?$AAe?$AAI?$AAo?$AAC?$AAo?$AAn?$AAt?$AAr?$AAo?$AAl@| [ DATA ] ; `string'
	EXPORT	|??_C@_1CK@GFBKGKH@?$AAR?$AAe?$AAq?$AAu?$AAe?$AAs?$AAt?$AAD?$AAi?$AAs?$AAp?$AAl?$AAa?$AAy?$AAD?$AAe?$AAv?$AAi?$AAc?$AAe?$AA?$AA@| [ DATA ] ; `string'
	EXPORT	|??_C@_1GK@FEBAAHFK@?$AA?$CF?$AAs?$AA?3?$AA?5?$AAc?$AAa?$AAl?$AAl?$AAi?$AAn?$AAg?$AA?5?$AAE?$AAx?$AAt?$AAE?$AAs?$AAc?$AAa?$AAp?$AAe?$AA?$CI?$AA0?$AAx?$AA?$CF?$AA0?$AA8?$AAx?$AA?$CJ?$AA?5?$AAw?$AA?1@| [ DATA ] ; `string'
	EXPORT	|??_C@_1BE@GFCJAFPH@?$AA?$DM?$AAU?$AAN?$AAK?$AAN?$AAO?$AAW?$AAN?$AA?$DO?$AA?$AA@| [ DATA ] ; `string'
	EXPORT	|??_C@_1EE@EJIINHMD@?$AAI?$AAO?$AAC?$AAT?$AAL?$AA_?$AAR?$AAE?$AAG?$AAI?$AAS?$AAT?$AAE?$AAR?$AA_?$AAP?$AAO?$AAW?$AAE?$AAR?$AA_?$AAR?$AAE?$AAL?$AAA?$AAT?$AAI?$AAO?$AAN?$AAS?$AAH?$AAI@| [ DATA ] ; `string'
	EXPORT	|??_C@_1CE@CONJIH@?$AAI?$AAO?$AAC?$AAT?$AAL?$AA_?$AAP?$AAO?$AAW?$AAE?$AAR?$AA_?$AAQ?$AAU?$AAE?$AAR?$AAY?$AA?$AA@| [ DATA ] ; `string'
	EXPORT	|??_C@_1CA@CMPIDKOH@?$AAI?$AAO?$AAC?$AAT?$AAL?$AA_?$AAP?$AAO?$AAW?$AAE?$AAR?$AA_?$AAS?$AAE?$AAT?$AA?$AA@| [ DATA ] ; `string'
	EXPORT	|??_C@_1CA@NEAJAFDG@?$AAI?$AAO?$AAC?$AAT?$AAL?$AA_?$AAP?$AAO?$AAW?$AAE?$AAR?$AA_?$AAG?$AAE?$AAT?$AA?$AA@| [ DATA ] ; `string'
	EXPORT	|??_C@_1DC@NLFIAHNJ@?$AAI?$AAO?$AAC?$AAT?$AAL?$AA_?$AAP?$AAO?$AAW?$AAE?$AAR?$AA_?$AAC?$AAA?$AAP?$AAA?$AAB?$AAI?$AAL?$AAI?$AAT?$AAI?$AAE?$AAS?$AA?$AA@| [ DATA ] ; `string'
	IMPORT	|__C_specific_handler|

  00000			 AREA	 |.pdata|, PDATA
|$T33899| DCD	|$LN38@RequestDis|
	DCD	0xc0006705

  00000			 AREA	 |.pdata|, PDATA
|$T33901| DCD	|$LN24@RequestDis|
	DCD	0x40001502

  00000			 AREA	 |.xdata|, DATA
|$T33897| DCD	0x1
	DCD	|$LN28@RequestDis|
	DCD	|$LN29@RequestDis|
	DCD	|$LN24@RequestDis|
	DCD	|$LN25@RequestDis|

  00000			 AREA	 |.rdata|, DATA, READONLY
|??_C@_1GO@OABAJFNF@?$AA?$CF?$AAs?$AA?3?$AA?5?$AAD?$AAe?$AAv?$AAi?$AAc?$AAe?$AAI?$AAo?$AAC?$AAo?$AAn?$AAt?$AAr?$AAo?$AAl?$AA?$CI?$AA?$CF?$AAd?$AA?$CJ?$AA?5?$AAt?$AAo?$AA?5?$AA0?$AAx?$AA?$CF?$AA0?$AA8@| DCB "%"
	DCB	0x0, "s", 0x0, ":", 0x0, " ", 0x0, "D", 0x0, "e", 0x0, "v"
	DCB	0x0, "i", 0x0, "c", 0x0, "e", 0x0, "I", 0x0, "o", 0x0, "C"
	DCB	0x0, "o", 0x0, "n", 0x0, "t", 0x0, "r", 0x0, "o", 0x0, "l"
	DCB	0x0, "(", 0x0, "%", 0x0, "d", 0x0, ")", 0x0, " ", 0x0, "t"
	DCB	0x0, "o", 0x0, " ", 0x0, "0", 0x0, "x", 0x0, "%", 0x0, "0"
	DCB	0x0, "8", 0x0, "x", 0x0, " ", 0x0, "f", 0x0, "a", 0x0, "i"
	DCB	0x0, "l", 0x0, "e", 0x0, "d", 0x0, " ", 0x0, "%", 0x0, "d"
	DCB	0x0, " ", 0x0, "(", 0x0, "0", 0x0, "x", 0x0, "%", 0x0, "0"
	DCB	0x0, "8", 0x0, "x", 0x0, ")", 0x0, 0xd, 0x0, 0xa, 0x0, 0x0
	DCB	0x0					; `string'

  00000			 AREA	 |.rdata|, DATA, READONLY
|??_C@_1EO@MFPADMDA@?$AA?$CF?$AAs?$AA?3?$AA?5?$AAe?$AAx?$AAc?$AAe?$AAp?$AAt?$AAi?$AAo?$AAn?$AA?5?$AAi?$AAn?$AA?5?$AAD?$AAe?$AAv?$AAi?$AAc?$AAe?$AAI?$AAo?$AAC?$AAo?$AAn?$AAt?$AAr?$AAo?$AAl@| DCB "%"
	DCB	0x0, "s", 0x0, ":", 0x0, " ", 0x0, "e", 0x0, "x", 0x0, "c"
	DCB	0x0, "e", 0x0, "p", 0x0, "t", 0x0, "i", 0x0, "o", 0x0, "n"
	DCB	0x0, " ", 0x0, "i", 0x0, "n", 0x0, " ", 0x0, "D", 0x0, "e"
	DCB	0x0, "v", 0x0, "i", 0x0, "c", 0x0, "e", 0x0, "I", 0x0, "o"
	DCB	0x0, "C", 0x0, "o", 0x0, "n", 0x0, "t", 0x0, "r", 0x0, "o"
	DCB	0x0, "l", 0x0, "(", 0x0, "%", 0x0, "d", 0x0, ")", 0x0, 0xd
	DCB	0x0, 0xa, 0x0, 0x0, 0x0			; `string'

  00000			 AREA	 |.rdata|, DATA, READONLY
|??_C@_1CK@GFBKGKH@?$AAR?$AAe?$AAq?$AAu?$AAe?$AAs?$AAt?$AAD?$AAi?$AAs?$AAp?$AAl?$AAa?$AAy?$AAD?$AAe?$AAv?$AAi?$AAc?$AAe?$AA?$AA@| DCB "R"
	DCB	0x0, "e", 0x0, "q", 0x0, "u", 0x0, "e", 0x0, "s", 0x0, "t"
	DCB	0x0, "D", 0x0, "i", 0x0, "s", 0x0, "p", 0x0, "l", 0x0, "a"
	DCB	0x0, "y", 0x0, "D", 0x0, "e", 0x0, "v", 0x0, "i", 0x0, "c"
	DCB	0x0, "e", 0x0, 0x0, 0x0			; `string'

  00000			 AREA	 |.rdata|, DATA, READONLY
|??_C@_1GK@FEBAAHFK@?$AA?$CF?$AAs?$AA?3?$AA?5?$AAc?$AAa?$AAl?$AAl?$AAi?$AAn?$AAg?$AA?5?$AAE?$AAx?$AAt?$AAE?$AAs?$AAc?$AAa?$AAp?$AAe?$AA?$CI?$AA0?$AAx?$AA?$CF?$AA0?$AA8?$AAx?$AA?$CJ?$AA?5?$AAw?$AA?1@| DCB "%"
	DCB	0x0, "s", 0x0, ":", 0x0, " ", 0x0, "c", 0x0, "a", 0x0, "l"
	DCB	0x0, "l", 0x0, "i", 0x0, "n", 0x0, "g", 0x0, " ", 0x0, "E"
	DCB	0x0, "x", 0x0, "t", 0x0, "E", 0x0, "s", 0x0, "c", 0x0, "a"
	DCB	0x0, "p", 0x0, "e", 0x0, "(", 0x0, "0", 0x0, "x", 0x0, "%"
	DCB	0x0, "0", 0x0, "8", 0x0, "x", 0x0, ")", 0x0, " ", 0x0, "w"
	DCB	0x0, "/", 0x0, " ", 0x0, "r", 0x0, "e", 0x0, "q", 0x0, "u"
	DCB	0x0, "e", 0x0, "s", 0x0, "t", 0x0, " ", 0x0, "%", 0x0, "d"
	DCB	0x0, " ", 0x0, "(", 0x0, "'", 0x0, "%", 0x0, "s", 0x0, "'"
	DCB	0x0, ")", 0x0, 0xd, 0x0, 0xa, 0x0, 0x0, 0x0 ; `string'

  00000			 AREA	 |.rdata|, DATA, READONLY
|??_C@_1BE@GFCJAFPH@?$AA?$DM?$AAU?$AAN?$AAK?$AAN?$AAO?$AAW?$AAN?$AA?$DO?$AA?$AA@| DCB "<"
	DCB	0x0, "U", 0x0, "N", 0x0, "K", 0x0, "N", 0x0, "O", 0x0, "W"
	DCB	0x0, "N", 0x0, ">", 0x0, 0x0, 0x0	; `string'

  00000			 AREA	 |.rdata|, DATA, READONLY
|??_C@_1EE@EJIINHMD@?$AAI?$AAO?$AAC?$AAT?$AAL?$AA_?$AAR?$AAE?$AAG?$AAI?$AAS?$AAT?$AAE?$AAR?$AA_?$AAP?$AAO?$AAW?$AAE?$AAR?$AA_?$AAR?$AAE?$AAL?$AAA?$AAT?$AAI?$AAO?$AAN?$AAS?$AAH?$AAI@| DCB "I"
	DCB	0x0, "O", 0x0, "C", 0x0, "T", 0x0, "L", 0x0, "_", 0x0, "R"
	DCB	0x0, "E", 0x0, "G", 0x0, "I", 0x0, "S", 0x0, "T", 0x0, "E"
	DCB	0x0, "R", 0x0, "_", 0x0, "P", 0x0, "O", 0x0, "W", 0x0, "E"
	DCB	0x0, "R", 0x0, "_", 0x0, "R", 0x0, "E", 0x0, "L", 0x0, "A"
	DCB	0x0, "T", 0x0, "I", 0x0, "O", 0x0, "N", 0x0, "S", 0x0, "H"
	DCB	0x0, "I", 0x0, "P", 0x0, 0x0, 0x0	; `string'

  00000			 AREA	 |.rdata|, DATA, READONLY
|??_C@_1CE@CONJIH@?$AAI?$AAO?$AAC?$AAT?$AAL?$AA_?$AAP?$AAO?$AAW?$AAE?$AAR?$AA_?$AAQ?$AAU?$AAE?$AAR?$AAY?$AA?$AA@| DCB "I"
	DCB	0x0, "O", 0x0, "C", 0x0, "T", 0x0, "L", 0x0, "_", 0x0, "P"
	DCB	0x0, "O", 0x0, "W", 0x0, "E", 0x0, "R", 0x0, "_", 0x0, "Q"
	DCB	0x0, "U", 0x0, "E", 0x0, "R", 0x0, "Y", 0x0, 0x0, 0x0 ; `string'

  00000			 AREA	 |.rdata|, DATA, READONLY
|??_C@_1CA@CMPIDKOH@?$AAI?$AAO?$AAC?$AAT?$AAL?$AA_?$AAP?$AAO?$AAW?$AAE?$AAR?$AA_?$AAS?$AAE?$AAT?$AA?$AA@| DCB "I"
	DCB	0x0, "O", 0x0, "C", 0x0, "T", 0x0, "L", 0x0, "_", 0x0, "P"
	DCB	0x0, "O", 0x0, "W", 0x0, "E", 0x0, "R", 0x0, "_", 0x0, "S"
	DCB	0x0, "E", 0x0, "T", 0x0, 0x0, 0x0	; `string'

  00000			 AREA	 |.rdata|, DATA, READONLY
|??_C@_1CA@NEAJAFDG@?$AAI?$AAO?$AAC?$AAT?$AAL?$AA_?$AAP?$AAO?$AAW?$AAE?$AAR?$AA_?$AAG?$AAE?$AAT?$AA?$AA@| DCB "I"
	DCB	0x0, "O", 0x0, "C", 0x0, "T", 0x0, "L", 0x0, "_", 0x0, "P"
	DCB	0x0, "O", 0x0, "W", 0x0, "E", 0x0, "R", 0x0, "_", 0x0, "G"
	DCB	0x0, "E", 0x0, "T", 0x0, 0x0, 0x0	; `string'

  00000			 AREA	 |.rdata|, DATA, READONLY
|??_C@_1DC@NLFIAHNJ@?$AAI?$AAO?$AAC?$AAT?$AAL?$AA_?$AAP?$AAO?$AAW?$AAE?$AAR?$AA_?$AAC?$AAA?$AAP?$AAA?$AAB?$AAI?$AAL?$AAI?$AAT?$AAI?$AAE?$AAS?$AA?$AA@| DCB "I"
	DCB	0x0, "O", 0x0, "C", 0x0, "T", 0x0, "L", 0x0, "_", 0x0, "P"
	DCB	0x0, "O", 0x0, "W", 0x0, "E", 0x0, "R", 0x0, "_", 0x0, "C"
	DCB	0x0, "A", 0x0, "P", 0x0, "A", 0x0, "B", 0x0, "I", 0x0, "L"
	DCB	0x0, "I", 0x0, "T", 0x0, "I", 0x0, "E", 0x0, "S", 0x0, 0x0
	DCB	0x0					; `string'
; Function compile flags: /Ogspy

  00000			 AREA	 |.text|, CODE, ARM

  00000	00000000	 DCD         |__C_specific_handler|
  00004	00000000	 DCD         |$T33897|

  00008		 |?RequestDisplayDevice@@YAHPAXK0K0KPAK@Z| PROC ; RequestDisplayDevice

; 193  : {

  00008		 |$LN38@RequestDis|
  00008	e1a0c00d	 mov         r12, sp
  0000c	e92d000f	 stmdb       sp!, {r0 - r3}
  00010	e92d5ff0	 stmdb       sp!, {r4 - r12, lr}
  00014	e28db028	 add         r11, sp, #0x28
  00018	e24dd014	 sub         sp, sp, #0x14
  0001c		 |$LN36@RequestDis|
  0001c	e50b3030	 str         r3, [r11, #-0x30]
  00020	e1a03002	 mov         r3, r2
  00024	e50b3034	 str         r3, [r11, #-0x34]
  00028	e1a06001	 mov         r6, r1
  0002c	e58b6004	 str         r6, [r11, #4]
  00030	e1a09000	 mov         r9, r0
  00034	e58b9000	 str         r9, [r11]

; 194  :     BOOL fOk = FALSE;

  00038	e3a07000	 mov         r7, #0
  0003c		 |$LN28@RequestDis|

; 195  :     int iStatus;
; 196  : 
; 197  : #ifndef SHIP_BUILD
; 198  :     SETFNAME(_T("RequestDisplayDevice"));
; 199  : #endif
; 200  : 
; 201  :     DEBUGCHK(gpfnCreateDCW != NULL);
; 202  :     PREFAST_DEBUGCHK(gpfnDeleteDC != NULL);
; 203  :     PREFAST_DEBUGCHK(gpfnExtEscape != NULL);
; 204  :     DEBUGCHK(hDevice != NULL && hDevice != INVALID_HANDLE_VALUE);
; 205  :     DEBUGCHK(gfGwesReady);
; 206  : 
; 207  :     __try {
; 208  :         PMLOGMSG(ZONE_IOCTL, (_T("%s: calling ExtEscape(0x%08x) w/ request %d ('%s')\r\n"),
; 209  :             pszFname, hDevice, dwRequest, 
; 210  :             dwRequest == IOCTL_POWER_CAPABILITIES ? _T("IOCTL_POWER_CAPABILITIES") 
; 211  :             : dwRequest == IOCTL_POWER_GET ? _T("IOCTL_POWER_GET") 
; 212  :             : dwRequest == IOCTL_POWER_SET ? _T("IOCTL_POWER_SET") 
; 213  :             : dwRequest == IOCTL_POWER_QUERY ? _T("IOCTL_POWER_QUERY") 
; 214  :             : dwRequest == IOCTL_REGISTER_POWER_RELATIONSHIP ? _T("IOCTL_REGISTER_POWER_RELATIONSHIP")
; 215  :             : _T("<UNKNOWN>")));

  0003c	e59f8180	 ldr         r8, [pc, #0x180]
  00040	e598e440	 ldr         lr, [r8, #0x440]
  00044	e31e0020	 tst         lr, #0x20
  00048	0a00001a	 beq         |$LN33@RequestDis|
  0004c	e3a03832	 mov         r3, #0x32, 16
  00050	e383ea01	 orr         lr, r3, #1, 20
  00054	e156000e	 cmp         r6, lr
  00058	059fe194	 ldreq       lr, [pc, #0x194]
  0005c	0a00000f	 beq         |$LN7@RequestDis|
  00060	e59f3188	 ldr         r3, [pc, #0x188]
  00064	e1560003	 cmp         r6, r3
  00068	059fe17c	 ldreq       lr, [pc, #0x17C]
  0006c	0a00000b	 beq         |$LN7@RequestDis|
  00070	e59f3170	 ldr         r3, [pc, #0x170]
  00074	e1560003	 cmp         r6, r3
  00078	059fe164	 ldreq       lr, [pc, #0x164]
  0007c	0a000007	 beq         |$LN7@RequestDis|
  00080	e59f3158	 ldr         r3, [pc, #0x158]
  00084	e1560003	 cmp         r6, r3
  00088	059fe14c	 ldreq       lr, [pc, #0x14C]
  0008c	0a000003	 beq         |$LN7@RequestDis|
  00090	e59f3140	 ldr         r3, [pc, #0x140]
  00094	e1560003	 cmp         r6, r3
  00098	059fe134	 ldreq       lr, [pc, #0x134]
  0009c	159fe12c	 ldrne       lr, [pc, #0x12C]
  000a0		 |$LN7@RequestDis|
  000a0	e59f0124	 ldr         r0, [pc, #0x124]
  000a4	e1a03006	 mov         r3, r6
  000a8	e59f1108	 ldr         r1, [pc, #0x108]
  000ac	e1a02009	 mov         r2, r9
  000b0	e58de000	 str         lr, [sp]
  000b4	eb000000	 bl          CeLogMsg
  000b8		 |$LN33@RequestDis|

; 216  :         iStatus = gpfnExtEscape((HDC) hDevice, dwRequest, dwInSize, (LPCSTR) pInBuf, 
; 217  :             dwOutSize, (LPSTR) pOutBuf);

  000b8	e59f3108	 ldr         r3, [pc, #0x108]
  000bc	e59b5010	 ldr         r5, [r11, #0x10]
  000c0	e59ba014	 ldr         r10, [r11, #0x14]
  000c4	e5934000	 ldr         r4, [r3]
  000c8	e51b3034	 ldr         r3, [r11, #-0x34]
  000cc	e51b2030	 ldr         r2, [r11, #-0x30]
  000d0	e1a01006	 mov         r1, r6
  000d4	e1a00009	 mov         r0, r9
  000d8	e58d5004	 str         r5, [sp, #4]
  000dc	e58da000	 str         r10, [sp]
  000e0	e1a0e00f	 mov         lr, pc
  000e4	e12fff14	 bx          r4

; 218  :         if(iStatus > 0) {

  000e8	e3500000	 cmp         r0, #0
  000ec	da000004	 ble         |$LN29@RequestDis|

; 219  :             fOk = TRUE;
; 220  :             if(pdwBytesRet != NULL) {

  000f0	e59b3018	 ldr         r3, [r11, #0x18]
  000f4	e3a07001	 mov         r7, #1
  000f8	e50b702c	 str         r7, [r11, #-0x2C]
  000fc	e3530000	 cmp         r3, #0

; 221  :                 // need to fill this in with something
; 222  :                 *pdwBytesRet = dwOutSize;

  00100	1583a000	 strne       r10, [r3]
  00104		 |$LN29@RequestDis|

; 223  :             }
; 224  :         }
; 225  :     }

  00104	e5983440	 ldr         r3, [r8, #0x440]
  00108	ea00000e	 b           |$LN30@RequestDis|
  0010c		 |$LN25@RequestDis|

; 227  :         PMLOGMSG(ZONE_WARN || ZONE_IOCTL, (_T("%s: exception in DeviceIoControl(%d)\r\n"), pszFname,
; 228  :             dwRequest));

  0010c	e59f80b0	 ldr         r8, [pc, #0xB0]
  00110	e5983440	 ldr         r3, [r8, #0x440]
  00114	e3130002	 tst         r3, #2
  00118	03130020	 tsteq       r3, #0x20
  0011c	059b6004	 ldreq       r6, [r11, #4]
  00120	0a000005	 beq         |$LN19@RequestDis|
  00124	e59b6004	 ldr         r6, [r11, #4]
  00128	e59f0090	 ldr         r0, [pc, #0x90]
  0012c	e1a02006	 mov         r2, r6
  00130	e59f1080	 ldr         r1, [pc, #0x80]
  00134	eb000000	 bl          CeLogMsg
  00138	e5983440	 ldr         r3, [r8, #0x440]
  0013c		 |$LN19@RequestDis|

; 229  :         fOk = FALSE;

  0013c	e3a07000	 mov         r7, #0
  00140	e50b702c	 str         r7, [r11, #-0x2C]
  00144	e59b9000	 ldr         r9, [r11]
  00148		 |$LN30@RequestDis|

; 230  :     }
; 231  : 
; 232  :     PMLOGMSG(!fOk && (ZONE_WARN || ZONE_IOCTL), 
; 233  :         (_T("%s: DeviceIoControl(%d) to 0x%08x failed %d (0x%08x)\r\n"), pszFname,
; 234  :         dwRequest, hDevice, GetLastError(), GetLastError()));

  00148	e3570000	 cmp         r7, #0
  0014c	1a000010	 bne         |$LN4@RequestDis|
  00150	e3130002	 tst         r3, #2
  00154	1a000001	 bne         |$LN20@RequestDis|
  00158	e3130020	 tst         r3, #0x20
  0015c	0a00000c	 beq         |$LN4@RequestDis|
  00160		 |$LN20@RequestDis|
  00160	eb000000	 bl          GetLastError
  00164	e1a04000	 mov         r4, r0
  00168	eb000000	 bl          GetLastError
  0016c	e1a0e000	 mov         lr, r0
  00170	e59f0044	 ldr         r0, [pc, #0x44]
  00174	e1a03009	 mov         r3, r9
  00178	e1a02006	 mov         r2, r6
  0017c	e59f1034	 ldr         r1, [pc, #0x34]
  00180	e58d4004	 str         r4, [sp, #4]
  00184	e58de000	 str         lr, [sp]
  00188	eb000000	 bl          CeLogMsg

; 235  :     return fOk;

  0018c	ea000000	 b           |$LN4@RequestDis|
  00190		 |$LN35@RequestDis|
  00190	e51b7030	 ldr         r7, [r11, #-0x30]
  00194		 |$LN4@RequestDis|

; 236  : }

  00194	e1a00007	 mov         r0, r7
  00198	e24bd028	 sub         sp, r11, #0x28
  0019c	e89d6ff0	 ldmia       sp, {r4 - r11, sp, lr}
  001a0	e12fff1e	 bx          lr

			 ENDP  ; |?RequestDisplayDevice@@YAHPAXK0K0KPAK@Z|, RequestDisplayDevice

  001a4		 |$LN24@RequestDis|
  001a4		 |$LN37@RequestDis|

; 226  :     __except(EXCEPTION_EXECUTE_HANDLER) {

  001a4	e52de004	 str         lr, [sp, #-4]!
  001a8	e24dd008	 sub         sp, sp, #8
  001ac		 |$LN27@RequestDis|
  001ac		 |$LN40@RequestDis|
  001ac	e3a00001	 mov         r0, #1
  001b0		 |$LN26@RequestDis|
  001b0	e28dd008	 add         sp, sp, #8
  001b4	e49df004	 ldr         pc, [sp], #4
  001b8		 |$LN42@RequestDis|
  001b8		 |$LN43@RequestDis|
  001b8	00000000	 DCD         |??_C@_1CK@GFBKGKH@?$AAR?$AAe?$AAq?$AAu?$AAe?$AAs?$AAt?$AAD?$AAi?$AAs?$AAp?$AAl?$AAa?$AAy?$AAD?$AAe?$AAv?$AAi?$AAc?$AAe?$AA?$AA@|
  001bc		 |$LN44@RequestDis|
  001bc	00000000	 DCD         |??_C@_1GO@OABAJFNF@?$AA?$CF?$AAs?$AA?3?$AA?5?$AAD?$AAe?$AAv?$AAi?$AAc?$AAe?$AAI?$AAo?$AAC?$AAo?$AAn?$AAt?$AAr?$AAo?$AAl?$AA?$CI?$AA?$CF?$AAd?$AA?$CJ?$AA?5?$AAt?$AAo?$AA?5?$AA0?$AAx?$AA?$CF?$AA0?$AA8@|
  001c0		 |$LN45@RequestDis|
  001c0	00000000	 DCD         |??_C@_1EO@MFPADMDA@?$AA?$CF?$AAs?$AA?3?$AA?5?$AAe?$AAx?$AAc?$AAe?$AAp?$AAt?$AAi?$AAo?$AAn?$AA?5?$AAi?$AAn?$AA?5?$AAD?$AAe?$AAv?$AAi?$AAc?$AAe?$AAI?$AAo?$AAC?$AAo?$AAn?$AAt?$AAr?$AAo?$AAl@|
  001c4		 |$LN46@RequestDis|
  001c4	00000000	 DCD         |dpCurSettings|
  001c8		 |$LN47@RequestDis|
  001c8	00000000	 DCD         |gpfnExtEscape|
  001cc		 |$LN48@RequestDis|
  001cc	00000000	 DCD         |??_C@_1GK@FEBAAHFK@?$AA?$CF?$AAs?$AA?3?$AA?5?$AAc?$AAa?$AAl?$AAl?$AAi?$AAn?$AAg?$AA?5?$AAE?$AAx?$AAt?$AAE?$AAs?$AAc?$AAa?$AAp?$AAe?$AA?$CI?$AA0?$AAx?$AA?$CF?$AA0?$AA8?$AAx?$AA?$CJ?$AA?5?$AAw?$AA?1@|
  001d0		 |$LN49@RequestDis|
  001d0	00000000	 DCD         |??_C@_1BE@GFCJAFPH@?$AA?$DM?$AAU?$AAN?$AAK?$AAN?$AAO?$AAW?$AAN?$AA?$DO?$AA?$AA@|
  001d4		 |$LN50@RequestDis|
  001d4	00000000	 DCD         |??_C@_1EE@EJIINHMD@?$AAI?$AAO?$AAC?$AAT?$AAL?$AA_?$AAR?$AAE?$AAG?$AAI?$AAS?$AAT?$AAE?$AAR?$AA_?$AAP?$AAO?$AAW?$AAE?$AAR?$AA_?$AAR?$AAE?$AAL?$AAA?$AAT?$AAI?$AAO?$AAN?$AAS?$AAH?$AAI@|
  001d8		 |$LN51@RequestDis|
  001d8	00321018	 DCD         0x321018
  001dc		 |$LN52@RequestDis|
  001dc	00000000	 DCD         |??_C@_1CE@CONJIH@?$AAI?$AAO?$AAC?$AAT?$AAL?$AA_?$AAP?$AAO?$AAW?$AAE?$AAR?$AA_?$AAQ?$AAU?$AAE?$AAR?$AAY?$AA?$AA@|
  001e0		 |$LN53@RequestDis|
  001e0	0032100c	 DCD         0x32100c
  001e4		 |$LN54@RequestDis|
  001e4	00000000	 DCD         |??_C@_1CA@CMPIDKOH@?$AAI?$AAO?$AAC?$AAT?$AAL?$AA_?$AAP?$AAO?$AAW?$AAE?$AAR?$AA_?$AAS?$AAE?$AAT?$AA?$AA@|
  001e8		 |$LN55@RequestDis|
  001e8	00321008	 DCD         0x321008
  001ec		 |$LN56@RequestDis|
  001ec	00000000	 DCD         |??_C@_1CA@NEAJAFDG@?$AAI?$AAO?$AAC?$AAT?$AAL?$AA_?$AAP?$AAO?$AAW?$AAE?$AAR?$AA_?$AAG?$AAE?$AAT?$AA?$AA@|
  001f0		 |$LN57@RequestDis|
  001f0	00321004	 DCD         0x321004
  001f4		 |$LN58@RequestDis|
  001f4	00000000	 DCD         |??_C@_1DC@NLFIAHNJ@?$AAI?$AAO?$AAC?$AAT?$AAL?$AA_?$AAP?$AAO?$AAW?$AAE?$AAR?$AA_?$AAC?$AAA?$AAP?$AAA?$AAB?$AAI?$AAL?$AAI?$AAT?$AAI?$AAE?$AAS?$AA?$AA@|
  001f8		 |$LN41@RequestDis|
  001f8		 |$LN39@RequestDis|
	END
