; Listing generated by Microsoft (R) Optimizing Compiler Version 14.01.60511.01 

	TTL	C:\WINCE600\PLATFORM\Z2170P\SRC\APP\PROXYDRIVER\proxydriver.cpp
	CODE32

  00000			 AREA	 |.drectve|, DRECTVE
	DCB	"-defaultlib:LIBCMT "
	DCB	"-defaultlib:OLDNAMES "

	EXPORT	|dpCurSettings| [ DATA ]

  00000			 AREA	 |.data|, DATA
|dpCurSettings| DCB "P", 0x0, "r", 0x0, "o", 0x0, "x", 0x0, "y", 0x0, "D", 0x0
	DCB	"r", 0x0, "i", 0x0, "v", 0x0, "e", 0x0, "r", 0x0, 0x0, 0x0
	%	40
	DCB	"E", 0x0, "r", 0x0, "r", 0x0, "o", 0x0, "r", 0x0, "s", 0x0
	DCB	0x0, 0x0
	%	50
	DCB	"W", 0x0, "a", 0x0, "r", 0x0, "n", 0x0, "i", 0x0, "n", 0x0
	DCB	"g", 0x0, "s", 0x0, 0x0, 0x0
	%	46
	DCB	"F", 0x0, "u", 0x0, "n", 0x0, "c", 0x0, "t", 0x0, "i", 0x0
	DCB	"o", 0x0, "n", 0x0, 0x0, 0x0
	%	46
	DCB	"I", 0x0, "n", 0x0, "f", 0x0, "o", 0x0, 0x0, 0x0
	%	54
	DCB	"U", 0x0, "n", 0x0, "d", 0x0, "e", 0x0, "f", 0x0, "i", 0x0
	DCB	"n", 0x0, "e", 0x0, "d", 0x0, 0x0, 0x0
	%	44
	DCB	"U", 0x0, "n", 0x0, "d", 0x0, "e", 0x0, "f", 0x0, "i", 0x0
	DCB	"n", 0x0, "e", 0x0, "d", 0x0, 0x0, 0x0
	%	44
	DCB	"U", 0x0, "n", 0x0, "d", 0x0, "e", 0x0, "f", 0x0, "i", 0x0
	DCB	"n", 0x0, "e", 0x0, "d", 0x0, 0x0, 0x0
	%	44
	DCB	"U", 0x0, "n", 0x0, "d", 0x0, "e", 0x0, "f", 0x0, "i", 0x0
	DCB	"n", 0x0, "e", 0x0, "d", 0x0, 0x0, 0x0
	%	44
	DCB	"U", 0x0, "n", 0x0, "d", 0x0, "e", 0x0, "f", 0x0, "i", 0x0
	DCB	"n", 0x0, "e", 0x0, "d", 0x0, 0x0, 0x0
	%	44
	DCB	"U", 0x0, "n", 0x0, "d", 0x0, "e", 0x0, "f", 0x0, "i", 0x0
	DCB	"n", 0x0, "e", 0x0, "d", 0x0, 0x0, 0x0
	%	44
	DCB	"U", 0x0, "n", 0x0, "d", 0x0, "e", 0x0, "f", 0x0, "i", 0x0
	DCB	"n", 0x0, "e", 0x0, "d", 0x0, 0x0, 0x0
	%	44
	DCB	"U", 0x0, "n", 0x0, "d", 0x0, "e", 0x0, "f", 0x0, "i", 0x0
	DCB	"n", 0x0, "e", 0x0, "d", 0x0, 0x0, 0x0
	%	44
	DCB	"U", 0x0, "n", 0x0, "d", 0x0, "e", 0x0, "f", 0x0, "i", 0x0
	DCB	"n", 0x0, "e", 0x0, "d", 0x0, 0x0, 0x0
	%	44
	DCB	"U", 0x0, "n", 0x0, "d", 0x0, "e", 0x0, "f", 0x0, "i", 0x0
	DCB	"n", 0x0, "e", 0x0, "d", 0x0, 0x0, 0x0
	%	44
	DCB	"U", 0x0, "n", 0x0, "d", 0x0, "e", 0x0, "f", 0x0, "i", 0x0
	DCB	"n", 0x0, "e", 0x0, "d", 0x0, 0x0, 0x0
	%	44
	DCB	"U", 0x0, "n", 0x0, "d", 0x0, "e", 0x0, "f", 0x0, "i", 0x0
	DCB	"n", 0x0, "e", 0x0, "d", 0x0, 0x0, 0x0
	%	44
	DCD	0xb
	EXPORT	|GetCurrentProcess|
; File c:\wince600\public\common\sdk\inc\kfuncs.h

  00000			 AREA	 |.pdata|, PDATA
|$T39533| DCD	|$LN5@GetCurrent|
	DCD	0x40000200
; Function compile flags: /Ogspy

  00000			 AREA	 |.text|, CODE, ARM

  00000		 |GetCurrentProcess| PROC

; 361  : _inline HANDLE GetCurrentProcess(void) {

  00000		 |$LN5@GetCurrent|
  00000		 |$M39530|

; 362  : 	return ((HANDLE)(SH_CURPROC+SYS_HANDLE_BASE));

  00000	e3a00042	 mov         r0, #0x42

; 363  : }

  00004	e12fff1e	 bx          lr
  00008		 |$M39531|

			 ENDP  ; |GetCurrentProcess|

	EXPORT	|?PXY_Deinit@@YAHK@Z|			; PXY_Deinit
	EXPORT	|??_C@_1CO@GLJIAKJM@?$AA?9?$AAP?$AAX?$AAY?$AA_?$AAD?$AAe?$AAi?$AAn?$AAi?$AAt?$AA?$CI?$AAr?$AAc?$AA?5?$AA?$DN?$AA?5?$AA?$CF?$AAd?$AA?$CJ?$AA?$AN?$AA?6?$AA?$AA@| [ DATA ] ; `string'
	EXPORT	|??_C@_1HA@POCLFAL@?$AAT?$AAL?$AAD?$AA?3?$AA?5?$AA?$CB?$AAE?$AAR?$AAR?$AAO?$AAR?$AA?$CI?$AAP?$AAX?$AAY?$AA_?$AAD?$AAe?$AAi?$AAn?$AAi?$AAt?$AA?$CJ?$AA?5?$AA?9?$AA?5?$AAI?$AAn?$AAc?$AAo?$AAr?$AAr@| [ DATA ] ; `string'
	EXPORT	|??_C@_1CM@PAGLALCK@?$AA?$CL?$AAP?$AAX?$AAY?$AA_?$AAD?$AAe?$AAi?$AAn?$AAi?$AAt?$AA?$CI?$AA0?$AAx?$AA?$CF?$AA0?$AA8?$AAx?$AA?$CJ?$AA?$AN?$AA?6?$AA?$AA@| [ DATA ] ; `string'
	IMPORT	|LocalFree|
	IMPORT	|CloseHandle|
	IMPORT	|PmxReleaseConstraint|
	IMPORT	|NKDbgPrintfW|
; File c:\wince600\platform\z2170p\src\app\proxydriver\proxydriver.cpp

  00000			 AREA	 |.pdata|, PDATA
|$T39550| DCD	|$LN17@PXY_Deinit|
	DCD	0x40002d01

  00000			 AREA	 |.rdata|, DATA, READONLY
|??_C@_1CO@GLJIAKJM@?$AA?9?$AAP?$AAX?$AAY?$AA_?$AAD?$AAe?$AAi?$AAn?$AAi?$AAt?$AA?$CI?$AAr?$AAc?$AA?5?$AA?$DN?$AA?5?$AA?$CF?$AAd?$AA?$CJ?$AA?$AN?$AA?6?$AA?$AA@| DCB "-"
	DCB	0x0, "P", 0x0, "X", 0x0, "Y", 0x0, "_", 0x0, "D", 0x0, "e"
	DCB	0x0, "i", 0x0, "n", 0x0, "i", 0x0, "t", 0x0, "(", 0x0, "r"
	DCB	0x0, "c", 0x0, " ", 0x0, "=", 0x0, " ", 0x0, "%", 0x0, "d"
	DCB	0x0, ")", 0x0, 0xd, 0x0, 0xa, 0x0, 0x0, 0x0 ; `string'

  00000			 AREA	 |.rdata|, DATA, READONLY
|??_C@_1HA@POCLFAL@?$AAT?$AAL?$AAD?$AA?3?$AA?5?$AA?$CB?$AAE?$AAR?$AAR?$AAO?$AAR?$AA?$CI?$AAP?$AAX?$AAY?$AA_?$AAD?$AAe?$AAi?$AAn?$AAi?$AAt?$AA?$CJ?$AA?5?$AA?9?$AA?5?$AAI?$AAn?$AAc?$AAo?$AAr?$AAr@| DCB "T"
	DCB	0x0, "L", 0x0, "D", 0x0, ":", 0x0, " ", 0x0, "!", 0x0, "E"
	DCB	0x0, "R", 0x0, "R", 0x0, "O", 0x0, "R", 0x0, "(", 0x0, "P"
	DCB	0x0, "X", 0x0, "Y", 0x0, "_", 0x0, "D", 0x0, "e", 0x0, "i"
	DCB	0x0, "n", 0x0, "i", 0x0, "t", 0x0, ")", 0x0, " ", 0x0, "-"
	DCB	0x0, " ", 0x0, "I", 0x0, "n", 0x0, "c", 0x0, "o", 0x0, "r"
	DCB	0x0, "r", 0x0, "e", 0x0, "c", 0x0, "t", 0x0, " ", 0x0, "c"
	DCB	0x0, "o", 0x0, "n", 0x0, "t", 0x0, "e", 0x0, "x", 0x0, "t"
	DCB	0x0, " ", 0x0, "p", 0x0, "a", 0x0, "r", 0x0, "a", 0x0, "m"
	DCB	0x0, "e", 0x0, "t", 0x0, "e", 0x0, "r", 0x0, 0xd, 0x0, 0xa
	DCB	0x0, 0x0, 0x0				; `string'

  00000			 AREA	 |.rdata|, DATA, READONLY
|??_C@_1CM@PAGLALCK@?$AA?$CL?$AAP?$AAX?$AAY?$AA_?$AAD?$AAe?$AAi?$AAn?$AAi?$AAt?$AA?$CI?$AA0?$AAx?$AA?$CF?$AA0?$AA8?$AAx?$AA?$CJ?$AA?$AN?$AA?6?$AA?$AA@| DCB "+"
	DCB	0x0, "P", 0x0, "X", 0x0, "Y", 0x0, "_", 0x0, "D", 0x0, "e"
	DCB	0x0, "i", 0x0, "n", 0x0, "i", 0x0, "t", 0x0, "(", 0x0, "0"
	DCB	0x0, "x", 0x0, "%", 0x0, "0", 0x0, "8", 0x0, "x", 0x0, ")"
	DCB	0x0, 0xd, 0x0, 0xa, 0x0, 0x0, 0x0	; `string'
; Function compile flags: /Ogspy

  00000			 AREA	 |.text|, CODE, ARM

  00000		 |?PXY_Deinit@@YAHK@Z| PROC		; PXY_Deinit

; 182  : {

  00000		 |$LN17@PXY_Deinit|
  00000	e92d4070	 stmdb       sp!, {r4 - r6, lr}
  00004		 |$M39547|
  00004	e1a04000	 mov         r4, r0

; 183  :     BOOL rc = FALSE;
; 184  :     Device_t *pDevice = (Device_t*)context;
; 185  : 
; 186  :     RETAILMSG(ZONE_FUNCTION, (L"+PXY_Deinit(0x%08x)\r\n", context));

  00008	e59f60a0	 ldr         r6, [pc, #0xA0]
  0000c	e3a05000	 mov         r5, #0
  00010	e5963440	 ldr         r3, [r6, #0x440]
  00014	e3130004	 tst         r3, #4
  00018	159f008c	 ldrne       r0, [pc, #0x8C]
  0001c	11a01004	 movne       r1, r4
  00020	1b000000	 blne        NKDbgPrintfW

; 187  : 
; 188  :     // Check if we get correct context
; 189  :     if ((pDevice == NULL))

  00024	e3540000	 cmp         r4, #0
  00028	1a000002	 bne         |$LN6@PXY_Deinit|

; 190  :         {
; 191  :         RETAILMSG (ZONE_ERROR, (L"TLD: !ERROR(PXY_Deinit) - "
; 192  :             L"Incorrect context parameter\r\n"
; 193  :             ));

  0002c	e59f0074	 ldr         r0, [pc, #0x74]
  00030	eb000000	 bl          NKDbgPrintfW

; 194  :         goto cleanUp;

  00034	ea000012	 b           |$cleanUp$39346|
  00038		 |$LN6@PXY_Deinit|

; 195  :         }
; 196  : 
; 197  :     // close constraint handles
; 198  :     if (pDevice->hDvfsConstraint != NULL)

  00038	e5943004	 ldr         r3, [r4, #4]
  0003c	e3530000	 cmp         r3, #0

; 199  :     {
; 200  :         PmxReleaseConstraint(pDevice->hDvfsConstraint);

  00040	11a00003	 movne       r0, r3
  00044	1b000000	 blne        PmxReleaseConstraint

; 201  :     }
; 202  : 
; 203  :     if (pDevice->hDomainConstraint != NULL)

  00048	e5943008	 ldr         r3, [r4, #8]
  0004c	e3530000	 cmp         r3, #0

; 204  :     {
; 205  :         PmxReleaseConstraint(pDevice->hDomainConstraint);

  00050	11a00003	 movne       r0, r3
  00054	1b000000	 blne        PmxReleaseConstraint

; 206  :     }
; 207  :     
; 208  :     if (pDevice->hInterruptLatencyConstraint != NULL)

  00058	e594300c	 ldr         r3, [r4, #0xC]
  0005c	e3530000	 cmp         r3, #0

; 209  :     {
; 210  :         PmxReleaseConstraint(pDevice->hInterruptLatencyConstraint);

  00060	11a00003	 movne       r0, r3
  00064	1b000000	 blne        PmxReleaseConstraint

; 211  :     }
; 212  :     
; 213  :     //Close handle to bus driver
; 214  :     if (pDevice->hParent != NULL)

  00068	e5943000	 ldr         r3, [r4]
  0006c	e3530000	 cmp         r3, #0

; 215  :         {
; 216  :         CloseHandle(pDevice->hParent);

  00070	11a00003	 movne       r0, r3
  00074	1b000000	 blne        CloseHandle

; 217  :         }
; 218  :     
; 219  :     // Free device structure
; 220  :     LocalFree(pDevice);

  00078	e1a00004	 mov         r0, r4
  0007c	eb000000	 bl          LocalFree

; 221  : 
; 222  :     // Done
; 223  :     rc = TRUE;

  00080	e3a05001	 mov         r5, #1
  00084		 |$cleanUp$39346|

; 224  : 
; 225  : cleanUp:
; 226  :     RETAILMSG(ZONE_FUNCTION, (L"-PXY_Deinit(rc = %d)\r\n", rc));

  00084	e5963440	 ldr         r3, [r6, #0x440]
  00088	e3130004	 tst         r3, #4
  0008c	159f0010	 ldrne       r0, [pc, #0x10]
  00090	11a01005	 movne       r1, r5
  00094	1b000000	 blne        NKDbgPrintfW

; 227  :     return rc;
; 228  : }

  00098	e1a00005	 mov         r0, r5
  0009c	e8bd4070	 ldmia       sp!, {r4 - r6, lr}
  000a0	e12fff1e	 bx          lr
  000a4		 |$LN18@PXY_Deinit|
  000a4		 |$LN19@PXY_Deinit|
  000a4	00000000	 DCD         |??_C@_1CO@GLJIAKJM@?$AA?9?$AAP?$AAX?$AAY?$AA_?$AAD?$AAe?$AAi?$AAn?$AAi?$AAt?$AA?$CI?$AAr?$AAc?$AA?5?$AA?$DN?$AA?5?$AA?$CF?$AAd?$AA?$CJ?$AA?$AN?$AA?6?$AA?$AA@|
  000a8		 |$LN20@PXY_Deinit|
  000a8	00000000	 DCD         |??_C@_1HA@POCLFAL@?$AAT?$AAL?$AAD?$AA?3?$AA?5?$AA?$CB?$AAE?$AAR?$AAR?$AAO?$AAR?$AA?$CI?$AAP?$AAX?$AAY?$AA_?$AAD?$AAe?$AAi?$AAn?$AAi?$AAt?$AA?$CJ?$AA?5?$AA?9?$AA?5?$AAI?$AAn?$AAc?$AAo?$AAr?$AAr@|
  000ac		 |$LN21@PXY_Deinit|
  000ac	00000000	 DCD         |??_C@_1CM@PAGLALCK@?$AA?$CL?$AAP?$AAX?$AAY?$AA_?$AAD?$AAe?$AAi?$AAn?$AAi?$AAt?$AA?$CI?$AA0?$AAx?$AA?$CF?$AA0?$AA8?$AAx?$AA?$CJ?$AA?$AN?$AA?6?$AA?$AA@|
  000b0		 |$LN22@PXY_Deinit|
  000b0	00000000	 DCD         |dpCurSettings|
  000b4		 |$M39548|

			 ENDP  ; |?PXY_Deinit@@YAHK@Z|, PXY_Deinit

	EXPORT	|?PXY_Open@@YAKKKK@Z|			; PXY_Open
	EXPORT	|??_C@_1FE@MAGBOAPD@?$AA?9?$AAP?$AAX?$AAY?$AA_?$AAO?$AAp?$AAe?$AAn?$AA?$CI?$AA0?$AAx?$AA?$CF?$AA0?$AA8?$AAx?$AA?0?$AA?5?$AA0?$AAx?$AA?$CF?$AA0?$AA8?$AAx?$AA?0?$AA?5?$AA0?$AAx?$AA?$CF?$AA0?$AA8?$AAx@| [ DATA ] ; `string'
	EXPORT	|??_C@_1HE@HOHJEAB@?$AAE?$AAR?$AAR?$AAO?$AAR?$AA?3?$AA?5?$AAP?$AAX?$AAY?$AA_?$AAO?$AAp?$AAe?$AAn?$AA?3?$AA?5?$AAF?$AAa?$AAi?$AAl?$AAe?$AAd?$AA?5?$AAa?$AAl?$AAl?$AAo?$AAc?$AAa?$AAt?$AAe@| [ DATA ] ; `string'
	EXPORT	|??_C@_1GM@DGACEDDK@?$AAT?$AAL?$AAD?$AA?3?$AA?5?$AA?$CB?$AAE?$AAR?$AAR?$AAO?$AAR?$AA?$CI?$AAP?$AAX?$AAY?$AA_?$AAO?$AAp?$AAe?$AAn?$AA?$CJ?$AA?5?$AA?9?$AA?5?$AAI?$AAn?$AAc?$AAo?$AAr?$AAr?$AAe?$AAc@| [ DATA ] ; `string'
	EXPORT	|??_C@_1EI@FMCHMKPL@?$AA?$CL?$AAP?$AAX?$AAY?$AA_?$AAO?$AAp?$AAe?$AAn?$AA?$CI?$AA0?$AAx?$AA?$CF?$AA0?$AA8?$AAx?$AA?0?$AA?5?$AA0?$AAx?$AA?$CF?$AA0?$AA8?$AAx?$AA?0?$AA?5?$AA0?$AAx?$AA?$CF?$AA0?$AA8?$AAx@| [ DATA ] ; `string'
	IMPORT	|InitializeCriticalSection|
	IMPORT	|LocalAlloc|
	IMPORT	|memset|

  00000			 AREA	 |.pdata|, PDATA
|$T39579| DCD	|$LN18@PXY_Open|
	DCD	0x40003d02

  00000			 AREA	 |.rdata|, DATA, READONLY
|??_C@_1FE@MAGBOAPD@?$AA?9?$AAP?$AAX?$AAY?$AA_?$AAO?$AAp?$AAe?$AAn?$AA?$CI?$AA0?$AAx?$AA?$CF?$AA0?$AA8?$AAx?$AA?0?$AA?5?$AA0?$AAx?$AA?$CF?$AA0?$AA8?$AAx?$AA?0?$AA?5?$AA0?$AAx?$AA?$CF?$AA0?$AA8?$AAx@| DCB "-"
	DCB	0x0, "P", 0x0, "X", 0x0, "Y", 0x0, "_", 0x0, "O", 0x0, "p"
	DCB	0x0, "e", 0x0, "n", 0x0, "(", 0x0, "0", 0x0, "x", 0x0, "%"
	DCB	0x0, "0", 0x0, "8", 0x0, "x", 0x0, ",", 0x0, " ", 0x0, "0"
	DCB	0x0, "x", 0x0, "%", 0x0, "0", 0x0, "8", 0x0, "x", 0x0, ","
	DCB	0x0, " ", 0x0, "0", 0x0, "x", 0x0, "%", 0x0, "0", 0x0, "8"
	DCB	0x0, "x", 0x0, ")", 0x0, " ", 0x0, "=", 0x0, "=", 0x0, " "
	DCB	0x0, "%", 0x0, "d", 0x0, 0xd, 0x0, 0xa, 0x0, 0x0, 0x0 ; `string'

  00000			 AREA	 |.rdata|, DATA, READONLY
|??_C@_1HE@HOHJEAB@?$AAE?$AAR?$AAR?$AAO?$AAR?$AA?3?$AA?5?$AAP?$AAX?$AAY?$AA_?$AAO?$AAp?$AAe?$AAn?$AA?3?$AA?5?$AAF?$AAa?$AAi?$AAl?$AAe?$AAd?$AA?5?$AAa?$AAl?$AAl?$AAo?$AAc?$AAa?$AAt?$AAe@| DCB "E"
	DCB	0x0, "R", 0x0, "R", 0x0, "O", 0x0, "R", 0x0, ":", 0x0, " "
	DCB	0x0, "P", 0x0, "X", 0x0, "Y", 0x0, "_", 0x0, "O", 0x0, "p"
	DCB	0x0, "e", 0x0, "n", 0x0, ":", 0x0, " ", 0x0, "F", 0x0, "a"
	DCB	0x0, "i", 0x0, "l", 0x0, "e", 0x0, "d", 0x0, " ", 0x0, "a"
	DCB	0x0, "l", 0x0, "l", 0x0, "o", 0x0, "c", 0x0, "a", 0x0, "t"
	DCB	0x0, "e", 0x0, " ", 0x0, "P", 0x0, "r", 0x0, "o", 0x0, "x"
	DCB	0x0, "y", 0x0, " ", 0x0, "d", 0x0, "r", 0x0, "i", 0x0, "v"
	DCB	0x0, "e", 0x0, "r", 0x0, " ", 0x0, "s", 0x0, "t", 0x0, "r"
	DCB	0x0, "u", 0x0, "c", 0x0, "t", 0x0, "u", 0x0, "r", 0x0, "e"
	DCB	0x0, 0xd, 0x0, 0xa, 0x0, 0x0, 0x0	; `string'

  00000			 AREA	 |.rdata|, DATA, READONLY
|??_C@_1GM@DGACEDDK@?$AAT?$AAL?$AAD?$AA?3?$AA?5?$AA?$CB?$AAE?$AAR?$AAR?$AAO?$AAR?$AA?$CI?$AAP?$AAX?$AAY?$AA_?$AAO?$AAp?$AAe?$AAn?$AA?$CJ?$AA?5?$AA?9?$AA?5?$AAI?$AAn?$AAc?$AAo?$AAr?$AAr?$AAe?$AAc@| DCB "T"
	DCB	0x0, "L", 0x0, "D", 0x0, ":", 0x0, " ", 0x0, "!", 0x0, "E"
	DCB	0x0, "R", 0x0, "R", 0x0, "O", 0x0, "R", 0x0, "(", 0x0, "P"
	DCB	0x0, "X", 0x0, "Y", 0x0, "_", 0x0, "O", 0x0, "p", 0x0, "e"
	DCB	0x0, "n", 0x0, ")", 0x0, " ", 0x0, "-", 0x0, " ", 0x0, "I"
	DCB	0x0, "n", 0x0, "c", 0x0, "o", 0x0, "r", 0x0, "r", 0x0, "e"
	DCB	0x0, "c", 0x0, "t", 0x0, " ", 0x0, "c", 0x0, "o", 0x0, "n"
	DCB	0x0, "t", 0x0, "e", 0x0, "x", 0x0, "t", 0x0, " ", 0x0, "p"
	DCB	0x0, "a", 0x0, "r", 0x0, "a", 0x0, "m", 0x0, "e", 0x0, "t"
	DCB	0x0, "e", 0x0, "r", 0x0, 0xd, 0x0, 0xa, 0x0, 0x0, 0x0 ; `string'

  00000			 AREA	 |.rdata|, DATA, READONLY
|??_C@_1EI@FMCHMKPL@?$AA?$CL?$AAP?$AAX?$AAY?$AA_?$AAO?$AAp?$AAe?$AAn?$AA?$CI?$AA0?$AAx?$AA?$CF?$AA0?$AA8?$AAx?$AA?0?$AA?5?$AA0?$AAx?$AA?$CF?$AA0?$AA8?$AAx?$AA?0?$AA?5?$AA0?$AAx?$AA?$CF?$AA0?$AA8?$AAx@| DCB "+"
	DCB	0x0, "P", 0x0, "X", 0x0, "Y", 0x0, "_", 0x0, "O", 0x0, "p"
	DCB	0x0, "e", 0x0, "n", 0x0, "(", 0x0, "0", 0x0, "x", 0x0, "%"
	DCB	0x0, "0", 0x0, "8", 0x0, "x", 0x0, ",", 0x0, " ", 0x0, "0"
	DCB	0x0, "x", 0x0, "%", 0x0, "0", 0x0, "8", 0x0, "x", 0x0, ","
	DCB	0x0, " ", 0x0, "0", 0x0, "x", 0x0, "%", 0x0, "0", 0x0, "8"
	DCB	0x0, "x", 0x0, ")", 0x0, 0xd, 0x0, 0xa, 0x0, 0x0, 0x0 ; `string'
; Function compile flags: /Ogspy

  00000			 AREA	 |.text|, CODE, ARM

  00000		 |?PXY_Open@@YAKKKK@Z| PROC		; PXY_Open

; 242  : {

  00000		 |$LN18@PXY_Open|
  00000	e92d43f0	 stmdb       sp!, {r4 - r9, lr}
  00004	e24dd004	 sub         sp, sp, #4
  00008		 |$M39576|
  00008	e1a06002	 mov         r6, r2
  0000c	e1a07001	 mov         r7, r1
  00010	e1a04000	 mov         r4, r0

; 243  :     DWORD dw = 0;
; 244  :     Instance_t *pInstance;
; 245  :     Device_t *pDevice = (Device_t*)context;
; 246  :     
; 247  : 	UNREFERENCED_PARAMETER(accessCode);
; 248  : 	UNREFERENCED_PARAMETER(shareMode);
; 249  : 
; 250  :     RETAILMSG(ZONE_FUNCTION, (L"+PXY_Open(0x%08x, 0x%08x, 0x%08x)\r\n", 
; 251  :         context, accessCode, shareMode
; 252  :         ));

  00014	e59f90d4	 ldr         r9, [pc, #0xD4]
  00018	e3a05000	 mov         r5, #0
  0001c	e5993440	 ldr         r3, [r9, #0x440]
  00020	e3130004	 tst         r3, #4
  00024	159f00c0	 ldrne       r0, [pc, #0xC0]
  00028	11a03006	 movne       r3, r6
  0002c	11a02007	 movne       r2, r7
  00030	11a01004	 movne       r1, r4
  00034	1b000000	 blne        NKDbgPrintfW

; 253  :     
; 254  :     if ((pDevice == NULL))

  00038	e3540000	 cmp         r4, #0
  0003c	1a000002	 bne         |$LN4@PXY_Open|

; 255  :         {
; 256  :         RETAILMSG (ZONE_ERROR, (L"TLD: !ERROR(PXY_Open) - "
; 257  :             L"Incorrect context parameter\r\n"
; 258  :             ));

  00040	e59f00a0	 ldr         r0, [pc, #0xA0]

; 266  :         {
; 267  :         RETAILMSG(ZONE_ERROR, (L"ERROR: PXY_Open: "
; 268  :             L"Failed allocate Proxy driver structure\r\n"
; 269  :             ));

  00044	eb000000	 bl          NKDbgPrintfW

; 289  : 
; 290  : cleanUp:

  00048	ea000017	 b           |$cleanUp$39365|
  0004c		 |$LN4@PXY_Open|

; 259  :         goto cleanUp;
; 260  :         }
; 261  : 
; 262  :     
; 263  :     // Create device structure
; 264  :     pInstance = (Instance_t *)LocalAlloc(LPTR, sizeof(Instance_t));

  0004c	e3a01028	 mov         r1, #0x28
  00050	e3a00040	 mov         r0, #0x40
  00054	eb000000	 bl          LocalAlloc
  00058	e1b08000	 movs        r8, r0

; 265  :     if (pInstance == NULL)

  0005c	1a000002	 bne         |$LN2@PXY_Open|

; 266  :         {
; 267  :         RETAILMSG(ZONE_ERROR, (L"ERROR: PXY_Open: "
; 268  :             L"Failed allocate Proxy driver structure\r\n"
; 269  :             ));

  00060	e59f007c	 ldr         r0, [pc, #0x7C]
  00064	eb000000	 bl          NKDbgPrintfW

; 289  : 
; 290  : cleanUp:

  00068	ea00000f	 b           |$cleanUp$39365|
  0006c		 |$LN2@PXY_Open|

; 270  : 
; 271  :         goto cleanUp;
; 272  :         }
; 273  : 
; 274  :     memset(pInstance, 0, sizeof(Instance_t));

  0006c	e3a02028	 mov         r2, #0x28
  00070	e3a01000	 mov         r1, #0
  00074	e1a00008	 mov         r0, r8
  00078	eb000000	 bl          memset

; 275  :     
; 276  :     // Set cookie
; 277  :     pInstance->cookie = PROXY_DEVICE_COOKIE;

  0007c	e59f305c	 ldr         r3, [pc, #0x5C]

; 278  : 
; 279  :     // Initialize critical sections
; 280  :     InitializeCriticalSection(&pInstance->cs);

  00080	e1a00008	 mov         r0, r8
  00084	e4803004	 str         r3, [r0], #4
  00088	eb000000	 bl          InitializeCriticalSection

; 281  : 
; 282  :     pInstance->pDevice = pDevice;

  0008c	e5884018	 str         r4, [r8, #0x18]

; 283  :     pInstance->hDvfsConstraint = pDevice->hDvfsConstraint;

  00090	e5943004	 ldr         r3, [r4, #4]

; 284  :     pInstance->hInterruptLatencyConstraint = pDevice->hInterruptLatencyConstraint;
; 285  :     pInstance->hDomainConstraint = pDevice->hDomainConstraint;
; 286  : 
; 287  :     // Return non-null value
; 288  :     dw = (DWORD)pInstance;

  00094	e1a05008	 mov         r5, r8
  00098	e588301c	 str         r3, [r8, #0x1C]
  0009c	e594300c	 ldr         r3, [r4, #0xC]
  000a0	e5883024	 str         r3, [r8, #0x24]
  000a4	e5943008	 ldr         r3, [r4, #8]
  000a8	e5883020	 str         r3, [r8, #0x20]
  000ac		 |$cleanUp$39365|

; 291  :     RETAILMSG(ZONE_FUNCTION, (L"-PXY_Open(0x%08x, 0x%08x, 0x%08x) == %d\r\n", 
; 292  :         context, accessCode, shareMode, dw
; 293  :         ));

  000ac	e5993440	 ldr         r3, [r9, #0x440]
  000b0	e3130004	 tst         r3, #4
  000b4	159f0020	 ldrne       r0, [pc, #0x20]
  000b8	11a03006	 movne       r3, r6
  000bc	11a02007	 movne       r2, r7
  000c0	11a01004	 movne       r1, r4
  000c4	158d5000	 strne       r5, [sp]
  000c8	1b000000	 blne        NKDbgPrintfW

; 294  : 
; 295  :     return dw;
; 296  : }

  000cc	e1a00005	 mov         r0, r5
  000d0	e28dd004	 add         sp, sp, #4
  000d4	e8bd43f0	 ldmia       sp!, {r4 - r9, lr}
  000d8	e12fff1e	 bx          lr
  000dc		 |$LN19@PXY_Open|
  000dc		 |$LN20@PXY_Open|
  000dc	00000000	 DCD         |??_C@_1FE@MAGBOAPD@?$AA?9?$AAP?$AAX?$AAY?$AA_?$AAO?$AAp?$AAe?$AAn?$AA?$CI?$AA0?$AAx?$AA?$CF?$AA0?$AA8?$AAx?$AA?0?$AA?5?$AA0?$AAx?$AA?$CF?$AA0?$AA8?$AAx?$AA?0?$AA?5?$AA0?$AAx?$AA?$CF?$AA0?$AA8?$AAx@|
  000e0		 |$LN21@PXY_Open|
  000e0	70727879	 DCD         0x70727879
  000e4		 |$LN22@PXY_Open|
  000e4	00000000	 DCD         |??_C@_1HE@HOHJEAB@?$AAE?$AAR?$AAR?$AAO?$AAR?$AA?3?$AA?5?$AAP?$AAX?$AAY?$AA_?$AAO?$AAp?$AAe?$AAn?$AA?3?$AA?5?$AAF?$AAa?$AAi?$AAl?$AAe?$AAd?$AA?5?$AAa?$AAl?$AAl?$AAo?$AAc?$AAa?$AAt?$AAe@|
  000e8		 |$LN23@PXY_Open|
  000e8	00000000	 DCD         |??_C@_1GM@DGACEDDK@?$AAT?$AAL?$AAD?$AA?3?$AA?5?$AA?$CB?$AAE?$AAR?$AAR?$AAO?$AAR?$AA?$CI?$AAP?$AAX?$AAY?$AA_?$AAO?$AAp?$AAe?$AAn?$AA?$CJ?$AA?5?$AA?9?$AA?5?$AAI?$AAn?$AAc?$AAo?$AAr?$AAr?$AAe?$AAc@|
  000ec		 |$LN24@PXY_Open|
  000ec	00000000	 DCD         |??_C@_1EI@FMCHMKPL@?$AA?$CL?$AAP?$AAX?$AAY?$AA_?$AAO?$AAp?$AAe?$AAn?$AA?$CI?$AA0?$AAx?$AA?$CF?$AA0?$AA8?$AAx?$AA?0?$AA?5?$AA0?$AAx?$AA?$CF?$AA0?$AA8?$AAx?$AA?0?$AA?5?$AA0?$AAx?$AA?$CF?$AA0?$AA8?$AAx@|
  000f0		 |$LN25@PXY_Open|
  000f0	00000000	 DCD         |dpCurSettings|
  000f4		 |$M39577|

			 ENDP  ; |?PXY_Open@@YAKKKK@Z|, PXY_Open

	EXPORT	|?PXY_Close@@YAHK@Z|			; PXY_Close
	EXPORT	|??_C@_1CK@DMNAPBBF@?$AA?9?$AAP?$AAX?$AAY?$AA_?$AAC?$AAl?$AAo?$AAs?$AAe?$AA?$CI?$AA0?$AAx?$AA?$CF?$AA0?$AA8?$AAx?$AA?$CJ?$AA?$AN?$AA?6?$AA?$AA@| [ DATA ] ; `string'
	EXPORT	|??_C@_1GO@MIMJKDDE@?$AAT?$AAL?$AAD?$AA?3?$AA?5?$AA?$CB?$AAE?$AAR?$AAR?$AAO?$AAR?$AA?$CI?$AAP?$AAX?$AAY?$AA_?$AAC?$AAl?$AAo?$AAs?$AAe?$AA?$CJ?$AA?5?$AA?9?$AA?5?$AAI?$AAn?$AAc?$AAo?$AAr?$AAr?$AAe@| [ DATA ] ; `string'
	EXPORT	|??_C@_1CK@EMKHOHPD@?$AA?$CL?$AAP?$AAX?$AAY?$AA_?$AAC?$AAl?$AAo?$AAs?$AAe?$AA?$CI?$AA0?$AAx?$AA?$CF?$AA0?$AA8?$AAx?$AA?$CJ?$AA?$AN?$AA?6?$AA?$AA@| [ DATA ] ; `string'
	IMPORT	|DeleteCriticalSection|

  00000			 AREA	 |.pdata|, PDATA
|$T39603| DCD	|$LN13@PXY_Close|
	DCD	0x40001f01

  00000			 AREA	 |.rdata|, DATA, READONLY
|??_C@_1CK@DMNAPBBF@?$AA?9?$AAP?$AAX?$AAY?$AA_?$AAC?$AAl?$AAo?$AAs?$AAe?$AA?$CI?$AA0?$AAx?$AA?$CF?$AA0?$AA8?$AAx?$AA?$CJ?$AA?$AN?$AA?6?$AA?$AA@| DCB "-"
	DCB	0x0, "P", 0x0, "X", 0x0, "Y", 0x0, "_", 0x0, "C", 0x0, "l"
	DCB	0x0, "o", 0x0, "s", 0x0, "e", 0x0, "(", 0x0, "0", 0x0, "x"
	DCB	0x0, "%", 0x0, "0", 0x0, "8", 0x0, "x", 0x0, ")", 0x0, 0xd
	DCB	0x0, 0xa, 0x0, 0x0, 0x0			; `string'

  00000			 AREA	 |.rdata|, DATA, READONLY
|??_C@_1GO@MIMJKDDE@?$AAT?$AAL?$AAD?$AA?3?$AA?5?$AA?$CB?$AAE?$AAR?$AAR?$AAO?$AAR?$AA?$CI?$AAP?$AAX?$AAY?$AA_?$AAC?$AAl?$AAo?$AAs?$AAe?$AA?$CJ?$AA?5?$AA?9?$AA?5?$AAI?$AAn?$AAc?$AAo?$AAr?$AAr?$AAe@| DCB "T"
	DCB	0x0, "L", 0x0, "D", 0x0, ":", 0x0, " ", 0x0, "!", 0x0, "E"
	DCB	0x0, "R", 0x0, "R", 0x0, "O", 0x0, "R", 0x0, "(", 0x0, "P"
	DCB	0x0, "X", 0x0, "Y", 0x0, "_", 0x0, "C", 0x0, "l", 0x0, "o"
	DCB	0x0, "s", 0x0, "e", 0x0, ")", 0x0, " ", 0x0, "-", 0x0, " "
	DCB	0x0, "I", 0x0, "n", 0x0, "c", 0x0, "o", 0x0, "r", 0x0, "r"
	DCB	0x0, "e", 0x0, "c", 0x0, "t", 0x0, " ", 0x0, "c", 0x0, "o"
	DCB	0x0, "n", 0x0, "t", 0x0, "e", 0x0, "x", 0x0, "t", 0x0, " "
	DCB	0x0, "p", 0x0, "a", 0x0, "r", 0x0, "a", 0x0, "m", 0x0, "e"
	DCB	0x0, "t", 0x0, "e", 0x0, "r", 0x0, 0xd, 0x0, 0xa, 0x0, 0x0
	DCB	0x0					; `string'

  00000			 AREA	 |.rdata|, DATA, READONLY
|??_C@_1CK@EMKHOHPD@?$AA?$CL?$AAP?$AAX?$AAY?$AA_?$AAC?$AAl?$AAo?$AAs?$AAe?$AA?$CI?$AA0?$AAx?$AA?$CF?$AA0?$AA8?$AAx?$AA?$CJ?$AA?$AN?$AA?6?$AA?$AA@| DCB "+"
	DCB	0x0, "P", 0x0, "X", 0x0, "Y", 0x0, "_", 0x0, "C", 0x0, "l"
	DCB	0x0, "o", 0x0, "s", 0x0, "e", 0x0, "(", 0x0, "0", 0x0, "x"
	DCB	0x0, "%", 0x0, "0", 0x0, "8", 0x0, "x", 0x0, ")", 0x0, 0xd
	DCB	0x0, 0xa, 0x0, 0x0, 0x0			; `string'
; Function compile flags: /Ogspy

  00000			 AREA	 |.text|, CODE, ARM

  00000		 |?PXY_Close@@YAHK@Z| PROC		; PXY_Close

; 308  : {

  00000		 |$LN13@PXY_Close|
  00000	e92d4070	 stmdb       sp!, {r4 - r6, lr}
  00004		 |$M39600|
  00004	e1a04000	 mov         r4, r0

; 309  :     BOOL rc = FALSE;
; 310  :     Instance_t *pInstance = (Instance_t*)context;
; 311  :     
; 312  :     
; 313  :     RETAILMSG(ZONE_FUNCTION, (L"+PXY_Close(0x%08x)\r\n", 
; 314  :         context
; 315  :         ));

  00008	e59f6068	 ldr         r6, [pc, #0x68]
  0000c	e3a05000	 mov         r5, #0
  00010	e5963440	 ldr         r3, [r6, #0x440]
  00014	e3130004	 tst         r3, #4
  00018	159f0054	 ldrne       r0, [pc, #0x54]
  0001c	11a01004	 movne       r1, r4
  00020	1b000000	 blne        NKDbgPrintfW

; 316  :     
; 317  :     if ((pInstance == NULL))

  00024	e3540000	 cmp         r4, #0
  00028	1a000002	 bne         |$LN2@PXY_Close|

; 318  :         {
; 319  :         RETAILMSG (ZONE_ERROR, (L"TLD: !ERROR(PXY_Close) - "
; 320  :             L"Incorrect context parameter\r\n"
; 321  :             ));

  0002c	e59f003c	 ldr         r0, [pc, #0x3C]
  00030	eb000000	 bl          NKDbgPrintfW

; 322  :         goto cleanUp;

  00034	ea000004	 b           |$cleanUp$39384|
  00038		 |$LN2@PXY_Close|

; 323  :         }
; 324  : 
; 325  :     // Delete critical sections
; 326  :     DeleteCriticalSection(&pInstance->cs);

  00038	e2840004	 add         r0, r4, #4
  0003c	eb000000	 bl          DeleteCriticalSection

; 327  : #if 0
; 328  :     // close constraint handles
; 329  :     if (pInstance->hDvfsConstraint != NULL)
; 330  :         {
; 331  :         PmxReleaseConstraint(pInstance->hDvfsConstraint);
; 332  :         }
; 333  : 
; 334  :     if (pInstance->hDomainConstraint != NULL)
; 335  :         {
; 336  :         PmxReleaseConstraint(pInstance->hDomainConstraint);
; 337  :         }
; 338  : #endif
; 339  :     // Free device structure
; 340  :     LocalFree(pInstance);

  00040	e1a00004	 mov         r0, r4
  00044	eb000000	 bl          LocalFree

; 341  : 
; 342  :     // Done
; 343  :     rc = TRUE;

  00048	e3a05001	 mov         r5, #1
  0004c		 |$cleanUp$39384|

; 344  : 
; 345  : cleanUp:
; 346  :     RETAILMSG(ZONE_FUNCTION, (L"-PXY_Close(0x%08x)\r\n", 
; 347  :         context
; 348  :         ));

  0004c	e5963440	 ldr         r3, [r6, #0x440]
  00050	e3130004	 tst         r3, #4
  00054	159f0010	 ldrne       r0, [pc, #0x10]
  00058	11a01004	 movne       r1, r4
  0005c	1b000000	 blne        NKDbgPrintfW

; 349  : 
; 350  :     return rc;
; 351  : }

  00060	e1a00005	 mov         r0, r5
  00064	e8bd4070	 ldmia       sp!, {r4 - r6, lr}
  00068	e12fff1e	 bx          lr
  0006c		 |$LN14@PXY_Close|
  0006c		 |$LN15@PXY_Close|
  0006c	00000000	 DCD         |??_C@_1CK@DMNAPBBF@?$AA?9?$AAP?$AAX?$AAY?$AA_?$AAC?$AAl?$AAo?$AAs?$AAe?$AA?$CI?$AA0?$AAx?$AA?$CF?$AA0?$AA8?$AAx?$AA?$CJ?$AA?$AN?$AA?6?$AA?$AA@|
  00070		 |$LN16@PXY_Close|
  00070	00000000	 DCD         |??_C@_1GO@MIMJKDDE@?$AAT?$AAL?$AAD?$AA?3?$AA?5?$AA?$CB?$AAE?$AAR?$AAR?$AAO?$AAR?$AA?$CI?$AAP?$AAX?$AAY?$AA_?$AAC?$AAl?$AAo?$AAs?$AAe?$AA?$CJ?$AA?5?$AA?9?$AA?5?$AAI?$AAn?$AAc?$AAo?$AAr?$AAr?$AAe@|
  00074		 |$LN17@PXY_Close|
  00074	00000000	 DCD         |??_C@_1CK@EMKHOHPD@?$AA?$CL?$AAP?$AAX?$AAY?$AA_?$AAC?$AAl?$AAo?$AAs?$AAe?$AA?$CI?$AA0?$AAx?$AA?$CF?$AA0?$AA8?$AAx?$AA?$CJ?$AA?$AN?$AA?6?$AA?$AA@|
  00078		 |$LN18@PXY_Close|
  00078	00000000	 DCD         |dpCurSettings|
  0007c		 |$M39601|

			 ENDP  ; |?PXY_Close@@YAHK@Z|, PXY_Close

	EXPORT	|?PXY_IOControl@@YAHKKPAEK0KPAK@Z|	; PXY_IOControl
	EXPORT	|??_C@_1DE@GMIGHJEI@?$AA?9?$AAP?$AAX?$AAY?$AA_?$AAI?$AAO?$AAC?$AAo?$AAn?$AAt?$AAr?$AAo?$AAl?$AA?$CI?$AAr?$AAc?$AA?5?$AA?$DN?$AA?5?$AA?$CF?$AAd?$AA?$CJ?$AA?$AN?$AA?6?$AA?$AA@| [ DATA ] ; `string'
	EXPORT	|??_C@_1BA@BGKGEPGH@?$AAI?$AAN?$AAT?$AAR?$AAL?$AAA?$AAT?$AA?$AA@| [ DATA ] ; `string'
	EXPORT	|??_C@_1O@MGOKFMBN@?$AAP?$AAW?$AAR?$AAD?$AAO?$AAM?$AA?$AA@| [ DATA ] ; `string'
	EXPORT	|??_C@_1GI@PIOENDEP@?$AAE?$AAR?$AAR?$AAO?$AAR?$AA?3?$AA?5?$AAP?$AAX?$AAY?$AA_?$AAI?$AAO?$AAC?$AAo?$AAn?$AAt?$AAr?$AAo?$AAl?$AA?3?$AA?5?$AAI?$AAn?$AAc?$AAo?$AAr?$AAr?$AAe?$AAc?$AAt?$AA?5@| [ DATA ] ; `string'
	EXPORT	|??_C@_1IC@DEJPLEME@?$AA?$CL?$AAP?$AAX?$AAY?$AA_?$AAI?$AAO?$AAC?$AAo?$AAn?$AAt?$AAr?$AAo?$AAl?$AA?$CI?$AA0?$AAx?$AA?$CF?$AA0?$AA8?$AAx?$AA?0?$AA?5?$AA0?$AAx?$AA?$CF?$AA0?$AA8?$AAx?$AA?0?$AA?5?$AA0@| [ DATA ] ; `string'
	IMPORT	|KernelIoControl|
	IMPORT	|ProfileWakupAccuracy|
	IMPORT	|MmUnmapIoSpace|
	IMPORT	|VirtualCopyEx|
	IMPORT	|OpenProcess|
	IMPORT	|MmMapIoSpace|
	IMPORT	|RunOppLatencyProfiler|
	IMPORT	|PmxUpdateConstraint|
	IMPORT	|ProfileInterruptLatency|
	IMPORT	|PmxSetConstraintById|
	IMPORT	|ProfileDVFSLatency|
	IMPORT	|PmxSetConstraintByClass|
; File c:\wince600\public\common\sdk\inc\kfuncs.h

  00000			 AREA	 |.pdata|, PDATA
|$T39650| DCD	|$LN50@PXY_IOCont|
	DCD	0x40010702

  00000			 AREA	 |.rdata|, DATA, READONLY
|??_C@_1DE@GMIGHJEI@?$AA?9?$AAP?$AAX?$AAY?$AA_?$AAI?$AAO?$AAC?$AAo?$AAn?$AAt?$AAr?$AAo?$AAl?$AA?$CI?$AAr?$AAc?$AA?5?$AA?$DN?$AA?5?$AA?$CF?$AAd?$AA?$CJ?$AA?$AN?$AA?6?$AA?$AA@| DCB "-"
	DCB	0x0, "P", 0x0, "X", 0x0, "Y", 0x0, "_", 0x0, "I", 0x0, "O"
	DCB	0x0, "C", 0x0, "o", 0x0, "n", 0x0, "t", 0x0, "r", 0x0, "o"
	DCB	0x0, "l", 0x0, "(", 0x0, "r", 0x0, "c", 0x0, " ", 0x0, "="
	DCB	0x0, " ", 0x0, "%", 0x0, "d", 0x0, ")", 0x0, 0xd, 0x0, 0xa
	DCB	0x0, 0x0, 0x0				; `string'

  00000			 AREA	 |.rdata|, DATA, READONLY
|??_C@_1BA@BGKGEPGH@?$AAI?$AAN?$AAT?$AAR?$AAL?$AAA?$AAT?$AA?$AA@| DCB "I", 0x0
	DCB	"N", 0x0, "T", 0x0, "R", 0x0, "L", 0x0, "A", 0x0, "T", 0x0
	DCB	0x0, 0x0				; `string'

  00000			 AREA	 |.rdata|, DATA, READONLY
|??_C@_1O@MGOKFMBN@?$AAP?$AAW?$AAR?$AAD?$AAO?$AAM?$AA?$AA@| DCB "P", 0x0, "W"
	DCB	0x0, "R", 0x0, "D", 0x0, "O", 0x0, "M", 0x0, 0x0, 0x0 ; `string'

  00000			 AREA	 |.rdata|, DATA, READONLY
|??_C@_1GI@PIOENDEP@?$AAE?$AAR?$AAR?$AAO?$AAR?$AA?3?$AA?5?$AAP?$AAX?$AAY?$AA_?$AAI?$AAO?$AAC?$AAo?$AAn?$AAt?$AAr?$AAo?$AAl?$AA?3?$AA?5?$AAI?$AAn?$AAc?$AAo?$AAr?$AAr?$AAe?$AAc?$AAt?$AA?5@| DCB "E"
	DCB	0x0, "R", 0x0, "R", 0x0, "O", 0x0, "R", 0x0, ":", 0x0, " "
	DCB	0x0, "P", 0x0, "X", 0x0, "Y", 0x0, "_", 0x0, "I", 0x0, "O"
	DCB	0x0, "C", 0x0, "o", 0x0, "n", 0x0, "t", 0x0, "r", 0x0, "o"
	DCB	0x0, "l", 0x0, ":", 0x0, " ", 0x0, "I", 0x0, "n", 0x0, "c"
	DCB	0x0, "o", 0x0, "r", 0x0, "r", 0x0, "e", 0x0, "c", 0x0, "t"
	DCB	0x0, " ", 0x0, "c", 0x0, "o", 0x0, "n", 0x0, "t", 0x0, "e"
	DCB	0x0, "x", 0x0, "t", 0x0, " ", 0x0, "p", 0x0, "a", 0x0, "r"
	DCB	0x0, "a", 0x0, "m", 0x0, "e", 0x0, "t", 0x0, "e", 0x0, "r"
	DCB	0x0, 0xd, 0x0, 0xa, 0x0, 0x0, 0x0	; `string'

  00000			 AREA	 |.rdata|, DATA, READONLY
|??_C@_1IC@DEJPLEME@?$AA?$CL?$AAP?$AAX?$AAY?$AA_?$AAI?$AAO?$AAC?$AAo?$AAn?$AAt?$AAr?$AAo?$AAl?$AA?$CI?$AA0?$AAx?$AA?$CF?$AA0?$AA8?$AAx?$AA?0?$AA?5?$AA0?$AAx?$AA?$CF?$AA0?$AA8?$AAx?$AA?0?$AA?5?$AA0@| DCB "+"
	DCB	0x0, "P", 0x0, "X", 0x0, "Y", 0x0, "_", 0x0, "I", 0x0, "O"
	DCB	0x0, "C", 0x0, "o", 0x0, "n", 0x0, "t", 0x0, "r", 0x0, "o"
	DCB	0x0, "l", 0x0, "(", 0x0, "0", 0x0, "x", 0x0, "%", 0x0, "0"
	DCB	0x0, "8", 0x0, "x", 0x0, ",", 0x0, " ", 0x0, "0", 0x0, "x"
	DCB	0x0, "%", 0x0, "0", 0x0, "8", 0x0, "x", 0x0, ",", 0x0, " "
	DCB	0x0, "0", 0x0, "x", 0x0, "%", 0x0, "0", 0x0, "8", 0x0, "x"
	DCB	0x0, ",", 0x0, " ", 0x0, "%", 0x0, "d", 0x0, ",", 0x0, " "
	DCB	0x0, "0", 0x0, "x", 0x0, "%", 0x0, "0", 0x0, "8", 0x0, "x"
	DCB	0x0, ",", 0x0, " ", 0x0, "%", 0x0, "d", 0x0, ",", 0x0, " "
	DCB	0x0, "0", 0x0, "x", 0x0, "%", 0x0, "0", 0x0, "8", 0x0, "x"
	DCB	0x0, ")", 0x0, 0xd, 0x0, 0xa, 0x0, 0x0, 0x0 ; `string'
; Function compile flags: /Ogspy
; File c:\wince600\platform\z2170p\src\app\proxydriver\proxydriver.cpp

  00000			 AREA	 |.text|, CODE, ARM

  00000		 |?PXY_IOControl@@YAHKKPAEK0KPAK@Z| PROC ; PXY_IOControl

; 367  : {

  00000		 |$LN50@PXY_IOCont|
  00000	e92d4ff0	 stmdb       sp!, {r4 - r11, lr}
  00004	e24dd020	 sub         sp, sp, #0x20
  00008		 |$M39647|
  00008	e1a08003	 mov         r8, r3
  0000c	e1a07002	 mov         r7, r2
  00010	e1a04001	 mov         r4, r1
  00014	e1a05000	 mov         r5, r0

; 368  :     BOOL rc = FALSE;
; 369  :     DWORD dwParam;
; 370  :     POWERDOMAIN_CONSTRAINT_INFO constraintInfo;
; 371  :     Instance_t *pInstance = (Instance_t*)context;
; 372  :     POWERDOMAIN_CONSTRAINT_INFO *pConstraintInfo;
; 373  : 
; 374  :     RETAILMSG(ZONE_FUNCTION, (
; 375  :         L"+PXY_IOControl(0x%08x, 0x%08x, 0x%08x, %d, 0x%08x, %d, 0x%08x)\r\n",
; 376  :         context, code, pInBuffer, inSize, pOutBuffer, outSize, pOutSize
; 377  :         ));

  00018	e59f33d0	 ldr         r3, [pc, #0x3D0]
  0001c	e59d904c	 ldr         r9, [sp, #0x4C]
  00020	e59da048	 ldr         r10, [sp, #0x48]
  00024	e593e440	 ldr         lr, [r3, #0x440]
  00028	e59db044	 ldr         r11, [sp, #0x44]
  0002c	e3a06000	 mov         r6, #0
  00030	e31e0004	 tst         lr, #4
  00034	0a000008	 beq         |$LN30@PXY_IOCont|
  00038	e59f03d8	 ldr         r0, [pc, #0x3D8]
  0003c	e1a03007	 mov         r3, r7
  00040	e1a02004	 mov         r2, r4
  00044	e1a01005	 mov         r1, r5
  00048	e58d900c	 str         r9, [sp, #0xC]
  0004c	e58da008	 str         r10, [sp, #8]
  00050	e58db004	 str         r11, [sp, #4]
  00054	e58d8000	 str         r8, [sp]
  00058	eb000000	 bl          NKDbgPrintfW
  0005c		 |$LN30@PXY_IOCont|

; 378  : 
; 379  :     // Check if we get correct context
; 380  :     if ((pInstance == NULL))

  0005c	e3550000	 cmp         r5, #0
  00060	1a000002	 bne         |$LN27@PXY_IOCont|

; 381  :         {
; 382  :         RETAILMSG(ZONE_ERROR, (L"ERROR: PXY_IOControl: "
; 383  :             L"Incorrect context parameter\r\n"
; 384  :             ));

  00064	e59f03a8	 ldr         r0, [pc, #0x3A8]
  00068	eb000000	 bl          NKDbgPrintfW

; 385  :         goto cleanUp;

  0006c	ea0000c9	 b           |$cleanUp$39405|
  00070		 |$LN27@PXY_IOCont|

; 386  :         }
; 387  : 
; 388  :     switch (code)

  00070	e3a0381e	 mov         r3, #0x1E, 16
  00074	e3833e1b	 orr         r3, r3, #0x1B, 28
  00078	e1540003	 cmp         r4, r3
  0007c	8a0000a8	 bhi         |$LN34@PXY_IOCont|
  00080	0a000095	 beq         |$LN3@PXY_IOCont|
  00084	e3a0381e	 mov         r3, #0x1E, 16
  00088	e3833f65	 orr         r3, r3, #0x65, 30
  0008c	e1540003	 cmp         r4, r3
  00090	0a000076	 beq         |$LN23@PXY_IOCont|
  00094	e3a0381e	 mov         r3, #0x1E, 16
  00098	e3833f66	 orr         r3, r3, #0x66, 30
  0009c	e1540003	 cmp         r4, r3
  000a0	0a000060	 beq         |$LN21@PXY_IOCont|
  000a4	e3a0381e	 mov         r3, #0x1E, 16
  000a8	e3833f67	 orr         r3, r3, #0x67, 30
  000ac	e1540003	 cmp         r4, r3
  000b0	0a00004e	 beq         |$LN19@PXY_IOCont|
  000b4	e3a0381e	 mov         r3, #0x1E, 16
  000b8	e3833e1a	 orr         r3, r3, #0x1A, 28
  000bc	e1540003	 cmp         r4, r3
  000c0	0a000046	 beq         |$LN9@PXY_IOCont|
  000c4	e3a0381e	 mov         r3, #0x1E, 16
  000c8	e3833f69	 orr         r3, r3, #0x69, 30
  000cc	e1540003	 cmp         r4, r3
  000d0	0a00002f	 beq         |$LN17@PXY_IOCont|
  000d4	e3a0381e	 mov         r3, #0x1E, 16
  000d8	e3833f6a	 orr         r3, r3, #0x6A, 30
  000dc	e1540003	 cmp         r4, r3
  000e0	0a000015	 beq         |$LN8@PXY_IOCont|
  000e4	e3a0381e	 mov         r3, #0x1E, 16
  000e8	e3833f6b	 orr         r3, r3, #0x6B, 30
  000ec	e1540003	 cmp         r4, r3
  000f0	1a0000a8	 bne         |$cleanUp$39405|

; 523  : 
; 524  :         case IOCTL_PROFILE_DVFS:
; 525  :             if (pInstance->hDvfsConstraint == NULL)

  000f4	e595301c	 ldr         r3, [r5, #0x1C]
  000f8	e3530000	 cmp         r3, #0
  000fc	1a00000a	 bne         |$LN4@PXY_IOCont|
  00100	e3e03cff	 mvn         r3, #0xFF, 24

; 526  :                 {
; 527  :                 dwParam = CONSTRAINT_STATE_NULL;

  00104	e22330ff	 eor         r3, r3, #0xFF
  00108	e58d3010	 str         r3, [sp, #0x10]

; 528  :                 pInstance->hDvfsConstraint = PmxSetConstraintByClass(
; 529  :                                     CONSTRAINT_CLASS_DVFS, 
; 530  :                                     CONSTRAINT_MSG_DVFS_REQUEST, 
; 531  :                                     (void*)&dwParam, 
; 532  :                                     sizeof(DWORD)
; 533  :                                     );

  0010c	e3a03004	 mov         r3, #4
  00110	e28d2010	 add         r2, sp, #0x10
  00114	e3a01001	 mov         r1, #1
  00118	e3a00001	 mov         r0, #1
  0011c	eb000000	 bl          PmxSetConstraintByClass
  00120	e3500000	 cmp         r0, #0
  00124	e585001c	 str         r0, [r5, #0x1C]

; 534  : 
; 535  :                 if (pInstance->hDvfsConstraint == NULL)
; 536  :                     {
; 537  :                     rc = FALSE;
; 538  :                     break;

  00128	0a000011	 beq         |$LN43@PXY_IOCont|
  0012c		 |$LN4@PXY_IOCont|

; 539  :                     }
; 540  :                 }
; 541  :             ProfileDVFSLatency(pInstance->hDvfsConstraint, (DVFS_STRESS_TEST_PARAMETERS*)pInBuffer);

  0012c	e595001c	 ldr         r0, [r5, #0x1C]
  00130	e1a01007	 mov         r1, r7
  00134	eb000000	 bl          ProfileDVFSLatency

; 542  :             break;

  00138	ea000096	 b           |$cleanUp$39405|
  0013c		 |$LN8@PXY_IOCont|
  0013c	e3e03cff	 mvn         r3, #0xFF, 24

; 500  : 
; 501  :         case IOCTL_PROFILE_INTERRUPTLATENCY:
; 502  :             {
; 503  :                 HANDLE hDomainConstraint = NULL;
; 504  :                 constraintInfo.size = sizeof(POWERDOMAIN_CONSTRAINT_INFO);
; 505  :                 constraintInfo.powerDomain = POWERDOMAIN_MPU;
; 506  :                 constraintInfo.state = CONSTRAINT_STATE_NULL;
; 507  :                 hDomainConstraint = PmxSetConstraintById(
; 508  :                                     L"PWRDOM",
; 509  :                                     CONSTRAINT_MSG_POWERDOMAIN_REQUEST, 
; 510  :                                     (void*)&constraintInfo, 
; 511  :                                     sizeof(POWERDOMAIN_CONSTRAINT_INFO)
; 512  :                                     );

  00140	e59f02c8	 ldr         r0, [pc, #0x2C8]
  00144	e22330ff	 eor         r3, r3, #0xFF
  00148	e58d301c	 str         r3, [sp, #0x1C]
  0014c	e3a0e00c	 mov         lr, #0xC
  00150	e3a04005	 mov         r4, #5
  00154	e3a0300c	 mov         r3, #0xC
  00158	e28d2014	 add         r2, sp, #0x14
  0015c	e3a01001	 mov         r1, #1
  00160	e58de014	 str         lr, [sp, #0x14]
  00164	e58d4018	 str         r4, [sp, #0x18]
  00168	eb000000	 bl          PmxSetConstraintById
  0016c	e1b04000	 movs        r4, r0

; 513  : 
; 514  :                 if (hDomainConstraint == NULL)

  00170	1a000001	 bne         |$LN7@PXY_IOCont|
  00174		 |$LN43@PXY_IOCont|

; 515  :                 {
; 516  :                     rc = FALSE;

  00174	e3a06000	 mov         r6, #0

; 517  :                     break;

  00178	ea000086	 b           |$cleanUp$39405|
  0017c		 |$LN7@PXY_IOCont|

; 518  :                 }
; 519  :                 ProfileInterruptLatency(hDomainConstraint, *(int*)pInBuffer);

  0017c	e5971000	 ldr         r1, [r7]
  00180	e1a00004	 mov         r0, r4
  00184	eb000000	 bl          ProfileInterruptLatency
  00188		 |$LN44@PXY_IOCont|

; 520  :                 PmxReleaseConstraint(hDomainConstraint);                

  00188	e1a00004	 mov         r0, r4
  0018c	eb000000	 bl          PmxReleaseConstraint

; 521  :             }
; 522  :             break;

  00190	ea000080	 b           |$cleanUp$39405|
  00194		 |$LN17@PXY_IOCont|

; 447  : 
; 448  :         case IOCTL_POWERDOMAIN_REQUEST:
; 449  :             pConstraintInfo = (POWERDOMAIN_CONSTRAINT_INFO*)pInBuffer;
; 450  :             if (pInstance->hDomainConstraint == NULL)

  00194	e5953020	 ldr         r3, [r5, #0x20]

; 451  :                 {
; 452  :                 dwParam = CONSTRAINT_STATE_NULL;
; 453  :                 pInstance->hDomainConstraint = PmxSetConstraintById(
; 454  :                                     L"PWRDOM",
; 455  :                                     CONSTRAINT_MSG_POWERDOMAIN_REQUEST, 
; 456  :                                     (void*)pConstraintInfo, 
; 457  :                                     sizeof(POWERDOMAIN_CONSTRAINT_INFO)
; 458  :                                     );

  00198	e1a02007	 mov         r2, r7
  0019c	e3a01001	 mov         r1, #1
  001a0	e1b00003	 movs        r0, r3
  001a4	1a00000a	 bne         |$LN16@PXY_IOCont|
  001a8	e3e03cff	 mvn         r3, #0xFF, 24
  001ac	e59f025c	 ldr         r0, [pc, #0x25C]
  001b0	e22330ff	 eor         r3, r3, #0xFF
  001b4	e58d3010	 str         r3, [sp, #0x10]
  001b8	e3a0300c	 mov         r3, #0xC
  001bc	eb000000	 bl          PmxSetConstraintById
  001c0	e5850020	 str         r0, [r5, #0x20]
  001c4		 |$LN47@PXY_IOCont|
  001c4	e3500000	 cmp         r0, #0

; 459  : 
; 460  :                 if (pInstance->hDomainConstraint != NULL) rc = TRUE;

  001c8	0a000072	 beq         |$cleanUp$39405|

; 498  :             rc = TRUE;

  001cc	e3a06001	 mov         r6, #1

; 499  :             break;

  001d0	ea000070	 b           |$cleanUp$39405|
  001d4		 |$LN16@PXY_IOCont|

; 461  :                 }
; 462  :             else
; 463  :                 {
; 464  :                 rc = PmxUpdateConstraint(
; 465  :                                     pInstance->hDomainConstraint, 
; 466  :                                     CONSTRAINT_MSG_POWERDOMAIN_REQUEST, 
; 467  :                                     (void*)pConstraintInfo, 
; 468  :                                     sizeof(POWERDOMAIN_CONSTRAINT_INFO)
; 469  :                                     );

  001d4	e3a0300c	 mov         r3, #0xC
  001d8		 |$LN12@PXY_IOCont|
  001d8	eb000000	 bl          PmxUpdateConstraint

; 470  :                 }
; 471  :             break;

  001dc	ea00006c	 b           |$LN40@PXY_IOCont|
  001e0		 |$LN9@PXY_IOCont|

; 486  :                 {
; 487  :                 rc = PmxUpdateConstraint(
; 488  :                                     pInstance->hInterruptLatencyConstraint, 
; 489  :                                     CONSTRAINT_MSG_INTRLAT_REQUEST, 
; 490  :                                     pInBuffer, 
; 491  :                                     inSize
; 492  :                                     );
; 493  :                 }
; 494  :             break;
; 495  : 
; 496  :         case IOCTL_PROFILE_DVFS_CORE:
; 497  :             RunOppLatencyProfiler(*(int*)pInBuffer);

  001e0	e5970000	 ldr         r0, [r7]
  001e4	eb000000	 bl          RunOppLatencyProfiler

; 498  :             rc = TRUE;

  001e8	e3a06001	 mov         r6, #1

; 499  :             break;

  001ec	ea000069	 b           |$cleanUp$39405|
  001f0		 |$LN19@PXY_IOCont|

; 428  : 
; 429  :         case IOCTL_DVFS_FORCE:
; 430  :             if (pInstance->hDvfsConstraint == NULL)

  001f0	e595301c	 ldr         r3, [r5, #0x1C]
  001f4	e3530000	 cmp         r3, #0
  001f8	1a000008	 bne         |$LN18@PXY_IOCont|
  001fc	e3e03cff	 mvn         r3, #0xFF, 24

; 431  :                 {
; 432  :                 dwParam = CONSTRAINT_STATE_NULL;

  00200	e22330ff	 eor         r3, r3, #0xFF
  00204	e58d3010	 str         r3, [sp, #0x10]

; 433  :                 pInstance->hDvfsConstraint = PmxSetConstraintByClass(
; 434  :                                     CONSTRAINT_CLASS_DVFS, 
; 435  :                                     CONSTRAINT_MSG_DVFS_REQUEST, 
; 436  :                                     (void*)&dwParam, 
; 437  :                                     sizeof(DWORD)
; 438  :                                     );

  00208	e3a03004	 mov         r3, #4
  0020c	e28d2010	 add         r2, sp, #0x10
  00210	e3a01001	 mov         r1, #1
  00214	e3a00001	 mov         r0, #1
  00218	eb000000	 bl          PmxSetConstraintByClass
  0021c	e585001c	 str         r0, [r5, #0x1C]
  00220		 |$LN18@PXY_IOCont|

; 439  :                 }
; 440  : 
; 441  :             PmxUpdateConstraint(pInstance->hDvfsConstraint, 
; 442  :                 CONSTRAINT_MSG_DVFS_FORCE, 
; 443  :                 (void*)pInBuffer, 
; 444  :                 inSize
; 445  :                 );

  00220	e3a01102	 mov         r1, #2, 2

; 446  :             break;

  00224	ea00000c	 b           |$LN46@PXY_IOCont|
  00228		 |$LN21@PXY_IOCont|

; 409  : 
; 410  :         case IOCTL_DVFS_REQUEST:
; 411  :             if (pInstance->hDvfsConstraint == NULL)

  00228	e595301c	 ldr         r3, [r5, #0x1C]
  0022c	e3530000	 cmp         r3, #0
  00230	1a000008	 bne         |$LN20@PXY_IOCont|
  00234	e3e03cff	 mvn         r3, #0xFF, 24

; 412  :                 {
; 413  :                 dwParam = CONSTRAINT_STATE_NULL;

  00238	e22330ff	 eor         r3, r3, #0xFF
  0023c	e58d3010	 str         r3, [sp, #0x10]

; 414  :                 pInstance->hDvfsConstraint = PmxSetConstraintByClass(
; 415  :                                     CONSTRAINT_CLASS_DVFS, 
; 416  :                                     CONSTRAINT_MSG_DVFS_REQUEST, 
; 417  :                                     (void*)&dwParam, 
; 418  :                                     sizeof(DWORD)
; 419  :                                     );

  00240	e3a03004	 mov         r3, #4
  00244	e28d2010	 add         r2, sp, #0x10
  00248	e3a01001	 mov         r1, #1
  0024c	e3a00001	 mov         r0, #1
  00250	eb000000	 bl          PmxSetConstraintByClass
  00254	e585001c	 str         r0, [r5, #0x1C]
  00258		 |$LN20@PXY_IOCont|

; 420  :                 }
; 421  : 
; 422  :             PmxUpdateConstraint(pInstance->hDvfsConstraint, 
; 423  :                 CONSTRAINT_MSG_DVFS_REQUEST, 
; 424  :                 (void*)pInBuffer, 
; 425  :                 inSize
; 426  :                 );

  00258	e3a01001	 mov         r1, #1
  0025c		 |$LN46@PXY_IOCont|
  0025c	e595001c	 ldr         r0, [r5, #0x1C]
  00260	e1a02007	 mov         r2, r7
  00264	e1a03008	 mov         r3, r8
  00268	eb000000	 bl          PmxUpdateConstraint

; 427  :             break;

  0026c	ea000049	 b           |$cleanUp$39405|
  00270		 |$LN23@PXY_IOCont|

; 389  :         {
; 390  :         case IOCTL_VIRTUAL_COPY_EX:
; 391  :             {
; 392  :             void * pvLocal;            
; 393  :             PHYSICAL_ADDRESS PhysAddr;
; 394  :             VIRTUAL_COPY_EX_DATA *pData = (VIRTUAL_COPY_EX_DATA*)pInBuffer;
; 395  :             
; 396  :             PhysAddr.QuadPart = pData->physAddr;

  00270	e5970008	 ldr         r0, [r7, #8]

; 397  :             pvLocal = MmMapIoSpace(PhysAddr, pData->size, FALSE);

  00274	e597200c	 ldr         r2, [r7, #0xC]
  00278	e3a01000	 mov         r1, #0
  0027c	e3a03000	 mov         r3, #0
  00280	eb000000	 bl          MmMapIoSpace
  00284	e1b05000	 movs        r5, r0

; 398  :             if (pvLocal != NULL)

  00288	0a000042	 beq         |$cleanUp$39405|

; 399  :                 {
; 400  :                 HANDLE hDstProc = OpenProcess(0, FALSE, pData->idDestProc);

  0028c	e5972000	 ldr         r2, [r7]
  00290	e3a01000	 mov         r1, #0
  00294	e3a00000	 mov         r0, #0
  00298	eb000000	 bl          OpenProcess

; 401  :                 rc = VirtualCopyEx(hDstProc, pData->pvDestMem, GetCurrentProcess(), 
; 402  :                         pvLocal, pData->size, PAGE_READWRITE | PAGE_NOCACHE
; 403  :                         );

  0029c	e597300c	 ldr         r3, [r7, #0xC]
  002a0	e5971004	 ldr         r1, [r7, #4]
  002a4	e3a0ef81	 mov         lr, #0x81, 30
  002a8	e58d3000	 str         r3, [sp]
  002ac	e1a03005	 mov         r3, r5
  002b0	e3a02042	 mov         r2, #0x42
  002b4	e1a04000	 mov         r4, r0
  002b8	e58de004	 str         lr, [sp, #4]
  002bc	eb000000	 bl          VirtualCopyEx

; 404  :                 MmUnmapIoSpace(pvLocal, pData->size); 				

  002c0	e597100c	 ldr         r1, [r7, #0xC]
  002c4	e1a06000	 mov         r6, r0
  002c8	e1a00005	 mov         r0, r5
  002cc	eb000000	 bl          MmUnmapIoSpace

; 405  :                 CloseHandle(hDstProc);                    

  002d0	e1a00004	 mov         r0, r4
  002d4	eb000000	 bl          CloseHandle

; 406  :                 }
; 407  :             }
; 408  :         break;

  002d8	ea00002e	 b           |$cleanUp$39405|
  002dc		 |$LN3@PXY_IOCont|
  002dc	e3e03cff	 mvn         r3, #0xFF, 24

; 543  : 
; 544  :         case IOCTL_PROFILE_WAKEUPACCURACY:
; 545  :             {
; 546  :                 HANDLE hDomainConstraint = NULL;
; 547  :                 constraintInfo.size = sizeof(POWERDOMAIN_CONSTRAINT_INFO);
; 548  :                 constraintInfo.powerDomain = POWERDOMAIN_MPU;
; 549  :                 constraintInfo.state = CONSTRAINT_STATE_NULL;
; 550  :                 hDomainConstraint = PmxSetConstraintById(
; 551  :                                     L"PWRDOM",
; 552  :                                     CONSTRAINT_MSG_POWERDOMAIN_REQUEST, 
; 553  :                                     (void*)&constraintInfo, 
; 554  :                                     sizeof(POWERDOMAIN_CONSTRAINT_INFO)
; 555  :                                     );

  002e0	e59f0128	 ldr         r0, [pc, #0x128]
  002e4	e22330ff	 eor         r3, r3, #0xFF
  002e8	e58d301c	 str         r3, [sp, #0x1C]
  002ec	e3a0e00c	 mov         lr, #0xC
  002f0	e3a04005	 mov         r4, #5
  002f4	e3a0300c	 mov         r3, #0xC
  002f8	e28d2014	 add         r2, sp, #0x14
  002fc	e3a01001	 mov         r1, #1
  00300	e58de014	 str         lr, [sp, #0x14]
  00304	e58d4018	 str         r4, [sp, #0x18]
  00308	eb000000	 bl          PmxSetConstraintById
  0030c	e1b04000	 movs        r4, r0

; 556  : 
; 557  :                 if (hDomainConstraint == NULL)
; 558  :                 {
; 559  :                     rc = FALSE;
; 560  :                     break;

  00310	0affff97	 beq         |$LN43@PXY_IOCont|

; 561  :                 }            
; 562  :                 ProfileWakupAccuracy(hDomainConstraint, (WAKEUPACCURACY_TEST_PARAMETERS*)pInBuffer);

  00314	e1a01007	 mov         r1, r7
  00318	e1a00004	 mov         r0, r4
  0031c	eb000000	 bl          ProfileWakupAccuracy

; 563  :                 PmxReleaseConstraint(hDomainConstraint);
; 564  :                 hDomainConstraint = NULL;
; 565  :             }
; 566  :             
; 567  :             break;

  00320	eaffff98	 b           |$LN44@PXY_IOCont|
  00324		 |$LN34@PXY_IOCont|

; 386  :         }
; 387  : 
; 388  :     switch (code)

  00324	e59f30e0	 ldr         r3, [pc, #0xE0]
  00328	e1540003	 cmp         r4, r3
  0032c	0a000011	 beq         |$LN1@PXY_IOCont|
  00330	e59f30d0	 ldr         r3, [pc, #0xD0]
  00334	e1540003	 cmp         r4, r3
  00338	0a00000e	 beq         |$LN1@PXY_IOCont|
  0033c	e59f30c0	 ldr         r3, [pc, #0xC0]
  00340	e1540003	 cmp         r4, r3
  00344	0a00000b	 beq         |$LN1@PXY_IOCont|
  00348	e59f30b0	 ldr         r3, [pc, #0xB0]
  0034c	e1540003	 cmp         r4, r3
  00350	0a000008	 beq         |$LN1@PXY_IOCont|
  00354	e59f30a0	 ldr         r3, [pc, #0xA0]
  00358	e1540003	 cmp         r4, r3
  0035c	0a000005	 beq         |$LN1@PXY_IOCont|
  00360	e59f3090	 ldr         r3, [pc, #0x90]
  00364	e1540003	 cmp         r4, r3
  00368	0a000014	 beq         |$LN13@PXY_IOCont|
  0036c	e59f3080	 ldr         r3, [pc, #0x80]
  00370	e1540003	 cmp         r4, r3
  00374	1a000007	 bne         |$cleanUp$39405|
  00378		 |$LN1@PXY_IOCont|

; 568  :         
; 569  :         case IOCTL_HAL_OEM_PROFILER:
; 570  :         case IOCTL_SMARTREFLEX_CONTROL:
; 571  :         case IOCTL_OPP_REQUEST:
; 572  :         case IOCTL_PRCM_DEVICE_GET_DEVICESTATUS:
; 573  :         case IOCTL_PRCM_DEVICE_GET_SOURCECLOCKINFO:
; 574  :         case IOCTL_PRCM_CLOCK_GET_SOURCECLOCKINFO:            
; 575  :             rc = KernelIoControl(code, pInBuffer, inSize, pOutBuffer, outSize, pOutSize);

  00378	e1a0300b	 mov         r3, r11
  0037c	e1a02008	 mov         r2, r8
  00380	e1a01007	 mov         r1, r7
  00384	e1a00004	 mov         r0, r4
  00388	e58d9004	 str         r9, [sp, #4]
  0038c	e58da000	 str         r10, [sp]
  00390	eb000000	 bl          KernelIoControl
  00394		 |$LN40@PXY_IOCont|
  00394	e1a06000	 mov         r6, r0
  00398		 |$cleanUp$39405|
  00398	e59f3050	 ldr         r3, [pc, #0x50]
  0039c	e5933440	 ldr         r3, [r3, #0x440]

; 576  :             break;
; 577  :     }
; 578  : 
; 579  : cleanUp:
; 580  : 
; 581  :     RETAILMSG(ZONE_FUNCTION, (L"-PXY_IOControl(rc = %d)\r\n", rc));

  003a0	e3130004	 tst         r3, #4
  003a4	159f0040	 ldrne       r0, [pc, #0x40]
  003a8	11a01006	 movne       r1, r6
  003ac	1b000000	 blne        NKDbgPrintfW

; 582  :     return rc;
; 583  : }

  003b0	e1a00006	 mov         r0, r6
  003b4	e28dd020	 add         sp, sp, #0x20
  003b8	e8bd4ff0	 ldmia       sp!, {r4 - r11, lr}
  003bc	e12fff1e	 bx          lr
  003c0		 |$LN13@PXY_IOCont|

; 472  : 
; 473  :         case IOCTL_INTERRUPT_LATENCY_CONSTRAINT:
; 474  :             if (pInstance->hInterruptLatencyConstraint == NULL)

  003c0	e5953024	 ldr         r3, [r5, #0x24]

; 475  :                 {
; 476  :                 pInstance->hInterruptLatencyConstraint = PmxSetConstraintById(
; 477  :                                     L"INTRLAT",
; 478  :                                     CONSTRAINT_MSG_INTRLAT_REQUEST, 
; 479  :                                     pInBuffer, 
; 480  :                                     inSize
; 481  :                                     );

  003c4	e1a02007	 mov         r2, r7
  003c8	e3a01001	 mov         r1, #1
  003cc	e1b00003	 movs        r0, r3
  003d0	e1a03008	 mov         r3, r8
  003d4	1affff7f	 bne         |$LN12@PXY_IOCont|
  003d8	e59f0008	 ldr         r0, [pc, #8]
  003dc	eb000000	 bl          PmxSetConstraintById
  003e0	e5850024	 str         r0, [r5, #0x24]

; 482  : 
; 483  :                 if (pInstance->hInterruptLatencyConstraint != NULL) rc = TRUE;
; 484  :                 }
; 485  :             else

  003e4	eaffff76	 b           |$LN47@PXY_IOCont|
  003e8		 |$LN51@PXY_IOCont|
  003e8		 |$LN52@PXY_IOCont|
  003e8	00000000	 DCD         |??_C@_1BA@BGKGEPGH@?$AAI?$AAN?$AAT?$AAR?$AAL?$AAA?$AAT?$AA?$AA@|
  003ec		 |$LN53@PXY_IOCont|
  003ec	00000000	 DCD         |??_C@_1DE@GMIGHJEI@?$AA?9?$AAP?$AAX?$AAY?$AA_?$AAI?$AAO?$AAC?$AAo?$AAn?$AAt?$AAr?$AAo?$AAl?$AA?$CI?$AAr?$AAc?$AA?5?$AA?$DN?$AA?5?$AA?$CF?$AAd?$AA?$CJ?$AA?$AN?$AA?6?$AA?$AA@|
  003f0		 |$LN54@PXY_IOCont|
  003f0	00000000	 DCD         |dpCurSettings|
  003f4		 |$LN55@PXY_IOCont|
  003f4	02bd0fa4	 DCD         0x2bd0fa4
  003f8		 |$LN56@PXY_IOCont|
  003f8	02590fa4	 DCD         0x2590fa4
  003fc		 |$LN57@PXY_IOCont|
  003fc	01f50fd4	 DCD         0x1f50fd4
  00400		 |$LN58@PXY_IOCont|
  00400	01f50fb4	 DCD         0x1f50fb4
  00404		 |$LN59@PXY_IOCont|
  00404	01f50fb0	 DCD         0x1f50fb0
  00408		 |$LN60@PXY_IOCont|
  00408	01f50fac	 DCD         0x1f50fac
  0040c		 |$LN61@PXY_IOCont|
  0040c	0101010c	 DCD         0x101010c
  00410		 |$LN62@PXY_IOCont|
  00410	00000000	 DCD         |??_C@_1O@MGOKFMBN@?$AAP?$AAW?$AAR?$AAD?$AAO?$AAM?$AA?$AA@|
  00414		 |$LN63@PXY_IOCont|
  00414	00000000	 DCD         |??_C@_1GI@PIOENDEP@?$AAE?$AAR?$AAR?$AAO?$AAR?$AA?3?$AA?5?$AAP?$AAX?$AAY?$AA_?$AAI?$AAO?$AAC?$AAo?$AAn?$AAt?$AAr?$AAo?$AAl?$AA?3?$AA?5?$AAI?$AAn?$AAc?$AAo?$AAr?$AAr?$AAe?$AAc?$AAt?$AA?5@|
  00418		 |$LN64@PXY_IOCont|
  00418	00000000	 DCD         |??_C@_1IC@DEJPLEME@?$AA?$CL?$AAP?$AAX?$AAY?$AA_?$AAI?$AAO?$AAC?$AAo?$AAn?$AAt?$AAr?$AAo?$AAl?$AA?$CI?$AA0?$AAx?$AA?$CF?$AA0?$AA8?$AAx?$AA?0?$AA?5?$AA0?$AAx?$AA?$CF?$AA0?$AA8?$AAx?$AA?0?$AA?5?$AA0@|
  0041c		 |$M39648|

			 ENDP  ; |?PXY_IOControl@@YAHKKPAEK0KPAK@Z|, PXY_IOControl

	EXPORT	|DllMain|
	IMPORT	|DisableThreadLibraryCalls|
	IMPORT	|RegisterDbgZones|

  00000			 AREA	 |.pdata|, PDATA
|$T39675| DCD	|$LN8@DllMain|
	DCD	0x40000c01
; Function compile flags: /Ogspy

  00000			 AREA	 |.text|, CODE, ARM

  00000		 |DllMain| PROC

; 592  : {

  00000		 |$LN8@DllMain|
  00000	e92d4010	 stmdb       sp!, {r4, lr}
  00004		 |$M39672|
  00004	e1a04000	 mov         r4, r0

; 593  : 	UNREFERENCED_PARAMETER(Reserved);
; 594  : 
; 595  :     switch(Reason) 

  00008	e3510001	 cmp         r1, #1
  0000c	1a000003	 bne         |$LN2@DllMain|

; 596  :         {
; 597  :         case DLL_PROCESS_ATTACH:
; 598  :             RETAILREGISTERZONES((HMODULE)hDLL);

  00010	e59f1014	 ldr         r1, [pc, #0x14]
  00014	eb000000	 bl          RegisterDbgZones

; 599  :             DisableThreadLibraryCalls((HMODULE)hDLL);

  00018	e1a00004	 mov         r0, r4
  0001c	eb000000	 bl          DisableThreadLibraryCalls
  00020		 |$LN2@DllMain|

; 600  :             break;
; 601  :         }
; 602  :     return TRUE;

  00020	e3a00001	 mov         r0, #1

; 603  : }

  00024	e8bd4010	 ldmia       sp!, {r4, lr}
  00028	e12fff1e	 bx          lr
  0002c		 |$LN9@DllMain|
  0002c		 |$LN10@DllMain|
  0002c	00000000	 DCD         |dpCurSettings|
  00030		 |$M39673|

			 ENDP  ; |DllMain|

	EXPORT	|?PXY_Init@@YAKPBGPBX@Z|		; PXY_Init
	EXPORT	|??_C@_1CI@KKNFJODI@?$AA?9?$AAP?$AAX?$AAY?$AA_?$AAI?$AAn?$AAi?$AAt?$AA?$CI?$AAr?$AAc?$AA?5?$AA?$DN?$AA?5?$AA?$CF?$AAd?$AA?$AN?$AA?6?$AA?$AA@| [ DATA ] ; `string'
	EXPORT	|??_C@_1GM@CINPBAPO@?$AAE?$AAR?$AAR?$AAO?$AAR?$AA?3?$AA?5?$AAP?$AAX?$AAY?$AA_?$AAI?$AAn?$AAi?$AAt?$AA?3?$AA?5?$AAF?$AAa?$AAi?$AAl?$AAe?$AAd?$AA?5?$AAo?$AAp?$AAe?$AAn?$AA?5?$AAp?$AAa?$AAr@| [ DATA ] ; `string'
	EXPORT	|??_C@_1M@IMFGGFBL@?$AAB?$AAU?$AAS?$AA1?$AA?3?$AA?$AA@| [ DATA ] ; `string'
	EXPORT	|??_C@_1HE@PBGGBJAP@?$AAE?$AAR?$AAR?$AAO?$AAR?$AA?3?$AA?5?$AAP?$AAX?$AAY?$AA_?$AAI?$AAn?$AAi?$AAt?$AA?3?$AA?5?$AAF?$AAa?$AAi?$AAl?$AAe?$AAd?$AA?5?$AAa?$AAl?$AAl?$AAo?$AAc?$AAa?$AAt?$AAe@| [ DATA ] ; `string'
	IMPORT	|CreateFileW|

  00000			 AREA	 |.pdata|, PDATA
|$T39695| DCD	|$LN17@PXY_Init|
	DCD	0x40005102

  00000			 AREA	 |.rdata|, DATA, READONLY
|??_C@_1CI@KKNFJODI@?$AA?9?$AAP?$AAX?$AAY?$AA_?$AAI?$AAn?$AAi?$AAt?$AA?$CI?$AAr?$AAc?$AA?5?$AA?$DN?$AA?5?$AA?$CF?$AAd?$AA?$AN?$AA?6?$AA?$AA@| DCB "-"
	DCB	0x0, "P", 0x0, "X", 0x0, "Y", 0x0, "_", 0x0, "I", 0x0, "n"
	DCB	0x0, "i", 0x0, "t", 0x0, "(", 0x0, "r", 0x0, "c", 0x0, " "
	DCB	0x0, "=", 0x0, " ", 0x0, "%", 0x0, "d", 0x0, 0xd, 0x0, 0xa
	DCB	0x0, 0x0, 0x0				; `string'

  00000			 AREA	 |.rdata|, DATA, READONLY
|??_C@_1GM@CINPBAPO@?$AAE?$AAR?$AAR?$AAO?$AAR?$AA?3?$AA?5?$AAP?$AAX?$AAY?$AA_?$AAI?$AAn?$AAi?$AAt?$AA?3?$AA?5?$AAF?$AAa?$AAi?$AAl?$AAe?$AAd?$AA?5?$AAo?$AAp?$AAe?$AAn?$AA?5?$AAp?$AAa?$AAr@| DCB "E"
	DCB	0x0, "R", 0x0, "R", 0x0, "O", 0x0, "R", 0x0, ":", 0x0, " "
	DCB	0x0, "P", 0x0, "X", 0x0, "Y", 0x0, "_", 0x0, "I", 0x0, "n"
	DCB	0x0, "i", 0x0, "t", 0x0, ":", 0x0, " ", 0x0, "F", 0x0, "a"
	DCB	0x0, "i", 0x0, "l", 0x0, "e", 0x0, "d", 0x0, " ", 0x0, "o"
	DCB	0x0, "p", 0x0, "e", 0x0, "n", 0x0, " ", 0x0, "p", 0x0, "a"
	DCB	0x0, "r", 0x0, "e", 0x0, "n", 0x0, "t", 0x0, " ", 0x0, "b"
	DCB	0x0, "u", 0x0, "s", 0x0, " ", 0x0, "d", 0x0, "e", 0x0, "v"
	DCB	0x0, "i", 0x0, "c", 0x0, "e", 0x0, " ", 0x0, "'", 0x0, "%"
	DCB	0x0, "s", 0x0, "'", 0x0, 0xd, 0x0, 0xa, 0x0, 0x0, 0x0 ; `string'

  00000			 AREA	 |.rdata|, DATA, READONLY
|??_C@_1M@IMFGGFBL@?$AAB?$AAU?$AAS?$AA1?$AA?3?$AA?$AA@| DCB "B", 0x0, "U", 0x0
	DCB	"S", 0x0, "1", 0x0, ":", 0x0, 0x0, 0x0	; `string'

  00000			 AREA	 |.rdata|, DATA, READONLY
|??_C@_1HE@PBGGBJAP@?$AAE?$AAR?$AAR?$AAO?$AAR?$AA?3?$AA?5?$AAP?$AAX?$AAY?$AA_?$AAI?$AAn?$AAi?$AAt?$AA?3?$AA?5?$AAF?$AAa?$AAi?$AAl?$AAe?$AAd?$AA?5?$AAa?$AAl?$AAl?$AAo?$AAc?$AAa?$AAt?$AAe@| DCB "E"
	DCB	0x0, "R", 0x0, "R", 0x0, "O", 0x0, "R", 0x0, ":", 0x0, " "
	DCB	0x0, "P", 0x0, "X", 0x0, "Y", 0x0, "_", 0x0, "I", 0x0, "n"
	DCB	0x0, "i", 0x0, "t", 0x0, ":", 0x0, " ", 0x0, "F", 0x0, "a"
	DCB	0x0, "i", 0x0, "l", 0x0, "e", 0x0, "d", 0x0, " ", 0x0, "a"
	DCB	0x0, "l", 0x0, "l", 0x0, "o", 0x0, "c", 0x0, "a", 0x0, "t"
	DCB	0x0, "e", 0x0, " ", 0x0, "P", 0x0, "r", 0x0, "o", 0x0, "x"
	DCB	0x0, "y", 0x0, " ", 0x0, "d", 0x0, "r", 0x0, "i", 0x0, "v"
	DCB	0x0, "e", 0x0, "r", 0x0, " ", 0x0, "s", 0x0, "t", 0x0, "r"
	DCB	0x0, "u", 0x0, "c", 0x0, "t", 0x0, "u", 0x0, "r", 0x0, "e"
	DCB	0x0, 0xd, 0x0, 0xa, 0x0, 0x0, 0x0	; `string'
; Function compile flags: /Ogspy

  00000			 AREA	 |.text|, CODE, ARM

  00000		 |?PXY_Init@@YAKPBGPBX@Z| PROC		; PXY_Init

; 101  : {

  00000		 |$LN17@PXY_Init|
  00000	e92d4070	 stmdb       sp!, {r4 - r6, lr}
  00004	e24dd01c	 sub         sp, sp, #0x1C
  00008		 |$M39692|

; 102  :     DWORD rc = (DWORD)NULL;
; 103  :     Device_t *pDevice;
; 104  :     DWORD dwParam;
; 105  :     POWERDOMAIN_CONSTRAINT_INFO domainConstraint;
; 106  :     
; 107  : 
; 108  : 	UNREFERENCED_PARAMETER(szContext);
; 109  : 	UNREFERENCED_PARAMETER(pBusContext);
; 110  : 
; 111  :     // Create device structure
; 112  :     pDevice = (Device_t *)LocalAlloc(LPTR, sizeof(Device_t));

  00008	e3a01010	 mov         r1, #0x10
  0000c	e3a00040	 mov         r0, #0x40
  00010	e3a04000	 mov         r4, #0
  00014	eb000000	 bl          LocalAlloc
  00018	e1b05000	 movs        r5, r0

; 113  :     if (pDevice == NULL)

  0001c	1a000002	 bne         |$LN5@PXY_Init|

; 114  :         {
; 115  :         RETAILMSG(ZONE_ERROR, (L"ERROR: PXY_Init: "
; 116  :             L"Failed allocate Proxy driver structure\r\n"
; 117  :             ));

  00020	e59f0118	 ldr         r0, [pc, #0x118]
  00024	eb000000	 bl          NKDbgPrintfW

; 118  : 
; 119  :         goto cleanUp;

  00028	ea000014	 b           |$LN14@PXY_Init|
  0002c		 |$LN5@PXY_Init|

; 120  :         }
; 121  : 
; 122  :     memset(pDevice, 0, sizeof(Device_t));
; 123  :    
; 124  :     // get handle to rootbus for notification to dvfs policy
; 125  :     // Open clock device
; 126  :     pDevice->hParent = CreateFile(L"BUS1:", 0, 0, NULL, 0, 0, NULL);

  0002c	e3a03000	 mov         r3, #0
  00030	e5853000	 str         r3, [r5]
  00034	e59f00fc	 ldr         r0, [pc, #0xFC]
  00038	e5853004	 str         r3, [r5, #4]
  0003c	e5853008	 str         r3, [r5, #8]
  00040	e585300c	 str         r3, [r5, #0xC]
  00044	e3a06000	 mov         r6, #0
  00048	e3a03000	 mov         r3, #0
  0004c	e3a02000	 mov         r2, #0
  00050	e3a01000	 mov         r1, #0
  00054	e58d6008	 str         r6, [sp, #8]
  00058	e58d6004	 str         r6, [sp, #4]
  0005c	e58d6000	 str         r6, [sp]
  00060	eb000000	 bl          CreateFileW
  00064	e5850000	 str         r0, [r5]

; 127  :     if (pDevice->hParent == INVALID_HANDLE_VALUE)

  00068	e3700001	 cmn         r0, #1
  0006c	1a000006	 bne         |$LN3@PXY_Init|

; 128  :     {
; 129  :         RETAILMSG(ZONE_ERROR, (L"ERROR: PXY_Init: "
; 130  :             L"Failed open parent bus device '%s'\r\n", L"BUS1:"
; 131  :             ));

  00070	e59f00c4	 ldr         r0, [pc, #0xC4]
  00074	e59f10bc	 ldr         r1, [pc, #0xBC]
  00078	eb000000	 bl          NKDbgPrintfW

; 132  :         pDevice->hParent = NULL;

  0007c	e5856000	 str         r6, [r5]
  00080		 |$LN14@PXY_Init|

; 164  : 
; 165  : cleanUp:
; 166  :     if (rc == 0) PXY_Deinit((DWORD)pDevice);

  00080	e1a00005	 mov         r0, r5
  00084	eb000000	 bl          |?PXY_Deinit@@YAHK@Z|
  00088	ea00001c	 b           |$LN1@PXY_Init|
  0008c		 |$LN3@PXY_Init|

; 133  :         goto cleanUp;
; 134  :     }
; 135  : 
; 136  :     dwParam = CONSTRAINT_STATE_NULL;

  0008c	e3e03cff	 mvn         r3, #0xFF, 24
  00090	e22340ff	 eor         r4, r3, #0xFF

; 137  :     pDevice->hDvfsConstraint = PmxSetConstraintByClass(
; 138  :                                     CONSTRAINT_CLASS_DVFS, 
; 139  :                                     CONSTRAINT_MSG_DVFS_REQUEST, 
; 140  :                                     (void*)&dwParam, 
; 141  :                                     sizeof(DWORD)
; 142  :                                     );  

  00094	e3a03004	 mov         r3, #4
  00098	e28d200c	 add         r2, sp, #0xC
  0009c	e3a01001	 mov         r1, #1
  000a0	e3a00001	 mov         r0, #1
  000a4	e58d400c	 str         r4, [sp, #0xC]
  000a8	eb000000	 bl          PmxSetConstraintByClass
  000ac	e1a03000	 mov         r3, r0

; 143  :     
; 144  :     domainConstraint.powerDomain = POWERDOMAIN_CORE;
; 145  :     domainConstraint.size = sizeof(POWERDOMAIN_CONSTRAINT_INFO);
; 146  :     domainConstraint.state = CONSTRAINT_STATE_NULL;
; 147  :     pDevice->hDomainConstraint = PmxSetConstraintById(
; 148  :                                     L"PWRDOM",
; 149  :                                     CONSTRAINT_MSG_POWERDOMAIN_REQUEST, 
; 150  :                                     (void*)&domainConstraint, 
; 151  :                                     sizeof(POWERDOMAIN_CONSTRAINT_INFO)
; 152  :                                     );

  000b0	e59f007c	 ldr         r0, [pc, #0x7C]
  000b4	e5853004	 str         r3, [r5, #4]
  000b8	e3a0e001	 mov         lr, #1
  000bc	e3a0600c	 mov         r6, #0xC
  000c0	e3a0300c	 mov         r3, #0xC
  000c4	e28d2010	 add         r2, sp, #0x10
  000c8	e3a01001	 mov         r1, #1
  000cc	e58de014	 str         lr, [sp, #0x14]
  000d0	e58d6010	 str         r6, [sp, #0x10]
  000d4	e58d4018	 str         r4, [sp, #0x18]
  000d8	eb000000	 bl          PmxSetConstraintById
  000dc	e1a0e000	 mov         lr, r0

; 153  :     
; 154  :     pDevice->hInterruptLatencyConstraint = PmxSetConstraintById(
; 155  :                                     L"INTRLAT",
; 156  :                                     CONSTRAINT_MSG_INTRLAT_REQUEST, 
; 157  :                                     (void*)&dwParam, 
; 158  :                                     sizeof(DWORD)
; 159  :                                     );

  000e0	e59f0048	 ldr         r0, [pc, #0x48]
  000e4	e3a03004	 mov         r3, #4
  000e8	e28d200c	 add         r2, sp, #0xC
  000ec	e3a01001	 mov         r1, #1
  000f0	e585e008	 str         lr, [r5, #8]
  000f4	eb000000	 bl          PmxSetConstraintById
  000f8	e585000c	 str         r0, [r5, #0xC]

; 160  :     
; 161  : 
; 162  :     // Return non-null value
; 163  :     rc = (DWORD)pDevice;

  000fc	e1a04005	 mov         r4, r5
  00100		 |$cleanUp$39316|

; 164  : 
; 165  : cleanUp:
; 166  :     if (rc == 0) PXY_Deinit((DWORD)pDevice);

  00100		 |$LN1@PXY_Init|

; 167  : 
; 168  :     RETAILMSG(ZONE_FUNCTION, (L"-PXY_Init(rc = %d\r\n", rc));

  00100	e59f3024	 ldr         r3, [pc, #0x24]
  00104	e5933440	 ldr         r3, [r3, #0x440]
  00108	e3130004	 tst         r3, #4
  0010c	159f0014	 ldrne       r0, [pc, #0x14]
  00110	11a01004	 movne       r1, r4
  00114	1b000000	 blne        NKDbgPrintfW

; 169  :     return rc;
; 170  : }

  00118	e1a00004	 mov         r0, r4
  0011c	e28dd01c	 add         sp, sp, #0x1C
  00120	e8bd4070	 ldmia       sp!, {r4 - r6, lr}
  00124	e12fff1e	 bx          lr
  00128		 |$LN18@PXY_Init|
  00128		 |$LN19@PXY_Init|
  00128	00000000	 DCD         |??_C@_1CI@KKNFJODI@?$AA?9?$AAP?$AAX?$AAY?$AA_?$AAI?$AAn?$AAi?$AAt?$AA?$CI?$AAr?$AAc?$AA?5?$AA?$DN?$AA?5?$AA?$CF?$AAd?$AA?$AN?$AA?6?$AA?$AA@|
  0012c		 |$LN20@PXY_Init|
  0012c	00000000	 DCD         |dpCurSettings|
  00130		 |$LN21@PXY_Init|
  00130	00000000	 DCD         |??_C@_1BA@BGKGEPGH@?$AAI?$AAN?$AAT?$AAR?$AAL?$AAA?$AAT?$AA?$AA@|
  00134		 |$LN22@PXY_Init|
  00134	00000000	 DCD         |??_C@_1O@MGOKFMBN@?$AAP?$AAW?$AAR?$AAD?$AAO?$AAM?$AA?$AA@|
  00138		 |$LN23@PXY_Init|
  00138	00000000	 DCD         |??_C@_1M@IMFGGFBL@?$AAB?$AAU?$AAS?$AA1?$AA?3?$AA?$AA@|
  0013c		 |$LN24@PXY_Init|
  0013c	00000000	 DCD         |??_C@_1GM@CINPBAPO@?$AAE?$AAR?$AAR?$AAO?$AAR?$AA?3?$AA?5?$AAP?$AAX?$AAY?$AA_?$AAI?$AAn?$AAi?$AAt?$AA?3?$AA?5?$AAF?$AAa?$AAi?$AAl?$AAe?$AAd?$AA?5?$AAo?$AAp?$AAe?$AAn?$AA?5?$AAp?$AAa?$AAr@|
  00140		 |$LN25@PXY_Init|
  00140	00000000	 DCD         |??_C@_1HE@PBGGBJAP@?$AAE?$AAR?$AAR?$AAO?$AAR?$AA?3?$AA?5?$AAP?$AAX?$AAY?$AA_?$AAI?$AAn?$AAi?$AAt?$AA?3?$AA?5?$AAF?$AAa?$AAi?$AAl?$AAe?$AAd?$AA?5?$AAa?$AAl?$AAl?$AAo?$AAc?$AAa?$AAt?$AAe@|
  00144		 |$M39693|

			 ENDP  ; |?PXY_Init@@YAKPBGPBX@Z|, PXY_Init

	END
