; Listing generated by Microsoft (R) Optimizing Compiler Version 14.01.60511.01 

	TTL	C:\WINCE600\PLATFORM\Z2170P\SRC\test\wakeme\wakeme.cpp
	CODE32

  00000			 AREA	 |.drectve|, DRECTVE
	DCB	"-INCLUDE:__@@_PchSym_@00@UdrmxvGAAUkozgulinUaCBHAkUhixUg"
	DCB	"vhgUdzpvnvUlyqUzineErUivgzroUhgwzucOlyq@wakeme "
	DCB	"-defaultlib:LIBCMT "
	DCB	"-defaultlib:OLDNAMES "

	EXPORT	|wmain|
	EXPORT	|??_C@_1BC@KDGGOCCF@?$AAU?$AAs?$AAa?$AAg?$AAe?$AA?3?$AA?$AN?$AA?6?$AA?$AA@| [ DATA ] ; `string'
	EXPORT	|??_C@_1CC@CFCOOJEC@?$AAH?$AAe?$AAl?$AAp?$AA?3?$AA?5?$AAw?$AAa?$AAk?$AAe?$AAm?$AAe?$AA?5?$AA?$DP?$AA?$AN?$AA?6?$AA?$AA@| [ DATA ] ; `string'
	EXPORT	|??_C@_1HE@PGJKDDNF@?$AAC?$AAu?$AAs?$AAt?$AAo?$AAm?$AA?5?$AAR?$AAT?$AAC?$AA?5?$AAT?$AAi?$AAm?$AAe?$AAo?$AAu?$AAt?$AA?3?$AA?5?$AAw?$AAa?$AAk?$AAe?$AAm?$AAe?$AA?5?$AA?$DM?$AAp?$AAo?$AAs?$AAi@| [ DATA ] ; `string'
	EXPORT	|??_C@_1IA@KLMICAAO@?$AAi?$AA?4?$AAe?$AA?4?$AA?5?$AAw?$AAa?$AAk?$AAe?$AAm?$AAe?$AA?5?$AA6?$AA0?$AA?5?$AA?9?$AA?9?$AA?$DO?$AA?5?$AAt?$AAh?$AAi?$AAs?$AA?5?$AAw?$AAi?$AAl?$AAl?$AA?5?$AAm?$AAa?$AAk@| [ DATA ] ; `string'
	EXPORT	|??_C@_1CM@CPLGNIJL@?$AAy?$AAo?$AAu?$AAv?$AAe?$AA?5?$AAb?$AAe?$AAe?$AAn?$AA?5?$AAw?$AAo?$AAk?$AAe?$AAn?$AA?5?$AAu?$AAp?$AA?$AN?$AA?6?$AA?$AA@| [ DATA ] ; `string'
	EXPORT	|??_C@_1CO@CMFHKECM@?$AAR?$AAT?$AAC?$AA?5?$AAa?$AAl?$AAa?$AAr?$AAm?$AA?5?$AAt?$AAi?$AAm?$AAe?$AAd?$AA?5?$AAo?$AAu?$AAt?$AA?$CB?$AA?$AN?$AA?6?$AA?$AA@| [ DATA ] ; `string'
	EXPORT	|??_C@_1KK@CFFCONEG@?$AAW?$AAa?$AAk?$AAe?$AAm?$AAe?$AA?3?$AA?5?$AAS?$AAy?$AAs?$AAt?$AAe?$AAm?$AA?5?$AAw?$AAi?$AAl?$AAl?$AA?5?$AAs?$AAu?$AAs?$AAp?$AAe?$AAn?$AAd?$AA?5?$AAi?$AAn?$AA?5?$AA5@| [ DATA ] ; `string'
	EXPORT	|??_C@_1EK@LOELPKGF@?$AAC?$AAe?$AAR?$AAu?$AAn?$AAA?$AAp?$AAp?$AAA?$AAt?$AAT?$AAi?$AAm?$AAe?$AA?5?$AAf?$AAa?$AAi?$AAl?$AAe?$AAd?$AA?$CB?$AA?5?$AA?$CI?$AAe?$AAr?$AAr?$AAo?$AAr?$AA?3?$AA?5?$AA?$CF@| [ DATA ] ; `string'
	EXPORT	|??_C@_1CA@IHKPCIHP@?$AAR?$AAe?$AAs?$AAu?$AAm?$AAe?$AAT?$AAe?$AAs?$AAt?$AAE?$AAv?$AAe?$AAn?$AAt?$AA?$AA@| [ DATA ] ; `string'
	EXPORT	|??_C@_1FM@EHCLPLKM@?$AA?2?$AA?2?$AA?4?$AA?2?$AAN?$AAo?$AAt?$AAi?$AAf?$AAi?$AAc?$AAa?$AAt?$AAi?$AAo?$AAn?$AAs?$AA?2?$AAN?$AAa?$AAm?$AAe?$AAd?$AAE?$AAv?$AAe?$AAn?$AAt?$AAs?$AA?2?$AAR?$AAe@| [ DATA ] ; `string'
	EXPORT	|??_C@_1HO@KBPBJGNJ@?$AAN?$AAe?$AAg?$AAa?$AAt?$AAi?$AAv?$AAe?$AA?5?$AAa?$AAn?$AAd?$AA?5?$AAZ?$AAe?$AAr?$AAo?$AA?5?$AAR?$AAT?$AAC?$AA?5?$AAT?$AAi?$AAm?$AAe?$AAo?$AAu?$AAt?$AA?5?$AAN?$AAo@| [ DATA ] ; `string'
	EXPORT	|??_C@_1DA@HOLLONIB@?$AAR?$AAT?$AAC?$AA?5?$AAT?$AAi?$AAm?$AAe?$AAo?$AAu?$AAt?$AA?5?$AAS?$AAe?$AAt?$AA?5?$AAt?$AAo?$AA?5?$AA?$CF?$AAd?$AA?$AN?$AA?6?$AA?$AA@| [ DATA ] ; `string'
	EXPORT	|??_C@_13HGPDMIBE@?$AA?$DP?$AA?$AA@| [ DATA ] ; `string'
	EXPORT	|??_C@_1GA@DIPMNCCC@?$AAN?$AAo?$AA?5?$AAR?$AAT?$AAC?$AA?5?$AAT?$AAi?$AAm?$AAe?$AAo?$AAu?$AAt?$AA?5?$AAS?$AAp?$AAe?$AAc?$AAi?$AAf?$AAi?$AAe?$AAd?$AA?4?$AA?5?$AAU?$AAs?$AAi?$AAn?$AAg?$AA?5@| [ DATA ] ; `string'
	EXPORT	|??_C@_1DO@IFFLCICO@?$AAW?$AAa?$AAk?$AAe?$AAm?$AAe?$AA?3?$AA?5?$AAA?$AAp?$AAp?$AAl?$AAi?$AAc?$AAa?$AAt?$AAi?$AAo?$AAn?$AA?5?$AAS?$AAt?$AAa?$AAr?$AAt?$AAe?$AAd?$AA?4?$AA?$AN?$AA?6?$AA?$AA@| [ DATA ] ; `string'
	IMPORT	|WaitForSingleObject|
	IMPORT	|SetSystemPowerState|
	IMPORT	|Sleep|
	IMPORT	|_wtol|
	IMPORT	|GetLastError|
	IMPORT	|CeRunAppAtTime|
	IMPORT	|FileTimeToSystemTime|
	IMPORT	|SystemTimeToFileTime|
	IMPORT	|GetLocalTime|
	IMPORT	|CreateEventW|
	IMPORT	|NKDbgPrintfW|
	IMPORT	|wcscmp|
; File c:\wince600\platform\z2170p\src\test\wakeme\wakeme.cpp

  00000			 AREA	 |.pdata|, PDATA
|$T32326| DCD	|$LN45@wmain|
	DCD	0x40007202

  00000			 AREA	 |.rdata|, DATA, READONLY
|??_C@_1BC@KDGGOCCF@?$AAU?$AAs?$AAa?$AAg?$AAe?$AA?3?$AA?$AN?$AA?6?$AA?$AA@| DCB "U"
	DCB	0x0, "s", 0x0, "a", 0x0, "g", 0x0, "e", 0x0, ":", 0x0, 0xd
	DCB	0x0, 0xa, 0x0, 0x0, 0x0			; `string'

  00000			 AREA	 |.rdata|, DATA, READONLY
|??_C@_1CC@CFCOOJEC@?$AAH?$AAe?$AAl?$AAp?$AA?3?$AA?5?$AAw?$AAa?$AAk?$AAe?$AAm?$AAe?$AA?5?$AA?$DP?$AA?$AN?$AA?6?$AA?$AA@| DCB "H"
	DCB	0x0, "e", 0x0, "l", 0x0, "p", 0x0, ":", 0x0, " ", 0x0, "w"
	DCB	0x0, "a", 0x0, "k", 0x0, "e", 0x0, "m", 0x0, "e", 0x0, " "
	DCB	0x0, "?", 0x0, 0xd, 0x0, 0xa, 0x0, 0x0, 0x0 ; `string'

  00000			 AREA	 |.rdata|, DATA, READONLY
|??_C@_1HE@PGJKDDNF@?$AAC?$AAu?$AAs?$AAt?$AAo?$AAm?$AA?5?$AAR?$AAT?$AAC?$AA?5?$AAT?$AAi?$AAm?$AAe?$AAo?$AAu?$AAt?$AA?3?$AA?5?$AAw?$AAa?$AAk?$AAe?$AAm?$AAe?$AA?5?$AA?$DM?$AAp?$AAo?$AAs?$AAi@| DCB "C"
	DCB	0x0, "u", 0x0, "s", 0x0, "t", 0x0, "o", 0x0, "m", 0x0, " "
	DCB	0x0, "R", 0x0, "T", 0x0, "C", 0x0, " ", 0x0, "T", 0x0, "i"
	DCB	0x0, "m", 0x0, "e", 0x0, "o", 0x0, "u", 0x0, "t", 0x0, ":"
	DCB	0x0, " ", 0x0, "w", 0x0, "a", 0x0, "k", 0x0, "e", 0x0, "m"
	DCB	0x0, "e", 0x0, " ", 0x0, "<", 0x0, "p", 0x0, "o", 0x0, "s"
	DCB	0x0, "i", 0x0, "t", 0x0, "i", 0x0, "v", 0x0, "e", 0x0, " "
	DCB	0x0, "n", 0x0, "u", 0x0, "m", 0x0, "b", 0x0, "e", 0x0, "r"
	DCB	0x0, " ", 0x0, "i", 0x0, "n", 0x0, " ", 0x0, "s", 0x0, "e"
	DCB	0x0, "c", 0x0, "o", 0x0, "n", 0x0, "d", 0x0, "s", 0x0, ">"
	DCB	0x0, 0xd, 0x0, 0xa, 0x0, 0x0, 0x0	; `string'

  00000			 AREA	 |.rdata|, DATA, READONLY
|??_C@_1IA@KLMICAAO@?$AAi?$AA?4?$AAe?$AA?4?$AA?5?$AAw?$AAa?$AAk?$AAe?$AAm?$AAe?$AA?5?$AA6?$AA0?$AA?5?$AA?9?$AA?9?$AA?$DO?$AA?5?$AAt?$AAh?$AAi?$AAs?$AA?5?$AAw?$AAi?$AAl?$AAl?$AA?5?$AAm?$AAa?$AAk@| DCB "i"
	DCB	0x0, ".", 0x0, "e", 0x0, ".", 0x0, " ", 0x0, "w", 0x0, "a"
	DCB	0x0, "k", 0x0, "e", 0x0, "m", 0x0, "e", 0x0, " ", 0x0, "6"
	DCB	0x0, "0", 0x0, " ", 0x0, "-", 0x0, "-", 0x0, ">", 0x0, " "
	DCB	0x0, "t", 0x0, "h", 0x0, "i", 0x0, "s", 0x0, " ", 0x0, "w"
	DCB	0x0, "i", 0x0, "l", 0x0, "l", 0x0, " ", 0x0, "m", 0x0, "a"
	DCB	0x0, "k", 0x0, "e", 0x0, " ", 0x0, "t", 0x0, "h", 0x0, "e"
	DCB	0x0, " ", 0x0, "R", 0x0, "T", 0x0, "C", 0x0, " ", 0x0, "t"
	DCB	0x0, "i", 0x0, "m", 0x0, "e", 0x0, "o", 0x0, "u", 0x0, "t"
	DCB	0x0, " ", 0x0, "6", 0x0, "0", 0x0, " ", 0x0, "s", 0x0, "e"
	DCB	0x0, "c", 0x0, "o", 0x0, "n", 0x0, "d", 0x0, "s", 0x0, "."
	DCB	0x0, 0xd, 0x0, 0xa, 0x0, 0x0, 0x0	; `string'

  00000			 AREA	 |.rdata|, DATA, READONLY
|??_C@_1CM@CPLGNIJL@?$AAy?$AAo?$AAu?$AAv?$AAe?$AA?5?$AAb?$AAe?$AAe?$AAn?$AA?5?$AAw?$AAo?$AAk?$AAe?$AAn?$AA?5?$AAu?$AAp?$AA?$AN?$AA?6?$AA?$AA@| DCB "y"
	DCB	0x0, "o", 0x0, "u", 0x0, "v", 0x0, "e", 0x0, " ", 0x0, "b"
	DCB	0x0, "e", 0x0, "e", 0x0, "n", 0x0, " ", 0x0, "w", 0x0, "o"
	DCB	0x0, "k", 0x0, "e", 0x0, "n", 0x0, " ", 0x0, "u", 0x0, "p"
	DCB	0x0, 0xd, 0x0, 0xa, 0x0, 0x0, 0x0	; `string'

  00000			 AREA	 |.rdata|, DATA, READONLY
|??_C@_1CO@CMFHKECM@?$AAR?$AAT?$AAC?$AA?5?$AAa?$AAl?$AAa?$AAr?$AAm?$AA?5?$AAt?$AAi?$AAm?$AAe?$AAd?$AA?5?$AAo?$AAu?$AAt?$AA?$CB?$AA?$AN?$AA?6?$AA?$AA@| DCB "R"
	DCB	0x0, "T", 0x0, "C", 0x0, " ", 0x0, "a", 0x0, "l", 0x0, "a"
	DCB	0x0, "r", 0x0, "m", 0x0, " ", 0x0, "t", 0x0, "i", 0x0, "m"
	DCB	0x0, "e", 0x0, "d", 0x0, " ", 0x0, "o", 0x0, "u", 0x0, "t"
	DCB	0x0, "!", 0x0, 0xd, 0x0, 0xa, 0x0, 0x0, 0x0 ; `string'

  00000			 AREA	 |.rdata|, DATA, READONLY
|??_C@_1KK@CFFCONEG@?$AAW?$AAa?$AAk?$AAe?$AAm?$AAe?$AA?3?$AA?5?$AAS?$AAy?$AAs?$AAt?$AAe?$AAm?$AA?5?$AAw?$AAi?$AAl?$AAl?$AA?5?$AAs?$AAu?$AAs?$AAp?$AAe?$AAn?$AAd?$AA?5?$AAi?$AAn?$AA?5?$AA5@| DCB "W"
	DCB	0x0, "a", 0x0, "k", 0x0, "e", 0x0, "m", 0x0, "e", 0x0, ":"
	DCB	0x0, " ", 0x0, "S", 0x0, "y", 0x0, "s", 0x0, "t", 0x0, "e"
	DCB	0x0, "m", 0x0, " ", 0x0, "w", 0x0, "i", 0x0, "l", 0x0, "l"
	DCB	0x0, " ", 0x0, "s", 0x0, "u", 0x0, "s", 0x0, "p", 0x0, "e"
	DCB	0x0, "n", 0x0, "d", 0x0, " ", 0x0, "i", 0x0, "n", 0x0, " "
	DCB	0x0, "5", 0x0, " ", 0x0, "s", 0x0, "e", 0x0, "c", 0x0, "o"
	DCB	0x0, "n", 0x0, "d", 0x0, "s", 0x0, ",", 0x0, " ", 0x0, "R"
	DCB	0x0, "T", 0x0, "C", 0x0, " ", 0x0, "w", 0x0, "i", 0x0, "l"
	DCB	0x0, "l", 0x0, " ", 0x0, "w", 0x0, "a", 0x0, "k", 0x0, "e"
	DCB	0x0, " ", 0x0, "s", 0x0, "y", 0x0, "s", 0x0, "t", 0x0, "e"
	DCB	0x0, "m", 0x0, " ", 0x0, "%", 0x0, "d", 0x0, " ", 0x0, "s"
	DCB	0x0, "e", 0x0, "c", 0x0, "o", 0x0, "n", 0x0, "d", 0x0, "s"
	DCB	0x0, " ", 0x0, "a", 0x0, "f", 0x0, "t", 0x0, "e", 0x0, "r"
	DCB	0x0, ".", 0x0, ".", 0x0, ".", 0x0, 0xd, 0x0, 0xa, 0x0, 0x0
	DCB	0x0					; `string'

  00000			 AREA	 |.rdata|, DATA, READONLY
|??_C@_1EK@LOELPKGF@?$AAC?$AAe?$AAR?$AAu?$AAn?$AAA?$AAp?$AAp?$AAA?$AAt?$AAT?$AAi?$AAm?$AAe?$AA?5?$AAf?$AAa?$AAi?$AAl?$AAe?$AAd?$AA?$CB?$AA?5?$AA?$CI?$AAe?$AAr?$AAr?$AAo?$AAr?$AA?3?$AA?5?$AA?$CF@| DCB "C"
	DCB	0x0, "e", 0x0, "R", 0x0, "u", 0x0, "n", 0x0, "A", 0x0, "p"
	DCB	0x0, "p", 0x0, "A", 0x0, "t", 0x0, "T", 0x0, "i", 0x0, "m"
	DCB	0x0, "e", 0x0, " ", 0x0, "f", 0x0, "a", 0x0, "i", 0x0, "l"
	DCB	0x0, "e", 0x0, "d", 0x0, "!", 0x0, " ", 0x0, "(", 0x0, "e"
	DCB	0x0, "r", 0x0, "r", 0x0, "o", 0x0, "r", 0x0, ":", 0x0, " "
	DCB	0x0, "%", 0x0, "d", 0x0, ")", 0x0, 0xd, 0x0, 0xa, 0x0, 0x0
	DCB	0x0					; `string'

  00000			 AREA	 |.rdata|, DATA, READONLY
|??_C@_1CA@IHKPCIHP@?$AAR?$AAe?$AAs?$AAu?$AAm?$AAe?$AAT?$AAe?$AAs?$AAt?$AAE?$AAv?$AAe?$AAn?$AAt?$AA?$AA@| DCB "R"
	DCB	0x0, "e", 0x0, "s", 0x0, "u", 0x0, "m", 0x0, "e", 0x0, "T"
	DCB	0x0, "e", 0x0, "s", 0x0, "t", 0x0, "E", 0x0, "v", 0x0, "e"
	DCB	0x0, "n", 0x0, "t", 0x0, 0x0, 0x0	; `string'

  00000			 AREA	 |.rdata|, DATA, READONLY
|??_C@_1FM@EHCLPLKM@?$AA?2?$AA?2?$AA?4?$AA?2?$AAN?$AAo?$AAt?$AAi?$AAf?$AAi?$AAc?$AAa?$AAt?$AAi?$AAo?$AAn?$AAs?$AA?2?$AAN?$AAa?$AAm?$AAe?$AAd?$AAE?$AAv?$AAe?$AAn?$AAt?$AAs?$AA?2?$AAR?$AAe@| DCB "\\"
	DCB	0x0, "\\", 0x0, ".", 0x0, "\\", 0x0, "N", 0x0, "o", 0x0, "t"
	DCB	0x0, "i", 0x0, "f", 0x0, "i", 0x0, "c", 0x0, "a", 0x0, "t"
	DCB	0x0, "i", 0x0, "o", 0x0, "n", 0x0, "s", 0x0, "\\", 0x0, "N"
	DCB	0x0, "a", 0x0, "m", 0x0, "e", 0x0, "d", 0x0, "E", 0x0, "v"
	DCB	0x0, "e", 0x0, "n", 0x0, "t", 0x0, "s", 0x0, "\\", 0x0, "R"
	DCB	0x0, "e", 0x0, "s", 0x0, "u", 0x0, "m", 0x0, "e", 0x0, "T"
	DCB	0x0, "e", 0x0, "s", 0x0, "t", 0x0, "E", 0x0, "v", 0x0, "e"
	DCB	0x0, "n", 0x0, "t", 0x0, 0x0, 0x0	; `string'

  00000			 AREA	 |.rdata|, DATA, READONLY
|??_C@_1HO@KBPBJGNJ@?$AAN?$AAe?$AAg?$AAa?$AAt?$AAi?$AAv?$AAe?$AA?5?$AAa?$AAn?$AAd?$AA?5?$AAZ?$AAe?$AAr?$AAo?$AA?5?$AAR?$AAT?$AAC?$AA?5?$AAT?$AAi?$AAm?$AAe?$AAo?$AAu?$AAt?$AA?5?$AAN?$AAo@| DCB "N"
	DCB	0x0, "e", 0x0, "g", 0x0, "a", 0x0, "t", 0x0, "i", 0x0, "v"
	DCB	0x0, "e", 0x0, " ", 0x0, "a", 0x0, "n", 0x0, "d", 0x0, " "
	DCB	0x0, "Z", 0x0, "e", 0x0, "r", 0x0, "o", 0x0, " ", 0x0, "R"
	DCB	0x0, "T", 0x0, "C", 0x0, " ", 0x0, "T", 0x0, "i", 0x0, "m"
	DCB	0x0, "e", 0x0, "o", 0x0, "u", 0x0, "t", 0x0, " ", 0x0, "N"
	DCB	0x0, "o", 0x0, "t", 0x0, " ", 0x0, "S", 0x0, "u", 0x0, "p"
	DCB	0x0, "p", 0x0, "o", 0x0, "r", 0x0, "t", 0x0, "e", 0x0, "d"
	DCB	0x0, ".", 0x0, " ", 0x0, "E", 0x0, "x", 0x0, "i", 0x0, "t"
	DCB	0x0, "i", 0x0, "n", 0x0, "g", 0x0, ".", 0x0, ".", 0x0, "."
	DCB	0x0, 0xd, 0x0, 0xa, 0x0, " ", 0x0, "%", 0x0, "d", 0x0, 0xd
	DCB	0x0, 0xa, 0x0, 0x0, 0x0			; `string'

  00000			 AREA	 |.rdata|, DATA, READONLY
|??_C@_1DA@HOLLONIB@?$AAR?$AAT?$AAC?$AA?5?$AAT?$AAi?$AAm?$AAe?$AAo?$AAu?$AAt?$AA?5?$AAS?$AAe?$AAt?$AA?5?$AAt?$AAo?$AA?5?$AA?$CF?$AAd?$AA?$AN?$AA?6?$AA?$AA@| DCB "R"
	DCB	0x0, "T", 0x0, "C", 0x0, " ", 0x0, "T", 0x0, "i", 0x0, "m"
	DCB	0x0, "e", 0x0, "o", 0x0, "u", 0x0, "t", 0x0, " ", 0x0, "S"
	DCB	0x0, "e", 0x0, "t", 0x0, " ", 0x0, "t", 0x0, "o", 0x0, " "
	DCB	0x0, "%", 0x0, "d", 0x0, 0xd, 0x0, 0xa, 0x0, 0x0, 0x0 ; `string'

  00000			 AREA	 |.rdata|, DATA, READONLY
|??_C@_13HGPDMIBE@?$AA?$DP?$AA?$AA@| DCB "?", 0x0, 0x0, 0x0 ; `string'

  00000			 AREA	 |.rdata|, DATA, READONLY
|??_C@_1GA@DIPMNCCC@?$AAN?$AAo?$AA?5?$AAR?$AAT?$AAC?$AA?5?$AAT?$AAi?$AAm?$AAe?$AAo?$AAu?$AAt?$AA?5?$AAS?$AAp?$AAe?$AAc?$AAi?$AAf?$AAi?$AAe?$AAd?$AA?4?$AA?5?$AAU?$AAs?$AAi?$AAn?$AAg?$AA?5@| DCB "N"
	DCB	0x0, "o", 0x0, " ", 0x0, "R", 0x0, "T", 0x0, "C", 0x0, " "
	DCB	0x0, "T", 0x0, "i", 0x0, "m", 0x0, "e", 0x0, "o", 0x0, "u"
	DCB	0x0, "t", 0x0, " ", 0x0, "S", 0x0, "p", 0x0, "e", 0x0, "c"
	DCB	0x0, "i", 0x0, "f", 0x0, "i", 0x0, "e", 0x0, "d", 0x0, "."
	DCB	0x0, " ", 0x0, "U", 0x0, "s", 0x0, "i", 0x0, "n", 0x0, "g"
	DCB	0x0, " ", 0x0, "D", 0x0, "e", 0x0, "f", 0x0, "a", 0x0, "u"
	DCB	0x0, "l", 0x0, "t", 0x0, " ", 0x0, "o", 0x0, "f", 0x0, " "
	DCB	0x0, "%", 0x0, "d", 0x0, 0xd, 0x0, 0xa, 0x0, 0x0, 0x0 ; `string'

  00000			 AREA	 |.rdata|, DATA, READONLY
|??_C@_1DO@IFFLCICO@?$AAW?$AAa?$AAk?$AAe?$AAm?$AAe?$AA?3?$AA?5?$AAA?$AAp?$AAp?$AAl?$AAi?$AAc?$AAa?$AAt?$AAi?$AAo?$AAn?$AA?5?$AAS?$AAt?$AAa?$AAr?$AAt?$AAe?$AAd?$AA?4?$AA?$AN?$AA?6?$AA?$AA@| DCB "W"
	DCB	0x0, "a", 0x0, "k", 0x0, "e", 0x0, "m", 0x0, "e", 0x0, ":"
	DCB	0x0, " ", 0x0, "A", 0x0, "p", 0x0, "p", 0x0, "l", 0x0, "i"
	DCB	0x0, "c", 0x0, "a", 0x0, "t", 0x0, "i", 0x0, "o", 0x0, "n"
	DCB	0x0, " ", 0x0, "S", 0x0, "t", 0x0, "a", 0x0, "r", 0x0, "t"
	DCB	0x0, "e", 0x0, "d", 0x0, ".", 0x0, 0xd, 0x0, 0xa, 0x0, 0x0
	DCB	0x0					; `string'
; Function compile flags: /Ogspy

  00000			 AREA	 |.text|, CODE, ARM

  00000		 |wmain| PROC

; 16   : {

  00000		 |$LN45@wmain|
  00000	e92d4070	 stmdb       sp!, {r4 - r6, lr}
  00004	e24dd018	 sub         sp, sp, #0x18
  00008		 |$M32323|
  00008	e1a06001	 mov         r6, r1
  0000c	e1a05000	 mov         r5, r0

; 17   : 	HANDLE     hEvent;
; 18   : 	SYSTEMTIME curSysTime;
; 19   : 	FILETIME fileTime;
; 20   : 	int numSecs = DEFAULT_SUSPEND_TIME;
; 21   : 
; 22   : 	UNREFERENCED_PARAMETER(envp);
; 23   : 
; 24   : 	RETAILMSG(1, (L"Wakeme: Application Started.\r\n"));

  00010	e59f01ac	 ldr         r0, [pc, #0x1AC]
  00014	e3a04078	 mov         r4, #0x78
  00018	eb000000	 bl          NKDbgPrintfW

; 25   : 
; 26   : 	//Check Application Parameters
; 27   : 	if(argc<2) //If there is no parameter, load default value

  0001c	e3550002	 cmp         r5, #2
  00020	aa000022	 bge         |$LN40@wmain|

; 28   : 	{
; 29   : 		RETAILMSG(1, (L"No RTC Timeout Specified. Using Default of %d\r\n", numSecs));

  00024	e59f0194	 ldr         r0, [pc, #0x194]
  00028	e3a01078	 mov         r1, #0x78
  0002c	eb000000	 bl          NKDbgPrintfW
  00030		 |$LN6@wmain|

; 47   : 			goto EXIT;
; 48   : 		}		
; 49   : 	}
; 50   : 
; 51   : 	// create a named event
; 52   : 	hEvent = CreateEvent( NULL, FALSE, FALSE, RESUME_EVENT );

  00030	e59f3184	 ldr         r3, [pc, #0x184]
  00034	e3a02000	 mov         r2, #0
  00038	e3a01000	 mov         r1, #0
  0003c	e3a00000	 mov         r0, #0
  00040	eb000000	 bl          CreateEventW
  00044	e1a05000	 mov         r5, r0

; 53   : 
; 54   : 	// create user notification
; 55   : 	GetLocalTime( &curSysTime );

  00048	e28d0008	 add         r0, sp, #8
  0004c	eb000000	 bl          GetLocalTime

; 56   : 	SystemTimeToFileTime(&curSysTime, &fileTime);

  00050	e28d1000	 add         r1, sp, #0
  00054	e28d0008	 add         r0, sp, #8
  00058	eb000000	 bl          SystemTimeToFileTime

; 57   : 	*((UINT64*)&fileTime) += (numSecs*10000000);

  0005c	e59f3154	 ldr         r3, [pc, #0x154]
  00060	e59d2000	 ldr         r2, [sp]
  00064	e59de004	 ldr         lr, [sp, #4]
  00068	e0030394	 mul         r3, r4, r3

; 58   : 	FileTimeToSystemTime(&fileTime, &curSysTime);

  0006c	e28d1008	 add         r1, sp, #8
  00070	e0922003	 adds        r2, r2, r3
  00074	e0ae3fc3	 adc         r3, lr, r3, asr #31
  00078	e28d0000	 add         r0, sp, #0
  0007c	e58d3004	 str         r3, [sp, #4]
  00080	e58d2000	 str         r2, [sp]
  00084	eb000000	 bl          FileTimeToSystemTime

; 59   : 
; 60   : 	if(CeRunAppAtTime(L"\\\\.\\Notifications\\NamedEvents\\"RESUME_EVENT, &curSysTime) == FALSE)

  00088	e59f0124	 ldr         r0, [pc, #0x124]
  0008c	e28d1008	 add         r1, sp, #8
  00090	eb000000	 bl          CeRunAppAtTime
  00094	e3500000	 cmp         r0, #0
  00098	1a000018	 bne         |$LN4@wmain|

; 61   : 	{
; 62   : 		RETAILMSG(1, (L"CeRunAppAtTime failed! (error: %d)\r\n", GetLastError()));

  0009c	eb000000	 bl          GetLastError
  000a0	e1a01000	 mov         r1, r0
  000a4	e59f0104	 ldr         r0, [pc, #0x104]
  000a8	eb000000	 bl          NKDbgPrintfW

; 81   : 
; 82   : 	EXIT:

  000ac	ea000031	 b           |$EXIT$32242|
  000b0		 |$LN40@wmain|

; 30   : 	}
; 31   : 	else if(argc>2 || wcscmp(argv[1],L"?") == 0)

  000b0	ca000028	 bgt         |$LN10@wmain|
  000b4	e59f10f0	 ldr         r1, [pc, #0xF0]
  000b8	e5960004	 ldr         r0, [r6, #4]
  000bc	eb000000	 bl          wcscmp
  000c0	e3500000	 cmp         r0, #0
  000c4	0a000023	 beq         |$LN10@wmain|

; 37   : 		goto EXIT;
; 38   : 	}
; 39   : 	else if(argc == 2 )// Set RTC Timeout

  000c8	e3550002	 cmp         r5, #2
  000cc	1affffd7	 bne         |$LN6@wmain|

; 40   : 	{
; 41   : 		numSecs = (DWORD)_wtol(argv[1]);

  000d0	e5960004	 ldr         r0, [r6, #4]
  000d4	eb000000	 bl          _wtol
  000d8	e1a04000	 mov         r4, r0

; 42   : 		RETAILMSG(1, (L"RTC Timeout Set to %d\r\n", numSecs));

  000dc	e59f00c4	 ldr         r0, [pc, #0xC4]
  000e0	e1a01004	 mov         r1, r4
  000e4	eb000000	 bl          NKDbgPrintfW

; 43   : 			
; 44   : 		if(numSecs <= 0)

  000e8	e3540000	 cmp         r4, #0
  000ec	caffffcf	 bgt         |$LN6@wmain|

; 45   : 		{
; 46   : 			RETAILMSG(1, (L"Negative and Zero RTC Timeout Not Supported. Exiting...\r\n %d\r\n", numSecs));

  000f0	e59f00ac	 ldr         r0, [pc, #0xAC]
  000f4	e1a01004	 mov         r1, r4

; 61   : 	{
; 62   : 		RETAILMSG(1, (L"CeRunAppAtTime failed! (error: %d)\r\n", GetLastError()));

  000f8	eb000000	 bl          NKDbgPrintfW

; 81   : 
; 82   : 	EXIT:

  000fc	ea00001d	 b           |$EXIT$32242|
  00100		 |$LN4@wmain|

; 63   : 		goto EXIT;
; 64   : 	}
; 65   : 	
; 66   : 	// Suspend the system
; 67   : 	RETAILMSG(1, (L"Wakeme: System will suspend in 5 seconds, RTC will wake system %d seconds after...\r\n", numSecs));

  00100	e59f0098	 ldr         r0, [pc, #0x98]
  00104	e1a01004	 mov         r1, r4
  00108	eb000000	 bl          NKDbgPrintfW
  0010c	e3a03c13	 mov         r3, #0x13, 24

; 68   : 	Sleep(5000);

  00110	e3830088	 orr         r0, r3, #0x88
  00114	eb000000	 bl          Sleep

; 69   : 	SetSystemPowerState(NULL, POWER_STATE_SUSPEND, POWER_FORCE);

  00118	e3a02a01	 mov         r2, #1, 20
  0011c	e3a01602	 mov         r1, #2, 12
  00120	e3a00000	 mov         r0, #0
  00124	eb000000	 bl          SetSystemPowerState

; 70   : 	
; 71   : 	// wait for my event
; 72   : 	if (WaitForSingleObject(hEvent,(numSecs+RTC_RESOLUTION+1)*1000) == WAIT_TIMEOUT)

  00128	e284303d	 add         r3, r4, #0x3D
  0012c	e3a02ffa	 mov         r2, #0xFA, 30
  00130	e0010293	 mul         r1, r3, r2
  00134	e1a00005	 mov         r0, r5
  00138	eb000000	 bl          WaitForSingleObject
  0013c	e3a03c01	 mov         r3, #1, 24
  00140	e3833002	 orr         r3, r3, #2
  00144	e1500003	 cmp         r0, r3

; 73   : 	{
; 74   : 		RETAILMSG(1,(TEXT("RTC alarm timed out!\r\n")));

  00148	059f004c	 ldreq       r0, [pc, #0x4C]
  0014c	0a000008	 beq         |$LN41@wmain|

; 75   : 	}
; 76   : 	else
; 77   : 	{
; 78   : 		// my event was triggered
; 79   : 		RETAILMSG(1, (L"youve been woken up\r\n"));

  00150	e59f0040	 ldr         r0, [pc, #0x40]

; 80   : 	}	 

  00154	ea000006	 b           |$LN41@wmain|
  00158		 |$LN10@wmain|

; 32   : 	{
; 33   : 		RETAILMSG(1, (L"Usage:\r\n"));

  00158	e59f0034	 ldr         r0, [pc, #0x34]
  0015c	eb000000	 bl          NKDbgPrintfW

; 34   : 		RETAILMSG(1, (L"Help: wakeme ?\r\n"));

  00160	e59f0028	 ldr         r0, [pc, #0x28]
  00164	eb000000	 bl          NKDbgPrintfW

; 35   : 		RETAILMSG(1, (L"Custom RTC Timeout: wakeme <positive number in seconds>\r\n"));

  00168	e59f001c	 ldr         r0, [pc, #0x1C]
  0016c	eb000000	 bl          NKDbgPrintfW

; 36   : 		RETAILMSG(1, (L"i.e. wakeme 60 --> this will make the RTC timeout 60 seconds.\r\n"));

  00170	e59f0010	 ldr         r0, [pc, #0x10]
  00174		 |$LN41@wmain|
  00174	eb000000	 bl          NKDbgPrintfW
  00178		 |$EXIT$32242|

; 83   :     return 0;

  00178	e3a00000	 mov         r0, #0

; 84   : }

  0017c	e28dd018	 add         sp, sp, #0x18
  00180	e8bd4070	 ldmia       sp!, {r4 - r6, lr}
  00184	e12fff1e	 bx          lr
  00188		 |$LN46@wmain|
  00188		 |$LN47@wmain|
  00188	00000000	 DCD         |??_C@_1IA@KLMICAAO@?$AAi?$AA?4?$AAe?$AA?4?$AA?5?$AAw?$AAa?$AAk?$AAe?$AAm?$AAe?$AA?5?$AA6?$AA0?$AA?5?$AA?9?$AA?9?$AA?$DO?$AA?5?$AAt?$AAh?$AAi?$AAs?$AA?5?$AAw?$AAi?$AAl?$AAl?$AA?5?$AAm?$AAa?$AAk@|
  0018c		 |$LN48@wmain|
  0018c	00000000	 DCD         |??_C@_1HE@PGJKDDNF@?$AAC?$AAu?$AAs?$AAt?$AAo?$AAm?$AA?5?$AAR?$AAT?$AAC?$AA?5?$AAT?$AAi?$AAm?$AAe?$AAo?$AAu?$AAt?$AA?3?$AA?5?$AAw?$AAa?$AAk?$AAe?$AAm?$AAe?$AA?5?$AA?$DM?$AAp?$AAo?$AAs?$AAi@|
  00190		 |$LN49@wmain|
  00190	00000000	 DCD         |??_C@_1CC@CFCOOJEC@?$AAH?$AAe?$AAl?$AAp?$AA?3?$AA?5?$AAw?$AAa?$AAk?$AAe?$AAm?$AAe?$AA?5?$AA?$DP?$AA?$AN?$AA?6?$AA?$AA@|
  00194		 |$LN50@wmain|
  00194	00000000	 DCD         |??_C@_1BC@KDGGOCCF@?$AAU?$AAs?$AAa?$AAg?$AAe?$AA?3?$AA?$AN?$AA?6?$AA?$AA@|
  00198		 |$LN51@wmain|
  00198	00000000	 DCD         |??_C@_1CM@CPLGNIJL@?$AAy?$AAo?$AAu?$AAv?$AAe?$AA?5?$AAb?$AAe?$AAe?$AAn?$AA?5?$AAw?$AAo?$AAk?$AAe?$AAn?$AA?5?$AAu?$AAp?$AA?$AN?$AA?6?$AA?$AA@|
  0019c		 |$LN52@wmain|
  0019c	00000000	 DCD         |??_C@_1CO@CMFHKECM@?$AAR?$AAT?$AAC?$AA?5?$AAa?$AAl?$AAa?$AAr?$AAm?$AA?5?$AAt?$AAi?$AAm?$AAe?$AAd?$AA?5?$AAo?$AAu?$AAt?$AA?$CB?$AA?$AN?$AA?6?$AA?$AA@|
  001a0		 |$LN53@wmain|
  001a0	00000000	 DCD         |??_C@_1KK@CFFCONEG@?$AAW?$AAa?$AAk?$AAe?$AAm?$AAe?$AA?3?$AA?5?$AAS?$AAy?$AAs?$AAt?$AAe?$AAm?$AA?5?$AAw?$AAi?$AAl?$AAl?$AA?5?$AAs?$AAu?$AAs?$AAp?$AAe?$AAn?$AAd?$AA?5?$AAi?$AAn?$AA?5?$AA5@|
  001a4		 |$LN54@wmain|
  001a4	00000000	 DCD         |??_C@_1HO@KBPBJGNJ@?$AAN?$AAe?$AAg?$AAa?$AAt?$AAi?$AAv?$AAe?$AA?5?$AAa?$AAn?$AAd?$AA?5?$AAZ?$AAe?$AAr?$AAo?$AA?5?$AAR?$AAT?$AAC?$AA?5?$AAT?$AAi?$AAm?$AAe?$AAo?$AAu?$AAt?$AA?5?$AAN?$AAo@|
  001a8		 |$LN55@wmain|
  001a8	00000000	 DCD         |??_C@_1DA@HOLLONIB@?$AAR?$AAT?$AAC?$AA?5?$AAT?$AAi?$AAm?$AAe?$AAo?$AAu?$AAt?$AA?5?$AAS?$AAe?$AAt?$AA?5?$AAt?$AAo?$AA?5?$AA?$CF?$AAd?$AA?$AN?$AA?6?$AA?$AA@|
  001ac		 |$LN56@wmain|
  001ac	00000000	 DCD         |??_C@_13HGPDMIBE@?$AA?$DP?$AA?$AA@|
  001b0		 |$LN57@wmain|
  001b0	00000000	 DCD         |??_C@_1EK@LOELPKGF@?$AAC?$AAe?$AAR?$AAu?$AAn?$AAA?$AAp?$AAp?$AAA?$AAt?$AAT?$AAi?$AAm?$AAe?$AA?5?$AAf?$AAa?$AAi?$AAl?$AAe?$AAd?$AA?$CB?$AA?5?$AA?$CI?$AAe?$AAr?$AAr?$AAo?$AAr?$AA?3?$AA?5?$AA?$CF@|
  001b4		 |$LN58@wmain|
  001b4	00000000	 DCD         |??_C@_1FM@EHCLPLKM@?$AA?2?$AA?2?$AA?4?$AA?2?$AAN?$AAo?$AAt?$AAi?$AAf?$AAi?$AAc?$AAa?$AAt?$AAi?$AAo?$AAn?$AAs?$AA?2?$AAN?$AAa?$AAm?$AAe?$AAd?$AAE?$AAv?$AAe?$AAn?$AAt?$AAs?$AA?2?$AAR?$AAe@|
  001b8		 |$LN59@wmain|
  001b8	00989680	 DCD         0x989680
  001bc		 |$LN60@wmain|
  001bc	00000000	 DCD         |??_C@_1CA@IHKPCIHP@?$AAR?$AAe?$AAs?$AAu?$AAm?$AAe?$AAT?$AAe?$AAs?$AAt?$AAE?$AAv?$AAe?$AAn?$AAt?$AA?$AA@|
  001c0		 |$LN61@wmain|
  001c0	00000000	 DCD         |??_C@_1GA@DIPMNCCC@?$AAN?$AAo?$AA?5?$AAR?$AAT?$AAC?$AA?5?$AAT?$AAi?$AAm?$AAe?$AAo?$AAu?$AAt?$AA?5?$AAS?$AAp?$AAe?$AAc?$AAi?$AAf?$AAi?$AAe?$AAd?$AA?4?$AA?5?$AAU?$AAs?$AAi?$AAn?$AAg?$AA?5@|
  001c4		 |$LN62@wmain|
  001c4	00000000	 DCD         |??_C@_1DO@IFFLCICO@?$AAW?$AAa?$AAk?$AAe?$AAm?$AAe?$AA?3?$AA?5?$AAA?$AAp?$AAp?$AAl?$AAi?$AAc?$AAa?$AAt?$AAi?$AAo?$AAn?$AA?5?$AAS?$AAt?$AAa?$AAr?$AAt?$AAe?$AAd?$AA?4?$AA?$AN?$AA?6?$AA?$AA@|
  001c8		 |$M32324|

			 ENDP  ; |wmain|

	END
