; Listing generated by Microsoft (R) Optimizing Compiler Version 14.01.60511.01 

	TTL	C:\WINCE600\PLATFORM\COMMON\SRC\COMMON\IO\trans.c
	CODE32

  00000			 AREA	 |.drectve|, DRECTVE
	DCB	"-defaultlib:LIBCMT "
	DCB	"-defaultlib:OLDNAMES "


  00000			 AREA	 |.rdata|, DATA, READONLY
|EdbgVendorIds| DCW 0x0
	DCW	0x0
	DCD	0x4033
	DCB	0x1
	DCB	"AD", 0x0
	DCW	0x1050
	DCW	0x940
	DCD	0x4005
	DCB	0x1
	DCB	"LS", 0x0
	DCW	0x1050
	DCW	0x940
	DCD	0x2078
	DCB	0x1
	DCB	"LS", 0x0
	DCW	0x10ec
	DCW	0x8029
	DCD	0xc0f0
	DCB	0x1
	DCB	"KS", 0x0
	DCW	0x10ec
	DCW	0x8129
	DCD	0x0
	DCB	0x4
	DCB	"RT", 0x0
	DCW	0x10ec
	DCW	0x8139
	DCD	0x900b
	DCB	0x4
	DCB	"RT", 0x0
	DCW	0x10ec
	DCW	0x8139
	DCD	0xd0c9
	DCB	0x4
	DCB	"RT", 0x0
	DCW	0x10ec
	DCW	0x8139
	DCD	0xe04c
	DCB	0x4
	DCB	"RT", 0x0
	DCW	0x1186
	DCW	0x1300
	DCD	0x50ba
	DCB	0x4
	DCB	"DL", 0x0
	DCW	0x100b
	DCW	0x20
	DCD	0xa0cc
	DCB	0x5
	DCB	"NG", 0x0
	DCW	0x10b7
	DCW	0x9050
	DCD	0x6008
	DCB	0x6
	DCB	"3C", 0x0
	DCW	0x10b7
	DCW	0x9200
	DCD	0x476
	DCB	0x6
	DCB	"3C", 0x0
	EXPORT	|??_C@_1KE@FCFGNLKM@?$AA?9?$AAO?$AAA?$AAL?$AAT?$AAr?$AAa?$AAn?$AAs?$AAl?$AAa?$AAt?$AAe?$AAB?$AAu?$AAs?$AAA?$AAd?$AAd?$AAr?$AAe?$AAs?$AAs?$AA?$CI?$AAa?$AAd?$AAd?$AAr?$AAe?$AAs?$AAs?$AAS@| [ DATA ] ; `string'
	EXPORT	|??_C@_1GI@BPOGFGAB@?$AA?$CL?$AAO?$AAA?$AAL?$AAI?$AAo?$AAT?$AAr?$AAa?$AAn?$AAs?$AAl?$AAa?$AAt?$AAe?$AAB?$AAu?$AAs?$AAA?$AAd?$AAd?$AAr?$AAe?$AAs?$AAs?$AA?$CI?$AA?$CF?$AAd?$AA?0?$AA?5?$AA?$CF?$AAd@| [ DATA ] ; `string'
	EXPORT	|OALIoTransBusAddress|
	IMPORT	|OALPCMCIATransBusAddress|
	IMPORT	|OALPCITransBusAddress|
	IMPORT	|NKDbgPrintfW|
	IMPORT	|dpCurSettings|

  00000			 AREA	 |.pdata|, PDATA
|$T43072| DCD	|$LN27@OALIoTrans|
	DCD	0x40007804
; File c:\wince600\platform\common\src\common\io\trans.c

  00000			 AREA	 |.rdata|, DATA, READONLY
|??_C@_1KE@FCFGNLKM@?$AA?9?$AAO?$AAA?$AAL?$AAT?$AAr?$AAa?$AAn?$AAs?$AAl?$AAa?$AAt?$AAe?$AAB?$AAu?$AAs?$AAA?$AAd?$AAd?$AAr?$AAe?$AAs?$AAs?$AA?$CI?$AAa?$AAd?$AAd?$AAr?$AAe?$AAs?$AAs?$AAS@| DCB "-"
	DCB	0x0, "O", 0x0, "A", 0x0, "L", 0x0, "T", 0x0, "r", 0x0, "a"
	DCB	0x0, "n", 0x0, "s", 0x0, "l", 0x0, "a", 0x0, "t", 0x0, "e"
	DCB	0x0, "B", 0x0, "u", 0x0, "s", 0x0, "A", 0x0, "d", 0x0, "d"
	DCB	0x0, "r", 0x0, "e", 0x0, "s", 0x0, "s", 0x0, "(", 0x0, "a"
	DCB	0x0, "d", 0x0, "d", 0x0, "r", 0x0, "e", 0x0, "s", 0x0, "s"
	DCB	0x0, "S", 0x0, "p", 0x0, "a", 0x0, "c", 0x0, "e", 0x0, " "
	DCB	0x0, "=", 0x0, " ", 0x0, "%", 0x0, "d", 0x0, ",", 0x0, " "
	DCB	0x0, "s", 0x0, "y", 0x0, "s", 0x0, "t", 0x0, "e", 0x0, "m"
	DCB	0x0, "A", 0x0, "d", 0x0, "d", 0x0, "r", 0x0, "e", 0x0, "s"
	DCB	0x0, "s", 0x0, " ", 0x0, "=", 0x0, " ", 0x0, "0", 0x0, "x"
	DCB	0x0, "%", 0x0, "0", 0x0, "8", 0x0, "x", 0x0, "%", 0x0, "0"
	DCB	0x0, "8", 0x0, "x", 0x0, ",", 0x0, " ", 0x0, "r", 0x0, "c"
	DCB	0x0, " ", 0x0, "=", 0x0, " ", 0x0, "%", 0x0, "d", 0x0, ")"
	DCB	0x0, 0xd, 0x0, 0xa, 0x0, 0x0, 0x0	; `string'

  00000			 AREA	 |.rdata|, DATA, READONLY
|??_C@_1GI@BPOGFGAB@?$AA?$CL?$AAO?$AAA?$AAL?$AAI?$AAo?$AAT?$AAr?$AAa?$AAn?$AAs?$AAl?$AAa?$AAt?$AAe?$AAB?$AAu?$AAs?$AAA?$AAd?$AAd?$AAr?$AAe?$AAs?$AAs?$AA?$CI?$AA?$CF?$AAd?$AA?0?$AA?5?$AA?$CF?$AAd@| DCB "+"
	DCB	0x0, "O", 0x0, "A", 0x0, "L", 0x0, "I", 0x0, "o", 0x0, "T"
	DCB	0x0, "r", 0x0, "a", 0x0, "n", 0x0, "s", 0x0, "l", 0x0, "a"
	DCB	0x0, "t", 0x0, "e", 0x0, "B", 0x0, "u", 0x0, "s", 0x0, "A"
	DCB	0x0, "d", 0x0, "d", 0x0, "r", 0x0, "e", 0x0, "s", 0x0, "s"
	DCB	0x0, "(", 0x0, "%", 0x0, "d", 0x0, ",", 0x0, " ", 0x0, "%"
	DCB	0x0, "d", 0x0, ",", 0x0, " ", 0x0, "0", 0x0, "x", 0x0, "%"
	DCB	0x0, "0", 0x0, "8", 0x0, "x", 0x0, "%", 0x0, "0", 0x0, "8"
	DCB	0x0, "x", 0x0, ",", 0x0, " ", 0x0, "%", 0x0, "d", 0x0, ")"
	DCB	0x0, 0xd, 0x0, 0xa, 0x0, 0x0, 0x0	; `string'
; Function compile flags: /Odtp

  00000			 AREA	 |.text|, CODE, ARM

  00000		 |OALIoTransBusAddress| PROC

; 26   : ) {

  00000		 |$LN27@OALIoTrans|
  00000	e1a0c00d	 mov         r12, sp
  00004	e92d000f	 stmdb       sp!, {r0 - r3}
  00008	e92d5000	 stmdb       sp!, {r12, lr}
  0000c	e24dd038	 sub         sp, sp, #0x38
  00010		 |$M43069|

; 27   :     BOOL rc = FALSE;

  00010	e3a03000	 mov         r3, #0
  00014	e58d3008	 str         r3, [sp, #8]

; 28   : 
; 29   :     OALMSG(OAL_IO&&OAL_FUNC, (
; 30   :         L"+OALIoTranslateBusAddress(%d, %d, 0x%08x%08x, %d)\r\n",
; 31   :         ifcType, busNumber, (UINT32)(busAddress >> 32), (UINT32)busAddress, 
; 32   :         *pAddressSpace
; 33   :     ));

  00018	e59f31b8	 ldr         r3, [pc, #0x1B8]
  0001c	e5933440	 ldr         r3, [r3, #0x440]
  00020	e3130b01	 tst         r3, #1, 22
  00024	0a000010	 beq         |$LN10@OALIoTrans|
  00028	e59f31a8	 ldr         r3, [pc, #0x1A8]
  0002c	e5933440	 ldr         r3, [r3, #0x440]
  00030	e3130004	 tst         r3, #4
  00034	0a00000c	 beq         |$LN10@OALIoTrans|
  00038	e59d3050	 ldr         r3, [sp, #0x50]
  0003c	e5933000	 ldr         r3, [r3]
  00040	e58d3004	 str         r3, [sp, #4]
  00044	e59d3048	 ldr         r3, [sp, #0x48]
  00048	e58d3000	 str         r3, [sp]
  0004c	e59d304c	 ldr         r3, [sp, #0x4C]
  00050	e59d2044	 ldr         r2, [sp, #0x44]
  00054	e59d1040	 ldr         r1, [sp, #0x40]
  00058	e59f017c	 ldr         r0, [pc, #0x17C]
  0005c	eb000000	 bl          NKDbgPrintfW
  00060	e3a03001	 mov         r3, #1
  00064	e58d3024	 str         r3, [sp, #0x24]
  00068	ea000001	 b           |$LN11@OALIoTrans|
  0006c		 |$LN10@OALIoTrans|
  0006c	e3a03000	 mov         r3, #0
  00070	e58d3024	 str         r3, [sp, #0x24]
  00074		 |$LN11@OALIoTrans|

; 34   : 
; 35   :     if (pAddressSpace == NULL || pSystemAddress == NULL) goto cleanUp;

  00074	e59d3050	 ldr         r3, [sp, #0x50]
  00078	e3530000	 cmp         r3, #0
  0007c	0a000002	 beq         |$LN6@OALIoTrans|
  00080	e59d3054	 ldr         r3, [sp, #0x54]
  00084	e3530000	 cmp         r3, #0
  00088	1a000000	 bne         |$LN7@OALIoTrans|
  0008c		 |$LN6@OALIoTrans|
  0008c	ea000033	 b           |$cleanUp$43004|
  00090		 |$LN7@OALIoTrans|

; 36   :     
; 37   :     switch (ifcType) {

  00090	e59d3040	 ldr         r3, [sp, #0x40]
  00094	e58d3028	 str         r3, [sp, #0x28]
  00098	e59d3028	 ldr         r3, [sp, #0x28]
  0009c	e3530008	 cmp         r3, #8
  000a0	8a00002e	 bhi         |$LN4@OALIoTrans|
  000a4	e59d2028	 ldr         r2, [sp, #0x28]
  000a8	e1a03102	 mov         r3, r2, lsl #2
  000ac	e083300f	 add         r3, r3, pc
  000b0	e5933004	 ldr         r3, [r3, #4]
  000b4	e08ff003	 add         pc, pc, r3
  000b8		 |$LN15@OALIoTrans|
  000b8		 |$LN14@OALIoTrans|
  000b8		 |$LN16@OALIoTrans|
  000b8	00000020	 DCD         0x20
  000bc		 |$LN17@OALIoTrans|
  000bc	00000050	 DCD         0x50
  000c0		 |$LN18@OALIoTrans|
  000c0	000000a4	 DCD         0xa4
  000c4		 |$LN19@OALIoTrans|
  000c4	000000a4	 DCD         0xa4
  000c8		 |$LN20@OALIoTrans|
  000c8	000000a4	 DCD         0xa4
  000cc		 |$LN21@OALIoTrans|
  000cc	00000050	 DCD         0x50
  000d0		 |$LN22@OALIoTrans|
  000d0	000000a4	 DCD         0xa4
  000d4		 |$LN23@OALIoTrans|
  000d4	000000a4	 DCD         0xa4
  000d8		 |$LN24@OALIoTrans|
  000d8	0000007c	 DCD         0x7c
  000dc		 |$LN3@OALIoTrans|

; 38   :     case Internal:
; 39   :         *pSystemAddress = busAddress;

  000dc	e59d2048	 ldr         r2, [sp, #0x48]
  000e0	e59d3054	 ldr         r3, [sp, #0x54]
  000e4	e5832000	 str         r2, [r3]
  000e8	e59d204c	 ldr         r2, [sp, #0x4C]
  000ec	e59d3054	 ldr         r3, [sp, #0x54]
  000f0	e5832004	 str         r2, [r3, #4]

; 40   :         *pAddressSpace = 0;

  000f4	e59d2050	 ldr         r2, [sp, #0x50]
  000f8	e3a03000	 mov         r3, #0
  000fc	e5823000	 str         r3, [r2]

; 41   :         rc = TRUE;

  00100	e3a03001	 mov         r3, #1
  00104	e58d3008	 str         r3, [sp, #8]

; 42   :         break;

  00108	ea000014	 b           |$LN4@OALIoTrans|
  0010c		 |$LN2@OALIoTrans|

; 43   : #ifdef OAL_IO_PCI
; 44   :     case Isa:
; 45   :     case PCIBus:
; 46   :         rc = OALPCITransBusAddress(
; 47   :             busNumber, busAddress, pAddressSpace, pSystemAddress
; 48   :         );

  0010c	e59d3054	 ldr         r3, [sp, #0x54]
  00110	e58d3000	 str         r3, [sp]
  00114	e59d3050	 ldr         r3, [sp, #0x50]
  00118	e59d1048	 ldr         r1, [sp, #0x48]
  0011c	e59d204c	 ldr         r2, [sp, #0x4C]
  00120	e59d0044	 ldr         r0, [sp, #0x44]
  00124	eb000000	 bl          OALPCITransBusAddress
  00128	e58d002c	 str         r0, [sp, #0x2C]
  0012c	e59d302c	 ldr         r3, [sp, #0x2C]
  00130	e58d3008	 str         r3, [sp, #8]

; 49   :         break;

  00134	ea000009	 b           |$LN4@OALIoTrans|
  00138		 |$LN1@OALIoTrans|

; 50   : #endif
; 51   : #ifdef OAL_IO_PCMCIA
; 52   :     case PCMCIABus: 
; 53   :         rc = OALPCMCIATransBusAddress(
; 54   :             busNumber, busAddress, pAddressSpace, pSystemAddress
; 55   :         );

  00138	e59d3054	 ldr         r3, [sp, #0x54]
  0013c	e58d3000	 str         r3, [sp]
  00140	e59d3050	 ldr         r3, [sp, #0x50]
  00144	e59d1048	 ldr         r1, [sp, #0x48]
  00148	e59d204c	 ldr         r2, [sp, #0x4C]
  0014c	e59d0044	 ldr         r0, [sp, #0x44]
  00150	eb000000	 bl          OALPCMCIATransBusAddress
  00154	e58d0030	 str         r0, [sp, #0x30]
  00158	e59d3030	 ldr         r3, [sp, #0x30]
  0015c	e58d3008	 str         r3, [sp, #8]
  00160		 |$LN4@OALIoTrans|
  00160		 |$cleanUp$43004|

; 56   :         break;
; 57   : #endif            
; 58   :     }
; 59   : 
; 60   : cleanUp:
; 61   :     OALMSG(OAL_IO&&OAL_FUNC, (
; 62   :         L"-OALTranslateBusAddress(addressSpace = %d, "
; 63   :         L"systemAddress = 0x%08x%08x, rc = %d)\r\n", *pAddressSpace, 
; 64   :         (UINT32)(*pSystemAddress >> 32), (UINT32)*pSystemAddress, rc
; 65   :     ));      

  00160	e59f3070	 ldr         r3, [pc, #0x70]
  00164	e5933440	 ldr         r3, [r3, #0x440]
  00168	e3130b01	 tst         r3, #1, 22
  0016c	0a000010	 beq         |$LN12@OALIoTrans|
  00170	e59f3060	 ldr         r3, [pc, #0x60]
  00174	e5933440	 ldr         r3, [r3, #0x440]
  00178	e3130004	 tst         r3, #4
  0017c	0a00000c	 beq         |$LN12@OALIoTrans|
  00180	e59d3008	 ldr         r3, [sp, #8]
  00184	e58d3000	 str         r3, [sp]
  00188	e59d3054	 ldr         r3, [sp, #0x54]
  0018c	e5933000	 ldr         r3, [r3]
  00190	e59d2054	 ldr         r2, [sp, #0x54]
  00194	e5922004	 ldr         r2, [r2, #4]
  00198	e59d1050	 ldr         r1, [sp, #0x50]
  0019c	e5911000	 ldr         r1, [r1]
  001a0	e59f002c	 ldr         r0, [pc, #0x2C]
  001a4	eb000000	 bl          NKDbgPrintfW
  001a8	e3a03001	 mov         r3, #1
  001ac	e58d3034	 str         r3, [sp, #0x34]
  001b0	ea000001	 b           |$LN13@OALIoTrans|
  001b4		 |$LN12@OALIoTrans|
  001b4	e3a03000	 mov         r3, #0
  001b8	e58d3034	 str         r3, [sp, #0x34]
  001bc		 |$LN13@OALIoTrans|

; 66   :     return rc;    

  001bc	e59d3008	 ldr         r3, [sp, #8]
  001c0	e58d3020	 str         r3, [sp, #0x20]

; 67   : }

  001c4	e59d0020	 ldr         r0, [sp, #0x20]
  001c8	e28dd038	 add         sp, sp, #0x38
  001cc	e89d6000	 ldmia       sp, {sp, lr}
  001d0	e12fff1e	 bx          lr
  001d4		 |$LN28@OALIoTrans|
  001d4		 |$LN29@OALIoTrans|
  001d4	00000000	 DCD         |??_C@_1KE@FCFGNLKM@?$AA?9?$AAO?$AAA?$AAL?$AAT?$AAr?$AAa?$AAn?$AAs?$AAl?$AAa?$AAt?$AAe?$AAB?$AAu?$AAs?$AAA?$AAd?$AAd?$AAr?$AAe?$AAs?$AAs?$AA?$CI?$AAa?$AAd?$AAd?$AAr?$AAe?$AAs?$AAs?$AAS@|
  001d8		 |$LN30@OALIoTrans|
  001d8	00000000	 DCD         |dpCurSettings|
  001dc		 |$LN31@OALIoTrans|
  001dc	00000000	 DCD         |??_C@_1GI@BPOGFGAB@?$AA?$CL?$AAO?$AAA?$AAL?$AAI?$AAo?$AAT?$AAr?$AAa?$AAn?$AAs?$AAl?$AAa?$AAt?$AAe?$AAB?$AAu?$AAs?$AAA?$AAd?$AAd?$AAr?$AAe?$AAs?$AAs?$AA?$CI?$AA?$CF?$AAd?$AA?0?$AA?5?$AA?$CF?$AAd@|
  001e0		 |$M43070|

			 ENDP  ; |OALIoTransBusAddress|

	EXPORT	|??_C@_1HM@IKCJOCJL@?$AA?9?$AAO?$AAA?$AAL?$AAT?$AAr?$AAa?$AAn?$AAs?$AAl?$AAa?$AAt?$AAe?$AAS?$AAy?$AAs?$AAt?$AAe?$AAm?$AAA?$AAd?$AAd?$AAr?$AAe?$AAs?$AAs?$AA?$CI?$AAb?$AAu?$AAs?$AAA?$AAd@| [ DATA ] ; `string'
	EXPORT	|??_C@_1GC@GKDDBMML@?$AA?$CL?$AAO?$AAA?$AAL?$AAT?$AAr?$AAa?$AAn?$AAs?$AAl?$AAa?$AAt?$AAe?$AAS?$AAy?$AAs?$AAt?$AAe?$AAm?$AAA?$AAd?$AAd?$AAr?$AAe?$AAs?$AAs?$AA?$CI?$AA?$CF?$AAd?$AA?0?$AA?5?$AA?$CF@| [ DATA ] ; `string'
	EXPORT	|OALIoTransSystemAddress|

  00008			 AREA	 |.pdata|, PDATA
|$T43087| DCD	|$LN10@OALIoTrans@2|
	DCD	0x40004004

  00000			 AREA	 |.rdata|, DATA, READONLY
|??_C@_1HM@IKCJOCJL@?$AA?9?$AAO?$AAA?$AAL?$AAT?$AAr?$AAa?$AAn?$AAs?$AAl?$AAa?$AAt?$AAe?$AAS?$AAy?$AAs?$AAt?$AAe?$AAm?$AAA?$AAd?$AAd?$AAr?$AAe?$AAs?$AAs?$AA?$CI?$AAb?$AAu?$AAs?$AAA?$AAd@| DCB "-"
	DCB	0x0, "O", 0x0, "A", 0x0, "L", 0x0, "T", 0x0, "r", 0x0, "a"
	DCB	0x0, "n", 0x0, "s", 0x0, "l", 0x0, "a", 0x0, "t", 0x0, "e"
	DCB	0x0, "S", 0x0, "y", 0x0, "s", 0x0, "t", 0x0, "e", 0x0, "m"
	DCB	0x0, "A", 0x0, "d", 0x0, "d", 0x0, "r", 0x0, "e", 0x0, "s"
	DCB	0x0, "s", 0x0, "(", 0x0, "b", 0x0, "u", 0x0, "s", 0x0, "A"
	DCB	0x0, "d", 0x0, "d", 0x0, "r", 0x0, "e", 0x0, "s", 0x0, "s"
	DCB	0x0, " ", 0x0, "=", 0x0, " ", 0x0, "0", 0x0, "x", 0x0, "%"
	DCB	0x0, "0", 0x0, "8", 0x0, "x", 0x0, "%", 0x0, "0", 0x0, "8"
	DCB	0x0, "x", 0x0, ",", 0x0, " ", 0x0, "r", 0x0, "c", 0x0, " "
	DCB	0x0, "=", 0x0, " ", 0x0, "1", 0x0, ")", 0x0, 0xd, 0x0, 0xa
	DCB	0x0, 0x0, 0x0				; `string'

  00000			 AREA	 |.rdata|, DATA, READONLY
|??_C@_1GC@GKDDBMML@?$AA?$CL?$AAO?$AAA?$AAL?$AAT?$AAr?$AAa?$AAn?$AAs?$AAl?$AAa?$AAt?$AAe?$AAS?$AAy?$AAs?$AAt?$AAe?$AAm?$AAA?$AAd?$AAd?$AAr?$AAe?$AAs?$AAs?$AA?$CI?$AA?$CF?$AAd?$AA?0?$AA?5?$AA?$CF@| DCB "+"
	DCB	0x0, "O", 0x0, "A", 0x0, "L", 0x0, "T", 0x0, "r", 0x0, "a"
	DCB	0x0, "n", 0x0, "s", 0x0, "l", 0x0, "a", 0x0, "t", 0x0, "e"
	DCB	0x0, "S", 0x0, "y", 0x0, "s", 0x0, "t", 0x0, "e", 0x0, "m"
	DCB	0x0, "A", 0x0, "d", 0x0, "d", 0x0, "r", 0x0, "e", 0x0, "s"
	DCB	0x0, "s", 0x0, "(", 0x0, "%", 0x0, "d", 0x0, ",", 0x0, " "
	DCB	0x0, "%", 0x0, "d", 0x0, ",", 0x0, " ", 0x0, "0", 0x0, "x"
	DCB	0x0, "%", 0x0, "0", 0x0, "8", 0x0, "x", 0x0, "%", 0x0, "0"
	DCB	0x0, "8", 0x0, "x", 0x0, ")", 0x0, 0xd, 0x0, 0xa, 0x0, 0x0
	DCB	0x0					; `string'
; Function compile flags: /Odtp

  001e0			 AREA	 |.text|, CODE, ARM

  001e0		 |OALIoTransSystemAddress| PROC

; 77   : ) {

  001e0		 |$LN10@OALIoTrans@2|
  001e0	e1a0c00d	 mov         r12, sp
  001e4	e92d000f	 stmdb       sp!, {r0 - r3}
  001e8	e92d5000	 stmdb       sp!, {r12, lr}
  001ec	e24dd014	 sub         sp, sp, #0x14
  001f0		 |$M43084|

; 78   :     OALMSG(OAL_IO&&OAL_FUNC, (
; 79   :         L"+OALTranslateSystemAddress(%d, %d, 0x%08x%08x)\r\n", 
; 80   :         ifcType, busNumber, (UINT32)(systemAddress >> 32), (UINT32)systemAddress
; 81   :     ));

  001f0	e59f30e0	 ldr         r3, [pc, #0xE0]
  001f4	e5933440	 ldr         r3, [r3, #0x440]
  001f8	e3130b01	 tst         r3, #1, 22
  001fc	0a00000d	 beq         |$LN4@OALIoTrans@2|
  00200	e59f30d0	 ldr         r3, [pc, #0xD0]
  00204	e5933440	 ldr         r3, [r3, #0x440]
  00208	e3130004	 tst         r3, #4
  0020c	0a000009	 beq         |$LN4@OALIoTrans@2|
  00210	e59d3024	 ldr         r3, [sp, #0x24]
  00214	e58d3000	 str         r3, [sp]
  00218	e59d3028	 ldr         r3, [sp, #0x28]
  0021c	e59d2020	 ldr         r2, [sp, #0x20]
  00220	e59d101c	 ldr         r1, [sp, #0x1C]
  00224	e59f00b0	 ldr         r0, [pc, #0xB0]
  00228	eb000000	 bl          NKDbgPrintfW
  0022c	e3a03001	 mov         r3, #1
  00230	e58d300c	 str         r3, [sp, #0xC]
  00234	ea000001	 b           |$LN5@OALIoTrans@2|
  00238		 |$LN4@OALIoTrans@2|
  00238	e3a03000	 mov         r3, #0
  0023c	e58d300c	 str         r3, [sp, #0xC]
  00240		 |$LN5@OALIoTrans@2|

; 82   : 
; 83   :     // Check parameters
; 84   :     if (pBusAddress == NULL) return FALSE;

  00240	e59d302c	 ldr         r3, [sp, #0x2C]
  00244	e3530000	 cmp         r3, #0
  00248	1a000002	 bne         |$LN1@OALIoTrans@2|
  0024c	e3a03000	 mov         r3, #0
  00250	e58d3008	 str         r3, [sp, #8]
  00254	ea00001a	 b           |$LN2@OALIoTrans@2|
  00258		 |$LN1@OALIoTrans@2|

; 85   : 
; 86   :     // All buses can access system memory without offset
; 87   :     *pBusAddress = systemAddress;

  00258	e59d2024	 ldr         r2, [sp, #0x24]
  0025c	e59d302c	 ldr         r3, [sp, #0x2C]
  00260	e5832000	 str         r2, [r3]
  00264	e59d2028	 ldr         r2, [sp, #0x28]
  00268	e59d302c	 ldr         r3, [sp, #0x2C]
  0026c	e5832004	 str         r2, [r3, #4]

; 88   :     
; 89   :     OALMSG(OAL_IO&&OAL_FUNC, (
; 90   :         L"-OALTranslateSystemAddress(busAddress = 0x%08x%08x, rc = 1)\r\n",
; 91   :         (UINT32)(*pBusAddress >> 32), (UINT32)*pBusAddress
; 92   :     ));

  00270	e59f3060	 ldr         r3, [pc, #0x60]
  00274	e5933440	 ldr         r3, [r3, #0x440]
  00278	e3130b01	 tst         r3, #1, 22
  0027c	0a00000c	 beq         |$LN6@OALIoTrans@2|
  00280	e59f3050	 ldr         r3, [pc, #0x50]
  00284	e5933440	 ldr         r3, [r3, #0x440]
  00288	e3130004	 tst         r3, #4
  0028c	0a000008	 beq         |$LN6@OALIoTrans@2|
  00290	e59d302c	 ldr         r3, [sp, #0x2C]
  00294	e5932000	 ldr         r2, [r3]
  00298	e59d302c	 ldr         r3, [sp, #0x2C]
  0029c	e5931004	 ldr         r1, [r3, #4]
  002a0	e59f002c	 ldr         r0, [pc, #0x2C]
  002a4	eb000000	 bl          NKDbgPrintfW
  002a8	e3a03001	 mov         r3, #1
  002ac	e58d3010	 str         r3, [sp, #0x10]
  002b0	ea000001	 b           |$LN7@OALIoTrans@2|
  002b4		 |$LN6@OALIoTrans@2|
  002b4	e3a03000	 mov         r3, #0
  002b8	e58d3010	 str         r3, [sp, #0x10]
  002bc		 |$LN7@OALIoTrans@2|

; 93   :     return TRUE;

  002bc	e3a03001	 mov         r3, #1
  002c0	e58d3008	 str         r3, [sp, #8]
  002c4		 |$LN2@OALIoTrans@2|

; 94   : }

  002c4	e59d0008	 ldr         r0, [sp, #8]
  002c8	e28dd014	 add         sp, sp, #0x14
  002cc	e89d6000	 ldmia       sp, {sp, lr}
  002d0	e12fff1e	 bx          lr
  002d4		 |$LN11@OALIoTrans@2|
  002d4		 |$LN12@OALIoTrans@2|
  002d4	00000000	 DCD         |??_C@_1HM@IKCJOCJL@?$AA?9?$AAO?$AAA?$AAL?$AAT?$AAr?$AAa?$AAn?$AAs?$AAl?$AAa?$AAt?$AAe?$AAS?$AAy?$AAs?$AAt?$AAe?$AAm?$AAA?$AAd?$AAd?$AAr?$AAe?$AAs?$AAs?$AA?$CI?$AAb?$AAu?$AAs?$AAA?$AAd@|
  002d8		 |$LN13@OALIoTrans@2|
  002d8	00000000	 DCD         |dpCurSettings|
  002dc		 |$LN14@OALIoTrans@2|
  002dc	00000000	 DCD         |??_C@_1GC@GKDDBMML@?$AA?$CL?$AAO?$AAA?$AAL?$AAT?$AAr?$AAa?$AAn?$AAs?$AAl?$AAa?$AAt?$AAe?$AAS?$AAy?$AAs?$AAt?$AAe?$AAm?$AAA?$AAd?$AAd?$AAr?$AAe?$AAs?$AAs?$AA?$CI?$AA?$CF?$AAd?$AA?0?$AA?5?$AA?$CF@|
  002e0		 |$M43085|

			 ENDP  ; |OALIoTransSystemAddress|

	END
