; Listing generated by Microsoft (R) Optimizing Compiler Version 14.01.60511.01 

	TTL	C:\WINCE600\PLATFORM\COMMON\SRC\SOC\COMMON_TI_V1\TPS659XX\TLED\tled.cpp
	CODE32

  00000			 AREA	 |.drectve|, DRECTVE
	DCB	"-defaultlib:LIBCMT "
	DCB	"-defaultlib:OLDNAMES "

	EXPORT	|??_C@_1BC@KCONIAEJ@?$AAM?$AAa?$AAx?$AAV?$AAa?$AAl?$AAu?$AAe?$AA?$AA@| [ DATA ] ; `string'
	EXPORT	|??_C@_1BC@DJFAEHO@?$AAC?$AAh?$AAa?$AAn?$AAn?$AAe?$AAl?$AAs?$AA?$AA@| [ DATA ] ; `string'
	EXPORT	|DEVICE_IFC_TWL_GUID| [ DATA ]
	EXPORT	|DEVICE_IFC_TLED_GUID| [ DATA ]
	EXPORT	|dpCurSettings| [ DATA ]

  00000			 AREA	 |.rdata|, DATA, READONLY
|??_C@_1BC@KCONIAEJ@?$AAM?$AAa?$AAx?$AAV?$AAa?$AAl?$AAu?$AAe?$AA?$AA@| DCB "M"
	DCB	0x0, "a", 0x0, "x", 0x0, "V", 0x0, "a", 0x0, "l", 0x0, "u"
	DCB	0x0, "e", 0x0, 0x0, 0x0			; `string'

  00000			 AREA	 |.rdata|, DATA, READONLY
|??_C@_1BC@DJFAEHO@?$AAC?$AAh?$AAa?$AAn?$AAn?$AAe?$AAl?$AAs?$AA?$AA@| DCB "C"
	DCB	0x0, "h", 0x0, "a", 0x0, "n", 0x0, "n", 0x0, "e", 0x0, "l"
	DCB	0x0, "s", 0x0, 0x0, 0x0			; `string'

  00000			 AREA	 |.data|, DATA
|dpCurSettings| DCB "T", 0x0, "L", 0x0, "E", 0x0, "D", 0x0, 0x0, 0x0
	%	54
	DCB	"E", 0x0, "r", 0x0, "r", 0x0, "o", 0x0, "r", 0x0, "s", 0x0
	DCB	0x0, 0x0
	%	50
	DCB	"W", 0x0, "a", 0x0, "r", 0x0, "n", 0x0, "i", 0x0, "n", 0x0
	DCB	"g", 0x0, "s", 0x0, 0x0, 0x0
	%	46
	DCB	"F", 0x0, "u", 0x0, "n", 0x0, "c", 0x0, "t", 0x0, "i", 0x0
	DCB	"o", 0x0, "n", 0x0, 0x0, 0x0
	%	46
	DCB	"I", 0x0, "n", 0x0, "f", 0x0, "o", 0x0, 0x0, 0x0
	%	54
	DCB	"U", 0x0, "n", 0x0, "d", 0x0, "e", 0x0, "f", 0x0, "i", 0x0
	DCB	"n", 0x0, "e", 0x0, "d", 0x0, 0x0, 0x0
	%	44
	DCB	"U", 0x0, "n", 0x0, "d", 0x0, "e", 0x0, "f", 0x0, "i", 0x0
	DCB	"n", 0x0, "e", 0x0, "d", 0x0, 0x0, 0x0
	%	44
	DCB	"U", 0x0, "n", 0x0, "d", 0x0, "e", 0x0, "f", 0x0, "i", 0x0
	DCB	"n", 0x0, "e", 0x0, "d", 0x0, 0x0, 0x0
	%	44
	DCB	"U", 0x0, "n", 0x0, "d", 0x0, "e", 0x0, "f", 0x0, "i", 0x0
	DCB	"n", 0x0, "e", 0x0, "d", 0x0, 0x0, 0x0
	%	44
	DCB	"U", 0x0, "n", 0x0, "d", 0x0, "e", 0x0, "f", 0x0, "i", 0x0
	DCB	"n", 0x0, "e", 0x0, "d", 0x0, 0x0, 0x0
	%	44
	DCB	"U", 0x0, "n", 0x0, "d", 0x0, "e", 0x0, "f", 0x0, "i", 0x0
	DCB	"n", 0x0, "e", 0x0, "d", 0x0, 0x0, 0x0
	%	44
	DCB	"U", 0x0, "n", 0x0, "d", 0x0, "e", 0x0, "f", 0x0, "i", 0x0
	DCB	"n", 0x0, "e", 0x0, "d", 0x0, 0x0, 0x0
	%	44
	DCB	"U", 0x0, "n", 0x0, "d", 0x0, "e", 0x0, "f", 0x0, "i", 0x0
	DCB	"n", 0x0, "e", 0x0, "d", 0x0, 0x0, 0x0
	%	44
	DCB	"U", 0x0, "n", 0x0, "d", 0x0, "e", 0x0, "f", 0x0, "i", 0x0
	DCB	"n", 0x0, "e", 0x0, "d", 0x0, 0x0, 0x0
	%	44
	DCB	"U", 0x0, "n", 0x0, "d", 0x0, "e", 0x0, "f", 0x0, "i", 0x0
	DCB	"n", 0x0, "e", 0x0, "d", 0x0, 0x0, 0x0
	%	44
	DCB	"U", 0x0, "n", 0x0, "d", 0x0, "e", 0x0, "f", 0x0, "i", 0x0
	DCB	"n", 0x0, "e", 0x0, "d", 0x0, 0x0, 0x0
	%	44
	DCB	"U", 0x0, "n", 0x0, "d", 0x0, "e", 0x0, "f", 0x0, "i", 0x0
	DCB	"n", 0x0, "e", 0x0, "d", 0x0, 0x0, 0x0
	%	44
	DCD	0x3

  00000			 AREA	 |.rdata|, DATA, READONLY
|DEVICE_IFC_TWL_GUID| DCD 0xdef0a04b
	DCW	0xb967
	DCW	0x43db
	DCB	0x95
	DCB	0x9e
	DCB	0xd9
	DCB	0xfc
	DCB	0x62
	DCB	0x25
	DCB	0xcd
	DCB	0xeb
|DEVICE_IFC_TLED_GUID| DCD 0x2c8c352a
	DCW	0x2c98
	DCW	0x415e
	DCB	0x88
	DCB	0x39
	DCB	0x8f
	DCB	0x4e
	DCB	0x9a
	DCB	0x4a
	DCB	0x9f
	DCB	0x33
|s_deviceRegParams| DCD |??_C@_1BC@DJFAEHO@?$AAC?$AAh?$AAa?$AAn?$AAn?$AAe?$AAl?$AAs?$AA?$AA@|
	DCD	0x1
	DCD	0x0
	DCD	0x28
	DCD	0x4
	DCD	0x2
	DCD	|??_C@_1BC@KCONIAEJ@?$AAM?$AAa?$AAx?$AAV?$AAa?$AAl?$AAu?$AAe?$AA?$AA@|
	DCD	0x1
	DCD	0x0
	DCD	0x24
	DCD	0x4
	DCD	0x7f
	EXPORT	|GetCurrentProcessId|
	IMPORT	|__GetUserKData|
; File c:\wince600\public\common\sdk\inc\kfuncs.h

  00000			 AREA	 |.pdata|, PDATA
|$T36293| DCD	|$LN5@GetCurrent|
	DCD	0x40000501
; Function compile flags: /Ogspy

  00000			 AREA	 |.text|, CODE, ARM

  00000		 |GetCurrentProcessId| PROC

; 373  : _inline DWORD GetCurrentProcessId(void) {

  00000		 |$LN5@GetCurrent|
  00000	e52de004	 str         lr, [sp, #-4]!
  00004		 |$M36290|

; 374  :     return __GetUserKData (SYSHANDLE_OFFSET + (SH_CURPROC * sizeof(HANDLE)));

  00004	e3a0000c	 mov         r0, #0xC
  00008	eb000000	 bl          __GetUserKData

; 375  : }

  0000c	e49de004	 ldr         lr, [sp], #4
  00010	e12fff1e	 bx          lr
  00014		 |$M36291|

			 ENDP  ; |GetCurrentProcessId|

	EXPORT	|IsEqualGUID|
	IMPORT	|memcmp|
; File c:\wince600\public\common\sdk\inc\objbase.h

  00000			 AREA	 |.pdata|, PDATA
|$T36307| DCD	|$LN7@IsEqualGUI|
	DCD	0x40000901
; Function compile flags: /Ogspy

  00000			 AREA	 |.text|, CODE, ARM

  00000		 |IsEqualGUID| PROC

; 493  : {

  00000		 |$LN7@IsEqualGUI|
  00000	e52de004	 str         lr, [sp, #-4]!
  00004		 |$M36304|

; 494  :     return !memcmp(&rguid1, &rguid2, sizeof(GUID));

  00004	e3a02010	 mov         r2, #0x10
  00008	eb000000	 bl          memcmp
  0000c	e3500000	 cmp         r0, #0
  00010	03a00001	 moveq       r0, #1

; 495  : }

  00014	049de004	 ldreq       lr, [sp], #4

; 494  :     return !memcmp(&rguid1, &rguid2, sizeof(GUID));

  00018	13a00000	 movne       r0, #0

; 495  : }

  0001c	149de004	 ldrne       lr, [sp], #4
  00020	e12fff1e	 bx          lr
  00024		 |$M36305|

			 ENDP  ; |IsEqualGUID|

	IMPORT	|TWLWriteRegs|
; File c:\wince600\platform\common\src\soc\common_ti_v1\triton\inc\twl.h

  00000			 AREA	 |.pdata|, PDATA
|$T36318| DCD	|$LN5@TWLWriteBy|
	DCD	0x40000803
; Function compile flags: /Ogspy

  00000			 AREA	 |.text|, CODE, ARM

  00000		 |TWLWriteByteReg| PROC

; 57   : {

  00000		 |$LN5@TWLWriteBy|
  00000	e1a0c00d	 mov         r12, sp
  00004	e92d000f	 stmdb       sp!, {r0 - r3}
  00008	e92d5000	 stmdb       sp!, {r12, lr}
  0000c		 |$M36315|

; 58   :     return TWLWriteRegs(hTWL,address,&data,sizeof(data));

  0000c	e3a03001	 mov         r3, #1
  00010	e28d2010	 add         r2, sp, #0x10
  00014	eb000000	 bl          TWLWriteRegs

; 59   : }

  00018	e89d6000	 ldmia       sp, {sp, lr}
  0001c	e12fff1e	 bx          lr
  00020		 |$M36316|

			 ENDP  ; |TWLWriteByteReg|

	EXPORT	|?DisableLed@@YAHPAUDevice_t@@K@Z|	; DisableLed
	EXPORT	|??_C@_1FC@KIBBCEMF@?$AAT?$AAL?$AAD?$AA?3?$AA?5?$AA?9?$AAD?$AAi?$AAs?$AAa?$AAb?$AAl?$AAe?$AAL?$AAe?$AAd?$AA?$CI?$AA0?$AAx?$AA?$CF?$AA0?$AA8?$AAx?$AA?0?$AA?5?$AA0?$AAx?$AA?$CF?$AA0?$AA8?$AAx?$AA?$CJ@| [ DATA ] ; `string'
	EXPORT	|??_C@_1IG@HIEGLENJ@?$AAT?$AAL?$AAD?$AA?3?$AA?5?$AA?$CB?$AAE?$AAR?$AAR?$AAO?$AAR?$AA?$CI?$AAD?$AAi?$AAs?$AAa?$AAb?$AAl?$AAe?$AAL?$AAe?$AAd?$AA?$CJ?$AA?5?$AA?9?$AA?5?$AAf?$AAa?$AAi?$AAl?$AAe?$AAd@| [ DATA ] ; `string'
	EXPORT	|??_C@_1EG@IEICPNAO@?$AAT?$AAL?$AAD?$AA?3?$AA?5?$AA?$CL?$AAD?$AAi?$AAs?$AAa?$AAb?$AAl?$AAe?$AAL?$AAe?$AAd?$AA?$CI?$AA0?$AAx?$AA?$CF?$AA0?$AA8?$AAx?$AA?0?$AA?5?$AA0?$AAx?$AA?$CF?$AA0?$AA8?$AAx?$AA?$CJ@| [ DATA ] ; `string'
	IMPORT	|NKDbgPrintfW|
; File c:\wince600\platform\common\src\soc\common_ti_v1\tps659xx\tled\tled.cpp

  00000			 AREA	 |.pdata|, PDATA
|$T36336| DCD	|$LN13@DisableLed|
	DCD	0x40002902

  00000			 AREA	 |.rdata|, DATA, READONLY
|??_C@_1FC@KIBBCEMF@?$AAT?$AAL?$AAD?$AA?3?$AA?5?$AA?9?$AAD?$AAi?$AAs?$AAa?$AAb?$AAl?$AAe?$AAL?$AAe?$AAd?$AA?$CI?$AA0?$AAx?$AA?$CF?$AA0?$AA8?$AAx?$AA?0?$AA?5?$AA0?$AAx?$AA?$CF?$AA0?$AA8?$AAx?$AA?$CJ@| DCB "T"
	DCB	0x0, "L", 0x0, "D", 0x0, ":", 0x0, " ", 0x0, "-", 0x0, "D"
	DCB	0x0, "i", 0x0, "s", 0x0, "a", 0x0, "b", 0x0, "l", 0x0, "e"
	DCB	0x0, "L", 0x0, "e", 0x0, "d", 0x0, "(", 0x0, "0", 0x0, "x"
	DCB	0x0, "%", 0x0, "0", 0x0, "8", 0x0, "x", 0x0, ",", 0x0, " "
	DCB	0x0, "0", 0x0, "x", 0x0, "%", 0x0, "0", 0x0, "8", 0x0, "x"
	DCB	0x0, ")", 0x0, " ", 0x0, "=", 0x0, "=", 0x0, " ", 0x0, "%"
	DCB	0x0, "d", 0x0, 0xd, 0x0, 0xa, 0x0, 0x0, 0x0 ; `string'

  00000			 AREA	 |.rdata|, DATA, READONLY
|??_C@_1IG@HIEGLENJ@?$AAT?$AAL?$AAD?$AA?3?$AA?5?$AA?$CB?$AAE?$AAR?$AAR?$AAO?$AAR?$AA?$CI?$AAD?$AAi?$AAs?$AAa?$AAb?$AAl?$AAe?$AAL?$AAe?$AAd?$AA?$CJ?$AA?5?$AA?9?$AA?5?$AAf?$AAa?$AAi?$AAl?$AAe?$AAd@| DCB "T"
	DCB	0x0, "L", 0x0, "D", 0x0, ":", 0x0, " ", 0x0, "!", 0x0, "E"
	DCB	0x0, "R", 0x0, "R", 0x0, "O", 0x0, "R", 0x0, "(", 0x0, "D"
	DCB	0x0, "i", 0x0, "s", 0x0, "a", 0x0, "b", 0x0, "l", 0x0, "e"
	DCB	0x0, "L", 0x0, "e", 0x0, "d", 0x0, ")", 0x0, " ", 0x0, "-"
	DCB	0x0, " ", 0x0, "f", 0x0, "a", 0x0, "i", 0x0, "l", 0x0, "e"
	DCB	0x0, "d", 0x0, " ", 0x0, "t", 0x0, "o", 0x0, " ", 0x0, "w"
	DCB	0x0, "r", 0x0, "i", 0x0, "t", 0x0, "e", 0x0, " ", 0x0, "t"
	DCB	0x0, "r", 0x0, "i", 0x0, "t", 0x0, "o", 0x0, "n", 0x0, " "
	DCB	0x0, "r", 0x0, "e", 0x0, "g", 0x0, "i", 0x0, "s", 0x0, "t"
	DCB	0x0, "e", 0x0, "r", 0x0, " ", 0x0, "0", 0x0, "x", 0x0, "%"
	DCB	0x0, "0", 0x0, "8", 0x0, "X", 0x0, 0xd, 0x0, 0xa, 0x0, 0x0
	DCB	0x0					; `string'

  00000			 AREA	 |.rdata|, DATA, READONLY
|??_C@_1EG@IEICPNAO@?$AAT?$AAL?$AAD?$AA?3?$AA?5?$AA?$CL?$AAD?$AAi?$AAs?$AAa?$AAb?$AAl?$AAe?$AAL?$AAe?$AAd?$AA?$CI?$AA0?$AAx?$AA?$CF?$AA0?$AA8?$AAx?$AA?0?$AA?5?$AA0?$AAx?$AA?$CF?$AA0?$AA8?$AAx?$AA?$CJ@| DCB "T"
	DCB	0x0, "L", 0x0, "D", 0x0, ":", 0x0, " ", 0x0, "+", 0x0, "D"
	DCB	0x0, "i", 0x0, "s", 0x0, "a", 0x0, "b", 0x0, "l", 0x0, "e"
	DCB	0x0, "L", 0x0, "e", 0x0, "d", 0x0, "(", 0x0, "0", 0x0, "x"
	DCB	0x0, "%", 0x0, "0", 0x0, "8", 0x0, "x", 0x0, ",", 0x0, " "
	DCB	0x0, "0", 0x0, "x", 0x0, "%", 0x0, "0", 0x0, "8", 0x0, "x"
	DCB	0x0, ")", 0x0, 0xd, 0x0, 0xa, 0x0, 0x0, 0x0 ; `string'
; Function compile flags: /Ogspy

  00000			 AREA	 |.text|, CODE, ARM

  00000		 |?DisableLed@@YAHPAUDevice_t@@K@Z| PROC ; DisableLed

; 136  : {

  00000		 |$LN13@DisableLed|
  00000	e92d4030	 stmdb       sp!, {r4, r5, lr}
  00004	e24dd004	 sub         sp, sp, #4
  00008		 |$M36333|
  00008	e1a02001	 mov         r2, r1
  0000c	e1a05000	 mov         r5, r0

; 137  : 	UNREFERENCED_PARAMETER(channel);
; 138  :     
; 139  :     // the channel should be always less than the channelCount
; 140  :     ASSERT(channel < pDevice->channelCount);
; 141  :         
; 142  :     UINT8 val;
; 143  :     BOOL rc = FALSE;
; 144  : 
; 145  : 	RETAILMSG(1, (L"TLD: +DisableLed(0x%08x, 0x%08x)\r\n", pDevice, channel));

  00010	e59f0088	 ldr         r0, [pc, #0x88]
  00014	e1a01005	 mov         r1, r5
  00018	e3a04000	 mov         r4, #0
  0001c	eb000000	 bl          NKDbgPrintfW

; 146  :     val = 0x00;
; 147  :     if (TWLWriteRegs(pDevice->hTWL, TWL_GPBR1, &val, sizeof(val)) == FALSE)

  00020	e5950018	 ldr         r0, [r5, #0x18]
  00024	e3a03801	 mov         r3, #1, 16
  00028	e3831091	 orr         r1, r3, #0x91
  0002c	e3a0e000	 mov         lr, #0
  00030	e3a03001	 mov         r3, #1
  00034	e28d2000	 add         r2, sp, #0
  00038	e5cde000	 strb        lr, [sp]
  0003c	eb000000	 bl          TWLWriteRegs
  00040	e3500000	 cmp         r0, #0
  00044	1a000008	 bne         |$LN2@DisableLed|

; 148  : 	{
; 149  :         RETAILMSG(ZONE_ERROR, (L"TLD: !ERROR(DisableLed) - "
; 150  :             L"failed to write triton register 0x%08X\r\n", TWL_LEDEN));

  00048	e59f304c	 ldr         r3, [pc, #0x4C]
  0004c	e5933440	 ldr         r3, [r3, #0x440]
  00050	e3130001	 tst         r3, #1
  00054	0a000005	 beq         |$cleanUp$35990|
  00058	e59f0038	 ldr         r0, [pc, #0x38]
  0005c	e3a03802	 mov         r3, #2, 16
  00060	e38310ee	 orr         r1, r3, #0xEE
  00064	eb000000	 bl          NKDbgPrintfW

; 151  :         goto cleanUp;

  00068	ea000000	 b           |$cleanUp$35990|
  0006c		 |$LN2@DisableLed|

; 152  : 	}
; 153  : 
; 154  :     rc = TRUE;

  0006c	e3a04001	 mov         r4, #1
  00070		 |$cleanUp$35990|

; 155  :     
; 156  : cleanUp:
; 157  : 	
; 158  :     RETAILMSG(1, (L"TLD: -DisableLed(0x%08x, 0x%08x) == %d\r\n", pDevice, val, rc));

  00070	e5dd2000	 ldrb        r2, [sp]
  00074	e59f0018	 ldr         r0, [pc, #0x18]
  00078	e1a03004	 mov         r3, r4
  0007c	e1a01005	 mov         r1, r5
  00080	eb000000	 bl          NKDbgPrintfW

; 159  :     
; 160  :     return rc;
; 161  : }

  00084	e1a00004	 mov         r0, r4
  00088	e28dd004	 add         sp, sp, #4
  0008c	e8bd4030	 ldmia       sp!, {r4, r5, lr}
  00090	e12fff1e	 bx          lr
  00094		 |$LN14@DisableLed|
  00094		 |$LN15@DisableLed|
  00094	00000000	 DCD         |??_C@_1FC@KIBBCEMF@?$AAT?$AAL?$AAD?$AA?3?$AA?5?$AA?9?$AAD?$AAi?$AAs?$AAa?$AAb?$AAl?$AAe?$AAL?$AAe?$AAd?$AA?$CI?$AA0?$AAx?$AA?$CF?$AA0?$AA8?$AAx?$AA?0?$AA?5?$AA0?$AAx?$AA?$CF?$AA0?$AA8?$AAx?$AA?$CJ@|
  00098		 |$LN16@DisableLed|
  00098	00000000	 DCD         |??_C@_1IG@HIEGLENJ@?$AAT?$AAL?$AAD?$AA?3?$AA?5?$AA?$CB?$AAE?$AAR?$AAR?$AAO?$AAR?$AA?$CI?$AAD?$AAi?$AAs?$AAa?$AAb?$AAl?$AAe?$AAL?$AAe?$AAd?$AA?$CJ?$AA?5?$AA?9?$AA?5?$AAf?$AAa?$AAi?$AAl?$AAe?$AAd@|
  0009c		 |$LN17@DisableLed|
  0009c	00000000	 DCD         |dpCurSettings|
  000a0		 |$LN18@DisableLed|
  000a0	00000000	 DCD         |??_C@_1EG@IEICPNAO@?$AAT?$AAL?$AAD?$AA?3?$AA?5?$AA?$CL?$AAD?$AAi?$AAs?$AAa?$AAb?$AAl?$AAe?$AAL?$AAe?$AAd?$AA?$CI?$AA0?$AAx?$AA?$CF?$AA0?$AA8?$AAx?$AA?0?$AA?5?$AA0?$AAx?$AA?$CF?$AA0?$AA8?$AAx?$AA?$CJ@|
  000a4		 |$M36334|

			 ENDP  ; |?DisableLed@@YAHPAUDevice_t@@K@Z|, DisableLed

	EXPORT	|?EnableLed@@YAHPAUDevice_t@@K@Z|	; EnableLed
	EXPORT	|??_C@_1FC@INEJBAFK@?$AAT?$AAL?$AAD?$AA?3?$AA?5?$AA?5?$AA?9?$AAE?$AAn?$AAa?$AAb?$AAl?$AAe?$AAL?$AAe?$AAd?$AA?$CI?$AA0?$AAx?$AA?$CF?$AA0?$AA8?$AAx?$AA?0?$AA?5?$AA0?$AAx?$AA?$CF?$AA0?$AA8?$AAx?$AA?$CJ@| [ DATA ] ; `string'
	EXPORT	|??_C@_1IE@OKJIPLH@?$AAT?$AAL?$AAD?$AA?3?$AA?5?$AA?$CB?$AAE?$AAR?$AAR?$AAO?$AAR?$AA?$CI?$AAE?$AAn?$AAa?$AAb?$AAl?$AAe?$AAL?$AAe?$AAd?$AA?$CJ?$AA?5?$AA?9?$AA?5?$AAf?$AAa?$AAi?$AAl?$AAe?$AAd?$AA?5@| [ DATA ] ; `string'
	EXPORT	|??_C@_1EG@JCFOEOMN@?$AAT?$AAL?$AAD?$AA?3?$AA?5?$AA?5?$AA?$CL?$AAE?$AAn?$AAa?$AAb?$AAl?$AAe?$AAL?$AAe?$AAd?$AA?$CI?$AA0?$AAx?$AA?$CF?$AA0?$AA8?$AAx?$AA?0?$AA?5?$AA0?$AAx?$AA?$CF?$AA0?$AA8?$AAx?$AA?$CJ@| [ DATA ] ; `string'

  00000			 AREA	 |.pdata|, PDATA
|$T36359| DCD	|$LN13@EnableLed|
	DCD	0x40002902

  00000			 AREA	 |.rdata|, DATA, READONLY
|??_C@_1FC@INEJBAFK@?$AAT?$AAL?$AAD?$AA?3?$AA?5?$AA?5?$AA?9?$AAE?$AAn?$AAa?$AAb?$AAl?$AAe?$AAL?$AAe?$AAd?$AA?$CI?$AA0?$AAx?$AA?$CF?$AA0?$AA8?$AAx?$AA?0?$AA?5?$AA0?$AAx?$AA?$CF?$AA0?$AA8?$AAx?$AA?$CJ@| DCB "T"
	DCB	0x0, "L", 0x0, "D", 0x0, ":", 0x0, " ", 0x0, " ", 0x0, "-"
	DCB	0x0, "E", 0x0, "n", 0x0, "a", 0x0, "b", 0x0, "l", 0x0, "e"
	DCB	0x0, "L", 0x0, "e", 0x0, "d", 0x0, "(", 0x0, "0", 0x0, "x"
	DCB	0x0, "%", 0x0, "0", 0x0, "8", 0x0, "x", 0x0, ",", 0x0, " "
	DCB	0x0, "0", 0x0, "x", 0x0, "%", 0x0, "0", 0x0, "8", 0x0, "x"
	DCB	0x0, ")", 0x0, " ", 0x0, "=", 0x0, "=", 0x0, " ", 0x0, "%"
	DCB	0x0, "d", 0x0, 0xd, 0x0, 0xa, 0x0, 0x0, 0x0 ; `string'

  00000			 AREA	 |.rdata|, DATA, READONLY
|??_C@_1IE@OKJIPLH@?$AAT?$AAL?$AAD?$AA?3?$AA?5?$AA?$CB?$AAE?$AAR?$AAR?$AAO?$AAR?$AA?$CI?$AAE?$AAn?$AAa?$AAb?$AAl?$AAe?$AAL?$AAe?$AAd?$AA?$CJ?$AA?5?$AA?9?$AA?5?$AAf?$AAa?$AAi?$AAl?$AAe?$AAd?$AA?5@| DCB "T"
	DCB	0x0, "L", 0x0, "D", 0x0, ":", 0x0, " ", 0x0, "!", 0x0, "E"
	DCB	0x0, "R", 0x0, "R", 0x0, "O", 0x0, "R", 0x0, "(", 0x0, "E"
	DCB	0x0, "n", 0x0, "a", 0x0, "b", 0x0, "l", 0x0, "e", 0x0, "L"
	DCB	0x0, "e", 0x0, "d", 0x0, ")", 0x0, " ", 0x0, "-", 0x0, " "
	DCB	0x0, "f", 0x0, "a", 0x0, "i", 0x0, "l", 0x0, "e", 0x0, "d"
	DCB	0x0, " ", 0x0, "t", 0x0, "o", 0x0, " ", 0x0, "w", 0x0, "r"
	DCB	0x0, "i", 0x0, "t", 0x0, "e", 0x0, " ", 0x0, "t", 0x0, "r"
	DCB	0x0, "i", 0x0, "t", 0x0, "o", 0x0, "n", 0x0, " ", 0x0, "r"
	DCB	0x0, "e", 0x0, "g", 0x0, "i", 0x0, "s", 0x0, "t", 0x0, "e"
	DCB	0x0, "r", 0x0, " ", 0x0, "0", 0x0, "x", 0x0, "%", 0x0, "0"
	DCB	0x0, "8", 0x0, "X", 0x0, 0xd, 0x0, 0xa, 0x0, 0x0, 0x0 ; `string'

  00000			 AREA	 |.rdata|, DATA, READONLY
|??_C@_1EG@JCFOEOMN@?$AAT?$AAL?$AAD?$AA?3?$AA?5?$AA?5?$AA?$CL?$AAE?$AAn?$AAa?$AAb?$AAl?$AAe?$AAL?$AAe?$AAd?$AA?$CI?$AA0?$AAx?$AA?$CF?$AA0?$AA8?$AAx?$AA?0?$AA?5?$AA0?$AAx?$AA?$CF?$AA0?$AA8?$AAx?$AA?$CJ@| DCB "T"
	DCB	0x0, "L", 0x0, "D", 0x0, ":", 0x0, " ", 0x0, " ", 0x0, "+"
	DCB	0x0, "E", 0x0, "n", 0x0, "a", 0x0, "b", 0x0, "l", 0x0, "e"
	DCB	0x0, "L", 0x0, "e", 0x0, "d", 0x0, "(", 0x0, "0", 0x0, "x"
	DCB	0x0, "%", 0x0, "0", 0x0, "8", 0x0, "x", 0x0, ",", 0x0, " "
	DCB	0x0, "0", 0x0, "x", 0x0, "%", 0x0, "0", 0x0, "8", 0x0, "x"
	DCB	0x0, ")", 0x0, 0xd, 0x0, 0xa, 0x0, 0x0, 0x0 ; `string'
; Function compile flags: /Ogspy

  00000			 AREA	 |.text|, CODE, ARM

  00000		 |?EnableLed@@YAHPAUDevice_t@@K@Z| PROC	; EnableLed

; 169  : {

  00000		 |$LN13@EnableLed|
  00000	e92d4030	 stmdb       sp!, {r4, r5, lr}
  00004	e24dd004	 sub         sp, sp, #4
  00008		 |$M36356|
  00008	e1a02001	 mov         r2, r1
  0000c	e1a05000	 mov         r5, r0

; 170  :     // the channel should be always less than the channelCount
; 171  :     ASSERT(channel < pDevice->channelCount);
; 172  :         
; 173  :     UINT8 val;
; 174  :     BOOL rc = FALSE;
; 175  : 
; 176  : 	RETAILMSG(1, (L"TLD:  +EnableLed(0x%08x, 0x%08x)\r\n", pDevice, channel));

  00010	e59f0088	 ldr         r0, [pc, #0x88]
  00014	e1a01005	 mov         r1, r5
  00018	e3a04000	 mov         r4, #0
  0001c	eb000000	 bl          NKDbgPrintfW

; 177  : 	val = 0x05; // PWM0_ENABLE & PWM0_CLK_ENABLE
; 178  :     if (TWLWriteRegs(pDevice->hTWL, TWL_GPBR1, &val, sizeof(val)) == FALSE)

  00020	e5950018	 ldr         r0, [r5, #0x18]
  00024	e3a03801	 mov         r3, #1, 16
  00028	e3831091	 orr         r1, r3, #0x91
  0002c	e3a0e005	 mov         lr, #5
  00030	e3a03001	 mov         r3, #1
  00034	e28d2000	 add         r2, sp, #0
  00038	e5cde000	 strb        lr, [sp]
  0003c	eb000000	 bl          TWLWriteRegs
  00040	e3500000	 cmp         r0, #0
  00044	1a000008	 bne         |$LN2@EnableLed|

; 179  : 	{
; 180  :         RETAILMSG(ZONE_ERROR, (L"TLD: !ERROR(EnableLed) - "
; 181  :             L"failed to write triton register 0x%08X\r\n", TWL_LEDEN));

  00048	e59f304c	 ldr         r3, [pc, #0x4C]
  0004c	e5933440	 ldr         r3, [r3, #0x440]
  00050	e3130001	 tst         r3, #1
  00054	0a000005	 beq         |$cleanUp$36003|
  00058	e59f0038	 ldr         r0, [pc, #0x38]
  0005c	e3a03802	 mov         r3, #2, 16
  00060	e38310ee	 orr         r1, r3, #0xEE
  00064	eb000000	 bl          NKDbgPrintfW

; 182  :         goto cleanUp;

  00068	ea000000	 b           |$cleanUp$36003|
  0006c		 |$LN2@EnableLed|

; 183  : 	}
; 184  : 
; 185  :     rc = TRUE;

  0006c	e3a04001	 mov         r4, #1
  00070		 |$cleanUp$36003|

; 186  :     
; 187  : cleanUp:
; 188  : 	
; 189  :     RETAILMSG(1, (L"TLD:  -EnableLed(0x%08x, 0x%08x) == %d\r\n", pDevice, val, rc));

  00070	e5dd2000	 ldrb        r2, [sp]
  00074	e59f0018	 ldr         r0, [pc, #0x18]
  00078	e1a03004	 mov         r3, r4
  0007c	e1a01005	 mov         r1, r5
  00080	eb000000	 bl          NKDbgPrintfW

; 190  :     
; 191  :     return rc;
; 192  : }

  00084	e1a00004	 mov         r0, r4
  00088	e28dd004	 add         sp, sp, #4
  0008c	e8bd4030	 ldmia       sp!, {r4, r5, lr}
  00090	e12fff1e	 bx          lr
  00094		 |$LN14@EnableLed|
  00094		 |$LN15@EnableLed|
  00094	00000000	 DCD         |??_C@_1FC@INEJBAFK@?$AAT?$AAL?$AAD?$AA?3?$AA?5?$AA?5?$AA?9?$AAE?$AAn?$AAa?$AAb?$AAl?$AAe?$AAL?$AAe?$AAd?$AA?$CI?$AA0?$AAx?$AA?$CF?$AA0?$AA8?$AAx?$AA?0?$AA?5?$AA0?$AAx?$AA?$CF?$AA0?$AA8?$AAx?$AA?$CJ@|
  00098		 |$LN16@EnableLed|
  00098	00000000	 DCD         |??_C@_1IE@OKJIPLH@?$AAT?$AAL?$AAD?$AA?3?$AA?5?$AA?$CB?$AAE?$AAR?$AAR?$AAO?$AAR?$AA?$CI?$AAE?$AAn?$AAa?$AAb?$AAl?$AAe?$AAL?$AAe?$AAd?$AA?$CJ?$AA?5?$AA?9?$AA?5?$AAf?$AAa?$AAi?$AAl?$AAe?$AAd?$AA?5@|
  0009c		 |$LN17@EnableLed|
  0009c	00000000	 DCD         |dpCurSettings|
  000a0		 |$LN18@EnableLed|
  000a0	00000000	 DCD         |??_C@_1EG@JCFOEOMN@?$AAT?$AAL?$AAD?$AA?3?$AA?5?$AA?5?$AA?$CL?$AAE?$AAn?$AAa?$AAb?$AAl?$AAe?$AAL?$AAe?$AAd?$AA?$CI?$AA0?$AAx?$AA?$CF?$AA0?$AA8?$AAx?$AA?0?$AA?5?$AA0?$AAx?$AA?$CF?$AA0?$AA8?$AAx?$AA?$CJ@|
  000a4		 |$M36357|

			 ENDP  ; |?EnableLed@@YAHPAUDevice_t@@K@Z|, EnableLed

	EXPORT	|?SetChannel@@YAHKK@Z|			; SetChannel
	EXPORT	|??_C@_1FE@KPHHIKFB@?$AAT?$AAL?$AAD?$AA?3?$AA?5?$AA?5?$AA?9?$AAS?$AAe?$AAt?$AAC?$AAh?$AAa?$AAn?$AAn?$AAe?$AAl?$AA?$CI?$AA0?$AAx?$AA?$CF?$AA0?$AA8?$AAx?$AA?0?$AA?5?$AA0?$AAx?$AA?$CF?$AA0?$AA8?$AAx@| [ DATA ] ; `string'
	EXPORT	|??_C@_1HA@KJJINLKN@?$AAT?$AAL?$AAD?$AA?3?$AA?5?$AA?$CB?$AAE?$AAR?$AAR?$AAO?$AAR?$AA?$CI?$AAS?$AAe?$AAt?$AAC?$AAh?$AAa?$AAn?$AAn?$AAe?$AAl?$AA?$CJ?$AA?5?$AA?9?$AA?5?$AAI?$AAn?$AAc?$AAo?$AAr?$AAr@| [ DATA ] ; `string'
	EXPORT	|??_C@_1FI@OGEMEIDB@?$AAT?$AAL?$AAD?$AA?3?$AA?5?$AA?$CB?$AAE?$AAR?$AAR?$AAO?$AAR?$AA?$CI?$AAS?$AAe?$AAt?$AAC?$AAh?$AAa?$AAn?$AAn?$AAe?$AAl?$AA?$CJ?$AA?5?$AA?9?$AA?5?$AAI?$AAn?$AAv?$AAa?$AAl?$AAi@| [ DATA ] ; `string'
	EXPORT	|??_C@_1EI@FGMHDLBO@?$AAT?$AAL?$AAD?$AA?3?$AA?5?$AA?5?$AA?$CL?$AAS?$AAe?$AAt?$AAC?$AAh?$AAa?$AAn?$AAn?$AAe?$AAl?$AA?$CI?$AA0?$AAx?$AA?$CF?$AA0?$AA8?$AAx?$AA?0?$AA?5?$AA0?$AAx?$AA?$CF?$AA0?$AA8?$AAx@| [ DATA ] ; `string'

  00000			 AREA	 |.pdata|, PDATA
|$T36385| DCD	|$LN19@SetChannel|
	DCD	0x40002f01

  00000			 AREA	 |.rdata|, DATA, READONLY
|??_C@_1FE@KPHHIKFB@?$AAT?$AAL?$AAD?$AA?3?$AA?5?$AA?5?$AA?9?$AAS?$AAe?$AAt?$AAC?$AAh?$AAa?$AAn?$AAn?$AAe?$AAl?$AA?$CI?$AA0?$AAx?$AA?$CF?$AA0?$AA8?$AAx?$AA?0?$AA?5?$AA0?$AAx?$AA?$CF?$AA0?$AA8?$AAx@| DCB "T"
	DCB	0x0, "L", 0x0, "D", 0x0, ":", 0x0, " ", 0x0, " ", 0x0, "-"
	DCB	0x0, "S", 0x0, "e", 0x0, "t", 0x0, "C", 0x0, "h", 0x0, "a"
	DCB	0x0, "n", 0x0, "n", 0x0, "e", 0x0, "l", 0x0, "(", 0x0, "0"
	DCB	0x0, "x", 0x0, "%", 0x0, "0", 0x0, "8", 0x0, "x", 0x0, ","
	DCB	0x0, " ", 0x0, "0", 0x0, "x", 0x0, "%", 0x0, "0", 0x0, "8"
	DCB	0x0, "x", 0x0, ")", 0x0, " ", 0x0, "=", 0x0, "=", 0x0, " "
	DCB	0x0, "%", 0x0, "d", 0x0, 0xd, 0x0, 0xa, 0x0, 0x0, 0x0 ; `string'

  00000			 AREA	 |.rdata|, DATA, READONLY
|??_C@_1HA@KJJINLKN@?$AAT?$AAL?$AAD?$AA?3?$AA?5?$AA?$CB?$AAE?$AAR?$AAR?$AAO?$AAR?$AA?$CI?$AAS?$AAe?$AAt?$AAC?$AAh?$AAa?$AAn?$AAn?$AAe?$AAl?$AA?$CJ?$AA?5?$AA?9?$AA?5?$AAI?$AAn?$AAc?$AAo?$AAr?$AAr@| DCB "T"
	DCB	0x0, "L", 0x0, "D", 0x0, ":", 0x0, " ", 0x0, "!", 0x0, "E"
	DCB	0x0, "R", 0x0, "R", 0x0, "O", 0x0, "R", 0x0, "(", 0x0, "S"
	DCB	0x0, "e", 0x0, "t", 0x0, "C", 0x0, "h", 0x0, "a", 0x0, "n"
	DCB	0x0, "n", 0x0, "e", 0x0, "l", 0x0, ")", 0x0, " ", 0x0, "-"
	DCB	0x0, " ", 0x0, "I", 0x0, "n", 0x0, "c", 0x0, "o", 0x0, "r"
	DCB	0x0, "r", 0x0, "e", 0x0, "c", 0x0, "t", 0x0, " ", 0x0, "c"
	DCB	0x0, "o", 0x0, "n", 0x0, "t", 0x0, "e", 0x0, "x", 0x0, "t"
	DCB	0x0, " ", 0x0, "p", 0x0, "a", 0x0, "r", 0x0, "a", 0x0, "m"
	DCB	0x0, "e", 0x0, "t", 0x0, "e", 0x0, "r", 0x0, 0xd, 0x0, 0xa
	DCB	0x0, 0x0, 0x0				; `string'

  00000			 AREA	 |.rdata|, DATA, READONLY
|??_C@_1FI@OGEMEIDB@?$AAT?$AAL?$AAD?$AA?3?$AA?5?$AA?$CB?$AAE?$AAR?$AAR?$AAO?$AAR?$AA?$CI?$AAS?$AAe?$AAt?$AAC?$AAh?$AAa?$AAn?$AAn?$AAe?$AAl?$AA?$CJ?$AA?5?$AA?9?$AA?5?$AAI?$AAn?$AAv?$AAa?$AAl?$AAi@| DCB "T"
	DCB	0x0, "L", 0x0, "D", 0x0, ":", 0x0, " ", 0x0, "!", 0x0, "E"
	DCB	0x0, "R", 0x0, "R", 0x0, "O", 0x0, "R", 0x0, "(", 0x0, "S"
	DCB	0x0, "e", 0x0, "t", 0x0, "C", 0x0, "h", 0x0, "a", 0x0, "n"
	DCB	0x0, "n", 0x0, "e", 0x0, "l", 0x0, ")", 0x0, " ", 0x0, "-"
	DCB	0x0, " ", 0x0, "I", 0x0, "n", 0x0, "v", 0x0, "a", 0x0, "l"
	DCB	0x0, "i", 0x0, "d", 0x0, " ", 0x0, "c", 0x0, "h", 0x0, "a"
	DCB	0x0, "n", 0x0, "n", 0x0, "e", 0x0, "l", 0x0, 0xd, 0x0, 0xa
	DCB	0x0, 0x0, 0x0				; `string'

  00000			 AREA	 |.rdata|, DATA, READONLY
|??_C@_1EI@FGMHDLBO@?$AAT?$AAL?$AAD?$AA?3?$AA?5?$AA?5?$AA?$CL?$AAS?$AAe?$AAt?$AAC?$AAh?$AAa?$AAn?$AAn?$AAe?$AAl?$AA?$CI?$AA0?$AAx?$AA?$CF?$AA0?$AA8?$AAx?$AA?0?$AA?5?$AA0?$AAx?$AA?$CF?$AA0?$AA8?$AAx@| DCB "T"
	DCB	0x0, "L", 0x0, "D", 0x0, ":", 0x0, " ", 0x0, " ", 0x0, "+"
	DCB	0x0, "S", 0x0, "e", 0x0, "t", 0x0, "C", 0x0, "h", 0x0, "a"
	DCB	0x0, "n", 0x0, "n", 0x0, "e", 0x0, "l", 0x0, "(", 0x0, "0"
	DCB	0x0, "x", 0x0, "%", 0x0, "0", 0x0, "8", 0x0, "x", 0x0, ","
	DCB	0x0, " ", 0x0, "0", 0x0, "x", 0x0, "%", 0x0, "0", 0x0, "8"
	DCB	0x0, "x", 0x0, ")", 0x0, 0xd, 0x0, 0xa, 0x0, 0x0, 0x0 ; `string'
; Function compile flags: /Ogspy

  00000			 AREA	 |.text|, CODE, ARM

  00000		 |?SetChannel@@YAHKK@Z| PROC		; SetChannel

; 201  : {

  00000		 |$LN19@SetChannel|
  00000	e92d4070	 stmdb       sp!, {r4 - r6, lr}
  00004		 |$M36382|
  00004	e1a05001	 mov         r5, r1
  00008	e1a04000	 mov         r4, r0

; 202  :     RETAILMSG(1, (L"TLD:  +SetChannel(0x%08x, 0x%08x)\r\n", context, channel));

  0000c	e59f00a4	 ldr         r0, [pc, #0xA4]
  00010	e1a02005	 mov         r2, r5
  00014	e1a01004	 mov         r1, r4
  00018	eb000000	 bl          NKDbgPrintfW

; 203  :         
; 204  :     BOOL rc = FALSE;

  0001c	e3a06000	 mov         r6, #0

; 205  :     Instance_t *pInstance = (Instance_t*)context;
; 206  :     
; 207  :     // do some sanity checks
; 208  :     if ((pInstance == NULL) || (pInstance->cookie != TLED_INSTANCE_COOKIE))

  00020	e3540000	 cmp         r4, #0
  00024	0a000010	 beq         |$LN4@SetChannel|
  00028	e5942000	 ldr         r2, [r4]
  0002c	e59f3080	 ldr         r3, [pc, #0x80]
  00030	e1520003	 cmp         r2, r3
  00034	1a00000c	 bne         |$LN4@SetChannel|

; 212  :         goto cleanUp;
; 213  : 	}
; 214  : 
; 215  :     Device_t *pDevice = pInstance->pDevice;
; 216  :     if (channel >= pDevice->channelCount)

  00038	e5943004	 ldr         r3, [r4, #4]
  0003c	e5933028	 ldr         r3, [r3, #0x28]
  00040	e1550003	 cmp         r5, r3
  00044	3a000005	 bcc         |$LN2@SetChannel|

; 217  : 	{
; 218  :         RETAILMSG(ZONE_ERROR, (L"TLD: !ERROR(SetChannel) - "
; 219  :             L"Invalid channel\r\n"));

  00048	e59f305c	 ldr         r3, [pc, #0x5C]
  0004c	e5933440	 ldr         r3, [r3, #0x440]
  00050	e3130001	 tst         r3, #1
  00054	0a00000a	 beq         |$cleanUp$36017|
  00058	e59f0050	 ldr         r0, [pc, #0x50]

; 225  :     
; 226  : cleanUp:

  0005c	ea000007	 b           |$LN16@SetChannel|
  00060		 |$LN2@SetChannel|

; 220  :         goto cleanUp;
; 221  : 	}
; 222  : 
; 223  :     pInstance->channel = channel;

  00060	e5845008	 str         r5, [r4, #8]

; 224  :     rc = TRUE;

  00064	e3a06001	 mov         r6, #1
  00068	ea000005	 b           |$cleanUp$36017|
  0006c		 |$LN4@SetChannel|

; 209  : 	{
; 210  :         RETAILMSG(ZONE_ERROR, (L"TLD: !ERROR(SetChannel) - "
; 211  :             L"Incorrect context parameter\r\n"));

  0006c	e59f3038	 ldr         r3, [pc, #0x38]
  00070	e5933440	 ldr         r3, [r3, #0x440]
  00074	e3130001	 tst         r3, #1
  00078	0a000001	 beq         |$cleanUp$36017|
  0007c	e59f0024	 ldr         r0, [pc, #0x24]
  00080		 |$LN16@SetChannel|
  00080	eb000000	 bl          NKDbgPrintfW
  00084		 |$cleanUp$36017|

; 227  : 
; 228  :     RETAILMSG(1, (L"TLD:  -SetChannel(0x%08x, 0x%08x) == %d\r\n", context, channel, rc));

  00084	e59f0018	 ldr         r0, [pc, #0x18]
  00088	e1a03006	 mov         r3, r6
  0008c	e1a02005	 mov         r2, r5
  00090	e1a01004	 mov         r1, r4
  00094	eb000000	 bl          NKDbgPrintfW

; 229  :     return rc;
; 230  : }

  00098	e1a00006	 mov         r0, r6
  0009c	e8bd4070	 ldmia       sp!, {r4 - r6, lr}
  000a0	e12fff1e	 bx          lr
  000a4		 |$LN20@SetChannel|
  000a4		 |$LN21@SetChannel|
  000a4	00000000	 DCD         |??_C@_1FE@KPHHIKFB@?$AAT?$AAL?$AAD?$AA?3?$AA?5?$AA?5?$AA?9?$AAS?$AAe?$AAt?$AAC?$AAh?$AAa?$AAn?$AAn?$AAe?$AAl?$AA?$CI?$AA0?$AAx?$AA?$CF?$AA0?$AA8?$AAx?$AA?0?$AA?5?$AA0?$AAx?$AA?$CF?$AA0?$AA8?$AAx@|
  000a8		 |$LN22@SetChannel|
  000a8	00000000	 DCD         |??_C@_1HA@KJJINLKN@?$AAT?$AAL?$AAD?$AA?3?$AA?5?$AA?$CB?$AAE?$AAR?$AAR?$AAO?$AAR?$AA?$CI?$AAS?$AAe?$AAt?$AAC?$AAh?$AAa?$AAn?$AAn?$AAe?$AAl?$AA?$CJ?$AA?5?$AA?9?$AA?5?$AAI?$AAn?$AAc?$AAo?$AAr?$AAr@|
  000ac		 |$LN23@SetChannel|
  000ac	00000000	 DCD         |dpCurSettings|
  000b0		 |$LN24@SetChannel|
  000b0	00000000	 DCD         |??_C@_1FI@OGEMEIDB@?$AAT?$AAL?$AAD?$AA?3?$AA?5?$AA?$CB?$AAE?$AAR?$AAR?$AAO?$AAR?$AA?$CI?$AAS?$AAe?$AAt?$AAC?$AAh?$AAa?$AAn?$AAn?$AAe?$AAl?$AA?$CJ?$AA?5?$AA?9?$AA?5?$AAI?$AAn?$AAv?$AAa?$AAl?$AAi@|
  000b4		 |$LN25@SetChannel|
  000b4	746c6449	 DCD         0x746c6449
  000b8		 |$LN26@SetChannel|
  000b8	00000000	 DCD         |??_C@_1EI@FGMHDLBO@?$AAT?$AAL?$AAD?$AA?3?$AA?5?$AA?5?$AA?$CL?$AAS?$AAe?$AAt?$AAC?$AAh?$AAa?$AAn?$AAn?$AAe?$AAl?$AA?$CI?$AA0?$AAx?$AA?$CF?$AA0?$AA8?$AAx?$AA?0?$AA?5?$AA0?$AAx?$AA?$CF?$AA0?$AA8?$AAx@|
  000bc		 |$M36383|

			 ENDP  ; |?SetChannel@@YAHKK@Z|, SetChannel

	EXPORT	|?SetDutyCycle@@YAHKK@Z|		; SetDutyCycle
	EXPORT	|??_C@_1FG@EHNAOLKP@?$AAT?$AAL?$AAD?$AA?3?$AA?5?$AA?9?$AAS?$AAe?$AAt?$AAD?$AAu?$AAt?$AAy?$AAC?$AAy?$AAc?$AAl?$AAe?$AA?$CI?$AA0?$AAx?$AA?$CF?$AA0?$AA8?$AAx?$AA?0?$AA?5?$AA0?$AAx?$AA?$CF?$AA0?$AA8@| [ DATA ] ; `string'
	EXPORT	|??_C@_1HE@MFHCMAHK@?$AAT?$AAL?$AAD?$AA?3?$AA?5?$AA?$CB?$AAE?$AAR?$AAR?$AAO?$AAR?$AA?$CI?$AAS?$AAe?$AAt?$AAD?$AAu?$AAt?$AAy?$AAC?$AAy?$AAc?$AAl?$AAe?$AA?$CJ?$AA?5?$AA?9?$AA?5?$AAI?$AAn?$AAc?$AAo@| [ DATA ] ; `string'
	EXPORT	|??_C@_1HG@DMKAMPOG@?$AAT?$AAL?$AAD?$AA?3?$AA?5?$AA?$CB?$AAE?$AAR?$AAR?$AAO?$AAR?$AA?$CI?$AAS?$AAe?$AAt?$AAD?$AAu?$AAt?$AAy?$AAC?$AAy?$AAc?$AAl?$AAe?$AA?$CJ?$AA?5?$AA?9?$AA?5?$AAi?$AAn?$AAv?$AAa@| [ DATA ] ; `string'
	EXPORT	|??_C@_1EK@JLBPEEOC@?$AAT?$AAL?$AAD?$AA?3?$AA?5?$AA?$CL?$AAS?$AAe?$AAt?$AAD?$AAu?$AAt?$AAy?$AAC?$AAy?$AAc?$AAl?$AAe?$AA?$CI?$AA0?$AAx?$AA?$CF?$AA0?$AA8?$AAx?$AA?0?$AA?5?$AA0?$AAx?$AA?$CF?$AA0?$AA8@| [ DATA ] ; `string'
; File c:\wince600\platform\common\src\soc\common_ti_v1\triton\inc\twl.h

  00000			 AREA	 |.pdata|, PDATA
|$T36418| DCD	|$LN24@SetDutyCyc|
	DCD	0x40004b02

  00000			 AREA	 |.rdata|, DATA, READONLY
|??_C@_1FG@EHNAOLKP@?$AAT?$AAL?$AAD?$AA?3?$AA?5?$AA?9?$AAS?$AAe?$AAt?$AAD?$AAu?$AAt?$AAy?$AAC?$AAy?$AAc?$AAl?$AAe?$AA?$CI?$AA0?$AAx?$AA?$CF?$AA0?$AA8?$AAx?$AA?0?$AA?5?$AA0?$AAx?$AA?$CF?$AA0?$AA8@| DCB "T"
	DCB	0x0, "L", 0x0, "D", 0x0, ":", 0x0, " ", 0x0, "-", 0x0, "S"
	DCB	0x0, "e", 0x0, "t", 0x0, "D", 0x0, "u", 0x0, "t", 0x0, "y"
	DCB	0x0, "C", 0x0, "y", 0x0, "c", 0x0, "l", 0x0, "e", 0x0, "("
	DCB	0x0, "0", 0x0, "x", 0x0, "%", 0x0, "0", 0x0, "8", 0x0, "x"
	DCB	0x0, ",", 0x0, " ", 0x0, "0", 0x0, "x", 0x0, "%", 0x0, "0"
	DCB	0x0, "8", 0x0, "x", 0x0, ")", 0x0, " ", 0x0, "=", 0x0, "="
	DCB	0x0, " ", 0x0, "%", 0x0, "d", 0x0, 0xd, 0x0, 0xa, 0x0, 0x0
	DCB	0x0					; `string'

  00000			 AREA	 |.rdata|, DATA, READONLY
|??_C@_1HE@MFHCMAHK@?$AAT?$AAL?$AAD?$AA?3?$AA?5?$AA?$CB?$AAE?$AAR?$AAR?$AAO?$AAR?$AA?$CI?$AAS?$AAe?$AAt?$AAD?$AAu?$AAt?$AAy?$AAC?$AAy?$AAc?$AAl?$AAe?$AA?$CJ?$AA?5?$AA?9?$AA?5?$AAI?$AAn?$AAc?$AAo@| DCB "T"
	DCB	0x0, "L", 0x0, "D", 0x0, ":", 0x0, " ", 0x0, "!", 0x0, "E"
	DCB	0x0, "R", 0x0, "R", 0x0, "O", 0x0, "R", 0x0, "(", 0x0, "S"
	DCB	0x0, "e", 0x0, "t", 0x0, "D", 0x0, "u", 0x0, "t", 0x0, "y"
	DCB	0x0, "C", 0x0, "y", 0x0, "c", 0x0, "l", 0x0, "e", 0x0, ")"
	DCB	0x0, " ", 0x0, "-", 0x0, " ", 0x0, "I", 0x0, "n", 0x0, "c"
	DCB	0x0, "o", 0x0, "r", 0x0, "r", 0x0, "e", 0x0, "c", 0x0, "t"
	DCB	0x0, " ", 0x0, "c", 0x0, "o", 0x0, "n", 0x0, "t", 0x0, "e"
	DCB	0x0, "x", 0x0, "t", 0x0, " ", 0x0, "p", 0x0, "a", 0x0, "r"
	DCB	0x0, "a", 0x0, "m", 0x0, "e", 0x0, "t", 0x0, "e", 0x0, "r"
	DCB	0x0, 0xd, 0x0, 0xa, 0x0, 0x0, 0x0	; `string'

  00000			 AREA	 |.rdata|, DATA, READONLY
|??_C@_1HG@DMKAMPOG@?$AAT?$AAL?$AAD?$AA?3?$AA?5?$AA?$CB?$AAE?$AAR?$AAR?$AAO?$AAR?$AA?$CI?$AAS?$AAe?$AAt?$AAD?$AAu?$AAt?$AAy?$AAC?$AAy?$AAc?$AAl?$AAe?$AA?$CJ?$AA?5?$AA?9?$AA?5?$AAi?$AAn?$AAv?$AAa@| DCB "T"
	DCB	0x0, "L", 0x0, "D", 0x0, ":", 0x0, " ", 0x0, "!", 0x0, "E"
	DCB	0x0, "R", 0x0, "R", 0x0, "O", 0x0, "R", 0x0, "(", 0x0, "S"
	DCB	0x0, "e", 0x0, "t", 0x0, "D", 0x0, "u", 0x0, "t", 0x0, "y"
	DCB	0x0, "C", 0x0, "y", 0x0, "c", 0x0, "l", 0x0, "e", 0x0, ")"
	DCB	0x0, " ", 0x0, "-", 0x0, " ", 0x0, "i", 0x0, "n", 0x0, "v"
	DCB	0x0, "a", 0x0, "l", 0x0, "i", 0x0, "d", 0x0, " ", 0x0, "d"
	DCB	0x0, "u", 0x0, "t", 0x0, "y", 0x0, " ", 0x0, "c", 0x0, "y"
	DCB	0x0, "c", 0x0, "l", 0x0, "e", 0x0, " ", 0x0, "v", 0x0, "a"
	DCB	0x0, "l", 0x0, "u", 0x0, "e", 0x0, "(", 0x0, "%", 0x0, "d"
	DCB	0x0, ")", 0x0, 0xd, 0x0, 0xa, 0x0, 0x0, 0x0 ; `string'

  00000			 AREA	 |.rdata|, DATA, READONLY
|??_C@_1EK@JLBPEEOC@?$AAT?$AAL?$AAD?$AA?3?$AA?5?$AA?$CL?$AAS?$AAe?$AAt?$AAD?$AAu?$AAt?$AAy?$AAC?$AAy?$AAc?$AAl?$AAe?$AA?$CI?$AA0?$AAx?$AA?$CF?$AA0?$AA8?$AAx?$AA?0?$AA?5?$AA0?$AAx?$AA?$CF?$AA0?$AA8@| DCB "T"
	DCB	0x0, "L", 0x0, "D", 0x0, ":", 0x0, " ", 0x0, "+", 0x0, "S"
	DCB	0x0, "e", 0x0, "t", 0x0, "D", 0x0, "u", 0x0, "t", 0x0, "y"
	DCB	0x0, "C", 0x0, "y", 0x0, "c", 0x0, "l", 0x0, "e", 0x0, "("
	DCB	0x0, "0", 0x0, "x", 0x0, "%", 0x0, "0", 0x0, "8", 0x0, "x"
	DCB	0x0, ",", 0x0, " ", 0x0, "0", 0x0, "x", 0x0, "%", 0x0, "0"
	DCB	0x0, "8", 0x0, "x", 0x0, ")", 0x0, 0xd, 0x0, 0xa, 0x0, 0x0
	DCB	0x0					; `string'
; Function compile flags: /Ogspy
; File c:\wince600\platform\common\src\soc\common_ti_v1\tps659xx\tled\tled.cpp

  00000			 AREA	 |.text|, CODE, ARM

  00000		 |?SetDutyCycle@@YAHKK@Z| PROC		; SetDutyCycle

; 239  : {

  00000		 |$LN24@SetDutyCyc|
  00000	e92d41f0	 stmdb       sp!, {r4 - r8, lr}
  00004	e24dd004	 sub         sp, sp, #4
  00008		 |$M36415|
  00008	e1a06001	 mov         r6, r1
  0000c	e1a05000	 mov         r5, r0

; 240  :     DWORD offTick;
; 241  :     BOOL rc = FALSE;
; 242  :     Instance_t *pInstance = (Instance_t*)context;
; 243  :     
; 244  :     RETAILMSG(1, (L"TLD: +SetDutyCycle(0x%08x, 0x%08x)\r\n", context, value));

  00010	e59f0110	 ldr         r0, [pc, #0x110]
  00014	e1a02006	 mov         r2, r6
  00018	e1a01005	 mov         r1, r5
  0001c	e3a07000	 mov         r7, #0
  00020	eb000000	 bl          NKDbgPrintfW

; 245  :     // do some sanity checks
; 246  :     if ((pInstance == NULL) || (pInstance->cookie != TLED_INSTANCE_COOKIE))

  00024	e3550000	 cmp         r5, #0
  00028	0a00002a	 beq         |$LN8@SetDutyCyc|
  0002c	e5952000	 ldr         r2, [r5]
  00030	e59f30ec	 ldr         r3, [pc, #0xEC]
  00034	e1520003	 cmp         r2, r3
  00038	1a000026	 bne         |$LN8@SetDutyCyc|

; 250  :         goto cleanUp;
; 251  : 	}
; 252  :     
; 253  :     // check for valid value
; 254  :     // duty cycle value is normalized to be between [0, 100] : 0 == off
; 255  :     if (value > MAX_DUTYCYCLE)

  0003c	e3560064	 cmp         r6, #0x64
  00040	9a000007	 bls         |$LN6@SetDutyCyc|

; 256  : 	{
; 257  :         RETAILMSG(ZONE_ERROR, (L"TLD: !ERROR(SetDutyCycle) - "
; 258  :             L"invalid duty cycle value(%d)\r\n", value));

  00044	e59f30cc	 ldr         r3, [pc, #0xCC]
  00048	e5933440	 ldr         r3, [r3, #0x440]
  0004c	e3130001	 tst         r3, #1
  00050	0a000025	 beq         |$cleanUp$36036|
  00054	e59f00c4	 ldr         r0, [pc, #0xC4]
  00058	e1a01006	 mov         r1, r6
  0005c	eb000000	 bl          NKDbgPrintfW

; 290  :     
; 291  : cleanUp:    

  00060	ea000021	 b           |$cleanUp$36036|
  00064		 |$LN6@SetDutyCyc|

; 259  :         goto cleanUp;
; 260  : 	}
; 261  : 
; 262  :     // if we got here everything is okay
; 263  :     rc = TRUE;
; 264  : 
; 265  :     // check if the duty cycle matches current duty cycle
; 266  :     if (pInstance->dutyCycle == value)

  00064	e595300c	 ldr         r3, [r5, #0xC]
  00068	e3a07001	 mov         r7, #1
  0006c	e1530006	 cmp         r3, r6
  00070	0a00001d	 beq         |$cleanUp$36036|

; 267  : 	{
; 268  :         goto cleanUp;
; 269  : 	}
; 270  : 
; 271  :     // disable led channel, if value is zero then leave led off and exit
; 272  :     pInstance->dutyCycle = value;
; 273  :     Device_t *pDevice = pInstance->pDevice;

  00074	e5958004	 ldr         r8, [r5, #4]

; 274  :     DisableLed(pDevice, pInstance->channel);

  00078	e5951008	 ldr         r1, [r5, #8]
  0007c	e585600c	 str         r6, [r5, #0xC]
  00080	e1a00008	 mov         r0, r8
  00084	eb000000	 bl          |?DisableLed@@YAHPAUDevice_t@@K@Z|

; 275  :     if (value == 0)

  00088	e3560000	 cmp         r6, #0
  0008c	0a000016	 beq         |$cleanUp$36036|

; 276  : 	{
; 277  :         goto cleanUp;
; 278  : 	}
; 279  : 
; 280  :     // calculate on/off period based on requested duty cycle,
; 281  :     // channelIncrement is a fixed point 16.16 number 
; 282  :     //offTick = (pDevice->channelIncrement * value) >> 16;
; 283  :     //TWLWriteRegs(pDevice->hTWL, s_PWMAOffset[pInstance->channel],&offTick, 1);
; 284  :     offTick = ((125 * (100 - value))/100) + 1;
; 285  :     value = offTick;

  00090	e2662064	 rsb         r2, r6, #0x64
  00094	e59f1080	 ldr         r1, [pc, #0x80]
  00098	e0623282	 rsb         r3, r2, r2, lsl #5
  0009c	e0824103	 add         r4, r2, r3, lsl #2

; 286  :     TWLWriteByteReg(pDevice->hTWL, TWL_PWM0ON, (BYTE)value);

  000a0	e083e194	 umull       lr, r3, r4, r1
  000a4	e5980018	 ldr         r0, [r8, #0x18]
  000a8	e3a01802	 mov         r1, #2, 16
  000ac	e1a032a3	 mov         r3, r3, lsr #5
  000b0	e2836001	 add         r6, r3, #1
  000b4	e3a03001	 mov         r3, #1
  000b8	e28d2000	 add         r2, sp, #0
  000bc	e38110f8	 orr         r1, r1, #0xF8
  000c0	e5cd6000	 strb        r6, [sp]
  000c4	eb000000	 bl          TWLWriteRegs

; 287  :     
; 288  :     // enable led channel
; 289  :     EnableLed(pInstance->pDevice, pInstance->channel);

  000c8	e5951008	 ldr         r1, [r5, #8]
  000cc	e5950004	 ldr         r0, [r5, #4]
  000d0	eb000000	 bl          |?EnableLed@@YAHPAUDevice_t@@K@Z|
  000d4	ea000004	 b           |$cleanUp$36036|
  000d8		 |$LN8@SetDutyCyc|

; 247  : 	{
; 248  :         RETAILMSG(ZONE_ERROR, (L"TLD: !ERROR(SetDutyCycle) - "
; 249  :             L"Incorrect context parameter\r\n"));

  000d8	e59f3038	 ldr         r3, [pc, #0x38]
  000dc	e5933440	 ldr         r3, [r3, #0x440]
  000e0	e3130001	 tst         r3, #1
  000e4	159f0028	 ldrne       r0, [pc, #0x28]
  000e8	1b000000	 blne        NKDbgPrintfW
  000ec		 |$cleanUp$36036|

; 292  :     //RETAILMSG(1, (L"TLD: -SetDutyCycle(0x%08x, 0x%08x) == %d\r\n", offTick, value, rc));
; 293  :     RETAILMSG(1, (L"TLD: -SetDutyCycle(0x%08x, 0x%08x) == %d\r\n", context, value, rc));

  000ec	e59f001c	 ldr         r0, [pc, #0x1C]
  000f0	e1a03007	 mov         r3, r7
  000f4	e1a02006	 mov         r2, r6
  000f8	e1a01005	 mov         r1, r5
  000fc	eb000000	 bl          NKDbgPrintfW

; 294  : 
; 295  :     return rc;
; 296  : }

  00100	e1a00007	 mov         r0, r7
  00104	e28dd004	 add         sp, sp, #4
  00108	e8bd41f0	 ldmia       sp!, {r4 - r8, lr}
  0010c	e12fff1e	 bx          lr
  00110		 |$LN25@SetDutyCyc|
  00110		 |$LN26@SetDutyCyc|
  00110	00000000	 DCD         |??_C@_1FG@EHNAOLKP@?$AAT?$AAL?$AAD?$AA?3?$AA?5?$AA?9?$AAS?$AAe?$AAt?$AAD?$AAu?$AAt?$AAy?$AAC?$AAy?$AAc?$AAl?$AAe?$AA?$CI?$AA0?$AAx?$AA?$CF?$AA0?$AA8?$AAx?$AA?0?$AA?5?$AA0?$AAx?$AA?$CF?$AA0?$AA8@|
  00114		 |$LN27@SetDutyCyc|
  00114	00000000	 DCD         |??_C@_1HE@MFHCMAHK@?$AAT?$AAL?$AAD?$AA?3?$AA?5?$AA?$CB?$AAE?$AAR?$AAR?$AAO?$AAR?$AA?$CI?$AAS?$AAe?$AAt?$AAD?$AAu?$AAt?$AAy?$AAC?$AAy?$AAc?$AAl?$AAe?$AA?$CJ?$AA?5?$AA?9?$AA?5?$AAI?$AAn?$AAc?$AAo@|
  00118		 |$LN28@SetDutyCyc|
  00118	00000000	 DCD         |dpCurSettings|
  0011c		 |$LN29@SetDutyCyc|
  0011c	51eb851f	 DCD         0x51eb851f
  00120		 |$LN30@SetDutyCyc|
  00120	00000000	 DCD         |??_C@_1HG@DMKAMPOG@?$AAT?$AAL?$AAD?$AA?3?$AA?5?$AA?$CB?$AAE?$AAR?$AAR?$AAO?$AAR?$AA?$CI?$AAS?$AAe?$AAt?$AAD?$AAu?$AAt?$AAy?$AAC?$AAy?$AAc?$AAl?$AAe?$AA?$CJ?$AA?5?$AA?9?$AA?5?$AAi?$AAn?$AAv?$AAa@|
  00124		 |$LN31@SetDutyCyc|
  00124	746c6449	 DCD         0x746c6449
  00128		 |$LN32@SetDutyCyc|
  00128	00000000	 DCD         |??_C@_1EK@JLBPEEOC@?$AAT?$AAL?$AAD?$AA?3?$AA?5?$AA?$CL?$AAS?$AAe?$AAt?$AAD?$AAu?$AAt?$AAy?$AAC?$AAy?$AAc?$AAl?$AAe?$AA?$CI?$AA0?$AAx?$AA?$CF?$AA0?$AA8?$AAx?$AA?0?$AA?5?$AA0?$AAx?$AA?$CF?$AA0?$AA8@|
  0012c		 |$M36416|

			 ENDP  ; |?SetDutyCycle@@YAHKK@Z|, SetDutyCycle

	EXPORT	|?InitializeDevice@@YAHPAUDevice_t@@@Z|	; InitializeDevice
	EXPORT	|??_C@_1EE@EBEIDAHP@?$AAT?$AAL?$AAD?$AA?3?$AA?5?$AA?5?$AA?9?$AAI?$AAn?$AAi?$AAt?$AAi?$AAa?$AAl?$AAi?$AAz?$AAe?$AAD?$AAe?$AAv?$AAi?$AAc?$AAe?$AA?$CI?$AA0?$AAx?$AA?$CF?$AA0?$AA8?$AAx?$AA?$CJ?$AA?$AN@| [ DATA ] ; `string'
	EXPORT	|??_C@_1IE@MCMOOGII@?$AAT?$AAL?$AAD?$AA?3?$AA?5?$AA?5?$AA?$CB?$AAE?$AAR?$AAR?$AAO?$AAR?$AA?5?$AA?9?$AA?5?$AAI?$AAn?$AAi?$AAt?$AAi?$AAa?$AAl?$AAi?$AAz?$AAe?$AAD?$AAe?$AAv?$AAi?$AAc?$AAe?$AA?5@| [ DATA ] ; `string'
	EXPORT	|??_C@_1IE@LFFADEHI@?$AAT?$AAL?$AAD?$AA?3?$AA?5?$AA?5?$AA?$CB?$AAE?$AAR?$AAR?$AAO?$AAR?$AA?5?$AA?9?$AA?5?$AAI?$AAn?$AAi?$AAt?$AAi?$AAa?$AAl?$AAi?$AAz?$AAe?$AAD?$AAe?$AAv?$AAi?$AAc?$AAe?$AA?5@| [ DATA ] ; `string'
	EXPORT	|??_C@_1HK@OPLBNBPM@?$AAT?$AAL?$AAD?$AA?3?$AA?5?$AA?5?$AA?$CB?$AAE?$AAR?$AAR?$AAO?$AAR?$AA?5?$AA?9?$AA?5?$AAI?$AAn?$AAi?$AAt?$AAi?$AAa?$AAl?$AAi?$AAz?$AAe?$AAD?$AAe?$AAv?$AAi?$AAc?$AAe?$AA?5@| [ DATA ] ; `string'
	EXPORT	|??_C@_1EE@MDGFIIN@?$AAT?$AAL?$AAD?$AA?3?$AA?5?$AA?5?$AA?$CL?$AAI?$AAn?$AAi?$AAt?$AAi?$AAa?$AAl?$AAi?$AAz?$AAe?$AAD?$AAe?$AAv?$AAi?$AAc?$AAe?$AA?$CI?$AA0?$AAx?$AA?$CF?$AA0?$AA8?$AAx?$AA?$CJ?$AA?$AN@| [ DATA ] ; `string'

  00000			 AREA	 |.pdata|, PDATA
|$T36448| DCD	|$LN22@Initialize|
	DCD	0x40004f02

  00000			 AREA	 |.rdata|, DATA, READONLY
|??_C@_1EE@EBEIDAHP@?$AAT?$AAL?$AAD?$AA?3?$AA?5?$AA?5?$AA?9?$AAI?$AAn?$AAi?$AAt?$AAi?$AAa?$AAl?$AAi?$AAz?$AAe?$AAD?$AAe?$AAv?$AAi?$AAc?$AAe?$AA?$CI?$AA0?$AAx?$AA?$CF?$AA0?$AA8?$AAx?$AA?$CJ?$AA?$AN@| DCB "T"
	DCB	0x0, "L", 0x0, "D", 0x0, ":", 0x0, " ", 0x0, " ", 0x0, "-"
	DCB	0x0, "I", 0x0, "n", 0x0, "i", 0x0, "t", 0x0, "i", 0x0, "a"
	DCB	0x0, "l", 0x0, "i", 0x0, "z", 0x0, "e", 0x0, "D", 0x0, "e"
	DCB	0x0, "v", 0x0, "i", 0x0, "c", 0x0, "e", 0x0, "(", 0x0, "0"
	DCB	0x0, "x", 0x0, "%", 0x0, "0", 0x0, "8", 0x0, "x", 0x0, ")"
	DCB	0x0, 0xd, 0x0, 0xa, 0x0, 0x0, 0x0	; `string'

  00000			 AREA	 |.rdata|, DATA, READONLY
|??_C@_1IE@MCMOOGII@?$AAT?$AAL?$AAD?$AA?3?$AA?5?$AA?5?$AA?$CB?$AAE?$AAR?$AAR?$AAO?$AAR?$AA?5?$AA?9?$AA?5?$AAI?$AAn?$AAi?$AAt?$AAi?$AAa?$AAl?$AAi?$AAz?$AAe?$AAD?$AAe?$AAv?$AAi?$AAc?$AAe?$AA?5@| DCB "T"
	DCB	0x0, "L", 0x0, "D", 0x0, ":", 0x0, " ", 0x0, " ", 0x0, "!"
	DCB	0x0, "E", 0x0, "R", 0x0, "R", 0x0, "O", 0x0, "R", 0x0, " "
	DCB	0x0, "-", 0x0, " ", 0x0, "I", 0x0, "n", 0x0, "i", 0x0, "t"
	DCB	0x0, "i", 0x0, "a", 0x0, "l", 0x0, "i", 0x0, "z", 0x0, "e"
	DCB	0x0, "D", 0x0, "e", 0x0, "v", 0x0, "i", 0x0, "c", 0x0, "e"
	DCB	0x0, " ", 0x0, "F", 0x0, "a", 0x0, "i", 0x0, "l", 0x0, "e"
	DCB	0x0, "d", 0x0, " ", 0x0, "t", 0x0, "o", 0x0, " ", 0x0, "i"
	DCB	0x0, "n", 0x0, "i", 0x0, "t", 0x0, "i", 0x0, "a", 0x0, "l"
	DCB	0x0, "i", 0x0, "z", 0x0, "e", 0x0, " ", 0x0, "T", 0x0, "W"
	DCB	0x0, "L", 0x0, "_", 0x0, "P", 0x0, "W", 0x0, "M", 0x0, "B"
	DCB	0x0, "O", 0x0, "N", 0x0, 0xd, 0x0, 0xa, 0x0, 0x0, 0x0 ; `string'

  00000			 AREA	 |.rdata|, DATA, READONLY
|??_C@_1IE@LFFADEHI@?$AAT?$AAL?$AAD?$AA?3?$AA?5?$AA?5?$AA?$CB?$AAE?$AAR?$AAR?$AAO?$AAR?$AA?5?$AA?9?$AA?5?$AAI?$AAn?$AAi?$AAt?$AAi?$AAa?$AAl?$AAi?$AAz?$AAe?$AAD?$AAe?$AAv?$AAi?$AAc?$AAe?$AA?5@| DCB "T"
	DCB	0x0, "L", 0x0, "D", 0x0, ":", 0x0, " ", 0x0, " ", 0x0, "!"
	DCB	0x0, "E", 0x0, "R", 0x0, "R", 0x0, "O", 0x0, "R", 0x0, " "
	DCB	0x0, "-", 0x0, " ", 0x0, "I", 0x0, "n", 0x0, "i", 0x0, "t"
	DCB	0x0, "i", 0x0, "a", 0x0, "l", 0x0, "i", 0x0, "z", 0x0, "e"
	DCB	0x0, "D", 0x0, "e", 0x0, "v", 0x0, "i", 0x0, "c", 0x0, "e"
	DCB	0x0, " ", 0x0, "F", 0x0, "a", 0x0, "i", 0x0, "l", 0x0, "e"
	DCB	0x0, "d", 0x0, " ", 0x0, "t", 0x0, "o", 0x0, " ", 0x0, "i"
	DCB	0x0, "n", 0x0, "i", 0x0, "t", 0x0, "i", 0x0, "a", 0x0, "l"
	DCB	0x0, "i", 0x0, "z", 0x0, "e", 0x0, " ", 0x0, "T", 0x0, "W"
	DCB	0x0, "L", 0x0, "_", 0x0, "P", 0x0, "W", 0x0, "M", 0x0, "A"
	DCB	0x0, "O", 0x0, "N", 0x0, 0xd, 0x0, 0xa, 0x0, 0x0, 0x0 ; `string'

  00000			 AREA	 |.rdata|, DATA, READONLY
|??_C@_1HK@OPLBNBPM@?$AAT?$AAL?$AAD?$AA?3?$AA?5?$AA?5?$AA?$CB?$AAE?$AAR?$AAR?$AAO?$AAR?$AA?5?$AA?9?$AA?5?$AAI?$AAn?$AAi?$AAt?$AAi?$AAa?$AAl?$AAi?$AAz?$AAe?$AAD?$AAe?$AAv?$AAi?$AAc?$AAe?$AA?5@| DCB "T"
	DCB	0x0, "L", 0x0, "D", 0x0, ":", 0x0, " ", 0x0, " ", 0x0, "!"
	DCB	0x0, "E", 0x0, "R", 0x0, "R", 0x0, "O", 0x0, "R", 0x0, " "
	DCB	0x0, "-", 0x0, " ", 0x0, "I", 0x0, "n", 0x0, "i", 0x0, "t"
	DCB	0x0, "i", 0x0, "a", 0x0, "l", 0x0, "i", 0x0, "z", 0x0, "e"
	DCB	0x0, "D", 0x0, "e", 0x0, "v", 0x0, "i", 0x0, "c", 0x0, "e"
	DCB	0x0, " ", 0x0, "F", 0x0, "a", 0x0, "i", 0x0, "l", 0x0, "e"
	DCB	0x0, "d", 0x0, " ", 0x0, "t", 0x0, "o", 0x0, " ", 0x0, "i"
	DCB	0x0, "n", 0x0, "i", 0x0, "t", 0x0, "i", 0x0, "a", 0x0, "l"
	DCB	0x0, "i", 0x0, "z", 0x0, "e", 0x0, " ", 0x0, "L", 0x0, "E"
	DCB	0x0, "D", 0x0, "E", 0x0, "N", 0x0, 0xd, 0x0, 0xa, 0x0, 0x0
	DCB	0x0					; `string'

  00000			 AREA	 |.rdata|, DATA, READONLY
|??_C@_1EE@MDGFIIN@?$AAT?$AAL?$AAD?$AA?3?$AA?5?$AA?5?$AA?$CL?$AAI?$AAn?$AAi?$AAt?$AAi?$AAa?$AAl?$AAi?$AAz?$AAe?$AAD?$AAe?$AAv?$AAi?$AAc?$AAe?$AA?$CI?$AA0?$AAx?$AA?$CF?$AA0?$AA8?$AAx?$AA?$CJ?$AA?$AN@| DCB "T"
	DCB	0x0, "L", 0x0, "D", 0x0, ":", 0x0, " ", 0x0, " ", 0x0, "+"
	DCB	0x0, "I", 0x0, "n", 0x0, "i", 0x0, "t", 0x0, "i", 0x0, "a"
	DCB	0x0, "l", 0x0, "i", 0x0, "z", 0x0, "e", 0x0, "D", 0x0, "e"
	DCB	0x0, "v", 0x0, "i", 0x0, "c", 0x0, "e", 0x0, "(", 0x0, "0"
	DCB	0x0, "x", 0x0, "%", 0x0, "0", 0x0, "8", 0x0, "x", 0x0, ")"
	DCB	0x0, 0xd, 0x0, 0xa, 0x0, 0x0, 0x0	; `string'
; Function compile flags: /Ogspy

  00000			 AREA	 |.text|, CODE, ARM

  00000		 |?InitializeDevice@@YAHPAUDevice_t@@@Z| PROC ; InitializeDevice

; 307  : {

  00000		 |$LN22@Initialize|
  00000	e92d4030	 stmdb       sp!, {r4, r5, lr}
  00004	e24dd004	 sub         sp, sp, #4
  00008		 |$M36445|
  00008	e1a04000	 mov         r4, r0

; 308  :     BOOL rc = FALSE;
; 309  :     UINT8 val;
; 310  : 
; 311  : 	RETAILMSG(1, (L"TLD:  +InitializeDevice(0x%08x)\r\n", pDevice));

  0000c	e59f0124	 ldr         r0, [pc, #0x124]
  00010	e1a01004	 mov         r1, r4
  00014	e3a05000	 mov         r5, #0
  00018	eb000000	 bl          NKDbgPrintfW

; 312  :     // disable all leds
; 313  :     val = 0;
; 314  :     if (TWLWriteRegs(pDevice->hTWL, TWL_LEDEN, &val, 1) == FALSE)

  0001c	e5940018	 ldr         r0, [r4, #0x18]
  00020	e3a03802	 mov         r3, #2, 16
  00024	e38310ee	 orr         r1, r3, #0xEE
  00028	e3a0e000	 mov         lr, #0
  0002c	e3a03001	 mov         r3, #1
  00030	e28d2000	 add         r2, sp, #0
  00034	e5cde000	 strb        lr, [sp]
  00038	eb000000	 bl          TWLWriteRegs
  0003c	e3500000	 cmp         r0, #0
  00040	1a000006	 bne         |$LN6@Initialize|

; 315  : 	{
; 316  :         RETAILMSG(ZONE_ERROR, (L"TLD:  !ERROR - InitializeDevice "
; 317  :             L"Failed to initialize LEDEN\r\n"));

  00044	e59f30e0	 ldr         r3, [pc, #0xE0]
  00048	e5933440	 ldr         r3, [r3, #0x440]
  0004c	e3130001	 tst         r3, #1
  00050	0a00002b	 beq         |$cleanUp$36056|
  00054	e59f00d8	 ldr         r0, [pc, #0xD8]

; 330  : 	{
; 331  :         RETAILMSG(ZONE_ERROR, (L"TLD:  !ERROR - InitializeDevice "
; 332  :             L"Failed to initialize TWL_PWMBON\r\n"));

  00058	eb000000	 bl          NKDbgPrintfW

; 341  : 
; 342  : cleanUp:

  0005c	ea000028	 b           |$cleanUp$36056|
  00060		 |$LN6@Initialize|

; 318  :         goto cleanUp;
; 319  : 	}
; 320  : 
; 321  :     val = 0x04; // PWM0 function is enabled
; 322  :     if (TWLWriteRegs(pDevice->hTWL, TWL_PMBR1, &val, 1) == FALSE)

  00060	e5940018	 ldr         r0, [r4, #0x18]
  00064	e3a03801	 mov         r3, #1, 16
  00068	e3831092	 orr         r1, r3, #0x92
  0006c	e3a0e004	 mov         lr, #4
  00070	e3a03001	 mov         r3, #1
  00074	e28d2000	 add         r2, sp, #0
  00078	e5cde000	 strb        lr, [sp]
  0007c	eb000000	 bl          TWLWriteRegs
  00080	e3500000	 cmp         r0, #0
  00084	1a000006	 bne         |$LN4@Initialize|

; 323  : 	{
; 324  :         RETAILMSG(ZONE_ERROR, (L"TLD:  !ERROR - InitializeDevice "
; 325  :             L"Failed to initialize TWL_PWMAON\r\n"));

  00088	e59f309c	 ldr         r3, [pc, #0x9C]
  0008c	e5933440	 ldr         r3, [r3, #0x440]
  00090	e3130001	 tst         r3, #1
  00094	0a00001a	 beq         |$cleanUp$36056|
  00098	e59f0090	 ldr         r0, [pc, #0x90]

; 330  : 	{
; 331  :         RETAILMSG(ZONE_ERROR, (L"TLD:  !ERROR - InitializeDevice "
; 332  :             L"Failed to initialize TWL_PWMBON\r\n"));

  0009c	eb000000	 bl          NKDbgPrintfW

; 341  : 
; 342  : cleanUp:

  000a0	ea000017	 b           |$cleanUp$36056|
  000a4		 |$LN4@Initialize|

; 326  :         goto cleanUp;
; 327  : 	}
; 328  : 	val = 0x7F;
; 329  :     if (TWLWriteRegs(pDevice->hTWL, TWL_PWM0OFF, &val, 1) == FALSE)

  000a4	e5940018	 ldr         r0, [r4, #0x18]
  000a8	e3a03802	 mov         r3, #2, 16
  000ac	e38310f9	 orr         r1, r3, #0xF9
  000b0	e3a0e07f	 mov         lr, #0x7F
  000b4	e3a03001	 mov         r3, #1
  000b8	e28d2000	 add         r2, sp, #0
  000bc	e5cde000	 strb        lr, [sp]
  000c0	eb000000	 bl          TWLWriteRegs
  000c4	e3500000	 cmp         r0, #0
  000c8	1a000006	 bne         |$LN2@Initialize|

; 330  : 	{
; 331  :         RETAILMSG(ZONE_ERROR, (L"TLD:  !ERROR - InitializeDevice "
; 332  :             L"Failed to initialize TWL_PWMBON\r\n"));

  000cc	e59f3058	 ldr         r3, [pc, #0x58]
  000d0	e5933440	 ldr         r3, [r3, #0x440]
  000d4	e3130001	 tst         r3, #1
  000d8	0a000009	 beq         |$cleanUp$36056|
  000dc	e59f0044	 ldr         r0, [pc, #0x44]
  000e0	eb000000	 bl          NKDbgPrintfW

; 341  : 
; 342  : cleanUp:

  000e4	ea000006	 b           |$cleanUp$36056|
  000e8		 |$LN2@Initialize|

; 333  :         goto cleanUp;
; 334  : 	}
; 335  : 	
; 336  :     // calculate how much the incremental value for led channels 
; 337  :     // as 16.16 fixed point value
; 338  :     pDevice->channelIncrement = (pDevice->maxChannelValue << 16) / 100;

  000e8	e5943024	 ldr         r3, [r4, #0x24]
  000ec	e59f2030	 ldr         r2, [pc, #0x30]

; 339  : 
; 340  :     rc = TRUE;

  000f0	e3a05001	 mov         r5, #1
  000f4	e1a01803	 mov         r1, r3, lsl #16
  000f8	e0832291	 umull       r2, r3, r1, r2
  000fc	e1a032a3	 mov         r3, r3, lsr #5
  00100	e5843020	 str         r3, [r4, #0x20]
  00104		 |$cleanUp$36056|

; 343  : 
; 344  :     RETAILMSG(1, (L"TLD:  -InitializeDevice(0x%08x)\r\n", pDevice));

  00104	e59f0014	 ldr         r0, [pc, #0x14]
  00108	e1a01004	 mov         r1, r4
  0010c	eb000000	 bl          NKDbgPrintfW

; 345  : 
; 346  :     return rc;
; 347  : }

  00110	e1a00005	 mov         r0, r5
  00114	e28dd004	 add         sp, sp, #4
  00118	e8bd4030	 ldmia       sp!, {r4, r5, lr}
  0011c	e12fff1e	 bx          lr
  00120		 |$LN23@Initialize|
  00120		 |$LN24@Initialize|
  00120	00000000	 DCD         |??_C@_1EE@EBEIDAHP@?$AAT?$AAL?$AAD?$AA?3?$AA?5?$AA?5?$AA?9?$AAI?$AAn?$AAi?$AAt?$AAi?$AAa?$AAl?$AAi?$AAz?$AAe?$AAD?$AAe?$AAv?$AAi?$AAc?$AAe?$AA?$CI?$AA0?$AAx?$AA?$CF?$AA0?$AA8?$AAx?$AA?$CJ?$AA?$AN@|
  00124		 |$LN25@Initialize|
  00124	51eb851f	 DCD         0x51eb851f
  00128		 |$LN26@Initialize|
  00128	00000000	 DCD         |??_C@_1IE@MCMOOGII@?$AAT?$AAL?$AAD?$AA?3?$AA?5?$AA?5?$AA?$CB?$AAE?$AAR?$AAR?$AAO?$AAR?$AA?5?$AA?9?$AA?5?$AAI?$AAn?$AAi?$AAt?$AAi?$AAa?$AAl?$AAi?$AAz?$AAe?$AAD?$AAe?$AAv?$AAi?$AAc?$AAe?$AA?5@|
  0012c		 |$LN27@Initialize|
  0012c	00000000	 DCD         |dpCurSettings|
  00130		 |$LN28@Initialize|
  00130	00000000	 DCD         |??_C@_1IE@LFFADEHI@?$AAT?$AAL?$AAD?$AA?3?$AA?5?$AA?5?$AA?$CB?$AAE?$AAR?$AAR?$AAO?$AAR?$AA?5?$AA?9?$AA?5?$AAI?$AAn?$AAi?$AAt?$AAi?$AAa?$AAl?$AAi?$AAz?$AAe?$AAD?$AAe?$AAv?$AAi?$AAc?$AAe?$AA?5@|
  00134		 |$LN29@Initialize|
  00134	00000000	 DCD         |??_C@_1HK@OPLBNBPM@?$AAT?$AAL?$AAD?$AA?3?$AA?5?$AA?5?$AA?$CB?$AAE?$AAR?$AAR?$AAO?$AAR?$AA?5?$AA?9?$AA?5?$AAI?$AAn?$AAi?$AAt?$AAi?$AAa?$AAl?$AAi?$AAz?$AAe?$AAD?$AAe?$AAv?$AAi?$AAc?$AAe?$AA?5@|
  00138		 |$LN30@Initialize|
  00138	00000000	 DCD         |??_C@_1EE@MDGFIIN@?$AAT?$AAL?$AAD?$AA?3?$AA?5?$AA?5?$AA?$CL?$AAI?$AAn?$AAi?$AAt?$AAi?$AAa?$AAl?$AAi?$AAz?$AAe?$AAD?$AAe?$AAv?$AAi?$AAc?$AAe?$AA?$CI?$AA0?$AAx?$AA?$CF?$AA0?$AA8?$AAx?$AA?$CJ?$AA?$AN@|
  0013c		 |$M36446|

			 ENDP  ; |?InitializeDevice@@YAHPAUDevice_t@@@Z|, InitializeDevice

	EXPORT	|?TLD_Deinit@@YAHK@Z|			; TLD_Deinit
	EXPORT	|??_C@_1CO@MICKMIJI@?$AA?9?$AAT?$AAL?$AAD?$AA_?$AAD?$AAe?$AAi?$AAn?$AAi?$AAt?$AA?$CI?$AAr?$AAc?$AA?5?$AA?$DN?$AA?5?$AA?$CF?$AAd?$AA?$CJ?$AA?$AN?$AA?6?$AA?$AA@| [ DATA ] ; `string'
	EXPORT	|??_C@_1JM@HHLGIFC@?$AAT?$AAW?$AAL?$AA?3?$AA?5?$AA?$CB?$AAE?$AAR?$AAR?$AAO?$AAR?$AA?$CI?$AAT?$AAL?$AAD?$AA_?$AAD?$AAe?$AAi?$AAn?$AAi?$AAt?$AA?$CJ?$AA?5?$AA?9?$AA?5?$AAC?$AAa?$AAn?$AA?8?$AAt?$AA?5@| [ DATA ] ; `string'
	EXPORT	|??_C@_1CM@OJJDFLCC@?$AA?$CL?$AAT?$AAL?$AAD?$AA_?$AAD?$AAe?$AAi?$AAn?$AAi?$AAt?$AA?$CI?$AA0?$AAx?$AA?$CF?$AA0?$AA8?$AAx?$AA?$CJ?$AA?$AN?$AA?6?$AA?$AA@| [ DATA ] ; `string'
	IMPORT	|LocalFree|
	IMPORT	|DeleteCriticalSection|
	IMPORT	|CloseHandle|
	IMPORT	|InterlockedIncrement|

  00000			 AREA	 |.pdata|, PDATA
|$T36473| DCD	|$LN17@TLD_Deinit|
	DCD	0x40002f01

  00000			 AREA	 |.rdata|, DATA, READONLY
|??_C@_1CO@MICKMIJI@?$AA?9?$AAT?$AAL?$AAD?$AA_?$AAD?$AAe?$AAi?$AAn?$AAi?$AAt?$AA?$CI?$AAr?$AAc?$AA?5?$AA?$DN?$AA?5?$AA?$CF?$AAd?$AA?$CJ?$AA?$AN?$AA?6?$AA?$AA@| DCB "-"
	DCB	0x0, "T", 0x0, "L", 0x0, "D", 0x0, "_", 0x0, "D", 0x0, "e"
	DCB	0x0, "i", 0x0, "n", 0x0, "i", 0x0, "t", 0x0, "(", 0x0, "r"
	DCB	0x0, "c", 0x0, " ", 0x0, "=", 0x0, " ", 0x0, "%", 0x0, "d"
	DCB	0x0, ")", 0x0, 0xd, 0x0, 0xa, 0x0, 0x0, 0x0 ; `string'

  00000			 AREA	 |.rdata|, DATA, READONLY
|??_C@_1JM@HHLGIFC@?$AAT?$AAW?$AAL?$AA?3?$AA?5?$AA?$CB?$AAE?$AAR?$AAR?$AAO?$AAR?$AA?$CI?$AAT?$AAL?$AAD?$AA_?$AAD?$AAe?$AAi?$AAn?$AAi?$AAt?$AA?$CJ?$AA?5?$AA?9?$AA?5?$AAC?$AAa?$AAn?$AA?8?$AAt?$AA?5@| DCB "T"
	DCB	0x0, "W", 0x0, "L", 0x0, ":", 0x0, " ", 0x0, "!", 0x0, "E"
	DCB	0x0, "R", 0x0, "R", 0x0, "O", 0x0, "R", 0x0, "(", 0x0, "T"
	DCB	0x0, "L", 0x0, "D", 0x0, "_", 0x0, "D", 0x0, "e", 0x0, "i"
	DCB	0x0, "n", 0x0, "i", 0x0, "t", 0x0, ")", 0x0, " ", 0x0, "-"
	DCB	0x0, " ", 0x0, "C", 0x0, "a", 0x0, "n", 0x0, "'", 0x0, "t"
	DCB	0x0, " ", 0x0, "d", 0x0, "e", 0x0, "l", 0x0, "e", 0x0, "t"
	DCB	0x0, "e", 0x0, " ", 0x0, "T", 0x0, "r", 0x0, "i", 0x0, "t"
	DCB	0x0, "o", 0x0, "n", 0x0, " ", 0x0, "L", 0x0, "e", 0x0, "d"
	DCB	0x0, " ", 0x0, "d", 0x0, "e", 0x0, "v", 0x0, "i", 0x0, "c"
	DCB	0x0, "e", 0x0, " ", 0x0, "s", 0x0, "i", 0x0, "n", 0x0, "c"
	DCB	0x0, "e", 0x0, " ", 0x0, "r", 0x0, "e", 0x0, "f", 0x0, "C"
	DCB	0x0, "o", 0x0, "u", 0x0, "n", 0x0, "t", 0x0, " ", 0x0, "i"
	DCB	0x0, "s", 0x0, " ", 0x0, "%", 0x0, "d", 0x0, 0x0, 0x0 ; `string'

  00000			 AREA	 |.rdata|, DATA, READONLY
|??_C@_1CM@OJJDFLCC@?$AA?$CL?$AAT?$AAL?$AAD?$AA_?$AAD?$AAe?$AAi?$AAn?$AAi?$AAt?$AA?$CI?$AA0?$AAx?$AA?$CF?$AA0?$AA8?$AAx?$AA?$CJ?$AA?$AN?$AA?6?$AA?$AA@| DCB "+"
	DCB	0x0, "T", 0x0, "L", 0x0, "D", 0x0, "_", 0x0, "D", 0x0, "e"
	DCB	0x0, "i", 0x0, "n", 0x0, "i", 0x0, "t", 0x0, "(", 0x0, "0"
	DCB	0x0, "x", 0x0, "%", 0x0, "0", 0x0, "8", 0x0, "x", 0x0, ")"
	DCB	0x0, 0xd, 0x0, 0xa, 0x0, 0x0, 0x0	; `string'
; Function compile flags: /Ogspy

  00000			 AREA	 |.text|, CODE, ARM

  00000		 |?TLD_Deinit@@YAHK@Z| PROC		; TLD_Deinit

; 435  : {

  00000		 |$LN17@TLD_Deinit|
  00000	e92d4030	 stmdb       sp!, {r4, r5, lr}
  00004		 |$M36470|
  00004	e1a04000	 mov         r4, r0

; 436  :     BOOL rc = FALSE;
; 437  :     Device_t *pDevice = (Device_t*)context;
; 438  : 
; 439  :     RETAILMSG(1, (L"+TLD_Deinit(0x%08x)\r\n", context));

  00008	e59f00a8	 ldr         r0, [pc, #0xA8]
  0000c	e1a01004	 mov         r1, r4
  00010	e3a05000	 mov         r5, #0
  00014	eb000000	 bl          NKDbgPrintfW

; 440  : 
; 441  :     // Check if we get correct context
; 442  :     if ((pDevice == NULL) || (pDevice->cookie != TLED_DEVICE_COOKIE))

  00018	e3540000	 cmp         r4, #0
  0001c	0a00001b	 beq         |$cleanUp$36102|
  00020	e5942000	 ldr         r2, [r4]
  00024	e59f3088	 ldr         r3, [pc, #0x88]
  00028	e1520003	 cmp         r2, r3
  0002c	1a000017	 bne         |$cleanUp$36102|

; 443  :         {
; 444  :         DEBUGMSG (ZONE_ERROR, (L"TLD: !ERROR(TLD_Deinit) - "
; 445  :             L"Incorrect context parameter\r\n"
; 446  :             ));
; 447  :         goto cleanUp;
; 448  :         }
; 449  : 
; 450  :     if (InterlockedIncrement(&pDevice->refCount) != 0)

  00030	e284001c	 add         r0, r4, #0x1C
  00034	eb000000	 bl          InterlockedIncrement
  00038	e3500000	 cmp         r0, #0
  0003c	0a000007	 beq         |$LN3@TLD_Deinit|

; 451  :         {
; 452  :         RETAILMSG(ZONE_WARN, (L"TWL: !ERROR(TLD_Deinit) - "
; 453  :             L"Can't delete Triton Led device since refCount is %d",
; 454  :             pDevice->refCount
; 455  :             ));

  00040	e59f3068	 ldr         r3, [pc, #0x68]
  00044	e5933440	 ldr         r3, [r3, #0x440]
  00048	e3130002	 tst         r3, #2
  0004c	0a00000f	 beq         |$cleanUp$36102|
  00050	e594101c	 ldr         r1, [r4, #0x1C]
  00054	e59f0050	 ldr         r0, [pc, #0x50]
  00058	eb000000	 bl          NKDbgPrintfW

; 474  : 
; 475  : cleanUp:

  0005c	ea00000b	 b           |$cleanUp$36102|
  00060		 |$LN3@TLD_Deinit|

; 456  :         goto cleanUp;
; 457  :         }
; 458  : 
; 459  :     //Close handle to TWL driver
; 460  :     if (pDevice->hTWL != NULL)

  00060	e5943018	 ldr         r3, [r4, #0x18]
  00064	e3530000	 cmp         r3, #0
  00068	0a000003	 beq         |$LN1@TLD_Deinit|

; 461  :         {
; 462  :         CloseHandle(pDevice->hTWL);

  0006c	e1a00003	 mov         r0, r3
  00070	eb000000	 bl          CloseHandle

; 463  :         pDevice->hTWL = NULL;

  00074	e3a03000	 mov         r3, #0
  00078	e5843018	 str         r3, [r4, #0x18]
  0007c		 |$LN1@TLD_Deinit|

; 464  :         }
; 465  : 
; 466  :     // Delete critical sections
; 467  :     DeleteCriticalSection(&pDevice->cs);

  0007c	e2840004	 add         r0, r4, #4
  00080	eb000000	 bl          DeleteCriticalSection

; 468  : 
; 469  :     // Free device structure
; 470  :     LocalFree(pDevice);

  00084	e1a00004	 mov         r0, r4
  00088	eb000000	 bl          LocalFree

; 471  : 
; 472  :     // Done
; 473  :     rc = TRUE;

  0008c	e3a05001	 mov         r5, #1
  00090		 |$cleanUp$36102|

; 476  :     RETAILMSG(1, (L"-TLD_Deinit(rc = %d)\r\n", rc));

  00090	e59f0010	 ldr         r0, [pc, #0x10]
  00094	e1a01005	 mov         r1, r5
  00098	eb000000	 bl          NKDbgPrintfW

; 477  :     return rc;
; 478  : }

  0009c	e1a00005	 mov         r0, r5
  000a0	e8bd4030	 ldmia       sp!, {r4, r5, lr}
  000a4	e12fff1e	 bx          lr
  000a8		 |$LN18@TLD_Deinit|
  000a8		 |$LN19@TLD_Deinit|
  000a8	00000000	 DCD         |??_C@_1CO@MICKMIJI@?$AA?9?$AAT?$AAL?$AAD?$AA_?$AAD?$AAe?$AAi?$AAn?$AAi?$AAt?$AA?$CI?$AAr?$AAc?$AA?5?$AA?$DN?$AA?5?$AA?$CF?$AAd?$AA?$CJ?$AA?$AN?$AA?6?$AA?$AA@|
  000ac		 |$LN20@TLD_Deinit|
  000ac	00000000	 DCD         |??_C@_1JM@HHLGIFC@?$AAT?$AAW?$AAL?$AA?3?$AA?5?$AA?$CB?$AAE?$AAR?$AAR?$AAO?$AAR?$AA?$CI?$AAT?$AAL?$AAD?$AA_?$AAD?$AAe?$AAi?$AAn?$AAi?$AAt?$AA?$CJ?$AA?5?$AA?9?$AA?5?$AAC?$AAa?$AAn?$AA?8?$AAt?$AA?5@|
  000b0		 |$LN21@TLD_Deinit|
  000b0	00000000	 DCD         |dpCurSettings|
  000b4		 |$LN22@TLD_Deinit|
  000b4	746c6444	 DCD         0x746c6444
  000b8		 |$LN23@TLD_Deinit|
  000b8	00000000	 DCD         |??_C@_1CM@OJJDFLCC@?$AA?$CL?$AAT?$AAL?$AAD?$AA_?$AAD?$AAe?$AAi?$AAn?$AAi?$AAt?$AA?$CI?$AA0?$AAx?$AA?$CF?$AA0?$AA8?$AAx?$AA?$CJ?$AA?$AN?$AA?6?$AA?$AA@|
  000bc		 |$M36471|

			 ENDP  ; |?TLD_Deinit@@YAHK@Z|, TLD_Deinit

	EXPORT	|?TLD_Open@@YAKKKK@Z|			; TLD_Open
	EXPORT	|??_C@_1JA@EFLDOMEG@?$AAT?$AAL?$AAD?$AA?3?$AA?5?$AA?$CB?$AAE?$AAR?$AAR?$AAO?$AAR?$AA?$CI?$AAT?$AAL?$AAD?$AA_?$AAO?$AAp?$AAe?$AAn?$AA?$CJ?$AA?5?$AA?9?$AA?5?$AAF?$AAa?$AAi?$AAl?$AAe?$AAd?$AA?5?$AAa@| [ DATA ] ; `string'
	IMPORT	|LocalAlloc|

  00000			 AREA	 |.pdata|, PDATA
|$T36493| DCD	|$LN12@TLD_Open|
	DCD	0x40002301

  00000			 AREA	 |.rdata|, DATA, READONLY
|??_C@_1JA@EFLDOMEG@?$AAT?$AAL?$AAD?$AA?3?$AA?5?$AA?$CB?$AAE?$AAR?$AAR?$AAO?$AAR?$AA?$CI?$AAT?$AAL?$AAD?$AA_?$AAO?$AAp?$AAe?$AAn?$AA?$CJ?$AA?5?$AA?9?$AA?5?$AAF?$AAa?$AAi?$AAl?$AAe?$AAd?$AA?5?$AAa@| DCB "T"
	DCB	0x0, "L", 0x0, "D", 0x0, ":", 0x0, " ", 0x0, "!", 0x0, "E"
	DCB	0x0, "R", 0x0, "R", 0x0, "O", 0x0, "R", 0x0, "(", 0x0, "T"
	DCB	0x0, "L", 0x0, "D", 0x0, "_", 0x0, "O", 0x0, "p", 0x0, "e"
	DCB	0x0, "n", 0x0, ")", 0x0, " ", 0x0, "-", 0x0, " ", 0x0, "F"
	DCB	0x0, "a", 0x0, "i", 0x0, "l", 0x0, "e", 0x0, "d", 0x0, " "
	DCB	0x0, "a", 0x0, "l", 0x0, "l", 0x0, "o", 0x0, "c", 0x0, "a"
	DCB	0x0, "t", 0x0, "e", 0x0, " ", 0x0, "T", 0x0, "r", 0x0, "i"
	DCB	0x0, "t", 0x0, "o", 0x0, "n", 0x0, " ", 0x0, "L", 0x0, "E"
	DCB	0x0, "D", 0x0, " ", 0x0, "i", 0x0, "n", 0x0, "s", 0x0, "t"
	DCB	0x0, "a", 0x0, "n", 0x0, "c", 0x0, "e", 0x0, " ", 0x0, "s"
	DCB	0x0, "t", 0x0, "r", 0x0, "u", 0x0, "c", 0x0, "t", 0x0, "u"
	DCB	0x0, "r", 0x0, "e", 0x0, 0xd, 0x0, 0xa, 0x0, 0x0, 0x0 ; `string'
; Function compile flags: /Ogspy

  00000			 AREA	 |.text|, CODE, ARM

  00000		 |?TLD_Open@@YAKKKK@Z| PROC		; TLD_Open

; 492  : {

  00000		 |$LN12@TLD_Open|
  00000	e92d4070	 stmdb       sp!, {r4 - r6, lr}
  00004		 |$M36490|
  00004	e1b05000	 movs        r5, r0

; 493  :     DEBUGMSG(ZONE_FUNCTION, (L"+TLD_Open(0x%08x, 0x%08x, 0x%08x)\r\n", 
; 494  :         context, accessCode, shareMode));
; 495  : 
; 496  :     UNREFERENCED_PARAMETER(accessCode);
; 497  :     UNREFERENCED_PARAMETER(shareMode);
; 498  : 
; 499  :     DWORD dw = 0;

  00008	e3a04000	 mov         r4, #0

; 500  :     Instance_t *pInstance;
; 501  :     Device_t *pDevice = (Device_t*)context;
; 502  :     if ((pDevice == NULL) || (pDevice->cookie != TLED_DEVICE_COOKIE))

  0000c	0a000017	 beq         |$cleanUp$36122|
  00010	e5952000	 ldr         r2, [r5]
  00014	e59f306c	 ldr         r3, [pc, #0x6C]
  00018	e1520003	 cmp         r2, r3
  0001c	1a000013	 bne         |$cleanUp$36122|

; 503  : 	{
; 504  :         DEBUGMSG (ZONE_ERROR, (L"TLD: !ERROR(TLD_Open) - "
; 505  :             L"Incorrect context parameter\r\n"));
; 506  :         goto cleanUp;
; 507  : 	}
; 508  : 
; 509  :     // Create device structure
; 510  :     pInstance = (Instance_t *)LocalAlloc(LPTR, sizeof(Instance_t));

  00020	e3a01010	 mov         r1, #0x10
  00024	e3a00040	 mov         r0, #0x40
  00028	eb000000	 bl          LocalAlloc
  0002c	e1b06000	 movs        r6, r0

; 511  :     if (pInstance == NULL)

  00030	1a000006	 bne         |$LN2@TLD_Open|

; 512  : 	{
; 513  :         RETAILMSG(ZONE_ERROR, (L"TLD: !ERROR(TLD_Open) - "
; 514  :             L"Failed allocate Triton LED instance structure\r\n"));

  00034	e59f3048	 ldr         r3, [pc, #0x48]
  00038	e5933440	 ldr         r3, [r3, #0x440]
  0003c	e3130001	 tst         r3, #1
  00040	0a00000a	 beq         |$cleanUp$36122|
  00044	e59f0034	 ldr         r0, [pc, #0x34]
  00048	eb000000	 bl          NKDbgPrintfW

; 529  : 
; 530  : cleanUp:

  0004c	ea000007	 b           |$cleanUp$36122|
  00050		 |$LN2@TLD_Open|

; 515  : 
; 516  :         goto cleanUp;
; 517  : 	}
; 518  : 
; 519  :     // increment device refCount
; 520  :     InterlockedIncrement(&pDevice->refCount);

  00050	e285001c	 add         r0, r5, #0x1C
  00054	eb000000	 bl          InterlockedIncrement

; 521  : 
; 522  :     // initialize data structure
; 523  :     pInstance->cookie = TLED_INSTANCE_COOKIE;

  00058	e59f301c	 ldr         r3, [pc, #0x1C]

; 524  :     pInstance->pDevice = pDevice;
; 525  :     pInstance->channel = (DWORD) -1;

  0005c	e3e02000	 mvn         r2, #0
  00060	e5862008	 str         r2, [r6, #8]
  00064	e8860028	 stmia       r6, {r3, r5}

; 526  :     pInstance->dutyCycle = (DWORD) -1;

  00068	e586200c	 str         r2, [r6, #0xC]

; 527  : 
; 528  :     dw = (DWORD)pInstance;

  0006c	e1a04006	 mov         r4, r6
  00070		 |$cleanUp$36122|

; 531  :     DEBUGMSG(ZONE_FUNCTION, (L"-TLD_Open(0x%08x, 0x%08x, 0x%08x) == %d\r\n", 
; 532  :         context, accessCode, shareMode, dw));
; 533  : 
; 534  :     return dw;
; 535  : }

  00070	e1a00004	 mov         r0, r4
  00074	e8bd4070	 ldmia       sp!, {r4 - r6, lr}
  00078	e12fff1e	 bx          lr
  0007c		 |$LN13@TLD_Open|
  0007c		 |$LN14@TLD_Open|
  0007c	746c6449	 DCD         0x746c6449
  00080		 |$LN15@TLD_Open|
  00080	00000000	 DCD         |??_C@_1JA@EFLDOMEG@?$AAT?$AAL?$AAD?$AA?3?$AA?5?$AA?$CB?$AAE?$AAR?$AAR?$AAO?$AAR?$AA?$CI?$AAT?$AAL?$AAD?$AA_?$AAO?$AAp?$AAe?$AAn?$AA?$CJ?$AA?5?$AA?9?$AA?5?$AAF?$AAa?$AAi?$AAl?$AAe?$AAd?$AA?5?$AAa@|
  00084		 |$LN16@TLD_Open|
  00084	00000000	 DCD         |dpCurSettings|
  00088		 |$LN17@TLD_Open|
  00088	746c6444	 DCD         0x746c6444
  0008c		 |$M36491|

			 ENDP  ; |?TLD_Open@@YAKKKK@Z|, TLD_Open

	EXPORT	|?TLD_Close@@YAHK@Z|			; TLD_Close
	EXPORT	|??_C@_1JA@LCEIAHHD@?$AAT?$AAL?$AAD?$AA?3?$AA?5?$AA?$CB?$AAE?$AAR?$AAR?$AAO?$AAR?$AA?$CI?$AAT?$AAL?$AAD?$AA_?$AAC?$AAl?$AAo?$AAs?$AAe?$AA?$CJ?$AA?5?$AA?9?$AA?5?$AAr?$AAe?$AAf?$AAC?$AAo?$AAu?$AAn@| [ DATA ] ; `string'
	IMPORT	|InterlockedDecrement|

  00000			 AREA	 |.pdata|, PDATA
|$T36511| DCD	|$LN10@TLD_Close|
	DCD	0x40001701

  00000			 AREA	 |.rdata|, DATA, READONLY
|??_C@_1JA@LCEIAHHD@?$AAT?$AAL?$AAD?$AA?3?$AA?5?$AA?$CB?$AAE?$AAR?$AAR?$AAO?$AAR?$AA?$CI?$AAT?$AAL?$AAD?$AA_?$AAC?$AAl?$AAo?$AAs?$AAe?$AA?$CJ?$AA?5?$AA?9?$AA?5?$AAr?$AAe?$AAf?$AAC?$AAo?$AAu?$AAn@| DCB "T"
	DCB	0x0, "L", 0x0, "D", 0x0, ":", 0x0, " ", 0x0, "!", 0x0, "E"
	DCB	0x0, "R", 0x0, "R", 0x0, "O", 0x0, "R", 0x0, "(", 0x0, "T"
	DCB	0x0, "L", 0x0, "D", 0x0, "_", 0x0, "C", 0x0, "l", 0x0, "o"
	DCB	0x0, "s", 0x0, "e", 0x0, ")", 0x0, " ", 0x0, "-", 0x0, " "
	DCB	0x0, "r", 0x0, "e", 0x0, "f", 0x0, "C", 0x0, "o", 0x0, "u"
	DCB	0x0, "n", 0x0, "t", 0x0, " ", 0x0, "i", 0x0, "s", 0x0, " "
	DCB	0x0, "z", 0x0, "e", 0x0, "r", 0x0, "o", 0x0, " ", 0x0, "o"
	DCB	0x0, "n", 0x0, " ", 0x0, "c", 0x0, "l", 0x0, "o", 0x0, "s"
	DCB	0x0, "e", 0x0, " ", 0x0, "o", 0x0, "f", 0x0, " ", 0x0, "i"
	DCB	0x0, "n", 0x0, "s", 0x0, "t", 0x0, "a", 0x0, "n", 0x0, "c"
	DCB	0x0, "e", 0x0, " ", 0x0, "h", 0x0, "a", 0x0, "n", 0x0, "d"
	DCB	0x0, "l", 0x0, "e", 0x0, 0xd, 0x0, 0xa, 0x0, 0x0, 0x0 ; `string'
; Function compile flags: /Ogspy

  00000			 AREA	 |.text|, CODE, ARM

  00000		 |?TLD_Close@@YAHK@Z| PROC		; TLD_Close

; 547  : {

  00000		 |$LN10@TLD_Close|
  00000	e92d4010	 stmdb       sp!, {r4, lr}
  00004		 |$M36508|

; 548  :     DEBUGMSG(ZONE_FUNCTION, (L"+TLD_Close(0x%08x)\r\n", 
; 549  :         context
; 550  :         ));
; 551  : 
; 552  :     Instance_t *pInstance = (Instance_t*)context;
; 553  :     Device_t *pDevice = pInstance->pDevice;
; 554  :     if ((pInstance == NULL) || (pInstance->cookie != TLED_INSTANCE_COOKIE))

  00004	e5902000	 ldr         r2, [r0]
  00008	e59f3048	 ldr         r3, [pc, #0x48]
  0000c	e5904004	 ldr         r4, [r0, #4]
  00010	e1520003	 cmp         r2, r3
  00014	1a00000a	 bne         |$cleanUp$36143|

; 555  :         {
; 556  :         DEBUGMSG (ZONE_ERROR, (L"TLD: !ERROR(TLD_Close) - "
; 557  :             L"Incorrect context parameter\r\n"
; 558  :             ));
; 559  :         goto cleanUp;
; 560  :         }
; 561  : 
; 562  :     // release memory
; 563  :     LocalFree(pInstance);

  00018	eb000000	 bl          LocalFree

; 564  : 
; 565  :     // decrement device refCount
; 566  :     InterlockedDecrement(&pDevice->refCount);

  0001c	e284001c	 add         r0, r4, #0x1C
  00020	eb000000	 bl          InterlockedDecrement

; 567  : 
; 568  :     RETAILMSG(ZONE_ERROR && !pDevice->refCount, (L"TLD: !ERROR(TLD_Close) - "
; 569  :         L"refCount is zero on close of instance handle\r\n"
; 570  :         ));

  00024	e59f3028	 ldr         r3, [pc, #0x28]
  00028	e5933440	 ldr         r3, [r3, #0x440]
  0002c	e3130001	 tst         r3, #1
  00030	0a000003	 beq         |$cleanUp$36143|
  00034	e594301c	 ldr         r3, [r4, #0x1C]
  00038	e3530000	 cmp         r3, #0
  0003c	059f000c	 ldreq       r0, [pc, #0xC]
  00040	0b000000	 bleq        NKDbgPrintfW
  00044		 |$cleanUp$36143|

; 571  : 
; 572  : cleanUp:
; 573  :     DEBUGMSG(ZONE_FUNCTION, (L"-TLD_Close(0x%08x)\r\n", 
; 574  :         context
; 575  :         ));
; 576  : 
; 577  :     return TRUE;

  00044	e3a00001	 mov         r0, #1

; 578  : }

  00048	e8bd4010	 ldmia       sp!, {r4, lr}
  0004c	e12fff1e	 bx          lr
  00050		 |$LN11@TLD_Close|
  00050		 |$LN12@TLD_Close|
  00050	00000000	 DCD         |??_C@_1JA@LCEIAHHD@?$AAT?$AAL?$AAD?$AA?3?$AA?5?$AA?$CB?$AAE?$AAR?$AAR?$AAO?$AAR?$AA?$CI?$AAT?$AAL?$AAD?$AA_?$AAC?$AAl?$AAo?$AAs?$AAe?$AA?$CJ?$AA?5?$AA?9?$AA?5?$AAr?$AAe?$AAf?$AAC?$AAo?$AAu?$AAn@|
  00054		 |$LN13@TLD_Close|
  00054	00000000	 DCD         |dpCurSettings|
  00058		 |$LN14@TLD_Close|
  00058	746c6449	 DCD         0x746c6449
  0005c		 |$M36509|

			 ENDP  ; |?TLD_Close@@YAHK@Z|, TLD_Close

	EXPORT	|?TLD_IOControl@@YAHKKPAEK0KPAK@Z|	; TLD_IOControl
	EXPORT	|??_C@_1GI@LEACMMDI@?$AAE?$AAR?$AAR?$AAO?$AAR?$AA?3?$AA?5?$AAT?$AAL?$AAD?$AA_?$AAI?$AAO?$AAC?$AAo?$AAn?$AAt?$AAr?$AAo?$AAl?$AA?3?$AA?5?$AAI?$AAn?$AAc?$AAo?$AAr?$AAr?$AAe?$AAc?$AAt?$AA?5@| [ DATA ] ; `string'
	EXPORT	|??_C@_1OG@JPDIKJHA@?$AAE?$AAR?$AAR?$AAO?$AAR?$AA?3?$AA?5?$AAT?$AAL?$AAD?$AA_?$AAI?$AAO?$AAC?$AAo?$AAn?$AAt?$AAr?$AAo?$AAl?$AA?3?$AA?5?$AAI?$AAO?$AAC?$AAT?$AAL?$AA_?$AAD?$AAD?$AAK?$AA_@| [ DATA ] ; `string'
	IMPORT	|CeSafeCopyMemory|
	IMPORT	|SetLastError|
	IMPORT	|GetCallerProcess|
; File c:\wince600\public\common\sdk\inc\objbase.h

  00000			 AREA	 |.pdata|, PDATA
|$T36547| DCD	|$LN31@TLD_IOCont|
	DCD	0x40005202

  00000			 AREA	 |.rdata|, DATA, READONLY
|??_C@_1GI@LEACMMDI@?$AAE?$AAR?$AAR?$AAO?$AAR?$AA?3?$AA?5?$AAT?$AAL?$AAD?$AA_?$AAI?$AAO?$AAC?$AAo?$AAn?$AAt?$AAr?$AAo?$AAl?$AA?3?$AA?5?$AAI?$AAn?$AAc?$AAo?$AAr?$AAr?$AAe?$AAc?$AAt?$AA?5@| DCB "E"
	DCB	0x0, "R", 0x0, "R", 0x0, "O", 0x0, "R", 0x0, ":", 0x0, " "
	DCB	0x0, "T", 0x0, "L", 0x0, "D", 0x0, "_", 0x0, "I", 0x0, "O"
	DCB	0x0, "C", 0x0, "o", 0x0, "n", 0x0, "t", 0x0, "r", 0x0, "o"
	DCB	0x0, "l", 0x0, ":", 0x0, " ", 0x0, "I", 0x0, "n", 0x0, "c"
	DCB	0x0, "o", 0x0, "r", 0x0, "r", 0x0, "e", 0x0, "c", 0x0, "t"
	DCB	0x0, " ", 0x0, "c", 0x0, "o", 0x0, "n", 0x0, "t", 0x0, "e"
	DCB	0x0, "x", 0x0, "t", 0x0, " ", 0x0, "p", 0x0, "a", 0x0, "r"
	DCB	0x0, "a", 0x0, "m", 0x0, "e", 0x0, "t", 0x0, "e", 0x0, "r"
	DCB	0x0, 0xd, 0x0, 0xa, 0x0, 0x0, 0x0	; `string'

  00000			 AREA	 |.rdata|, DATA, READONLY
|??_C@_1OG@JPDIKJHA@?$AAE?$AAR?$AAR?$AAO?$AAR?$AA?3?$AA?5?$AAT?$AAL?$AAD?$AA_?$AAI?$AAO?$AAC?$AAo?$AAn?$AAt?$AAr?$AAo?$AAl?$AA?3?$AA?5?$AAI?$AAO?$AAC?$AAT?$AAL?$AA_?$AAD?$AAD?$AAK?$AA_@| DCB "E"
	DCB	0x0, "R", 0x0, "R", 0x0, "O", 0x0, "R", 0x0, ":", 0x0, " "
	DCB	0x0, "T", 0x0, "L", 0x0, "D", 0x0, "_", 0x0, "I", 0x0, "O"
	DCB	0x0, "C", 0x0, "o", 0x0, "n", 0x0, "t", 0x0, "r", 0x0, "o"
	DCB	0x0, "l", 0x0, ":", 0x0, " ", 0x0, "I", 0x0, "O", 0x0, "C"
	DCB	0x0, "T", 0x0, "L", 0x0, "_", 0x0, "D", 0x0, "D", 0x0, "K"
	DCB	0x0, "_", 0x0, "G", 0x0, "E", 0x0, "T", 0x0, "_", 0x0, "D"
	DCB	0x0, "R", 0x0, "I", 0x0, "V", 0x0, "E", 0x0, "R", 0x0, "_"
	DCB	0x0, "I", 0x0, "F", 0x0, "C", 0x0, " ", 0x0, "c", 0x0, "a"
	DCB	0x0, "n", 0x0, " ", 0x0, "b", 0x0, "e", 0x0, " ", 0x0, "c"
	DCB	0x0, "a", 0x0, "l", 0x0, "l", 0x0, "e", 0x0, "d", 0x0, " "
	DCB	0x0, "o", 0x0, "n", 0x0, "l", 0x0, "y", 0x0, " ", 0x0, "f"
	DCB	0x0, "r", 0x0, "o", 0x0, "m", 0x0, " ", 0x0, "d", 0x0, "e"
	DCB	0x0, "v", 0x0, "i", 0x0, "c", 0x0, "e", 0x0, " ", 0x0, "p"
	DCB	0x0, "r", 0x0, "o", 0x0, "c", 0x0, "e", 0x0, "s", 0x0, "s"
	DCB	0x0, " ", 0x0, "(", 0x0, "c", 0x0, "a", 0x0, "l", 0x0, "l"
	DCB	0x0, "e", 0x0, "r", 0x0, " ", 0x0, "p", 0x0, "r", 0x0, "o"
	DCB	0x0, "c", 0x0, "e", 0x0, "s", 0x0, "s", 0x0, " ", 0x0, "i"
	DCB	0x0, "d", 0x0, " ", 0x0, "0", 0x0, "x", 0x0, "%", 0x0, "0"
	DCB	0x0, "8", 0x0, "x", 0x0, ")", 0x0, 0xd, 0x0, 0xa, 0x0, 0x0
	DCB	0x0					; `string'
; Function compile flags: /Ogspy
; File c:\wince600\platform\common\src\soc\common_ti_v1\tps659xx\tled\tled.cpp

  00000			 AREA	 |.text|, CODE, ARM

  00000		 |?TLD_IOControl@@YAHKKPAEK0KPAK@Z| PROC ; TLD_IOControl

; 593  : {

  00000		 |$LN31@TLD_IOCont|
  00000	e92d41f0	 stmdb       sp!, {r4 - r8, lr}
  00004	e24dd00c	 sub         sp, sp, #0xC
  00008		 |$M36544|
  00008	e1a07003	 mov         r7, r3
  0000c	e1a06002	 mov         r6, r2
  00010	e1b08000	 movs        r8, r0

; 594  :     BOOL rc = FALSE;

  00014	e3a05000	 mov         r5, #0

; 595  :     DEVICE_IFC_TLED ifc;
; 596  :     Instance_t *pInstance = (Instance_t*)context;
; 597  :     
; 598  : 
; 599  :     DEBUGMSG(ZONE_FUNCTION, (
; 600  :         L"+TLD_IOControl(0x%08x, 0x%08x, 0x%08x, %d, 0x%08x, %d, 0x%08x)\r\n",
; 601  :         context, code, pInBuffer, inSize, pOutBuffer, outSize, pOutSize));
; 602  : 
; 603  :     // Check if we get correct context
; 604  :     if ((pInstance == NULL) || (pInstance->cookie != TLED_INSTANCE_COOKIE))

  00018	0a00003a	 beq         |$LN13@TLD_IOCont|
  0001c	e5984000	 ldr         r4, [r8]
  00020	e59fe11c	 ldr         lr, [pc, #0x11C]
  00024	e154000e	 cmp         r4, lr
  00028	1a000036	 bne         |$LN13@TLD_IOCont|
  0002c	e3a03822	 mov         r3, #0x22, 16

; 608  :         goto cleanUp;
; 609  : 	}
; 610  : 
; 611  :     switch (code)

  00030	e383eb01	 orr         lr, r3, #1, 22
  00034	e151000e	 cmp         r1, lr
  00038	1a000037	 bne         |$cleanUp$36164|

; 612  : 	{
; 613  :         case IOCTL_DDK_GET_DRIVER_IFC:
; 614  :             // We can give interface only to our peer in device process
; 615  :             if (GetCurrentProcessId() != (DWORD)GetCallerProcess())

  0003c	e3a0000c	 mov         r0, #0xC
  00040	eb000000	 bl          __GetUserKData
  00044	e1a04000	 mov         r4, r0
  00048	eb000000	 bl          GetCallerProcess
  0004c	e1540000	 cmp         r4, r0
  00050	0a00000a	 beq         |$LN8@TLD_IOCont|

; 616  :                 {
; 617  :                 RETAILMSG(ZONE_ERROR, (L"ERROR: TLD_IOControl: "
; 618  :                     L"IOCTL_DDK_GET_DRIVER_IFC can be called only from "
; 619  :                     L"device process (caller process id 0x%08x)\r\n",
; 620  :                     GetCallerProcess()
; 621  :                     ));

  00054	e59f30d4	 ldr         r3, [pc, #0xD4]
  00058	e5933440	 ldr         r3, [r3, #0x440]
  0005c	e3130001	 tst         r3, #1
  00060	0a000003	 beq         |$LN19@TLD_IOCont|
  00064	eb000000	 bl          GetCallerProcess
  00068	e1a01000	 mov         r1, r0
  0006c	e59f00cc	 ldr         r0, [pc, #0xCC]
  00070	eb000000	 bl          NKDbgPrintfW
  00074		 |$LN19@TLD_IOCont|

; 622  :                 SetLastError(ERROR_ACCESS_DENIED);

  00074	e3a00005	 mov         r0, #5

; 627  :                 {
; 628  :                 SetLastError(ERROR_INVALID_PARAMETER);

  00078	eb000000	 bl          SetLastError

; 648  :                 break;
; 649  :                 }
; 650  :             SetLastError(ERROR_INVALID_PARAMETER);
; 651  :             break;
; 652  : 	}
; 653  : 
; 654  : cleanUp:

  0007c	ea000026	 b           |$cleanUp$36164|
  00080		 |$LN8@TLD_IOCont|

; 623  :                 break;
; 624  :                 }
; 625  :             // Check input parameters
; 626  :             if ((pInBuffer == NULL) || (inSize < sizeof(GUID)))

  00080	e3560000	 cmp         r6, #0
  00084	0a00001c	 beq         |$LN6@TLD_IOCont|
  00088	e3570010	 cmp         r7, #0x10
  0008c	3a00001a	 bcc         |$LN6@TLD_IOCont|

; 629  :                 break;
; 630  :                 }
; 631  :             if (IsEqualGUID(*(GUID*)pInBuffer, DEVICE_IFC_TLED_GUID))

  00090	e59f10a4	 ldr         r1, [pc, #0xA4]
  00094	e3a02010	 mov         r2, #0x10
  00098	e1a00006	 mov         r0, r6
  0009c	eb000000	 bl          memcmp
  000a0	e3500000	 cmp         r0, #0
  000a4	1a000014	 bne         |$LN6@TLD_IOCont|

; 632  :                 {
; 633  :                 if (pOutSize != NULL) *pOutSize = sizeof(DEVICE_IFC_TLED);

  000a8	e59d302c	 ldr         r3, [sp, #0x2C]

; 634  :                 if (pOutBuffer == NULL || outSize < sizeof(DEVICE_IFC_TLED))

  000ac	e59d0024	 ldr         r0, [sp, #0x24]
  000b0	e3530000	 cmp         r3, #0
  000b4	13a0200c	 movne       r2, #0xC
  000b8	15832000	 strne       r2, [r3]
  000bc	e3500000	 cmp         r0, #0
  000c0	0a00000d	 beq         |$LN6@TLD_IOCont|
  000c4	e59d3028	 ldr         r3, [sp, #0x28]
  000c8	e353000c	 cmp         r3, #0xC
  000cc	3a00000a	 bcc         |$LN6@TLD_IOCont|

; 635  :                     {
; 636  :                     SetLastError(ERROR_INVALID_PARAMETER);
; 637  :                     break;
; 638  :                     }
; 639  :                 ifc.context = context;
; 640  :                 ifc.pfnSetChannel = SetChannel;
; 641  :                 ifc.pfnSetDutyCycle = SetDutyCycle;

  000d0	e59f1060	 ldr         r1, [pc, #0x60]
  000d4	e59f3058	 ldr         r3, [pc, #0x58]

; 642  :                 if (!CeSafeCopyMemory(pOutBuffer, &ifc, sizeof(DEVICE_IFC_TLED)))

  000d8	e3a0200c	 mov         r2, #0xC
  000dc	e58d1008	 str         r1, [sp, #8]
  000e0	e28d1000	 add         r1, sp, #0
  000e4	e58d3004	 str         r3, [sp, #4]
  000e8	e58d8000	 str         r8, [sp]
  000ec	eb000000	 bl          CeSafeCopyMemory
  000f0	e3500000	 cmp         r0, #0

; 643  :                     {
; 644  :                     SetLastError(ERROR_INVALID_PARAMETER);
; 645  :                     break;
; 646  :                     }
; 647  :                 rc = TRUE;

  000f4	13a05001	 movne       r5, #1
  000f8	1a000007	 bne         |$cleanUp$36164|
  000fc		 |$LN6@TLD_IOCont|

; 627  :                 {
; 628  :                 SetLastError(ERROR_INVALID_PARAMETER);

  000fc	e3a00057	 mov         r0, #0x57
  00100	eb000000	 bl          SetLastError

; 648  :                 break;
; 649  :                 }
; 650  :             SetLastError(ERROR_INVALID_PARAMETER);
; 651  :             break;
; 652  : 	}
; 653  : 
; 654  : cleanUp:

  00104	ea000004	 b           |$cleanUp$36164|
  00108		 |$LN13@TLD_IOCont|

; 605  : 	{
; 606  :         RETAILMSG(ZONE_ERROR, (L"ERROR: TLD_IOControl: "
; 607  :             L"Incorrect context parameter\r\n"));

  00108	e59f3020	 ldr         r3, [pc, #0x20]
  0010c	e5933440	 ldr         r3, [r3, #0x440]
  00110	e3130001	 tst         r3, #1
  00114	159f0010	 ldrne       r0, [pc, #0x10]
  00118	1b000000	 blne        NKDbgPrintfW
  0011c		 |$cleanUp$36164|

; 655  : 
; 656  :     DEBUGMSG(ZONE_FUNCTION, (L"-TLD_IOControl(rc = %d)\r\n", rc));
; 657  :     return rc;
; 658  : }

  0011c	e1a00005	 mov         r0, r5
  00120	e28dd00c	 add         sp, sp, #0xC
  00124	e8bd41f0	 ldmia       sp!, {r4 - r8, lr}
  00128	e12fff1e	 bx          lr
  0012c		 |$LN32@TLD_IOCont|
  0012c		 |$LN33@TLD_IOCont|
  0012c	00000000	 DCD         |??_C@_1GI@LEACMMDI@?$AAE?$AAR?$AAR?$AAO?$AAR?$AA?3?$AA?5?$AAT?$AAL?$AAD?$AA_?$AAI?$AAO?$AAC?$AAo?$AAn?$AAt?$AAr?$AAo?$AAl?$AA?3?$AA?5?$AAI?$AAn?$AAc?$AAo?$AAr?$AAr?$AAe?$AAc?$AAt?$AA?5@|
  00130		 |$LN34@TLD_IOCont|
  00130	00000000	 DCD         |dpCurSettings|
  00134		 |$LN35@TLD_IOCont|
  00134	00000000	 DCD         |?SetChannel@@YAHKK@Z|
  00138		 |$LN36@TLD_IOCont|
  00138	00000000	 DCD         |?SetDutyCycle@@YAHKK@Z|
  0013c		 |$LN37@TLD_IOCont|
  0013c	00000000	 DCD         |DEVICE_IFC_TLED_GUID|
  00140		 |$LN38@TLD_IOCont|
  00140	00000000	 DCD         |??_C@_1OG@JPDIKJHA@?$AAE?$AAR?$AAR?$AAO?$AAR?$AA?3?$AA?5?$AAT?$AAL?$AAD?$AA_?$AAI?$AAO?$AAC?$AAo?$AAn?$AAt?$AAr?$AAo?$AAl?$AA?3?$AA?5?$AAI?$AAO?$AAC?$AAT?$AAL?$AA_?$AAD?$AAD?$AAK?$AA_@|
  00144		 |$LN39@TLD_IOCont|
  00144	746c6449	 DCD         0x746c6449
  00148		 |$M36545|

			 ENDP  ; |?TLD_IOControl@@YAHKKPAEK0KPAK@Z|, TLD_IOControl

	EXPORT	|DllMain|
	IMPORT	|DisableThreadLibraryCalls|
	IMPORT	|RegisterDbgZones|

  00000			 AREA	 |.pdata|, PDATA
|$T36566| DCD	|$LN8@DllMain|
	DCD	0x40000c01
; Function compile flags: /Ogspy

  00000			 AREA	 |.text|, CODE, ARM

  00000		 |DllMain| PROC

; 669  : {

  00000		 |$LN8@DllMain|
  00000	e92d4010	 stmdb       sp!, {r4, lr}
  00004		 |$M36563|
  00004	e1a04000	 mov         r4, r0

; 670  :     UNREFERENCED_PARAMETER(pReserved);
; 671  :     switch(Reason) 

  00008	e3510001	 cmp         r1, #1
  0000c	1a000003	 bne         |$LN2@DllMain|

; 672  :         {
; 673  :         case DLL_PROCESS_ATTACH:
; 674  :             RETAILREGISTERZONES((HMODULE)hDLL);

  00010	e59f1014	 ldr         r1, [pc, #0x14]
  00014	eb000000	 bl          RegisterDbgZones

; 675  :             DisableThreadLibraryCalls((HMODULE)hDLL);

  00018	e1a00004	 mov         r0, r4
  0001c	eb000000	 bl          DisableThreadLibraryCalls
  00020		 |$LN2@DllMain|

; 676  :             break;
; 677  :         }
; 678  :     return TRUE;

  00020	e3a00001	 mov         r0, #1

; 679  : }

  00024	e8bd4010	 ldmia       sp!, {r4, lr}
  00028	e12fff1e	 bx          lr
  0002c		 |$LN9@DllMain|
  0002c		 |$LN10@DllMain|
  0002c	00000000	 DCD         |dpCurSettings|
  00030		 |$M36564|

			 ENDP  ; |DllMain|

	EXPORT	|?TLD_Init@@YAKPBGPBX@Z|		; TLD_Init
	EXPORT	|??_C@_1CI@EECKNKAE@?$AA?9?$AAT?$AAL?$AAD?$AA_?$AAI?$AAn?$AAi?$AAt?$AA?$CI?$AAr?$AAc?$AA?5?$AA?$DN?$AA?5?$AA?$CF?$AAd?$AA?$AN?$AA?6?$AA?$AA@| [ DATA ] ; `string'
	EXPORT	|??_C@_1GI@OFBLHIJO@?$AAE?$AAR?$AAR?$AAO?$AAR?$AA?3?$AA?5?$AAT?$AAL?$AAD?$AA_?$AAI?$AAn?$AAi?$AAt?$AA?3?$AA?5?$AAF?$AAa?$AAi?$AAl?$AAe?$AAd?$AA?5?$AAo?$AAp?$AAe?$AAn?$AA?5?$AAT?$AAr?$AAi@| [ DATA ] ; `string'
	EXPORT	|??_C@_1HO@KHCEBHIB@?$AAE?$AAR?$AAR?$AAO?$AAR?$AA?3?$AA?5?$AAT?$AAL?$AAD?$AA_?$AAI?$AAn?$AAi?$AAt?$AA?3?$AA?5?$AAF?$AAa?$AAi?$AAl?$AAe?$AAd?$AA?5?$AAa?$AAl?$AAl?$AAo?$AAc?$AAa?$AAt?$AAe@| [ DATA ] ; `string'
	EXPORT	|??_C@_1DA@GLLBLDJ@?$AA?$CL?$AAT?$AAL?$AAD?$AA_?$AAI?$AAn?$AAi?$AAt?$AA?$CI?$AA?$CF?$AAs?$AA?0?$AA?5?$AA0?$AAx?$AA?$CF?$AA0?$AA8?$AAx?$AA?$CJ?$AA?$AN?$AA?6?$AA?$AA@| [ DATA ] ; `string'
	IMPORT	|TWLOpen|
	IMPORT	|InitializeCriticalSection|
	IMPORT	|GetDeviceRegistryParams|

  00000			 AREA	 |.pdata|, PDATA
|$T36591| DCD	|$LN24@TLD_Init|
	DCD	0x40003e01

  00000			 AREA	 |.rdata|, DATA, READONLY
|??_C@_1CI@EECKNKAE@?$AA?9?$AAT?$AAL?$AAD?$AA_?$AAI?$AAn?$AAi?$AAt?$AA?$CI?$AAr?$AAc?$AA?5?$AA?$DN?$AA?5?$AA?$CF?$AAd?$AA?$AN?$AA?6?$AA?$AA@| DCB "-"
	DCB	0x0, "T", 0x0, "L", 0x0, "D", 0x0, "_", 0x0, "I", 0x0, "n"
	DCB	0x0, "i", 0x0, "t", 0x0, "(", 0x0, "r", 0x0, "c", 0x0, " "
	DCB	0x0, "=", 0x0, " ", 0x0, "%", 0x0, "d", 0x0, 0xd, 0x0, 0xa
	DCB	0x0, 0x0, 0x0				; `string'

  00000			 AREA	 |.rdata|, DATA, READONLY
|??_C@_1GI@OFBLHIJO@?$AAE?$AAR?$AAR?$AAO?$AAR?$AA?3?$AA?5?$AAT?$AAL?$AAD?$AA_?$AAI?$AAn?$AAi?$AAt?$AA?3?$AA?5?$AAF?$AAa?$AAi?$AAl?$AAe?$AAd?$AA?5?$AAo?$AAp?$AAe?$AAn?$AA?5?$AAT?$AAr?$AAi@| DCB "E"
	DCB	0x0, "R", 0x0, "R", 0x0, "O", 0x0, "R", 0x0, ":", 0x0, " "
	DCB	0x0, "T", 0x0, "L", 0x0, "D", 0x0, "_", 0x0, "I", 0x0, "n"
	DCB	0x0, "i", 0x0, "t", 0x0, ":", 0x0, " ", 0x0, "F", 0x0, "a"
	DCB	0x0, "i", 0x0, "l", 0x0, "e", 0x0, "d", 0x0, " ", 0x0, "o"
	DCB	0x0, "p", 0x0, "e", 0x0, "n", 0x0, " ", 0x0, "T", 0x0, "r"
	DCB	0x0, "i", 0x0, "t", 0x0, "o", 0x0, "n", 0x0, " ", 0x0, "d"
	DCB	0x0, "e", 0x0, "v", 0x0, "i", 0x0, "c", 0x0, "e", 0x0, " "
	DCB	0x0, "d", 0x0, "r", 0x0, "i", 0x0, "v", 0x0, "e", 0x0, "r"
	DCB	0x0, 0xd, 0x0, 0xa, 0x0, 0x0, 0x0	; `string'

  00000			 AREA	 |.rdata|, DATA, READONLY
|??_C@_1HO@KHCEBHIB@?$AAE?$AAR?$AAR?$AAO?$AAR?$AA?3?$AA?5?$AAT?$AAL?$AAD?$AA_?$AAI?$AAn?$AAi?$AAt?$AA?3?$AA?5?$AAF?$AAa?$AAi?$AAl?$AAe?$AAd?$AA?5?$AAa?$AAl?$AAl?$AAo?$AAc?$AAa?$AAt?$AAe@| DCB "E"
	DCB	0x0, "R", 0x0, "R", 0x0, "O", 0x0, "R", 0x0, ":", 0x0, " "
	DCB	0x0, "T", 0x0, "L", 0x0, "D", 0x0, "_", 0x0, "I", 0x0, "n"
	DCB	0x0, "i", 0x0, "t", 0x0, ":", 0x0, " ", 0x0, "F", 0x0, "a"
	DCB	0x0, "i", 0x0, "l", 0x0, "e", 0x0, "d", 0x0, " ", 0x0, "a"
	DCB	0x0, "l", 0x0, "l", 0x0, "o", 0x0, "c", 0x0, "a", 0x0, "t"
	DCB	0x0, "e", 0x0, " ", 0x0, "T", 0x0, "r", 0x0, "i", 0x0, "t"
	DCB	0x0, "o", 0x0, "n", 0x0, " ", 0x0, "L", 0x0, "E", 0x0, "D"
	DCB	0x0, " ", 0x0, "d", 0x0, "r", 0x0, "i", 0x0, "v", 0x0, "e"
	DCB	0x0, "r", 0x0, " ", 0x0, "s", 0x0, "t", 0x0, "r", 0x0, "u"
	DCB	0x0, "c", 0x0, "t", 0x0, "u", 0x0, "r", 0x0, "e", 0x0, 0xd
	DCB	0x0, 0xa, 0x0, 0x0, 0x0			; `string'

  00000			 AREA	 |.rdata|, DATA, READONLY
|??_C@_1DA@GLLBLDJ@?$AA?$CL?$AAT?$AAL?$AAD?$AA_?$AAI?$AAn?$AAi?$AAt?$AA?$CI?$AA?$CF?$AAs?$AA?0?$AA?5?$AA0?$AAx?$AA?$CF?$AA0?$AA8?$AAx?$AA?$CJ?$AA?$AN?$AA?6?$AA?$AA@| DCB "+"
	DCB	0x0, "T", 0x0, "L", 0x0, "D", 0x0, "_", 0x0, "I", 0x0, "n"
	DCB	0x0, "i", 0x0, "t", 0x0, "(", 0x0, "%", 0x0, "s", 0x0, ","
	DCB	0x0, " ", 0x0, "0", 0x0, "x", 0x0, "%", 0x0, "0", 0x0, "8"
	DCB	0x0, "x", 0x0, ")", 0x0, 0xd, 0x0, 0xa, 0x0, 0x0, 0x0 ; `string'
; Function compile flags: /Ogspy

  00000			 AREA	 |.text|, CODE, ARM

  00000		 |?TLD_Init@@YAKPBGPBX@Z| PROC		; TLD_Init

; 360  : {

  00000		 |$LN24@TLD_Init|
  00000	e92d4070	 stmdb       sp!, {r4 - r6, lr}
  00004		 |$M36588|
  00004	e1a02001	 mov         r2, r1
  00008	e1a06000	 mov         r6, r0

; 361  :     DWORD rc = (DWORD)NULL;
; 362  :     Device_t *pDevice;
; 363  : 
; 364  :     UNREFERENCED_PARAMETER(pBusContext);
; 365  : 
; 366  :     RETAILMSG(1, (L"+TLD_Init(%s, 0x%08x)\r\n", szContext, pBusContext));

  0000c	e59f00e0	 ldr         r0, [pc, #0xE0]
  00010	e1a01006	 mov         r1, r6
  00014	e3a05000	 mov         r5, #0
  00018	eb000000	 bl          NKDbgPrintfW

; 367  : 
; 368  :     // Create device structure
; 369  :     pDevice = (Device_t *)LocalAlloc(LPTR, sizeof(Device_t));

  0001c	e3a0102c	 mov         r1, #0x2C
  00020	e3a00040	 mov         r0, #0x40
  00024	eb000000	 bl          LocalAlloc
  00028	e1b04000	 movs        r4, r0

; 370  :     if (pDevice == NULL)

  0002c	1a00000d	 bne         |$LN9@TLD_Init|

; 371  : 	{
; 372  :         RETAILMSG(ZONE_ERROR, (L"ERROR: TLD_Init: "
; 373  :             L"Failed allocate Triton LED driver structure\r\n"));

  00030	e59f30a8	 ldr         r3, [pc, #0xA8]
  00034	e5933440	 ldr         r3, [r3, #0x440]
  00038	e3130001	 tst         r3, #1
  0003c	0a000001	 beq         |$LN20@TLD_Init|
  00040	e59f00a8	 ldr         r0, [pc, #0xA8]
  00044		 |$LN21@TLD_Init|
  00044	eb000000	 bl          NKDbgPrintfW
  00048		 |$LN20@TLD_Init|

; 419  :     if (rc == 0) TLD_Deinit((DWORD)pDevice);

  00048	e1a00004	 mov         r0, r4
  0004c	eb000000	 bl          |?TLD_Deinit@@YAHK@Z|
  00050		 |$LN1@TLD_Init|

; 420  : 
; 421  :     RETAILMSG(1, (L"-TLD_Init(rc = %d\r\n", rc));

  00050	e59f0094	 ldr         r0, [pc, #0x94]
  00054	e1a01005	 mov         r1, r5
  00058	eb000000	 bl          NKDbgPrintfW

; 422  :     return rc;
; 423  : }

  0005c	e1a00005	 mov         r0, r5
  00060	e8bd4070	 ldmia       sp!, {r4 - r6, lr}
  00064	e12fff1e	 bx          lr
  00068		 |$LN9@TLD_Init|

; 374  : 
; 375  :         goto cleanUp;
; 376  : 	}
; 377  : 
; 378  :     // Read device parameters
; 379  :     if (GetDeviceRegistryParams(
; 380  :             szContext, pDevice, dimof(s_deviceRegParams), s_deviceRegParams
; 381  :             ) != ERROR_SUCCESS)

  00068	e59f3078	 ldr         r3, [pc, #0x78]
  0006c	e3a02002	 mov         r2, #2
  00070	e1a01004	 mov         r1, r4
  00074	e1a00006	 mov         r0, r6
  00078	eb000000	 bl          GetDeviceRegistryParams
  0007c	e3500000	 cmp         r0, #0
  00080	1afffff0	 bne         |$LN20@TLD_Init|

; 382  : 	{
; 383  :         DEBUGMSG(ZONE_ERROR, (L"ERROR: TLD_Init: "
; 384  :             L"Failed read Triton LED register values\r\n"));
; 385  :         goto cleanUp;
; 386  : 	}
; 387  : 
; 388  :     // Set cookie
; 389  :     pDevice->cookie = TLED_DEVICE_COOKIE;

  00084	e59f3058	 ldr         r3, [pc, #0x58]

; 390  : 
; 391  :     // new instance always starts with a refCount of 1
; 392  :     pDevice->refCount = 1;

  00088	e3a02001	 mov         r2, #1

; 393  : 
; 394  :     // Initialize critical sections
; 395  :     InitializeCriticalSection(&pDevice->cs);

  0008c	e2840004	 add         r0, r4, #4
  00090	e5843000	 str         r3, [r4]
  00094	e584201c	 str         r2, [r4, #0x1C]
  00098	eb000000	 bl          InitializeCriticalSection

; 396  : 
; 397  :     // Open Triton device driver
; 398  :     pDevice->hTWL = TWLOpen();

  0009c	eb000000	 bl          TWLOpen
  000a0	e3500000	 cmp         r0, #0
  000a4	e5840018	 str         r0, [r4, #0x18]

; 399  :     if ( pDevice->hTWL == NULL )

  000a8	1a000005	 bne         |$LN5@TLD_Init|

; 400  : 	{
; 401  :         RETAILMSG(ZONE_ERROR, (L"ERROR: TLD_Init: "
; 402  :             L"Failed open Triton device driver\r\n"));

  000ac	e59f302c	 ldr         r3, [pc, #0x2C]
  000b0	e5933440	 ldr         r3, [r3, #0x440]
  000b4	e3130001	 tst         r3, #1
  000b8	0affffe2	 beq         |$LN20@TLD_Init|
  000bc	e59f0018	 ldr         r0, [pc, #0x18]

; 417  : 
; 418  : cleanUp:

  000c0	eaffffdf	 b           |$LN21@TLD_Init|
  000c4		 |$LN5@TLD_Init|

; 403  :         goto cleanUp;
; 404  : 	}
; 405  : 
; 406  :     // initialize device with registry settings
; 407  :     if (InitializeDevice(pDevice) == FALSE)

  000c4	e1a00004	 mov         r0, r4
  000c8	eb000000	 bl          |?InitializeDevice@@YAHPAUDevice_t@@@Z|
  000cc	e3500000	 cmp         r0, #0
  000d0	0affffdc	 beq         |$LN20@TLD_Init|

; 408  : 	{
; 409  :         DEBUGMSG( ZONE_ERROR, (L"ERROR: TLD_Init: "
; 410  :             L"Failed to initilialize Triton LED device\r\n"
; 411  :             ));
; 412  :         goto cleanUp;
; 413  : 	}
; 414  : 
; 415  :     // Return non-null value
; 416  :     rc = (DWORD)pDevice;

  000d4	e1a05004	 mov         r5, r4
  000d8		 |$cleanUp$36077|

; 419  :     if (rc == 0) TLD_Deinit((DWORD)pDevice);

  000d8	eaffffdc	 b           |$LN1@TLD_Init|
  000dc		 |$LN25@TLD_Init|
  000dc		 |$LN26@TLD_Init|
  000dc	00000000	 DCD         |??_C@_1GI@OFBLHIJO@?$AAE?$AAR?$AAR?$AAO?$AAR?$AA?3?$AA?5?$AAT?$AAL?$AAD?$AA_?$AAI?$AAn?$AAi?$AAt?$AA?3?$AA?5?$AAF?$AAa?$AAi?$AAl?$AAe?$AAd?$AA?5?$AAo?$AAp?$AAe?$AAn?$AA?5?$AAT?$AAr?$AAi@|
  000e0		 |$LN27@TLD_Init|
  000e0	00000000	 DCD         |dpCurSettings|
  000e4		 |$LN28@TLD_Init|
  000e4	746c6444	 DCD         0x746c6444
  000e8		 |$LN29@TLD_Init|
  000e8	00000000	 DCD         |s_deviceRegParams|
  000ec		 |$LN30@TLD_Init|
  000ec	00000000	 DCD         |??_C@_1CI@EECKNKAE@?$AA?9?$AAT?$AAL?$AAD?$AA_?$AAI?$AAn?$AAi?$AAt?$AA?$CI?$AAr?$AAc?$AA?5?$AA?$DN?$AA?5?$AA?$CF?$AAd?$AA?$AN?$AA?6?$AA?$AA@|
  000f0		 |$LN31@TLD_Init|
  000f0	00000000	 DCD         |??_C@_1HO@KHCEBHIB@?$AAE?$AAR?$AAR?$AAO?$AAR?$AA?3?$AA?5?$AAT?$AAL?$AAD?$AA_?$AAI?$AAn?$AAi?$AAt?$AA?3?$AA?5?$AAF?$AAa?$AAi?$AAl?$AAe?$AAd?$AA?5?$AAa?$AAl?$AAl?$AAo?$AAc?$AAa?$AAt?$AAe@|
  000f4		 |$LN32@TLD_Init|
  000f4	00000000	 DCD         |??_C@_1DA@GLLBLDJ@?$AA?$CL?$AAT?$AAL?$AAD?$AA_?$AAI?$AAn?$AAi?$AAt?$AA?$CI?$AA?$CF?$AAs?$AA?0?$AA?5?$AA0?$AAx?$AA?$CF?$AA0?$AA8?$AAx?$AA?$CJ?$AA?$AN?$AA?6?$AA?$AA@|
  000f8		 |$M36589|

			 ENDP  ; |?TLD_Init@@YAKPBGPBX@Z|, TLD_Init

	END
