; Listing generated by Microsoft (R) Optimizing Compiler Version 14.01.60511.01 

	TTL	C:\WINCE600\PLATFORM\Z2170\SRC\DRIVERS\sysctrl\fmdutil.c
	CODE32

  00000			 AREA	 |.drectve|, DRECTVE
	DCB	"-defaultlib:LIBCMT "
	DCB	"-defaultlib:OLDNAMES "

	EXPORT	|??_C@_1BE@BKKMLFKH@?$AA8?$AA0?$AA6?$AA?5?$AAH?$AAS?$AAM?$AAH?$AAZ?$AA?$AA@| [ DATA ] ; `string'
	EXPORT	|??_C@_1BA@HLPDAKHN@?$AA8?$AA0?$AA6?$AA?5?$AAM?$AAH?$AAZ?$AA?$AA@| [ DATA ] ; `string'
	EXPORT	|??_C@_1BA@FGCEKGOE@?$AA6?$AA2?$AA4?$AA?5?$AAM?$AAH?$AAZ?$AA?$AA@| [ DATA ] ; `string'
	EXPORT	|??_C@_1BA@EBNODIMD@?$AA4?$AA1?$AA6?$AA?5?$AAM?$AAH?$AAZ?$AA?$AA@| [ DATA ] ; `string'
	EXPORT	|??_C@_1BA@GGHBGDEP@?$AA2?$AA0?$AA8?$AA?5?$AAM?$AAH?$AAZ?$AA?$AA@| [ DATA ] ; `string'
	EXPORT	|??_C@_1BC@EKPDPFCF@?$AAR?$AAi?$AAn?$AAg?$AA?5?$AAO?$AAS?$AAC?$AA?$AA@| [ DATA ] ; `string'

  00000			 AREA	 |.data|, DATA
|g_szOPDescription| DCD |??_C@_1BC@EKPDPFCF@?$AAR?$AAi?$AAn?$AAg?$AA?5?$AAO?$AAS?$AAC?$AA?$AA@|
	DCD	|??_C@_1BA@GGHBGDEP@?$AA2?$AA0?$AA8?$AA?5?$AAM?$AAH?$AAZ?$AA?$AA@|
	DCD	|??_C@_1BA@EBNODIMD@?$AA4?$AA1?$AA6?$AA?5?$AAM?$AAH?$AAZ?$AA?$AA@|
	DCD	|??_C@_1BA@FGCEKGOE@?$AA6?$AA2?$AA4?$AA?5?$AAM?$AAH?$AAZ?$AA?$AA@|
	DCD	|??_C@_1BA@HLPDAKHN@?$AA8?$AA0?$AA6?$AA?5?$AAM?$AAH?$AAZ?$AA?$AA@|
	DCD	|??_C@_1BE@BKKMLFKH@?$AA8?$AA0?$AA6?$AA?5?$AAH?$AAS?$AAM?$AAH?$AAZ?$AA?$AA@|

  00000			 AREA	 |.rdata|, DATA, READONLY
|??_C@_1BE@BKKMLFKH@?$AA8?$AA0?$AA6?$AA?5?$AAH?$AAS?$AAM?$AAH?$AAZ?$AA?$AA@| DCB "8"
	DCB	0x0, "0", 0x0, "6", 0x0, " ", 0x0, "H", 0x0, "S", 0x0, "M"
	DCB	0x0, "H", 0x0, "Z", 0x0, 0x0, 0x0	; `string'

  00000			 AREA	 |.rdata|, DATA, READONLY
|??_C@_1BA@HLPDAKHN@?$AA8?$AA0?$AA6?$AA?5?$AAM?$AAH?$AAZ?$AA?$AA@| DCB "8"
	DCB	0x0, "0", 0x0, "6", 0x0, " ", 0x0, "M", 0x0, "H", 0x0, "Z"
	DCB	0x0, 0x0, 0x0				; `string'

  00000			 AREA	 |.rdata|, DATA, READONLY
|??_C@_1BA@FGCEKGOE@?$AA6?$AA2?$AA4?$AA?5?$AAM?$AAH?$AAZ?$AA?$AA@| DCB "6"
	DCB	0x0, "2", 0x0, "4", 0x0, " ", 0x0, "M", 0x0, "H", 0x0, "Z"
	DCB	0x0, 0x0, 0x0				; `string'

  00000			 AREA	 |.rdata|, DATA, READONLY
|??_C@_1BA@EBNODIMD@?$AA4?$AA1?$AA6?$AA?5?$AAM?$AAH?$AAZ?$AA?$AA@| DCB "4"
	DCB	0x0, "1", 0x0, "6", 0x0, " ", 0x0, "M", 0x0, "H", 0x0, "Z"
	DCB	0x0, 0x0, 0x0				; `string'

  00000			 AREA	 |.rdata|, DATA, READONLY
|??_C@_1BA@GGHBGDEP@?$AA2?$AA0?$AA8?$AA?5?$AAM?$AAH?$AAZ?$AA?$AA@| DCB "2"
	DCB	0x0, "0", 0x0, "8", 0x0, " ", 0x0, "M", 0x0, "H", 0x0, "Z"
	DCB	0x0, 0x0, 0x0				; `string'

  00000			 AREA	 |.rdata|, DATA, READONLY
|??_C@_1BC@EKPDPFCF@?$AAR?$AAi?$AAn?$AAg?$AA?5?$AAO?$AAS?$AAC?$AA?$AA@| DCB "R"
	DCB	0x0, "i", 0x0, "n", 0x0, "g", 0x0, " ", 0x0, "O", 0x0, "S"
	DCB	0x0, "C", 0x0, 0x0, 0x0			; `string'
	EXPORT	|FmdUtilSetMFP|
	IMPORT	|MFP_SetActiveMode|

  00000			 AREA	 |.pdata|, PDATA
|$T42567| DCD	|$LN5@FmdUtilSet|
	DCD	0x40000501
; Function compile flags: /Odtp
; File c:\wince600\platform\z2170\src\drivers\sysctrl\fmdutil.c

  00000			 AREA	 |.text|, CODE, ARM

  00000		 |FmdUtilSetMFP| PROC

; 13   : {

  00000		 |$LN5@FmdUtilSet|
  00000	e52de004	 str         lr, [sp, #-4]!
  00004		 |$M42564|

; 14   :   MFP_SetActiveMode(PXA_COMPONENT_DATA_FLASH_ID);

  00004	e3a00013	 mov         r0, #0x13
  00008	eb000000	 bl          MFP_SetActiveMode

; 15   : }

  0000c	e49de004	 ldr         lr, [sp], #4
  00010	e12fff1e	 bx          lr
  00014		 |$M42565|

			 ENDP  ; |FmdUtilSetMFP|

	EXPORT	|FmdUtilDmaInit|

  00008			 AREA	 |.pdata|, PDATA
|$T42573| DCD	|$LN5@FmdUtilDma|
	DCD	0x40000a04
; Function compile flags: /Odtp

  00014			 AREA	 |.text|, CODE, ARM

  00014		 |FmdUtilDmaInit| PROC

; 18   : {

  00014		 |$LN5@FmdUtilDma|
  00014	e1a0c00d	 mov         r12, sp
  00018	e92d0001	 stmdb       sp!, {r0}
  0001c	e92d5000	 stmdb       sp!, {r12, lr}
  00020	e24dd004	 sub         sp, sp, #4
  00024		 |$M42570|

; 19   :     return DFC_API_SUCCESS;

  00024	e3a03000	 mov         r3, #0
  00028	e58d3000	 str         r3, [sp]

; 20   : }

  0002c	e59d0000	 ldr         r0, [sp]
  00030	e28dd004	 add         sp, sp, #4
  00034	e89d6000	 ldmia       sp, {sp, lr}
  00038	e12fff1e	 bx          lr
  0003c		 |$M42571|

			 ENDP  ; |FmdUtilDmaInit|

	EXPORT	|FmdUtilDmaDeinit|

  00010			 AREA	 |.pdata|, PDATA
|$T42579| DCD	|$LN5@FmdUtilDma@2|
	DCD	0x40000a04
; Function compile flags: /Odtp

  0003c			 AREA	 |.text|, CODE, ARM

  0003c		 |FmdUtilDmaDeinit| PROC

; 23   : {

  0003c		 |$LN5@FmdUtilDma@2|
  0003c	e1a0c00d	 mov         r12, sp
  00040	e92d0001	 stmdb       sp!, {r0}
  00044	e92d5000	 stmdb       sp!, {r12, lr}
  00048	e24dd004	 sub         sp, sp, #4
  0004c		 |$M42576|

; 24   :     return DFC_API_SUCCESS;

  0004c	e3a03000	 mov         r3, #0
  00050	e58d3000	 str         r3, [sp]

; 25   : }

  00054	e59d0000	 ldr         r0, [sp]
  00058	e28dd004	 add         sp, sp, #4
  0005c	e89d6000	 ldmia       sp, {sp, lr}
  00060	e12fff1e	 bx          lr
  00064		 |$M42577|

			 ENDP  ; |FmdUtilDmaDeinit|

	EXPORT	|FmdUtilIntrInit|

  00018			 AREA	 |.pdata|, PDATA
|$T42585| DCD	|$LN5@FmdUtilInt|
	DCD	0x40000a04
; Function compile flags: /Odtp

  00064			 AREA	 |.text|, CODE, ARM

  00064		 |FmdUtilIntrInit| PROC

; 28   : {

  00064		 |$LN5@FmdUtilInt|
  00064	e1a0c00d	 mov         r12, sp
  00068	e92d0001	 stmdb       sp!, {r0}
  0006c	e92d5000	 stmdb       sp!, {r12, lr}
  00070	e24dd004	 sub         sp, sp, #4
  00074		 |$M42582|

; 29   :     return DFC_API_SUCCESS;

  00074	e3a03000	 mov         r3, #0
  00078	e58d3000	 str         r3, [sp]

; 30   : }

  0007c	e59d0000	 ldr         r0, [sp]
  00080	e28dd004	 add         sp, sp, #4
  00084	e89d6000	 ldmia       sp, {sp, lr}
  00088	e12fff1e	 bx          lr
  0008c		 |$M42583|

			 ENDP  ; |FmdUtilIntrInit|

	EXPORT	|FmdUtilIntrDeinit|

  00020			 AREA	 |.pdata|, PDATA
|$T42590| DCD	|$LN5@FmdUtilInt@2|
	DCD	0x40000503
; Function compile flags: /Odtp

  0008c			 AREA	 |.text|, CODE, ARM

  0008c		 |FmdUtilIntrDeinit| PROC

; 33   : {

  0008c		 |$LN5@FmdUtilInt@2|
  0008c	e1a0c00d	 mov         r12, sp
  00090	e92d0001	 stmdb       sp!, {r0}
  00094	e92d5000	 stmdb       sp!, {r12, lr}
  00098		 |$M42587|

; 34   :     
; 35   : }

  00098	e89d6000	 ldmia       sp, {sp, lr}
  0009c	e12fff1e	 bx          lr
  000a0		 |$M42588|

			 ENDP  ; |FmdUtilIntrDeinit|

	EXPORT	|FmdUtilInitDfcMode|

  00028			 AREA	 |.pdata|, PDATA
|$T42595| DCD	|$LN5@FmdUtilIni|
	DCD	0x40002003
; Function compile flags: /Odtp

  000a0			 AREA	 |.text|, CODE, ARM

  000a0		 |FmdUtilInitDfcMode| PROC

; 38   : {

  000a0		 |$LN5@FmdUtilIni|
  000a0	e1a0c00d	 mov         r12, sp
  000a4	e92d0001	 stmdb       sp!, {r0}
  000a8	e92d5000	 stmdb       sp!, {r12, lr}
  000ac		 |$M42592|

; 39   :     pMode->enableDMA = 0;

  000ac	e59d2008	 ldr         r2, [sp, #8]
  000b0	e3a03000	 mov         r3, #0
  000b4	e5823000	 str         r3, [r2]

; 40   :     pMode->enableINTR=0;    

  000b8	e59d3008	 ldr         r3, [sp, #8]
  000bc	e2832004	 add         r2, r3, #4
  000c0	e3a03000	 mov         r3, #0
  000c4	e5823000	 str         r3, [r2]

; 41   :     pMode->enableECC = 1;

  000c8	e59d3008	 ldr         r3, [sp, #8]
  000cc	e2832008	 add         r2, r3, #8
  000d0	e3a03001	 mov         r3, #1
  000d4	e5823000	 str         r3, [r2]

; 42   :     pMode->enableSpareArea =1;

  000d8	e59d3008	 ldr         r3, [sp, #8]
  000dc	e283200c	 add         r2, r3, #0xC
  000e0	e3a03001	 mov         r3, #1
  000e4	e5823000	 str         r3, [r2]

; 43   :     pMode->chipSelect = 0;

  000e8	e59d3008	 ldr         r3, [sp, #8]
  000ec	e2832018	 add         r2, r3, #0x18
  000f0	e3a03000	 mov         r3, #0
  000f4	e5823000	 str         r3, [r2]

; 44   :     pMode->enableRelocTableUpdate = 0;

  000f8	e59d3008	 ldr         r3, [sp, #8]
  000fc	e2832010	 add         r2, r3, #0x10
  00100	e3a03000	 mov         r3, #0
  00104	e5823000	 str         r3, [r2]

; 45   :     pMode->enableClockGatingWA = 1;

  00108	e59d3008	 ldr         r3, [sp, #8]
  0010c	e2832014	 add         r2, r3, #0x14
  00110	e3a03001	 mov         r3, #1
  00114	e5823000	 str         r3, [r2]

; 46   :     return;
; 47   : }

  00118	e89d6000	 ldmia       sp, {sp, lr}
  0011c	e12fff1e	 bx          lr
  00120		 |$M42593|

			 ENDP  ; |FmdUtilInitDfcMode|

	EXPORT	|FmdUtilAddrMapping|
	IMPORT	|MmMapIoSpace|

  00030			 AREA	 |.pdata|, PDATA
|$T42600| DCD	|$LN5@FmdUtilAdd|
	DCD	0x40001404
; Function compile flags: /Odtp

  00120			 AREA	 |.text|, CODE, ARM

  00120		 |FmdUtilAddrMapping| PROC

; 50   : {

  00120		 |$LN5@FmdUtilAdd|
  00120	e1a0c00d	 mov         r12, sp
  00124	e92d0007	 stmdb       sp!, {r0 - r2}
  00128	e92d5000	 stmdb       sp!, {r12, lr}
  0012c	e24dd00c	 sub         sp, sp, #0xC
  00130		 |$M42597|

; 51   :     PHYSICAL_ADDRESS ioPhysicalBase={addr,0};

  00130	e59d3018	 ldr         r3, [sp, #0x18]
  00134	e58d3000	 str         r3, [sp]
  00138	e3a03000	 mov         r3, #0
  0013c	e58d3004	 str         r3, [sp, #4]

; 52   :     
; 53   :     *pBase=(UINT32)MmMapIoSpace(ioPhysicalBase, size, FALSE);

  00140	e3a03000	 mov         r3, #0
  00144	e59d201c	 ldr         r2, [sp, #0x1C]
  00148	e59d0000	 ldr         r0, [sp]
  0014c	e59d1004	 ldr         r1, [sp, #4]
  00150	eb000000	 bl          MmMapIoSpace
  00154	e58d0008	 str         r0, [sp, #8]
  00158	e59d2008	 ldr         r2, [sp, #8]
  0015c	e59d3014	 ldr         r3, [sp, #0x14]
  00160	e5832000	 str         r2, [r3]

; 54   : 
; 55   : }

  00164	e28dd00c	 add         sp, sp, #0xC
  00168	e89d6000	 ldmia       sp, {sp, lr}
  0016c	e12fff1e	 bx          lr
  00170		 |$M42598|

			 ENDP  ; |FmdUtilAddrMapping|

	EXPORT	|FmdUtilAddrUnMapping|

  00038			 AREA	 |.pdata|, PDATA
|$T42605| DCD	|$LN5@FmdUtilAdd@2|
	DCD	0x40000503
; Function compile flags: /Odtp

  00170			 AREA	 |.text|, CODE, ARM

  00170		 |FmdUtilAddrUnMapping| PROC

; 58   : {

  00170		 |$LN5@FmdUtilAdd@2|
  00170	e1a0c00d	 mov         r12, sp
  00174	e92d0003	 stmdb       sp!, {r0, r1}
  00178	e92d5000	 stmdb       sp!, {r12, lr}
  0017c		 |$M42602|

; 59   :      
; 60   : }

  0017c	e89d6000	 ldmia       sp, {sp, lr}
  00180	e12fff1e	 bx          lr
  00184		 |$M42603|

			 ENDP  ; |FmdUtilAddrUnMapping|

	EXPORT	|FmdUtilInitCS|

  00040			 AREA	 |.pdata|, PDATA
|$T42610| DCD	|$LN5@FmdUtilIni@2|
	DCD	0x40000503
; Function compile flags: /Odtp

  00184			 AREA	 |.text|, CODE, ARM

  00184		 |FmdUtilInitCS| PROC

; 63   : {

  00184		 |$LN5@FmdUtilIni@2|
  00184	e1a0c00d	 mov         r12, sp
  00188	e92d0001	 stmdb       sp!, {r0}
  0018c	e92d5000	 stmdb       sp!, {r12, lr}
  00190		 |$M42607|

; 64   :     
; 65   : }

  00190	e89d6000	 ldmia       sp, {sp, lr}
  00194	e12fff1e	 bx          lr
  00198		 |$M42608|

			 ENDP  ; |FmdUtilInitCS|

	EXPORT	|FmdUtilDelCS|

  00048			 AREA	 |.pdata|, PDATA
|$T42615| DCD	|$LN5@FmdUtilDel|
	DCD	0x40000503
; Function compile flags: /Odtp

  00198			 AREA	 |.text|, CODE, ARM

  00198		 |FmdUtilDelCS| PROC

; 68   : {

  00198		 |$LN5@FmdUtilDel|
  00198	e1a0c00d	 mov         r12, sp
  0019c	e92d0001	 stmdb       sp!, {r0}
  001a0	e92d5000	 stmdb       sp!, {r12, lr}
  001a4		 |$M42612|

; 69   :     
; 70   : }

  001a4	e89d6000	 ldmia       sp, {sp, lr}
  001a8	e12fff1e	 bx          lr
  001ac		 |$M42613|

			 ENDP  ; |FmdUtilDelCS|

	EXPORT	|FmdUtilEnterCS|

  00050			 AREA	 |.pdata|, PDATA
|$T42620| DCD	|$LN5@FmdUtilEnt|
	DCD	0x40000503
; Function compile flags: /Odtp

  001ac			 AREA	 |.text|, CODE, ARM

  001ac		 |FmdUtilEnterCS| PROC

; 73   : {

  001ac		 |$LN5@FmdUtilEnt|
  001ac	e1a0c00d	 mov         r12, sp
  001b0	e92d0001	 stmdb       sp!, {r0}
  001b4	e92d5000	 stmdb       sp!, {r12, lr}
  001b8		 |$M42617|

; 74   :     
; 75   : }

  001b8	e89d6000	 ldmia       sp, {sp, lr}
  001bc	e12fff1e	 bx          lr
  001c0		 |$M42618|

			 ENDP  ; |FmdUtilEnterCS|

	EXPORT	|FmdUtilLeaveCS|

  00058			 AREA	 |.pdata|, PDATA
|$T42625| DCD	|$LN5@FmdUtilLea|
	DCD	0x40000503
; Function compile flags: /Odtp

  001c0			 AREA	 |.text|, CODE, ARM

  001c0		 |FmdUtilLeaveCS| PROC

; 78   : {

  001c0		 |$LN5@FmdUtilLea|
  001c0	e1a0c00d	 mov         r12, sp
  001c4	e92d0001	 stmdb       sp!, {r0}
  001c8	e92d5000	 stmdb       sp!, {r12, lr}
  001cc		 |$M42622|

; 79   :     
; 80   : }

  001cc	e89d6000	 ldmia       sp, {sp, lr}
  001d0	e12fff1e	 bx          lr
  001d4		 |$M42623|

			 ENDP  ; |FmdUtilLeaveCS|

	EXPORT	|FmdUtilWriteProtect|

  00060			 AREA	 |.pdata|, PDATA
|$T42631| DCD	|$LN5@FmdUtilWri|
	DCD	0x40000a04
; Function compile flags: /Odtp

  001d4			 AREA	 |.text|, CODE, ARM

  001d4		 |FmdUtilWriteProtect| PROC

; 84   : {

  001d4		 |$LN5@FmdUtilWri|
  001d4	e1a0c00d	 mov         r12, sp
  001d8	e92d0003	 stmdb       sp!, {r0, r1}
  001dc	e92d5000	 stmdb       sp!, {r12, lr}
  001e0	e24dd004	 sub         sp, sp, #4
  001e4		 |$M42628|

; 85   :     return TRUE;

  001e4	e3a03001	 mov         r3, #1
  001e8	e58d3000	 str         r3, [sp]

; 86   : }

  001ec	e59d0000	 ldr         r0, [sp]
  001f0	e28dd004	 add         sp, sp, #4
  001f4	e89d6000	 ldmia       sp, {sp, lr}
  001f8	e12fff1e	 bx          lr
  001fc		 |$M42629|

			 ENDP  ; |FmdUtilWriteProtect|

	EXPORT	|FmdUtilEraseProtect|

  00068			 AREA	 |.pdata|, PDATA
|$T42637| DCD	|$LN5@FmdUtilEra|
	DCD	0x40000a04
; Function compile flags: /Odtp

  001fc			 AREA	 |.text|, CODE, ARM

  001fc		 |FmdUtilEraseProtect| PROC

; 89   : {

  001fc		 |$LN5@FmdUtilEra|
  001fc	e1a0c00d	 mov         r12, sp
  00200	e92d0003	 stmdb       sp!, {r0, r1}
  00204	e92d5000	 stmdb       sp!, {r12, lr}
  00208	e24dd004	 sub         sp, sp, #4
  0020c		 |$M42634|

; 90   :     return TRUE;

  0020c	e3a03001	 mov         r3, #1
  00210	e58d3000	 str         r3, [sp]

; 91   : }

  00214	e59d0000	 ldr         r0, [sp]
  00218	e28dd004	 add         sp, sp, #4
  0021c	e89d6000	 ldmia       sp, {sp, lr}
  00220	e12fff1e	 bx          lr
  00224		 |$M42635|

			 ENDP  ; |FmdUtilEraseProtect|

	EXPORT	|FmdUtilWaitForInterrupt|

  00070			 AREA	 |.pdata|, PDATA
|$T42643| DCD	|$LN5@FmdUtilWai|
	DCD	0x40000a04
; Function compile flags: /Odtp

  00224			 AREA	 |.text|, CODE, ARM

  00224		 |FmdUtilWaitForInterrupt| PROC

; 94   : {

  00224		 |$LN5@FmdUtilWai|
  00224	e1a0c00d	 mov         r12, sp
  00228	e92d0001	 stmdb       sp!, {r0}
  0022c	e92d5000	 stmdb       sp!, {r12, lr}
  00230	e24dd004	 sub         sp, sp, #4
  00234		 |$M42640|

; 95   :     //We will never reach here
; 96   :     return DFC_API_FAILURE;

  00234	e3a03001	 mov         r3, #1
  00238	e58d3000	 str         r3, [sp]

; 97   : }

  0023c	e59d0000	 ldr         r0, [sp]
  00240	e28dd004	 add         sp, sp, #4
  00244	e89d6000	 ldmia       sp, {sp, lr}
  00248	e12fff1e	 bx          lr
  0024c		 |$M42641|

			 ENDP  ; |FmdUtilWaitForInterrupt|

	EXPORT	|FmdUtilWaitForDmaDone|

  00078			 AREA	 |.pdata|, PDATA
|$T42649| DCD	|$LN5@FmdUtilWai@2|
	DCD	0x40000a04
; Function compile flags: /Odtp

  0024c			 AREA	 |.text|, CODE, ARM

  0024c		 |FmdUtilWaitForDmaDone| PROC

; 100  : {

  0024c		 |$LN5@FmdUtilWai@2|
  0024c	e1a0c00d	 mov         r12, sp
  00250	e92d0001	 stmdb       sp!, {r0}
  00254	e92d5000	 stmdb       sp!, {r12, lr}
  00258	e24dd004	 sub         sp, sp, #4
  0025c		 |$M42646|

; 101  :     //We will never reach here
; 102  :     return DFC_API_FAILURE;

  0025c	e3a03001	 mov         r3, #1
  00260	e58d3000	 str         r3, [sp]

; 103  : }

  00264	e59d0000	 ldr         r0, [sp]
  00268	e28dd004	 add         sp, sp, #4
  0026c	e89d6000	 ldmia       sp, {sp, lr}
  00270	e12fff1e	 bx          lr
  00274		 |$M42647|

			 ENDP  ; |FmdUtilWaitForDmaDone|

	EXPORT	|FmdUtilInterruptDone|

  00080			 AREA	 |.pdata|, PDATA
|$T42654| DCD	|$LN5@FmdUtilInt@3|
	DCD	0x40000503
; Function compile flags: /Odtp

  00274			 AREA	 |.text|, CODE, ARM

  00274		 |FmdUtilInterruptDone| PROC

; 106  : {

  00274		 |$LN5@FmdUtilInt@3|
  00274	e1a0c00d	 mov         r12, sp
  00278	e92d0001	 stmdb       sp!, {r0}
  0027c	e92d5000	 stmdb       sp!, {r12, lr}
  00280		 |$M42651|

; 107  : }

  00280	e89d6000	 ldmia       sp, {sp, lr}
  00284	e12fff1e	 bx          lr
  00288		 |$M42652|

			 ENDP  ; |FmdUtilInterruptDone|

	EXPORT	|FmdUtilClearEvent|

  00088			 AREA	 |.pdata|, PDATA
|$T42659| DCD	|$LN5@FmdUtilCle|
	DCD	0x40000503
; Function compile flags: /Odtp

  00288			 AREA	 |.text|, CODE, ARM

  00288		 |FmdUtilClearEvent| PROC

; 109  : {

  00288		 |$LN5@FmdUtilCle|
  00288	e1a0c00d	 mov         r12, sp
  0028c	e92d0001	 stmdb       sp!, {r0}
  00290	e92d5000	 stmdb       sp!, {r12, lr}
  00294		 |$M42656|

; 110  :    
; 111  : }

  00294	e89d6000	 ldmia       sp, {sp, lr}
  00298	e12fff1e	 bx          lr
  0029c		 |$M42657|

			 ENDP  ; |FmdUtilClearEvent|

	EXPORT	|FmdUtilIpmSet|

  00090			 AREA	 |.pdata|, PDATA
|$T42664| DCD	|$LN5@FmdUtilIpm|
	DCD	0x40000503
; Function compile flags: /Odtp

  0029c			 AREA	 |.text|, CODE, ARM

  0029c		 |FmdUtilIpmSet| PROC

; 113  : {

  0029c		 |$LN5@FmdUtilIpm|
  0029c	e1a0c00d	 mov         r12, sp
  002a0	e92d0001	 stmdb       sp!, {r0}
  002a4	e92d5000	 stmdb       sp!, {r12, lr}
  002a8		 |$M42661|

; 114  : }

  002a8	e89d6000	 ldmia       sp, {sp, lr}
  002ac	e12fff1e	 bx          lr
  002b0		 |$M42662|

			 ENDP  ; |FmdUtilIpmSet|

	EXPORT	|FmdUtilIpmInit|

  00098			 AREA	 |.pdata|, PDATA
|$T42670| DCD	|$LN5@FmdUtilIpm@2|
	DCD	0x40000a04
; Function compile flags: /Odtp

  002b0			 AREA	 |.text|, CODE, ARM

  002b0		 |FmdUtilIpmInit| PROC

; 116  : {

  002b0		 |$LN5@FmdUtilIpm@2|
  002b0	e1a0c00d	 mov         r12, sp
  002b4	e92d0001	 stmdb       sp!, {r0}
  002b8	e92d5000	 stmdb       sp!, {r12, lr}
  002bc	e24dd004	 sub         sp, sp, #4
  002c0		 |$M42667|

; 117  :     return TRUE;

  002c0	e3a03001	 mov         r3, #1
  002c4	e58d3000	 str         r3, [sp]

; 118  : }

  002c8	e59d0000	 ldr         r0, [sp]
  002cc	e28dd004	 add         sp, sp, #4
  002d0	e89d6000	 ldmia       sp, {sp, lr}
  002d4	e12fff1e	 bx          lr
  002d8		 |$M42668|

			 ENDP  ; |FmdUtilIpmInit|

	END
