; Listing generated by Microsoft (R) Optimizing Compiler Version 14.01.60511.01 

	TTL	C:\WINCE600\PLATFORM\Z2170\SRC\DRIVERS\sysctrl\sysctrl.cpp
	CODE32

  00000			 AREA	 |.drectve|, DRECTVE
	DCB	"-defaultlib:LIBCMT "
	DCB	"-defaultlib:OLDNAMES "

	EXPORT	|??_C@_1BE@BKKMLFKH@?$AA8?$AA0?$AA6?$AA?5?$AAH?$AAS?$AAM?$AAH?$AAZ?$AA?$AA@| [ DATA ] ; `string'
	EXPORT	|??_C@_1BA@HLPDAKHN@?$AA8?$AA0?$AA6?$AA?5?$AAM?$AAH?$AAZ?$AA?$AA@| [ DATA ] ; `string'
	EXPORT	|??_C@_1BA@FGCEKGOE@?$AA6?$AA2?$AA4?$AA?5?$AAM?$AAH?$AAZ?$AA?$AA@| [ DATA ] ; `string'
	EXPORT	|??_C@_1BA@EBNODIMD@?$AA4?$AA1?$AA6?$AA?5?$AAM?$AAH?$AAZ?$AA?$AA@| [ DATA ] ; `string'
	EXPORT	|??_C@_1BA@GGHBGDEP@?$AA2?$AA0?$AA8?$AA?5?$AAM?$AAH?$AAZ?$AA?$AA@| [ DATA ] ; `string'
	EXPORT	|??_C@_1BC@EKPDPFCF@?$AAR?$AAi?$AAn?$AAg?$AA?5?$AAO?$AAS?$AAC?$AA?$AA@| [ DATA ] ; `string'
	EXPORT	|?ghInstance@@3PAUHINSTANCE__@@A| [ DATA ] ; ghInstance

  00000			 AREA	 |.bss|, NOINIT
|?ghInstance@@3PAUHINSTANCE__@@A| % 0x4			; ghInstance
|NANDInit| %	0x4

  00000			 AREA	 |.data|, DATA
|g_szOPDescription| DCD |??_C@_1BC@EKPDPFCF@?$AAR?$AAi?$AAn?$AAg?$AA?5?$AAO?$AAS?$AAC?$AA?$AA@|
	DCD	|??_C@_1BA@GGHBGDEP@?$AA2?$AA0?$AA8?$AA?5?$AAM?$AAH?$AAZ?$AA?$AA@|
	DCD	|??_C@_1BA@EBNODIMD@?$AA4?$AA1?$AA6?$AA?5?$AAM?$AAH?$AAZ?$AA?$AA@|
	DCD	|??_C@_1BA@FGCEKGOE@?$AA6?$AA2?$AA4?$AA?5?$AAM?$AAH?$AAZ?$AA?$AA@|
	DCD	|??_C@_1BA@HLPDAKHN@?$AA8?$AA0?$AA6?$AA?5?$AAM?$AAH?$AAZ?$AA?$AA@|
	DCD	|??_C@_1BE@BKKMLFKH@?$AA8?$AA0?$AA6?$AA?5?$AAH?$AAS?$AAM?$AAH?$AAZ?$AA?$AA@|

  00000			 AREA	 |.rdata|, DATA, READONLY
|??_C@_1BE@BKKMLFKH@?$AA8?$AA0?$AA6?$AA?5?$AAH?$AAS?$AAM?$AAH?$AAZ?$AA?$AA@| DCB "8"
	DCB	0x0, "0", 0x0, "6", 0x0, " ", 0x0, "H", 0x0, "S", 0x0, "M"
	DCB	0x0, "H", 0x0, "Z", 0x0, 0x0, 0x0	; `string'

  00000			 AREA	 |.rdata|, DATA, READONLY
|??_C@_1BA@HLPDAKHN@?$AA8?$AA0?$AA6?$AA?5?$AAM?$AAH?$AAZ?$AA?$AA@| DCB "8"
	DCB	0x0, "0", 0x0, "6", 0x0, " ", 0x0, "M", 0x0, "H", 0x0, "Z"
	DCB	0x0, 0x0, 0x0				; `string'

  00000			 AREA	 |.rdata|, DATA, READONLY
|??_C@_1BA@FGCEKGOE@?$AA6?$AA2?$AA4?$AA?5?$AAM?$AAH?$AAZ?$AA?$AA@| DCB "6"
	DCB	0x0, "2", 0x0, "4", 0x0, " ", 0x0, "M", 0x0, "H", 0x0, "Z"
	DCB	0x0, 0x0, 0x0				; `string'

  00000			 AREA	 |.rdata|, DATA, READONLY
|??_C@_1BA@EBNODIMD@?$AA4?$AA1?$AA6?$AA?5?$AAM?$AAH?$AAZ?$AA?$AA@| DCB "4"
	DCB	0x0, "1", 0x0, "6", 0x0, " ", 0x0, "M", 0x0, "H", 0x0, "Z"
	DCB	0x0, 0x0, 0x0				; `string'

  00000			 AREA	 |.rdata|, DATA, READONLY
|??_C@_1BA@GGHBGDEP@?$AA2?$AA0?$AA8?$AA?5?$AAM?$AAH?$AAZ?$AA?$AA@| DCB "2"
	DCB	0x0, "0", 0x0, "8", 0x0, " ", 0x0, "M", 0x0, "H", 0x0, "Z"
	DCB	0x0, 0x0, 0x0				; `string'

  00000			 AREA	 |.rdata|, DATA, READONLY
|??_C@_1BC@EKPDPFCF@?$AAR?$AAi?$AAn?$AAg?$AA?5?$AAO?$AAS?$AAC?$AA?$AA@| DCB "R"
	DCB	0x0, "i", 0x0, "n", 0x0, "g", 0x0, " ", 0x0, "O", 0x0, "S"
	DCB	0x0, "C", 0x0, 0x0, 0x0			; `string'
	EXPORT	|DllMain|

  00000			 AREA	 |.pdata|, PDATA
|$T38144| DCD	|$LN11@DllMain|
	DCD	0x40001204
; Function compile flags: /Odtp
; File c:\wince600\platform\z2170\src\drivers\sysctrl\sysctrl.cpp

  00000			 AREA	 |.text|, CODE, ARM

  00000		 |DllMain| PROC

; 50   : {

  00000		 |$LN11@DllMain|
  00000	e1a0c00d	 mov         r12, sp
  00004	e92d0007	 stmdb       sp!, {r0 - r2}
  00008	e92d5000	 stmdb       sp!, {r12, lr}
  0000c	e24dd004	 sub         sp, sp, #4
  00010		 |$M38141|

; 51   :     switch(dwReason)

  00010	e59d3010	 ldr         r3, [sp, #0x10]
  00014	e3530001	 cmp         r3, #1
  00018	0a000000	 beq         |$LN4@DllMain|
  0001c	ea000002	 b           |$LN5@DllMain|
  00020		 |$LN4@DllMain|

; 52   :     {
; 53   :         case DLL_PROCESS_ATTACH:
; 54   : 
; 55   :             ghInstance = (HINSTANCE) hinstDll;

  00020	e59d200c	 ldr         r2, [sp, #0xC]
  00024	e59f3018	 ldr         r3, [pc, #0x18]
  00028	e5832000	 str         r2, [r3]
  0002c		 |$LN5@DllMain|

; 56   :             break;
; 57   : 
; 58   :         case DLL_PROCESS_DETACH:
; 59   :             //RETAILMSG(1, (TEXT("IoDispatch_DllEntry: DLL_PROCESS_DETACH\r\n")));
; 60   :             break;
; 61   : 
; 62   :         case DLL_THREAD_ATTACH:
; 63   :             //RETAILMSG(1, (TEXT("IoDispatch_DllEntry: DLL_THREAD_ATTACH\r\n")));
; 64   :             break;
; 65   : 
; 66   :         case DLL_THREAD_DETACH:
; 67   :             //RETAILMSG(1, (TEXT("IoDispatch_DllEntry: DLL_THREAD_DETACH\r\n")));
; 68   :             break;
; 69   : 
; 70   :     }
; 71   : 
; 72   :     // return TRUE for success, FALSE for failure
; 73   :     return TRUE;

  0002c	e3a03001	 mov         r3, #1
  00030	e58d3000	 str         r3, [sp]

; 74   : }

  00034	e59d0000	 ldr         r0, [sp]
  00038	e28dd004	 add         sp, sp, #4
  0003c	e89d6000	 ldmia       sp, {sp, lr}
  00040	e12fff1e	 bx          lr
  00044		 |$LN12@DllMain|
  00044		 |$LN13@DllMain|
  00044	00000000	 DCD         |?ghInstance@@3PAUHINSTANCE__@@A|
  00048		 |$M38142|

			 ENDP  ; |DllMain|

	EXPORT	|?SYS_Init@@YAKK@Z|			; SYS_Init
	IMPORT	|?NpwStartNotification@@YAKPAX@Z|	; NpwStartNotification
	IMPORT	|?BluetoothNotifyThread@@YAKPAX@Z|	; BluetoothNotifyThread
	IMPORT	|LEDThread|
	IMPORT	|?TrayIconThread@@YAKPAX@Z|		; TrayIconThread
	IMPORT	|SYSTEM_POWER_Thread|
	IMPORT	|CloseHandle|
	IMPORT	|CreateThread|
	IMPORT	|?StartupThread@@YAKPAX@Z|		; StartupThread
	IMPORT	|Init_LED|

  00008			 AREA	 |.pdata|, PDATA
|$T38164| DCD	|$LN5@SYS_Init|
	DCD	0x40006504
; Function compile flags: /Odtp

  00048			 AREA	 |.text|, CODE, ARM

  00048		 |?SYS_Init@@YAKK@Z| PROC		; SYS_Init

; 81   : {

  00048		 |$LN5@SYS_Init|
  00048	e1a0c00d	 mov         r12, sp
  0004c	e92d0001	 stmdb       sp!, {r0}
  00050	e92d5000	 stmdb       sp!, {r12, lr}
  00054	e24dd06c	 sub         sp, sp, #0x6C
  00058		 |$M38161|

; 82   :     Init_LED();

  00058	eb000000	 bl          Init_LED

; 83   : 
; 84   :     HANDLE hStartup = CreateThread(NULL, 0, (LPTHREAD_START_ROUTINE) StartupThread, NULL, 0, NULL);

  0005c	e3a03000	 mov         r3, #0
  00060	e58d3004	 str         r3, [sp, #4]
  00064	e3a03000	 mov         r3, #0
  00068	e58d3000	 str         r3, [sp]
  0006c	e3a03000	 mov         r3, #0
  00070	e59f2160	 ldr         r2, [pc, #0x160]
  00074	e3a01000	 mov         r1, #0
  00078	e3a00000	 mov         r0, #0
  0007c	eb000000	 bl          CreateThread
  00080	e58d0054	 str         r0, [sp, #0x54]
  00084	e59d3054	 ldr         r3, [sp, #0x54]
  00088	e58d3010	 str         r3, [sp, #0x10]

; 85   : 
; 86   :     CloseHandle(hStartup);

  0008c	e59d0010	 ldr         r0, [sp, #0x10]
  00090	eb000000	 bl          CloseHandle

; 87   : 
; 88   : 
; 89   :     HANDLE hPower = CreateThread(NULL, 0, (LPTHREAD_START_ROUTINE) SYSTEM_POWER_Thread, NULL, 0, NULL);

  00094	e3a03000	 mov         r3, #0
  00098	e58d3004	 str         r3, [sp, #4]
  0009c	e3a03000	 mov         r3, #0
  000a0	e58d3000	 str         r3, [sp]
  000a4	e3a03000	 mov         r3, #0
  000a8	e59f2124	 ldr         r2, [pc, #0x124]
  000ac	e3a01000	 mov         r1, #0
  000b0	e3a00000	 mov         r0, #0
  000b4	eb000000	 bl          CreateThread
  000b8	e58d0058	 str         r0, [sp, #0x58]
  000bc	e59d3058	 ldr         r3, [sp, #0x58]
  000c0	e58d300c	 str         r3, [sp, #0xC]

; 90   : 
; 91   :     CloseHandle(hPower);

  000c4	e59d000c	 ldr         r0, [sp, #0xC]
  000c8	eb000000	 bl          CloseHandle

; 92   : 
; 93   : 
; 94   :     HANDLE hTrayIcon = CreateThread(NULL, 0, TrayIconThread, NULL, 0, NULL);

  000cc	e3a03000	 mov         r3, #0
  000d0	e58d3004	 str         r3, [sp, #4]
  000d4	e3a03000	 mov         r3, #0
  000d8	e58d3000	 str         r3, [sp]
  000dc	e3a03000	 mov         r3, #0
  000e0	e59f20e8	 ldr         r2, [pc, #0xE8]
  000e4	e3a01000	 mov         r1, #0
  000e8	e3a00000	 mov         r0, #0
  000ec	eb000000	 bl          CreateThread
  000f0	e58d005c	 str         r0, [sp, #0x5C]
  000f4	e59d305c	 ldr         r3, [sp, #0x5C]
  000f8	e58d3014	 str         r3, [sp, #0x14]

; 95   : 
; 96   :     CloseHandle(hTrayIcon);

  000fc	e59d0014	 ldr         r0, [sp, #0x14]
  00100	eb000000	 bl          CloseHandle

; 97   : 
; 98   : 
; 99   :     HANDLE hLED = CreateThread(NULL, 0, (LPTHREAD_START_ROUTINE) LEDThread, NULL, 0, NULL);

  00104	e3a03000	 mov         r3, #0
  00108	e58d3004	 str         r3, [sp, #4]
  0010c	e3a03000	 mov         r3, #0
  00110	e58d3000	 str         r3, [sp]
  00114	e3a03000	 mov         r3, #0
  00118	e59f20ac	 ldr         r2, [pc, #0xAC]
  0011c	e3a01000	 mov         r1, #0
  00120	e3a00000	 mov         r0, #0
  00124	eb000000	 bl          CreateThread
  00128	e58d0060	 str         r0, [sp, #0x60]
  0012c	e59d3060	 ldr         r3, [sp, #0x60]
  00130	e58d301c	 str         r3, [sp, #0x1C]

; 100  : 
; 101  :     CloseHandle(hLED);

  00134	e59d001c	 ldr         r0, [sp, #0x1C]
  00138	eb000000	 bl          CloseHandle

; 102  : 
; 103  : 
; 104  :     HANDLE hBTThread = CreateThread(NULL, 0, (LPTHREAD_START_ROUTINE) BluetoothNotifyThread, NULL, 0, NULL);

  0013c	e3a03000	 mov         r3, #0
  00140	e58d3004	 str         r3, [sp, #4]
  00144	e3a03000	 mov         r3, #0
  00148	e58d3000	 str         r3, [sp]
  0014c	e3a03000	 mov         r3, #0
  00150	e59f2070	 ldr         r2, [pc, #0x70]
  00154	e3a01000	 mov         r1, #0
  00158	e3a00000	 mov         r0, #0
  0015c	eb000000	 bl          CreateThread
  00160	e58d0064	 str         r0, [sp, #0x64]
  00164	e59d3064	 ldr         r3, [sp, #0x64]
  00168	e58d3008	 str         r3, [sp, #8]

; 105  : 
; 106  :     CloseHandle(hBTThread);

  0016c	e59d0008	 ldr         r0, [sp, #8]
  00170	eb000000	 bl          CloseHandle

; 107  : 
; 108  : 
; 109  :     HANDLE hWiFiThread = CreateThread(NULL, 0, (LPTHREAD_START_ROUTINE)NpwStartNotification, NULL, 0, NULL);

  00174	e3a03000	 mov         r3, #0
  00178	e58d3004	 str         r3, [sp, #4]
  0017c	e3a03000	 mov         r3, #0
  00180	e58d3000	 str         r3, [sp]
  00184	e3a03000	 mov         r3, #0
  00188	e59f2034	 ldr         r2, [pc, #0x34]
  0018c	e3a01000	 mov         r1, #0
  00190	e3a00000	 mov         r0, #0
  00194	eb000000	 bl          CreateThread
  00198	e58d0068	 str         r0, [sp, #0x68]
  0019c	e59d3068	 ldr         r3, [sp, #0x68]
  001a0	e58d3018	 str         r3, [sp, #0x18]

; 110  : 
; 111  :     CloseHandle(hWiFiThread);

  001a4	e59d0018	 ldr         r0, [sp, #0x18]
  001a8	eb000000	 bl          CloseHandle

; 112  : 
; 113  : 
; 114  :     return 1;

  001ac	e3a03001	 mov         r3, #1
  001b0	e58d3050	 str         r3, [sp, #0x50]

; 115  : }

  001b4	e59d0050	 ldr         r0, [sp, #0x50]
  001b8	e28dd06c	 add         sp, sp, #0x6C
  001bc	e89d6000	 ldmia       sp, {sp, lr}
  001c0	e12fff1e	 bx          lr
  001c4		 |$LN6@SYS_Init|
  001c4		 |$LN7@SYS_Init|
  001c4	00000000	 DCD         |?NpwStartNotification@@YAKPAX@Z|
  001c8		 |$LN8@SYS_Init|
  001c8	00000000	 DCD         |?BluetoothNotifyThread@@YAKPAX@Z|
  001cc		 |$LN9@SYS_Init|
  001cc	00000000	 DCD         |LEDThread|
  001d0		 |$LN10@SYS_Init|
  001d0	00000000	 DCD         |?TrayIconThread@@YAKPAX@Z|
  001d4		 |$LN11@SYS_Init|
  001d4	00000000	 DCD         |SYSTEM_POWER_Thread|
  001d8		 |$LN12@SYS_Init|
  001d8	00000000	 DCD         |?StartupThread@@YAKPAX@Z|
  001dc		 |$M38162|

			 ENDP  ; |?SYS_Init@@YAKK@Z|, SYS_Init

	EXPORT	|?SYS_Deinit@@YAHK@Z|			; SYS_Deinit

  00010			 AREA	 |.pdata|, PDATA
|$T38177| DCD	|$LN5@SYS_Deinit|
	DCD	0x40000a04
; Function compile flags: /Odtp

  001dc			 AREA	 |.text|, CODE, ARM

  001dc		 |?SYS_Deinit@@YAHK@Z| PROC		; SYS_Deinit

; 119  : {

  001dc		 |$LN5@SYS_Deinit|
  001dc	e1a0c00d	 mov         r12, sp
  001e0	e92d0001	 stmdb       sp!, {r0}
  001e4	e92d5000	 stmdb       sp!, {r12, lr}
  001e8	e24dd004	 sub         sp, sp, #4
  001ec		 |$M38174|

; 120  :     return TRUE;

  001ec	e3a03001	 mov         r3, #1
  001f0	e58d3000	 str         r3, [sp]

; 121  : }

  001f4	e59d0000	 ldr         r0, [sp]
  001f8	e28dd004	 add         sp, sp, #4
  001fc	e89d6000	 ldmia       sp, {sp, lr}
  00200	e12fff1e	 bx          lr
  00204		 |$M38175|

			 ENDP  ; |?SYS_Deinit@@YAHK@Z|, SYS_Deinit

	EXPORT	|?SYS_Open@@YAHKKK@Z|			; SYS_Open

  00018			 AREA	 |.pdata|, PDATA
|$T38183| DCD	|$LN5@SYS_Open|
	DCD	0x40000a04
; Function compile flags: /Odtp

  00204			 AREA	 |.text|, CODE, ARM

  00204		 |?SYS_Open@@YAHKKK@Z| PROC		; SYS_Open

; 131  : {

  00204		 |$LN5@SYS_Open|
  00204	e1a0c00d	 mov         r12, sp
  00208	e92d0007	 stmdb       sp!, {r0 - r2}
  0020c	e92d5000	 stmdb       sp!, {r12, lr}
  00210	e24dd004	 sub         sp, sp, #4
  00214		 |$M38180|

; 132  :     return TRUE;

  00214	e3a03001	 mov         r3, #1
  00218	e58d3000	 str         r3, [sp]

; 133  : }

  0021c	e59d0000	 ldr         r0, [sp]
  00220	e28dd004	 add         sp, sp, #4
  00224	e89d6000	 ldmia       sp, {sp, lr}
  00228	e12fff1e	 bx          lr
  0022c		 |$M38181|

			 ENDP  ; |?SYS_Open@@YAHKKK@Z|, SYS_Open

	EXPORT	|?SYS_Close@@YAHK@Z|			; SYS_Close

  00020			 AREA	 |.pdata|, PDATA
|$T38189| DCD	|$LN5@SYS_Close|
	DCD	0x40000a04
; Function compile flags: /Odtp

  0022c			 AREA	 |.text|, CODE, ARM

  0022c		 |?SYS_Close@@YAHK@Z| PROC		; SYS_Close

; 138  : {

  0022c		 |$LN5@SYS_Close|
  0022c	e1a0c00d	 mov         r12, sp
  00230	e92d0001	 stmdb       sp!, {r0}
  00234	e92d5000	 stmdb       sp!, {r12, lr}
  00238	e24dd004	 sub         sp, sp, #4
  0023c		 |$M38186|

; 139  :     return TRUE;

  0023c	e3a03001	 mov         r3, #1
  00240	e58d3000	 str         r3, [sp]

; 140  : }

  00244	e59d0000	 ldr         r0, [sp]
  00248	e28dd004	 add         sp, sp, #4
  0024c	e89d6000	 ldmia       sp, {sp, lr}
  00250	e12fff1e	 bx          lr
  00254		 |$M38187|

			 ENDP  ; |?SYS_Close@@YAHK@Z|, SYS_Close

	EXPORT	|?SYS_Read@@YAKKPAIK@Z|			; SYS_Read

  00028			 AREA	 |.pdata|, PDATA
|$T38195| DCD	|$LN5@SYS_Read|
	DCD	0x40000a04
; Function compile flags: /Odtp

  00254			 AREA	 |.text|, CODE, ARM

  00254		 |?SYS_Read@@YAKKPAIK@Z| PROC		; SYS_Read

; 150  : {

  00254		 |$LN5@SYS_Read|
  00254	e1a0c00d	 mov         r12, sp
  00258	e92d0007	 stmdb       sp!, {r0 - r2}
  0025c	e92d5000	 stmdb       sp!, {r12, lr}
  00260	e24dd004	 sub         sp, sp, #4
  00264		 |$M38192|

; 151  :     return 0;

  00264	e3a03000	 mov         r3, #0
  00268	e58d3000	 str         r3, [sp]

; 152  : }

  0026c	e59d0000	 ldr         r0, [sp]
  00270	e28dd004	 add         sp, sp, #4
  00274	e89d6000	 ldmia       sp, {sp, lr}
  00278	e12fff1e	 bx          lr
  0027c		 |$M38193|

			 ENDP  ; |?SYS_Read@@YAKKPAIK@Z|, SYS_Read

	EXPORT	|?SYS_Write@@YAKKPAIK@Z|		; SYS_Write

  00030			 AREA	 |.pdata|, PDATA
|$T38201| DCD	|$LN5@SYS_Write|
	DCD	0x40000a04
; Function compile flags: /Odtp

  0027c			 AREA	 |.text|, CODE, ARM

  0027c		 |?SYS_Write@@YAKKPAIK@Z| PROC		; SYS_Write

; 161  : {

  0027c		 |$LN5@SYS_Write|
  0027c	e1a0c00d	 mov         r12, sp
  00280	e92d0007	 stmdb       sp!, {r0 - r2}
  00284	e92d5000	 stmdb       sp!, {r12, lr}
  00288	e24dd004	 sub         sp, sp, #4
  0028c		 |$M38198|

; 162  :     return 0;

  0028c	e3a03000	 mov         r3, #0
  00290	e58d3000	 str         r3, [sp]

; 163  : }

  00294	e59d0000	 ldr         r0, [sp]
  00298	e28dd004	 add         sp, sp, #4
  0029c	e89d6000	 ldmia       sp, {sp, lr}
  002a0	e12fff1e	 bx          lr
  002a4		 |$M38199|

			 ENDP  ; |?SYS_Write@@YAKKPAIK@Z|, SYS_Write

	EXPORT	|?SYS_Seek@@YAKKJK@Z|			; SYS_Seek

  00038			 AREA	 |.pdata|, PDATA
|$T38207| DCD	|$LN5@SYS_Seek|
	DCD	0x40000a04
; Function compile flags: /Odtp

  002a4			 AREA	 |.text|, CODE, ARM

  002a4		 |?SYS_Seek@@YAKKJK@Z| PROC		; SYS_Seek

; 172  : {

  002a4		 |$LN5@SYS_Seek|
  002a4	e1a0c00d	 mov         r12, sp
  002a8	e92d0007	 stmdb       sp!, {r0 - r2}
  002ac	e92d5000	 stmdb       sp!, {r12, lr}
  002b0	e24dd004	 sub         sp, sp, #4
  002b4		 |$M38204|

; 173  : 
; 174  :     return 0;

  002b4	e3a03000	 mov         r3, #0
  002b8	e58d3000	 str         r3, [sp]

; 175  : }

  002bc	e59d0000	 ldr         r0, [sp]
  002c0	e28dd004	 add         sp, sp, #4
  002c4	e89d6000	 ldmia       sp, {sp, lr}
  002c8	e12fff1e	 bx          lr
  002cc		 |$M38205|

			 ENDP  ; |?SYS_Seek@@YAKKJK@Z|, SYS_Seek

	EXPORT	|?SYS_PowerUp@@YAHXZ|			; SYS_PowerUp

  00040			 AREA	 |.pdata|, PDATA
|$T38213| DCD	|$LN5@SYS_PowerU|
	DCD	0x40000601
; Function compile flags: /Odtp

  002cc			 AREA	 |.text|, CODE, ARM

  002cc		 |?SYS_PowerUp@@YAHXZ| PROC		; SYS_PowerUp

; 180  : {

  002cc		 |$LN5@SYS_PowerU|
  002cc	e24dd004	 sub         sp, sp, #4
  002d0		 |$M38210|

; 181  : 
; 182  :     return TRUE;

  002d0	e3a03001	 mov         r3, #1
  002d4	e58d3000	 str         r3, [sp]

; 183  : }

  002d8	e59d0000	 ldr         r0, [sp]
  002dc	e28dd004	 add         sp, sp, #4
  002e0	e12fff1e	 bx          lr
  002e4		 |$M38211|

			 ENDP  ; |?SYS_PowerUp@@YAHXZ|, SYS_PowerUp

	EXPORT	|?SYS_PowerDown@@YAHXZ|			; SYS_PowerDown

  00048			 AREA	 |.pdata|, PDATA
|$T38219| DCD	|$LN5@SYS_PowerD|
	DCD	0x40000601
; Function compile flags: /Odtp

  002e4			 AREA	 |.text|, CODE, ARM

  002e4		 |?SYS_PowerDown@@YAHXZ| PROC		; SYS_PowerDown

; 187  : {

  002e4		 |$LN5@SYS_PowerD|
  002e4	e24dd004	 sub         sp, sp, #4
  002e8		 |$M38216|

; 188  : 
; 189  :     return TRUE;

  002e8	e3a03001	 mov         r3, #1
  002ec	e58d3000	 str         r3, [sp]

; 190  : }

  002f0	e59d0000	 ldr         r0, [sp]
  002f4	e28dd004	 add         sp, sp, #4
  002f8	e12fff1e	 bx          lr
  002fc		 |$M38217|

			 ENDP  ; |?SYS_PowerDown@@YAHXZ|, SYS_PowerDown

	EXPORT	|?SYS_IOControl@@YAHKKPAXK0KPAK@Z|	; SYS_IOControl
	IMPORT	|ReadFlashData|
	IMPORT	|WriteFlashData|
	IMPORT	|FlashInit|
	IMPORT	|SysCtrl_BCR_HW_Trigger|
	IMPORT	|KernelIoControl|
	IMPORT	|VibratorSetHWPower|
	IMPORT	|VibratorGetHWPower|
	IMPORT	|?ChkBuiltInRFID@@YAHXZ|		; ChkBuiltInRFID
	IMPORT	|PXA_OST_DelayMilliSeconds|
	IMPORT	|RFIDGetHWPower|
	IMPORT	|BTSetHWPower|
	IMPORT	|SysCtrl_BCRSetHWPower|
	IMPORT	|SysCtrl_BCRGetHWPower|
	IMPORT	|memcpy|

  00050			 AREA	 |.pdata|, PDATA
|$T38251| DCD	|$LN60@SYS_IOCont|
	DCD	0x4001a304
; Function compile flags: /Odtp

  002fc			 AREA	 |.text|, CODE, ARM

  002fc		 |?SYS_IOControl@@YAHKKPAXK0KPAK@Z| PROC ; SYS_IOControl

; 202  : {

  002fc		 |$LN60@SYS_IOCont|
  002fc	e1a0c00d	 mov         r12, sp
  00300	e92d000f	 stmdb       sp!, {r0 - r3}
  00304	e92d5000	 stmdb       sp!, {r12, lr}
  00308	e24dd05c	 sub         sp, sp, #0x5C
  0030c		 |$M38248|

; 203  :     BOOL dwState = FALSE;

  0030c	e3a03000	 mov         r3, #0
  00310	e58d3008	 str         r3, [sp, #8]

; 204  : 	uNandFLASH *lpFPro=NULL;

  00314	e3a03000	 mov         r3, #0
  00318	e58d3010	 str         r3, [sp, #0x10]

; 205  : 	NandRead *lpNRead=NULL;

  0031c	e3a03000	 mov         r3, #0
  00320	e58d300c	 str         r3, [sp, #0xC]

; 206  : 		
; 207  :     switch(dwIoControlCode)

  00324	e59d3068	 ldr         r3, [sp, #0x68]
  00328	e58d3020	 str         r3, [sp, #0x20]
  0032c	e59d2020	 ldr         r2, [sp, #0x20]
  00330	e59f364c	 ldr         r3, [pc, #0x64C]
  00334	e1520003	 cmp         r2, r3
  00338	8a00003b	 bhi         |$LN38@SYS_IOCont|
  0033c	e59d2020	 ldr         r2, [sp, #0x20]
  00340	e59f363c	 ldr         r3, [pc, #0x63C]
  00344	e1520003	 cmp         r2, r3
  00348	0a0000c3	 beq         |$LN20@SYS_IOCont|
  0034c	e59d2020	 ldr         r2, [sp, #0x20]
  00350	e59f3628	 ldr         r3, [pc, #0x628]
  00354	e1520003	 cmp         r2, r3
  00358	8a00001d	 bhi         |$LN39@SYS_IOCont|
  0035c	e59d2020	 ldr         r2, [sp, #0x20]
  00360	e59f3618	 ldr         r3, [pc, #0x618]
  00364	e1520003	 cmp         r2, r3
  00368	0a000108	 beq         |$LN11@SYS_IOCont|
  0036c	e59d2020	 ldr         r2, [sp, #0x20]
  00370	e3a03822	 mov         r3, #0x22, 16
  00374	e3833a02	 orr         r3, r3, #2, 20
  00378	e0423003	 sub         r3, r2, r3
  0037c	e58d3020	 str         r3, [sp, #0x20]
  00380	e59d3020	 ldr         r3, [sp, #0x20]
  00384	e353000c	 cmp         r3, #0xC
  00388	8a000161	 bhi         |$LN1@SYS_IOCont|
  0038c	e59d2020	 ldr         r2, [sp, #0x20]
  00390	e1a03102	 mov         r3, r2, lsl #2
  00394	e083300f	 add         r3, r3, pc
  00398	e5933004	 ldr         r3, [r3, #4]
  0039c	e08ff003	 add         pc, pc, r3
  003a0		 |$LN44@SYS_IOCont|
  003a0		 |$LN43@SYS_IOCont|
  003a0		 |$LN45@SYS_IOCont|
  003a0	00000134	 DCD         0x134
  003a4		 |$LN46@SYS_IOCont|
  003a4	00000570	 DCD         0x570
  003a8		 |$LN47@SYS_IOCont|
  003a8	00000570	 DCD         0x570
  003ac		 |$LN48@SYS_IOCont|
  003ac	00000570	 DCD         0x570
  003b0		 |$LN49@SYS_IOCont|
  003b0	00000154	 DCD         0x154
  003b4		 |$LN50@SYS_IOCont|
  003b4	00000570	 DCD         0x570
  003b8		 |$LN51@SYS_IOCont|
  003b8	00000570	 DCD         0x570
  003bc		 |$LN52@SYS_IOCont|
  003bc	00000570	 DCD         0x570
  003c0		 |$LN53@SYS_IOCont|
  003c0	00000178	 DCD         0x178
  003c4		 |$LN54@SYS_IOCont|
  003c4	00000570	 DCD         0x570
  003c8		 |$LN55@SYS_IOCont|
  003c8	00000570	 DCD         0x570
  003cc		 |$LN56@SYS_IOCont|
  003cc	00000570	 DCD         0x570
  003d0		 |$LN57@SYS_IOCont|
  003d0	00000198	 DCD         0x198
  003d4		 |$LN39@SYS_IOCont|
  003d4	e59d2020	 ldr         r2, [sp, #0x20]
  003d8	e59f359c	 ldr         r3, [pc, #0x59C]
  003dc	e1520003	 cmp         r2, r3
  003e0	8a00000c	 bhi         |$LN40@SYS_IOCont|
  003e4	e59d2020	 ldr         r2, [sp, #0x20]
  003e8	e59f358c	 ldr         r3, [pc, #0x58C]
  003ec	e1520003	 cmp         r2, r3
  003f0	0a00006c	 beq         |$LN23@SYS_IOCont|
  003f4	e59d2020	 ldr         r2, [sp, #0x20]
  003f8	e59f3578	 ldr         r3, [pc, #0x578]
  003fc	e1520003	 cmp         r2, r3
  00400	0a000054	 beq         |$LN25@SYS_IOCont|
  00404	e59d2020	 ldr         r2, [sp, #0x20]
  00408	e59f3564	 ldr         r3, [pc, #0x564]
  0040c	e1520003	 cmp         r2, r3
  00410	0a00005b	 beq         |$LN24@SYS_IOCont|
  00414	ea00013e	 b           |$LN1@SYS_IOCont|
  00418		 |$LN40@SYS_IOCont|
  00418	e59d2020	 ldr         r2, [sp, #0x20]
  0041c	e59f354c	 ldr         r3, [pc, #0x54C]
  00420	e1520003	 cmp         r2, r3
  00424	0a00007a	 beq         |$LN21@SYS_IOCont|
  00428	ea000139	 b           |$LN1@SYS_IOCont|
  0042c		 |$LN38@SYS_IOCont|
  0042c	e59d2020	 ldr         r2, [sp, #0x20]
  00430	e59f3534	 ldr         r3, [pc, #0x534]
  00434	e1520003	 cmp         r2, r3
  00438	8a000019	 bhi         |$LN41@SYS_IOCont|
  0043c	e59d2020	 ldr         r2, [sp, #0x20]
  00440	e59f3524	 ldr         r3, [pc, #0x524]
  00444	e1520003	 cmp         r2, r3
  00448	0a00008f	 beq         |$LN19@SYS_IOCont|
  0044c	e59d2020	 ldr         r2, [sp, #0x20]
  00450	e59f3510	 ldr         r3, [pc, #0x510]
  00454	e1520003	 cmp         r2, r3
  00458	8a00000c	 bhi         |$LN42@SYS_IOCont|
  0045c	e59d2020	 ldr         r2, [sp, #0x20]
  00460	e59f3500	 ldr         r3, [pc, #0x500]
  00464	e1520003	 cmp         r2, r3
  00468	0a000060	 beq         |$LN22@SYS_IOCont|
  0046c	e59d2020	 ldr         r2, [sp, #0x20]
  00470	e59f34ec	 ldr         r3, [pc, #0x4EC]
  00474	e1520003	 cmp         r2, r3
  00478	0a0000d8	 beq         |$LN9@SYS_IOCont|
  0047c	e59d2020	 ldr         r2, [sp, #0x20]
  00480	e59f34d8	 ldr         r3, [pc, #0x4D8]
  00484	e1520003	 cmp         r2, r3
  00488	0a0000f9	 beq         |$LN5@SYS_IOCont|
  0048c	ea000120	 b           |$LN1@SYS_IOCont|
  00490		 |$LN42@SYS_IOCont|
  00490	e59d2020	 ldr         r2, [sp, #0x20]
  00494	e59f34c0	 ldr         r3, [pc, #0x4C0]
  00498	e1520003	 cmp         r2, r3
  0049c	0a0000c7	 beq         |$LN10@SYS_IOCont|
  004a0	ea00011b	 b           |$LN1@SYS_IOCont|
  004a4		 |$LN41@SYS_IOCont|
  004a4	e59d2020	 ldr         r2, [sp, #0x20]
  004a8	e59f34a8	 ldr         r3, [pc, #0x4A8]
  004ac	e1520003	 cmp         r2, r3
  004b0	0a000080	 beq         |$LN18@SYS_IOCont|
  004b4	e59d2020	 ldr         r2, [sp, #0x20]
  004b8	e59f3494	 ldr         r3, [pc, #0x494]
  004bc	e1520003	 cmp         r2, r3
  004c0	0a000098	 beq         |$LN14@SYS_IOCont|
  004c4	e59d2020	 ldr         r2, [sp, #0x20]
  004c8	e59f3480	 ldr         r3, [pc, #0x480]
  004cc	e1520003	 cmp         r2, r3
  004d0	0a00009f	 beq         |$LN13@SYS_IOCont|
  004d4	ea00010e	 b           |$LN1@SYS_IOCont|
  004d8		 |$LN29@SYS_IOCont|

; 208  : 	{
; 209  : 
; 210  :         case ZSYS_GetBootInformation:
; 211  : 
; 212  :             *(volatile WORD *)lpOutBuf = *(volatile WORD *)BOOT_MODE_STORE_ADDR;

  004d8	e59f346c	 ldr         r3, [pc, #0x46C]
  004dc	e1d320b0	 ldrh        r2, [r3]
  004e0	e59d3074	 ldr         r3, [sp, #0x74]
  004e4	e1c320b0	 strh        r2, [r3]

; 213  : 
; 214  :             *lpBytesReturned = sizeof(WORD);

  004e8	e59d207c	 ldr         r2, [sp, #0x7C]
  004ec	e3a03002	 mov         r3, #2
  004f0	e5823000	 str         r3, [r2]

; 215  : 
; 216  :             break;

  004f4	ea000109	 b           |$LN30@SYS_IOCont|
  004f8		 |$LN28@SYS_IOCont|

; 217  : 
; 218  : 
; 219  :         case ZSYS_GetSystemInformation:
; 220  : 
; 221  :             memcpy((BYTE *)lpOutBuf, (BYTE *)SYSTEM_INFORMATION_MEMORY_START, sizeof(SysInfor));

  004f8	e3a02038	 mov         r2, #0x38
  004fc	e3a0120a	 mov         r1, #0xA, 4
  00500	e3811902	 orr         r1, r1, #2, 18
  00504	e59d0074	 ldr         r0, [sp, #0x74]
  00508	eb000000	 bl          memcpy

; 222  : 
; 223  :             *lpBytesReturned = sizeof(SysInfor);

  0050c	e59d207c	 ldr         r2, [sp, #0x7C]
  00510	e3a03038	 mov         r3, #0x38
  00514	e5823000	 str         r3, [r2]

; 224  :             break;

  00518	ea000100	 b           |$LN30@SYS_IOCont|
  0051c		 |$LN27@SYS_IOCont|

; 225  : 
; 226  : 
; 227  :         case ZSYS_SetSystemInformation:
; 228  : 
; 229  :             memcpy((BYTE *)SYSTEM_INFORMATION_MEMORY_START, (BYTE *)lpInBuf, sizeof(SysInfor));

  0051c	e3a02038	 mov         r2, #0x38
  00520	e59d106c	 ldr         r1, [sp, #0x6C]
  00524	e3a0020a	 mov         r0, #0xA, 4
  00528	e3800902	 orr         r0, r0, #2, 18
  0052c	eb000000	 bl          memcpy

; 230  : 
; 231  :             return TRUE;

  00530	e3a03001	 mov         r3, #1
  00534	e58d3014	 str         r3, [sp, #0x14]
  00538	ea0000fa	 b           |$LN32@SYS_IOCont|
  0053c		 |$LN26@SYS_IOCont|

; 232  : 
; 233  : 		case ZSYS_GetSerialNumber:
; 234  : 			//RETAILMSG(1, (TEXT("SYS_IOControl: ZSYS_GetSerialNumber\r\n")));
; 235  : 			memcpy((BYTE *)lpOutBuf, (BYTE *)SERIAL_NUMBER_STORE_ADDR, 24);

  0053c	e3a02018	 mov         r2, #0x18
  00540	e59f1400	 ldr         r1, [pc, #0x400]
  00544	e59d0074	 ldr         r0, [sp, #0x74]
  00548	eb000000	 bl          memcpy

; 236  : 			return TRUE;

  0054c	e3a03001	 mov         r3, #1
  00550	e58d3014	 str         r3, [sp, #0x14]
  00554	ea0000f3	 b           |$LN32@SYS_IOCont|
  00558		 |$LN25@SYS_IOCont|

; 237  : 			
; 238  :         case ZSYS_GetBarcodePower:
; 239  : 
; 240  :             *(PBOOL)lpOutBuf = SysCtrl_BCRGetHWPower();

  00558	eb000000	 bl          SysCtrl_BCRGetHWPower
  0055c	e58d0024	 str         r0, [sp, #0x24]
  00560	e59d2024	 ldr         r2, [sp, #0x24]
  00564	e59d3074	 ldr         r3, [sp, #0x74]
  00568	e5832000	 str         r2, [r3]

; 241  : 
; 242  :             *lpBytesReturned = sizeof(BOOL);

  0056c	e59d207c	 ldr         r2, [sp, #0x7C]
  00570	e3a03004	 mov         r3, #4
  00574	e5823000	 str         r3, [r2]

; 243  : 
; 244  :             return TRUE;

  00578	e3a03001	 mov         r3, #1
  0057c	e58d3014	 str         r3, [sp, #0x14]
  00580	ea0000e8	 b           |$LN32@SYS_IOCont|
  00584		 |$LN24@SYS_IOCont|

; 245  : 
; 246  : 
; 247  :         case ZSYS_SetBarcodePower:
; 248  : 
; 249  :             dwState = *(PBOOL)lpInBuf;

  00584	e59d306c	 ldr         r3, [sp, #0x6C]
  00588	e5933000	 ldr         r3, [r3]
  0058c	e58d3008	 str         r3, [sp, #8]

; 250  : 
; 251  :             return SysCtrl_BCRSetHWPower(dwState);

  00590	e59d0008	 ldr         r0, [sp, #8]
  00594	eb000000	 bl          SysCtrl_BCRSetHWPower
  00598	e58d0028	 str         r0, [sp, #0x28]
  0059c	e59d3028	 ldr         r3, [sp, #0x28]
  005a0	e58d3014	 str         r3, [sp, #0x14]
  005a4	ea0000df	 b           |$LN32@SYS_IOCont|
  005a8		 |$LN23@SYS_IOCont|

; 252  : 
; 253  : 		case ZSYS_GetBluetoothPower:
; 254  : 			*(PBOOL)lpOutBuf = (*(volatile BYTE *)DEVICE_POWER_FLAG_ADDR & BT_POWER_MASK) ? TRUE : FALSE;

  005a8	e59f3394	 ldr         r3, [pc, #0x394]
  005ac	e5d33000	 ldrb        r3, [r3]
  005b0	e3130002	 tst         r3, #2
  005b4	0a000002	 beq         |$LN34@SYS_IOCont|
  005b8	e3a03001	 mov         r3, #1
  005bc	e58d302c	 str         r3, [sp, #0x2C]
  005c0	ea000001	 b           |$LN35@SYS_IOCont|
  005c4		 |$LN34@SYS_IOCont|
  005c4	e3a03000	 mov         r3, #0
  005c8	e58d302c	 str         r3, [sp, #0x2C]
  005cc		 |$LN35@SYS_IOCont|
  005cc	e59d202c	 ldr         r2, [sp, #0x2C]
  005d0	e59d3074	 ldr         r3, [sp, #0x74]
  005d4	e5832000	 str         r2, [r3]

; 255  : 			*lpBytesReturned = sizeof(BOOL);

  005d8	e59d207c	 ldr         r2, [sp, #0x7C]
  005dc	e3a03004	 mov         r3, #4
  005e0	e5823000	 str         r3, [r2]

; 256  : 			return TRUE;

  005e4	e3a03001	 mov         r3, #1
  005e8	e58d3014	 str         r3, [sp, #0x14]
  005ec	ea0000cd	 b           |$LN32@SYS_IOCont|
  005f0		 |$LN22@SYS_IOCont|

; 257  : 
; 258  :         case ZSYS_SetBluetoothPower:
; 259  :             dwState = *(PBOOL)lpInBuf;

  005f0	e59d306c	 ldr         r3, [sp, #0x6C]
  005f4	e5933000	 ldr         r3, [r3]
  005f8	e58d3008	 str         r3, [sp, #8]

; 260  :             return BTSetHWPower(dwState);

  005fc	e59d0008	 ldr         r0, [sp, #8]
  00600	eb000000	 bl          BTSetHWPower
  00604	e58d0030	 str         r0, [sp, #0x30]
  00608	e59d3030	 ldr         r3, [sp, #0x30]
  0060c	e58d3014	 str         r3, [sp, #0x14]
  00610	ea0000c4	 b           |$LN32@SYS_IOCont|
  00614		 |$LN21@SYS_IOCont|

; 261  :             
; 262  : 		case ZSYS_GetWIFIState:
; 263  : 			*(PBOOL)lpOutBuf= (*(volatile WORD *)BUILD_IN_DEVICE_FLAG_ADDR&WIFI_BUILD_IN_MASK)? TRUE : FALSE;

  00614	e59f3324	 ldr         r3, [pc, #0x324]
  00618	e1d330b0	 ldrh        r3, [r3]
  0061c	e3130004	 tst         r3, #4
  00620	0a000002	 beq         |$LN36@SYS_IOCont|
  00624	e3a03001	 mov         r3, #1
  00628	e58d3034	 str         r3, [sp, #0x34]
  0062c	ea000001	 b           |$LN37@SYS_IOCont|
  00630		 |$LN36@SYS_IOCont|
  00630	e3a03000	 mov         r3, #0
  00634	e58d3034	 str         r3, [sp, #0x34]
  00638		 |$LN37@SYS_IOCont|
  00638	e59d2034	 ldr         r2, [sp, #0x34]
  0063c	e59d3074	 ldr         r3, [sp, #0x74]
  00640	e5832000	 str         r2, [r3]

; 264  : 			*lpBytesReturned=sizeof(BOOL);

  00644	e59d207c	 ldr         r2, [sp, #0x7C]
  00648	e3a03004	 mov         r3, #4
  0064c	e5823000	 str         r3, [r2]

; 265  : 			return TRUE;	        

  00650	e3a03001	 mov         r3, #1
  00654	e58d3014	 str         r3, [sp, #0x14]
  00658	ea0000b2	 b           |$LN32@SYS_IOCont|
  0065c		 |$LN20@SYS_IOCont|

; 266  : 
; 267  : 		case ZSYS_ClearWIFIState:
; 268  : 			*(volatile WORD *)BUILD_IN_DEVICE_FLAG_ADDR&=~WIFI_BUILD_IN_MASK;

  0065c	e59f32dc	 ldr         r3, [pc, #0x2DC]
  00660	e1d330b0	 ldrh        r3, [r3]
  00664	e1a02003	 mov         r2, r3
  00668	e3e03004	 mvn         r3, #4
  0066c	e0023003	 and         r3, r2, r3
  00670	e59f22c8	 ldr         r2, [pc, #0x2C8]
  00674	e1a03803	 mov         r3, r3, lsl #16
  00678	e1a03823	 mov         r3, r3, lsr #16
  0067c	e1c230b0	 strh        r3, [r2]

; 269  : 			return TRUE;

  00680	e3a03001	 mov         r3, #1
  00684	e58d3014	 str         r3, [sp, #0x14]
  00688	ea0000a6	 b           |$LN32@SYS_IOCont|
  0068c		 |$LN19@SYS_IOCont|

; 270  : 
; 271  : 		case ZSYS_GetRFIDPower:
; 272  :             *(PBOOL)lpOutBuf = RFIDGetHWPower();

  0068c	eb000000	 bl          RFIDGetHWPower
  00690	e58d0038	 str         r0, [sp, #0x38]
  00694	e59d2038	 ldr         r2, [sp, #0x38]
  00698	e59d3074	 ldr         r3, [sp, #0x74]
  0069c	e5832000	 str         r2, [r3]

; 273  :             *lpBytesReturned = sizeof(BOOL);

  006a0	e59d207c	 ldr         r2, [sp, #0x7C]
  006a4	e3a03004	 mov         r3, #4
  006a8	e5823000	 str         r3, [r2]

; 274  :             return TRUE;

  006ac	e3a03001	 mov         r3, #1
  006b0	e58d3014	 str         r3, [sp, #0x14]
  006b4	ea00009b	 b           |$LN32@SYS_IOCont|
  006b8		 |$LN18@SYS_IOCont|

; 275  : 
; 276  :         case ZSYS_SetRFIDPower:
; 277  :             dwState = *(PBOOL)lpInBuf;

  006b8	e59d306c	 ldr         r3, [sp, #0x6C]
  006bc	e5933000	 ldr         r3, [r3]
  006c0	e58d3008	 str         r3, [sp, #8]

; 278  :             //if( RFIDSetHWPower(dwState) ==  FALSE )
; 279  :             if( SysCtrl_BCRSetHWPower(dwState) ==  FALSE )

  006c4	e59d0008	 ldr         r0, [sp, #8]
  006c8	eb000000	 bl          SysCtrl_BCRSetHWPower
  006cc	e58d003c	 str         r0, [sp, #0x3C]
  006d0	e59d303c	 ldr         r3, [sp, #0x3C]
  006d4	e3530000	 cmp         r3, #0
  006d8	1a000002	 bne         |$LN17@SYS_IOCont|

; 280  :             	return FALSE;

  006dc	e3a03000	 mov         r3, #0
  006e0	e58d3014	 str         r3, [sp, #0x14]
  006e4	ea00008f	 b           |$LN32@SYS_IOCont|
  006e8		 |$LN17@SYS_IOCont|

; 281  :             if( dwState )

  006e8	e59d3008	 ldr         r3, [sp, #8]
  006ec	e3530000	 cmp         r3, #0
  006f0	0a000009	 beq         |$LN16@SYS_IOCont|

; 282  :             {
; 283  :             	PXA_OST_DelayMilliSeconds(1000);

  006f4	e3a00ffa	 mov         r0, #0xFA, 30
  006f8	eb000000	 bl          PXA_OST_DelayMilliSeconds

; 284  :             	if(	!ChkBuiltInRFID() )

  006fc	eb000000	 bl          |?ChkBuiltInRFID@@YAHXZ|
  00700	e58d0040	 str         r0, [sp, #0x40]
  00704	e59d3040	 ldr         r3, [sp, #0x40]
  00708	e3530000	 cmp         r3, #0
  0070c	1a000002	 bne         |$LN15@SYS_IOCont|

; 285  :             	{
; 286  :             		PXA_OST_DelayMilliSeconds(1000);

  00710	e3a00ffa	 mov         r0, #0xFA, 30
  00714	eb000000	 bl          PXA_OST_DelayMilliSeconds

; 287  :             		ChkBuiltInRFID();

  00718	eb000000	 bl          |?ChkBuiltInRFID@@YAHXZ|
  0071c		 |$LN15@SYS_IOCont|
  0071c		 |$LN16@SYS_IOCont|

; 288  :             	}
; 289  :             }
; 290  :             return TRUE;

  0071c	e3a03001	 mov         r3, #1
  00720	e58d3014	 str         r3, [sp, #0x14]
  00724	ea00007f	 b           |$LN32@SYS_IOCont|
  00728		 |$LN14@SYS_IOCont|

; 291  :             
; 292  : 		case ZSYS_GetVIBRATORPower:
; 293  :             *(PBOOL)lpOutBuf = VibratorGetHWPower();

  00728	eb000000	 bl          VibratorGetHWPower
  0072c	e58d0044	 str         r0, [sp, #0x44]
  00730	e59d2044	 ldr         r2, [sp, #0x44]
  00734	e59d3074	 ldr         r3, [sp, #0x74]
  00738	e5832000	 str         r2, [r3]

; 294  :             *lpBytesReturned = sizeof(BOOL);

  0073c	e59d207c	 ldr         r2, [sp, #0x7C]
  00740	e3a03004	 mov         r3, #4
  00744	e5823000	 str         r3, [r2]

; 295  :             return TRUE;

  00748	e3a03001	 mov         r3, #1
  0074c	e58d3014	 str         r3, [sp, #0x14]
  00750	ea000074	 b           |$LN32@SYS_IOCont|
  00754		 |$LN13@SYS_IOCont|

; 296  : 
; 297  :         case ZSYS_SetVIBRATORPower:
; 298  :             dwState = *(PBOOL)lpInBuf;

  00754	e59d306c	 ldr         r3, [sp, #0x6C]
  00758	e5933000	 ldr         r3, [r3]
  0075c	e58d3008	 str         r3, [sp, #8]

; 299  :             if( VibratorSetHWPower(dwState) ==  FALSE )

  00760	e59d0008	 ldr         r0, [sp, #8]
  00764	eb000000	 bl          VibratorSetHWPower
  00768	e58d0048	 str         r0, [sp, #0x48]
  0076c	e59d3048	 ldr         r3, [sp, #0x48]
  00770	e3530000	 cmp         r3, #0
  00774	1a000002	 bne         |$LN12@SYS_IOCont|

; 300  :             	return FALSE;            

  00778	e3a03000	 mov         r3, #0
  0077c	e58d3014	 str         r3, [sp, #0x14]
  00780	ea000068	 b           |$LN32@SYS_IOCont|
  00784		 |$LN12@SYS_IOCont|

; 301  :             return TRUE;

  00784	e3a03001	 mov         r3, #1
  00788	e58d3014	 str         r3, [sp, #0x14]
  0078c	ea000065	 b           |$LN32@SYS_IOCont|
  00790		 |$LN11@SYS_IOCont|

; 302  :             
; 303  :         case ZSYS_Run_SW_Reset:
; 304  :             KernelIoControl(IOCTL_HAL_REBOOT, NULL, 0, NULL, 0, NULL);

  00790	e3a03000	 mov         r3, #0
  00794	e58d3004	 str         r3, [sp, #4]
  00798	e3a03000	 mov         r3, #0
  0079c	e58d3000	 str         r3, [sp]
  007a0	e3a03000	 mov         r3, #0
  007a4	e3a02000	 mov         r2, #0
  007a8	e3a01000	 mov         r1, #0
  007ac	e59f0188	 ldr         r0, [pc, #0x188]
  007b0	eb000000	 bl          KernelIoControl

; 305  :             return FALSE;

  007b4	e3a03000	 mov         r3, #0
  007b8	e58d3014	 str         r3, [sp, #0x14]
  007bc	ea000059	 b           |$LN32@SYS_IOCont|
  007c0		 |$LN10@SYS_IOCont|

; 306  :         
; 307  :         case ZSYS_BCR_HW_Trigger:
; 308  : 			dwState = *(PBOOL)lpInBuf;

  007c0	e59d306c	 ldr         r3, [sp, #0x6C]
  007c4	e5933000	 ldr         r3, [r3]
  007c8	e58d3008	 str         r3, [sp, #8]

; 309  : 			SysCtrl_BCR_HW_Trigger(dwState);

  007cc	e59d0008	 ldr         r0, [sp, #8]
  007d0	eb000000	 bl          SysCtrl_BCR_HW_Trigger

; 310  :             return TRUE;

  007d4	e3a03001	 mov         r3, #1
  007d8	e58d3014	 str         r3, [sp, #0x14]
  007dc	ea000051	 b           |$LN32@SYS_IOCont|
  007e0		 |$LN9@SYS_IOCont|

; 311  : 
; 312  : 		case ZSYS_WRITE_FLASH:
; 313  : 			if(NANDInit==FALSE)

  007e0	e59f3150	 ldr         r3, [pc, #0x150]
  007e4	e5933000	 ldr         r3, [r3]
  007e8	e3530000	 cmp         r3, #0
  007ec	1a000004	 bne         |$LN8@SYS_IOCont|

; 314  : 				NANDInit=FlashInit();

  007f0	eb000000	 bl          FlashInit
  007f4	e58d004c	 str         r0, [sp, #0x4C]
  007f8	e59d204c	 ldr         r2, [sp, #0x4C]
  007fc	e59f3134	 ldr         r3, [pc, #0x134]
  00800	e5832000	 str         r2, [r3]
  00804		 |$LN8@SYS_IOCont|

; 315  : 			if(NANDInit==FALSE)

  00804	e59f312c	 ldr         r3, [pc, #0x12C]
  00808	e5933000	 ldr         r3, [r3]
  0080c	e3530000	 cmp         r3, #0
  00810	1a000002	 bne         |$LN7@SYS_IOCont|

; 316  : 				return FALSE;

  00814	e3a03000	 mov         r3, #0
  00818	e58d3014	 str         r3, [sp, #0x14]
  0081c	ea000041	 b           |$LN32@SYS_IOCont|
  00820		 |$LN7@SYS_IOCont|

; 317  : 			lpFPro = (uNandFLASH *)lpInBuf;

  00820	e59d306c	 ldr         r3, [sp, #0x6C]
  00824	e58d3010	 str         r3, [sp, #0x10]

; 318  : 			if(lpFPro==NULL) 

  00828	e59d3010	 ldr         r3, [sp, #0x10]
  0082c	e3530000	 cmp         r3, #0
  00830	1a000002	 bne         |$LN6@SYS_IOCont|

; 319  : 				return FALSE;  

  00834	e3a03000	 mov         r3, #0
  00838	e58d3014	 str         r3, [sp, #0x14]
  0083c	ea000039	 b           |$LN32@SYS_IOCont|
  00840		 |$LN6@SYS_IOCont|

; 320  : 			//RETAILMSG(1, (TEXT("SYS_WRITE_FLASH : 0x%x - 0x%x\r\n"),lpFPro->Offset,lpFPro->DataSize));
; 321  : 			return WriteFlashData(lpFPro->Offset,lpFPro->DataSize,lpFPro->lpBuffer);

  00840	e59d3010	 ldr         r3, [sp, #0x10]
  00844	e2833008	 add         r3, r3, #8
  00848	e5932000	 ldr         r2, [r3]
  0084c	e59d3010	 ldr         r3, [sp, #0x10]
  00850	e2833004	 add         r3, r3, #4
  00854	e5931000	 ldr         r1, [r3]
  00858	e59d3010	 ldr         r3, [sp, #0x10]
  0085c	e5930000	 ldr         r0, [r3]
  00860	eb000000	 bl          WriteFlashData
  00864	e58d0050	 str         r0, [sp, #0x50]
  00868	e59d3050	 ldr         r3, [sp, #0x50]
  0086c	e58d3014	 str         r3, [sp, #0x14]
  00870	ea00002c	 b           |$LN32@SYS_IOCont|
  00874		 |$LN5@SYS_IOCont|

; 322  : 
; 323  : 		case ZSYS_READ_FLASH:
; 324  : 			//RETAILMSG(1, (TEXT("SYS_READ_FLASH\r\n")));
; 325  : 			if(NANDInit==FALSE)

  00874	e59f30bc	 ldr         r3, [pc, #0xBC]
  00878	e5933000	 ldr         r3, [r3]
  0087c	e3530000	 cmp         r3, #0
  00880	1a000004	 bne         |$LN4@SYS_IOCont|

; 326  : 				NANDInit = FlashInit();

  00884	eb000000	 bl          FlashInit
  00888	e58d0054	 str         r0, [sp, #0x54]
  0088c	e59d2054	 ldr         r2, [sp, #0x54]
  00890	e59f30a0	 ldr         r3, [pc, #0xA0]
  00894	e5832000	 str         r2, [r3]
  00898		 |$LN4@SYS_IOCont|

; 327  : 			if(NANDInit==FALSE)

  00898	e59f3098	 ldr         r3, [pc, #0x98]
  0089c	e5933000	 ldr         r3, [r3]
  008a0	e3530000	 cmp         r3, #0
  008a4	1a000002	 bne         |$LN3@SYS_IOCont|

; 328  : 				return FALSE;

  008a8	e3a03000	 mov         r3, #0
  008ac	e58d3014	 str         r3, [sp, #0x14]
  008b0	ea00001c	 b           |$LN32@SYS_IOCont|
  008b4		 |$LN3@SYS_IOCont|

; 329  : 			lpNRead = (NandRead *)lpInBuf;

  008b4	e59d306c	 ldr         r3, [sp, #0x6C]
  008b8	e58d300c	 str         r3, [sp, #0xC]

; 330  : 			if(lpNRead==NULL) 

  008bc	e59d300c	 ldr         r3, [sp, #0xC]
  008c0	e3530000	 cmp         r3, #0
  008c4	1a000002	 bne         |$LN2@SYS_IOCont|

; 331  : 				return FALSE;

  008c8	e3a03000	 mov         r3, #0
  008cc	e58d3014	 str         r3, [sp, #0x14]
  008d0	ea000014	 b           |$LN32@SYS_IOCont|
  008d4		 |$LN2@SYS_IOCont|

; 332  : 			*lpBytesReturned=lpNRead->DataSize;

  008d4	e59d300c	 ldr         r3, [sp, #0xC]
  008d8	e2833004	 add         r3, r3, #4
  008dc	e5932000	 ldr         r2, [r3]
  008e0	e59d307c	 ldr         r3, [sp, #0x7C]
  008e4	e5832000	 str         r2, [r3]

; 333  : 			//RETAILMSG(1, (TEXT("SYS_READ_FLASH : 0x%x - 0x%x\r\n"),lpNRead->Offset,lpNRead->DataSize));
; 334  : 			return ReadFlashData(lpNRead->Offset,lpNRead->DataSize,(PBYTE)lpOutBuf);	

  008e8	e59d2074	 ldr         r2, [sp, #0x74]
  008ec	e59d300c	 ldr         r3, [sp, #0xC]
  008f0	e2833004	 add         r3, r3, #4
  008f4	e5931000	 ldr         r1, [r3]
  008f8	e59d300c	 ldr         r3, [sp, #0xC]
  008fc	e5930000	 ldr         r0, [r3]
  00900	eb000000	 bl          ReadFlashData
  00904	e58d0058	 str         r0, [sp, #0x58]
  00908	e59d3058	 ldr         r3, [sp, #0x58]
  0090c	e58d3014	 str         r3, [sp, #0x14]
  00910	ea000004	 b           |$LN32@SYS_IOCont|
  00914		 |$LN1@SYS_IOCont|

; 335  : 	           
; 336  :         default:
; 337  :             return FALSE;

  00914	e3a03000	 mov         r3, #0
  00918	e58d3014	 str         r3, [sp, #0x14]
  0091c	ea000001	 b           |$LN32@SYS_IOCont|
  00920		 |$LN30@SYS_IOCont|

; 338  : 
; 339  :     }
; 340  : 
; 341  :     return TRUE;

  00920	e3a03001	 mov         r3, #1
  00924	e58d3014	 str         r3, [sp, #0x14]
  00928		 |$LN32@SYS_IOCont|

; 342  : }

  00928	e59d0014	 ldr         r0, [sp, #0x14]
  0092c	e28dd05c	 add         sp, sp, #0x5C
  00930	e89d6000	 ldmia       sp, {sp, lr}
  00934	e12fff1e	 bx          lr
  00938		 |$LN61@SYS_IOCont|
  00938		 |$LN62@SYS_IOCont|
  00938	00000000	 DCD         |NANDInit|
  0093c		 |$LN63@SYS_IOCont|
  0093c	0101003c	 DCD         0x101003c
  00940		 |$LN64@SYS_IOCont|
  00940	a0008034	 DCD         0xa0008034
  00944		 |$LN65@SYS_IOCont|
  00944	a0008032	 DCD         0xa0008032
  00948		 |$LN66@SYS_IOCont|
  00948	a000803a	 DCD         0xa000803a
  0094c		 |$LN67@SYS_IOCont|
  0094c	a0008030	 DCD         0xa0008030
  00950		 |$LN68@SYS_IOCont|
  00950	00222070	 DCD         0x222070
  00954		 |$LN69@SYS_IOCont|
  00954	0022206c	 DCD         0x22206c
  00958		 |$LN70@SYS_IOCont|
  00958	00222068	 DCD         0x222068
  0095c		 |$LN71@SYS_IOCont|
  0095c	00222060	 DCD         0x222060
  00960		 |$LN72@SYS_IOCont|
  00960	0022203c	 DCD         0x22203c
  00964		 |$LN73@SYS_IOCont|
  00964	00222038	 DCD         0x222038
  00968		 |$LN74@SYS_IOCont|
  00968	0022205c	 DCD         0x22205c
  0096c		 |$LN75@SYS_IOCont|
  0096c	00222064	 DCD         0x222064
  00970		 |$LN76@SYS_IOCont|
  00970	0022202c	 DCD         0x22202c
  00974		 |$LN77@SYS_IOCont|
  00974	0022201c	 DCD         0x22201c
  00978		 |$LN78@SYS_IOCont|
  00978	00222018	 DCD         0x222018
  0097c		 |$LN79@SYS_IOCont|
  0097c	00222028	 DCD         0x222028
  00980		 |$LN80@SYS_IOCont|
  00980	00222014	 DCD         0x222014
  00984		 |$LN81@SYS_IOCont|
  00984	00222030	 DCD         0x222030
  00988		 |$M38249|

			 ENDP  ; |?SYS_IOControl@@YAHKKPAXK0KPAK@Z|, SYS_IOControl

	END
