; Listing generated by Microsoft (R) Optimizing Compiler Version 14.01.60511.01 

	TTL	C:\WINCE600\PLATFORM\Z2170\SRC\DRIVERS\sysctrl\TrayIcon.cpp
	CODE32

  00000			 AREA	 |.drectve|, DRECTVE
	DCB	"-defaultlib:LIBCMT "
	DCB	"-defaultlib:OLDNAMES "

	EXPORT	|??_C@_1BE@BKKMLFKH@?$AA8?$AA0?$AA6?$AA?5?$AAH?$AAS?$AAM?$AAH?$AAZ?$AA?$AA@| [ DATA ] ; `string'
	EXPORT	|??_C@_1BA@HLPDAKHN@?$AA8?$AA0?$AA6?$AA?5?$AAM?$AAH?$AAZ?$AA?$AA@| [ DATA ] ; `string'
	EXPORT	|??_C@_1BA@FGCEKGOE@?$AA6?$AA2?$AA4?$AA?5?$AAM?$AAH?$AAZ?$AA?$AA@| [ DATA ] ; `string'
	EXPORT	|??_C@_1BA@EBNODIMD@?$AA4?$AA1?$AA6?$AA?5?$AAM?$AAH?$AAZ?$AA?$AA@| [ DATA ] ; `string'
	EXPORT	|??_C@_1BA@GGHBGDEP@?$AA2?$AA0?$AA8?$AA?5?$AAM?$AAH?$AAZ?$AA?$AA@| [ DATA ] ; `string'
	EXPORT	|??_C@_1BC@EKPDPFCF@?$AAR?$AAi?$AAn?$AAg?$AA?5?$AAO?$AAS?$AAC?$AA?$AA@| [ DATA ] ; `string'

  00000			 AREA	 |.bss|, NOINIT
|hTrayIcon| %	0x4

  00000			 AREA	 |.data|, DATA
|g_szOPDescription| DCD |??_C@_1BC@EKPDPFCF@?$AAR?$AAi?$AAn?$AAg?$AA?5?$AAO?$AAS?$AAC?$AA?$AA@|
	DCD	|??_C@_1BA@GGHBGDEP@?$AA2?$AA0?$AA8?$AA?5?$AAM?$AAH?$AAZ?$AA?$AA@|
	DCD	|??_C@_1BA@EBNODIMD@?$AA4?$AA1?$AA6?$AA?5?$AAM?$AAH?$AAZ?$AA?$AA@|
	DCD	|??_C@_1BA@FGCEKGOE@?$AA6?$AA2?$AA4?$AA?5?$AAM?$AAH?$AAZ?$AA?$AA@|
	DCD	|??_C@_1BA@HLPDAKHN@?$AA8?$AA0?$AA6?$AA?5?$AAM?$AAH?$AAZ?$AA?$AA@|
	DCD	|??_C@_1BE@BKKMLFKH@?$AA8?$AA0?$AA6?$AA?5?$AAH?$AAS?$AAM?$AAH?$AAZ?$AA?$AA@|

  00000			 AREA	 |.rdata|, DATA, READONLY
|??_C@_1BE@BKKMLFKH@?$AA8?$AA0?$AA6?$AA?5?$AAH?$AAS?$AAM?$AAH?$AAZ?$AA?$AA@| DCB "8"
	DCB	0x0, "0", 0x0, "6", 0x0, " ", 0x0, "H", 0x0, "S", 0x0, "M"
	DCB	0x0, "H", 0x0, "Z", 0x0, 0x0, 0x0	; `string'

  00000			 AREA	 |.rdata|, DATA, READONLY
|??_C@_1BA@HLPDAKHN@?$AA8?$AA0?$AA6?$AA?5?$AAM?$AAH?$AAZ?$AA?$AA@| DCB "8"
	DCB	0x0, "0", 0x0, "6", 0x0, " ", 0x0, "M", 0x0, "H", 0x0, "Z"
	DCB	0x0, 0x0, 0x0				; `string'

  00000			 AREA	 |.rdata|, DATA, READONLY
|??_C@_1BA@FGCEKGOE@?$AA6?$AA2?$AA4?$AA?5?$AAM?$AAH?$AAZ?$AA?$AA@| DCB "6"
	DCB	0x0, "2", 0x0, "4", 0x0, " ", 0x0, "M", 0x0, "H", 0x0, "Z"
	DCB	0x0, 0x0, 0x0				; `string'

  00000			 AREA	 |.rdata|, DATA, READONLY
|??_C@_1BA@EBNODIMD@?$AA4?$AA1?$AA6?$AA?5?$AAM?$AAH?$AAZ?$AA?$AA@| DCB "4"
	DCB	0x0, "1", 0x0, "6", 0x0, " ", 0x0, "M", 0x0, "H", 0x0, "Z"
	DCB	0x0, 0x0, 0x0				; `string'

  00000			 AREA	 |.rdata|, DATA, READONLY
|??_C@_1BA@GGHBGDEP@?$AA2?$AA0?$AA8?$AA?5?$AAM?$AAH?$AAZ?$AA?$AA@| DCB "2"
	DCB	0x0, "0", 0x0, "8", 0x0, " ", 0x0, "M", 0x0, "H", 0x0, "Z"
	DCB	0x0, 0x0, 0x0				; `string'

  00000			 AREA	 |.rdata|, DATA, READONLY
|??_C@_1BC@EKPDPFCF@?$AAR?$AAi?$AAn?$AAg?$AA?5?$AAO?$AAS?$AAC?$AA?$AA@| DCB "R"
	DCB	0x0, "i", 0x0, "n", 0x0, "g", 0x0, " ", 0x0, "O", 0x0, "S"
	DCB	0x0, "C", 0x0, 0x0, 0x0			; `string'
	EXPORT	|??_C@_1EG@BKDBALPF@?$AA?6?$AA?$AN?$AAE?$AAx?$AAi?$AAt?$AAI?$AAc?$AAo?$AAn?$AAP?$AAr?$AAo?$AAc?$AA?5?$AA?9?$AA?$DO?$AA?5?$AAT?$AAr?$AAa?$AAy?$AAI?$AAc?$AAo?$AAn?$AAT?$AAh?$AAr?$AAe?$AAa?$AAd@| [ DATA ] ; `string'
	EXPORT	|??_C@_11LOCGONAA@?$AA?$AA@| [ DATA ]	; `string'
	EXPORT	|?IconProc@@YAJPAUHWND__@@IIJ@Z|	; IconProc
	EXPORT	|??_C@_1BE@DOAMBMM@?$AAZ?$AAT?$AAr?$AAa?$AAy?$AAI?$AAc?$AAo?$AAn?$AA?$AA@| [ DATA ] ; `string'
	EXPORT	|?TrayIconThread@@YAKPAX@Z|		; TrayIconThread
	IMPORT	|NKDbgPrintfW|
	IMPORT	|DispatchMessageW|
	IMPORT	|TranslateMessage|
	IMPORT	|GetMessageW|
	IMPORT	|CreateWindowExW|
	IMPORT	|RegisterClassW|
	IMPORT	|GetModuleHandleW|
	IMPORT	|memset|
	IMPORT	|WaitForAPIReady|

  00000			 AREA	 |.pdata|, PDATA
|$T37341| DCD	|$LN10@TrayIconTh|
	DCD	0x40005c04
; File c:\wince600\platform\z2170\src\drivers\sysctrl\trayicon.cpp

  00000			 AREA	 |.rdata|, DATA, READONLY
|??_C@_1EG@BKDBALPF@?$AA?6?$AA?$AN?$AAE?$AAx?$AAi?$AAt?$AAI?$AAc?$AAo?$AAn?$AAP?$AAr?$AAo?$AAc?$AA?5?$AA?9?$AA?$DO?$AA?5?$AAT?$AAr?$AAa?$AAy?$AAI?$AAc?$AAo?$AAn?$AAT?$AAh?$AAr?$AAe?$AAa?$AAd@| DCB 0xa
	DCB	0x0, 0xd, 0x0, "E", 0x0, "x", 0x0, "i", 0x0, "t", 0x0, "I"
	DCB	0x0, "c", 0x0, "o", 0x0, "n", 0x0, "P", 0x0, "r", 0x0, "o"
	DCB	0x0, "c", 0x0, " ", 0x0, "-", 0x0, ">", 0x0, " ", 0x0, "T"
	DCB	0x0, "r", 0x0, "a", 0x0, "y", 0x0, "I", 0x0, "c", 0x0, "o"
	DCB	0x0, "n", 0x0, "T", 0x0, "h", 0x0, "r", 0x0, "e", 0x0, "a"
	DCB	0x0, "d", 0x0, 0xa, 0x0, 0xd, 0x0, 0x0, 0x0 ; `string'

  00000			 AREA	 |.rdata|, DATA, READONLY
|??_C@_11LOCGONAA@?$AA?$AA@| DCB 0x0, 0x0		; `string'

  00000			 AREA	 |.rdata|, DATA, READONLY
|??_C@_1BE@DOAMBMM@?$AAZ?$AAT?$AAr?$AAa?$AAy?$AAI?$AAc?$AAo?$AAn?$AA?$AA@| DCB "Z"
	DCB	0x0, "T", 0x0, "r", 0x0, "a", 0x0, "y", 0x0, "I", 0x0, "c"
	DCB	0x0, "o", 0x0, "n", 0x0, 0x0, 0x0	; `string'
; Function compile flags: /Odtp

  00000			 AREA	 |.text|, CODE, ARM

  00000		 |?TrayIconThread@@YAKPAX@Z| PROC	; TrayIconThread

; 30   : {

  00000		 |$LN10@TrayIconTh|
  00000	e1a0c00d	 mov         r12, sp
  00004	e92d0001	 stmdb       sp!, {r0}
  00008	e92d5000	 stmdb       sp!, {r12, lr}
  0000c	e24dd09c	 sub         sp, sp, #0x9C
  00010		 |$M37338|

; 31   :     LPCTSTR     szClassName = _T("ZTrayIcon");

  00010	e59f3154	 ldr         r3, [pc, #0x154]
  00014	e58d3048	 str         r3, [sp, #0x48]

; 32   : 
; 33   :     WNDCLASS    wc;
; 34   : 
; 35   :     /*while(!IsAPIReady(SH_SHELL))
; 36   :         {}*/
; 37   :     WaitForAPIReady(SH_SHELL, INFINITE);

  00018	e3e01000	 mvn         r1, #0
  0001c	e3a00055	 mov         r0, #0x55
  00020	eb000000	 bl          WaitForAPIReady

; 38   : 
; 39   : 
; 40   :     if(hTrayIcon == NULL)

  00024	e59f3134	 ldr         r3, [pc, #0x134]
  00028	e5933000	 ldr         r3, [r3]
  0002c	e3530000	 cmp         r3, #0
  00030	1a00003c	 bne         |$LN3@TrayIconTh|

; 41   :     {
; 42   :         ZeroMemory(&wc, sizeof(wc));

  00034	e3a02028	 mov         r2, #0x28
  00038	e3a01000	 mov         r1, #0
  0003c	e28d0020	 add         r0, sp, #0x20
  00040	eb000000	 bl          memset

; 43   :         wc.lpfnWndProc = IconProc;

  00044	e59f311c	 ldr         r3, [pc, #0x11C]
  00048	e58d3024	 str         r3, [sp, #0x24]

; 44   :         wc.hInstance   = GetModuleHandle(NULL);

  0004c	e3a00000	 mov         r0, #0
  00050	eb000000	 bl          GetModuleHandleW
  00054	e58d008c	 str         r0, [sp, #0x8C]
  00058	e59d308c	 ldr         r3, [sp, #0x8C]
  0005c	e58d3030	 str         r3, [sp, #0x30]

; 45   :         wc.lpszClassName = szClassName;

  00060	e59d3048	 ldr         r3, [sp, #0x48]
  00064	e58d3044	 str         r3, [sp, #0x44]

; 46   :         wc.hCursor = NULL;

  00068	e3a03000	 mov         r3, #0
  0006c	e58d3038	 str         r3, [sp, #0x38]

; 47   :         wc.hbrBackground = NULL;

  00070	e3a03000	 mov         r3, #0
  00074	e58d303c	 str         r3, [sp, #0x3C]

; 48   :         RegisterClass(&wc);

  00078	e28d0020	 add         r0, sp, #0x20
  0007c	eb000000	 bl          RegisterClassW

; 49   : 
; 50   :         hTrayIcon = CreateWindow(szClassName, _T(""), WS_POPUP | WS_CLIPCHILDREN, 0, 0, 0, 0, NULL, NULL, wc.hInstance, NULL);

  00080	e3a03000	 mov         r3, #0
  00084	e58d301c	 str         r3, [sp, #0x1C]
  00088	e59d3030	 ldr         r3, [sp, #0x30]
  0008c	e58d3018	 str         r3, [sp, #0x18]
  00090	e3a03000	 mov         r3, #0
  00094	e58d3014	 str         r3, [sp, #0x14]
  00098	e3a03000	 mov         r3, #0
  0009c	e58d3010	 str         r3, [sp, #0x10]
  000a0	e3a03000	 mov         r3, #0
  000a4	e58d300c	 str         r3, [sp, #0xC]
  000a8	e3a03000	 mov         r3, #0
  000ac	e58d3008	 str         r3, [sp, #8]
  000b0	e3a03000	 mov         r3, #0
  000b4	e58d3004	 str         r3, [sp, #4]
  000b8	e3a03000	 mov         r3, #0
  000bc	e58d3000	 str         r3, [sp]
  000c0	e3a03482	 mov         r3, #0x82, 8
  000c4	e59f2098	 ldr         r2, [pc, #0x98]
  000c8	e59d1048	 ldr         r1, [sp, #0x48]
  000cc	e3a00000	 mov         r0, #0
  000d0	eb000000	 bl          CreateWindowExW
  000d4	e58d0090	 str         r0, [sp, #0x90]
  000d8	e59d2090	 ldr         r2, [sp, #0x90]
  000dc	e59f307c	 ldr         r3, [pc, #0x7C]
  000e0	e5832000	 str         r2, [r3]
  000e4		 |$LN2@TrayIconTh|

; 51   : 
; 52   : 
; 53   :         MSG  msg;
; 54   : 
; 55   :         while(GetMessage(&msg, NULL, 0, 0))

  000e4	e3a03000	 mov         r3, #0
  000e8	e3a02000	 mov         r2, #0
  000ec	e3a01000	 mov         r1, #0
  000f0	e28d004c	 add         r0, sp, #0x4C
  000f4	eb000000	 bl          GetMessageW
  000f8	e58d0094	 str         r0, [sp, #0x94]
  000fc	e59d3094	 ldr         r3, [sp, #0x94]
  00100	e3530000	 cmp         r3, #0
  00104	0a000004	 beq         |$LN1@TrayIconTh|

; 56   :         {
; 57   :             TranslateMessage(&msg);

  00108	e28d004c	 add         r0, sp, #0x4C
  0010c	eb000000	 bl          TranslateMessage

; 58   :             DispatchMessage(&msg);

  00110	e28d004c	 add         r0, sp, #0x4C
  00114	eb000000	 bl          DispatchMessageW

; 59   :         }

  00118	eafffff1	 b           |$LN2@TrayIconTh|
  0011c		 |$LN1@TrayIconTh|

; 60   : 
; 61   :         hTrayIcon = NULL;

  0011c	e59f203c	 ldr         r2, [pc, #0x3C]
  00120	e3a03000	 mov         r3, #0
  00124	e5823000	 str         r3, [r2]
  00128		 |$LN3@TrayIconTh|

; 62   :     }
; 63   : 
; 64   : 
; 65   :     RETAILMSG(1, (TEXT("\n\rExitIconProc -> TrayIconThread\n\r")));

  00128	e59f002c	 ldr         r0, [pc, #0x2C]
  0012c	eb000000	 bl          NKDbgPrintfW
  00130	e3a03001	 mov         r3, #1
  00134	e58d3098	 str         r3, [sp, #0x98]
  00138	ea000001	 b           |$LN7@TrayIconTh|
  0013c	e3a03000	 mov         r3, #0
  00140	e58d3098	 str         r3, [sp, #0x98]
  00144		 |$LN7@TrayIconTh|

; 66   : 
; 67   :     return 0;

  00144	e3a03000	 mov         r3, #0
  00148	e58d3088	 str         r3, [sp, #0x88]

; 68   : }

  0014c	e59d0088	 ldr         r0, [sp, #0x88]
  00150	e28dd09c	 add         sp, sp, #0x9C
  00154	e89d6000	 ldmia       sp, {sp, lr}
  00158	e12fff1e	 bx          lr
  0015c		 |$LN11@TrayIconTh|
  0015c		 |$LN12@TrayIconTh|
  0015c	00000000	 DCD         |??_C@_1EG@BKDBALPF@?$AA?6?$AA?$AN?$AAE?$AAx?$AAi?$AAt?$AAI?$AAc?$AAo?$AAn?$AAP?$AAr?$AAo?$AAc?$AA?5?$AA?9?$AA?$DO?$AA?5?$AAT?$AAr?$AAa?$AAy?$AAI?$AAc?$AAo?$AAn?$AAT?$AAh?$AAr?$AAe?$AAa?$AAd@|
  00160		 |$LN13@TrayIconTh|
  00160	00000000	 DCD         |hTrayIcon|
  00164		 |$LN14@TrayIconTh|
  00164	00000000	 DCD         |??_C@_11LOCGONAA@?$AA?$AA@|
  00168		 |$LN15@TrayIconTh|
  00168	00000000	 DCD         |?IconProc@@YAJPAUHWND__@@IIJ@Z|
  0016c		 |$LN16@TrayIconTh|
  0016c	00000000	 DCD         |??_C@_1BE@DOAMBMM@?$AAZ?$AAT?$AAr?$AAa?$AAy?$AAI?$AAc?$AAo?$AAn?$AA?$AA@|
  00170		 |$M37339|

			 ENDP  ; |?TrayIconThread@@YAKPAX@Z|, TrayIconThread

	EXPORT	|??_C@_1DG@EKDLBPMO@?$AA?6?$AA?$AN?$AAI?$AAc?$AAo?$AAn?$AAP?$AAr?$AAo?$AAc?$AA?5?$AA?9?$AA?$DO?$AA?5?$AAW?$AAM?$AA_?$AAD?$AAE?$AAS?$AAT?$AAR?$AAO?$AAY?$AA?6?$AA?$AN?$AA?$AA@| [ DATA ] ; `string'
	EXPORT	|??_C@_1CM@IEKCLLO@?$AA?6?$AA?$AN?$AAI?$AAc?$AAo?$AAn?$AAP?$AAr?$AAo?$AAc?$AA?5?$AA?9?$AA?$DO?$AA?5?$AAW?$AAM?$AA_?$AAQ?$AAU?$AAI?$AAT?$AA?$AA@| [ DATA ] ; `string'
	EXPORT	|??_C@_1BG@MBAMAOHI@?$AAc?$AAt?$AAl?$AAp?$AAn?$AAl?$AA?4?$AAe?$AAx?$AAe?$AA?$AA@| [ DATA ] ; `string'
	EXPORT	|??_C@_1BG@IKLIHJNO@?$AAb?$AAt?$AAh?$AAp?$AAn?$AAl?$AA?4?$AAc?$AAp?$AAl?$AA?$AA@| [ DATA ] ; `string'
	IMPORT	|DefWindowProcW|
	IMPORT	|PostQuitMessage|
	IMPORT	|?LaunchProgram@@YAXPBG0@Z|		; LaunchProgram

  00008			 AREA	 |.pdata|, PDATA
|$T37358| DCD	|$LN22@IconProc|
	DCD	0x40005904

  00000			 AREA	 |.rdata|, DATA, READONLY
|??_C@_1DG@EKDLBPMO@?$AA?6?$AA?$AN?$AAI?$AAc?$AAo?$AAn?$AAP?$AAr?$AAo?$AAc?$AA?5?$AA?9?$AA?$DO?$AA?5?$AAW?$AAM?$AA_?$AAD?$AAE?$AAS?$AAT?$AAR?$AAO?$AAY?$AA?6?$AA?$AN?$AA?$AA@| DCB 0xa
	DCB	0x0, 0xd, 0x0, "I", 0x0, "c", 0x0, "o", 0x0, "n", 0x0, "P"
	DCB	0x0, "r", 0x0, "o", 0x0, "c", 0x0, " ", 0x0, "-", 0x0, ">"
	DCB	0x0, " ", 0x0, "W", 0x0, "M", 0x0, "_", 0x0, "D", 0x0, "E"
	DCB	0x0, "S", 0x0, "T", 0x0, "R", 0x0, "O", 0x0, "Y", 0x0, 0xa
	DCB	0x0, 0xd, 0x0, 0x0, 0x0			; `string'

  00000			 AREA	 |.rdata|, DATA, READONLY
|??_C@_1CM@IEKCLLO@?$AA?6?$AA?$AN?$AAI?$AAc?$AAo?$AAn?$AAP?$AAr?$AAo?$AAc?$AA?5?$AA?9?$AA?$DO?$AA?5?$AAW?$AAM?$AA_?$AAQ?$AAU?$AAI?$AAT?$AA?$AA@| DCB 0xa
	DCB	0x0, 0xd, 0x0, "I", 0x0, "c", 0x0, "o", 0x0, "n", 0x0, "P"
	DCB	0x0, "r", 0x0, "o", 0x0, "c", 0x0, " ", 0x0, "-", 0x0, ">"
	DCB	0x0, " ", 0x0, "W", 0x0, "M", 0x0, "_", 0x0, "Q", 0x0, "U"
	DCB	0x0, "I", 0x0, "T", 0x0, 0x0, 0x0	; `string'

  00000			 AREA	 |.rdata|, DATA, READONLY
|??_C@_1BG@MBAMAOHI@?$AAc?$AAt?$AAl?$AAp?$AAn?$AAl?$AA?4?$AAe?$AAx?$AAe?$AA?$AA@| DCB "c"
	DCB	0x0, "t", 0x0, "l", 0x0, "p", 0x0, "n", 0x0, "l", 0x0, "."
	DCB	0x0, "e", 0x0, "x", 0x0, "e", 0x0, 0x0, 0x0 ; `string'

  00000			 AREA	 |.rdata|, DATA, READONLY
|??_C@_1BG@IKLIHJNO@?$AAb?$AAt?$AAh?$AAp?$AAn?$AAl?$AA?4?$AAc?$AAp?$AAl?$AA?$AA@| DCB "b"
	DCB	0x0, "t", 0x0, "h", 0x0, "p", 0x0, "n", 0x0, "l", 0x0, "."
	DCB	0x0, "c", 0x0, "p", 0x0, "l", 0x0, 0x0, 0x0 ; `string'
; Function compile flags: /Odtp

  00170			 AREA	 |.text|, CODE, ARM

  00170		 |?IconProc@@YAJPAUHWND__@@IIJ@Z| PROC	; IconProc

; 71   : {

  00170		 |$LN22@IconProc|
  00170	e1a0c00d	 mov         r12, sp
  00174	e92d000f	 stmdb       sp!, {r0 - r3}
  00178	e92d5000	 stmdb       sp!, {r12, lr}
  0017c	e24dd018	 sub         sp, sp, #0x18
  00180		 |$M37355|

; 72   : 
; 73   :     UINT uID = (UINT)wParam;

  00180	e59d3028	 ldr         r3, [sp, #0x28]
  00184	e58d3000	 str         r3, [sp]

; 74   : 
; 75   :     if(uID == UID_BT_TASK)

  00188	e59d3000	 ldr         r3, [sp]
  0018c	e3530011	 cmp         r3, #0x11
  00190	1a00000b	 bne         |$LN12@IconProc|

; 76   :     {
; 77   :         // what kind of message did we get
; 78   :         switch((UINT)lParam)

  00194	e59d202c	 ldr         r2, [sp, #0x2C]
  00198	e3a03c02	 mov         r3, #2, 24
  0019c	e3833003	 orr         r3, r3, #3
  001a0	e1520003	 cmp         r2, r3
  001a4	0a000000	 beq         |$LN9@IconProc|
  001a8	ea000005	 b           |$LN8@IconProc|
  001ac		 |$LN9@IconProc|

; 79   :         {
; 80   :             case WM_LBUTTONDBLCLK:
; 81   :                 LaunchProgram(L"ctlpnl.exe", L"bthpnl.cpl");

  001ac	e59f111c	 ldr         r1, [pc, #0x11C]
  001b0	e59f0114	 ldr         r0, [pc, #0x114]
  001b4	eb000000	 bl          |?LaunchProgram@@YAXPBG0@Z|

; 82   :                 return 0;

  001b8	e3a03000	 mov         r3, #0
  001bc	e58d3004	 str         r3, [sp, #4]
  001c0	ea00003b	 b           |$LN13@IconProc|
  001c4		 |$LN8@IconProc|
  001c4		 |$LN12@IconProc|

; 83   : 
; 84   :             default:
; 85   :                 break;
; 86   :         }
; 87   :     }
; 88   : 
; 89   : 
; 90   : 
; 91   : 
; 92   :     switch(uMsg)

  001c4	e59d3024	 ldr         r3, [sp, #0x24]
  001c8	e58d3008	 str         r3, [sp, #8]
  001cc	e59d3008	 ldr         r3, [sp, #8]
  001d0	e3530012	 cmp         r3, #0x12
  001d4	8a000009	 bhi         |$LN19@IconProc|
  001d8	e59d3008	 ldr         r3, [sp, #8]
  001dc	e3530012	 cmp         r3, #0x12
  001e0	0a000012	 beq         |$LN3@IconProc|
  001e4	e59d3008	 ldr         r3, [sp, #8]
  001e8	e3530001	 cmp         r3, #1
  001ec	0a000009	 beq         |$LN5@IconProc|
  001f0	e59d3008	 ldr         r3, [sp, #8]
  001f4	e3530002	 cmp         r3, #2
  001f8	0a000016	 beq         |$LN2@IconProc|
  001fc	ea000021	 b           |$LN1@IconProc|
  00200		 |$LN19@IconProc|
  00200	e59d2008	 ldr         r2, [sp, #8]
  00204	e3a03c01	 mov         r3, #1, 24
  00208	e3833011	 orr         r3, r3, #0x11
  0020c	e1520003	 cmp         r2, r3
  00210	0a000003	 beq         |$LN4@IconProc|
  00214	ea00001b	 b           |$LN1@IconProc|
  00218		 |$LN5@IconProc|

; 93   :     {
; 94   :         case WM_CREATE:
; 95   :             return 0;

  00218	e3a03000	 mov         r3, #0
  0021c	e58d3004	 str         r3, [sp, #4]
  00220	ea000023	 b           |$LN13@IconProc|
  00224		 |$LN4@IconProc|

; 96   : 
; 97   :         case WM_COMMAND:
; 98   :             return 0;

  00224	e3a03000	 mov         r3, #0
  00228	e58d3004	 str         r3, [sp, #4]
  0022c	ea000020	 b           |$LN13@IconProc|
  00230		 |$LN3@IconProc|

; 99   : 
; 100  : 
; 101  : 
; 102  :         case WM_QUIT:
; 103  :             RETAILMSG(1, (TEXT("\n\rIconProc -> WM_QUIT")));

  00230	e59f0090	 ldr         r0, [pc, #0x90]
  00234	eb000000	 bl          NKDbgPrintfW
  00238	e3a03001	 mov         r3, #1
  0023c	e58d300c	 str         r3, [sp, #0xC]
  00240	ea000001	 b           |$LN16@IconProc|
  00244	e3a03000	 mov         r3, #0
  00248	e58d300c	 str         r3, [sp, #0xC]
  0024c		 |$LN16@IconProc|

; 104  :             return 0;

  0024c	e3a03000	 mov         r3, #0
  00250	e58d3004	 str         r3, [sp, #4]
  00254	ea000016	 b           |$LN13@IconProc|
  00258		 |$LN2@IconProc|

; 105  : 
; 106  :         case WM_DESTROY:
; 107  : 
; 108  :             RETAILMSG(1, (TEXT("\n\rIconProc -> WM_DESTROY\n\r")));

  00258	e59f0064	 ldr         r0, [pc, #0x64]
  0025c	eb000000	 bl          NKDbgPrintfW
  00260	e3a03001	 mov         r3, #1
  00264	e58d3010	 str         r3, [sp, #0x10]
  00268	ea000001	 b           |$LN18@IconProc|
  0026c	e3a03000	 mov         r3, #0
  00270	e58d3010	 str         r3, [sp, #0x10]
  00274		 |$LN18@IconProc|

; 109  : 
; 110  :             PostQuitMessage(0);

  00274	e3a00000	 mov         r0, #0
  00278	eb000000	 bl          PostQuitMessage

; 111  : 
; 112  :             return 0;

  0027c	e3a03000	 mov         r3, #0
  00280	e58d3004	 str         r3, [sp, #4]
  00284	ea00000a	 b           |$LN13@IconProc|
  00288		 |$LN1@IconProc|

; 113  : 
; 114  :         default:
; 115  :             return DefWindowProc(hWnd, uMsg, wParam, lParam);

  00288	e59d302c	 ldr         r3, [sp, #0x2C]
  0028c	e59d2028	 ldr         r2, [sp, #0x28]
  00290	e59d1024	 ldr         r1, [sp, #0x24]
  00294	e59d0020	 ldr         r0, [sp, #0x20]
  00298	eb000000	 bl          DefWindowProcW
  0029c	e58d0014	 str         r0, [sp, #0x14]
  002a0	e59d3014	 ldr         r3, [sp, #0x14]
  002a4	e58d3004	 str         r3, [sp, #4]
  002a8	ea000001	 b           |$LN13@IconProc|

; 116  : 
; 117  :     }
; 118  : 
; 119  : 
; 120  :     return 0;

  002ac	e3a03000	 mov         r3, #0
  002b0	e58d3004	 str         r3, [sp, #4]
  002b4		 |$LN13@IconProc|

; 121  : }

  002b4	e59d0004	 ldr         r0, [sp, #4]
  002b8	e28dd018	 add         sp, sp, #0x18
  002bc	e89d6000	 ldmia       sp, {sp, lr}
  002c0	e12fff1e	 bx          lr
  002c4		 |$LN23@IconProc|
  002c4		 |$LN24@IconProc|
  002c4	00000000	 DCD         |??_C@_1DG@EKDLBPMO@?$AA?6?$AA?$AN?$AAI?$AAc?$AAo?$AAn?$AAP?$AAr?$AAo?$AAc?$AA?5?$AA?9?$AA?$DO?$AA?5?$AAW?$AAM?$AA_?$AAD?$AAE?$AAS?$AAT?$AAR?$AAO?$AAY?$AA?6?$AA?$AN?$AA?$AA@|
  002c8		 |$LN25@IconProc|
  002c8	00000000	 DCD         |??_C@_1CM@IEKCLLO@?$AA?6?$AA?$AN?$AAI?$AAc?$AAo?$AAn?$AAP?$AAr?$AAo?$AAc?$AA?5?$AA?9?$AA?$DO?$AA?5?$AAW?$AAM?$AA_?$AAQ?$AAU?$AAI?$AAT?$AA?$AA@|
  002cc		 |$LN26@IconProc|
  002cc	00000000	 DCD         |??_C@_1BG@MBAMAOHI@?$AAc?$AAt?$AAl?$AAp?$AAn?$AAl?$AA?4?$AAe?$AAx?$AAe?$AA?$AA@|
  002d0		 |$LN27@IconProc|
  002d0	00000000	 DCD         |??_C@_1BG@IKLIHJNO@?$AAb?$AAt?$AAh?$AAp?$AAn?$AAl?$AA?4?$AAc?$AAp?$AAl?$AA?$AA@|
  002d4		 |$M37356|

			 ENDP  ; |?IconProc@@YAJPAUHWND__@@IIJ@Z|, IconProc

	EXPORT	|??_C@_1DO@HPKMHGIP@?$AA?6?$AA?$AN?$AA?9?$AAA?$AAd?$AAd?$AAB?$AAl?$AAu?$AAe?$AAt?$AAo?$AAo?$AAt?$AAh?$AAT?$AAr?$AAa?$AAy?$AAI?$AAc?$AAo?$AAn?$AA?5?$AA?$CI?$AA?$CF?$AAx?$AA?$CJ?$AA?$AN?$AA?6?$AA?$AA@| [ DATA ] ; `string'
	EXPORT	|??_C@_1GC@ELJNEMOC@?$AA?6?$AA?$AN?$AAA?$AAd?$AAd?$AAB?$AAl?$AAu?$AAe?$AAt?$AAo?$AAo?$AAt?$AAh?$AAT?$AAr?$AAa?$AAy?$AAI?$AAc?$AAo?$AAn?$AA?9?$AA?9?$AA?$DO?$AA?5?$AAL?$AAo?$AAa?$AAd?$AAI?$AAm@| [ DATA ] ; `string'
	EXPORT	|??_C@_1CI@OHCJFJPM@?$AAE?$AAR?$AAR?$AAO?$AAR?$AA?3?$AA?5?$AA?$CF?$AAs?$AA?5?$AAl?$AAi?$AAn?$AAe?$AA?5?$AA?$CF?$AAd?$AA?3?$AA?5?$AA?$AA@| [ DATA ] ; `string'
	EXPORT	|??_C@_1HM@JNFOMEAK@?$AAC?$AA?3?$AA?2?$AAW?$AAI?$AAN?$AAC?$AAE?$AA6?$AA0?$AA0?$AA?2?$AAP?$AAL?$AAA?$AAT?$AAF?$AAO?$AAR?$AAM?$AA?2?$AAZ?$AA2?$AA1?$AA7?$AA0?$AA?2?$AAS?$AAR?$AAC?$AA?2?$AAD@| [ DATA ] ; `string'
	EXPORT	|??_C@_1DE@HLMEIBHB@?$AA?6?$AA?$AN?$AA?$CL?$AAA?$AAd?$AAd?$AAB?$AAl?$AAu?$AAe?$AAt?$AAo?$AAo?$AAt?$AAh?$AAT?$AAr?$AAa?$AAy?$AAI?$AAc?$AAo?$AAn?$AA?$AN?$AA?6?$AA?$AA@| [ DATA ] ; `string'
	EXPORT	|?AddBluetoothTrayIcon@@YAHXZ|		; AddBluetoothTrayIcon
	IMPORT	|Sleep|
	IMPORT	|Shell_NotifyIcon|
	IMPORT	|LoadImageW|
	IMPORT	|?ghInstance@@3PAUHINSTANCE__@@A|	; ghInstance

  00004			 AREA	 |.bss|, NOINIT
|BT_NotifyIcon| % 0x98

  00010			 AREA	 |.pdata|, PDATA
|$T37377| DCD	|$LN16@AddBluetoo|
	DCD	0x40007002

  00000			 AREA	 |.rdata|, DATA, READONLY
|??_C@_1DO@HPKMHGIP@?$AA?6?$AA?$AN?$AA?9?$AAA?$AAd?$AAd?$AAB?$AAl?$AAu?$AAe?$AAt?$AAo?$AAo?$AAt?$AAh?$AAT?$AAr?$AAa?$AAy?$AAI?$AAc?$AAo?$AAn?$AA?5?$AA?$CI?$AA?$CF?$AAx?$AA?$CJ?$AA?$AN?$AA?6?$AA?$AA@| DCB 0xa
	DCB	0x0, 0xd, 0x0, "-", 0x0, "A", 0x0, "d", 0x0, "d", 0x0, "B"
	DCB	0x0, "l", 0x0, "u", 0x0, "e", 0x0, "t", 0x0, "o", 0x0, "o"
	DCB	0x0, "t", 0x0, "h", 0x0, "T", 0x0, "r", 0x0, "a", 0x0, "y"
	DCB	0x0, "I", 0x0, "c", 0x0, "o", 0x0, "n", 0x0, " ", 0x0, "("
	DCB	0x0, "%", 0x0, "x", 0x0, ")", 0x0, 0xd, 0x0, 0xa, 0x0, 0x0
	DCB	0x0					; `string'

  00000			 AREA	 |.rdata|, DATA, READONLY
|??_C@_1GC@ELJNEMOC@?$AA?6?$AA?$AN?$AAA?$AAd?$AAd?$AAB?$AAl?$AAu?$AAe?$AAt?$AAo?$AAo?$AAt?$AAh?$AAT?$AAr?$AAa?$AAy?$AAI?$AAc?$AAo?$AAn?$AA?9?$AA?9?$AA?$DO?$AA?5?$AAL?$AAo?$AAa?$AAd?$AAI?$AAm@| DCB 0xa
	DCB	0x0, 0xd, 0x0, "A", 0x0, "d", 0x0, "d", 0x0, "B", 0x0, "l"
	DCB	0x0, "u", 0x0, "e", 0x0, "t", 0x0, "o", 0x0, "o", 0x0, "t"
	DCB	0x0, "h", 0x0, "T", 0x0, "r", 0x0, "a", 0x0, "y", 0x0, "I"
	DCB	0x0, "c", 0x0, "o", 0x0, "n", 0x0, "-", 0x0, "-", 0x0, ">"
	DCB	0x0, " ", 0x0, "L", 0x0, "o", 0x0, "a", 0x0, "d", 0x0, "I"
	DCB	0x0, "m", 0x0, "a", 0x0, "g", 0x0, "e", 0x0, " ", 0x0, "f"
	DCB	0x0, "a", 0x0, "i", 0x0, "l", 0x0, "e", 0x0, "d", 0x0, " "
	DCB	0x0, "!", 0x0, "!", 0x0, "!", 0x0, 0xd, 0x0, 0xa, 0x0, 0x0
	DCB	0x0					; `string'

  00000			 AREA	 |.rdata|, DATA, READONLY
|??_C@_1CI@OHCJFJPM@?$AAE?$AAR?$AAR?$AAO?$AAR?$AA?3?$AA?5?$AA?$CF?$AAs?$AA?5?$AAl?$AAi?$AAn?$AAe?$AA?5?$AA?$CF?$AAd?$AA?3?$AA?5?$AA?$AA@| DCB "E"
	DCB	0x0, "R", 0x0, "R", 0x0, "O", 0x0, "R", 0x0, ":", 0x0, " "
	DCB	0x0, "%", 0x0, "s", 0x0, " ", 0x0, "l", 0x0, "i", 0x0, "n"
	DCB	0x0, "e", 0x0, " ", 0x0, "%", 0x0, "d", 0x0, ":", 0x0, " "
	DCB	0x0, 0x0, 0x0				; `string'

  00000			 AREA	 |.rdata|, DATA, READONLY
|??_C@_1HM@JNFOMEAK@?$AAC?$AA?3?$AA?2?$AAW?$AAI?$AAN?$AAC?$AAE?$AA6?$AA0?$AA0?$AA?2?$AAP?$AAL?$AAA?$AAT?$AAF?$AAO?$AAR?$AAM?$AA?2?$AAZ?$AA2?$AA1?$AA7?$AA0?$AA?2?$AAS?$AAR?$AAC?$AA?2?$AAD@| DCB "C"
	DCB	0x0, ":", 0x0, "\\", 0x0, "W", 0x0, "I", 0x0, "N", 0x0, "C"
	DCB	0x0, "E", 0x0, "6", 0x0, "0", 0x0, "0", 0x0, "\\", 0x0, "P"
	DCB	0x0, "L", 0x0, "A", 0x0, "T", 0x0, "F", 0x0, "O", 0x0, "R"
	DCB	0x0, "M", 0x0, "\\", 0x0, "Z", 0x0, "2", 0x0, "1", 0x0, "7"
	DCB	0x0, "0", 0x0, "\\", 0x0, "S", 0x0, "R", 0x0, "C", 0x0, "\\"
	DCB	0x0, "D", 0x0, "R", 0x0, "I", 0x0, "V", 0x0, "E", 0x0, "R"
	DCB	0x0, "S", 0x0, "\\", 0x0, "s", 0x0, "y", 0x0, "s", 0x0, "c"
	DCB	0x0, "t", 0x0, "r", 0x0, "l", 0x0, "\\", 0x0, ".", 0x0, "\\"
	DCB	0x0, "T", 0x0, "r", 0x0, "a", 0x0, "y", 0x0, "I", 0x0, "c"
	DCB	0x0, "o", 0x0, "n", 0x0, ".", 0x0, "c", 0x0, "p", 0x0, "p"
	DCB	0x0, 0x0, 0x0				; `string'

  00000			 AREA	 |.rdata|, DATA, READONLY
|??_C@_1DE@HLMEIBHB@?$AA?6?$AA?$AN?$AA?$CL?$AAA?$AAd?$AAd?$AAB?$AAl?$AAu?$AAe?$AAt?$AAo?$AAo?$AAt?$AAh?$AAT?$AAr?$AAa?$AAy?$AAI?$AAc?$AAo?$AAn?$AA?$AN?$AA?6?$AA?$AA@| DCB 0xa
	DCB	0x0, 0xd, 0x0, "+", 0x0, "A", 0x0, "d", 0x0, "d", 0x0, "B"
	DCB	0x0, "l", 0x0, "u", 0x0, "e", 0x0, "t", 0x0, "o", 0x0, "o"
	DCB	0x0, "t", 0x0, "h", 0x0, "T", 0x0, "r", 0x0, "a", 0x0, "y"
	DCB	0x0, "I", 0x0, "c", 0x0, "o", 0x0, "n", 0x0, 0xd, 0x0, 0xa
	DCB	0x0, 0x0, 0x0				; `string'
; Function compile flags: /Odtp

  002d4			 AREA	 |.text|, CODE, ARM

  002d4		 |?AddBluetoothTrayIcon@@YAHXZ| PROC	; AddBluetoothTrayIcon

; 127  : {

  002d4		 |$LN16@AddBluetoo|
  002d4	e52de004	 str         lr, [sp, #-4]!
  002d8	e24dd034	 sub         sp, sp, #0x34
  002dc		 |$M37374|

; 128  : 
; 129  :     BOOL    status = FALSE;

  002dc	e3a03000	 mov         r3, #0
  002e0	e58d300c	 str         r3, [sp, #0xC]

; 130  : 
; 131  :     HICON   hIcon;
; 132  : 
; 133  :     BYTE  	icount = 0;

  002e4	e3a03000	 mov         r3, #0
  002e8	e5cd3010	 strb        r3, [sp, #0x10]

; 134  : 
; 135  :     RETAILMSG(1, (TEXT("\n\r+AddBluetoothTrayIcon\r\n")));

  002ec	e59f019c	 ldr         r0, [pc, #0x19C]
  002f0	eb000000	 bl          NKDbgPrintfW
  002f4	e3a03001	 mov         r3, #1
  002f8	e58d3020	 str         r3, [sp, #0x20]
  002fc	ea000001	 b           |$LN9@AddBluetoo|
  00300	e3a03000	 mov         r3, #0
  00304	e58d3020	 str         r3, [sp, #0x20]
  00308		 |$LN9@AddBluetoo|

; 136  : 
; 137  :     if(!hTrayIcon)

  00308	e59f316c	 ldr         r3, [pc, #0x16C]
  0030c	e5933000	 ldr         r3, [r3]
  00310	e3530000	 cmp         r3, #0
  00314	1a000002	 bne         |$LN5@AddBluetoo|

; 138  :     {
; 139  :         return FALSE;

  00318	e3a03000	 mov         r3, #0
  0031c	e58d3014	 str         r3, [sp, #0x14]
  00320	ea00004f	 b           |$LN6@AddBluetoo|
  00324		 |$LN5@AddBluetoo|

; 140  :     }
; 141  : 
; 142  :     hIcon = (HICON) LoadImage(ghInstance, MAKEINTRESOURCE(IDI_BT), IMAGE_ICON, 16, 16, 0);

  00324	e3a03000	 mov         r3, #0
  00328	e58d3004	 str         r3, [sp, #4]
  0032c	e3a03010	 mov         r3, #0x10
  00330	e58d3000	 str         r3, [sp]
  00334	e3a03010	 mov         r3, #0x10
  00338	e3a02001	 mov         r2, #1
  0033c	e3a0106c	 mov         r1, #0x6C
  00340	e59f0144	 ldr         r0, [pc, #0x144]
  00344	e5900000	 ldr         r0, [r0]
  00348	eb000000	 bl          LoadImageW
  0034c	e58d0024	 str         r0, [sp, #0x24]
  00350	e59d3024	 ldr         r3, [sp, #0x24]
  00354	e58d3008	 str         r3, [sp, #8]

; 143  : 
; 144  :     if(hIcon == NULL)

  00358	e59d3008	 ldr         r3, [sp, #8]
  0035c	e3530000	 cmp         r3, #0
  00360	1a00000a	 bne         |$LN4@AddBluetoo|

; 145  :     {
; 146  :         ERRORMSG(1, (TEXT("\n\rAddBluetoothTrayIcon--> LoadImage failed !!!\r\n")));

  00364	e3a02092	 mov         r2, #0x92
  00368	e59f1118	 ldr         r1, [pc, #0x118]
  0036c	e59f0110	 ldr         r0, [pc, #0x110]
  00370	eb000000	 bl          NKDbgPrintfW
  00374	e59f0104	 ldr         r0, [pc, #0x104]
  00378	eb000000	 bl          NKDbgPrintfW
  0037c	e3a03001	 mov         r3, #1
  00380	e58d3028	 str         r3, [sp, #0x28]
  00384	ea000001	 b           |$LN11@AddBluetoo|
  00388	e3a03000	 mov         r3, #0
  0038c	e58d3028	 str         r3, [sp, #0x28]
  00390		 |$LN11@AddBluetoo|
  00390		 |$LN4@AddBluetoo|

; 147  :     }
; 148  : 
; 149  :     BT_NotifyIcon.cbSize = sizeof(NOTIFYICONDATA);

  00390	e59f20e0	 ldr         r2, [pc, #0xE0]
  00394	e3a03098	 mov         r3, #0x98
  00398	e5823000	 str         r3, [r2]

; 150  :     BT_NotifyIcon.hWnd = hTrayIcon;

  0039c	e59f30d8	 ldr         r3, [pc, #0xD8]
  003a0	e5932000	 ldr         r2, [r3]
  003a4	e59f30cc	 ldr         r3, [pc, #0xCC]
  003a8	e5832004	 str         r2, [r3, #4]

; 151  :     BT_NotifyIcon.uID = UID_BT_TASK;

  003ac	e59f20c4	 ldr         r2, [pc, #0xC4]
  003b0	e3a03011	 mov         r3, #0x11
  003b4	e5823008	 str         r3, [r2, #8]

; 152  :     BT_NotifyIcon.uFlags = NIF_ICON | NIF_MESSAGE;

  003b8	e59f20b8	 ldr         r2, [pc, #0xB8]
  003bc	e3a03003	 mov         r3, #3
  003c0	e582300c	 str         r3, [r2, #0xC]

; 153  :     BT_NotifyIcon.uCallbackMessage = BT_TASKBARMSG;

  003c4	e59f20ac	 ldr         r2, [pc, #0xAC]
  003c8	e3a03b01	 mov         r3, #1, 22
  003cc	e3833065	 orr         r3, r3, #0x65
  003d0	e5823010	 str         r3, [r2, #0x10]

; 154  :     BT_NotifyIcon.hIcon = hIcon;

  003d4	e59d2008	 ldr         r2, [sp, #8]
  003d8	e59f3098	 ldr         r3, [pc, #0x98]
  003dc	e5832014	 str         r2, [r3, #0x14]
  003e0		 |$LN3@AddBluetoo|

; 155  : 
; 156  :     // add the icon
; 157  :     while(hIcon && icount < 10)

  003e0	e59d3008	 ldr         r3, [sp, #8]
  003e4	e3530000	 cmp         r3, #0
  003e8	0a000013	 beq         |$LN2@AddBluetoo|
  003ec	e5dd3010	 ldrb        r3, [sp, #0x10]
  003f0	e353000a	 cmp         r3, #0xA
  003f4	aa000010	 bge         |$LN2@AddBluetoo|

; 158  :     {
; 159  : 
; 160  :         status = Shell_NotifyIcon(NIM_ADD, &BT_NotifyIcon);

  003f8	e59f1078	 ldr         r1, [pc, #0x78]
  003fc	e3a00000	 mov         r0, #0
  00400	eb000000	 bl          Shell_NotifyIcon
  00404	e58d002c	 str         r0, [sp, #0x2C]
  00408	e59d302c	 ldr         r3, [sp, #0x2C]
  0040c	e58d300c	 str         r3, [sp, #0xC]

; 161  : 
; 162  :         if(status)

  00410	e59d300c	 ldr         r3, [sp, #0xC]
  00414	e3530000	 cmp         r3, #0
  00418	0a000000	 beq         |$LN1@AddBluetoo|

; 163  :         {
; 164  :             break;

  0041c	ea000006	 b           |$LN2@AddBluetoo|
  00420		 |$LN1@AddBluetoo|

; 165  :         }
; 166  : 
; 167  :         icount++;

  00420	e5dd3010	 ldrb        r3, [sp, #0x10]
  00424	e2833001	 add         r3, r3, #1
  00428	e20330ff	 and         r3, r3, #0xFF
  0042c	e5cd3010	 strb        r3, [sp, #0x10]

; 168  : 
; 169  :         Sleep(300);

  00430	e3a00f4b	 mov         r0, #0x4B, 30
  00434	eb000000	 bl          Sleep

; 170  :     }

  00438	eaffffe8	 b           |$LN3@AddBluetoo|
  0043c		 |$LN2@AddBluetoo|

; 171  : 
; 172  :     RETAILMSG(1, (TEXT("\n\r-AddBluetoothTrayIcon (%x)\r\n"), status));

  0043c	e59d100c	 ldr         r1, [sp, #0xC]
  00440	e59f002c	 ldr         r0, [pc, #0x2C]
  00444	eb000000	 bl          NKDbgPrintfW
  00448	e3a03001	 mov         r3, #1
  0044c	e58d3030	 str         r3, [sp, #0x30]
  00450	ea000001	 b           |$LN13@AddBluetoo|
  00454	e3a03000	 mov         r3, #0
  00458	e58d3030	 str         r3, [sp, #0x30]
  0045c		 |$LN13@AddBluetoo|

; 173  : 
; 174  : 
; 175  :     return status;

  0045c	e59d300c	 ldr         r3, [sp, #0xC]
  00460	e58d3014	 str         r3, [sp, #0x14]
  00464		 |$LN6@AddBluetoo|

; 176  : }

  00464	e59d0014	 ldr         r0, [sp, #0x14]
  00468	e28dd034	 add         sp, sp, #0x34
  0046c	e49de004	 ldr         lr, [sp], #4
  00470	e12fff1e	 bx          lr
  00474		 |$LN17@AddBluetoo|
  00474		 |$LN18@AddBluetoo|
  00474	00000000	 DCD         |??_C@_1DO@HPKMHGIP@?$AA?6?$AA?$AN?$AA?9?$AAA?$AAd?$AAd?$AAB?$AAl?$AAu?$AAe?$AAt?$AAo?$AAo?$AAt?$AAh?$AAT?$AAr?$AAa?$AAy?$AAI?$AAc?$AAo?$AAn?$AA?5?$AA?$CI?$AA?$CF?$AAx?$AA?$CJ?$AA?$AN?$AA?6?$AA?$AA@|
  00478		 |$LN19@AddBluetoo|
  00478	00000000	 DCD         |BT_NotifyIcon|
  0047c		 |$LN20@AddBluetoo|
  0047c	00000000	 DCD         |hTrayIcon|
  00480		 |$LN21@AddBluetoo|
  00480	00000000	 DCD         |??_C@_1GC@ELJNEMOC@?$AA?6?$AA?$AN?$AAA?$AAd?$AAd?$AAB?$AAl?$AAu?$AAe?$AAt?$AAo?$AAo?$AAt?$AAh?$AAT?$AAr?$AAa?$AAy?$AAI?$AAc?$AAo?$AAn?$AA?9?$AA?9?$AA?$DO?$AA?5?$AAL?$AAo?$AAa?$AAd?$AAI?$AAm@|
  00484		 |$LN22@AddBluetoo|
  00484	00000000	 DCD         |??_C@_1CI@OHCJFJPM@?$AAE?$AAR?$AAR?$AAO?$AAR?$AA?3?$AA?5?$AA?$CF?$AAs?$AA?5?$AAl?$AAi?$AAn?$AAe?$AA?5?$AA?$CF?$AAd?$AA?3?$AA?5?$AA?$AA@|
  00488		 |$LN23@AddBluetoo|
  00488	00000000	 DCD         |??_C@_1HM@JNFOMEAK@?$AAC?$AA?3?$AA?2?$AAW?$AAI?$AAN?$AAC?$AAE?$AA6?$AA0?$AA0?$AA?2?$AAP?$AAL?$AAA?$AAT?$AAF?$AAO?$AAR?$AAM?$AA?2?$AAZ?$AA2?$AA1?$AA7?$AA0?$AA?2?$AAS?$AAR?$AAC?$AA?2?$AAD@|
  0048c		 |$LN24@AddBluetoo|
  0048c	00000000	 DCD         |?ghInstance@@3PAUHINSTANCE__@@A|
  00490		 |$LN25@AddBluetoo|
  00490	00000000	 DCD         |??_C@_1DE@HLMEIBHB@?$AA?6?$AA?$AN?$AA?$CL?$AAA?$AAd?$AAd?$AAB?$AAl?$AAu?$AAe?$AAt?$AAo?$AAo?$AAt?$AAh?$AAT?$AAr?$AAa?$AAy?$AAI?$AAc?$AAo?$AAn?$AA?$AN?$AA?6?$AA?$AA@|
  00494		 |$M37375|

			 ENDP  ; |?AddBluetoothTrayIcon@@YAHXZ|, AddBluetoothTrayIcon

	EXPORT	|?RemoveBluetoothTrayIcon@@YAHXZ|	; RemoveBluetoothTrayIcon

  00018			 AREA	 |.pdata|, PDATA
|$T37392| DCD	|$LN6@RemoveBlue|
	DCD	0x40001602
; Function compile flags: /Odtp

  00494			 AREA	 |.text|, CODE, ARM

  00494		 |?RemoveBluetoothTrayIcon@@YAHXZ| PROC	; RemoveBluetoothTrayIcon

; 182  : {

  00494		 |$LN6@RemoveBlue|
  00494	e52de004	 str         lr, [sp, #-4]!
  00498	e24dd00c	 sub         sp, sp, #0xC
  0049c		 |$M37389|

; 183  :     //RETAILMSG(1, (TEXT("\n\r+RemoveBluetoothTrayIcon: %d\n\r"),iIcon));
; 184  : 
; 185  :     BOOL status = FALSE;

  0049c	e3a03000	 mov         r3, #0
  004a0	e58d3000	 str         r3, [sp]

; 186  : 
; 187  :     if(hTrayIcon)

  004a4	e59f303c	 ldr         r3, [pc, #0x3C]
  004a8	e5933000	 ldr         r3, [r3]
  004ac	e3530000	 cmp         r3, #0
  004b0	0a000005	 beq         |$LN1@RemoveBlue|

; 188  :     {
; 189  : 
; 190  :         status = Shell_NotifyIcon(NIM_DELETE, &BT_NotifyIcon);

  004b4	e59f1028	 ldr         r1, [pc, #0x28]
  004b8	e3a00002	 mov         r0, #2
  004bc	eb000000	 bl          Shell_NotifyIcon
  004c0	e58d0008	 str         r0, [sp, #8]
  004c4	e59d3008	 ldr         r3, [sp, #8]
  004c8	e58d3000	 str         r3, [sp]
  004cc		 |$LN1@RemoveBlue|

; 191  : 
; 192  : 
; 193  :     }
; 194  : 
; 195  :     //RETAILMSG(1, (TEXT("\n\r-RemoveBluetoothTrayIcon: %d\n\r"),status));
; 196  :     return status;

  004cc	e59d3000	 ldr         r3, [sp]
  004d0	e58d3004	 str         r3, [sp, #4]

; 197  : }

  004d4	e59d0004	 ldr         r0, [sp, #4]
  004d8	e28dd00c	 add         sp, sp, #0xC
  004dc	e49de004	 ldr         lr, [sp], #4
  004e0	e12fff1e	 bx          lr
  004e4		 |$LN7@RemoveBlue|
  004e4		 |$LN8@RemoveBlue|
  004e4	00000000	 DCD         |BT_NotifyIcon|
  004e8		 |$LN9@RemoveBlue|
  004e8	00000000	 DCD         |hTrayIcon|
  004ec		 |$M37390|

			 ENDP  ; |?RemoveBluetoothTrayIcon@@YAHXZ|, RemoveBluetoothTrayIcon

	END
