 backlight

 Timestamp is 51ede8c5 (Tue Jul 23 10:21:57 2013)

 Preferred load address is 10000000

 Start         Length     Name                   Class
 0001:00000000 00000004H .CRT$XCA                CODE
 0001:00000004 00000004H .CRT$XCZ                CODE
 0001:00000008 00000004H .CRT$XIA                CODE
 0001:0000000c 00000004H .CRT$XIZ                CODE
 0001:00000010 00000004H .CRT$XPA                CODE
 0001:00000014 00000004H .CRT$XPZ                CODE
 0001:00000018 00000004H .CRT$XTA                CODE
 0001:0000001c 00000004H .CRT$XTZ                CODE
 0001:00000020 00000636H .rdata                  CODE
 0001:00000658 00000026H .rdata$debug            CODE
 0001:00000680 000017c8H .text                   CODE
 0001:00001e48 00000074H .xdata                  CODE
 0001:00001ebc 00000028H .idata$2                CODE
 0001:00001ee4 00000014H .idata$3                CODE
 0001:00001ef8 000000dcH .idata$4                CODE
 0001:00001fd4 00000016H .idata$6                CODE
 0001:00001ff0 0000009dH .edata                  CODE
 0002:00000000 000000dcH .idata$5                DATA
 0002:000000e0 0000044cH .data                   DATA
 0002:0000052c 00000018H .bss                    DATA
 0003:00000000 00000130H .pdata                  DATA

  Address         Publics by Value              Rva+Base       Lib:Object

 0000:00000000       ___safe_se_handler_count   00000000     <absolute>
 0000:00000000       ___safe_se_handler_table   00000000     <absolute>
 0001:00000000       __xc_a                     10001000     corelib0:crt0init.obj
 0001:00000004       __xc_z                     10001004     corelib0:crt0init.obj
 0001:00000008       __xi_a                     10001008     corelib0:crt0init.obj
 0001:0000000c       __xi_z                     1000100c     corelib0:crt0init.obj
 0001:00000010       __xp_a                     10001010     corelib0:crt0init.obj
 0001:00000014       __xp_z                     10001014     corelib0:crt0init.obj
 0001:00000018       __xt_a                     10001018     corelib0:crt0init.obj
 0001:0000001c       __xt_z                     1000101c     corelib0:crt0init.obj
 0001:0000003c       ??_C@_1BG@PNLAHJCF@?$AAD?$AAu?$AAt?$AAy?$AAC?$AAy?$AAc?$AAl?$AAe?$AAs?$AA?$AA@ 1000103c     tled_backlight.obj
 0001:00000054       ??_C@_1BI@IDINCEPD@?$AAT?$AAL?$AAe?$AAd?$AAC?$AAh?$AAa?$AAn?$AAn?$AAe?$AAl?$AA?$AA@ 10001054     tled_backlight.obj
 0001:0000006c       DEVICE_IFC_TLED_GUID       1000106c     tled_backlight.obj
 0001:000000ac       ??_C@_1M@MCLGLPBH@?$AAT?$AAL?$AAD?$AA1?$AA?3?$AA?$AA@ 100010ac     tled_backlight.obj
 0001:000000b8       ??_C@_1DM@BOMIMGEN@?$AA?9?$AAT?$AAL?$AAE?$AAD?$AA_?$AAB?$AAa?$AAc?$AAk?$AAl?$AAi?$AAg?$AAh?$AAt?$AA?3?$AA?3?$AAI?$AAn?$AAi?$AAt?$AAi?$AAa?$AAl?$AAi?$AAz?$AAe?$AA?$AN?$AA?6?$AA?$AA@ 100010b8     tled_backlight.obj
 0001:000000f8       ??_C@_1EE@LBMEHIFK@?$AA?$CL?$AAT?$AAL?$AAE?$AAD?$AA_?$AAB?$AAa?$AAc?$AAk?$AAl?$AAi?$AAg?$AAh?$AAt?$AA?3?$AA?3?$AAI?$AAn?$AAi?$AAt?$AAi?$AAa?$AAl?$AAi?$AAz?$AAe?$AA?$CI?$AA?$CF?$AAs?$AA?$CJ?$AA?$AN@ 100010f8     tled_backlight.obj
 0001:00000140       ??_C@_1FC@FEOCCCHB@?$AA?9?$AAT?$AAL?$AAE?$AAD?$AA_?$AAB?$AAa?$AAc?$AAk?$AAl?$AAi?$AAg?$AAh?$AAt?$AA?3?$AA?3?$AAS?$AAe?$AAt?$AAP?$AAo?$AAw?$AAe?$AAr?$AAS?$AAt?$AAa?$AAt?$AAe?$AA?$CI?$AA0@ 10001140     tled_backlight.obj
 0001:00000198       ??_C@_1FC@IODFGPCM@?$AA?$CL?$AAT?$AAL?$AAE?$AAD?$AA_?$AAB?$AAa?$AAc?$AAk?$AAl?$AAi?$AAg?$AAh?$AAt?$AA?3?$AA?3?$AAS?$AAe?$AAt?$AAP?$AAo?$AAw?$AAe?$AAr?$AAS?$AAt?$AAa?$AAt?$AAe?$AA?$CI?$AA0@ 10001198     tled_backlight.obj
 0001:000001f0       ??_C@_1FC@PDFMFPMP@?$AA?5?$AAT?$AAL?$AAE?$AAD?$AA_?$AAB?$AAa?$AAc?$AAk?$AAl?$AAi?$AAg?$AAh?$AAt?$AA?3?$AA?3?$AAS?$AAe?$AAt?$AAP?$AAo?$AAw?$AAe?$AAr?$AAS?$AAt?$AAa?$AAt?$AAe?$AA?$CI?$AA0@ 100011f0     tled_backlight.obj
 0001:00000244       ??_C@_1BE@MAKEJFGC@?$AAP?$AAo?$AAw?$AAe?$AAr?$AAM?$AAa?$AAs?$AAk?$AA?$AA@ 10001244     gpio_backlight.obj
 0001:00000258       ??_C@_19IAPNKDAH@?$AAG?$AAp?$AAi?$AAo?$AA?$AA@ 10001258     gpio_backlight.obj
 0001:00000298       ??_C@_1EI@BOIOAFIM@?$AA?9?$AAG?$AAP?$AAI?$AAO?$AA_?$AAB?$AAa?$AAc?$AAk?$AAl?$AAi?$AAg?$AAh?$AAt?$AA?3?$AA?3?$AAI?$AAn?$AAi?$AAt?$AAi?$AAa?$AAl?$AAi?$AAz?$AAe?$AA?5?$AA?$DN?$AA?$DN?$AA?5?$AA?$CF@ 10001298     gpio_backlight.obj
 0001:000002e0       ??_C@_1FE@FHNGNNPF@?$AA?5?$AAG?$AAP?$AAI?$AAO?$AA_?$AAB?$AAa?$AAc?$AAk?$AAl?$AAi?$AAg?$AAh?$AAt?$AA?3?$AA?3?$AAI?$AAn?$AAi?$AAt?$AAi?$AAa?$AAl?$AAi?$AAz?$AAe?$AA?5?$AA?9?$AA?5?$AAg?$AAp@ 100012e0     gpio_backlight.obj
 0001:00000338       ??_C@_1EE@CCLNBPAA@?$AA?$CL?$AAG?$AAP?$AAI?$AAO?$AA_?$AAB?$AAa?$AAc?$AAk?$AAl?$AAi?$AAg?$AAh?$AAt?$AA?3?$AA?3?$AAI?$AAn?$AAi?$AAt?$AAi?$AAa?$AAl?$AAi?$AAz?$AAe?$AA?$CI?$AA?$CF?$AAs?$AA?$CJ?$AA?$AN@ 10001338     gpio_backlight.obj
 0001:00000380       ??_C@_1FC@CLEIMDEB@?$AA?9?$AAG?$AAP?$AAI?$AAO?$AA_?$AAB?$AAa?$AAc?$AAk?$AAl?$AAi?$AAg?$AAh?$AAt?$AA?3?$AA?3?$AAS?$AAe?$AAt?$AAP?$AAo?$AAw?$AAe?$AAr?$AAS?$AAt?$AAa?$AAt?$AAe?$AA?$CI?$AA0@ 10001380     gpio_backlight.obj
 0001:000003d8       ??_C@_1FC@PBJPIOBM@?$AA?$CL?$AAG?$AAP?$AAI?$AAO?$AA_?$AAB?$AAa?$AAc?$AAk?$AAl?$AAi?$AAg?$AAh?$AAt?$AA?3?$AA?3?$AAS?$AAe?$AAt?$AAP?$AAo?$AAw?$AAe?$AAr?$AAS?$AAt?$AAa?$AAt?$AAe?$AA?$CI?$AA0@ 100013d8     gpio_backlight.obj
 0001:0000042c       ??_7GPIO_Backlight@@6B@    1000142c     gpio_backlight.obj
 0001:0000043c       ??_C@_1DA@PCOFNLNE@?$AAG?$AAe?$AAt?$AAS?$AAy?$AAs?$AAt?$AAe?$AAm?$AAP?$AAo?$AAw?$AAe?$AAr?$AAS?$AAt?$AAa?$AAt?$AAu?$AAs?$AAE?$AAx?$AA2?$AA?$AA@ 1000143c     common_ti_backlight_mdd:bkldrvapi.obj
 0001:0000046c       ??_C@_1BI@CJKPFBEK@?$AAc?$AAo?$AAr?$AAe?$AAd?$AAl?$AAl?$AA?4?$AAd?$AAl?$AAl?$AA?$AA@ 1000146c     common_ti_backlight_mdd:bkldrvapi.obj
 0001:00000484       ??_C@_19DINFBLAK@?$AAN?$AAa?$AAm?$AAe?$AA?$AA@ 10001484     common_ti_backlight_mdd:bkldrvapi.obj
 0001:00000490       ??_C@_13FPGAJAPJ@?$AA?2?$AA?$AA@ 10001490     common_ti_backlight_mdd:bkldrvapi.obj
 0001:000004a0       ??_C@_1GI@LBPPMOKF@?$AA?$HL?$AA?$CF?$AA0?$AA8?$AAl?$AAX?$AA?9?$AA?$CF?$AA0?$AA4?$AAX?$AA?9?$AA?$CF?$AA0?$AA4?$AAX?$AA?9?$AA?$CF?$AA0?$AA2?$AAX?$AA?$CF?$AA0?$AA2?$AAX?$AA?9?$AA?$CF?$AA0?$AA2?$AAX?$AA?$CF?$AA0@ 100014a0     common_ti_backlight_mdd:bkldrvmain.obj
 0001:00000508       ??_C@_1FI@GIAHMGCK@?$AAB?$AAa?$AAc?$AAk?$AAl?$AAi?$AAg?$AAh?$AAt?$AA?5?$AAd?$AAr?$AAi?$AAv?$AAe?$AAr?$AA?3?$AA?5?$AAW?$AAa?$AAi?$AAt?$AAF?$AAo?$AAr?$AAA?$AAP?$AAI?$AAR?$AAe?$AAa?$AAd@ 10001508     common_ti_backlight_mdd:bkldrvmain.obj
 0001:00000560       ??_C@_1BE@PJBHBNNG@?$AAA?$AAC?$AAT?$AAi?$AAm?$AAe?$AAo?$AAu?$AAt?$AA?$AA@ 10001560     common_ti_backlight_mdd:bkldrvmain.obj
 0001:00000574       ??_C@_1BO@PELGLPFE@?$AAB?$AAa?$AAt?$AAt?$AAe?$AAr?$AAy?$AAT?$AAi?$AAm?$AAe?$AAo?$AAu?$AAt?$AA?$AA@ 10001574     common_ti_backlight_mdd:bkldrvmain.obj
 0001:00000594       ??_C@_1CC@FKEHPNLB@?$AAA?$AAC?$AAB?$AAa?$AAc?$AAk?$AAl?$AAi?$AAg?$AAh?$AAt?$AAO?$AAn?$AAT?$AAa?$AAp?$AA?$AA@ 10001594     common_ti_backlight_mdd:bkldrvmain.obj
 0001:000005b8       ??_C@_1BO@BFBCCLIP@?$AAB?$AAa?$AAc?$AAk?$AAl?$AAi?$AAg?$AAh?$AAt?$AAO?$AAn?$AAT?$AAa?$AAp?$AA?$AA@ 100015b8     common_ti_backlight_mdd:bkldrvmain.obj
 0001:000005d8       ??_C@_1CO@MGKPHPG@?$AAC?$AAo?$AAn?$AAt?$AAr?$AAo?$AAl?$AAP?$AAa?$AAn?$AAe?$AAl?$AA?2?$AAB?$AAa?$AAc?$AAk?$AAl?$AAi?$AAg?$AAh?$AAt?$AA?$AA@ 100015d8     common_ti_backlight_mdd:bkldrvmain.obj
 0001:00000608       ??_C@_1EO@BHDHHEGO@?$AA?$HL?$AAE?$AAB?$AA9?$AA1?$AAC?$AA7?$AAC?$AA9?$AA?9?$AA8?$AAB?$AAF?$AA6?$AA?9?$AA4?$AAa?$AA2?$AAd?$AA?9?$AA9?$AAA?$AAB?$AA8?$AA?9?$AA6?$AA9?$AA7?$AA2?$AA4?$AAE?$AAE@ 10001608     common_ti_backlight_mdd:bkldrvmain.obj
 0001:00000680       TLEDOpen                   10001680 f i tled_backlight.obj
 0001:00000740       ?Initialize@TLED_Backlight@@UAAHPBG@Z 10001740 f   tled_backlight.obj
 0001:000007a4       ?Uninitialize@TLED_Backlight@@UAAHXZ 100017a4 f   tled_backlight.obj
 0001:000007dc       ?SetPowerState@TLED_Backlight@@UAAHW4_CEDEVICE_POWER_STATE@@@Z 100017dc f   tled_backlight.obj
 0001:00000840       ?Initialize@GPIO_Backlight@@UAAHPBG@Z 10001840 f   gpio_backlight.obj
 0001:000008e8       ?Uninitialize@GPIO_Backlight@@UAAHXZ 100018e8 f   gpio_backlight.obj
 0001:0000091c       ?SetPowerState@GPIO_Backlight@@UAAHW4_CEDEVICE_POWER_STATE@@@Z 1000191c f   gpio_backlight.obj
 0001:000009d8       ?BacklightGetSupportedStates@GPIO_Backlight@@UAAEXZ 100019d8 f   gpio_backlight.obj
 0001:000009e4       ?GetBacklightObject@@YAPAVCBacklightRoot@@XZ 100019e4 f   gpio_backlight.obj
 0001:00000abc       BKL_Init                   10001abc f   common_ti_backlight_mdd:bkldrvapi.obj
 0001:00000c64       BKL_Deinit                 10001c64 f   common_ti_backlight_mdd:bkldrvapi.obj
 0001:00000c9c       BKL_Open                   10001c9c f   common_ti_backlight_mdd:bkldrvapi.obj
 0001:00000ca0       BKL_Close                  10001ca0 f   common_ti_backlight_mdd:bkldrvapi.obj
 0001:00000cb8       BKL_IOControl              10001cb8 f   common_ti_backlight_mdd:bkldrvapi.obj
 0001:00000fa4       DllMain                    10001fa4 f   common_ti_backlight_mdd:bkldrvapi.obj
 0001:00000fb4       ?ConvertStringToGuid@@YAHPBGPAU_GUID@@@Z 10001fb4 f   common_ti_backlight_mdd:bkldrvmain.obj
 0001:00001094       ?UpdateACStatus@@YAXPAUBKL_MDD_INFO@@@Z 10002094 f   common_ti_backlight_mdd:bkldrvmain.obj
 0001:00001124       ?GetBestSupportedState@@YAHPAUBKL_MDD_INFO@@W4_CEDEVICE_POWER_STATE@@PAW42@@Z 10002124 f   common_ti_backlight_mdd:bkldrvmain.obj
 0001:000011d0       ?BacklightUpdateMDDRegSettings@@YAXPAUBKL_MDD_INFO@@@Z 100021d0 f   common_ti_backlight_mdd:bkldrvmain.obj
 0001:00001348       ?UpdateBacklight@@YAXPAUBKL_MDD_INFO@@K@Z 10002348 f   common_ti_backlight_mdd:bkldrvmain.obj
 0001:00001450       ?fnBackLightThread@@YAKPAX@Z 10002450 f   common_ti_backlight_mdd:bkldrvmain.obj
 0001:00001730       GetDeviceRegistryParams    10002730 f   ceddk:CEDDK.dll
 0001:00001740       GPIOSetMode                10002740 f   ceddk:CEDDK.dll
 0001:00001750       GPIOOpen                   10002750 f   ceddk:CEDDK.dll
 0001:00001760       GPIOClose                  10002760 f   ceddk:CEDDK.dll
 0001:00001770       GPIOSetBit                 10002770 f   ceddk:CEDDK.dll
 0001:00001780       GPIOClrBit                 10002780 f   ceddk:CEDDK.dll
 0001:00001790       IsDVIMode                  10002790 f   ceddk:CEDDK.dll
 0001:000017a0       LocalFree                  100027a0 f   coredll:COREDLL.dll
 0001:000017b0       DeviceIoControl            100027b0 f   coredll:COREDLL.dll
 0001:000017c0       CloseHandle                100027c0 f   coredll:COREDLL.dll
 0001:000017d0       LocalAlloc                 100027d0 f   coredll:COREDLL.dll
 0001:000017e0       CreateFileW                100027e0 f   coredll:COREDLL.dll
 0001:000017f0       NKDbgPrintfW               100027f0 f   coredll:COREDLL.dll
 0001:00001800       EventModify                10002800 f   coredll:COREDLL.dll
 0001:00001810       FreeLibrary                10002810 f   coredll:COREDLL.dll
 0001:00001820       WaitForSingleObject        10002820 f   coredll:COREDLL.dll
 0001:00001830       CreateThread               10002830 f   coredll:COREDLL.dll
 0001:00001840       GetProcAddressW            10002840 f   coredll:COREDLL.dll
 0001:00001850       LoadLibraryW               10002850 f   coredll:COREDLL.dll
 0001:00001860       CreateEventW               10002860 f   coredll:COREDLL.dll
 0001:00001870       RegCloseKey                10002870 f   coredll:COREDLL.dll
 0001:00001880       RegQueryValueExW           10002880 f   coredll:COREDLL.dll
 0001:00001890       RegOpenKeyExW              10002890 f   coredll:COREDLL.dll
 0001:000018a0       SetLastError               100028a0 f   coredll:COREDLL.dll
 0001:000018b0       ReleasePowerRequirement    100028b0 f   coredll:COREDLL.dll
 0001:000018c0       SetPowerRequirement        100028c0 f   coredll:COREDLL.dll
 0001:000018d0       StringCbCatW               100028d0 f   coredll:COREDLL.dll
 0001:000018e0       WaitForAPIReady            100028e0 f   coredll:COREDLL.dll
 0001:000018f0       SetDevicePower             100028f0 f   coredll:COREDLL.dll
 0001:00001900       CeFindNextRegChange        10002900 f   coredll:COREDLL.dll
 0001:00001910       CeFindCloseRegChange       10002910 f   coredll:COREDLL.dll
 0001:00001920       StopDeviceNotifications    10002920 f   coredll:COREDLL.dll
 0001:00001930       CloseMsgQueue              10002930 f   coredll:COREDLL.dll
 0001:00001940       StopPowerNotifications     10002940 f   coredll:COREDLL.dll
 0001:00001950       ReadMsgQueue               10002950 f   coredll:COREDLL.dll
 0001:00001960       WaitForMultipleObjects     10002960 f   coredll:COREDLL.dll
 0001:00001970       CeFindFirstRegChange       10002970 f   coredll:COREDLL.dll
 0001:00001980       RequestDeviceNotifications 10002980 f   coredll:COREDLL.dll
 0001:00001990       RequestPowerNotifications  10002990 f   coredll:COREDLL.dll
 0001:000019a0       CreateMsgQueue             100029a0 f   coredll:COREDLL.dll
 0001:00001ab4       _DllMainCRTStartup         10002ab4 f   corelib0:pegdmain.obj
 0001:00001ae4       __GSHandlerCheckCommon     10002ae4 f   corelib0:gshandler.obj
 0001:00001b20       __GSHandlerCheck           10002b20 f   corelib0:gshandler.obj
 0001:00001b44       __security_init_cookie     10002b44 f   corelib0:seccinit.obj
 0001:00001ba0       __security_check_cookie    10002ba0 f   corelib0:armsecgs.obj
 0001:00001bb4       __gsfailure                10002bb4 f   corelib0:armsecgs.obj
 0001:00001cf4       _cexit                     10002cf4 f   corelib0:cexit.obj
 0001:00001d10       _initterm                  10002d10 f   corelib0:crt0dat.obj
 0001:00001d44       _cinit                     10002d44 f   corelib0:crt0dat.obj
 0001:00001d78       ??2@YAPAXI@Z               10002d78 f   corelib1:COREDLL.dll
 0001:00001d88       ??3@YAXPAX@Z               10002d88 f   corelib1:COREDLL.dll
 0001:00001d98       __C_specific_handler       10002d98 f   corelib1:COREDLL.dll
 0001:00001da8       memset                     10002da8 f   corelib1:COREDLL.dll
 0001:00001db8       swscanf                    10002db8 f   corelib1:COREDLL.dll
 0001:00001dc8       memcpy                     10002dc8 f   corelib1:COREDLL.dll
 0001:00001dd8       _XcptFilter                10002dd8 f   corelib1:COREDLL.dll
 0001:00001de8       __security_gen_cookie2     10002de8 f   corelib1:COREDLL.dll
 0001:00001df8       __report_gsfailure         10002df8 f   corelib1:COREDLL.dll
 0001:00001e08       free                       10002e08 f   corelib1:COREDLL.dll
 0001:00001e18       DeleteCriticalSection      10002e18 f   coredll:COREDLL.dll
 0001:00001e28       InterlockedExchange        10002e28 f   coredll:COREDLL.dll
 0001:00001e38       TerminateProcess           10002e38 f   coredll:COREDLL.dll
 0001:00001ebc       __IMPORT_DESCRIPTOR_CEDDK  10002ebc     ceddk:CEDDK.dll
 0001:00001ed0       __IMPORT_DESCRIPTOR_COREDLL 10002ed0     coredll:COREDLL.dll
 0001:00001ee4       __NULL_IMPORT_DESCRIPTOR   10002ee4     ceddk:CEDDK.dll
 0002:00000000       __imp_GPIOSetMode          10004000     ceddk:CEDDK.dll
 0002:00000004       __imp_GPIOOpen             10004004     ceddk:CEDDK.dll
 0002:00000008       __imp_GPIOClose            10004008     ceddk:CEDDK.dll
 0002:0000000c       __imp_GPIOSetBit           1000400c     ceddk:CEDDK.dll
 0002:00000010       __imp_GPIOClrBit           10004010     ceddk:CEDDK.dll
 0002:00000014       __imp_IsDVIMode            10004014     ceddk:CEDDK.dll
 0002:00000018       __imp_GetDeviceRegistryParams 10004018     ceddk:CEDDK.dll
 0002:0000001c       \177CEDDK_NULL_THUNK_DATA  1000401c     ceddk:CEDDK.dll
 0002:00000020       __imp_LocalFree            10004020     coredll:COREDLL.dll
 0002:00000024       __imp_DeviceIoControl      10004024     coredll:COREDLL.dll
 0002:00000028       __imp_CloseHandle          10004028     coredll:COREDLL.dll
 0002:0000002c       __imp_LocalAlloc           1000402c     coredll:COREDLL.dll
 0002:00000030       __imp_CreateFileW          10004030     coredll:COREDLL.dll
 0002:00000034       __imp_NKDbgPrintfW         10004034     coredll:COREDLL.dll
 0002:00000038       __imp_EventModify          10004038     coredll:COREDLL.dll
 0002:0000003c       __imp_FreeLibrary          1000403c     coredll:COREDLL.dll
 0002:00000040       __imp_WaitForSingleObject  10004040     coredll:COREDLL.dll
 0002:00000044       __imp_CreateThread         10004044     coredll:COREDLL.dll
 0002:00000048       __imp_GetProcAddressW      10004048     coredll:COREDLL.dll
 0002:0000004c       __imp_LoadLibraryW         1000404c     coredll:COREDLL.dll
 0002:00000050       __imp_CreateEventW         10004050     coredll:COREDLL.dll
 0002:00000054       __imp_RegCloseKey          10004054     coredll:COREDLL.dll
 0002:00000058       __imp_RegQueryValueExW     10004058     coredll:COREDLL.dll
 0002:0000005c       __imp_RegOpenKeyExW        1000405c     coredll:COREDLL.dll
 0002:00000060       __imp_SetLastError         10004060     coredll:COREDLL.dll
 0002:00000064       __imp_ReleasePowerRequirement 10004064     coredll:COREDLL.dll
 0002:00000068       __imp_SetPowerRequirement  10004068     coredll:COREDLL.dll
 0002:0000006c       __imp_StringCbCatW         1000406c     coredll:COREDLL.dll
 0002:00000070       __imp_WaitForAPIReady      10004070     coredll:COREDLL.dll
 0002:00000074       __imp_SetDevicePower       10004074     coredll:COREDLL.dll
 0002:00000078       __imp_CeFindNextRegChange  10004078     coredll:COREDLL.dll
 0002:0000007c       __imp_CeFindCloseRegChange 1000407c     coredll:COREDLL.dll
 0002:00000080       __imp_StopDeviceNotifications 10004080     coredll:COREDLL.dll
 0002:00000084       __imp_CloseMsgQueue        10004084     coredll:COREDLL.dll
 0002:00000088       __imp_StopPowerNotifications 10004088     coredll:COREDLL.dll
 0002:0000008c       __imp_ReadMsgQueue         1000408c     coredll:COREDLL.dll
 0002:00000090       __imp_WaitForMultipleObjects 10004090     coredll:COREDLL.dll
 0002:00000094       __imp_CeFindFirstRegChange 10004094     coredll:COREDLL.dll
 0002:00000098       __imp_RequestDeviceNotifications 10004098     coredll:COREDLL.dll
 0002:0000009c       __imp_RequestPowerNotifications 1000409c     coredll:COREDLL.dll
 0002:000000a0       __imp_CreateMsgQueue       100040a0     coredll:COREDLL.dll
 0002:000000a4       __imp_??2@YAPAXI@Z         100040a4     corelib1:COREDLL.dll
 0002:000000a8       __imp_??3@YAXPAX@Z         100040a8     corelib1:COREDLL.dll
 0002:000000ac       __imp___C_specific_handler 100040ac     corelib1:COREDLL.dll
 0002:000000b0       __imp_memset               100040b0     corelib1:COREDLL.dll
 0002:000000b4       __imp_swscanf              100040b4     corelib1:COREDLL.dll
 0002:000000b8       __imp_memcpy               100040b8     corelib1:COREDLL.dll
 0002:000000bc       __imp__XcptFilter          100040bc     corelib1:COREDLL.dll
 0002:000000c0       __imp___security_gen_cookie2 100040c0     corelib1:COREDLL.dll
 0002:000000c4       __imp___report_gsfailure   100040c4     corelib1:COREDLL.dll
 0002:000000c8       __imp_free                 100040c8     corelib1:COREDLL.dll
 0002:000000cc       __imp_DeleteCriticalSection 100040cc     coredll:COREDLL.dll
 0002:000000d0       __imp_InterlockedExchange  100040d0     coredll:COREDLL.dll
 0002:000000d4       __imp_TerminateProcess     100040d4     coredll:COREDLL.dll
 0002:000000d8       \177COREDLL_NULL_THUNK_DATA 100040d8     coredll:COREDLL.dll
 0002:000000e0       ?dpCurSettings@@3U_DBGPARAM@@A 100040e0     common_ti_backlight_mdd:bkldrvmain.obj
 0002:00000524       __security_cookie          10004524     corelib0:seccinit.obj
 0002:00000528       __security_cookie_complement 10004528     corelib0:seccinit.obj
 0002:0000052c       ?g_pBacklight@@3PAVCBacklightRoot@@A 1000452c     common_ti_backlight_mdd:bkldrvapi.obj
 0002:00000530       _exitflag                  10004530     corelib0:cexit.obj
 0002:00000534       __onexitend                10004534     <common>
 0002:00000538       __onexitbegin              10004538     <common>
 0002:0000053c       g_pcsExit                  1000453c     <common>
 0002:00000540       _pRawDllMain               10004540     <common>

 entry point at        0001:00001ab4

 Static symbols

 0001:00000a30       ?FreeContext@@YAXPAUBKL_MDD_INFO@@@Z 10001a30 f   common_ti_backlight_mdd:bkldrvapi.obj
 0001:000019b8       _DllMainCRTStartupHelper   100029b8 f   corelib0:pegdmain.obj
 0001:00001bf8       doexit                     10002bf8 f   corelib0:cexit.obj
