 omap_shell

 Timestamp is 51ede8d0 (Tue Jul 23 10:22:08 2013)

 Preferred load address is 10000000

 Start         Length     Name                   Class
 0001:00000000 00000004H .CRT$XCA                CODE
 0001:00000004 00000004H .CRT$XCU                CODE
 0001:00000008 00000004H .CRT$XCZ                CODE
 0001:0000000c 00000004H .CRT$XIA                CODE
 0001:00000010 00000004H .CRT$XIZ                CODE
 0001:00000014 00000004H .CRT$XPA                CODE
 0001:00000018 00000004H .CRT$XPZ                CODE
 0001:0000001c 00000004H .CRT$XTA                CODE
 0001:00000020 00000004H .CRT$XTZ                CODE
 0001:00000030 00013110H .rdata                  CODE
 0001:00013140 00000027H .rdata$debug            CODE
 0001:00013168 000099c0H .text                   CODE
 0001:0001cb28 00000010H .text$yc                CODE
 0001:0001cb38 00000018H .text$yd                CODE
 0001:0001cb50 00000090H .xdata                  CODE
 0001:0001cbe0 00000028H .idata$2                CODE
 0001:0001cc08 00000014H .idata$3                CODE
 0001:0001cc1c 000000f0H .idata$4                CODE
 0001:0001cd0c 00000016H .idata$6                CODE
 0001:0001cd30 0000004eH .edata                  CODE
 0002:00000000 000000f0H .idata$5                DATA
 0002:000000f0 00008d0cH .data                   DATA
 0002:00008dfc 000000a4H .bss                    DATA
 0003:00000000 00000270H .pdata                  DATA

  Address         Publics by Value              Rva+Base       Lib:Object

 0000:00000000       ___safe_se_handler_table   00000000     <absolute>
 0000:00000000       ___safe_se_handler_count   00000000     <absolute>
 0001:00000000       __xc_a                     10001000     corelib0:crt0init.obj
 0001:00000008       __xc_z                     10001008     corelib0:crt0init.obj
 0001:0000000c       __xi_a                     1000100c     corelib0:crt0init.obj
 0001:00000010       __xi_z                     10001010     corelib0:crt0init.obj
 0001:00000014       __xp_a                     10001014     corelib0:crt0init.obj
 0001:00000018       __xp_z                     10001018     corelib0:crt0init.obj
 0001:0000001c       __xt_a                     1000101c     corelib0:crt0init.obj
 0001:00000020       __xt_z                     10001020     corelib0:crt0init.obj
 0001:0000004c       ??_C@_1BC@FJNGPCKG@?$AAu?$AAs?$AAb?$AAF?$AAn?$AAS?$AAe?$AAt?$AA?$AA@ 1000104c     shell.obj
 0001:00000060       ??_C@_1BC@GDPMHHCG@?$AAn?$AAe?$AAo?$AAn?$AAS?$AAt?$AAa?$AAt?$AA?$AA@ 10001060     shell.obj
 0001:00000074       ??_C@_1CC@JMGGIPGM@?$AAi?$AAn?$AAt?$AAe?$AAr?$AAr?$AAu?$AAp?$AAt?$AAl?$AAa?$AAt?$AAe?$AAn?$AAc?$AAy?$AA?$AA@ 10001074     shell.obj
 0001:00000098       ??_C@_1BG@PDCHJDCF@?$AAh?$AAa?$AAl?$AAp?$AAr?$AAo?$AAf?$AAi?$AAl?$AAe?$AA?$AA@ 10001098     shell.obj
 0001:000000b0       ??_C@_17FFCJNIIC@?$AAd?$AAv?$AAi?$AA?$AA@ 100010b0     shell.obj
 0001:000000b8       ??_C@_1BI@BDIICHAD@?$AAp?$AAo?$AAw?$AAe?$AAr?$AAd?$AAo?$AAm?$AAa?$AAi?$AAn?$AA?$AA@ 100010b8     shell.obj
 0001:000000d0       ??_C@_1M@OOEIGPGK@?$AAt?$AAv?$AAo?$AAu?$AAt?$AA?$AA@ 100010d0     shell.obj
 0001:000000dc       ??_C@_1BA@CLPJFFEC@?$AAd?$AAi?$AAs?$AAp?$AAl?$AAa?$AAy?$AA?$AA@ 100010dc     shell.obj
 0001:000000ec       ??_C@_1O@FEJCAGNG@?$AAr?$AAe?$AAb?$AAo?$AAo?$AAt?$AA?$AA@ 100010ec     shell.obj
 0001:000000fc       ??_C@_1BI@IICNPHGG@?$AAs?$AAm?$AAa?$AAr?$AAt?$AAr?$AAe?$AAf?$AAl?$AAe?$AAx?$AA?$AA@ 100010fc     shell.obj
 0001:00000114       ??_C@_1BI@HGMMDDCJ@?$AAs?$AAe?$AAt?$AAc?$AAo?$AAn?$AAt?$AAr?$AAa?$AAs?$AAt?$AA?$AA@ 10001114     shell.obj
 0001:0000012c       ??_C@_17FBHILAJO@?$AAo?$AAp?$AAm?$AA?$AA@ 1000112c     shell.obj
 0001:00000134       ??_C@_1BA@JCLAPGKD@?$AAo?$AAb?$AAs?$AAe?$AAr?$AAv?$AAe?$AA?$AA@ 10001134     shell.obj
 0001:00000144       ??_C@_1O@LNKPKJJI@?$AAd?$AAe?$AAv?$AAi?$AAc?$AAe?$AA?$AA@ 10001144     shell.obj
 0001:00000154       ??_C@_1O@CLMPII@?$AAr?$AAo?$AAt?$AAa?$AAt?$AAe?$AA?$AA@ 10001154     shell.obj
 0001:00000164       ??_C@_1M@FCCEIOJM@?$AAt?$AAs?$AAc?$AAa?$AAl?$AA?$AA@ 10001164     shell.obj
 0001:00000170       ??_C@_19PPJMBAGP@?$AAd?$AAu?$AAm?$AAp?$AA?$AA@ 10001170     shell.obj
 0001:0000017c       ??_C@_1BA@FPNGIBJF@?$AAc?$AAp?$AAu?$AAi?$AAd?$AAl?$AAe?$AA?$AA@ 1000117c     shell.obj
 0001:0000018c       ??_C@_1O@BIMDCLDK@?$AAo?$AAu?$AAt?$AAi?$AA2?$AAc?$AA?$AA@ 1000118c     shell.obj
 0001:0000019c       ??_C@_1M@DOFKFOHG@?$AAo?$AAu?$AAt?$AA3?$AA2?$AA?$AA@ 1000119c     shell.obj
 0001:000001a8       ??_C@_1M@PMPAGICK@?$AAo?$AAu?$AAt?$AA1?$AA6?$AA?$AA@ 100011a8     shell.obj
 0001:000001b4       ??_C@_19HNAFMIBJ@?$AAo?$AAu?$AAt?$AA8?$AA?$AA@ 100011b4     shell.obj
 0001:000001c0       ??_C@_1M@FBHKBOBB@?$AAi?$AAn?$AAi?$AA2?$AAc?$AA?$AA@ 100011c0     shell.obj
 0001:000001cc       ??_C@_19CMCKEPJD@?$AAi?$AAn?$AA3?$AA2?$AA?$AA@ 100011cc     shell.obj
 0001:000001d8       ??_C@_19OOIAHJMP@?$AAi?$AAn?$AA1?$AA6?$AA?$AA@ 100011d8     shell.obj
 0001:000001e4       ??_C@_17FCBICFGC@?$AAi?$AAn?$AA8?$AA?$AA@ 100011e4     shell.obj
 0001:000001ec       ??_C@_13HGPDMIBE@?$AA?$DP?$AA?$AA@ 100011ec     shell.obj
 0001:000001f0       ??_C@_1CG@GPNGBDNC@?$AAP?$AAR?$AAC?$AAM?$AA_?$AAW?$AAK?$AAU?$AAP?$AA_?$AAL?$AA4?$AA_?$AAG?$AAI?$AAC?$AAL?$AAK?$AA?$AA@ 100011f0     shell.obj
 0001:00000218       ??_C@_1DA@IKJDKGPA@?$AAP?$AAR?$AAC?$AAM?$AA_?$AAU?$AAS?$AAB?$AAT?$AAL?$AAL?$AA_?$AAR?$AAE?$AAS?$AAT?$AAO?$AAR?$AAE?$AAD?$AAO?$AAN?$AAE?$AA?$AA@ 10001218     shell.obj
 0001:00000248       ??_C@_1BO@EBGPMHGD@?$AAP?$AAR?$AAC?$AAM?$AA_?$AAl?$AAd?$AAo?$AAe?$AAm?$AAu?$AAo?$AAn?$AAz?$AA?$AA@ 10001248     shell.obj
 0001:00000268       ??_C@_1CE@LNIMBELI@?$AAP?$AAR?$AAC?$AAM?$AA_?$AAP?$AAE?$AAR?$AA_?$AAP?$AAO?$AAW?$AAE?$AAR?$AA_?$AAO?$AAN?$AA?$AA@ 10001268     shell.obj
 0001:0000028c       ??_C@_1CC@KNGOAOK@?$AAP?$AAR?$AAC?$AAM?$AA_?$AAS?$AAR?$AA_?$AAP?$AAO?$AAW?$AAE?$AAR?$AA_?$AAO?$AAN?$AA?$AA@ 1000128c     shell.obj
 0001:000002b0       ??_C@_1DA@EKKKAEIH@?$AAP?$AAR?$AAC?$AAM?$AA_?$AAD?$AAS?$AAS?$AA_?$AAS?$AAR?$AAA?$AAM?$AAR?$AAE?$AAT?$AAG?$AAO?$AAO?$AAD?$AAO?$AAU?$AAT?$AA?$AA@ 100012b0     shell.obj
 0001:000002e0       ??_C@_1CG@JADEKBBB@?$AAP?$AAR?$AAC?$AAM?$AA_?$AAS?$AAG?$AAX?$AA_?$AAP?$AAO?$AAW?$AAE?$AAR?$AA_?$AAI?$AAS?$AAO?$AA?$AA@ 100012e0     shell.obj
 0001:00000308       ??_C@_1CO@DKJBJALH@?$AAP?$AAR?$AAC?$AAM?$AA_?$AAC?$AAO?$AAR?$AAE?$AA_?$AAS?$AAR?$AAA?$AAM?$AAA?$AAG?$AAO?$AAO?$AAD?$AAO?$AAU?$AAT?$AA?$AA@ 10001308     shell.obj
 0001:00000338       ??_C@_1CG@KGDJMLKG@?$AAP?$AAR?$AAC?$AAM?$AA_?$AAC?$AAO?$AAR?$AAE?$AA_?$AAP?$AAO?$AAW?$AAE?$AAR?$AA_?$AAO?$AAN?$AA?$AA@ 10001338     shell.obj
 0001:00000360       ??_C@_1DE@KFKJBHNO@?$AAP?$AAR?$AAC?$AAM?$AA_?$AAI?$AAV?$AAA?$AA2?$AA_?$AAS?$AAR?$AAA?$AAM?$AAA?$AAO?$AAN?$AAI?$AAN?$AA_?$AAM?$AAU?$AAX?$AA1?$AA7?$AA?$AA@ 10001360     shell.obj
 0001:00000394       ??_C@_1DC@PHBHIJHG@?$AAP?$AAR?$AAC?$AAM?$AA_?$AAM?$AAP?$AAU?$AA_?$AAS?$AAR?$AAA?$AAM?$AAA?$AAO?$AAN?$AAI?$AAN?$AA_?$AAM?$AAU?$AAX?$AA1?$AA7?$AA?$AA@ 10001394     shell.obj
 0001:000003c8       ??_C@_1CO@HDNAKKPP@?$AAP?$AAR?$AAC?$AAM?$AA_?$AAp?$AAe?$AAr?$AA_?$AAd?$AAo?$AAm?$AAa?$AAi?$AAn?$AA_?$AAi?$AAs?$AA_?$AAo?$AAf?$AAf?$AA?$AA@ 100013c8     shell.obj
 0001:000003f8       ??_C@_1DK@LFCCHFHI@?$AAP?$AAR?$AAC?$AAM?$AA_?$AAp?$AAe?$AAr?$AA_?$AAd?$AAo?$AAm?$AAa?$AAi?$AAn?$AA_?$AAi?$AAs?$AA_?$AAr?$AAe?$AAt?$AAe?$AAn?$AAt?$AAi?$AAo?$AAn?$AA?$AA@ 100013f8     shell.obj
 0001:00000434       ??_C@_1DI@ONLLCDKB@?$AAP?$AAR?$AAC?$AAM?$AA_?$AAp?$AAe?$AAr?$AA_?$AAd?$AAo?$AAm?$AAa?$AAi?$AAn?$AA_?$AAi?$AAs?$AA_?$AAi?$AAn?$AAa?$AAc?$AAt?$AAi?$AAv?$AAe?$AA?$AA@ 10001434     shell.obj
 0001:0000046c       ??_C@_1CI@HJBHHDCL@?$AAP?$AAR?$AAC?$AAM?$AA_?$AAP?$AAE?$AAR?$AA_?$AAd?$AAo?$AAm?$AAa?$AAi?$AAn?$AAI?$AAs?$AAO?$AAn?$AA?$AA@ 1000146c     shell.obj
 0001:00000494       ??_C@_1DC@PBCBPAB@?$AAP?$AAR?$AAC?$AAM?$AA_?$AAC?$AAO?$AAR?$AAE?$AAC?$AAM?$AA_?$AAd?$AAo?$AAm?$AAa?$AAi?$AAn?$AAW?$AAa?$AAk?$AAe?$AAu?$AAp?$AA?$AA@ 10001494     shell.obj
 0001:000004c8       ??_C@_1CI@OCMGMAMO@?$AAP?$AAR?$AAC?$AAM?$AA_?$AAI?$AAC?$AAE?$AAC?$AAR?$AAU?$AAS?$AAH?$AAE?$AAR?$AA_?$AAR?$AAS?$AAT?$AA?$AA@ 100014c8     shell.obj
 0001:000004f0       ??_C@_1CI@DDKBBNCA@?$AAP?$AAR?$AAC?$AAM?$AA_?$AAD?$AAP?$AAL?$AAL?$AA5?$AA_?$AAR?$AAS?$AAT?$AAP?$AAW?$AAR?$AAO?$AAN?$AA?$AA@ 100014f0     shell.obj
 0001:00000518       ??_C@_1CA@CJIGNHHE@?$AAP?$AAR?$AAC?$AAM?$AA_?$AAU?$AAS?$AAB?$AAT?$AAL?$AAL?$AA_?$AAR?$AAS?$AAT?$AA?$AA@ 10001518     shell.obj
 0001:00000538       ??_C@_1CK@LBBIFOCL@?$AAP?$AAR?$AAC?$AAM?$AA_?$AAG?$AAP?$AAT?$AA4?$AA_?$AAA?$AAL?$AAW?$AAO?$AAN?$AA_?$AAF?$AAC?$AAL?$AAK?$AA?$AA@ 10001538     shell.obj
 0001:00000564       ??_C@_1CI@GKEEKLDI@?$AAP?$AAR?$AAC?$AAM?$AA_?$AAW?$AAK?$AAU?$AAP?$AA_?$AA3?$AA2?$AAK?$AA_?$AAG?$AAF?$AAC?$AAL?$AAK?$AA?$AA@ 10001564     shell.obj
 0001:0000058c       ??_C@_1DC@DLNHAEMC@?$AAP?$AAR?$AAC?$AAM?$AA_?$AAU?$AAS?$AAB?$AAT?$AAL?$AAL?$AA_?$AAS?$AAT?$AAA?$AAR?$AAT?$AAR?$AAE?$AAS?$AAT?$AAO?$AAR?$AAE?$AA?$AA@ 1000158c     shell.obj
 0001:000005c0       ??_C@_1DI@IHAKMIGG@?$AAP?$AAR?$AAC?$AAM?$AA_?$AAU?$AAS?$AAB?$AAH?$AAO?$AAS?$AAT?$AA_?$AAS?$AAR?$AAA?$AAM?$AAR?$AAE?$AAT?$AAG?$AAO?$AAO?$AAD?$AAO?$AAU?$AAT?$AA?$AA@ 100015c0     shell.obj
 0001:000005f8       ??_C@_1CM@PIFBEKDN@?$AAP?$AAR?$AAC?$AAM?$AA_?$AAD?$AAP?$AAL?$AAL?$AA5?$AA_?$AAP?$AAO?$AAW?$AAE?$AAR?$AA_?$AAG?$AAO?$AAO?$AAD?$AA?$AA@ 100015f8     shell.obj
 0001:00000624       ??_C@_1DA@EEAODLFP@?$AAP?$AAR?$AAC?$AAM?$AA_?$AAE?$AAM?$AAU?$AA_?$AAS?$AAR?$AAA?$AAM?$AAR?$AAE?$AAT?$AAG?$AAO?$AAO?$AAD?$AAO?$AAU?$AAT?$AA?$AA@ 10001624     shell.obj
 0001:00000654       ??_C@_1CK@KEOJPBGN@?$AAP?$AAR?$AAC?$AAM?$AA_?$AAD?$AAS?$AAS?$AA_?$AAS?$AAR?$AAA?$AAM?$AAR?$AAE?$AAT?$AAO?$AAN?$AAI?$AAN?$AA?$AA@ 10001654     shell.obj
 0001:00000680       ??_C@_1CE@BPDNKMP@?$AAP?$AAR?$AAC?$AAM?$AA_?$AAS?$AAG?$AAX?$AA_?$AAP?$AAO?$AAW?$AAE?$AAR?$AA_?$AAO?$AAN?$AA?$AA@ 10001680     shell.obj
 0001:000006a4       ??_C@_1DK@FANMPHNL@?$AAP?$AAR?$AAC?$AAM?$AA_?$AAC?$AAO?$AAR?$AAE?$AA_?$AAS?$AAR?$AAA?$AAM?$AAA?$AAG?$AAO?$AAO?$AAD?$AAO?$AAU?$AAT?$AA_?$AAM?$AAU?$AAX?$AA1?$AA6?$AA?$AA@ 100016a4     shell.obj
 0001:000006e0       ??_C@_1DO@GBOMLPCB@?$AAP?$AAR?$AAC?$AAM?$AA_?$AAI?$AAV?$AAA?$AA2?$AA_?$AAS?$AAR?$AAA?$AAM?$AAR?$AAE?$AAT?$AAG?$AAO?$AAO?$AAD?$AAO?$AAU?$AAT?$AA_?$AAM?$AAU?$AAX?$AA1?$AA6?$AA?$AA@ 100016e0     shell.obj
 0001:00000720       ??_C@_1DE@BNBFHALL@?$AAP?$AAR?$AAC?$AAM?$AA_?$AAI?$AAV?$AAA?$AA2?$AA_?$AAS?$AAR?$AAA?$AAM?$AAA?$AAO?$AAN?$AAI?$AAN?$AA_?$AAM?$AAU?$AAX?$AA1?$AA6?$AA?$AA@ 10001720     shell.obj
 0001:00000754       ??_C@_1DE@OAJIJILH@?$AAP?$AAR?$AAC?$AAM?$AA_?$AAM?$AAP?$AAU?$AA_?$AAP?$AAO?$AAW?$AAE?$AAR?$AA_?$AAG?$AAO?$AAO?$AAD?$AA_?$AAM?$AAU?$AAX?$AA1?$AA6?$AA?$AA@ 10001754     shell.obj
 0001:00000788       ??_C@_1CE@MEIBHGMH@?$AAP?$AAR?$AAC?$AAM?$AA_?$AAP?$AAR?$AAM?$AA2?$AAI?$AAV?$AAA?$AA2?$AA_?$AAI?$AAR?$AAQ?$AA?$AA@ 10001788     shell.obj
 0001:000007ac       ??_C@_1DA@CLJPHGGO@?$AAP?$AAR?$AAC?$AAM?$AA_?$AAv?$AAd?$AAd?$AA5?$AA_?$AAd?$AAo?$AAm?$AAa?$AAi?$AAn?$AA_?$AAi?$AAs?$AA_?$AAo?$AAf?$AAf?$AA?$AA@ 100017ac     shell.obj
 0001:000007dc       ??_C@_1DA@JDAKGEPL@?$AAP?$AAR?$AAC?$AAM?$AA_?$AAv?$AAd?$AAd?$AA2?$AA_?$AAd?$AAo?$AAm?$AAa?$AAi?$AAn?$AA_?$AAi?$AAs?$AA_?$AAo?$AAf?$AAf?$AA?$AA@ 100017dc     shell.obj
 0001:0000080c       ??_C@_1CM@GLNICKKF@?$AAP?$AAR?$AAC?$AAM?$AA_?$AAP?$AAE?$AAR?$AA_?$AAd?$AAo?$AAm?$AAa?$AAi?$AAn?$AAW?$AAa?$AAk?$AAe?$AAu?$AAp?$AA?$AA@ 1000180c     shell.obj
 0001:00000838       ??_C@_1DG@FMCBPPBH@?$AAP?$AAR?$AAC?$AAM?$AA_?$AAM?$AAP?$AAU?$AA_?$AAS?$AAE?$AAC?$AAU?$AAR?$AAI?$AAT?$AAY?$AA_?$AAV?$AAI?$AAO?$AAL?$AA_?$AAR?$AAS?$AAT?$AA?$AA@ 10001838     shell.obj
 0001:00000870       ??_C@_1CI@CEIJHJOA@?$AAP?$AAR?$AAC?$AAM?$AA_?$AAD?$AAP?$AAL?$AAL?$AA4?$AA_?$AAR?$AAS?$AAT?$AAP?$AAW?$AAR?$AAO?$AAN?$AA?$AA@ 10001870     shell.obj
 0001:00000898       ??_C@_1CC@OCJCFNAC@?$AAP?$AAR?$AAC?$AAM?$AA_?$AAC?$AAP?$AAE?$AAF?$AAU?$AAS?$AAE?$AA_?$AAR?$AAS?$AAT?$AA?$AA@ 10001898     shell.obj
 0001:000008bc       ??_C@_1CK@GJNLCFAN@?$AAP?$AAR?$AAC?$AAM?$AA_?$AAG?$AAP?$AAT?$AA3?$AA_?$AAA?$AAL?$AAW?$AAO?$AAN?$AA_?$AAF?$AAC?$AAL?$AAK?$AA?$AA@ 100018bc     shell.obj
 0001:000008e8       ??_C@_1CK@HJLKOENJ@?$AAP?$AAR?$AAC?$AAM?$AA_?$AAU?$AAS?$AAB?$AAT?$AAL?$AAL?$AA_?$AAS?$AAA?$AAV?$AAE?$AAD?$AAO?$AAN?$AAE?$AA?$AA@ 100018e8     shell.obj
 0001:00000914       ??_C@_1DC@NGFEJFFK@?$AAP?$AAR?$AAC?$AAM?$AA_?$AAU?$AAS?$AAB?$AAH?$AAO?$AAS?$AAT?$AA_?$AAS?$AAR?$AAA?$AAM?$AAR?$AAE?$AAT?$AAO?$AAN?$AAI?$AAN?$AA?$AA@ 10001914     shell.obj
 0001:00000948       ??_C@_1CK@BCMCGCLO@?$AAP?$AAR?$AAC?$AAM?$AA_?$AAD?$AAP?$AAL?$AAL?$AA5?$AA_?$AAP?$AAO?$AAW?$AAE?$AAR?$AA_?$AAI?$AAS?$AAO?$AA?$AA@ 10001948     shell.obj
 0001:00000974       ??_C@_1CK@JBFHJCLK@?$AAP?$AAR?$AAC?$AAM?$AA_?$AAE?$AAM?$AAU?$AA_?$AAS?$AAR?$AAA?$AAM?$AAR?$AAE?$AAT?$AAO?$AAN?$AAI?$AAN?$AA?$AA@ 10001974     shell.obj
 0001:000009a0       ??_C@_1CM@IMNFCDPC@?$AAP?$AAR?$AAC?$AAM?$AA_?$AAD?$AAS?$AAS?$AA_?$AAS?$AAR?$AAA?$AAM?$AAA?$AAG?$AAO?$AAO?$AAD?$AAO?$AAU?$AAT?$AA?$AA@ 100019a0     shell.obj
 0001:000009cc       ??_C@_1DG@DLEJFMF@?$AAP?$AAR?$AAC?$AAM?$AA_?$AAN?$AAE?$AAO?$AAN?$AA_?$AAP?$AAO?$AAW?$AAE?$AAR?$AA_?$AAG?$AAO?$AAO?$AAD?$AA_?$AAM?$AAU?$AAX?$AA1?$AA5?$AA?$AA@ 100019cc     shell.obj
 0001:00000a04       ??_C@_1DK@ECGJFIDF@?$AAP?$AAR?$AAC?$AAM?$AA_?$AAC?$AAO?$AAR?$AAE?$AA_?$AAS?$AAR?$AAA?$AAM?$AAA?$AAG?$AAO?$AAO?$AAD?$AAO?$AAU?$AAT?$AA_?$AAM?$AAU?$AAX?$AA1?$AA5?$AA?$AA@ 10001a04     shell.obj
 0001:00000a40       ??_C@_1DO@HDFJBAMP@?$AAP?$AAR?$AAC?$AAM?$AA_?$AAI?$AAV?$AAA?$AA2?$AA_?$AAS?$AAR?$AAA?$AAM?$AAR?$AAE?$AAT?$AAG?$AAO?$AAO?$AAD?$AAO?$AAU?$AAT?$AA_?$AAM?$AAU?$AAX?$AA1?$AA5?$AA?$AA@ 10001a40     shell.obj
 0001:00000a80       ??_C@_1DE@PKANPFF@?$AAP?$AAR?$AAC?$AAM?$AA_?$AAI?$AAV?$AAA?$AA2?$AA_?$AAS?$AAR?$AAA?$AAM?$AAA?$AAO?$AAN?$AAI?$AAN?$AA_?$AAM?$AAU?$AAX?$AA1?$AA5?$AA?$AA@ 10001a80     shell.obj
 0001:00000ab4       ??_C@_1DE@PCCNDHFJ@?$AAP?$AAR?$AAC?$AAM?$AA_?$AAM?$AAP?$AAU?$AA_?$AAP?$AAO?$AAW?$AAE?$AAR?$AA_?$AAG?$AAO?$AAO?$AAD?$AA_?$AAM?$AAU?$AAX?$AA1?$AA5?$AA?$AA@ 10001ab4     shell.obj
 0001:00000ae8       ??_C@_1CO@KFKAGKIJ@?$AAP?$AAR?$AAC?$AAM?$AA_?$AAd?$AAs?$AAs?$AA_?$AAd?$AAo?$AAm?$AAa?$AAi?$AAn?$AA_?$AAi?$AAs?$AA_?$AAo?$AAf?$AAf?$AA?$AA@ 10001ae8     shell.obj
 0001:00000b18       ??_C@_1DK@EOKIMADH@?$AAP?$AAR?$AAC?$AAM?$AA_?$AAd?$AAs?$AAs?$AA_?$AAd?$AAo?$AAm?$AAa?$AAi?$AAn?$AA_?$AAi?$AAs?$AA_?$AAr?$AAe?$AAt?$AAe?$AAn?$AAt?$AAi?$AAo?$AAn?$AA?$AA@ 10001b18     shell.obj
 0001:00000b54       ??_C@_1DI@MKGIHCNJ@?$AAP?$AAR?$AAC?$AAM?$AA_?$AAd?$AAs?$AAs?$AA_?$AAd?$AAo?$AAm?$AAa?$AAi?$AAn?$AA_?$AAi?$AAs?$AA_?$AAi?$AAn?$AAa?$AAc?$AAt?$AAi?$AAv?$AAe?$AA?$AA@ 10001b54     shell.obj
 0001:00000b8c       ??_C@_1CI@BIGLKAA@?$AAP?$AAR?$AAC?$AAM?$AA_?$AAD?$AAS?$AAS?$AA_?$AAd?$AAo?$AAm?$AAa?$AAi?$AAn?$AAI?$AAs?$AAO?$AAn?$AA?$AA@ 10001b8c     shell.obj
 0001:00000bb4       ??_C@_1CK@FMDNMMCO@?$AAP?$AAR?$AAC?$AAM?$AA_?$AAG?$AAl?$AAb?$AAl?$AAS?$AAe?$AAc?$AAu?$AAr?$AAe?$AAR?$AAs?$AAt?$AA_?$AAn?$AA?$AA@ 10001bb4     shell.obj
 0001:00000be0       ??_C@_1CI@EBFAEHKA@?$AAP?$AAR?$AAC?$AAM?$AA_?$AAD?$AAP?$AAL?$AAL?$AA3?$AA_?$AAR?$AAS?$AAT?$AAP?$AAW?$AAR?$AAO?$AAN?$AA?$AA@ 10001be0     shell.obj
 0001:00000c08       ??_C@_1CC@NLANNGOA@?$AAP?$AAR?$AAC?$AAM?$AA_?$AAC?$AAO?$AAR?$AAE?$AA_?$AAR?$AAS?$AAT?$AAR?$AAE?$AAT?$AA?$AA@ 10001c08     shell.obj
 0001:00000c2c       ??_C@_1CK@IOMGIDJK@?$AAP?$AAR?$AAC?$AAM?$AA_?$AAG?$AAP?$AAT?$AA2?$AA_?$AAA?$AAL?$AAW?$AAO?$AAN?$AA_?$AAF?$AAC?$AAL?$AAK?$AA?$AA@ 10001c2c     shell.obj
 0001:00000c58       ??_C@_1CE@JGOJJBLN@?$AAP?$AAR?$AAC?$AAM?$AA_?$AAE?$AAM?$AAU?$AA_?$AAS?$AAY?$AAS?$AA_?$AAG?$AAC?$AAL?$AAK?$AA?$AA@ 10001c58     shell.obj
 0001:00000c7c       ??_C@_1CM@OEEHAKDJ@?$AAP?$AAR?$AAC?$AAM?$AA_?$AAU?$AAS?$AAB?$AAT?$AAL?$AAL?$AA_?$AAS?$AAT?$AAA?$AAR?$AAT?$AAS?$AAA?$AAV?$AAE?$AA?$AA@ 10001c7c     shell.obj
 0001:00000ca8       ??_C@_1DE@FGANFEDK@?$AAP?$AAR?$AAC?$AAM?$AA_?$AAU?$AAS?$AAB?$AAH?$AAO?$AAS?$AAT?$AA_?$AAS?$AAR?$AAA?$AAM?$AAA?$AAG?$AAO?$AAO?$AAD?$AAO?$AAU?$AAT?$AA?$AA@ 10001ca8     shell.obj
 0001:00000cdc       ??_C@_1CI@OCIGPKFH@?$AAP?$AAR?$AAC?$AAM?$AA_?$AAD?$AAP?$AAL?$AAL?$AA5?$AA_?$AAP?$AAO?$AAW?$AAE?$AAR?$AA_?$AAO?$AAN?$AA?$AA@ 10001cdc     shell.obj
 0001:00000d04       ??_C@_1CM@JGBHHFHG@?$AAP?$AAR?$AAC?$AAM?$AA_?$AAE?$AAM?$AAU?$AA_?$AAS?$AAR?$AAA?$AAM?$AAA?$AAG?$AAO?$AAO?$AAD?$AAO?$AAU?$AAT?$AA?$AA@ 10001d04     shell.obj
 0001:00000d30       ??_C@_1CG@DNOFLNLC@?$AAP?$AAR?$AAC?$AAM?$AA_?$AAD?$AAS?$AAS?$AA_?$AAS?$AAR?$AAA?$AAM?$AAA?$AAO?$AAN?$AAI?$AAN?$AA?$AA@ 10001d30     shell.obj
 0001:00000d58       ??_C@_1DG@LLAIPCKA@?$AAP?$AAR?$AAC?$AAM?$AA_?$AAN?$AAE?$AAO?$AAN?$AA_?$AAP?$AAO?$AAW?$AAE?$AAR?$AA_?$AAG?$AAO?$AAO?$AAD?$AA_?$AAM?$AAU?$AAX?$AA1?$AA4?$AA?$AA@ 10001d58     shell.obj
 0001:00000d90       ??_C@_1DK@PKNFDPFA@?$AAP?$AAR?$AAC?$AAM?$AA_?$AAC?$AAO?$AAR?$AAE?$AA_?$AAS?$AAR?$AAA?$AAM?$AAA?$AAG?$AAO?$AAO?$AAD?$AAO?$AAU?$AAT?$AA_?$AAM?$AAU?$AAX?$AA1?$AA4?$AA?$AA@ 10001d90     shell.obj
 0001:00000dcc       ??_C@_1DO@MLOFHHKK@?$AAP?$AAR?$AAC?$AAM?$AA_?$AAI?$AAV?$AAA?$AA2?$AA_?$AAS?$AAR?$AAA?$AAM?$AAR?$AAE?$AAT?$AAG?$AAO?$AAO?$AAD?$AAO?$AAU?$AAT?$AA_?$AAM?$AAU?$AAX?$AA1?$AA4?$AA?$AA@ 10001dcc     shell.obj
 0001:00000e0c       ??_C@_1DG@DLPIIKCA@?$AAP?$AAR?$AAC?$AAM?$AA_?$AAI?$AAV?$AAA?$AA2?$AA_?$AAP?$AAO?$AAW?$AAE?$AAR?$AA_?$AAG?$AAO?$AAO?$AAD?$AA_?$AAM?$AAU?$AAX?$AA1?$AA4?$AA?$AA@ 10001e0c     shell.obj
 0001:00000e44       ??_C@_1DE@EKJBFADM@?$AAP?$AAR?$AAC?$AAM?$AA_?$AAM?$AAP?$AAU?$AA_?$AAP?$AAO?$AAW?$AAE?$AAR?$AA_?$AAG?$AAO?$AAO?$AAD?$AA_?$AAM?$AAU?$AAX?$AA1?$AA4?$AA?$AA@ 10001e44     shell.obj
 0001:00000e78       ??_C@_1BI@EHBMPLFJ@?$AAP?$AAR?$AAC?$AAM?$AA_?$AAI?$AAO?$AA_?$AAI?$AAS?$AAO?$AA?$AA@ 10001e78     shell.obj
 0001:00000e90       ??_C@_1DA@NCACHJPE@?$AAP?$AAR?$AAC?$AAM?$AA_?$AAU?$AAS?$AAB?$AAH?$AAO?$AAS?$AAT?$AA_?$AAd?$AAo?$AAm?$AAa?$AAi?$AAn?$AAI?$AAs?$AAO?$AAn?$AA?$AA@ 10001e90     shell.obj
 0001:00000ec0       ??_C@_1DC@CCEEGEHO@?$AAP?$AAR?$AAC?$AAM?$AA_?$AAv?$AAd?$AAd?$AA2?$AA_?$AAd?$AAo?$AAm?$AAa?$AAi?$AAn?$AA_?$AAi?$AAs?$AA_?$AAg?$AAo?$AAo?$AAd?$AA?$AA@ 10001ec0     shell.obj
 0001:00000ef4       ??_C@_1CM@LEBBONAA@?$AAP?$AAR?$AAC?$AAM?$AA_?$AAD?$AAS?$AAS?$AA_?$AAd?$AAo?$AAm?$AAa?$AAi?$AAn?$AAW?$AAa?$AAk?$AAe?$AAu?$AAp?$AA?$AA@ 10001ef4     shell.obj
 0001:00000f20       ??_C@_1CO@DALCONFG@?$AAP?$AAR?$AAC?$AAM?$AA_?$AAC?$AAO?$AAR?$AAE?$AAL?$AA4?$AA_?$AAd?$AAo?$AAm?$AAa?$AAi?$AAn?$AAI?$AAs?$AAO?$AAn?$AA?$AA@ 10001f20     shell.obj
 0001:00000f50       ??_C@_1CI@JHMBBIGH@?$AAP?$AAR?$AAC?$AAM?$AA_?$AAG?$AAl?$AAb?$AAl?$AAP?$AAw?$AAr?$AAO?$AAn?$AAR?$AAs?$AAt?$AA_?$AAn?$AA?$AA@ 10001f50     shell.obj
 0001:00000f78       ??_C@_1CI@FGHICDGA@?$AAP?$AAR?$AAC?$AAM?$AA_?$AAD?$AAP?$AAL?$AAL?$AA2?$AA_?$AAR?$AAS?$AAT?$AAP?$AAW?$AAR?$AAO?$AAN?$AA?$AA@ 10001f78     shell.obj
 0001:00000fa0       ??_C@_1CM@DANCKEGH@?$AAP?$AAR?$AAC?$AAM?$AA_?$AAC?$AAO?$AAR?$AAE?$AA_?$AAR?$AAS?$AAT?$AAP?$AAW?$AAR?$AAO?$AAN?$AAR?$AAE?$AAT?$AA?$AA@ 10001fa0     shell.obj
 0001:00000fcc       ??_C@_1BO@FDDEMIKG@?$AAP?$AAR?$AAC?$AAM?$AA_?$AAG?$AAP?$AAT?$AA1?$AA_?$AAF?$AAC?$AAL?$AAK?$AA?$AA@ 10001fcc     shell.obj
 0001:00000fec       ??_C@_1CE@IMGPKFII@?$AAP?$AAR?$AAC?$AAM?$AA_?$AAG?$AAP?$AAT?$AA1?$AA_?$AAS?$AAW?$AAA?$AAK?$AAE?$AAU?$AAP?$AA?$AA@ 10001fec     shell.obj
 0001:00001010       ??_C@_1CI@LFIGHDMA@?$AAP?$AAR?$AAC?$AAM?$AA_?$AAU?$AAS?$AAB?$AAT?$AAL?$AAL?$AA_?$AAI?$AAS?$AAO?$AA_?$AAS?$AAA?$AAR?$AA?$AA@ 10002010     shell.obj
 0001:00001038       ??_C@_1CO@GCAIOMAB@?$AAP?$AAR?$AAC?$AAM?$AA_?$AAU?$AAS?$AAB?$AAH?$AAO?$AAS?$AAT?$AA_?$AAS?$AAR?$AAA?$AAM?$AAA?$AAO?$AAN?$AAI?$AAN?$AA?$AA@ 10002038     shell.obj
 0001:00001068       ??_C@_1CM@BPEMOMKK@?$AAP?$AAR?$AAC?$AAM?$AA_?$AAD?$AAP?$AAL?$AAL?$AA4?$AA_?$AAP?$AAO?$AAW?$AAE?$AAR?$AA_?$AAG?$AAO?$AAO?$AAD?$AA?$AA@ 10002068     shell.obj
 0001:00001094       ??_C@_1CG@EMMILJIK@?$AAP?$AAR?$AAC?$AAM?$AA_?$AAE?$AAM?$AAU?$AA_?$AAS?$AAR?$AAA?$AAM?$AAA?$AAO?$AAN?$AAI?$AAN?$AA?$AA@ 10002094     shell.obj
 0001:000010bc       ??_C@_1DE@MOIIGIJK@?$AAP?$AAR?$AAC?$AAM?$AA_?$AAD?$AAS?$AAS?$AA_?$AAP?$AAO?$AAW?$AAE?$AAR?$AA_?$AAG?$AAO?$AAO?$AAD?$AA_?$AAM?$AAU?$AAX?$AA1?$AA3?$AA?$AA@ 100020bc     shell.obj
 0001:000010f0       ??_C@_1CI@NALEGCH@?$AAP?$AAR?$AAC?$AAM?$AA_?$AAN?$AAE?$AAO?$AAN?$AA_?$AAP?$AAO?$AAW?$AAE?$AAR?$AA_?$AAI?$AAS?$AAO?$AA?$AA@ 100020f0     shell.obj
 0001:00001118       ??_C@_1DK@GHACAHOJ@?$AAP?$AAR?$AAC?$AAM?$AA_?$AAC?$AAO?$AAR?$AAE?$AA_?$AAS?$AAR?$AAA?$AAM?$AAA?$AAG?$AAO?$AAO?$AAD?$AAO?$AAU?$AAT?$AA_?$AAM?$AAU?$AAX?$AA1?$AA3?$AA?$AA@ 10002118     shell.obj
 0001:00001154       ??_C@_1DO@FGDCEPBD@?$AAP?$AAR?$AAC?$AAM?$AA_?$AAI?$AAV?$AAA?$AA2?$AA_?$AAS?$AAR?$AAA?$AAM?$AAR?$AAE?$AAT?$AAG?$AAO?$AAO?$AAD?$AAO?$AAU?$AAT?$AA_?$AAM?$AAU?$AAX?$AA1?$AA3?$AA?$AA@ 10002154     shell.obj
 0001:00001194       ??_C@_1DG@KGCPLCJJ@?$AAP?$AAR?$AAC?$AAM?$AA_?$AAI?$AAV?$AAA?$AA2?$AA_?$AAP?$AAO?$AAW?$AAE?$AAR?$AA_?$AAG?$AAO?$AAO?$AAD?$AA_?$AAM?$AAU?$AAX?$AA1?$AA3?$AA?$AA@ 10002194     shell.obj
 0001:000011cc       ??_C@_1DE@NHEGGIIF@?$AAP?$AAR?$AAC?$AAM?$AA_?$AAM?$AAP?$AAU?$AA_?$AAP?$AAO?$AAW?$AAE?$AAR?$AA_?$AAG?$AAO?$AAO?$AAD?$AA_?$AAM?$AAU?$AAX?$AA1?$AA3?$AA?$AA@ 100021cc     shell.obj
 0001:00001200       ??_C@_1BO@OIOCJLDE@?$AAP?$AAR?$AAC?$AAM?$AA_?$AAI?$AAO?$AA_?$AAI?$AAS?$AAO?$AAC?$AAL?$AAK?$AA?$AA@ 10002200     shell.obj
 0001:00001220       ??_C@_1DE@GOMJJKMI@?$AAP?$AAR?$AAC?$AAM?$AA_?$AAU?$AAS?$AAB?$AAH?$AAO?$AAS?$AAT?$AA_?$AAd?$AAo?$AAm?$AAa?$AAi?$AAn?$AAW?$AAa?$AAk?$AAe?$AAu?$AAp?$AA?$AA@ 10002220     shell.obj
 0001:00001254       ??_C@_1CO@NLJHGFEM@?$AAP?$AAR?$AAC?$AAM?$AA_?$AAv?$AAd?$AAd?$AA2?$AA_?$AAd?$AAo?$AAm?$AAa?$AAi?$AAn?$AA_?$AAi?$AAs?$AA_?$AAo?$AAn?$AA?$AA@ 10002254     shell.obj
 0001:00001284       ??_C@_1DA@MBCPKFAE@?$AAP?$AAR?$AAC?$AAM?$AA_?$AAv?$AAd?$AAd?$AA1?$AA_?$AAd?$AAo?$AAm?$AAa?$AAi?$AAn?$AA_?$AAi?$AAs?$AA_?$AAr?$AAe?$AAt?$AA?$AA@ 10002284     shell.obj
 0001:000012b4       ??_C@_1DC@NJHAHGIG@?$AAP?$AAR?$AAC?$AAM?$AA_?$AAC?$AAO?$AAR?$AAE?$AAL?$AA4?$AA_?$AAd?$AAo?$AAm?$AAa?$AAi?$AAn?$AAW?$AAa?$AAk?$AAe?$AAu?$AAp?$AA?$AA@ 100022b4     shell.obj
 0001:000012e8       ??_C@_1CG@CFBNJBAJ@?$AAP?$AAR?$AAC?$AAM?$AA_?$AAG?$AAl?$AAb?$AAl?$AAW?$AAa?$AAr?$AAm?$AAR?$AAs?$AAt?$AA_?$AAn?$AA?$AA@ 100022e8     shell.obj
 0001:00001310       ??_C@_1CI@GPAAIOCA@?$AAP?$AAR?$AAC?$AAM?$AA_?$AAD?$AAP?$AAL?$AAL?$AA1?$AA_?$AAR?$AAS?$AAT?$AAP?$AAW?$AAR?$AAO?$AAN?$AA?$AA@ 10002310     shell.obj
 0001:00001338       ??_C@_1BM@JCNJILPK@?$AAP?$AAR?$AAC?$AAM?$AA_?$AAC?$AAO?$AAR?$AAE?$AA_?$AAR?$AAS?$AAT?$AA?$AA@ 10002338     shell.obj
 0001:00001354       ??_C@_1DA@PDAJOEMB@?$AAP?$AAR?$AAC?$AAM?$AA_?$AAP?$AAE?$AAR?$AA_?$AA3?$AA2?$AAK?$AA_?$AAA?$AAL?$AAW?$AAO?$AAN?$AA_?$AAF?$AAC?$AAL?$AAK?$AA?$AA@ 10002354     shell.obj
 0001:00001384       ??_C@_1DC@OCBGBKAI@?$AAP?$AAR?$AAC?$AAM?$AA_?$AAU?$AAS?$AAB?$AAH?$AAO?$AAS?$AAT?$AA_?$AAR?$AAE?$AAS?$AAT?$AAO?$AAR?$AAE?$AAD?$AAO?$AAN?$AAE?$AA?$AA@ 10002384     shell.obj
 0001:000013b8       ??_C@_1DA@HPBPEIMJ@?$AAP?$AAR?$AAC?$AAM?$AA_?$AAU?$AAS?$AAB?$AAH?$AAO?$AAS?$AAT?$AA_?$AAP?$AAO?$AAW?$AAE?$AAR?$AA_?$AAG?$AAO?$AAO?$AAD?$AA?$AA@ 100023b8     shell.obj
 0001:000013e8       ??_C@_1CK@JDOHAHJJ@?$AAP?$AAR?$AAC?$AAM?$AA_?$AAD?$AAP?$AAL?$AAL?$AA4?$AA_?$AAP?$AAO?$AAW?$AAE?$AAR?$AA_?$AAI?$AAS?$AAO?$AA?$AA@ 100023e8     shell.obj
 0001:00001414       ??_C@_1CI@LMGJICPC@?$AAP?$AAR?$AAC?$AAM?$AA_?$AAE?$AAM?$AAU?$AA_?$AAP?$AAO?$AAW?$AAE?$AAR?$AA_?$AAG?$AAO?$AAO?$AAD?$AA?$AA@ 10002414     shell.obj
 0001:0000143c       ??_C@_1DE@HGDEAPPP@?$AAP?$AAR?$AAC?$AAM?$AA_?$AAD?$AAS?$AAS?$AA_?$AAP?$AAO?$AAW?$AAE?$AAR?$AA_?$AAG?$AAO?$AAO?$AAD?$AA_?$AAM?$AAU?$AAX?$AA1?$AA2?$AA?$AA@ 1000243c     shell.obj
 0001:00001470       ??_C@_1CG@CJOJHPEP@?$AAP?$AAR?$AAC?$AAM?$AA_?$AAN?$AAE?$AAO?$AAN?$AA_?$AAP?$AAO?$AAW?$AAE?$AAR?$AA_?$AAO?$AAN?$AA?$AA@ 10002470     shell.obj
 0001:00001498       ??_C@_1DK@NPLOGAIM@?$AAP?$AAR?$AAC?$AAM?$AA_?$AAC?$AAO?$AAR?$AAE?$AA_?$AAS?$AAR?$AAA?$AAM?$AAA?$AAG?$AAO?$AAO?$AAD?$AAO?$AAU?$AAT?$AA_?$AAM?$AAU?$AAX?$AA1?$AA2?$AA?$AA@ 10002498     shell.obj
 0001:000014d4       ??_C@_1DO@OOIOCIHG@?$AAP?$AAR?$AAC?$AAM?$AA_?$AAI?$AAV?$AAA?$AA2?$AA_?$AAS?$AAR?$AAA?$AAM?$AAR?$AAE?$AAT?$AAG?$AAO?$AAO?$AAD?$AAO?$AAU?$AAT?$AA_?$AAM?$AAU?$AAX?$AA1?$AA2?$AA?$AA@ 100024d4     shell.obj
 0001:00001514       ??_C@_1DG@BOJDNFPM@?$AAP?$AAR?$AAC?$AAM?$AA_?$AAI?$AAV?$AAA?$AA2?$AA_?$AAP?$AAO?$AAW?$AAE?$AAR?$AA_?$AAG?$AAO?$AAO?$AAD?$AA_?$AAM?$AAU?$AAX?$AA1?$AA2?$AA?$AA@ 10002514     shell.obj
 0001:0000154c       ??_C@_1DE@GPPKAPOA@?$AAP?$AAR?$AAC?$AAM?$AA_?$AAM?$AAP?$AAU?$AA_?$AAP?$AAO?$AAW?$AAE?$AAR?$AA_?$AAG?$AAO?$AAO?$AAD?$AA_?$AAM?$AAU?$AAX?$AA1?$AA2?$AA?$AA@ 1000254c     shell.obj
 0001:00001580       ??_C@_1BM@IKEMBLLG@?$AAP?$AAR?$AAC?$AAM?$AA_?$AAI?$AAO?$AA_?$AAW?$AAU?$AAC?$AAL?$AAK?$AA?$AA@ 10002580     shell.obj
 0001:0000159c       ??_C@_1DA@MKNCGFCA@?$AAP?$AAR?$AAC?$AAM?$AA_?$AAc?$AAo?$AAr?$AAe?$AA_?$AAd?$AAo?$AAm?$AAa?$AAi?$AAn?$AA_?$AAi?$AAs?$AA_?$AAo?$AAf?$AAf?$AA?$AA@ 1000259c     shell.obj
 0001:000015cc       ??_C@_1DM@EJGJKBKI@?$AAP?$AAR?$AAC?$AAM?$AA_?$AAc?$AAo?$AAr?$AAe?$AA_?$AAd?$AAo?$AAm?$AAa?$AAi?$AAn?$AA_?$AAi?$AAs?$AA_?$AAr?$AAe?$AAt?$AAe?$AAn?$AAt?$AAi?$AAo?$AAn?$AA?$AA@ 100025cc     shell.obj
 0001:00001608       ??_C@_1DK@NDBHDGPC@?$AAP?$AAR?$AAC?$AAM?$AA_?$AAc?$AAo?$AAr?$AAe?$AA_?$AAd?$AAo?$AAm?$AAa?$AAi?$AAn?$AA_?$AAi?$AAs?$AA_?$AAi?$AAn?$AAa?$AAc?$AAt?$AAi?$AAv?$AAe?$AA?$AA@ 10002608     shell.obj
 0001:00001644       ??_C@_1CI@HOLOMKNK@?$AAP?$AAR?$AAC?$AAM?$AA_?$AAS?$AAG?$AAX?$AA_?$AAd?$AAo?$AAm?$AAa?$AAi?$AAn?$AAI?$AAs?$AAO?$AAn?$AA?$AA@ 10002644     shell.obj
 0001:0000166c       ??_C@_1CA@MAGEKNEK@?$AAP?$AAR?$AAC?$AAM?$AA_?$AAG?$AAl?$AAb?$AAR?$AAs?$AAt?$AAD?$AAa?$AAt?$AAa?$AA?$AA@ 1000266c     shell.obj
 0001:0000168c       ??_C@_1BI@MHOHAMFP@?$AAP?$AAR?$AAC?$AAM?$AA_?$AAS?$AAR?$AA_?$AAR?$AAS?$AAT?$AA?$AA@ 1000268c     shell.obj
 0001:000016a4       ??_C@_1CE@FGBAGBEI@?$AAP?$AAR?$AAC?$AAM?$AA_?$AAI?$AAV?$AAA?$AA2?$AA_?$AAR?$AAS?$AAT?$AAD?$AAO?$AAN?$AAE?$AA?$AA@ 100026a4     shell.obj
 0001:000016c8       ??_C@_1CM@MAIDINPI@?$AAP?$AAR?$AAC?$AAM?$AA_?$AAE?$AAF?$AAU?$AAS?$AAE?$AA_?$AAA?$AAL?$AAW?$AAO?$AAN?$AA_?$AAF?$AAC?$AAL?$AAK?$AA?$AA@ 100026c8     shell.obj
 0001:000016f4       ??_C@_1CI@BKCFDMFL@?$AAP?$AAR?$AAC?$AAM?$AA_?$AAW?$AAA?$AAI?$AAT?$AAI?$AAN?$AAR?$AAE?$AAS?$AAE?$AAT?$AA_?$AAW?$AAK?$AA?$AA@ 100026f4     shell.obj
 0001:0000171c       ??_C@_1DE@CFGFPIFF@?$AAP?$AAR?$AAC?$AAM?$AA_?$AAU?$AAS?$AAB?$AAH?$AAO?$AAS?$AAT?$AA_?$AAS?$AAT?$AAA?$AAR?$AAT?$AAR?$AAE?$AAS?$AAT?$AAO?$AAR?$AAE?$AA?$AA@ 1000271c     shell.obj
 0001:00001750       ??_C@_1CO@NKFKIKBB@?$AAP?$AAR?$AAC?$AAM?$AA_?$AAU?$AAS?$AAB?$AAH?$AAO?$AAS?$AAT?$AA_?$AAP?$AAO?$AAW?$AAE?$AAR?$AA_?$AAI?$AAS?$AAO?$AA?$AA@ 10002750     shell.obj
 0001:00001780       ??_C@_1CI@PFKOJOJH@?$AAP?$AAR?$AAC?$AAM?$AA_?$AAD?$AAP?$AAL?$AAL?$AA4?$AA_?$AAP?$AAO?$AAW?$AAE?$AAR?$AA_?$AAO?$AAN?$AA?$AA@ 10002780     shell.obj
 0001:000017a8       ??_C@_1CG@PEJKNPJK@?$AAP?$AAR?$AAC?$AAM?$AA_?$AAE?$AAM?$AAU?$AA_?$AAP?$AAO?$AAW?$AAE?$AAR?$AA_?$AAI?$AAS?$AAO?$AA?$AA@ 100027a8     shell.obj
 0001:000017d0       ??_C@_1DE@GEIBKABB@?$AAP?$AAR?$AAC?$AAM?$AA_?$AAD?$AAS?$AAS?$AA_?$AAP?$AAO?$AAW?$AAE?$AAR?$AA_?$AAG?$AAO?$AAO?$AAD?$AA_?$AAM?$AAU?$AAX?$AA1?$AA1?$AA?$AA@ 100027d0     shell.obj
 0001:00001804       ??_C@_1DO@EIMFLOFK@?$AAP?$AAR?$AAC?$AAM?$AA_?$AAC?$AAO?$AAR?$AAE?$AA_?$AAS?$AAR?$AAA?$AAM?$AAR?$AAE?$AAT?$AAG?$AAO?$AAO?$AAD?$AAO?$AAU?$AAT?$AA_?$AAM?$AAU?$AAX?$AA1?$AA1?$AA?$AA@ 10002804     shell.obj
 0001:00001844       ??_C@_1DE@FODEJGFK@?$AAP?$AAR?$AAC?$AAM?$AA_?$AAC?$AAO?$AAR?$AAE?$AA_?$AAS?$AAR?$AAA?$AAM?$AAA?$AAO?$AAN?$AAI?$AAN?$AA_?$AAM?$AAU?$AAX?$AA1?$AA1?$AA?$AA@ 10002844     shell.obj
 0001:00001878       ??_C@_1DI@EADIAHHJ@?$AAP?$AAR?$AAC?$AAM?$AA_?$AAI?$AAV?$AAA?$AA2?$AA_?$AAS?$AAR?$AAA?$AAM?$AAR?$AAE?$AAT?$AAO?$AAN?$AAI?$AAN?$AA_?$AAM?$AAU?$AAX?$AA1?$AA1?$AA?$AA@ 10002878     shell.obj
 0001:000018b0       ??_C@_1DG@MCGHKBC@?$AAP?$AAR?$AAC?$AAM?$AA_?$AAI?$AAV?$AAA?$AA2?$AA_?$AAP?$AAO?$AAW?$AAE?$AAR?$AA_?$AAG?$AAO?$AAO?$AAD?$AA_?$AAM?$AAU?$AAX?$AA1?$AA1?$AA?$AA@ 100028b0     shell.obj
 0001:000018e8       ??_C@_1DE@HNEPKAAO@?$AAP?$AAR?$AAC?$AAM?$AA_?$AAM?$AAP?$AAU?$AA_?$AAP?$AAO?$AAW?$AAE?$AAR?$AA_?$AAG?$AAO?$AAO?$AAD?$AA_?$AAM?$AAU?$AAX?$AA1?$AA1?$AA?$AA@ 100028e8     shell.obj
 0001:0000191c       ??_C@_1CI@PPGLADOI@?$AAP?$AAR?$AAC?$AAM?$AA_?$AAG?$AAL?$AAO?$AAB?$AAA?$AAL?$AA_?$AAW?$AAK?$AAU?$AAP?$AA_?$AAe?$AAn?$AA?$AA@ 1000291c     shell.obj
 0001:00001944       ??_C@_1CC@IMLCLAHH@?$AAP?$AAR?$AAC?$AAM?$AA_?$AAP?$AAR?$AAM?$AA2?$AAM?$AAP?$AAU?$AA_?$AAI?$AAR?$AAQ?$AA?$AA@ 10002944     shell.obj
 0001:00001968       ??_C@_1CO@KJGEBCFG@?$AAP?$AAR?$AAC?$AAM?$AA_?$AAv?$AAd?$AAd?$AA1?$AA_?$AAd?$AAo?$AAm?$AAa?$AAi?$AAn?$AA_?$AAi?$AAs?$AA_?$AAl?$AAp?$AA?$AA@ 10002968     shell.obj
 0001:00001998       ??_C@_1DA@FKBFGMEE@?$AAP?$AAR?$AAC?$AAM?$AA_?$AAv?$AAd?$AAd?$AA1?$AA_?$AAd?$AAo?$AAm?$AAa?$AAi?$AAn?$AA_?$AAi?$AAs?$AA_?$AAo?$AAf?$AAf?$AA?$AA@ 10002998     shell.obj
 0001:000019c8       ??_C@_1CM@HOCMAMPL@?$AAP?$AAR?$AAC?$AAM?$AA_?$AAS?$AAG?$AAX?$AA_?$AAd?$AAo?$AAm?$AAa?$AAi?$AAn?$AAW?$AAa?$AAk?$AAe?$AAu?$AAp?$AA?$AA@ 100029c8     shell.obj
 0001:000019f4       ??_C@_1CG@PMKFHOLO@?$AAP?$AAR?$AAC?$AAM?$AA_?$AAD?$AAP?$AAL?$AAL?$AA3?$AA_?$AAr?$AAs?$AAt?$AAd?$AAa?$AAt?$AAa?$AA?$AA@ 100029f4     shell.obj
 0001:00001a1c       ??_C@_1CI@HOBMHOFE@?$AAP?$AAR?$AAC?$AAM?$AA_?$AAE?$AAF?$AAU?$AAS?$AAE?$AA_?$AAR?$AAS?$AAT?$AAP?$AAW?$AAR?$AAO?$AAN?$AA?$AA@ 10002a1c     shell.obj
 0001:00001a44       ??_C@_1CG@MIDGPNEA@?$AAP?$AAR?$AAC?$AAM?$AA_?$AAI?$AAV?$AAA?$AA2?$AA_?$AAR?$AAS?$AAT?$AAP?$AAW?$AAR?$AAO?$AAN?$AA?$AA@ 10002a44     shell.obj
 0001:00001a6c       ??_C@_1CK@HHBFNGO@?$AAP?$AAR?$AAC?$AAM?$AA_?$AAD?$AAS?$AAS?$AA2?$AA_?$AAA?$AAL?$AAW?$AAO?$AAN?$AA_?$AAF?$AAC?$AAL?$AAK?$AA?$AA@ 10002a6c     shell.obj
 0001:00001a98       ??_C@_1CG@EDPGHILA@?$AAP?$AAR?$AAC?$AAM?$AA_?$AAG?$AAP?$AAI?$AAO?$AA1?$AA_?$AAS?$AAW?$AAA?$AAK?$AAE?$AAU?$AAP?$AA?$AA@ 10002a98     shell.obj
 0001:00001ac0       ??_C@_1CM@JJAGMEGL@?$AAP?$AAR?$AAC?$AAM?$AA_?$AAU?$AAS?$AAB?$AAH?$AAO?$AAS?$AAT?$AA_?$AAS?$AAA?$AAV?$AAE?$AAD?$AAO?$AAN?$AAE?$AA?$AA@ 10002ac0     shell.obj
 0001:00001aec       ??_C@_1CM@IEFLJKPE@?$AAP?$AAR?$AAC?$AAM?$AA_?$AAU?$AAS?$AAB?$AAH?$AAO?$AAS?$AAT?$AA_?$AAP?$AAO?$AAW?$AAE?$AAR?$AA_?$AAO?$AAN?$AA?$AA@ 10002aec     shell.obj
 0001:00001b18       ??_C@_1CM@MHIPJHIM@?$AAP?$AAR?$AAC?$AAM?$AA_?$AAD?$AAP?$AAL?$AAL?$AA3?$AA_?$AAP?$AAO?$AAW?$AAE?$AAR?$AA_?$AAG?$AAO?$AAO?$AAD?$AA?$AA@ 10002b18     shell.obj
 0001:00001b44       ??_C@_1CE@GNIDHNHH@?$AAP?$AAR?$AAC?$AAM?$AA_?$AAE?$AAM?$AAU?$AA_?$AAP?$AAO?$AAW?$AAE?$AAR?$AA_?$AAO?$AAN?$AA?$AA@ 10002b44     shell.obj
 0001:00001b68       ??_C@_1DE@NMDNMHHE@?$AAP?$AAR?$AAC?$AAM?$AA_?$AAD?$AAS?$AAS?$AA_?$AAP?$AAO?$AAW?$AAE?$AAR?$AA_?$AAG?$AAO?$AAO?$AAD?$AA_?$AAM?$AAU?$AAX?$AA1?$AA0?$AA?$AA@ 10002b68     shell.obj
 0001:00001b9c       ??_C@_1DO@PAHJNJDP@?$AAP?$AAR?$AAC?$AAM?$AA_?$AAC?$AAO?$AAR?$AAE?$AA_?$AAS?$AAR?$AAA?$AAM?$AAR?$AAE?$AAT?$AAG?$AAO?$AAO?$AAD?$AAO?$AAU?$AAT?$AA_?$AAM?$AAU?$AAX?$AA1?$AA0?$AA?$AA@ 10002b9c     shell.obj
 0001:00001bdc       ??_C@_1DE@OGIIPBDP@?$AAP?$AAR?$AAC?$AAM?$AA_?$AAC?$AAO?$AAR?$AAE?$AA_?$AAS?$AAR?$AAA?$AAM?$AAA?$AAO?$AAN?$AAI?$AAN?$AA_?$AAM?$AAU?$AAX?$AA1?$AA0?$AA?$AA@ 10002bdc     shell.obj
 0001:00001c10       ??_C@_1DI@PIIEGABM@?$AAP?$AAR?$AAC?$AAM?$AA_?$AAI?$AAV?$AAA?$AA2?$AA_?$AAS?$AAR?$AAA?$AAM?$AAR?$AAE?$AAT?$AAO?$AAN?$AAI?$AAN?$AA_?$AAM?$AAU?$AAX?$AA1?$AA0?$AA?$AA@ 10002c10     shell.obj
 0001:00001c48       ??_C@_1DG@LEJKBNHH@?$AAP?$AAR?$AAC?$AAM?$AA_?$AAI?$AAV?$AAA?$AA2?$AA_?$AAP?$AAO?$AAW?$AAE?$AAR?$AA_?$AAG?$AAO?$AAO?$AAD?$AA_?$AAM?$AAU?$AAX?$AA1?$AA0?$AA?$AA@ 10002c48     shell.obj
 0001:00001c80       ??_C@_1CG@MLMHHBPP@?$AAP?$AAR?$AAC?$AAM?$AA_?$AAM?$AAP?$AAU?$AA_?$AAP?$AAO?$AAW?$AAE?$AAR?$AA_?$AAI?$AAS?$AAO?$AA?$AA@ 10002c80     shell.obj
 0001:00001ca8       ??_C@_1CG@NPEHKJNL@?$AAP?$AAR?$AAC?$AAM?$AA_?$AAP?$AAA?$AAD?$AAS?$AA_?$AAO?$AAF?$AAF?$AA_?$AAm?$AAo?$AAd?$AAe?$AA?$AA@ 10002ca8     shell.obj
 0001:00001cd0       ??_C@_1CO@IFOFEKCM@?$AAP?$AAR?$AAC?$AAM?$AA_?$AAs?$AAg?$AAx?$AA_?$AAd?$AAo?$AAm?$AAa?$AAi?$AAn?$AA_?$AAi?$AAs?$AA_?$AAo?$AAf?$AAf?$AA?$AA@ 10002cd0     shell.obj
 0001:00001d00       ??_C@_1DK@NCADMCKP@?$AAP?$AAR?$AAC?$AAM?$AA_?$AAs?$AAg?$AAx?$AA_?$AAd?$AAo?$AAm?$AAa?$AAi?$AAn?$AA_?$AAi?$AAs?$AA_?$AAr?$AAe?$AAt?$AAe?$AAn?$AAt?$AAi?$AAo?$AAn?$AA?$AA@ 10002d00     shell.obj
 0001:00001d3c       ??_C@_1DI@KJCIMEPK@?$AAP?$AAR?$AAC?$AAM?$AA_?$AAs?$AAg?$AAx?$AA_?$AAd?$AAo?$AAm?$AAa?$AAi?$AAn?$AA_?$AAi?$AAs?$AA_?$AAi?$AAn?$AAa?$AAc?$AAt?$AAi?$AAv?$AAe?$AA?$AA@ 10002d3c     shell.obj
 0001:00001d74       ??_C@_1CO@OIHBJGHA@?$AAP?$AAR?$AAC?$AAM?$AA_?$AAC?$AAO?$AAR?$AAE?$AAL?$AA3?$AA_?$AAd?$AAo?$AAm?$AAa?$AAi?$AAn?$AAI?$AAs?$AAO?$AAn?$AA?$AA@ 10002d74     shell.obj
 0001:00001da4       ??_C@_1CI@MCDCHDGG@?$AAP?$AAR?$AAC?$AAM?$AA_?$AAC?$AAM?$AA_?$AAR?$AAS?$AAT?$AAP?$AAW?$AAR?$AAO?$AAN?$AAR?$AAE?$AAT?$AA?$AA@ 10002da4     shell.obj
 0001:00001dcc       ??_C@_1CE@LMKEJKAA@?$AAP?$AAR?$AAC?$AAM?$AA_?$AAE?$AAM?$AAU?$AA_?$AAR?$AAS?$AAT?$AAP?$AAW?$AAR?$AAO?$AAN?$AA?$AA@ 10002dcc     shell.obj
 0001:00001df0       ??_C@_1BO@LHFPOBCL@?$AAP?$AAR?$AAC?$AAM?$AA_?$AAI?$AAV?$AAA?$AA2?$AA_?$AAR?$AAS?$AAT?$AA3?$AA?$AA@ 10002df0     shell.obj
 0001:00001e10       ??_C@_1DA@FIFMGCKB@?$AAP?$AAR?$AAC?$AAM?$AA_?$AAF?$AAU?$AAN?$AAC?$AA_?$AA9?$AA6?$AAM?$AA_?$AAA?$AAL?$AAW?$AAO?$AAN?$AA_?$AAC?$AAL?$AAK?$AA?$AA@ 10002e10     shell.obj
 0001:00001e40       ??_C@_1CI@PBFADKEP@?$AAP?$AAR?$AAC?$AAM?$AA_?$AAU?$AAS?$AAB?$AAT?$AAL?$AAL?$AA_?$AAS?$AAW?$AAA?$AAK?$AAE?$AAU?$AAP?$AA?$AA@ 10002e40     shell.obj
 0001:00001e68       ??_C@_1CO@JNKAGHH@?$AAP?$AAR?$AAC?$AAM?$AA_?$AAU?$AAS?$AAB?$AAH?$AAO?$AAS?$AAT?$AA_?$AAS?$AAT?$AAA?$AAR?$AAT?$AAS?$AAA?$AAV?$AAE?$AA?$AA@ 10002e68     shell.obj
 0001:00001e98       ??_C@_1DA@KIKLMODH@?$AAP?$AAR?$AAC?$AAM?$AA_?$AAP?$AAE?$AAR?$AA_?$AAS?$AAR?$AAA?$AAM?$AAR?$AAE?$AAT?$AAG?$AAO?$AAO?$AAD?$AAO?$AAU?$AAT?$AA?$AA@ 10002e98     shell.obj
 0001:00001ec8       ??_C@_1CK@KCPPDAOO@?$AAP?$AAR?$AAC?$AAM?$AA_?$AAD?$AAP?$AAL?$AAL?$AA3?$AA_?$AAP?$AAO?$AAW?$AAE?$AAR?$AA_?$AAI?$AAS?$AAO?$AA?$AA@ 10002ec8     shell.obj
 0001:00001ef4       ??_C@_1DA@ENPLEEHK@?$AAP?$AAR?$AAC?$AAM?$AA_?$AAC?$AAA?$AAM?$AA_?$AAS?$AAR?$AAA?$AAM?$AAR?$AAE?$AAT?$AAG?$AAO?$AAO?$AAD?$AAO?$AAU?$AAT?$AA?$AA@ 10002ef4     shell.obj
 0001:00001f24       ??_C@_1CG@IFLHNLKC@?$AAP?$AAR?$AAC?$AAM?$AA_?$AAD?$AAS?$AAS?$AA_?$AAP?$AAO?$AAW?$AAE?$AAR?$AA_?$AAI?$AAS?$AAO?$AA?$AA@ 10002f24     shell.obj
 0001:00001f4c       ??_C@_1DM@IMMIBOFM@?$AAP?$AAR?$AAC?$AAM?$AA_?$AAC?$AAO?$AAR?$AAE?$AA_?$AAS?$AAR?$AAA?$AAM?$AAR?$AAE?$AAT?$AAG?$AAO?$AAO?$AAD?$AAO?$AAU?$AAT?$AA_?$AAM?$AAU?$AAX?$AA9?$AA?$AA@ 10002f4c     shell.obj
 0001:00001f88       ??_C@_1DC@LJPKGONJ@?$AAP?$AAR?$AAC?$AAM?$AA_?$AAC?$AAO?$AAR?$AAE?$AA_?$AAS?$AAR?$AAA?$AAM?$AAA?$AAO?$AAN?$AAI?$AAN?$AA_?$AAM?$AAU?$AAX?$AA9?$AA?$AA@ 10002f88     shell.obj
 0001:00001fbc       ??_C@_1DG@LHNLMCFD@?$AAP?$AAR?$AAC?$AAM?$AA_?$AAI?$AAV?$AAA?$AA2?$AA_?$AAS?$AAR?$AAA?$AAM?$AAR?$AAE?$AAT?$AAO?$AAN?$AAI?$AAN?$AA_?$AAM?$AAU?$AAX?$AA9?$AA?$AA@ 10002fbc     shell.obj
 0001:00001ff4       ??_C@_1DE@NNNOHFFC@?$AAP?$AAR?$AAC?$AAM?$AA_?$AAI?$AAV?$AAA?$AA2?$AA_?$AAP?$AAO?$AAW?$AAE?$AAR?$AA_?$AAG?$AAO?$AAO?$AAD?$AA_?$AAM?$AAU?$AAX?$AA9?$AA?$AA@ 10002ff4     shell.obj
 0001:00002028       ??_C@_1CE@HNOPOIDA@?$AAP?$AAR?$AAC?$AAM?$AA_?$AAM?$AAP?$AAU?$AA_?$AAP?$AAO?$AAW?$AAE?$AAR?$AA_?$AAO?$AAN?$AA?$AA@ 10003028     shell.obj
 0001:0000204c       ??_C@_1CG@CMLCABKE@?$AAP?$AAR?$AAC?$AAM?$AA_?$AAD?$AAe?$AAv?$AAi?$AAc?$AAe?$AA_?$AAw?$AAa?$AAk?$AAe?$AAu?$AAp?$AA?$AA@ 1000304c     shell.obj
 0001:00002074       ??_C@_1DA@NKEFHDME@?$AAP?$AAR?$AAC?$AAM?$AA_?$AAv?$AAd?$AAd?$AA4?$AA_?$AAd?$AAo?$AAm?$AAa?$AAi?$AAn?$AA_?$AAi?$AAs?$AA_?$AAo?$AAf?$AAf?$AA?$AA@ 10003074     shell.obj
 0001:000020a4       ??_C@_1DE@EKAJKKPC@?$AAP?$AAR?$AAC?$AAM?$AA_?$AAv?$AAd?$AAd?$AA1?$AA_?$AAd?$AAo?$AAm?$AAa?$AAi?$AAn?$AA_?$AAi?$AAs?$AA_?$AAs?$AAl?$AAe?$AAe?$AAp?$AA?$AA@ 100030a4     shell.obj
 0001:000020d8       ??_C@_1DC@EPMCJHCE@?$AAP?$AAR?$AAC?$AAM?$AA_?$AAv?$AAd?$AAd?$AA1?$AA_?$AAd?$AAo?$AAm?$AAa?$AAi?$AAn?$AA_?$AAi?$AAs?$AA_?$AAg?$AAo?$AAo?$AAd?$AA?$AA@ 100030d8     shell.obj
 0001:0000210c       ??_C@_1DC@GMFCNPLO@?$AAP?$AAR?$AAC?$AAM?$AA_?$AAC?$AAO?$AAR?$AAE?$AAL?$AA3?$AA_?$AAd?$AAo?$AAm?$AAa?$AAi?$AAn?$AAW?$AAa?$AAk?$AAe?$AAu?$AAp?$AA?$AA@ 1000310c     shell.obj
 0001:00002140       ??_C@_1CK@HEEGGAKL@?$AAP?$AAR?$AAC?$AAM?$AA_?$AAV?$AAD?$AAD?$AA2?$AA_?$AAV?$AAO?$AAL?$AAC?$AAO?$AAN?$AA_?$AAR?$AAS?$AAT?$AA?$AA@ 10003140     shell.obj
 0001:0000216c       ??_C@_1BK@DLAMNOLF@?$AAP?$AAR?$AAC?$AAM?$AA_?$AAE?$AAM?$AAU?$AA_?$AAR?$AAS?$AAT?$AA?$AA@ 1000316c     shell.obj
 0001:00002188       ??_C@_1BO@PODIGEO@?$AAP?$AAR?$AAC?$AAM?$AA_?$AAI?$AAV?$AAA?$AA2?$AA_?$AAR?$AAS?$AAT?$AA2?$AA?$AA@ 10003188     shell.obj
 0001:000021a8       ??_C@_1CK@HIHEHNBF@?$AAP?$AAR?$AAC?$AAM?$AA_?$AAU?$AAS?$AAB?$AAT?$AAL?$AAL?$AA_?$AAS?$AAA?$AAR?$AA_?$AAF?$AAC?$AAL?$AAK?$AA?$AA@ 100031a8     shell.obj
 0001:000021d4       ??_C@_1CG@EDEAHMMI@?$AAP?$AAR?$AAC?$AAM?$AA_?$AAG?$AAP?$AAT?$AA1?$AA0?$AA_?$AAS?$AAW?$AAA?$AAK?$AAE?$AAU?$AAP?$AA?$AA@ 100031d4     shell.obj
 0001:000021fc       ??_C@_1CK@HKOIIHFD@?$AAP?$AAR?$AAC?$AAM?$AA_?$AAU?$AAS?$AAB?$AAH?$AAO?$AAS?$AAT?$AA_?$AAI?$AAS?$AAO?$AA_?$AAS?$AAA?$AAR?$AA?$AA@ 100031fc     shell.obj
 0001:00002228       ??_C@_1CK@DACBAOIB@?$AAP?$AAR?$AAC?$AAM?$AA_?$AAP?$AAE?$AAR?$AA_?$AAS?$AAR?$AAA?$AAM?$AAR?$AAE?$AAT?$AAO?$AAN?$AAI?$AAN?$AA?$AA@ 10003228     shell.obj
 0001:00002254       ??_C@_1CI@JAHHKANH@?$AAP?$AAR?$AAC?$AAM?$AA_?$AAD?$AAP?$AAL?$AAL?$AA3?$AA_?$AAP?$AAO?$AAW?$AAE?$AAR?$AA_?$AAO?$AAN?$AA?$AA@ 10003254     shell.obj
 0001:0000227c       ??_C@_1CK@HBNCOJM@?$AAP?$AAR?$AAC?$AAM?$AA_?$AAC?$AAA?$AAM?$AA_?$AAS?$AAR?$AAA?$AAM?$AAR?$AAE?$AAT?$AAO?$AAN?$AAI?$AAN?$AA?$AA@ 1000327c     shell.obj
 0001:000022a8       ??_C@_1CE@OFDEJALD@?$AAP?$AAR?$AAC?$AAM?$AA_?$AAD?$AAS?$AAS?$AA_?$AAP?$AAO?$AAW?$AAE?$AAR?$AA_?$AAO?$AAN?$AA?$AA@ 100032a8     shell.obj
 0001:000022cc       ??_C@_1DM@DEHEHJDJ@?$AAP?$AAR?$AAC?$AAM?$AA_?$AAC?$AAO?$AAR?$AAE?$AA_?$AAS?$AAR?$AAA?$AAM?$AAR?$AAE?$AAT?$AAG?$AAO?$AAO?$AAD?$AAO?$AAU?$AAT?$AA_?$AAM?$AAU?$AAX?$AA8?$AA?$AA@ 100032cc     shell.obj
 0001:00002308       ??_C@_1DC@BEGAJLM@?$AAP?$AAR?$AAC?$AAM?$AA_?$AAC?$AAO?$AAR?$AAE?$AA_?$AAS?$AAR?$AAA?$AAM?$AAA?$AAO?$AAN?$AAI?$AAN?$AA_?$AAM?$AAU?$AAX?$AA8?$AA?$AA@ 10003308     shell.obj
 0001:0000233c       ??_C@_1DG@PGHKFDG@?$AAP?$AAR?$AAC?$AAM?$AA_?$AAI?$AAV?$AAA?$AA2?$AA_?$AAS?$AAR?$AAA?$AAM?$AAR?$AAE?$AAT?$AAO?$AAN?$AAI?$AAN?$AA_?$AAM?$AAU?$AAX?$AA8?$AA?$AA@ 1000333c     shell.obj
 0001:00002374       ??_C@_1CI@NHDFBAPG@?$AAP?$AAR?$AAC?$AAM?$AA_?$AAI?$AAV?$AAA?$AA2?$AA_?$AAP?$AAO?$AAW?$AAE?$AAR?$AA_?$AAI?$AAS?$AAO?$AA?$AA@ 10003374     shell.obj
 0001:0000239c       ??_C@_1CK@HBOGJNML@?$AAP?$AAR?$AAC?$AAM?$AA_?$AAS?$AAR?$AAA?$AAM?$AAA?$AAL?$AAL?$AAO?$AAF?$AAF?$AA_?$AAM?$AAU?$AAX?$AA8?$AA?$AA@ 1000339c     shell.obj
 0001:000023c8       ??_C@_1DA@CBNLEIPF@?$AAP?$AAR?$AAC?$AAM?$AA_?$AAi?$AAv?$AAa?$AA2?$AA_?$AAd?$AAo?$AAm?$AAa?$AAi?$AAn?$AA_?$AAi?$AAs?$AA_?$AAo?$AAf?$AAf?$AA?$AA@ 100033c8     shell.obj
 0001:000023f8       ??_C@_1DM@IEAIBFHI@?$AAP?$AAR?$AAC?$AAM?$AA_?$AAi?$AAv?$AAa?$AA2?$AA_?$AAd?$AAo?$AAm?$AAa?$AAi?$AAn?$AA_?$AAi?$AAs?$AA_?$AAr?$AAe?$AAt?$AAe?$AAn?$AAt?$AAi?$AAo?$AAn?$AA?$AA@ 100033f8     shell.obj
 0001:00002434       ??_C@_1DK@HHJPOMN@?$AAP?$AAR?$AAC?$AAM?$AA_?$AAi?$AAv?$AAa?$AA2?$AA_?$AAd?$AAo?$AAm?$AAa?$AAi?$AAn?$AA_?$AAi?$AAs?$AA_?$AAi?$AAn?$AAa?$AAc?$AAt?$AAi?$AAv?$AAe?$AA?$AA@ 10003434     shell.obj
 0001:00002470       ??_C@_1CK@NDOHGLOK@?$AAP?$AAR?$AAC?$AAM?$AA_?$AAI?$AAV?$AAA?$AA2?$AA_?$AAd?$AAo?$AAm?$AAa?$AAi?$AAn?$AAI?$AAs?$AAO?$AAn?$AA?$AA@ 10003470     shell.obj
 0001:0000249c       ??_C@_1CK@IGBBINFD@?$AAP?$AAR?$AAC?$AAM?$AA_?$AAV?$AAD?$AAD?$AA1?$AA_?$AAV?$AAO?$AAL?$AAC?$AAO?$AAN?$AA_?$AAR?$AAS?$AAT?$AA?$AA@ 1000349c     shell.obj
 0001:000024c8       ??_C@_1CG@JDGEBFFN@?$AAP?$AAR?$AAC?$AAM?$AA_?$AAW?$AAK?$AAU?$AAP?$AA_?$AAR?$AAS?$AAT?$AAP?$AAW?$AAR?$AAO?$AAN?$AA?$AA@ 100034c8     shell.obj
 0001:000024f0       ??_C@_1BM@DFBLBGAE@?$AAP?$AAR?$AAC?$AAM?$AA_?$AAN?$AAE?$AAO?$AAN?$AA_?$AAR?$AAS?$AAT?$AA?$AA@ 100034f0     shell.obj
 0001:0000250c       ??_C@_1CO@FCLMIPLE@?$AAP?$AAR?$AAC?$AAM?$AA_?$AAU?$AAS?$AAB?$AAT?$AAH?$AAO?$AAS?$AAT?$AA_?$AAS?$AAA?$AAR?$AA_?$AAF?$AAC?$AAL?$AAK?$AA?$AA@ 1000350c     shell.obj
 0001:0000253c       ??_C@_1CG@KDJFJDOF@?$AAP?$AAR?$AAC?$AAM?$AA_?$AAU?$AAS?$AAB?$AAH?$AAS?$AA_?$AAS?$AAW?$AAA?$AAK?$AAE?$AAU?$AAP?$AA?$AA@ 1000353c     shell.obj
 0001:00002564       ??_C@_1CG@IHNABLHO@?$AAP?$AAR?$AAC?$AAM?$AA_?$AAA?$AAc?$AAt?$AAL?$AAi?$AAk?$AAe?$AAS?$AAe?$AAc?$AAu?$AAr?$AAe?$AA?$AA@ 10003564     shell.obj
 0001:0000258c       ??_C@_1CM@FDBMOEFH@?$AAP?$AAR?$AAC?$AAM?$AA_?$AAP?$AAE?$AAR?$AA_?$AAS?$AAR?$AAA?$AAM?$AAA?$AAG?$AAO?$AAO?$AAD?$AAO?$AAU?$AAT?$AA?$AA@ 1000358c     shell.obj
 0001:000025b8       ??_C@_1CM@CAJCDBBL@?$AAP?$AAR?$AAC?$AAM?$AA_?$AAD?$AAP?$AAL?$AAL?$AA2?$AA_?$AAP?$AAO?$AAW?$AAE?$AAR?$AA_?$AAG?$AAO?$AAO?$AAD?$AA?$AA@ 100035b8     shell.obj
 0001:000025e4       ??_C@_1CM@JHBOJPLP@?$AAP?$AAR?$AAC?$AAM?$AA_?$AAC?$AAA?$AAM?$AA_?$AAS?$AAR?$AAA?$AAM?$AAA?$AAG?$AAO?$AAO?$AAD?$AAO?$AAU?$AAT?$AA?$AA@ 100035e4     shell.obj
 0001:00002610       ??_C@_1DA@KCLEEMKG@?$AAP?$AAR?$AAC?$AAM?$AA_?$AAS?$AAG?$AAX?$AA_?$AAS?$AAR?$AAA?$AAM?$AAR?$AAE?$AAT?$AAG?$AAO?$AAO?$AAD?$AAO?$AAU?$AAT?$AA?$AA@ 10003610     shell.obj
 0001:00002640       ??_C@_1DM@GMBHGJGP@?$AAP?$AAR?$AAC?$AAM?$AA_?$AAC?$AAO?$AAR?$AAE?$AA_?$AAS?$AAR?$AAA?$AAM?$AAR?$AAE?$AAT?$AAG?$AAO?$AAO?$AAD?$AAO?$AAU?$AAT?$AA_?$AAM?$AAU?$AAX?$AA7?$AA?$AA@ 10003640     shell.obj
 0001:0000267c       ??_C@_1DC@FJCFBJOK@?$AAP?$AAR?$AAC?$AAM?$AA_?$AAC?$AAO?$AAR?$AAE?$AA_?$AAS?$AAR?$AAA?$AAM?$AAA?$AAO?$AAN?$AAI?$AAN?$AA_?$AAM?$AAU?$AAX?$AA7?$AA?$AA@ 1000367c     shell.obj
 0001:000026b0       ??_C@_1DG@FHAELFGA@?$AAP?$AAR?$AAC?$AAM?$AA_?$AAI?$AAV?$AAA?$AA2?$AA_?$AAS?$AAR?$AAA?$AAM?$AAR?$AAE?$AAT?$AAO?$AAN?$AAI?$AAN?$AA_?$AAM?$AAU?$AAX?$AA7?$AA?$AA@ 100036b0     shell.obj
 0001:000026e8       ??_C@_1CG@BJBBBKDH@?$AAP?$AAR?$AAC?$AAM?$AA_?$AAI?$AAV?$AAA?$AA2?$AA_?$AAP?$AAO?$AAW?$AAE?$AAR?$AA_?$AAO?$AAN?$AA?$AA@ 100036e8     shell.obj
 0001:00002710       ??_C@_1CK@CJIFINJN@?$AAP?$AAR?$AAC?$AAM?$AA_?$AAS?$AAR?$AAA?$AAM?$AAA?$AAL?$AAL?$AAO?$AAF?$AAF?$AA_?$AAM?$AAU?$AAX?$AA7?$AA?$AA@ 10003710     shell.obj
 0001:0000273c       ??_C@_1DG@IJHFCFPF@?$AAP?$AAR?$AAC?$AAM?$AA_?$AAu?$AAs?$AAb?$AAh?$AAo?$AAs?$AAt?$AA_?$AAd?$AAo?$AAm?$AAa?$AAi?$AAn?$AA_?$AAi?$AAs?$AA_?$AAo?$AAf?$AAf?$AA?$AA@ 1000373c     shell.obj
 0001:00002778       ??_C@_1EC@PHKFNENB@?$AAP?$AAR?$AAC?$AAM?$AA_?$AAu?$AAs?$AAb?$AAh?$AAo?$AAs?$AAt?$AA_?$AAd?$AAo?$AAm?$AAa?$AAi?$AAn?$AA_?$AAi?$AAs?$AA_?$AAr?$AAe?$AAt?$AAe?$AAn?$AAt?$AAi?$AAo?$AAn@ 10003778     shell.obj
 0001:000027c0       ??_C@_1EA@GBNGPAIJ@?$AAP?$AAR?$AAC?$AAM?$AA_?$AAu?$AAs?$AAb?$AAh?$AAo?$AAs?$AAt?$AA_?$AAd?$AAo?$AAm?$AAa?$AAi?$AAn?$AA_?$AAi?$AAs?$AA_?$AAi?$AAn?$AAa?$AAc?$AAt?$AAi?$AAv?$AAe?$AA?$AA@ 100037c0     shell.obj
 0001:00002800       ??_C@_1CO@JFKDPKEF@?$AAP?$AAR?$AAC?$AAM?$AA_?$AAI?$AAV?$AAA?$AA2?$AA_?$AAd?$AAo?$AAm?$AAa?$AAi?$AAn?$AAW?$AAa?$AAk?$AAe?$AAu?$AAp?$AA?$AA@ 10003800     shell.obj
 0001:00002830       ??_C@_1CC@JHHCKIAL@?$AAP?$AAR?$AAC?$AAM?$AA_?$AAI?$AAC?$AAE?$AAP?$AAI?$AAC?$AAK?$AA_?$AAR?$AAS?$AAT?$AA?$AA@ 10003830     shell.obj
 0001:00002854       ??_C@_1BM@JCJFHMEP@?$AAP?$AAR?$AAC?$AAM?$AA_?$AAW?$AAK?$AAU?$AAP?$AA_?$AAR?$AAS?$AAT?$AA?$AA@ 10003854     shell.obj
 0001:00002870       ??_C@_1BO@BNFGCJKA@?$AAP?$AAR?$AAC?$AAM?$AA_?$AAI?$AAV?$AAA?$AA2?$AA_?$AAR?$AAS?$AAT?$AA1?$AA?$AA@ 10003870     shell.obj
 0001:00002890       ??_C@_1BO@LMENJGMC@?$AAP?$AAR?$AAC?$AAM?$AA_?$AAU?$AAS?$AAI?$AAM?$AA_?$AAF?$AAC?$AAL?$AAK?$AA?$AA@ 10003890     shell.obj
 0001:000028b0       ??_C@_1CI@JKCBBPF@?$AAP?$AAR?$AAC?$AAM?$AA_?$AAM?$AAC?$AAB?$AAS?$AAP?$AA2?$AA_?$AAS?$AAW?$AAA?$AAK?$AAE?$AAU?$AAP?$AA?$AA@ 100038b0     shell.obj
 0001:000028d8       ??_C@_1BG@BMEIDLGF@?$AAP?$AAR?$AAC?$AAM?$AA_?$AAI?$AAP?$AAP?$AAW?$AAR?$AA?$AA@ 100038d8     shell.obj
 0001:000028f0       ??_C@_1CE@JEADGMMJ@?$AAP?$AAR?$AAC?$AAM?$AA_?$AAP?$AAE?$AAR?$AA_?$AAS?$AAR?$AAA?$AAM?$AAO?$AAN?$AAI?$AAN?$AA?$AA@ 100038f0     shell.obj
 0001:00002914       ??_C@_1CK@CDNKFFMJ@?$AAP?$AAR?$AAC?$AAM?$AA_?$AAD?$AAP?$AAL?$AAL?$AA2?$AA_?$AAP?$AAO?$AAW?$AAE?$AAR?$AA_?$AAI?$AAS?$AAO?$AA?$AA@ 10003914     shell.obj
 0001:00002940       ??_C@_1CG@JLKPEPCF@?$AAP?$AAR?$AAC?$AAM?$AA_?$AAC?$AAA?$AAM?$AA_?$AAS?$AAR?$AAA?$AAM?$AAA?$AAO?$AAN?$AAI?$AAN?$AA?$AA@ 10003940     shell.obj
 0001:00002968       ??_C@_1CK@IPDLNCPM@?$AAP?$AAR?$AAC?$AAM?$AA_?$AAS?$AAG?$AAX?$AA_?$AAS?$AAR?$AAA?$AAM?$AAR?$AAE?$AAT?$AAO?$AAN?$AAI?$AAN?$AA?$AA@ 10003968     shell.obj
 0001:00002994       ??_C@_1DM@NEKLAOAK@?$AAP?$AAR?$AAC?$AAM?$AA_?$AAC?$AAO?$AAR?$AAE?$AA_?$AAS?$AAR?$AAA?$AAM?$AAR?$AAE?$AAT?$AAG?$AAO?$AAO?$AAD?$AAO?$AAU?$AAT?$AA_?$AAM?$AAU?$AAX?$AA6?$AA?$AA@ 10003994     shell.obj
 0001:000029d0       ??_C@_1DC@OBJJHOIP@?$AAP?$AAR?$AAC?$AAM?$AA_?$AAC?$AAO?$AAR?$AAE?$AA_?$AAS?$AAR?$AAA?$AAM?$AAA?$AAO?$AAN?$AAI?$AAN?$AA_?$AAM?$AAU?$AAX?$AA6?$AA?$AA@ 100039d0     shell.obj
 0001:00002a04       ??_C@_1DI@OOFFIDLK@?$AAP?$AAR?$AAC?$AAM?$AA_?$AAI?$AAV?$AAA?$AA2?$AA_?$AAS?$AAR?$AAA?$AAM?$AAA?$AAG?$AAO?$AAO?$AAD?$AAO?$AAU?$AAT?$AA_?$AAM?$AAU?$AAX?$AA6?$AA?$AA@ 10003a04     shell.obj
 0001:00002a3c       ??_C@_1DK@PINGLKKL@?$AAP?$AAR?$AAC?$AAM?$AA_?$AAM?$AAP?$AAU?$AA_?$AAS?$AAR?$AAA?$AAM?$AAR?$AAE?$AAT?$AAG?$AAO?$AAO?$AAD?$AAO?$AAU?$AAT?$AA_?$AAM?$AAU?$AAX?$AA6?$AA?$AA@ 10003a3c     shell.obj
 0001:00002a78       ??_C@_1CK@OCCFDFDI@?$AAP?$AAR?$AAC?$AAM?$AA_?$AAS?$AAR?$AAA?$AAM?$AAA?$AAL?$AAL?$AAR?$AAE?$AAT?$AA_?$AAM?$AAU?$AAX?$AA6?$AA?$AA@ 10003a78     shell.obj
 0001:00002aa4       ??_C@_1DA@GMOODOAN@?$AAP?$AAR?$AAC?$AAM?$AA_?$AAn?$AAe?$AAo?$AAn?$AA_?$AAd?$AAo?$AAm?$AAa?$AAi?$AAn?$AA_?$AAi?$AAs?$AA_?$AAo?$AAf?$AAf?$AA?$AA@ 10003aa4     shell.obj
 0001:00002ad4       ??_C@_1DM@HBBJLIAO@?$AAP?$AAR?$AAC?$AAM?$AA_?$AAn?$AAe?$AAo?$AAn?$AA_?$AAd?$AAo?$AAm?$AAa?$AAi?$AAn?$AA_?$AAi?$AAs?$AA_?$AAr?$AAe?$AAt?$AAe?$AAn?$AAt?$AAi?$AAo?$AAn?$AA?$AA@ 10003ad4     shell.obj
 0001:00002b10       ??_C@_1DK@GPKKMBFP@?$AAP?$AAR?$AAC?$AAM?$AA_?$AAn?$AAe?$AAo?$AAn?$AA_?$AAd?$AAo?$AAm?$AAa?$AAi?$AAn?$AA_?$AAi?$AAs?$AA_?$AAi?$AAn?$AAa?$AAc?$AAt?$AAi?$AAv?$AAe?$AA?$AA@ 10003b10     shell.obj
 0001:00002b4c       ??_C@_1CK@MJMMLBEL@?$AAP?$AAR?$AAC?$AAM?$AA_?$AAN?$AAE?$AAO?$AAN?$AA_?$AAd?$AAo?$AAm?$AAa?$AAi?$AAn?$AAI?$AAs?$AAO?$AAn?$AA?$AA@ 10003b4c     shell.obj
 0001:00002b78       ??_C@_1CC@IECIDCEK@?$AAP?$AAR?$AAC?$AAM?$AA_?$AAI?$AAC?$AAE?$AAP?$AAI?$AAC?$AAK?$AA_?$AAP?$AAO?$AAR?$AA?$AA@ 10003b78     shell.obj
 0001:00002b9c       ??_C@_1CA@IMFIGAPB@?$AAP?$AAR?$AAC?$AAM?$AA_?$AAP?$AAE?$AAR?$AA_?$AAR?$AAS?$AAT?$AAR?$AAE?$AAT?$AA?$AA@ 10003b9c     shell.obj
 0001:00002bbc       ??_C@_1CE@KMMIAPEH@?$AAP?$AAR?$AAC?$AAM?$AA_?$AAM?$AAP?$AAU?$AA_?$AAR?$AAS?$AAT?$AAP?$AAW?$AAR?$AAO?$AAN?$AA?$AA@ 10003bbc     shell.obj
 0001:00002be0       ??_C@_1CM@KKLFOOHO@?$AAP?$AAR?$AAC?$AAM?$AA_?$AAS?$AAR?$AA_?$AAA?$AAL?$AAW?$AAA?$AAY?$AAS?$AAO?$AAN?$AA_?$AAF?$AAC?$AAL?$AAK?$AA?$AA@ 10003be0     shell.obj
 0001:00002c0c       ??_C@_1CE@CDMGOIEC@?$AAP?$AAR?$AAC?$AAM?$AA_?$AAG?$AAP?$AAT?$AA2?$AA_?$AAS?$AAW?$AAA?$AAK?$AAE?$AAU?$AAP?$AA?$AA@ 10003c0c     shell.obj
 0001:00002c30       ??_C@_1BK@FCMFEHBK@?$AAP?$AAR?$AAC?$AAM?$AA_?$AAW?$AAA?$AAK?$AAE?$AAE?$AAM?$AAU?$AA?$AA@ 10003c30     shell.obj
 0001:00002c4c       ??_C@_1CG@IMJGBNOI@?$AAP?$AAR?$AAC?$AAM?$AA_?$AAP?$AAE?$AAR?$AA_?$AAP?$AAO?$AAW?$AAE?$AAR?$AA_?$AAI?$AAS?$AAO?$AA?$AA@ 10003c4c     shell.obj
 0001:00002c74       ??_C@_1CI@IHFPMEBH@?$AAP?$AAR?$AAC?$AAM?$AA_?$AAD?$AAP?$AAL?$AAL?$AA2?$AA_?$AAP?$AAO?$AAW?$AAE?$AAR?$AA_?$AAO?$AAN?$AA?$AA@ 10003c74     shell.obj
 0001:00002c9c       ??_C@_1DC@EDGHGJFA@?$AAP?$AAR?$AAC?$AAM?$AA_?$AAC?$AAA?$AAM?$AA_?$AAP?$AAO?$AAW?$AAE?$AAR?$AA_?$AAG?$AAO?$AAO?$AAD?$AA_?$AAM?$AAU?$AAX?$AA5?$AA?$AA@ 10003c9c     shell.obj
 0001:00002cd0       ??_C@_1CM@EGOIMCAJ@?$AAP?$AAR?$AAC?$AAM?$AA_?$AAS?$AAG?$AAX?$AA_?$AAS?$AAR?$AAA?$AAM?$AAA?$AAG?$AAO?$AAO?$AAD?$AAO?$AAU?$AAT?$AA?$AA@ 10003cd0     shell.obj
 0001:00002cfc       ??_C@_1DG@OOAEILJC@?$AAP?$AAR?$AAC?$AAM?$AA_?$AAC?$AAO?$AAR?$AAE?$AA_?$AAS?$AAR?$AAA?$AAM?$AAR?$AAE?$AAT?$AAO?$AAN?$AAI?$AAN?$AA_?$AAM?$AAU?$AAX?$AA5?$AA?$AA@ 10003cfc     shell.obj
 0001:00002d34       ??_C@_1CI@DNPNOKKC@?$AAP?$AAR?$AAC?$AAM?$AA_?$AAC?$AAO?$AAR?$AAE?$AA_?$AAP?$AAO?$AAW?$AAE?$AAR?$AA_?$AAR?$AAE?$AAT?$AA?$AA@ 10003d34     shell.obj
 0001:00002d5c       ??_C@_1DI@PMOACMFE@?$AAP?$AAR?$AAC?$AAM?$AA_?$AAI?$AAV?$AAA?$AA2?$AA_?$AAS?$AAR?$AAA?$AAM?$AAA?$AAG?$AAO?$AAO?$AAD?$AAO?$AAU?$AAT?$AA_?$AAM?$AAU?$AAX?$AA5?$AA?$AA@ 10003d5c     shell.obj
 0001:00002d94       ??_C@_1DK@OKGDBFEF@?$AAP?$AAR?$AAC?$AAM?$AA_?$AAM?$AAP?$AAU?$AA_?$AAS?$AAR?$AAA?$AAM?$AAR?$AAE?$AAT?$AAG?$AAO?$AAO?$AAD?$AAO?$AAU?$AAT?$AA_?$AAM?$AAU?$AAX?$AA5?$AA?$AA@ 10003d94     shell.obj
 0001:00002dd0       ??_C@_1CK@PAJAJKNG@?$AAP?$AAR?$AAC?$AAM?$AA_?$AAS?$AAR?$AAA?$AAM?$AAA?$AAL?$AAL?$AAR?$AAE?$AAT?$AA_?$AAM?$AAU?$AAX?$AA5?$AA?$AA@ 10003dd0     shell.obj
 0001:00002dfc       ??_C@_1CI@DPMKMKBF@?$AAP?$AAR?$AAC?$AAM?$AA_?$AAS?$AAY?$AAS?$AA_?$AAC?$AAL?$AAK?$AAR?$AAE?$AAQ?$AA_?$AAo?$AAe?$AAn?$AA?$AA@ 10003dfc     shell.obj
 0001:00002e24       ??_C@_1CO@FCNFCPHM@?$AAP?$AAR?$AAC?$AAM?$AA_?$AAv?$AAd?$AAd?$AA4?$AA_?$AAd?$AAo?$AAm?$AAa?$AAi?$AAn?$AA_?$AAi?$AAs?$AA_?$AAo?$AAn?$AA?$AA@ 10003e24     shell.obj
 0001:00002e54       ??_C@_1CO@HIEHNJMF@?$AAP?$AAR?$AAC?$AAM?$AA_?$AAe?$AAm?$AAu?$AA_?$AAd?$AAo?$AAm?$AAa?$AAi?$AAn?$AA_?$AAi?$AAs?$AA_?$AAo?$AAf?$AAf?$AA?$AA@ 10003e54     shell.obj
 0001:00002e84       ??_C@_1CO@JPDGEAFE@?$AAP?$AAR?$AAC?$AAM?$AA_?$AAv?$AAd?$AAd?$AA1?$AA_?$AAd?$AAo?$AAm?$AAa?$AAi?$AAn?$AA_?$AAi?$AAs?$AA_?$AAo?$AAn?$AA?$AA@ 10003e84     shell.obj
 0001:00002eb4       ??_C@_1CO@GLHIDANA@?$AAP?$AAR?$AAC?$AAM?$AA_?$AAN?$AAE?$AAO?$AAN?$AA_?$AAd?$AAo?$AAm?$AAa?$AAi?$AAn?$AAW?$AAa?$AAk?$AAe?$AAu?$AAp?$AA?$AA@ 10003eb4     shell.obj
 0001:00002ee4       ??_C@_1BO@PMELKLHD@?$AAP?$AAR?$AAC?$AAM?$AA_?$AAS?$AAY?$AAN?$AAC?$AAT?$AA_?$AAR?$AAS?$AAT?$AA?$AA@ 10003ee4     shell.obj
 0001:00002f04       ??_C@_1BK@OALDMKIE@?$AAP?$AAR?$AAC?$AAM?$AA_?$AAP?$AAE?$AAR?$AA_?$AAR?$AAS?$AAT?$AA?$AA@ 10003f04     shell.obj
 0001:00002f20       ??_C@_1BK@JJFHANMN@?$AAP?$AAR?$AAC?$AAM?$AA_?$AAM?$AAP?$AAU?$AA_?$AAR?$AAS?$AAT?$AA?$AA@ 10003f20     shell.obj
 0001:00002f3c       ??_C@_1CM@DHEJCCJC@?$AAP?$AAR?$AAC?$AAM?$AA_?$AAD?$AAP?$AAL?$AAL?$AA5?$AA_?$AAA?$AAL?$AAW?$AAO?$AAN?$AA_?$AAF?$AAC?$AAL?$AAK?$AA?$AA@ 10003f3c     shell.obj
 0001:00002f68       ??_C@_1CG@OMFPDFHK@?$AAP?$AAR?$AAC?$AAM?$AA_?$AAG?$AAP?$AAI?$AAO?$AA2?$AA_?$AAS?$AAW?$AAA?$AAK?$AAE?$AAU?$AAP?$AA?$AA@ 10003f68     shell.obj
 0001:00002f90       ??_C@_1CK@OLMMIPAH@?$AAP?$AAR?$AAC?$AAM?$AA_?$AAF?$AAO?$AAR?$AAC?$AAE?$AAA?$AAC?$AAT?$AAI?$AAV?$AAE?$AAC?$AAO?$AAR?$AAE?$AA?$AA@ 10003f90     shell.obj
 0001:00002fbc       ??_C@_1CG@PPNAABIN@?$AAP?$AAR?$AAC?$AAM?$AA_?$AAP?$AAE?$AAR?$AA_?$AAP?$AAO?$AAW?$AAE?$AAR?$AA_?$AAR?$AAE?$AAT?$AA?$AA@ 10003fbc     shell.obj
 0001:00002fe4       ??_C@_1CM@NCMFNMOD@?$AAP?$AAR?$AAC?$AAM?$AA_?$AAD?$AAP?$AAL?$AAL?$AA1?$AA_?$AAP?$AAO?$AAW?$AAE?$AAR?$AA_?$AAG?$AAO?$AAO?$AAD?$AA?$AA@ 10003fe4     shell.obj
 0001:00003010       ??_C@_1DC@PLNLAODF@?$AAP?$AAR?$AAC?$AAM?$AA_?$AAC?$AAA?$AAM?$AA_?$AAP?$AAO?$AAW?$AAE?$AAR?$AA_?$AAG?$AAO?$AAO?$AAD?$AA_?$AAM?$AAU?$AAX?$AA4?$AA?$AA@ 10004010     shell.obj
 0001:00003044       ??_C@_1CG@CIGGMHAB@?$AAP?$AAR?$AAC?$AAM?$AA_?$AAS?$AAG?$AAX?$AA_?$AAS?$AAR?$AAA?$AAM?$AAA?$AAO?$AAN?$AAI?$AAN?$AA?$AA@ 10004044     shell.obj
 0001:0000306c       ??_C@_1DG@FGLIOMPH@?$AAP?$AAR?$AAC?$AAM?$AA_?$AAC?$AAO?$AAR?$AAE?$AA_?$AAS?$AAR?$AAA?$AAM?$AAR?$AAE?$AAT?$AAO?$AAN?$AAI?$AAN?$AA_?$AAM?$AAU?$AAX?$AA4?$AA?$AA@ 1000406c     shell.obj
 0001:000030a4       ??_C@_1DE@PBECHDNH@?$AAP?$AAR?$AAC?$AAM?$AA_?$AAC?$AAO?$AAR?$AAE?$AA_?$AAP?$AAO?$AAW?$AAE?$AAR?$AA_?$AAG?$AAO?$AAO?$AAD?$AA_?$AAM?$AAU?$AAX?$AA4?$AA?$AA@ 100040a4     shell.obj
 0001:000030d8       ??_C@_1DI@EEFMELDB@?$AAP?$AAR?$AAC?$AAM?$AA_?$AAI?$AAV?$AAA?$AA2?$AA_?$AAS?$AAR?$AAA?$AAM?$AAA?$AAG?$AAO?$AAO?$AAD?$AAO?$AAU?$AAT?$AA_?$AAM?$AAU?$AAX?$AA4?$AA?$AA@ 100040d8     shell.obj
 0001:00003110       ??_C@_1DE@DENIMAJC@?$AAP?$AAR?$AAC?$AAM?$AA_?$AAM?$AAP?$AAU?$AA_?$AAS?$AAR?$AAA?$AAM?$AAR?$AAE?$AAT?$AAO?$AAN?$AAI?$AAN?$AA_?$AAM?$AAU?$AAX?$AA4?$AA?$AA@ 10004110     shell.obj
 0001:00003144       ??_C@_1DK@EMHNHPKE@?$AAP?$AAR?$AAC?$AAM?$AA_?$AAv?$AAd?$AAd?$AA1?$AA_?$AAd?$AAo?$AAm?$AAa?$AAi?$AAn?$AA_?$AAg?$AAo?$AA_?$AAo?$AAf?$AAf?$AA_?$AAm?$AAo?$AAd?$AAe?$AA?$AA@ 10004144     shell.obj
 0001:00003180       ??_C@_1CG@FMODDPHJ@?$AAP?$AAR?$AAC?$AAM?$AA_?$AAS?$AAY?$AAS?$AA_?$AAC?$AAL?$AAK?$AAR?$AAE?$AAQ?$AA_?$AAi?$AAn?$AA?$AA@ 10004180     shell.obj
 0001:000031a8       ??_C@_1CO@GELJOLFH@?$AAP?$AAR?$AAC?$AAM?$AA_?$AAm?$AAp?$AAu?$AA_?$AAd?$AAo?$AAm?$AAa?$AAi?$AAn?$AA_?$AAi?$AAs?$AA_?$AAo?$AAf?$AAf?$AA?$AA@ 100041a8     shell.obj
 0001:000031d8       ??_C@_1DK@DJENHBLD@?$AAP?$AAR?$AAC?$AAM?$AA_?$AAm?$AAp?$AAu?$AA_?$AAd?$AAo?$AAm?$AAa?$AAi?$AAn?$AA_?$AAi?$AAs?$AA_?$AAr?$AAe?$AAt?$AAe?$AAn?$AAt?$AAi?$AAo?$AAn?$AA?$AA@ 100041d8     shell.obj
 0001:00003214       ??_C@_1DI@PDAAGHBA@?$AAP?$AAR?$AAC?$AAM?$AA_?$AAm?$AAp?$AAu?$AA_?$AAd?$AAo?$AAm?$AAa?$AAi?$AAn?$AA_?$AAi?$AAs?$AA_?$AAi?$AAn?$AAa?$AAc?$AAt?$AAi?$AAv?$AAe?$AA?$AA@ 10004214     shell.obj
 0001:0000324c       ??_C@_1CI@DIJAJNJP@?$AAP?$AAR?$AAC?$AAM?$AA_?$AAM?$AAP?$AAU?$AA_?$AAd?$AAo?$AAm?$AAa?$AAi?$AAn?$AAI?$AAs?$AAO?$AAn?$AA?$AA@ 1000424c     shell.obj
 0001:00003274       ??_C@_1CG@IOHNIOCH@?$AAP?$AAR?$AAC?$AAM?$AA_?$AAS?$AAE?$AAC?$AAU?$AAR?$AAE?$AA_?$AAW?$AAD?$AA_?$AAR?$AAS?$AAT?$AA?$AA@ 10004274     shell.obj
 0001:0000329c       ??_C@_1BK@EIHMLNHO@?$AAP?$AAR?$AAC?$AAM?$AA_?$AAC?$AAA?$AAM?$AA_?$AAR?$AAS?$AAT?$AA?$AA@ 1000429c     shell.obj
 0001:000032b8       ??_C@_1CK@CJLIEDNO@?$AAP?$AAR?$AAC?$AAM?$AA_?$AAG?$AAP?$AAT?$AA9?$AA_?$AAA?$AAL?$AAW?$AAO?$AAN?$AA_?$AAF?$AAC?$AAL?$AAK?$AA?$AA@ 100042b8     shell.obj
 0001:000032e4       ??_C@_1CM@NAFEIEAF@?$AAP?$AAR?$AAC?$AAM?$AA_?$AAD?$AAP?$AAL?$AAL?$AA4?$AA_?$AAA?$AAL?$AAW?$AAO?$AAN?$AA_?$AAF?$AAC?$AAL?$AAK?$AA?$AA@ 100042e4     shell.obj
 0001:00003310       ??_C@_1CK@DODOMONM@?$AAP?$AAR?$AAC?$AAM?$AA_?$AAU?$AAS?$AAB?$AAH?$AAO?$AAS?$AAT?$AA_?$AAS?$AAW?$AAA?$AAK?$AAE?$AAU?$AAP?$AA?$AA@ 10004310     shell.obj
 0001:0000333c       ??_C@_1CK@DLABDHHK@?$AAP?$AAR?$AAC?$AAM?$AA_?$AAF?$AAO?$AAR?$AAC?$AAE?$AAA?$AAC?$AAT?$AAI?$AAV?$AAE?$AAW?$AAK?$AAU?$AAP?$AA?$AA@ 1000433c     shell.obj
 0001:00003368       ??_C@_1DC@COLGIIKK@?$AAP?$AAR?$AAC?$AAM?$AA_?$AAP?$AAE?$AAR?$AA_?$AAP?$AAO?$AAW?$AAE?$AAR?$AA_?$AAG?$AAO?$AAO?$AAD?$AA_?$AAM?$AAU?$AAX?$AA3?$AA?$AA@ 10004368     shell.obj
 0001:0000339c       ??_C@_1CK@HLMEPMOB@?$AAP?$AAR?$AAC?$AAM?$AA_?$AAD?$AAP?$AAL?$AAL?$AA1?$AA_?$AAP?$AAO?$AAW?$AAE?$AAR?$AA_?$AAI?$AAS?$AAO?$AA?$AA@ 1000439c     shell.obj
 0001:000033c8       ??_C@_1DC@GGAMDGIM@?$AAP?$AAR?$AAC?$AAM?$AA_?$AAC?$AAA?$AAM?$AA_?$AAP?$AAO?$AAW?$AAE?$AAR?$AA_?$AAG?$AAO?$AAO?$AAD?$AA_?$AAM?$AAU?$AAX?$AA3?$AA?$AA@ 100043c8     shell.obj
 0001:000033fc       ??_C@_1DC@EFFKNLOC@?$AAP?$AAR?$AAC?$AAM?$AA_?$AAS?$AAG?$AAX?$AA_?$AAP?$AAO?$AAW?$AAE?$AAR?$AA_?$AAG?$AAO?$AAO?$AAD?$AA_?$AAM?$AAU?$AAX?$AA3?$AA?$AA@ 100043fc     shell.obj
 0001:00003430       ??_C@_1DG@MLGPNEEO@?$AAP?$AAR?$AAC?$AAM?$AA_?$AAC?$AAO?$AAR?$AAE?$AA_?$AAS?$AAR?$AAA?$AAM?$AAR?$AAE?$AAT?$AAO?$AAN?$AAI?$AAN?$AA_?$AAM?$AAU?$AAX?$AA3?$AA?$AA@ 10004430     shell.obj
 0001:00003468       ??_C@_1DE@GMJFELGO@?$AAP?$AAR?$AAC?$AAM?$AA_?$AAC?$AAO?$AAR?$AAE?$AA_?$AAP?$AAO?$AAW?$AAE?$AAR?$AA_?$AAG?$AAO?$AAO?$AAD?$AA_?$AAM?$AAU?$AAX?$AA3?$AA?$AA@ 10004468     shell.obj
 0001:0000349c       ??_C@_1DI@NJILHDII@?$AAP?$AAR?$AAC?$AAM?$AA_?$AAI?$AAV?$AAA?$AA2?$AA_?$AAS?$AAR?$AAA?$AAM?$AAA?$AAG?$AAO?$AAO?$AAD?$AAO?$AAU?$AAT?$AA_?$AAM?$AAU?$AAX?$AA3?$AA?$AA@ 1000449c     shell.obj
 0001:000034d4       ??_C@_1DE@KJAPPICL@?$AAP?$AAR?$AAC?$AAM?$AA_?$AAM?$AAP?$AAU?$AA_?$AAS?$AAR?$AAA?$AAM?$AAR?$AAE?$AAT?$AAO?$AAN?$AAI?$AAN?$AA_?$AAM?$AAU?$AAX?$AA3?$AA?$AA@ 100044d4     shell.obj
 0001:00003508       ??_C@_1CI@DLIHPHF@?$AAP?$AAR?$AAC?$AAM?$AA_?$AAS?$AAY?$AAS?$AA_?$AAC?$AAL?$AAK?$AAR?$AAE?$AAQ?$AA_?$AAo?$AAu?$AAt?$AA?$AA@ 10004508     shell.obj
 0001:00003530       ??_C@_1CO@ONMFDHEO@?$AAP?$AAR?$AAC?$AAM?$AA_?$AAv?$AAd?$AAd?$AA2?$AA_?$AAd?$AAo?$AAm?$AAa?$AAi?$AAn?$AA_?$AAi?$AAs?$AA_?$AAl?$AAp?$AA?$AA@ 10004530     shell.obj
 0001:00003560       ??_C@_1CI@BBHELDMP@?$AAP?$AAR?$AAC?$AAM?$AA_?$AAE?$AAM?$AAU?$AA_?$AAd?$AAo?$AAm?$AAa?$AAi?$AAn?$AAI?$AAs?$AAO?$AAn?$AA?$AA@ 10004560     shell.obj
 0001:00003588       ??_C@_1DK@JNLDBNOB@?$AAP?$AAR?$AAC?$AAM?$AA_?$AAe?$AAf?$AAu?$AAs?$AAe?$AAC?$AAl?$AAk?$AA_?$AAi?$AAs?$AA_?$AAn?$AAo?$AAt?$AA_?$AAr?$AAu?$AAn?$AAn?$AAi?$AAn?$AAg?$AA?$AA@ 10004588     shell.obj
 0001:000035c4       ??_C@_1CM@CPKNHBEI@?$AAP?$AAR?$AAC?$AAM?$AA_?$AAM?$AAP?$AAU?$AA_?$AAd?$AAo?$AAm?$AAa?$AAi?$AAn?$AAW?$AAa?$AAk?$AAe?$AAu?$AAp?$AA?$AA@ 100045c4     shell.obj
 0001:000035f0       ??_C@_1CA@CMELPKEB@?$AAP?$AAR?$AAC?$AAM?$AA_?$AAM?$AAP?$AAU?$AA_?$AAW?$AAD?$AA_?$AAR?$AAS?$AAT?$AA?$AA@ 100045f0     shell.obj
 0001:00003610       ??_C@_1CK@MOKFOFEJ@?$AAP?$AAR?$AAC?$AAM?$AA_?$AAG?$AAP?$AAT?$AA8?$AA_?$AAA?$AAL?$AAW?$AAO?$AAN?$AA_?$AAF?$AAC?$AAL?$AAK?$AA?$AA@ 10004610     shell.obj
 0001:0000363c       ??_C@_1CM@IJHPPCD@?$AAP?$AAR?$AAC?$AAM?$AA_?$AAD?$AAP?$AAL?$AAL?$AA3?$AA_?$AAA?$AAL?$AAW?$AAO?$AAN?$AA_?$AAF?$AAC?$AAL?$AAK?$AA?$AA@ 1000463c     shell.obj
 0001:00003668       ??_C@_1CC@BAIMAFFK@?$AAP?$AAR?$AAC?$AAM?$AA_?$AAD?$AAS?$AAS?$AA_?$AAS?$AAW?$AAA?$AAK?$AAE?$AAU?$AAP?$AA?$AA@ 10004668     shell.obj
 0001:0000368c       ??_C@_1DA@HGHFBFNF@?$AAP?$AAR?$AAC?$AAM?$AA_?$AAE?$AAM?$AAU?$AA_?$AAb?$AAl?$AAo?$AAc?$AAk?$AA_?$AAr?$AAe?$AAs?$AAe?$AAt?$AA_?$AAc?$AAm?$AA?$AA@ 1000468c     shell.obj
 0001:000036bc       ??_C@_1DC@JGAKOPMP@?$AAP?$AAR?$AAC?$AAM?$AA_?$AAP?$AAE?$AAR?$AA_?$AAP?$AAO?$AAW?$AAE?$AAR?$AA_?$AAG?$AAO?$AAO?$AAD?$AA_?$AAM?$AAU?$AAX?$AA2?$AA?$AA@ 100046bc     shell.obj
 0001:000036f0       ??_C@_1CI@LOCHGJFH@?$AAP?$AAR?$AAC?$AAM?$AA_?$AAD?$AAP?$AAL?$AAL?$AA1?$AA_?$AAP?$AAO?$AAW?$AAE?$AAR?$AA_?$AAO?$AAN?$AA?$AA@ 100046f0     shell.obj
 0001:00003718       ??_C@_1DC@NOLAFBOJ@?$AAP?$AAR?$AAC?$AAM?$AA_?$AAC?$AAA?$AAM?$AA_?$AAP?$AAO?$AAW?$AAE?$AAR?$AA_?$AAG?$AAO?$AAO?$AAD?$AA_?$AAM?$AAU?$AAX?$AA2?$AA?$AA@ 10004718     shell.obj
 0001:0000374c       ??_C@_1DC@PNOGLMIH@?$AAP?$AAR?$AAC?$AAM?$AA_?$AAS?$AAG?$AAX?$AA_?$AAP?$AAO?$AAW?$AAE?$AAR?$AA_?$AAG?$AAO?$AAO?$AAD?$AA_?$AAM?$AAU?$AAX?$AA2?$AA?$AA@ 1000474c     shell.obj
 0001:00003780       ??_C@_1DG@HDNDLDCL@?$AAP?$AAR?$AAC?$AAM?$AA_?$AAC?$AAO?$AAR?$AAE?$AA_?$AAS?$AAR?$AAA?$AAM?$AAR?$AAE?$AAT?$AAO?$AAN?$AAI?$AAN?$AA_?$AAM?$AAU?$AAX?$AA2?$AA?$AA@ 10004780     shell.obj
 0001:000037b8       ??_C@_1DK@MLDHCDKJ@?$AAP?$AAR?$AAC?$AAM?$AA_?$AAC?$AAO?$AAR?$AAE?$AA_?$AAP?$AAO?$AAW?$AAE?$AAR?$AA_?$AAG?$AAO?$AAO?$AAD?$AAO?$AAU?$AAT?$AA_?$AAM?$AAU?$AAX?$AA2?$AA?$AA@ 100047b8     shell.obj
 0001:000037f4       ??_C@_1DI@GBDHBEON@?$AAP?$AAR?$AAC?$AAM?$AA_?$AAI?$AAV?$AAA?$AA2?$AA_?$AAS?$AAR?$AAA?$AAM?$AAA?$AAG?$AAO?$AAO?$AAD?$AAO?$AAU?$AAT?$AA_?$AAM?$AAU?$AAX?$AA2?$AA?$AA@ 100047f4     shell.obj
 0001:0000382c       ??_C@_1DG@OBEGADBD@?$AAP?$AAR?$AAC?$AAM?$AA_?$AAM?$AAP?$AAU?$AA_?$AAS?$AAR?$AAA?$AAM?$AAA?$AAG?$AAO?$AAO?$AAD?$AAO?$AAU?$AAT?$AA_?$AAM?$AAU?$AAX?$AA2?$AA?$AA@ 1000482c     shell.obj
 0001:00003864       ??_C@_1DE@BHNHOBCC@?$AAP?$AAR?$AAC?$AAM?$AA_?$AAC?$AAo?$AAn?$AAt?$AAr?$AAo?$AAl?$AA_?$AAr?$AAe?$AAs?$AAt?$AAo?$AAr?$AAe?$AA_?$AAd?$AAo?$AAn?$AAe?$AA?$AA@ 10004864     shell.obj
 0001:00003898       ??_C@_1DE@COOJNBAM@?$AAP?$AAR?$AAC?$AAM?$AA_?$AAv?$AAd?$AAd?$AA2?$AA_?$AAd?$AAo?$AAm?$AAa?$AAi?$AAn?$AA_?$AAi?$AAs?$AA_?$AAs?$AAl?$AAe?$AAe?$AAp?$AA?$AA@ 10004898     shell.obj
 0001:000038cc       ??_C@_1CM@KONDLLIE@?$AAP?$AAR?$AAC?$AAM?$AA_?$AAE?$AAM?$AAU?$AA_?$AAd?$AAo?$AAm?$AAa?$AAi?$AAn?$AAW?$AAa?$AAk?$AAe?$AAu?$AAp?$AA?$AA@ 100048cc     shell.obj
 0001:000038f8       ??_C@_1CI@GMDFJDKH@?$AAP?$AAR?$AAC?$AAM?$AA_?$AAC?$AAA?$AAM?$AA_?$AAd?$AAo?$AAm?$AAa?$AAi?$AAn?$AAI?$AAs?$AAO?$AAn?$AA?$AA@ 100048f8     shell.obj
 0001:00003920       ??_C@_1CO@CCKALPKN@?$AAP?$AAR?$AAC?$AAM?$AA_?$AAc?$AAa?$AAm?$AA_?$AAd?$AAo?$AAm?$AAa?$AAi?$AAn?$AA_?$AAi?$AAs?$AA_?$AAo?$AAf?$AAf?$AA?$AA@ 10004920     shell.obj
 0001:00003950       ??_C@_1CM@MHIMDDGN@?$AAP?$AAR?$AAC?$AAM?$AA_?$AAB?$AAA?$AAN?$AAD?$AAG?$AAA?$AAP?$AA_?$AAR?$AAS?$AAT?$AAP?$AAW?$AAR?$AAO?$AAN?$AA?$AA@ 10004950     shell.obj
 0001:0000397c       ??_C@_1CK@EDEPLDND@?$AAP?$AAR?$AAC?$AAM?$AA_?$AAG?$AAP?$AAT?$AA7?$AA_?$AAA?$AAL?$AAW?$AAO?$AAN?$AA_?$AAF?$AAC?$AAL?$AAK?$AA?$AA@ 1000497c     shell.obj
 0001:000039a8       ??_C@_1CM@OPIKFJLE@?$AAP?$AAR?$AAC?$AAM?$AA_?$AAD?$AAP?$AAL?$AAL?$AA2?$AA_?$AAA?$AAL?$AAW?$AAO?$AAN?$AA_?$AAF?$AAC?$AAL?$AAK?$AA?$AA@ 100049a8     shell.obj
 0001:000039d4       ??_C@_1DA@OBHLONNA@?$AAP?$AAR?$AAC?$AAM?$AA_?$AAI?$AAV?$AAA?$AA2?$AA_?$AAW?$AAU?$AAG?$AAE?$AAN?$AA_?$AAS?$AAW?$AAA?$AAK?$AAE?$AAU?$AAP?$AA?$AA@ 100049d4     shell.obj
 0001:00003a08       ??_C@_1EA@DIJJLLJE@?$AAP?$AAR?$AAC?$AAM?$AA_?$AAe?$AAm?$AAu?$AAd?$AAp?$AAl?$AAl?$AA3?$AAs?$AAr?$AAc?$AAc?$AAl?$AAk?$AAa?$AAc?$AAt?$AAi?$AAv?$AAi?$AAt?$AAy?$AAc?$AAt?$AAr?$AAl?$AA?$AA@ 10004a08     shell.obj
 0001:00003a48       ??_C@_1DC@IELPEACB@?$AAP?$AAR?$AAC?$AAM?$AA_?$AAP?$AAE?$AAR?$AA_?$AAP?$AAO?$AAW?$AAE?$AAR?$AA_?$AAG?$AAO?$AAO?$AAD?$AA_?$AAM?$AAU?$AAX?$AA1?$AA?$AA@ 10004a48     shell.obj
 0001:00003a7c       ??_C@_1CG@BCJCMNMC@?$AAP?$AAR?$AAC?$AAM?$AA_?$AAS?$AAR?$AA_?$AAP?$AAO?$AAW?$AAE?$AAR?$AA_?$AAG?$AAO?$AAO?$AAD?$AA?$AA@ 10004a7c     shell.obj
 0001:00003aa4       ??_C@_1CG@CDPNCJDF@?$AAP?$AAR?$AAC?$AAM?$AA_?$AAC?$AAA?$AAM?$AA_?$AAP?$AAO?$AAW?$AAE?$AAR?$AA_?$AAI?$AAS?$AAO?$AA?$AA@ 10004aa4     shell.obj
 0001:00003acc       ??_C@_1DC@OPFDBDGJ@?$AAP?$AAR?$AAC?$AAM?$AA_?$AAS?$AAG?$AAX?$AA_?$AAP?$AAO?$AAW?$AAE?$AAR?$AA_?$AAG?$AAO?$AAO?$AAD?$AA_?$AAM?$AAU?$AAX?$AA1?$AA?$AA@ 10004acc     shell.obj
 0001:00003b00       ??_C@_1DG@GBGGBMMF@?$AAP?$AAR?$AAC?$AAM?$AA_?$AAC?$AAO?$AAR?$AAE?$AA_?$AAS?$AAR?$AAA?$AAM?$AAR?$AAE?$AAT?$AAO?$AAN?$AAI?$AAN?$AA_?$AAM?$AAU?$AAX?$AA1?$AA?$AA@ 10004b00     shell.obj
 0001:00003b38       ??_C@_1DE@MGJMIDOF@?$AAP?$AAR?$AAC?$AAM?$AA_?$AAC?$AAO?$AAR?$AAE?$AA_?$AAP?$AAO?$AAW?$AAE?$AAR?$AA_?$AAG?$AAO?$AAO?$AAD?$AA_?$AAM?$AAU?$AAX?$AA1?$AA?$AA@ 10004b38     shell.obj
 0001:00003b6c       ??_C@_1DC@IOLCPDFG@?$AAP?$AAR?$AAC?$AAM?$AA_?$AAI?$AAV?$AAA?$AA2?$AA_?$AAS?$AAR?$AAA?$AAM?$AAA?$AAO?$AAN?$AAI?$AAN?$AA_?$AAM?$AAU?$AAX?$AA1?$AA?$AA@ 10004b6c     shell.obj
 0001:00003ba0       ??_C@_1DG@PDPDKMPN@?$AAP?$AAR?$AAC?$AAM?$AA_?$AAM?$AAP?$AAU?$AA_?$AAS?$AAR?$AAA?$AAM?$AAA?$AAG?$AAO?$AAO?$AAD?$AAO?$AAU?$AAT?$AA_?$AAM?$AAU?$AAX?$AA1?$AA?$AA@ 10004ba0     shell.obj
 0001:00003bd8       ??_C@_1CE@IDLABAFN@?$AAP?$AAR?$AAC?$AAM?$AA_?$AAd?$AAe?$AAv?$AAi?$AAc?$AAe?$AA_?$AAi?$AAs?$AA_?$AAl?$AAp?$AA?$AA@ 10004bd8     shell.obj
 0001:00003bfc       ??_C@_1DG@IPMNDOPL@?$AAP?$AAR?$AAC?$AAM?$AA_?$AAC?$AAo?$AAn?$AAt?$AAr?$AAo?$AAl?$AA_?$AAs?$AAt?$AAa?$AAr?$AAt?$AA_?$AAr?$AAe?$AAs?$AAt?$AAo?$AAr?$AAe?$AA?$AA@ 10004bfc     shell.obj
 0001:00003c34       ??_C@_1DK@CJKDAJMP@?$AAP?$AAR?$AAC?$AAM?$AA_?$AAc?$AAa?$AAm?$AA_?$AAd?$AAo?$AAm?$AAa?$AAi?$AAn?$AA_?$AAi?$AAs?$AA_?$AAr?$AAe?$AAt?$AAe?$AAn?$AAt?$AAi?$AAo?$AAn?$AA?$AA@ 10004c34     shell.obj
 0001:00003c70       ??_C@_1DI@JPPPABHJ@?$AAP?$AAR?$AAC?$AAM?$AA_?$AAc?$AAa?$AAm?$AA_?$AAd?$AAo?$AAm?$AAa?$AAi?$AAn?$AA_?$AAi?$AAs?$AA_?$AAi?$AAn?$AAa?$AAc?$AAt?$AAi?$AAv?$AAe?$AA?$AA@ 10004c70     shell.obj
 0001:00003ca8       ??_C@_1CM@KPNKFBEN@?$AAP?$AAR?$AAC?$AAM?$AA_?$AAC?$AAA?$AAM?$AA_?$AAd?$AAo?$AAm?$AAa?$AAi?$AAn?$AAW?$AAa?$AAk?$AAe?$AAu?$AAp?$AA?$AA@ 10004ca8     shell.obj
 0001:00003cd4       ??_C@_1CE@PJPNAKOO@?$AAP?$AAR?$AAC?$AAM?$AA_?$AAe?$AAF?$AAu?$AAs?$AAe?$AAR?$AAe?$AAa?$AAd?$AAy?$AA_?$AAn?$AA?$AA@ 10004cd4     shell.obj
 0001:00003cf8       ??_C@_1CM@JGPDKBGN@?$AAP?$AAR?$AAC?$AAM?$AA_?$AAI?$AAC?$AAE?$AAP?$AAI?$AAC?$AAK?$AA_?$AAR?$AAS?$AAT?$AAP?$AAW?$AAR?$AAO?$AAN?$AA?$AA@ 10004cf8     shell.obj
 0001:00003d24       ??_C@_1BK@NHHAIDCI@?$AAP?$AAR?$AAC?$AAM?$AA_?$AAD?$AAS?$AAS?$AA_?$AAR?$AAS?$AAT?$AA?$AA@ 10004d24     shell.obj
 0001:00003d40       ??_C@_1CK@KEFCBFEE@?$AAP?$AAR?$AAC?$AAM?$AA_?$AAG?$AAP?$AAT?$AA6?$AA_?$AAA?$AAL?$AAW?$AAO?$AAN?$AA_?$AAF?$AAC?$AAL?$AAK?$AA?$AA@ 10004d40     shell.obj
 0001:00003d6c       ??_C@_1CM@BNNNLEEM@?$AAP?$AAR?$AAC?$AAM?$AA_?$AAD?$AAP?$AAL?$AAL?$AA1?$AA_?$AAA?$AAL?$AAW?$AAO?$AAN?$AA_?$AAF?$AAC?$AAL?$AAK?$AA?$AA@ 10004d6c     shell.obj
 0001:00003d98       ??_C@_1CM@JEFFLEPF@?$AAP?$AAR?$AAC?$AAM?$AA_?$AAM?$AAP?$AAU?$AA_?$AAI?$AAN?$AAT?$AAC?$AA_?$AAS?$AAW?$AAA?$AAK?$AAE?$AAU?$AAP?$AA?$AA@ 10004d98     shell.obj
 0001:00003dc4       ??_C@_1BI@FBNDDKEI@?$AAf?$AAo?$AAr?$AAc?$AAe?$AAe?$AAn?$AAu?$AAm?$AAo?$AAn?$AA?$AA@ 10004dc4     shell.obj
 0001:00003ddc       ??_C@_1DC@DMADCHEE@?$AAP?$AAR?$AAC?$AAM?$AA_?$AAP?$AAE?$AAR?$AA_?$AAP?$AAO?$AAW?$AAE?$AAR?$AA_?$AAG?$AAO?$AAO?$AAD?$AA_?$AAM?$AAU?$AAX?$AA0?$AA?$AA@ 10004ddc     shell.obj
 0001:00003e10       ??_C@_1CE@LOMLKDGB@?$AAP?$AAR?$AAC?$AAM?$AA_?$AAS?$AAR?$AA_?$AAP?$AAO?$AAW?$AAE?$AAR?$AA_?$AAI?$AAS?$AAO?$AA?$AA@ 10004e10     shell.obj
 0001:00003e34       ??_C@_1CE@PJOCGOGG@?$AAP?$AAR?$AAC?$AAM?$AA_?$AAC?$AAA?$AAM?$AA_?$AAP?$AAO?$AAW?$AAE?$AAR?$AA_?$AAO?$AAN?$AA?$AA@ 10004e34     shell.obj
 0001:00003e58       ??_C@_1DC@FHOPHEAM@?$AAP?$AAR?$AAC?$AAM?$AA_?$AAS?$AAG?$AAX?$AA_?$AAP?$AAO?$AAW?$AAE?$AAR?$AA_?$AAG?$AAO?$AAO?$AAD?$AA_?$AAM?$AAU?$AAX?$AA0?$AA?$AA@ 10004e58     shell.obj
 0001:00003e8c       ??_C@_1DG@NJNKHLKA@?$AAP?$AAR?$AAC?$AAM?$AA_?$AAC?$AAO?$AAR?$AAE?$AA_?$AAS?$AAR?$AAA?$AAM?$AAR?$AAE?$AAT?$AAO?$AAN?$AAI?$AAN?$AA_?$AAM?$AAU?$AAX?$AA0?$AA?$AA@ 10004e8c     shell.obj
 0001:00003ec4       ??_C@_1CI@EOLLPGMH@?$AAP?$AAR?$AAC?$AAM?$AA_?$AAC?$AAO?$AAR?$AAE?$AA_?$AAP?$AAO?$AAW?$AAE?$AAR?$AA_?$AAI?$AAS?$AAO?$AA?$AA@ 10004ec4     shell.obj
 0001:00003eec       ??_C@_1DC@DGAOJEDD@?$AAP?$AAR?$AAC?$AAM?$AA_?$AAI?$AAV?$AAA?$AA2?$AA_?$AAS?$AAR?$AAA?$AAM?$AAA?$AAO?$AAN?$AAI?$AAN?$AA_?$AAM?$AAU?$AAX?$AA0?$AA?$AA@ 10004eec     shell.obj
 0001:00003f20       ??_C@_1DA@JMDDMPJD@?$AAP?$AAR?$AAC?$AAM?$AA_?$AAM?$AAP?$AAU?$AA_?$AAS?$AAR?$AAA?$AAM?$AAA?$AAO?$AAN?$AAI?$AAN?$AA_?$AAM?$AAU?$AAX?$AA0?$AA?$AA@ 10004f20     shell.obj
 0001:00003f50       ??_C@_1CE@LFOCECFP@?$AAP?$AAR?$AAC?$AAM?$AA_?$AAd?$AAe?$AAv?$AAi?$AAc?$AAe?$AA_?$AAi?$AAs?$AA_?$AAo?$AAn?$AA?$AA@ 10004f50     shell.obj
 0001:00003f74       ??_C@_1CO@GOLFMMHE@?$AAP?$AAR?$AAC?$AAM?$AA_?$AAv?$AAd?$AAd?$AA5?$AA_?$AAd?$AAo?$AAm?$AAa?$AAi?$AAn?$AA_?$AAi?$AAs?$AA_?$AAo?$AAn?$AA?$AA@ 10004f74     shell.obj
 0001:00003fa4       ??_C@_1DA@IDAKNLL@?$AAP?$AAR?$AAC?$AAM?$AA_?$AAv?$AAd?$AAd?$AA2?$AA_?$AAd?$AAo?$AAm?$AAa?$AAi?$AAn?$AA_?$AAi?$AAs?$AA_?$AAr?$AAe?$AAt?$AA?$AA@ 10004fa4     shell.obj
 0001:00003fd4       ??_C@_1CO@EMNHGBOJ@?$AAP?$AAR?$AAC?$AAM?$AA_?$AAW?$AAK?$AAU?$AAP?$AA_?$AAd?$AAo?$AAm?$AAa?$AAi?$AAn?$AAW?$AAa?$AAk?$AAe?$AAu?$AAp?$AA?$AA@ 10004fd4     shell.obj
 0001:00004004       ??_C@_1CO@GKHNPBCM@?$AAP?$AAR?$AAC?$AAM?$AA_?$AAC?$AAO?$AAR?$AAE?$AAC?$AAM?$AA_?$AAd?$AAo?$AAm?$AAa?$AAi?$AAn?$AAI?$AAs?$AAO?$AAn?$AA?$AA@ 10005004     shell.obj
 0001:00004034       ??_C@_1CC@GJPMEMBE@?$AAP?$AAR?$AAC?$AAM?$AA_?$AAU?$AAS?$AAB?$AAH?$AAO?$AAS?$AAT?$AA_?$AAR?$AAS?$AAT?$AA?$AA@ 10005034     shell.obj
 0001:00004058       ??_C@_1BK@MCCCFCLK@?$AAP?$AAR?$AAC?$AAM?$AA_?$AAS?$AAG?$AAX?$AA_?$AAR?$AAS?$AAT?$AA?$AA@ 10005058     shell.obj
 0001:00004074       ??_C@_1CK@FGAFPILM@?$AAP?$AAR?$AAC?$AAM?$AA_?$AAG?$AAP?$AAT?$AA5?$AA_?$AAA?$AAL?$AAW?$AAO?$AAN?$AA_?$AAF?$AAC?$AAL?$AAK?$AA?$AA@ 10005074     shell.obj
 0001:000040a0       ??_C@_1BK@FEHCFJGK@?$AAP?$AAR?$AAC?$AAM?$AA_?$AAS?$AAY?$AAS?$AA_?$AAC?$AAL?$AAK?$AA?$AA@ 100050a0     shell.obj
 0001:000040bc       ??_C@_1CI@GKJFPFJE@?$AAP?$AAR?$AAC?$AAM?$AA_?$AAD?$AAP?$AAL?$AAL?$AA4?$AA_?$AAM?$AA5?$AAX?$AA2?$AA_?$AAC?$AAL?$AAK?$AA?$AA@ 100050bc     shell.obj
 0001:000040e4       ??_C@_1CM@MDHAJJGA@?$AAP?$AAR?$AAC?$AAM?$AA_?$AAS?$AAT?$AAA?$AAT?$AAE?$AA_?$AAI?$AAS?$AA_?$AAO?$AAN?$AA_?$AAI?$AAV?$AAA?$AA2?$AA?$AA@ 100050e4     shell.obj
 0001:00004110       ??_C@_1DE@NAGKCOLG@?$AAP?$AAR?$AAC?$AAM?$AA_?$AAW?$AAK?$AAU?$AAP?$AA_?$AAd?$AAo?$AAm?$AAa?$AAi?$AAn?$AAW?$AAa?$AAk?$AAe?$AAu?$AAp?$AAA?$AAc?$AAk?$AA?$AA@ 10005110     shell.obj
 0001:00004144       ??_C@_1DC@PADBIDGD@?$AAP?$AAR?$AAC?$AAM?$AA_?$AAC?$AAO?$AAR?$AAE?$AAL?$AA3?$AA_?$AAd?$AAo?$AAm?$AAa?$AAi?$AAn?$AAN?$AAr?$AAe?$AAa?$AAd?$AAy?$AA?$AA@ 10005144     shell.obj
 0001:00004178       ??_C@_1CO@OCGOANNC@?$AAP?$AAR?$AAC?$AAM?$AA_?$AAN?$AAE?$AAO?$AAN?$AA_?$AAd?$AAo?$AAm?$AAa?$AAi?$AAn?$AAI?$AAs?$AAI?$AAd?$AAl?$AAe?$AA?$AA@ 10005178     shell.obj
 0001:000041a8       ??_C@_1DI@FOLLPNGH@?$AAP?$AAR?$AAC?$AAM?$AA_?$AAD?$AAS?$AAS?$AA_?$AAd?$AAo?$AAm?$AAa?$AAi?$AAn?$AAF?$AAr?$AAe?$AAe?$AAz?$AAe?$AA_?$AAM?$AAU?$AAX?$AA1?$AA7?$AA?$AA@ 100051a8     shell.obj
 0001:000041e0       ??_C@_1CC@GBHPOKJH@?$AAP?$AAR?$AAC?$AAM?$AA_?$AAD?$AAP?$AAL?$AAL?$AA3?$AA_?$AAi?$AAn?$AAi?$AAt?$AAz?$AA?$AA@ 100051e0     shell.obj
 0001:00004204       ??_C@_1BO@NIOCEMMF@?$AAP?$AAR?$AAC?$AAM?$AA_?$AAS?$AAG?$AAX?$AA_?$AAG?$AAF?$AAC?$AAL?$AAK?$AA?$AA@ 10005204     shell.obj
 0001:00004224       ??_C@_1DG@DOOLAPPF@?$AAP?$AAR?$AAC?$AAM?$AA_?$AAS?$AAR?$AA1?$AA_?$AAF?$AAR?$AAE?$AAQ?$AAE?$AAR?$AAR?$AAI?$AAN?$AAT?$AAZ?$AA_?$AAM?$AAU?$AAX?$AA1?$AA6?$AA?$AA@ 10005224     shell.obj
 0001:0000425c       ??_C@_1CI@MEPNGEAF@?$AAP?$AAR?$AAC?$AAM?$AA_?$AAD?$AAP?$AAL?$AAL?$AA4?$AA_?$AAM?$AA4?$AAX?$AA2?$AA_?$AAC?$AAL?$AAK?$AA?$AA@ 1000525c     shell.obj
 0001:00004284       ??_C@_1BO@CJOJBHEI@?$AAP?$AAR?$AAC?$AAM?$AA_?$AAS?$AAG?$AAX?$AA_?$AAG?$AAI?$AAC?$AAL?$AAK?$AA?$AA@ 10005284     shell.obj
 0001:000042a4       ??_C@_1CM@EICJCGN@?$AAP?$AAR?$AAC?$AAM?$AA_?$AAS?$AAT?$AAA?$AAT?$AAE?$AA_?$AAI?$AAS?$AA_?$AAO?$AAF?$AAF?$AA_?$AAM?$AAP?$AAU?$AA?$AA@ 100052a4     shell.obj
 0001:000042d0       ??_C@_1CO@MFMBFMOL@?$AAP?$AAR?$AAC?$AAM?$AA_?$AAW?$AAK?$AAU?$AAP?$AA_?$AAd?$AAo?$AAm?$AAa?$AAi?$AAn?$AAI?$AAs?$AAI?$AAd?$AAl?$AAe?$AA?$AA@ 100052d0     shell.obj
 0001:00004300       ??_C@_1CO@JODGACJI@?$AAP?$AAR?$AAC?$AAM?$AA_?$AAC?$AAO?$AAR?$AAE?$AA_?$AAd?$AAo?$AAm?$AAa?$AAi?$AAn?$AAN?$AAr?$AAe?$AAa?$AAd?$AAy?$AA?$AA@ 10005300     shell.obj
 0001:00004330       ??_C@_1DI@NPGPIPML@?$AAP?$AAR?$AAC?$AAM?$AA_?$AAM?$AAP?$AAU?$AA_?$AAd?$AAo?$AAm?$AAa?$AAi?$AAn?$AAF?$AAr?$AAe?$AAe?$AAz?$AAe?$AA_?$AAM?$AAU?$AAX?$AA1?$AA6?$AA?$AA@ 10005330     shell.obj
 0001:00004368       ??_C@_1CA@OIGALNOB@?$AAP?$AAR?$AAC?$AAM?$AA_?$AAD?$AAP?$AAL?$AAL?$AA3?$AA_?$AAi?$AAd?$AAl?$AAe?$AA?$AA@ 10005368     shell.obj
 0001:00004388       ??_C@_1CA@NFAMDJHB@?$AAP?$AAR?$AAC?$AAM?$AA_?$AAG?$AAP?$AAT?$AA1?$AA1?$AA_?$AAF?$AAC?$AAL?$AAK?$AA?$AA@ 10005388     shell.obj
 0001:000043a8       ??_C@_1DC@DFCPPCEI@?$AAP?$AAR?$AAC?$AAM?$AA_?$AAS?$AAR?$AA1?$AA_?$AAU?$AAP?$AAD?$AAA?$AAT?$AAE?$AAC?$AAL?$AAK?$AA_?$AAM?$AAU?$AAX?$AA1?$AA5?$AA?$AA@ 100053a8     shell.obj
 0001:000043dc       ??_C@_1CI@JHGMANOB@?$AAP?$AAR?$AAC?$AAM?$AA_?$AAD?$AAP?$AAL?$AAL?$AA4?$AA_?$AAM?$AA2?$AAX?$AA2?$AA_?$AAC?$AAL?$AAK?$AA?$AA@ 100053dc     shell.obj
 0001:00004404       ??_C@_1DA@PNPHGKDD@?$AAP?$AAR?$AAC?$AAM?$AA_?$AAU?$AAS?$AAB?$AAH?$AAO?$AAS?$AAT?$AA_?$AA1?$AA2?$AA0?$AAM?$AA_?$AAG?$AAF?$AAC?$AAL?$AAK?$AA?$AA@ 10005404     shell.obj
 0001:00004434       ??_C@_1CK@KLDGDDJA@?$AAP?$AAR?$AAC?$AAM?$AA_?$AAS?$AAT?$AAA?$AAT?$AAE?$AA_?$AAI?$AAS?$AA_?$AAO?$AAN?$AA_?$AAM?$AAP?$AAU?$AA?$AA@ 10005434     shell.obj
 0001:00004460       ??_C@_1CI@KNBJDHLL@?$AAP?$AAR?$AAC?$AAM?$AA_?$AAP?$AAE?$AAR?$AA_?$AAf?$AAo?$AAr?$AAc?$AAe?$AAS?$AAl?$AAe?$AAe?$AAp?$AA?$AA@ 10005460     shell.obj
 0001:00004488       ??_C@_1DC@IGAECCAD@?$AAP?$AAR?$AAC?$AAM?$AA_?$AAC?$AAO?$AAR?$AAE?$AAC?$AAM?$AA_?$AAd?$AAo?$AAm?$AAa?$AAi?$AAn?$AAI?$AAs?$AAI?$AAd?$AAl?$AAe?$AA?$AA@ 10005488     shell.obj
 0001:000044bc       ??_C@_1CM@LDMOCNJF@?$AAP?$AAR?$AAC?$AAM?$AA_?$AAM?$AAP?$AAU?$AA_?$AAd?$AAo?$AAm?$AAa?$AAi?$AAn?$AAN?$AAr?$AAe?$AAa?$AAd?$AAy?$AA?$AA@ 100054bc     shell.obj
 0001:000044e8       ??_C@_1DK@MEDGOJKA@?$AAP?$AAR?$AAC?$AAM?$AA_?$AAI?$AAV?$AAA?$AA2?$AA_?$AAd?$AAo?$AAm?$AAa?$AAi?$AAn?$AAF?$AAr?$AAe?$AAe?$AAz?$AAe?$AA_?$AAM?$AAU?$AAX?$AA1?$AA5?$AA?$AA@ 100054e8     shell.obj
 0001:00004524       ??_C@_1CE@PIACICIN@?$AAP?$AAR?$AAC?$AAM?$AA_?$AAD?$AAP?$AAL?$AAL?$AA3?$AA_?$AAb?$AAy?$AAp?$AAa?$AAs?$AAs?$AA?$AA@ 10005524     shell.obj
 0001:00004548       ??_C@_1CA@EIADNIAH@?$AAP?$AAR?$AAC?$AAM?$AA_?$AAG?$AAP?$AAT?$AA1?$AA0?$AA_?$AAF?$AAC?$AAL?$AAK?$AA?$AA@ 10005548     shell.obj
 0001:00004568       ??_C@_1BK@PAFBBKEN@?$AAP?$AAR?$AAC?$AAM?$AA_?$AAI?$AAV?$AAA?$AA_?$AAC?$AAL?$AAK?$AA?$AA@ 10005568     shell.obj
 0001:00004584       ??_C@_1CO@DFKJGDCJ@?$AAP?$AAR?$AAC?$AAM?$AA_?$AAE?$AAM?$AAU?$AA_?$AAP?$AAE?$AAR?$AA_?$AAA?$AAL?$AAW?$AAO?$AAN?$AA_?$AAC?$AAL?$AAK?$AA?$AA@ 10005584     shell.obj
 0001:000045b4       ??_C@_1CO@JGMGGGCD@?$AAP?$AAR?$AAC?$AAM?$AA_?$AAU?$AAS?$AAB?$AAH?$AAO?$AAS?$AAT?$AA_?$AA4?$AA8?$AAM?$AA_?$AAG?$AAF?$AAC?$AAL?$AAK?$AA?$AA@ 100055b4     shell.obj
 0001:000045e4       ??_C@_1CE@CHBKEFDL@?$AAP?$AAR?$AAC?$AAM?$AA_?$AAE?$AAM?$AAU?$AA_?$AAM?$AAS?$AAt?$AAa?$AAn?$AAd?$AAb?$AAy?$AA?$AA@ 100055e4     shell.obj
 0001:00004608       ??_C@_1CM@PHLLHGHI@?$AAP?$AAR?$AAC?$AAM?$AA_?$AAP?$AAE?$AAR?$AA_?$AAd?$AAo?$AAm?$AAa?$AAi?$AAn?$AAN?$AAr?$AAe?$AAa?$AAd?$AAy?$AA?$AA@ 10005608     shell.obj
 0001:00004634       ??_C@_1CM@KGLLEMEK@?$AAP?$AAR?$AAC?$AAM?$AA_?$AAM?$AAP?$AAU?$AA_?$AAd?$AAo?$AAm?$AAa?$AAi?$AAn?$AAI?$AAs?$AAI?$AAd?$AAl?$AAe?$AA?$AA@ 10005634     shell.obj
 0001:00004660       ??_C@_1DI@HFGGEHEA@?$AAP?$AAR?$AAC?$AAM?$AA_?$AAM?$AAP?$AAU?$AA_?$AAd?$AAo?$AAm?$AAa?$AAi?$AAn?$AAF?$AAr?$AAe?$AAe?$AAz?$AAe?$AA_?$AAM?$AAU?$AAX?$AA1?$AA4?$AA?$AA@ 10005660     shell.obj
 0001:00004698       ??_C@_1CI@FMFOAJBF@?$AAP?$AAR?$AAC?$AAM?$AA_?$AAD?$AAP?$AAL?$AAL?$AA3?$AA_?$AAf?$AAr?$AAe?$AAq?$AAl?$AAo?$AAc?$AAk?$AA?$AA@ 10005698     shell.obj
 0001:000046c0       ??_C@_1BM@KDIKFELI@?$AAP?$AAR?$AAC?$AAM?$AA_?$AAS?$AAS?$AAI?$AA_?$AAF?$AAC?$AAL?$AAK?$AA?$AA@ 100056c0     shell.obj
 0001:000046dc       ??_C@_1BK@NDLMMLPP@?$AAP?$AAR?$AAC?$AAM?$AA_?$AAM?$AAP?$AAU?$AA_?$AAC?$AAL?$AAK?$AA?$AA@ 100056dc     shell.obj
 0001:000046f8       ??_C@_1DA@PDGNHMIE@?$AAP?$AAR?$AAC?$AAM?$AA_?$AAE?$AAM?$AAU?$AA_?$AAC?$AAO?$AAR?$AAE?$AA_?$AAA?$AAL?$AAW?$AAO?$AAN?$AA_?$AAC?$AAL?$AAK?$AA?$AA@ 100056f8     shell.obj
 0001:00004728       ??_C@_1CG@MMFKGFPF@?$AAP?$AAR?$AAC?$AAM?$AA_?$AAU?$AAS?$AAB?$AAH?$AAO?$AAS?$AAT?$AA_?$AAG?$AAI?$AAC?$AAL?$AAK?$AA?$AA@ 10005728     shell.obj
 0001:00004750       ??_C@_1DC@PMOLENNG@?$AAP?$AAR?$AAC?$AAM?$AA_?$AAI?$AAV?$AAA?$AAA?$AA2?$AA_?$AAD?$AAP?$AAL?$AAL?$AAC?$AAH?$AAA?$AAN?$AAG?$AAE?$AAA?$AAC?$AAK?$AA?$AA@ 10005750     shell.obj
 0001:00004784       ??_C@_1CK@BNLEPAAM@?$AAP?$AAR?$AAC?$AAM?$AA_?$AAP?$AAE?$AAR?$AA_?$AAf?$AAo?$AAr?$AAc?$AAe?$AAW?$AAa?$AAk?$AAe?$AAu?$AAp?$AA?$AA@ 10005784     shell.obj
 0001:000047b0       ??_C@_1DC@FAGGELIE@?$AAP?$AAR?$AAC?$AAM?$AA_?$AAC?$AAO?$AAR?$AAE?$AAL?$AA4?$AA_?$AAd?$AAo?$AAm?$AAa?$AAi?$AAn?$AAI?$AAs?$AAI?$AAd?$AAl?$AAe?$AA?$AA@ 100057b0     shell.obj
 0001:000047e4       ??_C@_1DM@LEHJGNGE@?$AAP?$AAR?$AAC?$AAM?$AA_?$AAC?$AAP?$AAE?$AAF?$AAU?$AAS?$AAE?$AA_?$AAF?$AAC?$AAl?$AAk?$AAI?$AAs?$AAN?$AAo?$AAt?$AAR?$AAu?$AAn?$AAn?$AAi?$AAn?$AAg?$AA?$AA@ 100057e4     shell.obj
 0001:00004820       ??_C@_1CK@LDDOKKMN@?$AAP?$AAR?$AAC?$AAM?$AA_?$AAD?$AAP?$AAL?$AAL?$AA5?$AA_?$AAe?$AAn?$AAa?$AAb?$AAl?$AAe?$AAd?$AAi?$AAv?$AA?$AA@ 10005820     shell.obj
 0001:0000484c       ??_C@_1CK@ICCGJNLK@?$AAP?$AAR?$AAC?$AAM?$AA_?$AAD?$AAP?$AAL?$AAL?$AA2?$AA_?$AAe?$AAn?$AAa?$AAb?$AAl?$AAe?$AAd?$AAi?$AAv?$AA?$AA@ 1000584c     shell.obj
 0001:00004878       ??_C@_1CA@HPMLLCLO@?$AAP?$AAR?$AAC?$AAM?$AA_?$AAD?$AAP?$AAL?$AAL?$AA2?$AA_?$AAF?$AAC?$AAL?$AAK?$AA?$AA@ 10005878     shell.obj
 0001:00004898       ??_C@_1CC@CHEDABBC@?$AAP?$AAR?$AAC?$AAM?$AA_?$AAS?$AAR?$AA_?$AAL?$AA4?$AA_?$AAG?$AAI?$AAC?$AAL?$AAK?$AA?$AA@ 10005898     shell.obj
 0001:000048bc       ??_C@_1CI@EILOFLIE@?$AAP?$AAR?$AAC?$AAM?$AA_?$AAI?$AAV?$AAA?$AA2?$AA_?$AAD?$AAP?$AAL?$AAL?$AAC?$AAH?$AAA?$AAN?$AAG?$AA?$AA@ 100058bc     shell.obj
 0001:000048e4       ??_C@_1CM@OCMOBHKH@?$AAP?$AAR?$AAC?$AAM?$AA_?$AAP?$AAE?$AAR?$AA_?$AAd?$AAo?$AAm?$AAa?$AAi?$AAn?$AAI?$AAs?$AAI?$AAd?$AAl?$AAe?$AA?$AA@ 100058e4     shell.obj
 0001:00004910       ??_C@_1DC@OFEEOCLM@?$AAP?$AAR?$AAC?$AAM?$AA_?$AAC?$AAO?$AAR?$AAE?$AAL?$AA3?$AA_?$AAd?$AAo?$AAm?$AAa?$AAi?$AAn?$AAI?$AAs?$AAI?$AAd?$AAl?$AAe?$AA?$AA@ 10005910     shell.obj
 0001:00004944       ??_C@_1CM@HFNGGKMP@?$AAP?$AAR?$AAC?$AAM?$AA_?$AAE?$AAM?$AAU?$AA_?$AAC?$AAl?$AAk?$AAI?$AAs?$AAR?$AAu?$AAn?$AAn?$AAi?$AAn?$AAg?$AA?$AA@ 10005944     shell.obj
 0001:00004970       ??_C@_1CE@CKCCMFID@?$AAP?$AAR?$AAC?$AAM?$AA_?$AAD?$AAP?$AAL?$AAL?$AA5?$AA_?$AAe?$AAn?$AAa?$AAb?$AAl?$AAe?$AA?$AA@ 10005970     shell.obj
 0001:00004994       ??_C@_1CE@MLAMMPOH@?$AAP?$AAR?$AAC?$AAM?$AA_?$AAD?$AAP?$AAL?$AAL?$AA2?$AA_?$AAe?$AAn?$AAa?$AAb?$AAl?$AAe?$AA?$AA@ 10005994     shell.obj
 0001:000049b8       ??_C@_1CA@DKKJHGF@?$AAP?$AAR?$AAC?$AAM?$AA_?$AAD?$AAP?$AAL?$AAL?$AA1?$AA_?$AAF?$AAC?$AAL?$AAK?$AA?$AA@ 100059b8     shell.obj
 0001:000049d8       ??_C@_1CI@IFGJEACI@?$AAP?$AAR?$AAC?$AAM?$AA_?$AAD?$AAP?$AAL?$AAL?$AA4?$AA_?$AAT?$AAI?$AAC?$AAO?$AAP?$AAW?$AAD?$AAN?$AA?$AA@ 100059d8     shell.obj
 0001:00004a00       ??_C@_1CI@OALAHOGI@?$AAP?$AAR?$AAC?$AAM?$AA_?$AAD?$AAP?$AAL?$AAL?$AA3?$AA_?$AAT?$AAI?$AAC?$AAO?$AAP?$AAW?$AAD?$AAN?$AA?$AA@ 10005a00     shell.obj
 0001:00004a28       ??_C@_1CI@PHJIBKKI@?$AAP?$AAR?$AAC?$AAM?$AA_?$AAD?$AAP?$AAL?$AAL?$AA2?$AA_?$AAT?$AAI?$AAC?$AAO?$AAP?$AAW?$AAD?$AAN?$AA?$AA@ 10005a28     shell.obj
 0001:00004a50       ??_C@_1CI@MOOALHOI@?$AAP?$AAR?$AAC?$AAM?$AA_?$AAD?$AAP?$AAL?$AAL?$AA1?$AA_?$AAT?$AAI?$AAC?$AAO?$AAP?$AAW?$AAD?$AAN?$AA?$AA@ 10005a50     shell.obj
 0001:00004a78       ??_C@_1CE@JABJPFEA@?$AAP?$AAR?$AAC?$AAM?$AA_?$AAP?$AAE?$AAR?$AA_?$AAL?$AA4?$AA_?$AAG?$AAI?$AAC?$AAL?$AAK?$AA?$AA@ 10005a78     shell.obj
 0001:00004a9c       ??_C@_1DG@KDDMDHEM@?$AAP?$AAR?$AAC?$AAM?$AA_?$AAS?$AAR?$AA1?$AA_?$AAF?$AAR?$AAE?$AAQ?$AAE?$AAR?$AAR?$AAI?$AAN?$AAT?$AAZ?$AA_?$AAM?$AAU?$AAX?$AA1?$AA1?$AA?$AA@ 10005a9c     shell.obj
 0001:00004ad8       ??_C@_1EE@FELIFBNG@?$AAP?$AAR?$AAC?$AAM?$AA_?$AAe?$AAm?$AAu?$AAd?$AAp?$AAl?$AAl?$AA3?$AAs?$AAr?$AAc?$AAc?$AAl?$AAk?$AAa?$AAc?$AAt?$AAi?$AAv?$AAi?$AAt?$AAy?$AAs?$AAt?$AAa?$AAt?$AAu@ 10005ad8     shell.obj
 0001:00004b1c       ??_C@_1DI@HLNAKCLL@?$AAP?$AAR?$AAC?$AAM?$AA_?$AAD?$AAS?$AAS?$AA_?$AAd?$AAo?$AAm?$AAa?$AAi?$AAn?$AAF?$AAr?$AAe?$AAe?$AAz?$AAe?$AA_?$AAM?$AAU?$AAX?$AA1?$AA1?$AA?$AA@ 10005b1c     shell.obj
 0001:00004b54       ??_C@_1CI@KKLAIOEK@?$AAP?$AAR?$AAC?$AAM?$AA_?$AAS?$AAG?$AAX?$AA_?$AAf?$AAo?$AAr?$AAc?$AAe?$AAS?$AAl?$AAe?$AAe?$AAp?$AA?$AA@ 10005b54     shell.obj
 0001:00004b7c       ??_C@_1DI@JJBHFLDG@?$AAP?$AAR?$AAC?$AAM?$AA_?$AAP?$AAE?$AAR?$AAL?$AA4?$AA_?$AAI?$AAC?$AAl?$AAk?$AAI?$AAs?$AAN?$AAo?$AAt?$AAR?$AAu?$AAn?$AAn?$AAi?$AAn?$AAg?$AA?$AA@ 10005b7c     shell.obj
 0001:00004bb4       ??_C@_1CC@DCOOIDHD@?$AAP?$AAR?$AAC?$AAM?$AA_?$AAD?$AAP?$AAL?$AAL?$AA5?$AA_?$AAi?$AAn?$AAi?$AAt?$AAz?$AA?$AA@ 10005bb4     shell.obj
 0001:00004bd8       ??_C@_1CC@MPBHHLAG@?$AAP?$AAR?$AAC?$AAM?$AA_?$AAD?$AAP?$AAL?$AAL?$AA2?$AA_?$AAi?$AAn?$AAi?$AAt?$AAz?$AA?$AA@ 10005bd8     shell.obj
 0001:00004bfc       ??_C@_1CE@OJMJLJJI@?$AAP?$AAR?$AAC?$AAM?$AA_?$AAD?$AAP?$AAL?$AAL?$AA5?$AA_?$AAM?$AA2?$AA_?$AAC?$AAL?$AAK?$AA?$AA@ 10005bfc     shell.obj
 0001:00004c20       ??_C@_1CE@NNMMOAEH@?$AAP?$AAR?$AAC?$AAM?$AA_?$AAD?$AAP?$AAL?$AAL?$AA4?$AA_?$AAB?$AAY?$AAP?$AAA?$AAS?$AAS?$AA?$AA@ 10005c20     shell.obj
 0001:00004c44       ??_C@_1CE@DMOCOKCD@?$AAP?$AAR?$AAC?$AAM?$AA_?$AAD?$AAP?$AAL?$AAL?$AA3?$AA_?$AAB?$AAY?$AAP?$AAA?$AAS?$AAS?$AA?$AA@ 10005c44     shell.obj
 0001:00004c68       ??_C@_1CE@NDLAFMMC@?$AAP?$AAR?$AAC?$AAM?$AA_?$AAD?$AAP?$AAL?$AAL?$AA2?$AA_?$AAB?$AAY?$AAP?$AAA?$AAS?$AAS?$AA?$AA@ 10005c68     shell.obj
 0001:00004c8c       ??_C@_1CE@DJDGIBKA@?$AAP?$AAR?$AAC?$AAM?$AA_?$AAD?$AAP?$AAL?$AAL?$AA1?$AA_?$AAB?$AAY?$AAP?$AAA?$AAS?$AAS?$AA?$AA@ 10005c8c     shell.obj
 0001:00004cb0       ??_C@_1BM@NGKMAOAP@?$AAP?$AAR?$AAC?$AAM?$AA_?$AAI?$AAV?$AAA?$AA_?$AAF?$AAC?$AAL?$AAK?$AA?$AA@ 10005cb0     shell.obj
 0001:00004ccc       ??_C@_1CC@LLDJKAIA@?$AAP?$AAR?$AAC?$AAM?$AA_?$AAM?$AAP?$AAU?$AA_?$AAE?$AAM?$AAU?$AA_?$AAC?$AAL?$AAK?$AA?$AA@ 10005ccc     shell.obj
 0001:00004cf0       ??_C@_1CG@GPHGOFPO@?$AAP?$AAR?$AAC?$AAM?$AA_?$AAP?$AAE?$AAR?$AA_?$AA9?$AA6?$AAM?$AA_?$AAG?$AAF?$AAC?$AAL?$AAK?$AA?$AA@ 10005cf0     shell.obj
 0001:00004d18       ??_C@_1DC@CPBACHK@?$AAP?$AAR?$AAC?$AAM?$AA_?$AAS?$AAR?$AA1?$AA_?$AAU?$AAP?$AAD?$AAA?$AAT?$AAE?$AAC?$AAL?$AAK?$AA_?$AAM?$AAU?$AAX?$AA1?$AA0?$AA?$AA@ 10005d18     shell.obj
 0001:00004d4c       ??_C@_1DE@GGKKFNBF@?$AAP?$AAR?$AAC?$AAM?$AA_?$AAU?$AAS?$AAB?$AAH?$AAO?$AAS?$AAT?$AA_?$AAd?$AAo?$AAm?$AAa?$AAi?$AAn?$AAF?$AAr?$AAe?$AAe?$AAz?$AAe?$AA?$AA@ 10005d4c     shell.obj
 0001:00004d80       ??_C@_1CI@NFIIPOJA@?$AAP?$AAR?$AAC?$AAM?$AA_?$AAD?$AAS?$AAS?$AA_?$AAf?$AAo?$AAr?$AAc?$AAe?$AAS?$AAl?$AAe?$AAe?$AAp?$AA?$AA@ 10005d80     shell.obj
 0001:00004da8       ??_C@_1CM@OCEPFACG@?$AAP?$AAR?$AAC?$AAM?$AA_?$AAS?$AAG?$AAX?$AA_?$AAd?$AAo?$AAm?$AAa?$AAi?$AAn?$AAN?$AAr?$AAe?$AAa?$AAd?$AAy?$AA?$AA@ 10005da8     shell.obj
 0001:00004dd4       ??_C@_1DE@JPIBLHHF@?$AAP?$AAR?$AAC?$AAM?$AA_?$AAC?$AAA?$AAM?$AA_?$AAI?$AAC?$AAl?$AAk?$AAI?$AAs?$AAN?$AAo?$AAt?$AAR?$AAu?$AAn?$AAn?$AAi?$AAn?$AAg?$AA?$AA@ 10005dd4     shell.obj
 0001:00004e08       ??_C@_1CA@BAKCPGFH@?$AAP?$AAR?$AAC?$AAM?$AA_?$AAD?$AAP?$AAL?$AAL?$AA5?$AA_?$AAi?$AAd?$AAl?$AAe?$AA?$AA@ 10005e08     shell.obj
 0001:00004e28       ??_C@_1CA@HFGPFMJH@?$AAP?$AAR?$AAC?$AAM?$AA_?$AAD?$AAP?$AAL?$AAL?$AA2?$AA_?$AAi?$AAd?$AAl?$AAe?$AA?$AA@ 10005e28     shell.obj
 0001:00004e48       ??_C@_1CE@NGICOCCK@?$AAP?$AAR?$AAC?$AAM?$AA_?$AAC?$AAP?$AAE?$AAF?$AAU?$AAS?$AAE?$AA_?$AAF?$AAC?$AAL?$AAK?$AA?$AA@ 10005e48     shell.obj
 0001:00004e6c       ??_C@_1CC@KHMBDHDC@?$AAP?$AAR?$AAC?$AAM?$AA_?$AAD?$AAP?$AAL?$AAL?$AA4?$AA_?$AAR?$AAE?$AAC?$AAA?$AAL?$AA?$AA@ 10005e6c     shell.obj
 0001:00004e90       ??_C@_1CC@FKDIMPEH@?$AAP?$AAR?$AAC?$AAM?$AA_?$AAD?$AAP?$AAL?$AAL?$AA3?$AA_?$AAR?$AAE?$AAC?$AAA?$AAL?$AA?$AA@ 10005e90     shell.obj
 0001:00004eb4       ??_C@_1CC@PEFAFONG@?$AAP?$AAR?$AAC?$AAM?$AA_?$AAD?$AAP?$AAL?$AAL?$AA2?$AA_?$AAR?$AAE?$AAC?$AAA?$AAL?$AA?$AA@ 10005eb4     shell.obj
 0001:00004ed8       ??_C@_1CC@NNJIOKCE@?$AAP?$AAR?$AAC?$AAM?$AA_?$AAD?$AAP?$AAL?$AAL?$AA1?$AA_?$AAR?$AAE?$AAC?$AAA?$AAL?$AA?$AA@ 10005ed8     shell.obj
 0001:00004efc       ??_C@_1CG@GGFHCDLE@?$AAP?$AAR?$AAC?$AAM?$AA_?$AAD?$AAS?$AAS?$AA_?$AA9?$AA6?$AAM?$AA_?$AAG?$AAF?$AAC?$AAL?$AAK?$AA?$AA@ 10005efc     shell.obj
 0001:00004f24       ??_C@_1CG@MAAKPBNK@?$AAP?$AAR?$AAC?$AAM?$AA_?$AAP?$AAE?$AAR?$AA_?$AA4?$AA8?$AAM?$AA_?$AAG?$AAF?$AAC?$AAL?$AAK?$AA?$AA@ 10005f24     shell.obj
 0001:00004f4c       ??_C@_1DA@GAMDNGE@?$AAP?$AAR?$AAC?$AAM?$AA_?$AAU?$AAS?$AAB?$AAH?$AAO?$AAS?$AAT?$AA_?$AAf?$AAo?$AAr?$AAc?$AAe?$AAS?$AAl?$AAe?$AAe?$AAp?$AA?$AA@ 10005f4c     shell.obj
 0001:00004f7c       ??_C@_1CM@CIHCLBNN@?$AAP?$AAR?$AAC?$AAM?$AA_?$AAD?$AAS?$AAS?$AA_?$AAd?$AAo?$AAm?$AAa?$AAi?$AAn?$AAN?$AAr?$AAe?$AAa?$AAd?$AAy?$AA?$AA@ 10005f7c     shell.obj
 0001:00004fa8       ??_C@_1CK@KCKOCMHB@?$AAP?$AAR?$AAC?$AAM?$AA_?$AAS?$AAG?$AAX?$AA_?$AAf?$AAo?$AAr?$AAc?$AAe?$AAW?$AAa?$AAk?$AAe?$AAu?$AAp?$AA?$AA@ 10005fa8     shell.obj
 0001:00004fd4       ??_C@_1DE@KGNDANHJ@?$AAP?$AAR?$AAC?$AAM?$AA_?$AAD?$AAS?$AAS?$AA_?$AAI?$AAC?$AAl?$AAk?$AAI?$AAs?$AAN?$AAo?$AAt?$AAR?$AAu?$AAn?$AAn?$AAi?$AAn?$AAg?$AA?$AA@ 10005fd4     shell.obj
 0001:00005008       ??_C@_1CE@PGHODOAI@?$AAP?$AAR?$AAC?$AAM?$AA_?$AAD?$AAP?$AAL?$AAL?$AA5?$AA_?$AAb?$AAy?$AAp?$AAa?$AAs?$AAs?$AA?$AA@ 10006008     shell.obj
 0001:0000502c       ??_C@_1CE@BHFADEGM@?$AAP?$AAR?$AAC?$AAM?$AA_?$AAD?$AAP?$AAL?$AAL?$AA2?$AA_?$AAb?$AAy?$AAp?$AAa?$AAs?$AAs?$AA?$AA@ 1000602c     shell.obj
 0001:00005050       ??_C@_1BI@LIDNGNBB@?$AAC?$AAM?$AA_?$AAU?$AAS?$AAI?$AAM?$AA_?$AAC?$AAL?$AAK?$AA?$AA@ 10006050     shell.obj
 0001:00005068       ??_C@_1CK@KHMNIPIO@?$AAP?$AAR?$AAC?$AAM?$AA_?$AAD?$AAP?$AAL?$AAL?$AA4?$AA_?$AAP?$AAH?$AAA?$AAS?$AAE?$AAL?$AAO?$AAC?$AAK?$AA?$AA@ 10006068     shell.obj
 0001:00005094       ??_C@_1CK@JGNFLIPJ@?$AAP?$AAR?$AAC?$AAM?$AA_?$AAD?$AAP?$AAL?$AAL?$AA3?$AA_?$AAP?$AAH?$AAA?$AAS?$AAE?$AAL?$AAO?$AAC?$AAK?$AA?$AA@ 10006094     shell.obj
 0001:000050c0       ??_C@_1CK@BHPANNNO@?$AAP?$AAR?$AAC?$AAM?$AA_?$AAD?$AAP?$AAL?$AAL?$AA2?$AA_?$AAP?$AAH?$AAA?$AAS?$AAE?$AAL?$AAO?$AAC?$AAK?$AA?$AA@ 100060c0     shell.obj
 0001:000050ec       ??_C@_1CK@EPOOHEPG@?$AAP?$AAR?$AAC?$AAM?$AA_?$AAD?$AAP?$AAL?$AAL?$AA1?$AA_?$AAP?$AAH?$AAA?$AAS?$AAE?$AAL?$AAO?$AAC?$AAK?$AA?$AA@ 100060ec     shell.obj
 0001:00005118       ??_C@_1CE@IENEPENE@?$AAP?$AAR?$AAC?$AAM?$AA_?$AAS?$AAS?$AAI?$AA_?$AAL?$AA4?$AA_?$AAG?$AAI?$AAC?$AAL?$AAK?$AA?$AA@ 10006118     shell.obj
 0001:0000513c       ??_C@_1CI@HPJOJBKM@?$AAP?$AAR?$AAC?$AAM?$AA_?$AAC?$AAS?$AAI?$AAb?$AA_?$AA9?$AA6?$AAM?$AA_?$AAG?$AAF?$AAC?$AAL?$AAK?$AA?$AA@ 1000613c     shell.obj
 0001:00005164       ??_C@_1DE@PCKKMGBF@?$AAP?$AAR?$AAC?$AAM?$AA_?$AAU?$AAS?$AAB?$AAH?$AAO?$AAS?$AAT?$AA_?$AAd?$AAo?$AAm?$AAa?$AAi?$AAn?$AAN?$AAr?$AAe?$AAa?$AAd?$AAy?$AA?$AA@ 10006164     shell.obj
 0001:00005198       ??_C@_1CK@IJHMAPOA@?$AAP?$AAR?$AAC?$AAM?$AA_?$AAD?$AAS?$AAS?$AA_?$AAf?$AAo?$AAr?$AAc?$AAe?$AAW?$AAa?$AAk?$AAe?$AAu?$AAp?$AA?$AA@ 10006198     shell.obj
 0001:000051c4       ??_C@_1CM@PHDKDBPJ@?$AAP?$AAR?$AAC?$AAM?$AA_?$AAS?$AAG?$AAX?$AA_?$AAd?$AAo?$AAm?$AAa?$AAi?$AAn?$AAI?$AAs?$AAI?$AAd?$AAl?$AAe?$AA?$AA@ 100061c4     shell.obj
 0001:000051f0       ??_C@_1DE@OPEDKOJN@?$AAP?$AAR?$AAC?$AAM?$AA_?$AAG?$AAF?$AAX?$AA_?$AAI?$AAC?$AAl?$AAk?$AAI?$AAs?$AAN?$AAo?$AAt?$AAR?$AAu?$AAn?$AAn?$AAi?$AAn?$AAg?$AA?$AA@ 100061f0     shell.obj
 0001:00005224       ??_C@_1CI@COKPFDJF@?$AAP?$AAR?$AAC?$AAM?$AA_?$AAD?$AAP?$AAL?$AAL?$AA5?$AA_?$AAf?$AAr?$AAe?$AAq?$AAl?$AAo?$AAc?$AAk?$AA?$AA@ 10006224     shell.obj
 0001:0000524c       ??_C@_1CI@ELHGGNNF@?$AAP?$AAR?$AAC?$AAM?$AA_?$AAD?$AAP?$AAL?$AAL?$AA2?$AA_?$AAf?$AAr?$AAe?$AAq?$AAl?$AAo?$AAc?$AAk?$AA?$AA@ 1000624c     shell.obj
 0001:00005274       ??_C@_1CC@FADCDEB@?$AAP?$AAR?$AAC?$AAM?$AA_?$AAD?$AAS?$AAS?$AA_?$AAT?$AAV?$AA_?$AAF?$AAC?$AAL?$AAK?$AA?$AA@ 10006274     shell.obj
 0001:00005298       ??_C@_1CC@JCCCKHPH@?$AAm?$AAp?$AAu?$AA_?$AAP?$AAI?$AAI?$AAR?$AAQ?$AA9?$AA6?$AA_?$AAM?$AAU?$AAX?$AA7?$AA?$AA@ 10006298     shell.obj
 0001:000052bc       ??_C@_1CC@OOEDICCM@?$AAm?$AAp?$AAu?$AA_?$AAP?$AAI?$AAI?$AAR?$AAQ?$AA9?$AA5?$AA_?$AAM?$AAU?$AAX?$AA7?$AA?$AA@ 100062bc     shell.obj
 0001:000052e0       ??_C@_1CC@HDEMGDFK@?$AAm?$AAp?$AAu?$AA_?$AAP?$AAI?$AAI?$AAR?$AAQ?$AA9?$AA4?$AA_?$AAM?$AAU?$AAX?$AA7?$AA?$AA@ 100062e0     shell.obj
 0001:00005304       ??_C@_1CC@BGIBMJJK@?$AAm?$AAp?$AAu?$AA_?$AAP?$AAI?$AAI?$AAR?$AAQ?$AA9?$AA3?$AA_?$AAM?$AAU?$AAX?$AA7?$AA?$AA@ 10006304     shell.obj
 0001:00005328       ??_C@_1CC@ILIOCIOM@?$AAm?$AAp?$AAu?$AA_?$AAP?$AAI?$AAI?$AAR?$AAQ?$AA9?$AA2?$AA_?$AAM?$AAU?$AAX?$AA7?$AA?$AA@ 10006328     shell.obj
 0001:0000534c       ??_C@_1CC@PHOPANDH@?$AAm?$AAp?$AAu?$AA_?$AAP?$AAI?$AAI?$AAR?$AAQ?$AA9?$AA1?$AA_?$AAM?$AAU?$AAX?$AA7?$AA?$AA@ 1000634c     shell.obj
 0001:00005370       ??_C@_1CC@GKOAOMEB@?$AAm?$AAp?$AAu?$AA_?$AAP?$AAI?$AAI?$AAR?$AAQ?$AA9?$AA0?$AA_?$AAM?$AAU?$AAX?$AA7?$AA?$AA@ 10006370     shell.obj
 0001:00005394       ??_C@_1CC@GKNOICJA@?$AAm?$AAp?$AAu?$AA_?$AAP?$AAI?$AAI?$AAR?$AAQ?$AA8?$AA9?$AA_?$AAM?$AAU?$AAX?$AA7?$AA?$AA@ 10006394     shell.obj
 0001:000053b8       ??_C@_1CC@PHNBGDOG@?$AAm?$AAp?$AAu?$AA_?$AAP?$AAI?$AAI?$AAR?$AAQ?$AA8?$AA8?$AA_?$AAM?$AAU?$AAX?$AA7?$AA?$AA@ 100063b8     shell.obj
 0001:000053dc       ??_C@_1CC@KBEFNHBA@?$AAm?$AAp?$AAu?$AA_?$AAP?$AAI?$AAI?$AAR?$AAQ?$AA8?$AA7?$AA_?$AAM?$AAU?$AAX?$AA7?$AA?$AA@ 100063dc     shell.obj
 0001:00005400       ??_C@_1CC@DMEKDGGG@?$AAm?$AAp?$AAu?$AA_?$AAP?$AAI?$AAI?$AAR?$AAQ?$AA8?$AA6?$AA_?$AAM?$AAU?$AAX?$AA7?$AA?$AA@ 10006400     shell.obj
 0001:00005424       ??_C@_1CC@EACLBDLN@?$AAm?$AAp?$AAu?$AA_?$AAP?$AAI?$AAI?$AAR?$AAQ?$AA8?$AA5?$AA_?$AAM?$AAU?$AAX?$AA7?$AA?$AA@ 10006424     shell.obj
 0001:00005448       ??_C@_1CC@NNCEPCML@?$AAm?$AAp?$AAu?$AA_?$AAP?$AAI?$AAI?$AAR?$AAQ?$AA8?$AA4?$AA_?$AAM?$AAU?$AAX?$AA7?$AA?$AA@ 10006448     shell.obj
 0001:0000546c       ??_C@_1CC@LIOJFIAL@?$AAm?$AAp?$AAu?$AA_?$AAP?$AAI?$AAI?$AAR?$AAQ?$AA8?$AA3?$AA_?$AAM?$AAU?$AAX?$AA7?$AA?$AA@ 1000646c     shell.obj
 0001:00005490       ??_C@_1CC@CFOGLJHN@?$AAm?$AAp?$AAu?$AA_?$AAP?$AAI?$AAI?$AAR?$AAQ?$AA8?$AA2?$AA_?$AAM?$AAU?$AAX?$AA7?$AA?$AA@ 10006490     shell.obj
 0001:000054b4       ??_C@_1CC@FJIHJMKG@?$AAm?$AAp?$AAu?$AA_?$AAP?$AAI?$AAI?$AAR?$AAQ?$AA8?$AA1?$AA_?$AAM?$AAU?$AAX?$AA7?$AA?$AA@ 100064b4     shell.obj
 0001:000054d8       ??_C@_1CC@MEIIHNNA@?$AAm?$AAp?$AAu?$AA_?$AAP?$AAI?$AAI?$AAR?$AAQ?$AA8?$AA0?$AA_?$AAM?$AAU?$AAX?$AA7?$AA?$AA@ 100064d8     shell.obj
 0001:000054fc       ??_C@_1CC@OEDEOFKK@?$AAm?$AAp?$AAu?$AA_?$AAP?$AAI?$AAI?$AAR?$AAQ?$AA7?$AA9?$AA_?$AAM?$AAU?$AAX?$AA7?$AA?$AA@ 100064fc     shell.obj
 0001:00005520       ??_C@_1CC@HJDLAENM@?$AAm?$AAp?$AAu?$AA_?$AAP?$AAI?$AAI?$AAR?$AAQ?$AA7?$AA8?$AA_?$AAM?$AAU?$AAX?$AA7?$AA?$AA@ 10006520     shell.obj
 0001:00005544       ??_C@_1CC@CPKPLACK@?$AAm?$AAp?$AAu?$AA_?$AAP?$AAI?$AAI?$AAR?$AAQ?$AA7?$AA7?$AA_?$AAM?$AAU?$AAX?$AA7?$AA?$AA@ 10006544     shell.obj
 0001:00005568       ??_C@_1CC@LCKAFBFM@?$AAm?$AAp?$AAu?$AA_?$AAP?$AAI?$AAI?$AAR?$AAQ?$AA7?$AA6?$AA_?$AAM?$AAU?$AAX?$AA7?$AA?$AA@ 10006568     shell.obj
 0001:0000558c       ??_C@_1CC@MOMBHEIH@?$AAm?$AAp?$AAu?$AA_?$AAP?$AAI?$AAI?$AAR?$AAQ?$AA7?$AA5?$AA_?$AAM?$AAU?$AAX?$AA7?$AA?$AA@ 1000658c     shell.obj
 0001:000055b0       ??_C@_1CC@FDMOJFPB@?$AAm?$AAp?$AAu?$AA_?$AAP?$AAI?$AAI?$AAR?$AAQ?$AA7?$AA4?$AA_?$AAM?$AAU?$AAX?$AA7?$AA?$AA@ 100065b0     shell.obj
 0001:000055d4       ??_C@_1CC@DGADDPDB@?$AAm?$AAp?$AAu?$AA_?$AAP?$AAI?$AAI?$AAR?$AAQ?$AA7?$AA3?$AA_?$AAM?$AAU?$AAX?$AA7?$AA?$AA@ 100065d4     shell.obj
 0001:000055f8       ??_C@_1CC@KLAMNOEH@?$AAm?$AAp?$AAu?$AA_?$AAP?$AAI?$AAI?$AAR?$AAQ?$AA7?$AA2?$AA_?$AAM?$AAU?$AAX?$AA7?$AA?$AA@ 100065f8     shell.obj
 0001:0000561c       ??_C@_1CC@NHGNPLJM@?$AAm?$AAp?$AAu?$AA_?$AAP?$AAI?$AAI?$AAR?$AAQ?$AA7?$AA1?$AA_?$AAM?$AAU?$AAX?$AA7?$AA?$AA@ 1000661c     shell.obj
 0001:00005640       ??_C@_1CC@EKGCBKOK@?$AAm?$AAp?$AAu?$AA_?$AAP?$AAI?$AAI?$AAR?$AAQ?$AA7?$AA0?$AA_?$AAM?$AAU?$AAX?$AA7?$AA?$AA@ 10006640     shell.obj
 0001:00005664       ??_C@_1CC@EKFMHEDL@?$AAm?$AAp?$AAu?$AA_?$AAP?$AAI?$AAI?$AAR?$AAQ?$AA6?$AA9?$AA_?$AAM?$AAU?$AAX?$AA7?$AA?$AA@ 10006664     shell.obj
 0001:00005688       ??_C@_1CC@NHFDJFEN@?$AAm?$AAp?$AAu?$AA_?$AAP?$AAI?$AAI?$AAR?$AAQ?$AA6?$AA8?$AA_?$AAM?$AAU?$AAX?$AA7?$AA?$AA@ 10006688     shell.obj
 0001:000056ac       ??_C@_1CC@IBMHCBLL@?$AAm?$AAp?$AAu?$AA_?$AAP?$AAI?$AAI?$AAR?$AAQ?$AA6?$AA7?$AA_?$AAM?$AAU?$AAX?$AA7?$AA?$AA@ 100066ac     shell.obj
 0001:000056d0       ??_C@_1CC@BMMIMAMN@?$AAm?$AAp?$AAu?$AA_?$AAP?$AAI?$AAI?$AAR?$AAQ?$AA6?$AA6?$AA_?$AAM?$AAU?$AAX?$AA7?$AA?$AA@ 100066d0     shell.obj
 0001:000056f4       ??_C@_1CC@GAKJOFBG@?$AAm?$AAp?$AAu?$AA_?$AAP?$AAI?$AAI?$AAR?$AAQ?$AA6?$AA5?$AA_?$AAM?$AAU?$AAX?$AA7?$AA?$AA@ 100066f4     shell.obj
 0001:00005718       ??_C@_1CC@PNKGAEGA@?$AAm?$AAp?$AAu?$AA_?$AAP?$AAI?$AAI?$AAR?$AAQ?$AA6?$AA4?$AA_?$AAM?$AAU?$AAX?$AA7?$AA?$AA@ 10006718     shell.obj
 0001:0000573c       ??_C@_1CC@JIGLKOKA@?$AAm?$AAp?$AAu?$AA_?$AAP?$AAI?$AAI?$AAR?$AAQ?$AA6?$AA3?$AA_?$AAM?$AAU?$AAX?$AA7?$AA?$AA@ 1000673c     shell.obj
 0001:00005760       ??_C@_1CC@FGEEPNG@?$AAm?$AAp?$AAu?$AA_?$AAP?$AAI?$AAI?$AAR?$AAQ?$AA6?$AA2?$AA_?$AAM?$AAU?$AAX?$AA7?$AA?$AA@ 10006760     shell.obj
 0001:00005784       ??_C@_1CC@HJAFGKAN@?$AAm?$AAp?$AAu?$AA_?$AAP?$AAI?$AAI?$AAR?$AAQ?$AA6?$AA1?$AA_?$AAM?$AAU?$AAX?$AA7?$AA?$AA@ 10006784     shell.obj
 0001:000057a8       ??_C@_1CC@OEAKILHL@?$AAm?$AAp?$AAu?$AA_?$AAP?$AAI?$AAI?$AAR?$AAQ?$AA6?$AA0?$AA_?$AAM?$AAU?$AAX?$AA7?$AA?$AA@ 100067a8     shell.obj
 0001:000057cc       ??_C@_1CC@GDJEMAMJ@?$AAm?$AAp?$AAu?$AA_?$AAP?$AAI?$AAI?$AAR?$AAQ?$AA5?$AA9?$AA_?$AAM?$AAU?$AAX?$AA7?$AA?$AA@ 100067cc     shell.obj
 0001:000057f0       ??_C@_1CC@POJLCBLP@?$AAm?$AAp?$AAu?$AA_?$AAP?$AAI?$AAI?$AAR?$AAQ?$AA5?$AA8?$AA_?$AAM?$AAU?$AAX?$AA7?$AA?$AA@ 100067f0     shell.obj
 0001:00005814       ??_C@_1CC@KIAPJFEJ@?$AAm?$AAp?$AAu?$AA_?$AAP?$AAI?$AAI?$AAR?$AAQ?$AA5?$AA7?$AA_?$AAM?$AAU?$AAX?$AA7?$AA?$AA@ 10006814     shell.obj
 0001:00005838       ??_C@_1CC@DFAAHEDP@?$AAm?$AAp?$AAu?$AA_?$AAP?$AAI?$AAI?$AAR?$AAQ?$AA5?$AA6?$AA_?$AAM?$AAU?$AAX?$AA7?$AA?$AA@ 10006838     shell.obj
 0001:0000585c       ??_C@_1CC@EJGBFBOE@?$AAm?$AAp?$AAu?$AA_?$AAP?$AAI?$AAI?$AAR?$AAQ?$AA5?$AA5?$AA_?$AAM?$AAU?$AAX?$AA7?$AA?$AA@ 1000685c     shell.obj
 0001:00005880       ??_C@_1CC@NEGOLAJC@?$AAm?$AAp?$AAu?$AA_?$AAP?$AAI?$AAI?$AAR?$AAQ?$AA5?$AA4?$AA_?$AAM?$AAU?$AAX?$AA7?$AA?$AA@ 10006880     shell.obj
 0001:000058a4       ??_C@_1CC@LBKDBKFC@?$AAm?$AAp?$AAu?$AA_?$AAP?$AAI?$AAI?$AAR?$AAQ?$AA5?$AA3?$AA_?$AAM?$AAU?$AAX?$AA7?$AA?$AA@ 100068a4     shell.obj
 0001:000058c8       ??_C@_1CC@CMKMPLCE@?$AAm?$AAp?$AAu?$AA_?$AAP?$AAI?$AAI?$AAR?$AAQ?$AA5?$AA2?$AA_?$AAM?$AAU?$AAX?$AA7?$AA?$AA@ 100068c8     shell.obj
 0001:000058ec       ??_C@_1CC@FAMNNOPP@?$AAm?$AAp?$AAu?$AA_?$AAP?$AAI?$AAI?$AAR?$AAQ?$AA5?$AA1?$AA_?$AAM?$AAU?$AAX?$AA7?$AA?$AA@ 100068ec     shell.obj
 0001:00005910       ??_C@_1CC@MNMCDPIJ@?$AAm?$AAp?$AAu?$AA_?$AAP?$AAI?$AAI?$AAR?$AAQ?$AA5?$AA0?$AA_?$AAM?$AAU?$AAX?$AA7?$AA?$AA@ 10006910     shell.obj
 0001:00005934       ??_C@_1CC@MNPMFBFI@?$AAm?$AAp?$AAu?$AA_?$AAP?$AAI?$AAI?$AAR?$AAQ?$AA4?$AA9?$AA_?$AAM?$AAU?$AAX?$AA7?$AA?$AA@ 10006934     shell.obj
 0001:00005958       ??_C@_1CC@FAPDLACO@?$AAm?$AAp?$AAu?$AA_?$AAP?$AAI?$AAI?$AAR?$AAQ?$AA4?$AA8?$AA_?$AAM?$AAU?$AAX?$AA7?$AA?$AA@ 10006958     shell.obj
 0001:0000597c       ??_C@_1CC@GGHAENI@?$AAm?$AAp?$AAu?$AA_?$AAP?$AAI?$AAI?$AAR?$AAQ?$AA4?$AA7?$AA_?$AAM?$AAU?$AAX?$AA7?$AA?$AA@ 1000697c     shell.obj
 0001:000059a0       ??_C@_1CC@JLGIOFKO@?$AAm?$AAp?$AAu?$AA_?$AAP?$AAI?$AAI?$AAR?$AAQ?$AA4?$AA6?$AA_?$AAM?$AAU?$AAX?$AA7?$AA?$AA@ 100069a0     shell.obj
 0001:000059c4       ??_C@_1CC@OHAJMAHF@?$AAm?$AAp?$AAu?$AA_?$AAP?$AAI?$AAI?$AAR?$AAQ?$AA4?$AA5?$AA_?$AAM?$AAU?$AAX?$AA7?$AA?$AA@ 100069c4     shell.obj
 0001:000059e8       ??_C@_1CC@HKAGCBAD@?$AAm?$AAp?$AAu?$AA_?$AAP?$AAI?$AAI?$AAR?$AAQ?$AA4?$AA4?$AA_?$AAM?$AAU?$AAX?$AA7?$AA?$AA@ 100069e8     shell.obj
 0001:00005a0c       ??_C@_1CC@BPMLILMD@?$AAm?$AAp?$AAu?$AA_?$AAP?$AAI?$AAI?$AAR?$AAQ?$AA4?$AA3?$AA_?$AAM?$AAU?$AAX?$AA7?$AA?$AA@ 10006a0c     shell.obj
 0001:00005a30       ??_C@_1CC@ICMEGKLF@?$AAm?$AAp?$AAu?$AA_?$AAP?$AAI?$AAI?$AAR?$AAQ?$AA4?$AA2?$AA_?$AAM?$AAU?$AAX?$AA7?$AA?$AA@ 10006a30     shell.obj
 0001:00005a54       ??_C@_1CC@POKFEPGO@?$AAm?$AAp?$AAu?$AA_?$AAP?$AAI?$AAI?$AAR?$AAQ?$AA4?$AA1?$AA_?$AAM?$AAU?$AAX?$AA7?$AA?$AA@ 10006a54     shell.obj
 0001:00005a78       ??_C@_1CC@GDKKKOBI@?$AAm?$AAp?$AAu?$AA_?$AAP?$AAI?$AAI?$AAR?$AAQ?$AA4?$AA0?$AA_?$AAM?$AAU?$AAX?$AA7?$AA?$AA@ 10006a78     shell.obj
 0001:00005a9c       ??_C@_1CC@DAAFKJCN@?$AAm?$AAp?$AAu?$AA_?$AAP?$AAI?$AAI?$AAR?$AAQ?$AA3?$AA9?$AA_?$AAM?$AAU?$AAX?$AA7?$AA?$AA@ 10006a9c     shell.obj
 0001:00005ac0       ??_C@_1CC@KNAKEIFL@?$AAm?$AAp?$AAu?$AA_?$AAP?$AAI?$AAI?$AAR?$AAQ?$AA3?$AA8?$AA_?$AAM?$AAU?$AAX?$AA7?$AA?$AA@ 10006ac0     shell.obj
 0001:00005ae4       ??_C@_1CC@PLJOPMKN@?$AAm?$AAp?$AAu?$AA_?$AAP?$AAI?$AAI?$AAR?$AAQ?$AA3?$AA7?$AA_?$AAM?$AAU?$AAX?$AA7?$AA?$AA@ 10006ae4     shell.obj
 0001:00005b08       ??_C@_1CC@GGJBBNNL@?$AAm?$AAp?$AAu?$AA_?$AAP?$AAI?$AAI?$AAR?$AAQ?$AA3?$AA6?$AA_?$AAM?$AAU?$AAX?$AA7?$AA?$AA@ 10006b08     shell.obj
 0001:00005b2c       ??_C@_1CC@BKPADIAA@?$AAm?$AAp?$AAu?$AA_?$AAP?$AAI?$AAI?$AAR?$AAQ?$AA3?$AA5?$AA_?$AAM?$AAU?$AAX?$AA7?$AA?$AA@ 10006b2c     shell.obj
 0001:00005b50       ??_C@_1CC@IHPPNJHG@?$AAm?$AAp?$AAu?$AA_?$AAP?$AAI?$AAI?$AAR?$AAQ?$AA3?$AA4?$AA_?$AAM?$AAU?$AAX?$AA7?$AA?$AA@ 10006b50     shell.obj
 0001:00005b74       ??_C@_1CC@OCDCHDLG@?$AAm?$AAp?$AAu?$AA_?$AAP?$AAI?$AAI?$AAR?$AAQ?$AA3?$AA3?$AA_?$AAM?$AAU?$AAX?$AA7?$AA?$AA@ 10006b74     shell.obj
 0001:00005b98       ??_C@_1CC@HPDNJCMA@?$AAm?$AAp?$AAu?$AA_?$AAP?$AAI?$AAI?$AAR?$AAQ?$AA3?$AA2?$AA_?$AAM?$AAU?$AAX?$AA7?$AA?$AA@ 10006b98     shell.obj
 0001:00005bbc       ??_C@_1CC@DFMLHBL@?$AAm?$AAp?$AAu?$AA_?$AAP?$AAI?$AAI?$AAR?$AAQ?$AA3?$AA1?$AA_?$AAM?$AAU?$AAX?$AA7?$AA?$AA@ 10006bbc     shell.obj
 0001:00005be0       ??_C@_1CC@JOFDFGGN@?$AAm?$AAp?$AAu?$AA_?$AAP?$AAI?$AAI?$AAR?$AAQ?$AA3?$AA0?$AA_?$AAM?$AAU?$AAX?$AA7?$AA?$AA@ 10006be0     shell.obj
 0001:00005c04       ??_C@_1CC@JOGNDILM@?$AAm?$AAp?$AAu?$AA_?$AAP?$AAI?$AAI?$AAR?$AAQ?$AA2?$AA9?$AA_?$AAM?$AAU?$AAX?$AA7?$AA?$AA@ 10006c04     shell.obj
 0001:00005c28       ??_C@_1CC@DGCNJMK@?$AAm?$AAp?$AAu?$AA_?$AAP?$AAI?$AAI?$AAR?$AAQ?$AA2?$AA8?$AA_?$AAM?$AAU?$AAX?$AA7?$AA?$AA@ 10006c28     shell.obj
 0001:00005c4c       ??_C@_1CC@FFPGGNDM@?$AAm?$AAp?$AAu?$AA_?$AAP?$AAI?$AAI?$AAR?$AAQ?$AA2?$AA7?$AA_?$AAM?$AAU?$AAX?$AA7?$AA?$AA@ 10006c4c     shell.obj
 0001:00005c70       ??_C@_1CC@MIPJIMEK@?$AAm?$AAp?$AAu?$AA_?$AAP?$AAI?$AAI?$AAR?$AAQ?$AA2?$AA6?$AA_?$AAM?$AAU?$AAX?$AA7?$AA?$AA@ 10006c70     shell.obj
 0001:00005c94       ??_C@_1CC@LEJIKJJB@?$AAm?$AAp?$AAu?$AA_?$AAP?$AAI?$AAI?$AAR?$AAQ?$AA2?$AA5?$AA_?$AAM?$AAU?$AAX?$AA7?$AA?$AA@ 10006c94     shell.obj
 0001:00005cb8       ??_C@_1CC@CJJHEIOH@?$AAm?$AAp?$AAu?$AA_?$AAP?$AAI?$AAI?$AAR?$AAQ?$AA2?$AA4?$AA_?$AAM?$AAU?$AAX?$AA7?$AA?$AA@ 10006cb8     shell.obj
 0001:00005cdc       ??_C@_1CC@EMFKOCCH@?$AAm?$AAp?$AAu?$AA_?$AAP?$AAI?$AAI?$AAR?$AAQ?$AA2?$AA3?$AA_?$AAM?$AAU?$AAX?$AA7?$AA?$AA@ 10006cdc     shell.obj
 0001:00005d00       ??_C@_1CC@NBFFADFB@?$AAm?$AAp?$AAu?$AA_?$AAP?$AAI?$AAI?$AAR?$AAQ?$AA2?$AA2?$AA_?$AAM?$AAU?$AAX?$AA7?$AA?$AA@ 10006d00     shell.obj
 0001:00005d24       ??_C@_1CC@KNDECGIK@?$AAm?$AAp?$AAu?$AA_?$AAP?$AAI?$AAI?$AAR?$AAQ?$AA2?$AA1?$AA_?$AAM?$AAU?$AAX?$AA7?$AA?$AA@ 10006d24     shell.obj
 0001:00005d48       ??_C@_1CC@DADLMHPM@?$AAm?$AAp?$AAu?$AA_?$AAP?$AAI?$AAI?$AAR?$AAQ?$AA2?$AA0?$AA_?$AAM?$AAU?$AAX?$AA7?$AA?$AA@ 10006d48     shell.obj
 0001:00005d6c       ??_C@_1CC@LHKFIMEO@?$AAm?$AAp?$AAu?$AA_?$AAP?$AAI?$AAI?$AAR?$AAQ?$AA1?$AA9?$AA_?$AAM?$AAU?$AAX?$AA7?$AA?$AA@ 10006d6c     shell.obj
 0001:00005d90       ??_C@_1CC@CKKKGNDI@?$AAm?$AAp?$AAu?$AA_?$AAP?$AAI?$AAI?$AAR?$AAQ?$AA1?$AA8?$AA_?$AAM?$AAU?$AAX?$AA7?$AA?$AA@ 10006d90     shell.obj
 0001:00005db4       ??_C@_1CC@HMDONJMO@?$AAm?$AAp?$AAu?$AA_?$AAP?$AAI?$AAI?$AAR?$AAQ?$AA1?$AA7?$AA_?$AAM?$AAU?$AAX?$AA7?$AA?$AA@ 10006db4     shell.obj
 0001:00005dd8       ??_C@_1CC@OBDBDILI@?$AAm?$AAp?$AAu?$AA_?$AAP?$AAI?$AAI?$AAR?$AAQ?$AA1?$AA6?$AA_?$AAM?$AAU?$AAX?$AA7?$AA?$AA@ 10006dd8     shell.obj
 0001:00005dfc       ??_C@_1CC@JNFABNGD@?$AAm?$AAp?$AAu?$AA_?$AAP?$AAI?$AAI?$AAR?$AAQ?$AA1?$AA5?$AA_?$AAM?$AAU?$AAX?$AA7?$AA?$AA@ 10006dfc     shell.obj
 0001:00005e20       ??_C@_1CC@FPPMBF@?$AAm?$AAp?$AAu?$AA_?$AAP?$AAI?$AAI?$AAR?$AAQ?$AA1?$AA4?$AA_?$AAM?$AAU?$AAX?$AA7?$AA?$AA@ 10006e20     shell.obj
 0001:00005e44       ??_C@_1CC@GFJCFGNF@?$AAm?$AAp?$AAu?$AA_?$AAP?$AAI?$AAI?$AAR?$AAQ?$AA1?$AA3?$AA_?$AAM?$AAU?$AAX?$AA7?$AA?$AA@ 10006e44     shell.obj
 0001:00005e68       ??_C@_1CC@PIJNLHKD@?$AAm?$AAp?$AAu?$AA_?$AAP?$AAI?$AAI?$AAR?$AAQ?$AA1?$AA2?$AA_?$AAM?$AAU?$AAX?$AA7?$AA?$AA@ 10006e68     shell.obj
 0001:00005e8c       ??_C@_1CC@IEPMJCHI@?$AAm?$AAp?$AAu?$AA_?$AAP?$AAI?$AAI?$AAR?$AAQ?$AA1?$AA1?$AA_?$AAM?$AAU?$AAX?$AA7?$AA?$AA@ 10006e8c     shell.obj
 0001:00005eb0       ??_C@_1CC@BJPDHDAO@?$AAm?$AAp?$AAu?$AA_?$AAP?$AAI?$AAI?$AAR?$AAQ?$AA1?$AA0?$AA_?$AAM?$AAU?$AAX?$AA7?$AA?$AA@ 10006eb0     shell.obj
 0001:00005ed4       ??_C@_1CA@FANNPBPN@?$AAm?$AAp?$AAu?$AA_?$AAP?$AAI?$AAI?$AAR?$AAQ?$AA9?$AA_?$AAM?$AAU?$AAX?$AA7?$AA?$AA@ 10006ed4     shell.obj
 0001:00005ef4       ??_C@_1CA@MNNCBAIL@?$AAm?$AAp?$AAu?$AA_?$AAP?$AAI?$AAI?$AAR?$AAQ?$AA8?$AA_?$AAM?$AAU?$AAX?$AA7?$AA?$AA@ 10006ef4     shell.obj
 0001:00005f14       ??_C@_1CA@JLEGKEHN@?$AAm?$AAp?$AAu?$AA_?$AAP?$AAI?$AAI?$AAR?$AAQ?$AA7?$AA_?$AAM?$AAU?$AAX?$AA7?$AA?$AA@ 10006f14     shell.obj
 0001:00005f34       ??_C@_1CA@GEJEFAL@?$AAm?$AAp?$AAu?$AA_?$AAP?$AAI?$AAI?$AAR?$AAQ?$AA6?$AA_?$AAM?$AAU?$AAX?$AA7?$AA?$AA@ 10006f34     shell.obj
 0001:00005f54       ??_C@_1CA@HKCIGANA@?$AAm?$AAp?$AAu?$AA_?$AAP?$AAI?$AAI?$AAR?$AAQ?$AA5?$AA_?$AAM?$AAU?$AAX?$AA7?$AA?$AA@ 10006f54     shell.obj
 0001:00005f74       ??_C@_1CA@OHCHIBKG@?$AAm?$AAp?$AAu?$AA_?$AAP?$AAI?$AAI?$AAR?$AAQ?$AA4?$AA_?$AAM?$AAU?$AAX?$AA7?$AA?$AA@ 10006f74     shell.obj
 0001:00005f94       ??_C@_1CA@ICOKCLGG@?$AAm?$AAp?$AAu?$AA_?$AAP?$AAI?$AAI?$AAR?$AAQ?$AA3?$AA_?$AAM?$AAU?$AAX?$AA7?$AA?$AA@ 10006f94     shell.obj
 0001:00005fb4       ??_C@_1CA@BPOFMKBA@?$AAm?$AAp?$AAu?$AA_?$AAP?$AAI?$AAI?$AAR?$AAQ?$AA2?$AA_?$AAM?$AAU?$AAX?$AA7?$AA?$AA@ 10006fb4     shell.obj
 0001:00005fd4       ??_C@_1CA@GDIEOPML@?$AAm?$AAp?$AAu?$AA_?$AAP?$AAI?$AAI?$AAR?$AAQ?$AA1?$AA_?$AAM?$AAU?$AAX?$AA7?$AA?$AA@ 10006fd4     shell.obj
 0001:00005ff4       ??_C@_1CM@ONHHHCNO@?$AAP?$AAR?$AAC?$AAM?$AA_?$AAD?$AAP?$AAL?$AAL?$AA4?$AA_?$AAB?$AAR?$AAE?$AAA?$AAK?$AAL?$AAO?$AAC?$AAK?$AAZ?$AA?$AA@ 10006ff4     shell.obj
 0001:00006020       ??_C@_1CM@DFLEAJPI@?$AAP?$AAR?$AAC?$AAM?$AA_?$AAD?$AAP?$AAL?$AAL?$AA3?$AA_?$AAB?$AAR?$AAE?$AAA?$AAK?$AAL?$AAO?$AAC?$AAK?$AAZ?$AA?$AA@ 10007020     shell.obj
 0001:0000604c       ??_C@_1CM@NCKJKPGP@?$AAP?$AAR?$AAC?$AAM?$AA_?$AAD?$AAP?$AAL?$AAL?$AA2?$AA_?$AAB?$AAR?$AAE?$AAA?$AAK?$AAL?$AAO?$AAC?$AAK?$AAZ?$AA?$AA@ 1000704c     shell.obj
 0001:00006078       ??_C@_1CM@CAPOECJH@?$AAP?$AAR?$AAC?$AAM?$AA_?$AAD?$AAP?$AAL?$AAL?$AA1?$AA_?$AAB?$AAR?$AAE?$AAA?$AAK?$AAL?$AAO?$AAC?$AAK?$AAZ?$AA?$AA@ 10007078     shell.obj
 0001:000060a4       ??_C@_1CO@HAOMLPFC@?$AAP?$AAR?$AAC?$AAM?$AA_?$AAS?$AAE?$AAC?$AAU?$AAR?$AAI?$AAT?$AAY?$AA_?$AAL?$AA4?$AA_?$AAG?$AAI?$AAC?$AAL?$AAK?$AA?$AA@ 100070a4     shell.obj
 0001:000060d4       ??_C@_1BO@FLCNODGA@?$AAP?$AAR?$AAC?$AAM?$AA_?$AAC?$AAA?$AAM?$AA_?$AAG?$AAI?$AAC?$AAL?$AAK?$AA?$AA@ 100070d4     shell.obj
 0001:000060f4       ??_C@_1DC@PLMBGLNH@?$AAP?$AAR?$AAC?$AAM?$AA_?$AAU?$AAS?$AAB?$AAH?$AAO?$AAS?$AAT?$AA_?$AAf?$AAo?$AAr?$AAc?$AAe?$AAW?$AAa?$AAk?$AAe?$AAu?$AAp?$AA?$AA@ 100070f4     shell.obj
 0001:00006128       ??_C@_1CM@DNAHNAAC@?$AAP?$AAR?$AAC?$AAM?$AA_?$AAD?$AAS?$AAS?$AA_?$AAd?$AAo?$AAm?$AAa?$AAi?$AAn?$AAI?$AAs?$AAI?$AAd?$AAl?$AAe?$AA?$AA@ 10007128     shell.obj
 0001:00006154       ??_C@_1DI@EMPHEBBO@?$AAP?$AAR?$AAC?$AAM?$AA_?$AAI?$AAV?$AAA?$AA2?$AA_?$AAd?$AAo?$AAm?$AAa?$AAi?$AAn?$AAF?$AAr?$AAe?$AAe?$AAz?$AAe?$AA_?$AAM?$AAU?$AAX?$AA7?$AA?$AA@ 10007154     shell.obj
 0001:0000618c       ??_C@_1DA@OGMHHODG@?$AAP?$AAR?$AAC?$AAM?$AA_?$AAS?$AAR?$AAL?$AA4?$AA_?$AAI?$AAC?$AAl?$AAk?$AAI?$AAs?$AAR?$AAu?$AAn?$AAn?$AAi?$AAn?$AAg?$AA?$AA@ 1000718c     shell.obj
 0001:000061bc       ??_C@_1CK@DCBLMPOK@?$AAP?$AAR?$AAC?$AAM?$AA_?$AAD?$AAP?$AAL?$AAL?$AA4?$AA_?$AAe?$AAn?$AAa?$AAb?$AAl?$AAe?$AAd?$AAi?$AAv?$AA?$AA@ 100071bc     shell.obj
 0001:000061e8       ??_C@_1CK@NKDIDEJC@?$AAP?$AAR?$AAC?$AAM?$AA_?$AAD?$AAP?$AAL?$AAL?$AA1?$AA_?$AAe?$AAn?$AAa?$AAb?$AAl?$AAe?$AAd?$AAi?$AAv?$AA?$AA@ 100071e8     shell.obj
 0001:00006214       ??_C@_1CG@NFLGEIAC@?$AAP?$AAR?$AAC?$AAM?$AA_?$AAF?$AAU?$AAN?$AAC?$AA_?$AA4?$AA8?$AAM?$AA_?$AAF?$AAC?$AAL?$AAK?$AA?$AA@ 10007214     shell.obj
 0001:0000623c       ??_C@_1CC@CKJOMAJC@?$AAm?$AAp?$AAu?$AA_?$AAP?$AAI?$AAI?$AAR?$AAQ?$AA9?$AA6?$AA_?$AAM?$AAU?$AAX?$AA6?$AA?$AA@ 1000723c     shell.obj
 0001:00006260       ??_C@_1CC@FGPPOFEJ@?$AAm?$AAp?$AAu?$AA_?$AAP?$AAI?$AAI?$AAR?$AAQ?$AA9?$AA5?$AA_?$AAM?$AAU?$AAX?$AA6?$AA?$AA@ 10007260     shell.obj
 0001:00006284       ??_C@_1CC@MLPAAEDP@?$AAm?$AAp?$AAu?$AA_?$AAP?$AAI?$AAI?$AAR?$AAQ?$AA9?$AA4?$AA_?$AAM?$AAU?$AAX?$AA6?$AA?$AA@ 10007284     shell.obj
 0001:000062a8       ??_C@_1CC@KODNKOPP@?$AAm?$AAp?$AAu?$AA_?$AAP?$AAI?$AAI?$AAR?$AAQ?$AA9?$AA3?$AA_?$AAM?$AAU?$AAX?$AA6?$AA?$AA@ 100072a8     shell.obj
 0001:000062cc       ??_C@_1CC@DDDCEPIJ@?$AAm?$AAp?$AAu?$AA_?$AAP?$AAI?$AAI?$AAR?$AAQ?$AA9?$AA2?$AA_?$AAM?$AAU?$AAX?$AA6?$AA?$AA@ 100072cc     shell.obj
 0001:000062f0       ??_C@_1CC@EPFDGKFC@?$AAm?$AAp?$AAu?$AA_?$AAP?$AAI?$AAI?$AAR?$AAQ?$AA9?$AA1?$AA_?$AAM?$AAU?$AAX?$AA6?$AA?$AA@ 100072f0     shell.obj
 0001:00006314       ??_C@_1CC@NCFMILCE@?$AAm?$AAp?$AAu?$AA_?$AAP?$AAI?$AAI?$AAR?$AAQ?$AA9?$AA0?$AA_?$AAM?$AAU?$AAX?$AA6?$AA?$AA@ 10007314     shell.obj
 0001:00006338       ??_C@_1CC@NCGCOFPF@?$AAm?$AAp?$AAu?$AA_?$AAP?$AAI?$AAI?$AAR?$AAQ?$AA8?$AA9?$AA_?$AAM?$AAU?$AAX?$AA6?$AA?$AA@ 10007338     shell.obj
 0001:0000635c       ??_C@_1CC@EPGNAEID@?$AAm?$AAp?$AAu?$AA_?$AAP?$AAI?$AAI?$AAR?$AAQ?$AA8?$AA8?$AA_?$AAM?$AAU?$AAX?$AA6?$AA?$AA@ 1000735c     shell.obj
 0001:00006380       ??_C@_1CC@BJPJLAHF@?$AAm?$AAp?$AAu?$AA_?$AAP?$AAI?$AAI?$AAR?$AAQ?$AA8?$AA7?$AA_?$AAM?$AAU?$AAX?$AA6?$AA?$AA@ 10007380     shell.obj
 0001:000063a4       ??_C@_1CC@IEPGFBAD@?$AAm?$AAp?$AAu?$AA_?$AAP?$AAI?$AAI?$AAR?$AAQ?$AA8?$AA6?$AA_?$AAM?$AAU?$AAX?$AA6?$AA?$AA@ 100073a4     shell.obj
 0001:000063c8       ??_C@_1CC@PIJHHENI@?$AAm?$AAp?$AAu?$AA_?$AAP?$AAI?$AAI?$AAR?$AAQ?$AA8?$AA5?$AA_?$AAM?$AAU?$AAX?$AA6?$AA?$AA@ 100073c8     shell.obj
 0001:000063ec       ??_C@_1CC@GFJIJFKO@?$AAm?$AAp?$AAu?$AA_?$AAP?$AAI?$AAI?$AAR?$AAQ?$AA8?$AA4?$AA_?$AAM?$AAU?$AAX?$AA6?$AA?$AA@ 100073ec     shell.obj
 0001:00006410       ??_C@_1CC@FFDPGO@?$AAm?$AAp?$AAu?$AA_?$AAP?$AAI?$AAI?$AAR?$AAQ?$AA8?$AA3?$AA_?$AAM?$AAU?$AAX?$AA6?$AA?$AA@ 10007410     shell.obj
 0001:00006434       ??_C@_1CC@JNFKNOBI@?$AAm?$AAp?$AAu?$AA_?$AAP?$AAI?$AAI?$AAR?$AAQ?$AA8?$AA2?$AA_?$AAM?$AAU?$AAX?$AA6?$AA?$AA@ 10007434     shell.obj
 0001:00006458       ??_C@_1CC@OBDLPLMD@?$AAm?$AAp?$AAu?$AA_?$AAP?$AAI?$AAI?$AAR?$AAQ?$AA8?$AA1?$AA_?$AAM?$AAU?$AAX?$AA6?$AA?$AA@ 10007458     shell.obj
 0001:0000647c       ??_C@_1CC@HMDEBKLF@?$AAm?$AAp?$AAu?$AA_?$AAP?$AAI?$AAI?$AAR?$AAQ?$AA8?$AA0?$AA_?$AAM?$AAU?$AAX?$AA6?$AA?$AA@ 1000747c     shell.obj
 0001:000064a0       ??_C@_1CC@FMIIICMP@?$AAm?$AAp?$AAu?$AA_?$AAP?$AAI?$AAI?$AAR?$AAQ?$AA7?$AA9?$AA_?$AAM?$AAU?$AAX?$AA6?$AA?$AA@ 100074a0     shell.obj
 0001:000064c4       ??_C@_1CC@MBIHGDLJ@?$AAm?$AAp?$AAu?$AA_?$AAP?$AAI?$AAI?$AAR?$AAQ?$AA7?$AA8?$AA_?$AAM?$AAU?$AAX?$AA6?$AA?$AA@ 100074c4     shell.obj
 0001:000064e8       ??_C@_1CC@JHBDNHEP@?$AAm?$AAp?$AAu?$AA_?$AAP?$AAI?$AAI?$AAR?$AAQ?$AA7?$AA7?$AA_?$AAM?$AAU?$AAX?$AA6?$AA?$AA@ 100074e8     shell.obj
 0001:0000650c       ??_C@_1CC@KBMDGDJ@?$AAm?$AAp?$AAu?$AA_?$AAP?$AAI?$AAI?$AAR?$AAQ?$AA7?$AA6?$AA_?$AAM?$AAU?$AAX?$AA6?$AA?$AA@ 1000750c     shell.obj
 0001:00006530       ??_C@_1CC@HGHNBDOC@?$AAm?$AAp?$AAu?$AA_?$AAP?$AAI?$AAI?$AAR?$AAQ?$AA7?$AA5?$AA_?$AAM?$AAU?$AAX?$AA6?$AA?$AA@ 10007530     shell.obj
 0001:00006554       ??_C@_1CC@OLHCPCJE@?$AAm?$AAp?$AAu?$AA_?$AAP?$AAI?$AAI?$AAR?$AAQ?$AA7?$AA4?$AA_?$AAM?$AAU?$AAX?$AA6?$AA?$AA@ 10007554     shell.obj
 0001:00006578       ??_C@_1CC@IOLPFIFE@?$AAm?$AAp?$AAu?$AA_?$AAP?$AAI?$AAI?$AAR?$AAQ?$AA7?$AA3?$AA_?$AAM?$AAU?$AAX?$AA6?$AA?$AA@ 10007578     shell.obj
 0001:0000659c       ??_C@_1CC@BDLALJCC@?$AAm?$AAp?$AAu?$AA_?$AAP?$AAI?$AAI?$AAR?$AAQ?$AA7?$AA2?$AA_?$AAM?$AAU?$AAX?$AA6?$AA?$AA@ 1000759c     shell.obj
 0001:000065c0       ??_C@_1CC@GPNBJMPJ@?$AAm?$AAp?$AAu?$AA_?$AAP?$AAI?$AAI?$AAR?$AAQ?$AA7?$AA1?$AA_?$AAM?$AAU?$AAX?$AA6?$AA?$AA@ 100075c0     shell.obj
 0001:000065e4       ??_C@_1CC@PCNOHNIP@?$AAm?$AAp?$AAu?$AA_?$AAP?$AAI?$AAI?$AAR?$AAQ?$AA7?$AA0?$AA_?$AAM?$AAU?$AAX?$AA6?$AA?$AA@ 100075e4     shell.obj
 0001:00006608       ??_C@_1CC@PCOABDFO@?$AAm?$AAp?$AAu?$AA_?$AAP?$AAI?$AAI?$AAR?$AAQ?$AA6?$AA9?$AA_?$AAM?$AAU?$AAX?$AA6?$AA?$AA@ 10007608     shell.obj
 0001:0000662c       ??_C@_1CC@GPOPPCCI@?$AAm?$AAp?$AAu?$AA_?$AAP?$AAI?$AAI?$AAR?$AAQ?$AA6?$AA8?$AA_?$AAM?$AAU?$AAX?$AA6?$AA?$AA@ 1000762c     shell.obj
 0001:00006650       ??_C@_1CC@DJHLEGNO@?$AAm?$AAp?$AAu?$AA_?$AAP?$AAI?$AAI?$AAR?$AAQ?$AA6?$AA7?$AA_?$AAM?$AAU?$AAX?$AA6?$AA?$AA@ 10007650     shell.obj
 0001:00006674       ??_C@_1CC@KEHEKHKI@?$AAm?$AAp?$AAu?$AA_?$AAP?$AAI?$AAI?$AAR?$AAQ?$AA6?$AA6?$AA_?$AAM?$AAU?$AAX?$AA6?$AA?$AA@ 10007674     shell.obj
 0001:00006698       ??_C@_1CC@NIBFICHD@?$AAm?$AAp?$AAu?$AA_?$AAP?$AAI?$AAI?$AAR?$AAQ?$AA6?$AA5?$AA_?$AAM?$AAU?$AAX?$AA6?$AA?$AA@ 10007698     shell.obj
 0001:000066bc       ??_C@_1CC@EFBKGDAF@?$AAm?$AAp?$AAu?$AA_?$AAP?$AAI?$AAI?$AAR?$AAQ?$AA6?$AA4?$AA_?$AAM?$AAU?$AAX?$AA6?$AA?$AA@ 100076bc     shell.obj
 0001:000066e0       ??_C@_1CC@CANHMJMF@?$AAm?$AAp?$AAu?$AA_?$AAP?$AAI?$AAI?$AAR?$AAQ?$AA6?$AA3?$AA_?$AAM?$AAU?$AAX?$AA6?$AA?$AA@ 100076e0     shell.obj
 0001:00006704       ??_C@_1CC@LNNICILD@?$AAm?$AAp?$AAu?$AA_?$AAP?$AAI?$AAI?$AAR?$AAQ?$AA6?$AA2?$AA_?$AAM?$AAU?$AAX?$AA6?$AA?$AA@ 10007704     shell.obj
 0001:00006728       ??_C@_1CC@MBLJANGI@?$AAm?$AAp?$AAu?$AA_?$AAP?$AAI?$AAI?$AAR?$AAQ?$AA6?$AA1?$AA_?$AAM?$AAU?$AAX?$AA6?$AA?$AA@ 10007728     shell.obj
 0001:0000674c       ??_C@_1CC@FMLGOMBO@?$AAm?$AAp?$AAu?$AA_?$AAP?$AAI?$AAI?$AAR?$AAQ?$AA6?$AA0?$AA_?$AAM?$AAU?$AAX?$AA6?$AA?$AA@ 1000774c     shell.obj
 0001:00006770       ??_C@_1CC@NLCIKHKM@?$AAm?$AAp?$AAu?$AA_?$AAP?$AAI?$AAI?$AAR?$AAQ?$AA5?$AA9?$AA_?$AAM?$AAU?$AAX?$AA6?$AA?$AA@ 10007770     shell.obj
 0001:00006794       ??_C@_1CC@EGCHEGNK@?$AAm?$AAp?$AAu?$AA_?$AAP?$AAI?$AAI?$AAR?$AAQ?$AA5?$AA8?$AA_?$AAM?$AAU?$AAX?$AA6?$AA?$AA@ 10007794     shell.obj
 0001:000067b8       ??_C@_1CC@BALDPCCM@?$AAm?$AAp?$AAu?$AA_?$AAP?$AAI?$AAI?$AAR?$AAQ?$AA5?$AA7?$AA_?$AAM?$AAU?$AAX?$AA6?$AA?$AA@ 100077b8     shell.obj
 0001:000067dc       ??_C@_1CC@INLMBDFK@?$AAm?$AAp?$AAu?$AA_?$AAP?$AAI?$AAI?$AAR?$AAQ?$AA5?$AA6?$AA_?$AAM?$AAU?$AAX?$AA6?$AA?$AA@ 100077dc     shell.obj
 0001:00006800       ??_C@_1CC@PBNNDGIB@?$AAm?$AAp?$AAu?$AA_?$AAP?$AAI?$AAI?$AAR?$AAQ?$AA5?$AA5?$AA_?$AAM?$AAU?$AAX?$AA6?$AA?$AA@ 10007800     shell.obj
 0001:00006824       ??_C@_1CC@GMNCNHPH@?$AAm?$AAp?$AAu?$AA_?$AAP?$AAI?$AAI?$AAR?$AAQ?$AA5?$AA4?$AA_?$AAM?$AAU?$AAX?$AA6?$AA?$AA@ 10007824     shell.obj
 0001:00006848       ??_C@_1CC@JBPHNDH@?$AAm?$AAp?$AAu?$AA_?$AAP?$AAI?$AAI?$AAR?$AAQ?$AA5?$AA3?$AA_?$AAM?$AAU?$AAX?$AA6?$AA?$AA@ 10007848     shell.obj
 0001:0000686c       ??_C@_1CC@JEBAJMEB@?$AAm?$AAp?$AAu?$AA_?$AAP?$AAI?$AAI?$AAR?$AAQ?$AA5?$AA2?$AA_?$AAM?$AAU?$AAX?$AA6?$AA?$AA@ 1000786c     shell.obj
 0001:00006890       ??_C@_1CC@OIHBLJJK@?$AAm?$AAp?$AAu?$AA_?$AAP?$AAI?$AAI?$AAR?$AAQ?$AA5?$AA1?$AA_?$AAM?$AAU?$AAX?$AA6?$AA?$AA@ 10007890     shell.obj
 0001:000068b4       ??_C@_1CC@HFHOFIOM@?$AAm?$AAp?$AAu?$AA_?$AAP?$AAI?$AAI?$AAR?$AAQ?$AA5?$AA0?$AA_?$AAM?$AAU?$AAX?$AA6?$AA?$AA@ 100078b4     shell.obj
 0001:000068d8       ??_C@_1CC@HFEADGDN@?$AAm?$AAp?$AAu?$AA_?$AAP?$AAI?$AAI?$AAR?$AAQ?$AA4?$AA9?$AA_?$AAM?$AAU?$AAX?$AA6?$AA?$AA@ 100078d8     shell.obj
 0001:000068fc       ??_C@_1CC@OIEPNHEL@?$AAm?$AAp?$AAu?$AA_?$AAP?$AAI?$AAI?$AAR?$AAQ?$AA4?$AA8?$AA_?$AAM?$AAU?$AAX?$AA6?$AA?$AA@ 100078fc     shell.obj
 0001:00006920       ??_C@_1CC@LONLGDLN@?$AAm?$AAp?$AAu?$AA_?$AAP?$AAI?$AAI?$AAR?$AAQ?$AA4?$AA7?$AA_?$AAM?$AAU?$AAX?$AA6?$AA?$AA@ 10007920     shell.obj
 0001:00006944       ??_C@_1CC@CDNEICML@?$AAm?$AAp?$AAu?$AA_?$AAP?$AAI?$AAI?$AAR?$AAQ?$AA4?$AA6?$AA_?$AAM?$AAU?$AAX?$AA6?$AA?$AA@ 10007944     shell.obj
 0001:00006968       ??_C@_1CC@FPLFKHBA@?$AAm?$AAp?$AAu?$AA_?$AAP?$AAI?$AAI?$AAR?$AAQ?$AA4?$AA5?$AA_?$AAM?$AAU?$AAX?$AA6?$AA?$AA@ 10007968     shell.obj
 0001:0000698c       ??_C@_1CC@MCLKEGGG@?$AAm?$AAp?$AAu?$AA_?$AAP?$AAI?$AAI?$AAR?$AAQ?$AA4?$AA4?$AA_?$AAM?$AAU?$AAX?$AA6?$AA?$AA@ 1000798c     shell.obj
 0001:000069b0       ??_C@_1CC@KHHHOMKG@?$AAm?$AAp?$AAu?$AA_?$AAP?$AAI?$AAI?$AAR?$AAQ?$AA4?$AA3?$AA_?$AAM?$AAU?$AAX?$AA6?$AA?$AA@ 100079b0     shell.obj
 0001:000069d4       ??_C@_1CC@DKHIANNA@?$AAm?$AAp?$AAu?$AA_?$AAP?$AAI?$AAI?$AAR?$AAQ?$AA4?$AA2?$AA_?$AAM?$AAU?$AAX?$AA6?$AA?$AA@ 100079d4     shell.obj
 0001:000069f8       ??_C@_1CC@EGBJCIAL@?$AAm?$AAp?$AAu?$AA_?$AAP?$AAI?$AAI?$AAR?$AAQ?$AA4?$AA1?$AA_?$AAM?$AAU?$AAX?$AA6?$AA?$AA@ 100079f8     shell.obj
 0001:00006a1c       ??_C@_1CC@NLBGMJHN@?$AAm?$AAp?$AAu?$AA_?$AAP?$AAI?$AAI?$AAR?$AAQ?$AA4?$AA0?$AA_?$AAM?$AAU?$AAX?$AA6?$AA?$AA@ 10007a1c     shell.obj
 0001:00006a40       ??_C@_1CC@IILJMOEI@?$AAm?$AAp?$AAu?$AA_?$AAP?$AAI?$AAI?$AAR?$AAQ?$AA3?$AA9?$AA_?$AAM?$AAU?$AAX?$AA6?$AA?$AA@ 10007a40     shell.obj
 0001:00006a64       ??_C@_1CC@BFLGCPDO@?$AAm?$AAp?$AAu?$AA_?$AAP?$AAI?$AAI?$AAR?$AAQ?$AA3?$AA8?$AA_?$AAM?$AAU?$AAX?$AA6?$AA?$AA@ 10007a64     shell.obj
 0001:00006a88       ??_C@_1CC@EDCCJLMI@?$AAm?$AAp?$AAu?$AA_?$AAP?$AAI?$AAI?$AAR?$AAQ?$AA3?$AA7?$AA_?$AAM?$AAU?$AAX?$AA6?$AA?$AA@ 10007a88     shell.obj
 0001:00006aac       ??_C@_1CC@NOCNHKLO@?$AAm?$AAp?$AAu?$AA_?$AAP?$AAI?$AAI?$AAR?$AAQ?$AA3?$AA6?$AA_?$AAM?$AAU?$AAX?$AA6?$AA?$AA@ 10007aac     shell.obj
 0001:00006ad0       ??_C@_1CC@KCEMFPGF@?$AAm?$AAp?$AAu?$AA_?$AAP?$AAI?$AAI?$AAR?$AAQ?$AA3?$AA5?$AA_?$AAM?$AAU?$AAX?$AA6?$AA?$AA@ 10007ad0     shell.obj
 0001:00006af4       ??_C@_1CC@DPEDLOBD@?$AAm?$AAp?$AAu?$AA_?$AAP?$AAI?$AAI?$AAR?$AAQ?$AA3?$AA4?$AA_?$AAM?$AAU?$AAX?$AA6?$AA?$AA@ 10007af4     shell.obj
 0001:00006b18       ??_C@_1CC@FKIOBEND@?$AAm?$AAp?$AAu?$AA_?$AAP?$AAI?$AAI?$AAR?$AAQ?$AA3?$AA3?$AA_?$AAM?$AAU?$AAX?$AA6?$AA?$AA@ 10007b18     shell.obj
 0001:00006b3c       ??_C@_1CC@MHIBPFKF@?$AAm?$AAp?$AAu?$AA_?$AAP?$AAI?$AAI?$AAR?$AAQ?$AA3?$AA2?$AA_?$AAM?$AAU?$AAX?$AA6?$AA?$AA@ 10007b3c     shell.obj
 0001:00006b60       ??_C@_1CC@LLOANAHO@?$AAm?$AAp?$AAu?$AA_?$AAP?$AAI?$AAI?$AAR?$AAQ?$AA3?$AA1?$AA_?$AAM?$AAU?$AAX?$AA6?$AA?$AA@ 10007b60     shell.obj
 0001:00006b84       ??_C@_1CC@CGOPDBAI@?$AAm?$AAp?$AAu?$AA_?$AAP?$AAI?$AAI?$AAR?$AAQ?$AA3?$AA0?$AA_?$AAM?$AAU?$AAX?$AA6?$AA?$AA@ 10007b84     shell.obj
 0001:00006ba8       ??_C@_1CC@CGNBFPNJ@?$AAm?$AAp?$AAu?$AA_?$AAP?$AAI?$AAI?$AAR?$AAQ?$AA2?$AA9?$AA_?$AAM?$AAU?$AAX?$AA6?$AA?$AA@ 10007ba8     shell.obj
 0001:00006bcc       ??_C@_1CC@LLNOLOKP@?$AAm?$AAp?$AAu?$AA_?$AAP?$AAI?$AAI?$AAR?$AAQ?$AA2?$AA8?$AA_?$AAM?$AAU?$AAX?$AA6?$AA?$AA@ 10007bcc     shell.obj
 0001:00006bf0       ??_C@_1CC@ONEKAKFJ@?$AAm?$AAp?$AAu?$AA_?$AAP?$AAI?$AAI?$AAR?$AAQ?$AA2?$AA7?$AA_?$AAM?$AAU?$AAX?$AA6?$AA?$AA@ 10007bf0     shell.obj
 0001:00006c14       ??_C@_1CC@HAEFOLCP@?$AAm?$AAp?$AAu?$AA_?$AAP?$AAI?$AAI?$AAR?$AAQ?$AA2?$AA6?$AA_?$AAM?$AAU?$AAX?$AA6?$AA?$AA@ 10007c14     shell.obj
 0001:00006c38       ??_C@_1CC@MCEMOPE@?$AAm?$AAp?$AAu?$AA_?$AAP?$AAI?$AAI?$AAR?$AAQ?$AA2?$AA5?$AA_?$AAM?$AAU?$AAX?$AA6?$AA?$AA@ 10007c38     shell.obj
 0001:00006c5c       ??_C@_1CC@JBCLCPIC@?$AAm?$AAp?$AAu?$AA_?$AAP?$AAI?$AAI?$AAR?$AAQ?$AA2?$AA4?$AA_?$AAM?$AAU?$AAX?$AA6?$AA?$AA@ 10007c5c     shell.obj
 0001:00006c80       ??_C@_1CC@PEOGIFEC@?$AAm?$AAp?$AAu?$AA_?$AAP?$AAI?$AAI?$AAR?$AAQ?$AA2?$AA3?$AA_?$AAM?$AAU?$AAX?$AA6?$AA?$AA@ 10007c80     shell.obj
 0001:00006ca4       ??_C@_1CC@GJOJGEDE@?$AAm?$AAp?$AAu?$AA_?$AAP?$AAI?$AAI?$AAR?$AAQ?$AA2?$AA2?$AA_?$AAM?$AAU?$AAX?$AA6?$AA?$AA@ 10007ca4     shell.obj
 0001:00006cc8       ??_C@_1CC@BFIIEBOP@?$AAm?$AAp?$AAu?$AA_?$AAP?$AAI?$AAI?$AAR?$AAQ?$AA2?$AA1?$AA_?$AAM?$AAU?$AAX?$AA6?$AA?$AA@ 10007cc8     shell.obj
 0001:00006cec       ??_C@_1CC@IIIHKAJJ@?$AAm?$AAp?$AAu?$AA_?$AAP?$AAI?$AAI?$AAR?$AAQ?$AA2?$AA0?$AA_?$AAM?$AAU?$AAX?$AA6?$AA?$AA@ 10007cec     shell.obj
 0001:00006d10       ??_C@_1CC@PBJOLCL@?$AAm?$AAp?$AAu?$AA_?$AAP?$AAI?$AAI?$AAR?$AAQ?$AA1?$AA9?$AA_?$AAM?$AAU?$AAX?$AA6?$AA?$AA@ 10007d10     shell.obj
 0001:00006d34       ??_C@_1CC@JCBGAKFN@?$AAm?$AAp?$AAu?$AA_?$AAP?$AAI?$AAI?$AAR?$AAQ?$AA1?$AA8?$AA_?$AAM?$AAU?$AAX?$AA6?$AA?$AA@ 10007d34     shell.obj
 0001:00006d58       ??_C@_1CC@MEICLOKL@?$AAm?$AAp?$AAu?$AA_?$AAP?$AAI?$AAI?$AAR?$AAQ?$AA1?$AA7?$AA_?$AAM?$AAU?$AAX?$AA6?$AA?$AA@ 10007d58     shell.obj
 0001:00006d7c       ??_C@_1CC@FJINFPNN@?$AAm?$AAp?$AAu?$AA_?$AAP?$AAI?$AAI?$AAR?$AAQ?$AA1?$AA6?$AA_?$AAM?$AAU?$AAX?$AA6?$AA?$AA@ 10007d7c     shell.obj
 0001:00006da0       ??_C@_1CC@CFOMHKAG@?$AAm?$AAp?$AAu?$AA_?$AAP?$AAI?$AAI?$AAR?$AAQ?$AA1?$AA5?$AA_?$AAM?$AAU?$AAX?$AA6?$AA?$AA@ 10007da0     shell.obj
 0001:00006dc4       ??_C@_1CC@LIODJLHA@?$AAm?$AAp?$AAu?$AA_?$AAP?$AAI?$AAI?$AAR?$AAQ?$AA1?$AA4?$AA_?$AAM?$AAU?$AAX?$AA6?$AA?$AA@ 10007dc4     shell.obj
 0001:00006de8       ??_C@_1CC@NNCODBLA@?$AAm?$AAp?$AAu?$AA_?$AAP?$AAI?$AAI?$AAR?$AAQ?$AA1?$AA3?$AA_?$AAM?$AAU?$AAX?$AA6?$AA?$AA@ 10007de8     shell.obj
 0001:00006e0c       ??_C@_1CC@EACBNAMG@?$AAm?$AAp?$AAu?$AA_?$AAP?$AAI?$AAI?$AAR?$AAQ?$AA1?$AA2?$AA_?$AAM?$AAU?$AAX?$AA6?$AA?$AA@ 10007e0c     shell.obj
 0001:00006e30       ??_C@_1CC@DMEAPFBN@?$AAm?$AAp?$AAu?$AA_?$AAP?$AAI?$AAI?$AAR?$AAQ?$AA1?$AA1?$AA_?$AAM?$AAU?$AAX?$AA6?$AA?$AA@ 10007e30     shell.obj
 0001:00006e54       ??_C@_1CC@KBEPBEGL@?$AAm?$AAp?$AAu?$AA_?$AAP?$AAI?$AAI?$AAR?$AAQ?$AA1?$AA0?$AA_?$AAM?$AAU?$AAX?$AA6?$AA?$AA@ 10007e54     shell.obj
 0001:00006e78       ??_C@_1CA@OIGBJGJI@?$AAm?$AAp?$AAu?$AA_?$AAP?$AAI?$AAI?$AAR?$AAQ?$AA9?$AA_?$AAM?$AAU?$AAX?$AA6?$AA?$AA@ 10007e78     shell.obj
 0001:00006e98       ??_C@_1CA@HFGOHHOO@?$AAm?$AAp?$AAu?$AA_?$AAP?$AAI?$AAI?$AAR?$AAQ?$AA8?$AA_?$AAM?$AAU?$AAX?$AA6?$AA?$AA@ 10007e98     shell.obj
 0001:00006eb8       ??_C@_1CA@CDPKMDBI@?$AAm?$AAp?$AAu?$AA_?$AAP?$AAI?$AAI?$AAR?$AAQ?$AA7?$AA_?$AAM?$AAU?$AAX?$AA6?$AA?$AA@ 10007eb8     shell.obj
 0001:00006ed8       ??_C@_1CA@LOPFCCGO@?$AAm?$AAp?$AAu?$AA_?$AAP?$AAI?$AAI?$AAR?$AAQ?$AA6?$AA_?$AAM?$AAU?$AAX?$AA6?$AA?$AA@ 10007ed8     shell.obj
 0001:00006ef8       ??_C@_1CA@MCJEAHLF@?$AAm?$AAp?$AAu?$AA_?$AAP?$AAI?$AAI?$AAR?$AAQ?$AA5?$AA_?$AAM?$AAU?$AAX?$AA6?$AA?$AA@ 10007ef8     shell.obj
 0001:00006f18       ??_C@_1CA@FPJLOGMD@?$AAm?$AAp?$AAu?$AA_?$AAP?$AAI?$AAI?$AAR?$AAQ?$AA4?$AA_?$AAM?$AAU?$AAX?$AA6?$AA?$AA@ 10007f18     shell.obj
 0001:00006f38       ??_C@_1CA@DKFGEMAD@?$AAm?$AAp?$AAu?$AA_?$AAP?$AAI?$AAI?$AAR?$AAQ?$AA3?$AA_?$AAM?$AAU?$AAX?$AA6?$AA?$AA@ 10007f38     shell.obj
 0001:00006f58       ??_C@_1CA@KHFJKNHF@?$AAm?$AAp?$AAu?$AA_?$AAP?$AAI?$AAI?$AAR?$AAQ?$AA2?$AA_?$AAM?$AAU?$AAX?$AA6?$AA?$AA@ 10007f58     shell.obj
 0001:00006f78       ??_C@_1CA@NLDIIIKO@?$AAm?$AAp?$AAu?$AA_?$AAP?$AAI?$AAI?$AAR?$AAQ?$AA1?$AA_?$AAM?$AAU?$AAX?$AA6?$AA?$AA@ 10007f78     shell.obj
 0001:00006f98       ??_C@_1CG@FCFPACNL@?$AAP?$AAR?$AAC?$AAM?$AA_?$AAD?$AAP?$AAL?$AAL?$AA4?$AA_?$AAL?$AAO?$AAS?$AAS?$AAR?$AAE?$AAF?$AA?$AA@ 10007f98     shell.obj
 0001:00006fc0       ??_C@_1CG@LDBLKEEI@?$AAP?$AAR?$AAC?$AAM?$AA_?$AAD?$AAP?$AAL?$AAL?$AA3?$AA_?$AAL?$AAO?$AAS?$AAS?$AAR?$AAE?$AAF?$AA?$AA@ 10007fc0     shell.obj
 0001:00006fe8       ??_C@_1CG@NGHMJPAO@?$AAP?$AAR?$AAC?$AAM?$AA_?$AAD?$AAP?$AAL?$AAL?$AA2?$AA_?$AAL?$AAO?$AAS?$AAS?$AAR?$AAE?$AAF?$AA?$AA@ 10007fe8     shell.obj
 0001:00007010       ??_C@_1CG@HJNFNCME@?$AAP?$AAR?$AAC?$AAM?$AA_?$AAD?$AAP?$AAL?$AAL?$AA1?$AA_?$AAL?$AAO?$AAS?$AAS?$AAR?$AAE?$AAF?$AA?$AA@ 10008010     shell.obj
 0001:00007038       ??_C@_1CO@INBFEHCH@?$AAP?$AAR?$AAC?$AAM?$AA_?$AAS?$AAE?$AAC?$AAU?$AAR?$AAI?$AAT?$AAY?$AA_?$AAL?$AA3?$AA_?$AAG?$AAI?$AAC?$AAL?$AAK?$AA?$AA@ 10008038     shell.obj
 0001:00007068       ??_C@_1BO@FHLLLKFN@?$AAP?$AAR?$AAC?$AAM?$AA_?$AAD?$AAS?$AAS?$AA_?$AAG?$AAI?$AAC?$AAL?$AAK?$AA?$AA@ 10008068     shell.obj
 0001:00007088       ??_C@_1DE@KIICKEBK@?$AAP?$AAR?$AAC?$AAM?$AA_?$AAU?$AAS?$AAB?$AAH?$AAO?$AAS?$AAT?$AA_?$AAd?$AAo?$AAm?$AAa?$AAi?$AAn?$AAI?$AAs?$AAi?$AAd?$AAl?$AAe?$AA?$AA@ 10008088     shell.obj
 0001:000070bc       ??_C@_1DG@DOGBAKBJ@?$AAP?$AAR?$AAC?$AAM?$AA_?$AAC?$AAA?$AAM?$AA_?$AAd?$AAo?$AAm?$AAa?$AAi?$AAn?$AAF?$AAr?$AAe?$AAe?$AAz?$AAe?$AA_?$AAM?$AAU?$AAX?$AA6?$AA?$AA@ 100080bc     shell.obj
 0001:000070f4       ??_C@_1CK@HOJCPHK@?$AAP?$AAR?$AAC?$AAM?$AA_?$AAI?$AAV?$AAA?$AA2?$AA_?$AAf?$AAo?$AAr?$AAc?$AAe?$AAS?$AAl?$AAe?$AAe?$AAp?$AA?$AA@ 100080f4     shell.obj
 0001:00007120       ??_C@_1DA@HJOMDPKC@?$AAP?$AAR?$AAC?$AAM?$AA_?$AAW?$AAK?$AAU?$AAP?$AA_?$AAI?$AAC?$AAl?$AAk?$AAI?$AAs?$AAR?$AAu?$AAn?$AAn?$AAi?$AAn?$AAg?$AA?$AA@ 10008120     shell.obj
 0001:00007150       ??_C@_1CE@MFHAHDGC@?$AAP?$AAR?$AAC?$AAM?$AA_?$AAD?$AAP?$AAL?$AAL?$AA4?$AA_?$AAe?$AAn?$AAa?$AAb?$AAl?$AAe?$AA?$AA@ 10008150     shell.obj
 0001:00007174       ??_C@_1CE@CBIKBCIF@?$AAP?$AAR?$AAC?$AAM?$AA_?$AAD?$AAP?$AAL?$AAL?$AA1?$AA_?$AAe?$AAn?$AAa?$AAb?$AAl?$AAe?$AA?$AA@ 10008174     shell.obj
 0001:00007198       ??_C@_1CG@GJPHBEC@?$AAP?$AAR?$AAC?$AAM?$AA_?$AAF?$AAU?$AAN?$AAC?$AA_?$AA9?$AA6?$AAM?$AA_?$AAF?$AAC?$AAL?$AAK?$AA?$AA@ 10008198     shell.obj
 0001:000071c0       ??_C@_1CC@DICLGPHM@?$AAm?$AAp?$AAu?$AA_?$AAP?$AAI?$AAI?$AAR?$AAQ?$AA9?$AA6?$AA_?$AAM?$AAU?$AAX?$AA5?$AA?$AA@ 100081c0     shell.obj
 0001:000071e4       ??_C@_1CC@EEEKEKKH@?$AAm?$AAp?$AAu?$AA_?$AAP?$AAI?$AAI?$AAR?$AAQ?$AA9?$AA5?$AA_?$AAM?$AAU?$AAX?$AA5?$AA?$AA@ 100081e4     shell.obj
 0001:00007208       ??_C@_1CC@NJEFKLNB@?$AAm?$AAp?$AAu?$AA_?$AAP?$AAI?$AAI?$AAR?$AAQ?$AA9?$AA4?$AA_?$AAM?$AAU?$AAX?$AA5?$AA?$AA@ 10008208     shell.obj
 0001:0000722c       ??_C@_1CC@LMIIABBB@?$AAm?$AAp?$AAu?$AA_?$AAP?$AAI?$AAI?$AAR?$AAQ?$AA9?$AA3?$AA_?$AAM?$AAU?$AAX?$AA5?$AA?$AA@ 1000822c     shell.obj
 0001:00007250       ??_C@_1CC@CBIHOAGH@?$AAm?$AAp?$AAu?$AA_?$AAP?$AAI?$AAI?$AAR?$AAQ?$AA9?$AA2?$AA_?$AAM?$AAU?$AAX?$AA5?$AA?$AA@ 10008250     shell.obj
 0001:00007274       ??_C@_1CC@FNOGMFLM@?$AAm?$AAp?$AAu?$AA_?$AAP?$AAI?$AAI?$AAR?$AAQ?$AA9?$AA1?$AA_?$AAM?$AAU?$AAX?$AA5?$AA?$AA@ 10008274     shell.obj
 0001:00007298       ??_C@_1CC@MAOJCEMK@?$AAm?$AAp?$AAu?$AA_?$AAP?$AAI?$AAI?$AAR?$AAQ?$AA9?$AA0?$AA_?$AAM?$AAU?$AAX?$AA5?$AA?$AA@ 10008298     shell.obj
 0001:000072bc       ??_C@_1CC@MANHEKBL@?$AAm?$AAp?$AAu?$AA_?$AAP?$AAI?$AAI?$AAR?$AAQ?$AA8?$AA9?$AA_?$AAM?$AAU?$AAX?$AA5?$AA?$AA@ 100082bc     shell.obj
 0001:000072e0       ??_C@_1CC@FNNIKLGN@?$AAm?$AAp?$AAu?$AA_?$AAP?$AAI?$AAI?$AAR?$AAQ?$AA8?$AA8?$AA_?$AAM?$AAU?$AAX?$AA5?$AA?$AA@ 100082e0     shell.obj
 0001:00007304       ??_C@_1CC@LEMBPJL@?$AAm?$AAp?$AAu?$AA_?$AAP?$AAI?$AAI?$AAR?$AAQ?$AA8?$AA7?$AA_?$AAM?$AAU?$AAX?$AA5?$AA?$AA@ 10008304     shell.obj
 0001:00007328       ??_C@_1CC@JGEDPOON@?$AAm?$AAp?$AAu?$AA_?$AAP?$AAI?$AAI?$AAR?$AAQ?$AA8?$AA6?$AA_?$AAM?$AAU?$AAX?$AA5?$AA?$AA@ 10008328     shell.obj
 0001:0000734c       ??_C@_1CC@OKCCNLDG@?$AAm?$AAp?$AAu?$AA_?$AAP?$AAI?$AAI?$AAR?$AAQ?$AA8?$AA5?$AA_?$AAM?$AAU?$AAX?$AA5?$AA?$AA@ 1000834c     shell.obj
 0001:00007370       ??_C@_1CC@HHCNDKEA@?$AAm?$AAp?$AAu?$AA_?$AAP?$AAI?$AAI?$AAR?$AAQ?$AA8?$AA4?$AA_?$AAM?$AAU?$AAX?$AA5?$AA?$AA@ 10008370     shell.obj
 0001:00007394       ??_C@_1CC@BCOAJAIA@?$AAm?$AAp?$AAu?$AA_?$AAP?$AAI?$AAI?$AAR?$AAQ?$AA8?$AA3?$AA_?$AAM?$AAU?$AAX?$AA5?$AA?$AA@ 10008394     shell.obj
 0001:000073b8       ??_C@_1CC@IPOPHBPG@?$AAm?$AAp?$AAu?$AA_?$AAP?$AAI?$AAI?$AAR?$AAQ?$AA8?$AA2?$AA_?$AAM?$AAU?$AAX?$AA5?$AA?$AA@ 100083b8     shell.obj
 0001:000073dc       ??_C@_1CC@PDIOFECN@?$AAm?$AAp?$AAu?$AA_?$AAP?$AAI?$AAI?$AAR?$AAQ?$AA8?$AA1?$AA_?$AAM?$AAU?$AAX?$AA5?$AA?$AA@ 100083dc     shell.obj
 0001:00007400       ??_C@_1CC@GOIBLFFL@?$AAm?$AAp?$AAu?$AA_?$AAP?$AAI?$AAI?$AAR?$AAQ?$AA8?$AA0?$AA_?$AAM?$AAU?$AAX?$AA5?$AA?$AA@ 10008400     shell.obj
 0001:00007424       ??_C@_1CC@EODNCNCB@?$AAm?$AAp?$AAu?$AA_?$AAP?$AAI?$AAI?$AAR?$AAQ?$AA7?$AA9?$AA_?$AAM?$AAU?$AAX?$AA5?$AA?$AA@ 10008424     shell.obj
 0001:00007448       ??_C@_1CC@NDDCMMFH@?$AAm?$AAp?$AAu?$AA_?$AAP?$AAI?$AAI?$AAR?$AAQ?$AA7?$AA8?$AA_?$AAM?$AAU?$AAX?$AA5?$AA?$AA@ 10008448     shell.obj
 0001:0000746c       ??_C@_1CC@IFKGHIKB@?$AAm?$AAp?$AAu?$AA_?$AAP?$AAI?$AAI?$AAR?$AAQ?$AA7?$AA7?$AA_?$AAM?$AAU?$AAX?$AA5?$AA?$AA@ 1000846c     shell.obj
 0001:00007490       ??_C@_1CC@BIKJJJNH@?$AAm?$AAp?$AAu?$AA_?$AAP?$AAI?$AAI?$AAR?$AAQ?$AA7?$AA6?$AA_?$AAM?$AAU?$AAX?$AA5?$AA?$AA@ 10008490     shell.obj
 0001:000074b4       ??_C@_1CC@GEMILMAM@?$AAm?$AAp?$AAu?$AA_?$AAP?$AAI?$AAI?$AAR?$AAQ?$AA7?$AA5?$AA_?$AAM?$AAU?$AAX?$AA5?$AA?$AA@ 100084b4     shell.obj
 0001:000074d8       ??_C@_1CC@PJMHFNHK@?$AAm?$AAp?$AAu?$AA_?$AAP?$AAI?$AAI?$AAR?$AAQ?$AA7?$AA4?$AA_?$AAM?$AAU?$AAX?$AA5?$AA?$AA@ 100084d8     shell.obj
 0001:000074fc       ??_C@_1CC@JMAKPHLK@?$AAm?$AAp?$AAu?$AA_?$AAP?$AAI?$AAI?$AAR?$AAQ?$AA7?$AA3?$AA_?$AAM?$AAU?$AAX?$AA5?$AA?$AA@ 100084fc     shell.obj
 0001:00007520       ??_C@_1CC@BAFBGMM@?$AAm?$AAp?$AAu?$AA_?$AAP?$AAI?$AAI?$AAR?$AAQ?$AA7?$AA2?$AA_?$AAM?$AAU?$AAX?$AA5?$AA?$AA@ 10008520     shell.obj
 0001:00007544       ??_C@_1CC@HNGEDDBH@?$AAm?$AAp?$AAu?$AA_?$AAP?$AAI?$AAI?$AAR?$AAQ?$AA7?$AA1?$AA_?$AAM?$AAU?$AAX?$AA5?$AA?$AA@ 10008544     shell.obj
 0001:00007568       ??_C@_1CC@OAGLNCGB@?$AAm?$AAp?$AAu?$AA_?$AAP?$AAI?$AAI?$AAR?$AAQ?$AA7?$AA0?$AA_?$AAM?$AAU?$AAX?$AA5?$AA?$AA@ 10008568     shell.obj
 0001:0000758c       ??_C@_1CC@OAFFLMLA@?$AAm?$AAp?$AAu?$AA_?$AAP?$AAI?$AAI?$AAR?$AAQ?$AA6?$AA9?$AA_?$AAM?$AAU?$AAX?$AA5?$AA?$AA@ 1000858c     shell.obj
 0001:000075b0       ??_C@_1CC@HNFKFNMG@?$AAm?$AAp?$AAu?$AA_?$AAP?$AAI?$AAI?$AAR?$AAQ?$AA6?$AA8?$AA_?$AAM?$AAU?$AAX?$AA5?$AA?$AA@ 100085b0     shell.obj
 0001:000075d4       ??_C@_1CC@CLMOOJDA@?$AAm?$AAp?$AAu?$AA_?$AAP?$AAI?$AAI?$AAR?$AAQ?$AA6?$AA7?$AA_?$AAM?$AAU?$AAX?$AA5?$AA?$AA@ 100085d4     shell.obj
 0001:000075f8       ??_C@_1CC@LGMBAIEG@?$AAm?$AAp?$AAu?$AA_?$AAP?$AAI?$AAI?$AAR?$AAQ?$AA6?$AA6?$AA_?$AAM?$AAU?$AAX?$AA5?$AA?$AA@ 100085f8     shell.obj
 0001:0000761c       ??_C@_1CC@MKKACNJN@?$AAm?$AAp?$AAu?$AA_?$AAP?$AAI?$AAI?$AAR?$AAQ?$AA6?$AA5?$AA_?$AAM?$AAU?$AAX?$AA5?$AA?$AA@ 1000861c     shell.obj
 0001:00007640       ??_C@_1CC@FHKPMMOL@?$AAm?$AAp?$AAu?$AA_?$AAP?$AAI?$AAI?$AAR?$AAQ?$AA6?$AA4?$AA_?$AAM?$AAU?$AAX?$AA5?$AA?$AA@ 10008640     shell.obj
 0001:00007664       ??_C@_1CC@DCGCGGCL@?$AAm?$AAp?$AAu?$AA_?$AAP?$AAI?$AAI?$AAR?$AAQ?$AA6?$AA3?$AA_?$AAM?$AAU?$AAX?$AA5?$AA?$AA@ 10008664     shell.obj
 0001:00007688       ??_C@_1CC@KPGNIHFN@?$AAm?$AAp?$AAu?$AA_?$AAP?$AAI?$AAI?$AAR?$AAQ?$AA6?$AA2?$AA_?$AAM?$AAU?$AAX?$AA5?$AA?$AA@ 10008688     shell.obj
 0001:000076ac       ??_C@_1CC@NDAMKCIG@?$AAm?$AAp?$AAu?$AA_?$AAP?$AAI?$AAI?$AAR?$AAQ?$AA6?$AA1?$AA_?$AAM?$AAU?$AAX?$AA5?$AA?$AA@ 100086ac     shell.obj
 0001:000076d0       ??_C@_1CC@EOADEDPA@?$AAm?$AAp?$AAu?$AA_?$AAP?$AAI?$AAI?$AAR?$AAQ?$AA6?$AA0?$AA_?$AAM?$AAU?$AAX?$AA5?$AA?$AA@ 100086d0     shell.obj
 0001:000076f4       ??_C@_1CC@MJJNAIEC@?$AAm?$AAp?$AAu?$AA_?$AAP?$AAI?$AAI?$AAR?$AAQ?$AA5?$AA9?$AA_?$AAM?$AAU?$AAX?$AA5?$AA?$AA@ 100086f4     shell.obj
 0001:00007718       ??_C@_1CC@FEJCOJDE@?$AAm?$AAp?$AAu?$AA_?$AAP?$AAI?$AAI?$AAR?$AAQ?$AA5?$AA8?$AA_?$AAM?$AAU?$AAX?$AA5?$AA?$AA@ 10008718     shell.obj
 0001:0000773c       ??_C@_1CC@CAGFNMC@?$AAm?$AAp?$AAu?$AA_?$AAP?$AAI?$AAI?$AAR?$AAQ?$AA5?$AA7?$AA_?$AAM?$AAU?$AAX?$AA5?$AA?$AA@ 1000873c     shell.obj
 0001:00007760       ??_C@_1CC@JPAJLMLE@?$AAm?$AAp?$AAu?$AA_?$AAP?$AAI?$AAI?$AAR?$AAQ?$AA5?$AA6?$AA_?$AAM?$AAU?$AAX?$AA5?$AA?$AA@ 10008760     shell.obj
 0001:00007784       ??_C@_1CC@ODGIJJGP@?$AAm?$AAp?$AAu?$AA_?$AAP?$AAI?$AAI?$AAR?$AAQ?$AA5?$AA5?$AA_?$AAM?$AAU?$AAX?$AA5?$AA?$AA@ 10008784     shell.obj
 0001:000077a8       ??_C@_1CC@HOGHHIBJ@?$AAm?$AAp?$AAu?$AA_?$AAP?$AAI?$AAI?$AAR?$AAQ?$AA5?$AA4?$AA_?$AAM?$AAU?$AAX?$AA5?$AA?$AA@ 100087a8     shell.obj
 0001:000077cc       ??_C@_1CC@BLKKNCNJ@?$AAm?$AAp?$AAu?$AA_?$AAP?$AAI?$AAI?$AAR?$AAQ?$AA5?$AA3?$AA_?$AAM?$AAU?$AAX?$AA5?$AA?$AA@ 100087cc     shell.obj
 0001:000077f0       ??_C@_1CC@IGKFDDKP@?$AAm?$AAp?$AAu?$AA_?$AAP?$AAI?$AAI?$AAR?$AAQ?$AA5?$AA2?$AA_?$AAM?$AAU?$AAX?$AA5?$AA?$AA@ 100087f0     shell.obj
 0001:00007814       ??_C@_1CC@PKMEBGHE@?$AAm?$AAp?$AAu?$AA_?$AAP?$AAI?$AAI?$AAR?$AAQ?$AA5?$AA1?$AA_?$AAM?$AAU?$AAX?$AA5?$AA?$AA@ 10008814     shell.obj
 0001:00007838       ??_C@_1CC@GHMLPHAC@?$AAm?$AAp?$AAu?$AA_?$AAP?$AAI?$AAI?$AAR?$AAQ?$AA5?$AA0?$AA_?$AAM?$AAU?$AAX?$AA5?$AA?$AA@ 10008838     shell.obj
 0001:0000785c       ??_C@_1CC@GHPFJJND@?$AAm?$AAp?$AAu?$AA_?$AAP?$AAI?$AAI?$AAR?$AAQ?$AA4?$AA9?$AA_?$AAM?$AAU?$AAX?$AA5?$AA?$AA@ 1000885c     shell.obj
 0001:00007880       ??_C@_1CC@PKPKHIKF@?$AAm?$AAp?$AAu?$AA_?$AAP?$AAI?$AAI?$AAR?$AAQ?$AA4?$AA8?$AA_?$AAM?$AAU?$AAX?$AA5?$AA?$AA@ 10008880     shell.obj
 0001:000078a4       ??_C@_1CC@KMGOMMFD@?$AAm?$AAp?$AAu?$AA_?$AAP?$AAI?$AAI?$AAR?$AAQ?$AA4?$AA7?$AA_?$AAM?$AAU?$AAX?$AA5?$AA?$AA@ 100088a4     shell.obj
 0001:000078c8       ??_C@_1CC@DBGBCNCF@?$AAm?$AAp?$AAu?$AA_?$AAP?$AAI?$AAI?$AAR?$AAQ?$AA4?$AA6?$AA_?$AAM?$AAU?$AAX?$AA5?$AA?$AA@ 100088c8     shell.obj
 0001:000078ec       ??_C@_1CC@ENAAAIPO@?$AAm?$AAp?$AAu?$AA_?$AAP?$AAI?$AAI?$AAR?$AAQ?$AA4?$AA5?$AA_?$AAM?$AAU?$AAX?$AA5?$AA?$AA@ 100088ec     shell.obj
 0001:00007910       ??_C@_1CC@NAAPOJII@?$AAm?$AAp?$AAu?$AA_?$AAP?$AAI?$AAI?$AAR?$AAQ?$AA4?$AA4?$AA_?$AAM?$AAU?$AAX?$AA5?$AA?$AA@ 10008910     shell.obj
 0001:00007934       ??_C@_1CC@LFMCEDEI@?$AAm?$AAp?$AAu?$AA_?$AAP?$AAI?$AAI?$AAR?$AAQ?$AA4?$AA3?$AA_?$AAM?$AAU?$AAX?$AA5?$AA?$AA@ 10008934     shell.obj
 0001:00007958       ??_C@_1CC@CIMNKCDO@?$AAm?$AAp?$AAu?$AA_?$AAP?$AAI?$AAI?$AAR?$AAQ?$AA4?$AA2?$AA_?$AAM?$AAU?$AAX?$AA5?$AA?$AA@ 10008958     shell.obj
 0001:0000797c       ??_C@_1CC@FEKMIHOF@?$AAm?$AAp?$AAu?$AA_?$AAP?$AAI?$AAI?$AAR?$AAQ?$AA4?$AA1?$AA_?$AAM?$AAU?$AAX?$AA5?$AA?$AA@ 1000897c     shell.obj
 0001:000079a0       ??_C@_1CC@MJKDGGJD@?$AAm?$AAp?$AAu?$AA_?$AAP?$AAI?$AAI?$AAR?$AAQ?$AA4?$AA0?$AA_?$AAM?$AAU?$AAX?$AA5?$AA?$AA@ 100089a0     shell.obj
 0001:000079c4       ??_C@_1CC@JKAMGBKG@?$AAm?$AAp?$AAu?$AA_?$AAP?$AAI?$AAI?$AAR?$AAQ?$AA3?$AA9?$AA_?$AAM?$AAU?$AAX?$AA5?$AA?$AA@ 100089c4     shell.obj
 0001:000079e8       ??_C@_1CC@HADIANA@?$AAm?$AAp?$AAu?$AA_?$AAP?$AAI?$AAI?$AAR?$AAQ?$AA3?$AA8?$AA_?$AAM?$AAU?$AAX?$AA5?$AA?$AA@ 100089e8     shell.obj
 0001:00007a0c       ??_C@_1CC@FBJHDECG@?$AAm?$AAp?$AAu?$AA_?$AAP?$AAI?$AAI?$AAR?$AAQ?$AA3?$AA7?$AA_?$AAM?$AAU?$AAX?$AA5?$AA?$AA@ 10008a0c     shell.obj
 0001:00007a30       ??_C@_1CC@MMJINFFA@?$AAm?$AAp?$AAu?$AA_?$AAP?$AAI?$AAI?$AAR?$AAQ?$AA3?$AA6?$AA_?$AAM?$AAU?$AAX?$AA5?$AA?$AA@ 10008a30     shell.obj
 0001:00007a54       ??_C@_1CC@LAPJPAIL@?$AAm?$AAp?$AAu?$AA_?$AAP?$AAI?$AAI?$AAR?$AAQ?$AA3?$AA5?$AA_?$AAM?$AAU?$AAX?$AA5?$AA?$AA@ 10008a54     shell.obj
 0001:00007a78       ??_C@_1CC@CNPGBBPN@?$AAm?$AAp?$AAu?$AA_?$AAP?$AAI?$AAI?$AAR?$AAQ?$AA3?$AA4?$AA_?$AAM?$AAU?$AAX?$AA5?$AA?$AA@ 10008a78     shell.obj
 0001:00007a9c       ??_C@_1CC@EIDLLLDN@?$AAm?$AAp?$AAu?$AA_?$AAP?$AAI?$AAI?$AAR?$AAQ?$AA3?$AA3?$AA_?$AAM?$AAU?$AAX?$AA5?$AA?$AA@ 10008a9c     shell.obj
 0001:00007ac0       ??_C@_1CC@NFDEFKEL@?$AAm?$AAp?$AAu?$AA_?$AAP?$AAI?$AAI?$AAR?$AAQ?$AA3?$AA2?$AA_?$AAM?$AAU?$AAX?$AA5?$AA?$AA@ 10008ac0     shell.obj
 0001:00007ae4       ??_C@_1CC@KJFFHPJA@?$AAm?$AAp?$AAu?$AA_?$AAP?$AAI?$AAI?$AAR?$AAQ?$AA3?$AA1?$AA_?$AAM?$AAU?$AAX?$AA5?$AA?$AA@ 10008ae4     shell.obj
 0001:00007b08       ??_C@_1CC@DEFKJOOG@?$AAm?$AAp?$AAu?$AA_?$AAP?$AAI?$AAI?$AAR?$AAQ?$AA3?$AA0?$AA_?$AAM?$AAU?$AAX?$AA5?$AA?$AA@ 10008b08     shell.obj
 0001:00007b2c       ??_C@_1CC@DEGEPADH@?$AAm?$AAp?$AAu?$AA_?$AAP?$AAI?$AAI?$AAR?$AAQ?$AA2?$AA9?$AA_?$AAM?$AAU?$AAX?$AA5?$AA?$AA@ 10008b2c     shell.obj
 0001:00007b50       ??_C@_1CC@KJGLBBEB@?$AAm?$AAp?$AAu?$AA_?$AAP?$AAI?$AAI?$AAR?$AAQ?$AA2?$AA8?$AA_?$AAM?$AAU?$AAX?$AA5?$AA?$AA@ 10008b50     shell.obj
 0001:00007b74       ??_C@_1CC@PPPPKFLH@?$AAm?$AAp?$AAu?$AA_?$AAP?$AAI?$AAI?$AAR?$AAQ?$AA2?$AA7?$AA_?$AAM?$AAU?$AAX?$AA5?$AA?$AA@ 10008b74     shell.obj
 0001:00007b98       ??_C@_1CC@GCPAEEMB@?$AAm?$AAp?$AAu?$AA_?$AAP?$AAI?$AAI?$AAR?$AAQ?$AA2?$AA6?$AA_?$AAM?$AAU?$AAX?$AA5?$AA?$AA@ 10008b98     shell.obj
 0001:00007bbc       ??_C@_1CC@BOJBGBBK@?$AAm?$AAp?$AAu?$AA_?$AAP?$AAI?$AAI?$AAR?$AAQ?$AA2?$AA5?$AA_?$AAM?$AAU?$AAX?$AA5?$AA?$AA@ 10008bbc     shell.obj
 0001:00007be0       ??_C@_1CC@IDJOIAGM@?$AAm?$AAp?$AAu?$AA_?$AAP?$AAI?$AAI?$AAR?$AAQ?$AA2?$AA4?$AA_?$AAM?$AAU?$AAX?$AA5?$AA?$AA@ 10008be0     shell.obj
 0001:00007c04       ??_C@_1CC@OGFDCKKM@?$AAm?$AAp?$AAu?$AA_?$AAP?$AAI?$AAI?$AAR?$AAQ?$AA2?$AA3?$AA_?$AAM?$AAU?$AAX?$AA5?$AA?$AA@ 10008c04     shell.obj
 0001:00007c28       ??_C@_1CC@HLFMMLNK@?$AAm?$AAp?$AAu?$AA_?$AAP?$AAI?$AAI?$AAR?$AAQ?$AA2?$AA2?$AA_?$AAM?$AAU?$AAX?$AA5?$AA?$AA@ 10008c28     shell.obj
 0001:00007c4c       ??_C@_1CC@HDNOOAB@?$AAm?$AAp?$AAu?$AA_?$AAP?$AAI?$AAI?$AAR?$AAQ?$AA2?$AA1?$AA_?$AAM?$AAU?$AAX?$AA5?$AA?$AA@ 10008c4c     shell.obj
 0001:00007c70       ??_C@_1CC@JKDCAPHH@?$AAm?$AAp?$AAu?$AA_?$AAP?$AAI?$AAI?$AAR?$AAQ?$AA2?$AA0?$AA_?$AAM?$AAU?$AAX?$AA5?$AA?$AA@ 10008c70     shell.obj
 0001:00007c94       ??_C@_1CC@BNKMEEMF@?$AAm?$AAp?$AAu?$AA_?$AAP?$AAI?$AAI?$AAR?$AAQ?$AA1?$AA9?$AA_?$AAM?$AAU?$AAX?$AA5?$AA?$AA@ 10008c94     shell.obj
 0001:00007cb8       ??_C@_1CC@IAKDKFLD@?$AAm?$AAp?$AAu?$AA_?$AAP?$AAI?$AAI?$AAR?$AAQ?$AA1?$AA8?$AA_?$AAM?$AAU?$AAX?$AA5?$AA?$AA@ 10008cb8     shell.obj
 0001:00007cdc       ??_C@_1CC@NGDHBBEF@?$AAm?$AAp?$AAu?$AA_?$AAP?$AAI?$AAI?$AAR?$AAQ?$AA1?$AA7?$AA_?$AAM?$AAU?$AAX?$AA5?$AA?$AA@ 10008cdc     shell.obj
 0001:00007d00       ??_C@_1CC@ELDIPADD@?$AAm?$AAp?$AAu?$AA_?$AAP?$AAI?$AAI?$AAR?$AAQ?$AA1?$AA6?$AA_?$AAM?$AAU?$AAX?$AA5?$AA?$AA@ 10008d00     shell.obj
 0001:00007d24       ??_C@_1CC@DHFJNFOI@?$AAm?$AAp?$AAu?$AA_?$AAP?$AAI?$AAI?$AAR?$AAQ?$AA1?$AA5?$AA_?$AAM?$AAU?$AAX?$AA5?$AA?$AA@ 10008d24     shell.obj
 0001:00007d48       ??_C@_1CC@KKFGDEJO@?$AAm?$AAp?$AAu?$AA_?$AAP?$AAI?$AAI?$AAR?$AAQ?$AA1?$AA4?$AA_?$AAM?$AAU?$AAX?$AA5?$AA?$AA@ 10008d48     shell.obj
 0001:00007d6c       ??_C@_1CC@MPJLJOFO@?$AAm?$AAp?$AAu?$AA_?$AAP?$AAI?$AAI?$AAR?$AAQ?$AA1?$AA3?$AA_?$AAM?$AAU?$AAX?$AA5?$AA?$AA@ 10008d6c     shell.obj
 0001:00007d90       ??_C@_1CC@FCJEHPCI@?$AAm?$AAp?$AAu?$AA_?$AAP?$AAI?$AAI?$AAR?$AAQ?$AA1?$AA2?$AA_?$AAM?$AAU?$AAX?$AA5?$AA?$AA@ 10008d90     shell.obj
 0001:00007db4       ??_C@_1CC@COPFFKPD@?$AAm?$AAp?$AAu?$AA_?$AAP?$AAI?$AAI?$AAR?$AAQ?$AA1?$AA1?$AA_?$AAM?$AAU?$AAX?$AA5?$AA?$AA@ 10008db4     shell.obj
 0001:00007dd8       ??_C@_1CC@LDPKLLIF@?$AAm?$AAp?$AAu?$AA_?$AAP?$AAI?$AAI?$AAR?$AAQ?$AA1?$AA0?$AA_?$AAM?$AAU?$AAX?$AA5?$AA?$AA@ 10008dd8     shell.obj
 0001:00007dfc       ??_C@_1CA@PKNEDJHG@?$AAm?$AAp?$AAu?$AA_?$AAP?$AAI?$AAI?$AAR?$AAQ?$AA9?$AA_?$AAM?$AAU?$AAX?$AA5?$AA?$AA@ 10008dfc     shell.obj
 0001:00007e1c       ??_C@_1CA@GHNLNIAA@?$AAm?$AAp?$AAu?$AA_?$AAP?$AAI?$AAI?$AAR?$AAQ?$AA8?$AA_?$AAM?$AAU?$AAX?$AA5?$AA?$AA@ 10008e1c     shell.obj
 0001:00007e3c       ??_C@_1CA@DBEPGMPG@?$AAm?$AAp?$AAu?$AA_?$AAP?$AAI?$AAI?$AAR?$AAQ?$AA7?$AA_?$AAM?$AAU?$AAX?$AA5?$AA?$AA@ 10008e3c     shell.obj
 0001:00007e5c       ??_C@_1CA@KMEAINIA@?$AAm?$AAp?$AAu?$AA_?$AAP?$AAI?$AAI?$AAR?$AAQ?$AA6?$AA_?$AAM?$AAU?$AAX?$AA5?$AA?$AA@ 10008e5c     shell.obj
 0001:00007e7c       ??_C@_1CA@NACBKIFL@?$AAm?$AAp?$AAu?$AA_?$AAP?$AAI?$AAI?$AAR?$AAQ?$AA5?$AA_?$AAM?$AAU?$AAX?$AA5?$AA?$AA@ 10008e7c     shell.obj
 0001:00007e9c       ??_C@_1CA@ENCOEJCN@?$AAm?$AAp?$AAu?$AA_?$AAP?$AAI?$AAI?$AAR?$AAQ?$AA4?$AA_?$AAM?$AAU?$AAX?$AA5?$AA?$AA@ 10008e9c     shell.obj
 0001:00007ebc       ??_C@_1CA@CIODODON@?$AAm?$AAp?$AAu?$AA_?$AAP?$AAI?$AAI?$AAR?$AAQ?$AA3?$AA_?$AAM?$AAU?$AAX?$AA5?$AA?$AA@ 10008ebc     shell.obj
 0001:00007edc       ??_C@_1CA@LFOMACJL@?$AAm?$AAp?$AAu?$AA_?$AAP?$AAI?$AAI?$AAR?$AAQ?$AA2?$AA_?$AAM?$AAU?$AAX?$AA5?$AA?$AA@ 10008edc     shell.obj
 0001:00007efc       ??_C@_1CA@MJINCHEA@?$AAm?$AAp?$AAu?$AA_?$AAP?$AAI?$AAI?$AAR?$AAQ?$AA1?$AA_?$AAM?$AAU?$AAX?$AA5?$AA?$AA@ 10008efc     shell.obj
 0001:00007f1c       ??_C@_1CG@ILKMCKFO@?$AAP?$AAR?$AAC?$AAM?$AA_?$AAC?$AAO?$AAR?$AAE?$AA_?$AAL?$AA4?$AA_?$AAG?$AAI?$AAC?$AAL?$AAK?$AA?$AA@ 10008f1c     shell.obj
 0001:00007f44       ??_C@_1CM@DCLAOHFJ@?$AAP?$AAR?$AAC?$AAM?$AA_?$AAE?$AAM?$AAU?$AA_?$AAd?$AAo?$AAm?$AAa?$AAi?$AAn?$AAN?$AAr?$AAe?$AAa?$AAd?$AAy?$AA?$AA@ 10008f44     shell.obj
 0001:00007f70       ??_C@_1CI@LIDLNHDH@?$AAP?$AAR?$AAC?$AAM?$AA_?$AAC?$AAA?$AAM?$AA_?$AAf?$AAo?$AAr?$AAc?$AAe?$AAS?$AAl?$AAe?$AAe?$AAp?$AA?$AA@ 10008f70     shell.obj
 0001:00007f98       ??_C@_1CO@JMAKGJI@?$AAP?$AAR?$AAC?$AAM?$AA_?$AAI?$AAV?$AAA?$AA2?$AA_?$AAd?$AAo?$AAm?$AAa?$AAi?$AAn?$AAN?$AAr?$AAe?$AAa?$AAd?$AAy?$AA?$AA@ 10008f98     shell.obj
 0001:00007fc8       ??_C@_1CG@KPMNEPPO@?$AAC?$AAM?$AA_?$AAS?$AAy?$AAs?$AAC?$AAl?$AAk?$AAI?$AAs?$AAR?$AAu?$AAn?$AAn?$AAi?$AAn?$AAg?$AA?$AA@ 10008fc8     shell.obj
 0001:00007ff0       ??_C@_1CC@JMIGBCOC@?$AAP?$AAR?$AAC?$AAM?$AA_?$AAD?$AAP?$AAL?$AAL?$AA4?$AA_?$AAi?$AAn?$AAi?$AAt?$AAz?$AA?$AA@ 10008ff0     shell.obj
 0001:00008014       ??_C@_1CC@OGNPMPPE@?$AAP?$AAR?$AAC?$AAM?$AA_?$AAD?$AAP?$AAL?$AAL?$AA1?$AA_?$AAi?$AAn?$AAi?$AAt?$AAz?$AA?$AA@ 10009014     shell.obj
 0001:00008038       ??_C@_1BK@KKLOMHKC@?$AAP?$AAR?$AAC?$AAM?$AA_?$AAR?$AAM?$AA_?$AAI?$AAC?$AAL?$AAK?$AA?$AA@ 10009038     shell.obj
 0001:00008054       ??_C@_1CC@IAJHAIBJ@?$AAm?$AAp?$AAu?$AA_?$AAP?$AAI?$AAI?$AAR?$AAQ?$AA9?$AA6?$AA_?$AAM?$AAU?$AAX?$AA4?$AA?$AA@ 10009054     shell.obj
 0001:00008078       ??_C@_1CC@PMPGCNMC@?$AAm?$AAp?$AAu?$AA_?$AAP?$AAI?$AAI?$AAR?$AAQ?$AA9?$AA5?$AA_?$AAM?$AAU?$AAX?$AA4?$AA?$AA@ 10009078     shell.obj
 0001:0000809c       ??_C@_1CC@GBPJMMLE@?$AAm?$AAp?$AAu?$AA_?$AAP?$AAI?$AAI?$AAR?$AAQ?$AA9?$AA4?$AA_?$AAM?$AAU?$AAX?$AA4?$AA?$AA@ 1000909c     shell.obj
 0001:000080c0       ??_C@_1CC@EDEGGHE@?$AAm?$AAp?$AAu?$AA_?$AAP?$AAI?$AAI?$AAR?$AAQ?$AA9?$AA3?$AA_?$AAM?$AAU?$AAX?$AA4?$AA?$AA@ 100090c0     shell.obj
 0001:000080e4       ??_C@_1CC@JJDLIHAC@?$AAm?$AAp?$AAu?$AA_?$AAP?$AAI?$AAI?$AAR?$AAQ?$AA9?$AA2?$AA_?$AAM?$AAU?$AAX?$AA4?$AA?$AA@ 100090e4     shell.obj
 0001:00008108       ??_C@_1CC@OFFKKCNJ@?$AAm?$AAp?$AAu?$AA_?$AAP?$AAI?$AAI?$AAR?$AAQ?$AA9?$AA1?$AA_?$AAM?$AAU?$AAX?$AA4?$AA?$AA@ 10009108     shell.obj
 0001:0000812c       ??_C@_1CC@HIFFEDKP@?$AAm?$AAp?$AAu?$AA_?$AAP?$AAI?$AAI?$AAR?$AAQ?$AA9?$AA0?$AA_?$AAM?$AAU?$AAX?$AA4?$AA?$AA@ 1000912c     shell.obj
 0001:00008150       ??_C@_1CC@HIGLCNHO@?$AAm?$AAp?$AAu?$AA_?$AAP?$AAI?$AAI?$AAR?$AAQ?$AA8?$AA9?$AA_?$AAM?$AAU?$AAX?$AA4?$AA?$AA@ 10009150     shell.obj
 0001:00008174       ??_C@_1CC@OFGEMMAI@?$AAm?$AAp?$AAu?$AA_?$AAP?$AAI?$AAI?$AAR?$AAQ?$AA8?$AA8?$AA_?$AAM?$AAU?$AAX?$AA4?$AA?$AA@ 10009174     shell.obj
 0001:00008198       ??_C@_1CC@LDPAHIPO@?$AAm?$AAp?$AAu?$AA_?$AAP?$AAI?$AAI?$AAR?$AAQ?$AA8?$AA7?$AA_?$AAM?$AAU?$AAX?$AA4?$AA?$AA@ 10009198     shell.obj
 0001:000081bc       ??_C@_1CC@COPPJJII@?$AAm?$AAp?$AAu?$AA_?$AAP?$AAI?$AAI?$AAR?$AAQ?$AA8?$AA6?$AA_?$AAM?$AAU?$AAX?$AA4?$AA?$AA@ 100091bc     shell.obj
 0001:000081e0       ??_C@_1CC@FCJOLMFD@?$AAm?$AAp?$AAu?$AA_?$AAP?$AAI?$AAI?$AAR?$AAQ?$AA8?$AA5?$AA_?$AAM?$AAU?$AAX?$AA4?$AA?$AA@ 100091e0     shell.obj
 0001:00008204       ??_C@_1CC@MPJBFNCF@?$AAm?$AAp?$AAu?$AA_?$AAP?$AAI?$AAI?$AAR?$AAQ?$AA8?$AA4?$AA_?$AAM?$AAU?$AAX?$AA4?$AA?$AA@ 10009204     shell.obj
 0001:00008228       ??_C@_1CC@KKFMPHOF@?$AAm?$AAp?$AAu?$AA_?$AAP?$AAI?$AAI?$AAR?$AAQ?$AA8?$AA3?$AA_?$AAM?$AAU?$AAX?$AA4?$AA?$AA@ 10009228     shell.obj
 0001:0000824c       ??_C@_1CC@DHFDBGJD@?$AAm?$AAp?$AAu?$AA_?$AAP?$AAI?$AAI?$AAR?$AAQ?$AA8?$AA2?$AA_?$AAM?$AAU?$AAX?$AA4?$AA?$AA@ 1000924c     shell.obj
 0001:00008270       ??_C@_1CC@ELDCDDEI@?$AAm?$AAp?$AAu?$AA_?$AAP?$AAI?$AAI?$AAR?$AAQ?$AA8?$AA1?$AA_?$AAM?$AAU?$AAX?$AA4?$AA?$AA@ 10009270     shell.obj
 0001:00008294       ??_C@_1CC@NGDNNCDO@?$AAm?$AAp?$AAu?$AA_?$AAP?$AAI?$AAI?$AAR?$AAQ?$AA8?$AA0?$AA_?$AAM?$AAU?$AAX?$AA4?$AA?$AA@ 10009294     shell.obj
 0001:000082b8       ??_C@_1CC@PGIBEKEE@?$AAm?$AAp?$AAu?$AA_?$AAP?$AAI?$AAI?$AAR?$AAQ?$AA7?$AA9?$AA_?$AAM?$AAU?$AAX?$AA4?$AA?$AA@ 100092b8     shell.obj
 0001:000082dc       ??_C@_1CC@GLIOKLDC@?$AAm?$AAp?$AAu?$AA_?$AAP?$AAI?$AAI?$AAR?$AAQ?$AA7?$AA8?$AA_?$AAM?$AAU?$AAX?$AA4?$AA?$AA@ 100092dc     shell.obj
 0001:00008300       ??_C@_1CC@DNBKBPME@?$AAm?$AAp?$AAu?$AA_?$AAP?$AAI?$AAI?$AAR?$AAQ?$AA7?$AA7?$AA_?$AAM?$AAU?$AAX?$AA4?$AA?$AA@ 10009300     shell.obj
 0001:00008324       ??_C@_1CC@KABFPOLC@?$AAm?$AAp?$AAu?$AA_?$AAP?$AAI?$AAI?$AAR?$AAQ?$AA7?$AA6?$AA_?$AAM?$AAU?$AAX?$AA4?$AA?$AA@ 10009324     shell.obj
 0001:00008348       ??_C@_1CC@NMHENLGJ@?$AAm?$AAp?$AAu?$AA_?$AAP?$AAI?$AAI?$AAR?$AAQ?$AA7?$AA5?$AA_?$AAM?$AAU?$AAX?$AA4?$AA?$AA@ 10009348     shell.obj
 0001:0000836c       ??_C@_1CC@EBHLDKBP@?$AAm?$AAp?$AAu?$AA_?$AAP?$AAI?$AAI?$AAR?$AAQ?$AA7?$AA4?$AA_?$AAM?$AAU?$AAX?$AA4?$AA?$AA@ 1000936c     shell.obj
 0001:00008390       ??_C@_1CC@CELGJANP@?$AAm?$AAp?$AAu?$AA_?$AAP?$AAI?$AAI?$AAR?$AAQ?$AA7?$AA3?$AA_?$AAM?$AAU?$AAX?$AA4?$AA?$AA@ 10009390     shell.obj
 0001:000083b4       ??_C@_1CC@LJLJHBKJ@?$AAm?$AAp?$AAu?$AA_?$AAP?$AAI?$AAI?$AAR?$AAQ?$AA7?$AA2?$AA_?$AAM?$AAU?$AAX?$AA4?$AA?$AA@ 100093b4     shell.obj
 0001:000083d8       ??_C@_1CC@MFNIFEHC@?$AAm?$AAp?$AAu?$AA_?$AAP?$AAI?$AAI?$AAR?$AAQ?$AA7?$AA1?$AA_?$AAM?$AAU?$AAX?$AA4?$AA?$AA@ 100093d8     shell.obj
 0001:000083fc       ??_C@_1CC@FINHLFAE@?$AAm?$AAp?$AAu?$AA_?$AAP?$AAI?$AAI?$AAR?$AAQ?$AA7?$AA0?$AA_?$AAM?$AAU?$AAX?$AA4?$AA?$AA@ 100093fc     shell.obj
 0001:00008420       ??_C@_1CC@FIOJNLNF@?$AAm?$AAp?$AAu?$AA_?$AAP?$AAI?$AAI?$AAR?$AAQ?$AA6?$AA9?$AA_?$AAM?$AAU?$AAX?$AA4?$AA?$AA@ 10009420     shell.obj
 0001:00008444       ??_C@_1CC@MFOGDKKD@?$AAm?$AAp?$AAu?$AA_?$AAP?$AAI?$AAI?$AAR?$AAQ?$AA6?$AA8?$AA_?$AAM?$AAU?$AAX?$AA4?$AA?$AA@ 10009444     shell.obj
 0001:00008468       ??_C@_1CC@JDHCIOFF@?$AAm?$AAp?$AAu?$AA_?$AAP?$AAI?$AAI?$AAR?$AAQ?$AA6?$AA7?$AA_?$AAM?$AAU?$AAX?$AA4?$AA?$AA@ 10009468     shell.obj
 0001:0000848c       ??_C@_1CC@OHNGPCD@?$AAm?$AAp?$AAu?$AA_?$AAP?$AAI?$AAI?$AAR?$AAQ?$AA6?$AA6?$AA_?$AAM?$AAU?$AAX?$AA4?$AA?$AA@ 1000948c     shell.obj
 0001:000084b0       ??_C@_1CC@HCBMEKPI@?$AAm?$AAp?$AAu?$AA_?$AAP?$AAI?$AAI?$AAR?$AAQ?$AA6?$AA5?$AA_?$AAM?$AAU?$AAX?$AA4?$AA?$AA@ 100094b0     shell.obj
 0001:000084d4       ??_C@_1CC@OPBDKLIO@?$AAm?$AAp?$AAu?$AA_?$AAP?$AAI?$AAI?$AAR?$AAQ?$AA6?$AA4?$AA_?$AAM?$AAU?$AAX?$AA4?$AA?$AA@ 100094d4     shell.obj
 0001:000084f8       ??_C@_1CC@IKNOABEO@?$AAm?$AAp?$AAu?$AA_?$AAP?$AAI?$AAI?$AAR?$AAQ?$AA6?$AA3?$AA_?$AAM?$AAU?$AAX?$AA4?$AA?$AA@ 100094f8     shell.obj
 0001:0000851c       ??_C@_1CC@BHNBOADI@?$AAm?$AAp?$AAu?$AA_?$AAP?$AAI?$AAI?$AAR?$AAQ?$AA6?$AA2?$AA_?$AAM?$AAU?$AAX?$AA4?$AA?$AA@ 1000951c     shell.obj
 0001:00008540       ??_C@_1CC@GLLAMFOD@?$AAm?$AAp?$AAu?$AA_?$AAP?$AAI?$AAI?$AAR?$AAQ?$AA6?$AA1?$AA_?$AAM?$AAU?$AAX?$AA4?$AA?$AA@ 10009540     shell.obj
 0001:00008564       ??_C@_1CC@PGLPCEJF@?$AAm?$AAp?$AAu?$AA_?$AAP?$AAI?$AAI?$AAR?$AAQ?$AA6?$AA0?$AA_?$AAM?$AAU?$AAX?$AA4?$AA?$AA@ 10009564     shell.obj
 0001:00008588       ??_C@_1CC@HBCBGPCH@?$AAm?$AAp?$AAu?$AA_?$AAP?$AAI?$AAI?$AAR?$AAQ?$AA5?$AA9?$AA_?$AAM?$AAU?$AAX?$AA4?$AA?$AA@ 10009588     shell.obj
 0001:000085ac       ??_C@_1CC@OMCOIOFB@?$AAm?$AAp?$AAu?$AA_?$AAP?$AAI?$AAI?$AAR?$AAQ?$AA5?$AA8?$AA_?$AAM?$AAU?$AAX?$AA4?$AA?$AA@ 100095ac     shell.obj
 0001:000085d0       ??_C@_1CC@LKLKDKKH@?$AAm?$AAp?$AAu?$AA_?$AAP?$AAI?$AAI?$AAR?$AAQ?$AA5?$AA7?$AA_?$AAM?$AAU?$AAX?$AA4?$AA?$AA@ 100095d0     shell.obj
 0001:000085f4       ??_C@_1CC@CHLFNLNB@?$AAm?$AAp?$AAu?$AA_?$AAP?$AAI?$AAI?$AAR?$AAQ?$AA5?$AA6?$AA_?$AAM?$AAU?$AAX?$AA4?$AA?$AA@ 100095f4     shell.obj
 0001:00008618       ??_C@_1CC@FLNEPOAK@?$AAm?$AAp?$AAu?$AA_?$AAP?$AAI?$AAI?$AAR?$AAQ?$AA5?$AA5?$AA_?$AAM?$AAU?$AAX?$AA4?$AA?$AA@ 10009618     shell.obj
 0001:0000863c       ??_C@_1CC@MGNLBPHM@?$AAm?$AAp?$AAu?$AA_?$AAP?$AAI?$AAI?$AAR?$AAQ?$AA5?$AA4?$AA_?$AAM?$AAU?$AAX?$AA4?$AA?$AA@ 1000963c     shell.obj
 0001:00008660       ??_C@_1CC@KDBGLFLM@?$AAm?$AAp?$AAu?$AA_?$AAP?$AAI?$AAI?$AAR?$AAQ?$AA5?$AA3?$AA_?$AAM?$AAU?$AAX?$AA4?$AA?$AA@ 10009660     shell.obj
 0001:00008684       ??_C@_1CC@DOBJFEMK@?$AAm?$AAp?$AAu?$AA_?$AAP?$AAI?$AAI?$AAR?$AAQ?$AA5?$AA2?$AA_?$AAM?$AAU?$AAX?$AA4?$AA?$AA@ 10009684     shell.obj
 0001:000086a8       ??_C@_1CC@ECHIHBBB@?$AAm?$AAp?$AAu?$AA_?$AAP?$AAI?$AAI?$AAR?$AAQ?$AA5?$AA1?$AA_?$AAM?$AAU?$AAX?$AA4?$AA?$AA@ 100096a8     shell.obj
 0001:000086cc       ??_C@_1CC@NPHHJAGH@?$AAm?$AAp?$AAu?$AA_?$AAP?$AAI?$AAI?$AAR?$AAQ?$AA5?$AA0?$AA_?$AAM?$AAU?$AAX?$AA4?$AA?$AA@ 100096cc     shell.obj
 0001:000086f0       ??_C@_1CC@NPEJPOLG@?$AAm?$AAp?$AAu?$AA_?$AAP?$AAI?$AAI?$AAR?$AAQ?$AA4?$AA9?$AA_?$AAM?$AAU?$AAX?$AA4?$AA?$AA@ 100096f0     shell.obj
 0001:00008714       ??_C@_1CC@ECEGBPMA@?$AAm?$AAp?$AAu?$AA_?$AAP?$AAI?$AAI?$AAR?$AAQ?$AA4?$AA8?$AA_?$AAM?$AAU?$AAX?$AA4?$AA?$AA@ 10009714     shell.obj
 0001:00008738       ??_C@_1CC@BENCKLDG@?$AAm?$AAp?$AAu?$AA_?$AAP?$AAI?$AAI?$AAR?$AAQ?$AA4?$AA7?$AA_?$AAM?$AAU?$AAX?$AA4?$AA?$AA@ 10009738     shell.obj
 0001:0000875c       ??_C@_1CC@IJNNEKEA@?$AAm?$AAp?$AAu?$AA_?$AAP?$AAI?$AAI?$AAR?$AAQ?$AA4?$AA6?$AA_?$AAM?$AAU?$AAX?$AA4?$AA?$AA@ 1000975c     shell.obj
 0001:00008780       ??_C@_1CC@PFLMGPJL@?$AAm?$AAp?$AAu?$AA_?$AAP?$AAI?$AAI?$AAR?$AAQ?$AA4?$AA5?$AA_?$AAM?$AAU?$AAX?$AA4?$AA?$AA@ 10009780     shell.obj
 0001:000087a4       ??_C@_1CC@GILDIOON@?$AAm?$AAp?$AAu?$AA_?$AAP?$AAI?$AAI?$AAR?$AAQ?$AA4?$AA4?$AA_?$AAM?$AAU?$AAX?$AA4?$AA?$AA@ 100097a4     shell.obj
 0001:000087c8       ??_C@_1CC@NHOCECN@?$AAm?$AAp?$AAu?$AA_?$AAP?$AAI?$AAI?$AAR?$AAQ?$AA4?$AA3?$AA_?$AAM?$AAU?$AAX?$AA4?$AA?$AA@ 100097c8     shell.obj
 0001:000087ec       ??_C@_1CC@JAHBMFFL@?$AAm?$AAp?$AAu?$AA_?$AAP?$AAI?$AAI?$AAR?$AAQ?$AA4?$AA2?$AA_?$AAM?$AAU?$AAX?$AA4?$AA?$AA@ 100097ec     shell.obj
 0001:00008810       ??_C@_1CC@OMBAOAIA@?$AAm?$AAp?$AAu?$AA_?$AAP?$AAI?$AAI?$AAR?$AAQ?$AA4?$AA1?$AA_?$AAM?$AAU?$AAX?$AA4?$AA?$AA@ 10009810     shell.obj
 0001:00008834       ??_C@_1CC@HBBPABPG@?$AAm?$AAp?$AAu?$AA_?$AAP?$AAI?$AAI?$AAR?$AAQ?$AA4?$AA0?$AA_?$AAM?$AAU?$AAX?$AA4?$AA?$AA@ 10009834     shell.obj
 0001:00008858       ??_C@_1CC@CCLAAGMD@?$AAm?$AAp?$AAu?$AA_?$AAP?$AAI?$AAI?$AAR?$AAQ?$AA3?$AA9?$AA_?$AAM?$AAU?$AAX?$AA4?$AA?$AA@ 10009858     shell.obj
 0001:0000887c       ??_C@_1CC@LPLPOHLF@?$AAm?$AAp?$AAu?$AA_?$AAP?$AAI?$AAI?$AAR?$AAQ?$AA3?$AA8?$AA_?$AAM?$AAU?$AAX?$AA4?$AA?$AA@ 1000987c     shell.obj
 0001:000088a0       ??_C@_1CC@OJCLFDED@?$AAm?$AAp?$AAu?$AA_?$AAP?$AAI?$AAI?$AAR?$AAQ?$AA3?$AA7?$AA_?$AAM?$AAU?$AAX?$AA4?$AA?$AA@ 100098a0     shell.obj
 0001:000088c4       ??_C@_1CC@HECELCDF@?$AAm?$AAp?$AAu?$AA_?$AAP?$AAI?$AAI?$AAR?$AAQ?$AA3?$AA6?$AA_?$AAM?$AAU?$AAX?$AA4?$AA?$AA@ 100098c4     shell.obj
 0001:000088e8       ??_C@_1CC@IEFJHOO@?$AAm?$AAp?$AAu?$AA_?$AAP?$AAI?$AAI?$AAR?$AAQ?$AA3?$AA5?$AA_?$AAM?$AAU?$AAX?$AA4?$AA?$AA@ 100098e8     shell.obj
 0001:0000890c       ??_C@_1CC@JFEKHGJI@?$AAm?$AAp?$AAu?$AA_?$AAP?$AAI?$AAI?$AAR?$AAQ?$AA3?$AA4?$AA_?$AAM?$AAU?$AAX?$AA4?$AA?$AA@ 1000990c     shell.obj
 0001:00008930       ??_C@_1CC@PAIHNMFI@?$AAm?$AAp?$AAu?$AA_?$AAP?$AAI?$AAI?$AAR?$AAQ?$AA3?$AA3?$AA_?$AAM?$AAU?$AAX?$AA4?$AA?$AA@ 10009930     shell.obj
 0001:00008954       ??_C@_1CC@GNIIDNCO@?$AAm?$AAp?$AAu?$AA_?$AAP?$AAI?$AAI?$AAR?$AAQ?$AA3?$AA2?$AA_?$AAM?$AAU?$AAX?$AA4?$AA?$AA@ 10009954     shell.obj
 0001:00008978       ??_C@_1CC@BBOJBIPF@?$AAm?$AAp?$AAu?$AA_?$AAP?$AAI?$AAI?$AAR?$AAQ?$AA3?$AA1?$AA_?$AAM?$AAU?$AAX?$AA4?$AA?$AA@ 10009978     shell.obj
 0001:0000899c       ??_C@_1CC@IMOGPJID@?$AAm?$AAp?$AAu?$AA_?$AAP?$AAI?$AAI?$AAR?$AAQ?$AA3?$AA0?$AA_?$AAM?$AAU?$AAX?$AA4?$AA?$AA@ 1000999c     shell.obj
 0001:000089c0       ??_C@_1CC@IMNIJHFC@?$AAm?$AAp?$AAu?$AA_?$AAP?$AAI?$AAI?$AAR?$AAQ?$AA2?$AA9?$AA_?$AAM?$AAU?$AAX?$AA4?$AA?$AA@ 100099c0     shell.obj
 0001:000089e4       ??_C@_1CC@BBNHHGCE@?$AAm?$AAp?$AAu?$AA_?$AAP?$AAI?$AAI?$AAR?$AAQ?$AA2?$AA8?$AA_?$AAM?$AAU?$AAX?$AA4?$AA?$AA@ 100099e4     shell.obj
 0001:00008a08       ??_C@_1CC@EHEDMCNC@?$AAm?$AAp?$AAu?$AA_?$AAP?$AAI?$AAI?$AAR?$AAQ?$AA2?$AA7?$AA_?$AAM?$AAU?$AAX?$AA4?$AA?$AA@ 10009a08     shell.obj
 0001:00008a2c       ??_C@_1CC@NKEMCDKE@?$AAm?$AAp?$AAu?$AA_?$AAP?$AAI?$AAI?$AAR?$AAQ?$AA2?$AA6?$AA_?$AAM?$AAU?$AAX?$AA4?$AA?$AA@ 10009a2c     shell.obj
 0001:00008a50       ??_C@_1CC@KGCNAGHP@?$AAm?$AAp?$AAu?$AA_?$AAP?$AAI?$AAI?$AAR?$AAQ?$AA2?$AA5?$AA_?$AAM?$AAU?$AAX?$AA4?$AA?$AA@ 10009a50     shell.obj
 0001:00008a74       ??_C@_1CC@DLCCOHAJ@?$AAm?$AAp?$AAu?$AA_?$AAP?$AAI?$AAI?$AAR?$AAQ?$AA2?$AA4?$AA_?$AAM?$AAU?$AAX?$AA4?$AA?$AA@ 10009a74     shell.obj
 0001:00008a98       ??_C@_1CC@FOOPENMJ@?$AAm?$AAp?$AAu?$AA_?$AAP?$AAI?$AAI?$AAR?$AAQ?$AA2?$AA3?$AA_?$AAM?$AAU?$AAX?$AA4?$AA?$AA@ 10009a98     shell.obj
 0001:00008abc       ??_C@_1CC@MDOAKMLP@?$AAm?$AAp?$AAu?$AA_?$AAP?$AAI?$AAI?$AAR?$AAQ?$AA2?$AA2?$AA_?$AAM?$AAU?$AAX?$AA4?$AA?$AA@ 10009abc     shell.obj
 0001:00008ae0       ??_C@_1CC@LPIBIJGE@?$AAm?$AAp?$AAu?$AA_?$AAP?$AAI?$AAI?$AAR?$AAQ?$AA2?$AA1?$AA_?$AAM?$AAU?$AAX?$AA4?$AA?$AA@ 10009ae0     shell.obj
 0001:00008b04       ??_C@_1CC@CCIOGIBC@?$AAm?$AAp?$AAu?$AA_?$AAP?$AAI?$AAI?$AAR?$AAQ?$AA2?$AA0?$AA_?$AAM?$AAU?$AAX?$AA4?$AA?$AA@ 10009b04     shell.obj
 0001:00008b28       ??_C@_1CC@KFBACDKA@?$AAm?$AAp?$AAu?$AA_?$AAP?$AAI?$AAI?$AAR?$AAQ?$AA1?$AA9?$AA_?$AAM?$AAU?$AAX?$AA4?$AA?$AA@ 10009b28     shell.obj
 0001:00008b4c       ??_C@_1CC@DIBPMCNG@?$AAm?$AAp?$AAu?$AA_?$AAP?$AAI?$AAI?$AAR?$AAQ?$AA1?$AA8?$AA_?$AAM?$AAU?$AAX?$AA4?$AA?$AA@ 10009b4c     shell.obj
 0001:00008b70       ??_C@_1CC@GOILHGCA@?$AAm?$AAp?$AAu?$AA_?$AAP?$AAI?$AAI?$AAR?$AAQ?$AA1?$AA7?$AA_?$AAM?$AAU?$AAX?$AA4?$AA?$AA@ 10009b70     shell.obj
 0001:00008b94       ??_C@_1CC@PDIEJHFG@?$AAm?$AAp?$AAu?$AA_?$AAP?$AAI?$AAI?$AAR?$AAQ?$AA1?$AA6?$AA_?$AAM?$AAU?$AAX?$AA4?$AA?$AA@ 10009b94     shell.obj
 0001:00008bb8       ??_C@_1CC@IPOFLCIN@?$AAm?$AAp?$AAu?$AA_?$AAP?$AAI?$AAI?$AAR?$AAQ?$AA1?$AA5?$AA_?$AAM?$AAU?$AAX?$AA4?$AA?$AA@ 10009bb8     shell.obj
 0001:00008bdc       ??_C@_1CC@BCOKFDPL@?$AAm?$AAp?$AAu?$AA_?$AAP?$AAI?$AAI?$AAR?$AAQ?$AA1?$AA4?$AA_?$AAM?$AAU?$AAX?$AA4?$AA?$AA@ 10009bdc     shell.obj
 0001:00008c00       ??_C@_1CC@HHCHPJDL@?$AAm?$AAp?$AAu?$AA_?$AAP?$AAI?$AAI?$AAR?$AAQ?$AA1?$AA3?$AA_?$AAM?$AAU?$AAX?$AA4?$AA?$AA@ 10009c00     shell.obj
 0001:00008c24       ??_C@_1CC@OKCIBIEN@?$AAm?$AAp?$AAu?$AA_?$AAP?$AAI?$AAI?$AAR?$AAQ?$AA1?$AA2?$AA_?$AAM?$AAU?$AAX?$AA4?$AA?$AA@ 10009c24     shell.obj
 0001:00008c48       ??_C@_1CC@JGEJDNJG@?$AAm?$AAp?$AAu?$AA_?$AAP?$AAI?$AAI?$AAR?$AAQ?$AA1?$AA1?$AA_?$AAM?$AAU?$AAX?$AA4?$AA?$AA@ 10009c48     shell.obj
 0001:00008c6c       ??_C@_1CC@LEGNMOA@?$AAm?$AAp?$AAu?$AA_?$AAP?$AAI?$AAI?$AAR?$AAQ?$AA1?$AA0?$AA_?$AAM?$AAU?$AAX?$AA4?$AA?$AA@ 10009c6c     shell.obj
 0001:00008c90       ??_C@_1CA@ECGIFOBD@?$AAm?$AAp?$AAu?$AA_?$AAP?$AAI?$AAI?$AAR?$AAQ?$AA9?$AA_?$AAM?$AAU?$AAX?$AA4?$AA?$AA@ 10009c90     shell.obj
 0001:00008cb0       ??_C@_1CA@NPGHLPGF@?$AAm?$AAp?$AAu?$AA_?$AAP?$AAI?$AAI?$AAR?$AAQ?$AA8?$AA_?$AAM?$AAU?$AAX?$AA4?$AA?$AA@ 10009cb0     shell.obj
 0001:00008cd0       ??_C@_1CA@IJPDALJD@?$AAm?$AAp?$AAu?$AA_?$AAP?$AAI?$AAI?$AAR?$AAQ?$AA7?$AA_?$AAM?$AAU?$AAX?$AA4?$AA?$AA@ 10009cd0     shell.obj
 0001:00008cf0       ??_C@_1CA@BEPMOKOF@?$AAm?$AAp?$AAu?$AA_?$AAP?$AAI?$AAI?$AAR?$AAQ?$AA6?$AA_?$AAM?$AAU?$AAX?$AA4?$AA?$AA@ 10009cf0     shell.obj
 0001:00008d10       ??_C@_1CA@GIJNMPDO@?$AAm?$AAp?$AAu?$AA_?$AAP?$AAI?$AAI?$AAR?$AAQ?$AA5?$AA_?$AAM?$AAU?$AAX?$AA4?$AA?$AA@ 10009d10     shell.obj
 0001:00008d30       ??_C@_1CA@PFJCCOEI@?$AAm?$AAp?$AAu?$AA_?$AAP?$AAI?$AAI?$AAR?$AAQ?$AA4?$AA_?$AAM?$AAU?$AAX?$AA4?$AA?$AA@ 10009d30     shell.obj
 0001:00008d50       ??_C@_1CA@JAFPIEII@?$AAm?$AAp?$AAu?$AA_?$AAP?$AAI?$AAI?$AAR?$AAQ?$AA3?$AA_?$AAM?$AAU?$AAX?$AA4?$AA?$AA@ 10009d50     shell.obj
 0001:00008d70       ??_C@_1CA@NFAGFPO@?$AAm?$AAp?$AAu?$AA_?$AAP?$AAI?$AAI?$AAR?$AAQ?$AA2?$AA_?$AAM?$AAU?$AAX?$AA4?$AA?$AA@ 10009d70     shell.obj
 0001:00008d90       ??_C@_1CA@HBDBEACF@?$AAm?$AAp?$AAu?$AA_?$AAP?$AAI?$AAI?$AAR?$AAQ?$AA1?$AA_?$AAM?$AAU?$AAX?$AA4?$AA?$AA@ 10009d90     shell.obj
 0001:00008db0       ??_C@_1CG@HGFFNCCL@?$AAP?$AAR?$AAC?$AAM?$AA_?$AAC?$AAO?$AAR?$AAE?$AA_?$AAL?$AA3?$AA_?$AAG?$AAI?$AAC?$AAL?$AAK?$AA?$AA@ 10009db0     shell.obj
 0001:00008dd8       ??_C@_1CE@GEEPOAA@?$AAS?$AAE?$AAQ?$AA_?$AAF?$AAO?$AAR?$AAC?$AAE?$AAC?$AAL?$AAK?$AAO?$AAN?$AAA?$AAC?$AAK?$AA?$AA@ 10009dd8     shell.obj
 0001:00008dfc       ??_C@_1CK@LMMCGMDH@?$AAP?$AAR?$AAC?$AAM?$AA_?$AAE?$AAM?$AAU?$AA_?$AAf?$AAo?$AAr?$AAc?$AAe?$AAW?$AAa?$AAk?$AAe?$AAu?$AAp?$AA?$AA@ 10009dfc     shell.obj
 0001:00008e28       ??_C@_1CM@DDLJANJA@?$AAP?$AAR?$AAC?$AAM?$AA_?$AAC?$AAA?$AAM?$AA_?$AAd?$AAo?$AAm?$AAa?$AAi?$AAn?$AAN?$AAr?$AAe?$AAa?$AAd?$AAy?$AA?$AA@ 10009e28     shell.obj
 0001:00008e54       ??_C@_1CM@NMDJCEKF@?$AAP?$AAR?$AAC?$AAM?$AA_?$AAI?$AAV?$AAA?$AA2?$AA_?$AAf?$AAo?$AAr?$AAc?$AAe?$AAW?$AAa?$AAk?$AAe?$AAu?$AAp?$AA?$AA@ 10009e54     shell.obj
 0001:00008e80       ??_C@_1CA@INKNBHCB@?$AAP?$AAR?$AAC?$AAM?$AA_?$AAD?$AAP?$AAL?$AAL?$AA4?$AA_?$AAi?$AAd?$AAl?$AAe?$AA?$AA@ 10009e80     shell.obj
 0001:00008ea0       ??_C@_1CA@JAOHJEM@?$AAP?$AAR?$AAC?$AAM?$AA_?$AAD?$AAP?$AAL?$AAL?$AA1?$AA_?$AAi?$AAd?$AAl?$AAe?$AA?$AA@ 10009ea0     shell.obj
 0001:00008ec0       ??_C@_1BK@CICCEDJC@?$AAP?$AAR?$AAC?$AAM?$AA_?$AAL?$AA4?$AA_?$AAI?$AAC?$AAL?$AAK?$AA?$AA@ 10009ec0     shell.obj
 0001:00008edc       ??_C@_1CM@MDHHCHKF@?$AAS?$AAD?$AAM?$AAA?$AA_?$AAP?$AAI?$AA_?$AAD?$AAM?$AAA?$AAR?$AAE?$AAQ?$AA7?$AA1?$AA_?$AAM?$AAU?$AAX?$AA3?$AA?$AA@ 10009edc     shell.obj
 0001:00008f08       ??_C@_1CM@FOHIMGND@?$AAS?$AAD?$AAM?$AAA?$AA_?$AAP?$AAI?$AA_?$AAD?$AAM?$AAA?$AAR?$AAE?$AAQ?$AA7?$AA0?$AA_?$AAM?$AAU?$AAX?$AA3?$AA?$AA@ 10009f08     shell.obj
 0001:00008f34       ??_C@_1CM@FOEGKIAC@?$AAS?$AAD?$AAM?$AAA?$AA_?$AAP?$AAI?$AA_?$AAD?$AAM?$AAA?$AAR?$AAE?$AAQ?$AA6?$AA9?$AA_?$AAM?$AAU?$AAX?$AA3?$AA?$AA@ 10009f34     shell.obj
 0001:00008f60       ??_C@_1CM@MDEJEJHE@?$AAS?$AAD?$AAM?$AAA?$AA_?$AAP?$AAI?$AA_?$AAD?$AAM?$AAA?$AAR?$AAE?$AAQ?$AA6?$AA8?$AA_?$AAM?$AAU?$AAX?$AA3?$AA?$AA@ 10009f60     shell.obj
 0001:00008f8c       ??_C@_1CM@JFNNPNIC@?$AAS?$AAD?$AAM?$AAA?$AA_?$AAP?$AAI?$AA_?$AAD?$AAM?$AAA?$AAR?$AAE?$AAQ?$AA6?$AA7?$AA_?$AAM?$AAU?$AAX?$AA3?$AA?$AA@ 10009f8c     shell.obj
 0001:00008fb8       ??_C@_1CM@INCBMPE@?$AAS?$AAD?$AAM?$AAA?$AA_?$AAP?$AAI?$AA_?$AAD?$AAM?$AAA?$AAR?$AAE?$AAQ?$AA6?$AA6?$AA_?$AAM?$AAU?$AAX?$AA3?$AA?$AA@ 10009fb8     shell.obj
 0001:00008fe4       ??_C@_1CM@HELDDJCP@?$AAS?$AAD?$AAM?$AAA?$AA_?$AAP?$AAI?$AA_?$AAD?$AAM?$AAA?$AAR?$AAE?$AAQ?$AA6?$AA5?$AA_?$AAM?$AAU?$AAX?$AA3?$AA?$AA@ 10009fe4     shell.obj
 0001:00009010       ??_C@_1CM@OJLMNIFJ@?$AAS?$AAD?$AAM?$AAA?$AA_?$AAP?$AAI?$AA_?$AAD?$AAM?$AAA?$AAR?$AAE?$AAQ?$AA6?$AA4?$AA_?$AAM?$AAU?$AAX?$AA3?$AA?$AA@ 1000a010     shell.obj
 0001:0000903c       ??_C@_1CM@IMHBHCJJ@?$AAS?$AAD?$AAM?$AAA?$AA_?$AAP?$AAI?$AA_?$AAD?$AAM?$AAA?$AAR?$AAE?$AAQ?$AA6?$AA3?$AA_?$AAM?$AAU?$AAX?$AA3?$AA?$AA@ 1000a03c     shell.obj
 0001:00009068       ??_C@_1CM@BBHOJDOP@?$AAS?$AAD?$AAM?$AAA?$AA_?$AAP?$AAI?$AA_?$AAD?$AAM?$AAA?$AAR?$AAE?$AAQ?$AA6?$AA2?$AA_?$AAM?$AAU?$AAX?$AA3?$AA?$AA@ 1000a068     shell.obj
 0001:00009094       ??_C@_1CM@GNBPLGDE@?$AAS?$AAD?$AAM?$AAA?$AA_?$AAP?$AAI?$AA_?$AAD?$AAM?$AAA?$AAR?$AAE?$AAQ?$AA6?$AA1?$AA_?$AAM?$AAU?$AAX?$AA3?$AA?$AA@ 1000a094     shell.obj
 0001:000090c0       ??_C@_1CM@PABAFHEC@?$AAS?$AAD?$AAM?$AAA?$AA_?$AAP?$AAI?$AA_?$AAD?$AAM?$AAA?$AAR?$AAE?$AAQ?$AA6?$AA0?$AA_?$AAM?$AAU?$AAX?$AA3?$AA?$AA@ 1000a0c0     shell.obj
 0001:000090ec       ??_C@_1CM@HHIOBMPA@?$AAS?$AAD?$AAM?$AAA?$AA_?$AAP?$AAI?$AA_?$AAD?$AAM?$AAA?$AAR?$AAE?$AAQ?$AA5?$AA9?$AA_?$AAM?$AAU?$AAX?$AA3?$AA?$AA@ 1000a0ec     shell.obj
 0001:00009118       ??_C@_1CM@OKIBPNIG@?$AAS?$AAD?$AAM?$AAA?$AA_?$AAP?$AAI?$AA_?$AAD?$AAM?$AAA?$AAR?$AAE?$AAQ?$AA5?$AA8?$AA_?$AAM?$AAU?$AAX?$AA3?$AA?$AA@ 1000a118     shell.obj
 0001:00009144       ??_C@_1CM@LMBFEJHA@?$AAS?$AAD?$AAM?$AAA?$AA_?$AAP?$AAI?$AA_?$AAD?$AAM?$AAA?$AAR?$AAE?$AAQ?$AA5?$AA7?$AA_?$AAM?$AAU?$AAX?$AA3?$AA?$AA@ 1000a144     shell.obj
 0001:00009170       ??_C@_1CM@CBBKKIAG@?$AAS?$AAD?$AAM?$AAA?$AA_?$AAP?$AAI?$AA_?$AAD?$AAM?$AAA?$AAR?$AAE?$AAQ?$AA5?$AA6?$AA_?$AAM?$AAU?$AAX?$AA3?$AA?$AA@ 1000a170     shell.obj
 0001:0000919c       ??_C@_1CM@FNHLINNN@?$AAS?$AAD?$AAM?$AAA?$AA_?$AAP?$AAI?$AA_?$AAD?$AAM?$AAA?$AAR?$AAE?$AAQ?$AA5?$AA5?$AA_?$AAM?$AAU?$AAX?$AA3?$AA?$AA@ 1000a19c     shell.obj
 0001:000091c8       ??_C@_1CM@MAHEGMKL@?$AAS?$AAD?$AAM?$AAA?$AA_?$AAP?$AAI?$AA_?$AAD?$AAM?$AAA?$AAR?$AAE?$AAQ?$AA5?$AA4?$AA_?$AAM?$AAU?$AAX?$AA3?$AA?$AA@ 1000a1c8     shell.obj
 0001:000091f4       ??_C@_1CM@KFLJMGGL@?$AAS?$AAD?$AAM?$AAA?$AA_?$AAP?$AAI?$AA_?$AAD?$AAM?$AAA?$AAR?$AAE?$AAQ?$AA5?$AA3?$AA_?$AAM?$AAU?$AAX?$AA3?$AA?$AA@ 1000a1f4     shell.obj
 0001:00009220       ??_C@_1CM@DILGCHBN@?$AAS?$AAD?$AAM?$AAA?$AA_?$AAP?$AAI?$AA_?$AAD?$AAM?$AAA?$AAR?$AAE?$AAQ?$AA5?$AA2?$AA_?$AAM?$AAU?$AAX?$AA3?$AA?$AA@ 1000a220     shell.obj
 0001:0000924c       ??_C@_1CM@EENHACMG@?$AAS?$AAD?$AAM?$AAA?$AA_?$AAP?$AAI?$AA_?$AAD?$AAM?$AAA?$AAR?$AAE?$AAQ?$AA5?$AA1?$AA_?$AAM?$AAU?$AAX?$AA3?$AA?$AA@ 1000a24c     shell.obj
 0001:00009278       ??_C@_1CM@NJNIODLA@?$AAS?$AAD?$AAM?$AAA?$AA_?$AAP?$AAI?$AA_?$AAD?$AAM?$AAA?$AAR?$AAE?$AAQ?$AA5?$AA0?$AA_?$AAM?$AAU?$AAX?$AA3?$AA?$AA@ 1000a278     shell.obj
 0001:000092a4       ??_C@_1CM@NJOGINGB@?$AAS?$AAD?$AAM?$AAA?$AA_?$AAP?$AAI?$AA_?$AAD?$AAM?$AAA?$AAR?$AAE?$AAQ?$AA4?$AA9?$AA_?$AAM?$AAU?$AAX?$AA3?$AA?$AA@ 1000a2a4     shell.obj
 0001:000092d0       ??_C@_1CM@EEOJGMBH@?$AAS?$AAD?$AAM?$AAA?$AA_?$AAP?$AAI?$AA_?$AAD?$AAM?$AAA?$AAR?$AAE?$AAQ?$AA4?$AA8?$AA_?$AAM?$AAU?$AAX?$AA3?$AA?$AA@ 1000a2d0     shell.obj
 0001:000092fc       ??_C@_1CM@BCHNNIOB@?$AAS?$AAD?$AAM?$AAA?$AA_?$AAP?$AAI?$AA_?$AAD?$AAM?$AAA?$AAR?$AAE?$AAQ?$AA4?$AA7?$AA_?$AAM?$AAU?$AAX?$AA3?$AA?$AA@ 1000a2fc     shell.obj
 0001:00009328       ??_C@_1CM@IPHCDJJH@?$AAS?$AAD?$AAM?$AAA?$AA_?$AAP?$AAI?$AA_?$AAD?$AAM?$AAA?$AAR?$AAE?$AAQ?$AA4?$AA6?$AA_?$AAM?$AAU?$AAX?$AA3?$AA?$AA@ 1000a328     shell.obj
 0001:00009354       ??_C@_1CM@PDBDBMEM@?$AAS?$AAD?$AAM?$AAA?$AA_?$AAP?$AAI?$AA_?$AAD?$AAM?$AAA?$AAR?$AAE?$AAQ?$AA4?$AA5?$AA_?$AAM?$AAU?$AAX?$AA3?$AA?$AA@ 1000a354     shell.obj
 0001:00009380       ??_C@_1CM@GOBMPNDK@?$AAS?$AAD?$AAM?$AAA?$AA_?$AAP?$AAI?$AA_?$AAD?$AAM?$AAA?$AAR?$AAE?$AAQ?$AA4?$AA4?$AA_?$AAM?$AAU?$AAX?$AA3?$AA?$AA@ 1000a380     shell.obj
 0001:000093ac       ??_C@_1CM@LNBFHPK@?$AAS?$AAD?$AAM?$AAA?$AA_?$AAP?$AAI?$AA_?$AAD?$AAM?$AAA?$AAR?$AAE?$AAQ?$AA4?$AA3?$AA_?$AAM?$AAU?$AAX?$AA3?$AA?$AA@ 1000a3ac     shell.obj
 0001:000093d8       ??_C@_1CM@JGNOLGIM@?$AAS?$AAD?$AAM?$AAA?$AA_?$AAP?$AAI?$AA_?$AAD?$AAM?$AAA?$AAR?$AAE?$AAQ?$AA4?$AA2?$AA_?$AAM?$AAU?$AAX?$AA3?$AA?$AA@ 1000a3d8     shell.obj
 0001:00009404       ??_C@_1CM@OKLPJDFH@?$AAS?$AAD?$AAM?$AAA?$AA_?$AAP?$AAI?$AA_?$AAD?$AAM?$AAA?$AAR?$AAE?$AAQ?$AA4?$AA1?$AA_?$AAM?$AAU?$AAX?$AA3?$AA?$AA@ 1000a404     shell.obj
 0001:00009430       ??_C@_1CM@HHLAHCCB@?$AAS?$AAD?$AAM?$AAA?$AA_?$AAP?$AAI?$AA_?$AAD?$AAM?$AAA?$AAR?$AAE?$AAQ?$AA4?$AA0?$AA_?$AAM?$AAU?$AAX?$AA3?$AA?$AA@ 1000a430     shell.obj
 0001:0000945c       ??_C@_1CM@CEBPHFBE@?$AAS?$AAD?$AAM?$AAA?$AA_?$AAP?$AAI?$AA_?$AAD?$AAM?$AAA?$AAR?$AAE?$AAQ?$AA3?$AA9?$AA_?$AAM?$AAU?$AAX?$AA3?$AA?$AA@ 1000a45c     shell.obj
 0001:00009488       ??_C@_1CM@LJBAJEGC@?$AAS?$AAD?$AAM?$AAA?$AA_?$AAP?$AAI?$AA_?$AAD?$AAM?$AAA?$AAR?$AAE?$AAQ?$AA3?$AA8?$AA_?$AAM?$AAU?$AAX?$AA3?$AA?$AA@ 1000a488     shell.obj
 0001:000094b4       ??_C@_1CM@OPIECAJE@?$AAS?$AAD?$AAM?$AAA?$AA_?$AAP?$AAI?$AA_?$AAD?$AAM?$AAA?$AAR?$AAE?$AAQ?$AA3?$AA7?$AA_?$AAM?$AAU?$AAX?$AA3?$AA?$AA@ 1000a4b4     shell.obj
 0001:000094e0       ??_C@_1CM@HCILMBOC@?$AAS?$AAD?$AAM?$AAA?$AA_?$AAP?$AAI?$AA_?$AAD?$AAM?$AAA?$AAR?$AAE?$AAQ?$AA3?$AA6?$AA_?$AAM?$AAU?$AAX?$AA3?$AA?$AA@ 1000a4e0     shell.obj
 0001:0000950c       ??_C@_1CM@OOKOEDJ@?$AAS?$AAD?$AAM?$AAA?$AA_?$AAP?$AAI?$AA_?$AAD?$AAM?$AAA?$AAR?$AAE?$AAQ?$AA3?$AA5?$AA_?$AAM?$AAU?$AAX?$AA3?$AA?$AA@ 1000a50c     shell.obj
 0001:00009538       ??_C@_1CM@JDOFAFEP@?$AAS?$AAD?$AAM?$AAA?$AA_?$AAP?$AAI?$AA_?$AAD?$AAM?$AAA?$AAR?$AAE?$AAQ?$AA3?$AA4?$AA_?$AAM?$AAU?$AAX?$AA3?$AA?$AA@ 1000a538     shell.obj
 0001:00009564       ??_C@_1CM@PGCIKPIP@?$AAS?$AAD?$AAM?$AAA?$AA_?$AAP?$AAI?$AA_?$AAD?$AAM?$AAA?$AAR?$AAE?$AAQ?$AA3?$AA3?$AA_?$AAM?$AAU?$AAX?$AA3?$AA?$AA@ 1000a564     shell.obj
 0001:00009590       ??_C@_1CM@GLCHEOPJ@?$AAS?$AAD?$AAM?$AAA?$AA_?$AAP?$AAI?$AA_?$AAD?$AAM?$AAA?$AAR?$AAE?$AAQ?$AA3?$AA2?$AA_?$AAM?$AAU?$AAX?$AA3?$AA?$AA@ 1000a590     shell.obj
 0001:000095bc       ??_C@_1CM@BHEGGLCC@?$AAS?$AAD?$AAM?$AAA?$AA_?$AAP?$AAI?$AA_?$AAD?$AAM?$AAA?$AAR?$AAE?$AAQ?$AA3?$AA1?$AA_?$AAM?$AAU?$AAX?$AA3?$AA?$AA@ 1000a5bc     shell.obj
 0001:000095e8       ??_C@_1CM@IKEJIKFE@?$AAS?$AAD?$AAM?$AAA?$AA_?$AAP?$AAI?$AA_?$AAD?$AAM?$AAA?$AAR?$AAE?$AAQ?$AA3?$AA0?$AA_?$AAM?$AAU?$AAX?$AA3?$AA?$AA@ 1000a5e8     shell.obj
 0001:00009614       ??_C@_1CM@IKHHOEIF@?$AAS?$AAD?$AAM?$AAA?$AA_?$AAP?$AAI?$AA_?$AAD?$AAM?$AAA?$AAR?$AAE?$AAQ?$AA2?$AA9?$AA_?$AAM?$AAU?$AAX?$AA3?$AA?$AA@ 1000a614     shell.obj
 0001:00009640       ??_C@_1CM@BHHIAFPD@?$AAS?$AAD?$AAM?$AAA?$AA_?$AAP?$AAI?$AA_?$AAD?$AAM?$AAA?$AAR?$AAE?$AAQ?$AA2?$AA8?$AA_?$AAM?$AAU?$AAX?$AA3?$AA?$AA@ 1000a640     shell.obj
 0001:0000966c       ??_C@_1CM@EBOMLBAF@?$AAS?$AAD?$AAM?$AAA?$AA_?$AAP?$AAI?$AA_?$AAD?$AAM?$AAA?$AAR?$AAE?$AAQ?$AA2?$AA7?$AA_?$AAM?$AAU?$AAX?$AA3?$AA?$AA@ 1000a66c     shell.obj
 0001:00009698       ??_C@_1CM@NMODFAHD@?$AAS?$AAD?$AAM?$AAA?$AA_?$AAP?$AAI?$AA_?$AAD?$AAM?$AAA?$AAR?$AAE?$AAQ?$AA2?$AA6?$AA_?$AAM?$AAU?$AAX?$AA3?$AA?$AA@ 1000a698     shell.obj
 0001:000096c4       ??_C@_1CM@KAICHFKI@?$AAS?$AAD?$AAM?$AAA?$AA_?$AAP?$AAI?$AA_?$AAD?$AAM?$AAA?$AAR?$AAE?$AAQ?$AA2?$AA5?$AA_?$AAM?$AAU?$AAX?$AA3?$AA?$AA@ 1000a6c4     shell.obj
 0001:000096f0       ??_C@_1CM@DNINJENO@?$AAS?$AAD?$AAM?$AAA?$AA_?$AAP?$AAI?$AA_?$AAD?$AAM?$AAA?$AAR?$AAE?$AAQ?$AA2?$AA4?$AA_?$AAM?$AAU?$AAX?$AA3?$AA?$AA@ 1000a6f0     shell.obj
 0001:0000971c       ??_C@_1CM@FIEADOBO@?$AAS?$AAD?$AAM?$AAA?$AA_?$AAP?$AAI?$AA_?$AAD?$AAM?$AAA?$AAR?$AAE?$AAQ?$AA2?$AA3?$AA_?$AAM?$AAU?$AAX?$AA3?$AA?$AA@ 1000a71c     shell.obj
 0001:00009748       ??_C@_1CM@MFEPNPGI@?$AAS?$AAD?$AAM?$AAA?$AA_?$AAP?$AAI?$AA_?$AAD?$AAM?$AAA?$AAR?$AAE?$AAQ?$AA2?$AA2?$AA_?$AAM?$AAU?$AAX?$AA3?$AA?$AA@ 1000a748     shell.obj
 0001:00009774       ??_C@_1CM@LJCOPKLD@?$AAS?$AAD?$AAM?$AAA?$AA_?$AAP?$AAI?$AA_?$AAD?$AAM?$AAA?$AAR?$AAE?$AAQ?$AA2?$AA1?$AA_?$AAM?$AAU?$AAX?$AA3?$AA?$AA@ 1000a774     shell.obj
 0001:000097a0       ??_C@_1CM@CECBBLMF@?$AAS?$AAD?$AAM?$AAA?$AA_?$AAP?$AAI?$AA_?$AAD?$AAM?$AAA?$AAR?$AAE?$AAQ?$AA2?$AA0?$AA_?$AAM?$AAU?$AAX?$AA3?$AA?$AA@ 1000a7a0     shell.obj
 0001:000097cc       ??_C@_1CM@KDLPFAHH@?$AAS?$AAD?$AAM?$AAA?$AA_?$AAP?$AAI?$AA_?$AAD?$AAM?$AAA?$AAR?$AAE?$AAQ?$AA1?$AA9?$AA_?$AAM?$AAU?$AAX?$AA3?$AA?$AA@ 1000a7cc     shell.obj
 0001:000097f8       ??_C@_1CM@DOLALBAB@?$AAS?$AAD?$AAM?$AAA?$AA_?$AAP?$AAI?$AA_?$AAD?$AAM?$AAA?$AAR?$AAE?$AAQ?$AA1?$AA8?$AA_?$AAM?$AAU?$AAX?$AA3?$AA?$AA@ 1000a7f8     shell.obj
 0001:00009824       ??_C@_1CM@GICEAFPH@?$AAS?$AAD?$AAM?$AAA?$AA_?$AAP?$AAI?$AA_?$AAD?$AAM?$AAA?$AAR?$AAE?$AAQ?$AA1?$AA7?$AA_?$AAM?$AAU?$AAX?$AA3?$AA?$AA@ 1000a824     shell.obj
 0001:00009850       ??_C@_1CM@PFCLOEIB@?$AAS?$AAD?$AAM?$AAA?$AA_?$AAP?$AAI?$AA_?$AAD?$AAM?$AAA?$AAR?$AAE?$AAQ?$AA1?$AA6?$AA_?$AAM?$AAU?$AAX?$AA3?$AA?$AA@ 1000a850     shell.obj
 0001:0000987c       ??_C@_1CM@IJEKMBFK@?$AAS?$AAD?$AAM?$AAA?$AA_?$AAP?$AAI?$AA_?$AAD?$AAM?$AAA?$AAR?$AAE?$AAQ?$AA1?$AA5?$AA_?$AAM?$AAU?$AAX?$AA3?$AA?$AA@ 1000a87c     shell.obj
 0001:000098a8       ??_C@_1CM@BEEFCACM@?$AAS?$AAD?$AAM?$AAA?$AA_?$AAP?$AAI?$AA_?$AAD?$AAM?$AAA?$AAR?$AAE?$AAQ?$AA1?$AA4?$AA_?$AAM?$AAU?$AAX?$AA3?$AA?$AA@ 1000a8a8     shell.obj
 0001:000098d4       ??_C@_1CM@HBIIIKOM@?$AAS?$AAD?$AAM?$AAA?$AA_?$AAP?$AAI?$AA_?$AAD?$AAM?$AAA?$AAR?$AAE?$AAQ?$AA1?$AA3?$AA_?$AAM?$AAU?$AAX?$AA3?$AA?$AA@ 1000a8d4     shell.obj
 0001:00009900       ??_C@_1CM@OMIHGLJK@?$AAS?$AAD?$AAM?$AAA?$AA_?$AAP?$AAI?$AA_?$AAD?$AAM?$AAA?$AAR?$AAE?$AAQ?$AA1?$AA2?$AA_?$AAM?$AAU?$AAX?$AA3?$AA?$AA@ 1000a900     shell.obj
 0001:0000992c       ??_C@_1CM@JAOGEOEB@?$AAS?$AAD?$AAM?$AAA?$AA_?$AAP?$AAI?$AA_?$AAD?$AAM?$AAA?$AAR?$AAE?$AAQ?$AA1?$AA1?$AA_?$AAM?$AAU?$AAX?$AA3?$AA?$AA@ 1000a92c     shell.obj
 0001:00009958       ??_C@_1CM@NOJKPDH@?$AAS?$AAD?$AAM?$AAA?$AA_?$AAP?$AAI?$AA_?$AAD?$AAM?$AAA?$AAR?$AAE?$AAQ?$AA1?$AA0?$AA_?$AAM?$AAU?$AAX?$AA3?$AA?$AA@ 1000a958     shell.obj
 0001:00009984       ??_C@_1CK@DKAAMEPL@?$AAS?$AAD?$AAM?$AAA?$AA_?$AAP?$AAI?$AA_?$AAD?$AAM?$AAA?$AAR?$AAE?$AAQ?$AA9?$AA_?$AAM?$AAU?$AAX?$AA3?$AA?$AA@ 1000a984     shell.obj
 0001:000099b0       ??_C@_1CK@KHAPCFIN@?$AAS?$AAD?$AAM?$AAA?$AA_?$AAP?$AAI?$AA_?$AAD?$AAM?$AAA?$AAR?$AAE?$AAQ?$AA8?$AA_?$AAM?$AAU?$AAX?$AA3?$AA?$AA@ 1000a9b0     shell.obj
 0001:000099dc       ??_C@_1CK@PBJLJBHL@?$AAS?$AAD?$AAM?$AAA?$AA_?$AAP?$AAI?$AA_?$AAD?$AAM?$AAA?$AAR?$AAE?$AAQ?$AA7?$AA_?$AAM?$AAU?$AAX?$AA3?$AA?$AA@ 1000a9dc     shell.obj
 0001:00009a08       ??_C@_1CK@GMJEHAAN@?$AAS?$AAD?$AAM?$AAA?$AA_?$AAP?$AAI?$AA_?$AAD?$AAM?$AAA?$AAR?$AAE?$AAQ?$AA6?$AA_?$AAM?$AAU?$AAX?$AA3?$AA?$AA@ 1000aa08     shell.obj
 0001:00009a34       ??_C@_1CK@BAPFFFNG@?$AAS?$AAD?$AAM?$AAA?$AA_?$AAP?$AAI?$AA_?$AAD?$AAM?$AAA?$AAR?$AAE?$AAQ?$AA5?$AA_?$AAM?$AAU?$AAX?$AA3?$AA?$AA@ 1000aa34     shell.obj
 0001:00009a60       ??_C@_1CK@INPKLEKA@?$AAS?$AAD?$AAM?$AAA?$AA_?$AAP?$AAI?$AA_?$AAD?$AAM?$AAA?$AAR?$AAE?$AAQ?$AA4?$AA_?$AAM?$AAU?$AAX?$AA3?$AA?$AA@ 1000aa60     shell.obj
 0001:00009a8c       ??_C@_1CK@OIDHBOGA@?$AAS?$AAD?$AAM?$AAA?$AA_?$AAP?$AAI?$AA_?$AAD?$AAM?$AAA?$AAR?$AAE?$AAQ?$AA3?$AA_?$AAM?$AAU?$AAX?$AA3?$AA?$AA@ 1000aa8c     shell.obj
 0001:00009ab8       ??_C@_1CK@HFDIPPBG@?$AAS?$AAD?$AAM?$AAA?$AA_?$AAP?$AAI?$AA_?$AAD?$AAM?$AAA?$AAR?$AAE?$AAQ?$AA2?$AA_?$AAM?$AAU?$AAX?$AA3?$AA?$AA@ 1000aab8     shell.obj
 0001:00009ae4       ??_C@_1CK@JFJNKMN@?$AAS?$AAD?$AAM?$AAA?$AA_?$AAP?$AAI?$AA_?$AAD?$AAM?$AAA?$AAR?$AAE?$AAQ?$AA1?$AA_?$AAM?$AAU?$AAX?$AA3?$AA?$AA@ 1000aae4     shell.obj
 0001:00009b10       ??_C@_1CI@DLCIAPGF@?$AAP?$AAR?$AAC?$AAM?$AA_?$AAC?$AAO?$AAR?$AAE?$AA_?$AA1?$AA2?$AAM?$AA_?$AAG?$AAF?$AAC?$AAL?$AAK?$AA?$AA@ 1000ab10     shell.obj
 0001:00009b38       ??_C@_1CI@BHOLLBIM@?$AAP?$AAR?$AAC?$AAM?$AA_?$AAS?$AAE?$AAQ?$AA_?$AAF?$AAO?$AAR?$AAC?$AAE?$AAC?$AAL?$AAK?$AAO?$AAN?$AA?$AA@ 1000ab38     shell.obj
 0001:00009b60       ??_C@_1CI@GHEMGKFN@?$AAP?$AAR?$AAC?$AAM?$AA_?$AAE?$AAM?$AAU?$AA_?$AAd?$AAo?$AAm?$AAa?$AAi?$AAn?$AAM?$AAu?$AAt?$AAe?$AA?$AA@ 1000ab60     shell.obj
 0001:00009b88       ??_C@_1CK@CKIINABB@?$AAP?$AAR?$AAC?$AAM?$AA_?$AAC?$AAA?$AAM?$AA_?$AAf?$AAo?$AAr?$AAc?$AAe?$AAW?$AAa?$AAk?$AAe?$AAu?$AAp?$AA?$AA@ 1000ab88     shell.obj
 0001:00009bb4       ??_C@_1CO@BMLFMHEH@?$AAP?$AAR?$AAC?$AAM?$AA_?$AAI?$AAV?$AAA?$AA2?$AA_?$AAd?$AAo?$AAm?$AAa?$AAi?$AAn?$AAI?$AAs?$AAI?$AAd?$AAl?$AAe?$AA?$AA@ 1000abb4     shell.obj
 0001:00009be4       ??_C@_1CE@BJCMIIOJ@?$AAP?$AAR?$AAC?$AAM?$AA_?$AAD?$AAP?$AAL?$AAL?$AA4?$AA_?$AAb?$AAy?$AAp?$AAa?$AAs?$AAs?$AA?$AA@ 1000abe4     shell.obj
 0001:00009c08       ??_C@_1CE@PNNGOJAO@?$AAP?$AAR?$AAC?$AAM?$AA_?$AAD?$AAP?$AAL?$AAL?$AA1?$AA_?$AAb?$AAy?$AAp?$AAa?$AAs?$AAs?$AA?$AA@ 1000ac08     shell.obj
 0001:00009c2c       ??_C@_1BK@ENOPOJFC@?$AAP?$AAR?$AAC?$AAM?$AA_?$AAL?$AA3?$AA_?$AAI?$AAC?$AAL?$AAK?$AA?$AA@ 1000ac2c     shell.obj
 0001:00009c48       ??_C@_1CM@HLMLEAMA@?$AAS?$AAD?$AAM?$AAA?$AA_?$AAP?$AAI?$AA_?$AAD?$AAM?$AAA?$AAR?$AAE?$AAQ?$AA7?$AA1?$AA_?$AAM?$AAU?$AAX?$AA2?$AA?$AA@ 1000ac48     shell.obj
 0001:00009c74       ??_C@_1CM@OGMEKBLG@?$AAS?$AAD?$AAM?$AAA?$AA_?$AAP?$AAI?$AA_?$AAD?$AAM?$AAA?$AAR?$AAE?$AAQ?$AA7?$AA0?$AA_?$AAM?$AAU?$AAX?$AA2?$AA?$AA@ 1000ac74     shell.obj
 0001:00009ca0       ??_C@_1CM@OGPKMPGH@?$AAS?$AAD?$AAM?$AAA?$AA_?$AAP?$AAI?$AA_?$AAD?$AAM?$AAA?$AAR?$AAE?$AAQ?$AA6?$AA9?$AA_?$AAM?$AAU?$AAX?$AA2?$AA?$AA@ 1000aca0     shell.obj
 0001:00009ccc       ??_C@_1CM@HLPFCOBB@?$AAS?$AAD?$AAM?$AAA?$AA_?$AAP?$AAI?$AA_?$AAD?$AAM?$AAA?$AAR?$AAE?$AAQ?$AA6?$AA8?$AA_?$AAM?$AAU?$AAX?$AA2?$AA?$AA@ 1000accc     shell.obj
 0001:00009cf8       ??_C@_1CM@CNGBJKOH@?$AAS?$AAD?$AAM?$AAA?$AA_?$AAP?$AAI?$AA_?$AAD?$AAM?$AAA?$AAR?$AAE?$AAQ?$AA6?$AA7?$AA_?$AAM?$AAU?$AAX?$AA2?$AA?$AA@ 1000acf8     shell.obj
 0001:00009d24       ??_C@_1CM@LAGOHLJB@?$AAS?$AAD?$AAM?$AAA?$AA_?$AAP?$AAI?$AA_?$AAD?$AAM?$AAA?$AAR?$AAE?$AAQ?$AA6?$AA6?$AA_?$AAM?$AAU?$AAX?$AA2?$AA?$AA@ 1000ad24     shell.obj
 0001:00009d50       ??_C@_1CM@MMAPFOEK@?$AAS?$AAD?$AAM?$AAA?$AA_?$AAP?$AAI?$AA_?$AAD?$AAM?$AAA?$AAR?$AAE?$AAQ?$AA6?$AA5?$AA_?$AAM?$AAU?$AAX?$AA2?$AA?$AA@ 1000ad50     shell.obj
 0001:00009d7c       ??_C@_1CM@FBAALPDM@?$AAS?$AAD?$AAM?$AAA?$AA_?$AAP?$AAI?$AA_?$AAD?$AAM?$AAA?$AAR?$AAE?$AAQ?$AA6?$AA4?$AA_?$AAM?$AAU?$AAX?$AA2?$AA?$AA@ 1000ad7c     shell.obj
 0001:00009da8       ??_C@_1CM@DEMNBFPM@?$AAS?$AAD?$AAM?$AAA?$AA_?$AAP?$AAI?$AA_?$AAD?$AAM?$AAA?$AAR?$AAE?$AAQ?$AA6?$AA3?$AA_?$AAM?$AAU?$AAX?$AA2?$AA?$AA@ 1000ada8     shell.obj
 0001:00009dd4       ??_C@_1CM@KJMCPEIK@?$AAS?$AAD?$AAM?$AAA?$AA_?$AAP?$AAI?$AA_?$AAD?$AAM?$AAA?$AAR?$AAE?$AAQ?$AA6?$AA2?$AA_?$AAM?$AAU?$AAX?$AA2?$AA?$AA@ 1000add4     shell.obj
 0001:00009e00       ??_C@_1CM@NFKDNBFB@?$AAS?$AAD?$AAM?$AAA?$AA_?$AAP?$AAI?$AA_?$AAD?$AAM?$AAA?$AAR?$AAE?$AAQ?$AA6?$AA1?$AA_?$AAM?$AAU?$AAX?$AA2?$AA?$AA@ 1000ae00     shell.obj
 0001:00009e2c       ??_C@_1CM@EIKMDACH@?$AAS?$AAD?$AAM?$AAA?$AA_?$AAP?$AAI?$AA_?$AAD?$AAM?$AAA?$AAR?$AAE?$AAQ?$AA6?$AA0?$AA_?$AAM?$AAU?$AAX?$AA2?$AA?$AA@ 1000ae2c     shell.obj
 0001:00009e58       ??_C@_1CM@MPDCHLJF@?$AAS?$AAD?$AAM?$AAA?$AA_?$AAP?$AAI?$AA_?$AAD?$AAM?$AAA?$AAR?$AAE?$AAQ?$AA5?$AA9?$AA_?$AAM?$AAU?$AAX?$AA2?$AA?$AA@ 1000ae58     shell.obj
 0001:00009e84       ??_C@_1CM@FCDNJKOD@?$AAS?$AAD?$AAM?$AAA?$AA_?$AAP?$AAI?$AA_?$AAD?$AAM?$AAA?$AAR?$AAE?$AAQ?$AA5?$AA8?$AA_?$AAM?$AAU?$AAX?$AA2?$AA?$AA@ 1000ae84     shell.obj
 0001:00009eb0       ??_C@_1CM@EKJCOBF@?$AAS?$AAD?$AAM?$AAA?$AA_?$AAP?$AAI?$AA_?$AAD?$AAM?$AAA?$AAR?$AAE?$AAQ?$AA5?$AA7?$AA_?$AAM?$AAU?$AAX?$AA2?$AA?$AA@ 1000aeb0     shell.obj
 0001:00009edc       ??_C@_1CM@JJKGMPGD@?$AAS?$AAD?$AAM?$AAA?$AA_?$AAP?$AAI?$AA_?$AAD?$AAM?$AAA?$AAR?$AAE?$AAQ?$AA5?$AA6?$AA_?$AAM?$AAU?$AAX?$AA2?$AA?$AA@ 1000aedc     shell.obj
 0001:00009f08       ??_C@_1CM@OFMHOKLI@?$AAS?$AAD?$AAM?$AAA?$AA_?$AAP?$AAI?$AA_?$AAD?$AAM?$AAA?$AAR?$AAE?$AAQ?$AA5?$AA5?$AA_?$AAM?$AAU?$AAX?$AA2?$AA?$AA@ 1000af08     shell.obj
 0001:00009f34       ??_C@_1CM@HIMIALMO@?$AAS?$AAD?$AAM?$AAA?$AA_?$AAP?$AAI?$AA_?$AAD?$AAM?$AAA?$AAR?$AAE?$AAQ?$AA5?$AA4?$AA_?$AAM?$AAU?$AAX?$AA2?$AA?$AA@ 1000af34     shell.obj
 0001:00009f60       ??_C@_1CM@BNAFKBAO@?$AAS?$AAD?$AAM?$AAA?$AA_?$AAP?$AAI?$AA_?$AAD?$AAM?$AAA?$AAR?$AAE?$AAQ?$AA5?$AA3?$AA_?$AAM?$AAU?$AAX?$AA2?$AA?$AA@ 1000af60     shell.obj
 0001:00009f8c       ??_C@_1CM@IAAKEAHI@?$AAS?$AAD?$AAM?$AAA?$AA_?$AAP?$AAI?$AA_?$AAD?$AAM?$AAA?$AAR?$AAE?$AAQ?$AA5?$AA2?$AA_?$AAM?$AAU?$AAX?$AA2?$AA?$AA@ 1000af8c     shell.obj
 0001:00009fb8       ??_C@_1CM@PMGLGFKD@?$AAS?$AAD?$AAM?$AAA?$AA_?$AAP?$AAI?$AA_?$AAD?$AAM?$AAA?$AAR?$AAE?$AAQ?$AA5?$AA1?$AA_?$AAM?$AAU?$AAX?$AA2?$AA?$AA@ 1000afb8     shell.obj
 0001:00009fe4       ??_C@_1CM@GBGEIENF@?$AAS?$AAD?$AAM?$AAA?$AA_?$AAP?$AAI?$AA_?$AAD?$AAM?$AAA?$AAR?$AAE?$AAQ?$AA5?$AA0?$AA_?$AAM?$AAU?$AAX?$AA2?$AA?$AA@ 1000afe4     shell.obj
 0001:0000a010       ??_C@_1CM@GBFKOKAE@?$AAS?$AAD?$AAM?$AAA?$AA_?$AAP?$AAI?$AA_?$AAD?$AAM?$AAA?$AAR?$AAE?$AAQ?$AA4?$AA9?$AA_?$AAM?$AAU?$AAX?$AA2?$AA?$AA@ 1000b010     shell.obj
 0001:0000a03c       ??_C@_1CM@PMFFALHC@?$AAS?$AAD?$AAM?$AAA?$AA_?$AAP?$AAI?$AA_?$AAD?$AAM?$AAA?$AAR?$AAE?$AAQ?$AA4?$AA8?$AA_?$AAM?$AAU?$AAX?$AA2?$AA?$AA@ 1000b03c     shell.obj
 0001:0000a068       ??_C@_1CM@KKMBLPIE@?$AAS?$AAD?$AAM?$AAA?$AA_?$AAP?$AAI?$AA_?$AAD?$AAM?$AAA?$AAR?$AAE?$AAQ?$AA4?$AA7?$AA_?$AAM?$AAU?$AAX?$AA2?$AA?$AA@ 1000b068     shell.obj
 0001:0000a094       ??_C@_1CM@DHMOFOPC@?$AAS?$AAD?$AAM?$AAA?$AA_?$AAP?$AAI?$AA_?$AAD?$AAM?$AAA?$AAR?$AAE?$AAQ?$AA4?$AA6?$AA_?$AAM?$AAU?$AAX?$AA2?$AA?$AA@ 1000b094     shell.obj
 0001:0000a0c0       ??_C@_1CM@ELKPHLCJ@?$AAS?$AAD?$AAM?$AAA?$AA_?$AAP?$AAI?$AA_?$AAD?$AAM?$AAA?$AAR?$AAE?$AAQ?$AA4?$AA5?$AA_?$AAM?$AAU?$AAX?$AA2?$AA?$AA@ 1000b0c0     shell.obj
 0001:0000a0ec       ??_C@_1CM@NGKAJKFP@?$AAS?$AAD?$AAM?$AAA?$AA_?$AAP?$AAI?$AA_?$AAD?$AAM?$AAA?$AAR?$AAE?$AAQ?$AA4?$AA4?$AA_?$AAM?$AAU?$AAX?$AA2?$AA?$AA@ 1000b0ec     shell.obj
 0001:0000a118       ??_C@_1CM@LDGNDAJP@?$AAS?$AAD?$AAM?$AAA?$AA_?$AAP?$AAI?$AA_?$AAD?$AAM?$AAA?$AAR?$AAE?$AAQ?$AA4?$AA3?$AA_?$AAM?$AAU?$AAX?$AA2?$AA?$AA@ 1000b118     shell.obj
 0001:0000a144       ??_C@_1CM@COGCNBOJ@?$AAS?$AAD?$AAM?$AAA?$AA_?$AAP?$AAI?$AA_?$AAD?$AAM?$AAA?$AAR?$AAE?$AAQ?$AA4?$AA2?$AA_?$AAM?$AAU?$AAX?$AA2?$AA?$AA@ 1000b144     shell.obj
 0001:0000a170       ??_C@_1CM@FCADPEDC@?$AAS?$AAD?$AAM?$AAA?$AA_?$AAP?$AAI?$AA_?$AAD?$AAM?$AAA?$AAR?$AAE?$AAQ?$AA4?$AA1?$AA_?$AAM?$AAU?$AAX?$AA2?$AA?$AA@ 1000b170     shell.obj
 0001:0000a19c       ??_C@_1CM@MPAMBFEE@?$AAS?$AAD?$AAM?$AAA?$AA_?$AAP?$AAI?$AA_?$AAD?$AAM?$AAA?$AAR?$AAE?$AAQ?$AA4?$AA0?$AA_?$AAM?$AAU?$AAX?$AA2?$AA?$AA@ 1000b19c     shell.obj
 0001:0000a1c8       ??_C@_1CM@JMKDBCHB@?$AAS?$AAD?$AAM?$AAA?$AA_?$AAP?$AAI?$AA_?$AAD?$AAM?$AAA?$AAR?$AAE?$AAQ?$AA3?$AA9?$AA_?$AAM?$AAU?$AAX?$AA2?$AA?$AA@ 1000b1c8     shell.obj
 0001:0000a1f4       ??_C@_1CM@BKMPDAH@?$AAS?$AAD?$AAM?$AAA?$AA_?$AAP?$AAI?$AA_?$AAD?$AAM?$AAA?$AAR?$AAE?$AAQ?$AA3?$AA8?$AA_?$AAM?$AAU?$AAX?$AA2?$AA?$AA@ 1000b1f4     shell.obj
 0001:0000a220       ??_C@_1CM@FHDIEHPB@?$AAS?$AAD?$AAM?$AAA?$AA_?$AAP?$AAI?$AA_?$AAD?$AAM?$AAA?$AAR?$AAE?$AAQ?$AA3?$AA7?$AA_?$AAM?$AAU?$AAX?$AA2?$AA?$AA@ 1000b220     shell.obj
 0001:0000a24c       ??_C@_1CM@MKDHKGIH@?$AAS?$AAD?$AAM?$AAA?$AA_?$AAP?$AAI?$AA_?$AAD?$AAM?$AAA?$AAR?$AAE?$AAQ?$AA3?$AA6?$AA_?$AAM?$AAU?$AAX?$AA2?$AA?$AA@ 1000b24c     shell.obj
 0001:0000a278       ??_C@_1CM@LGFGIDFM@?$AAS?$AAD?$AAM?$AAA?$AA_?$AAP?$AAI?$AA_?$AAD?$AAM?$AAA?$AAR?$AAE?$AAQ?$AA3?$AA5?$AA_?$AAM?$AAU?$AAX?$AA2?$AA?$AA@ 1000b278     shell.obj
 0001:0000a2a4       ??_C@_1CM@CLFJGCCK@?$AAS?$AAD?$AAM?$AAA?$AA_?$AAP?$AAI?$AA_?$AAD?$AAM?$AAA?$AAR?$AAE?$AAQ?$AA3?$AA4?$AA_?$AAM?$AAU?$AAX?$AA2?$AA?$AA@ 1000b2a4     shell.obj
 0001:0000a2d0       ??_C@_1CM@EOJEMIOK@?$AAS?$AAD?$AAM?$AAA?$AA_?$AAP?$AAI?$AA_?$AAD?$AAM?$AAA?$AAR?$AAE?$AAQ?$AA3?$AA3?$AA_?$AAM?$AAU?$AAX?$AA2?$AA?$AA@ 1000b2d0     shell.obj
 0001:0000a2fc       ??_C@_1CM@NDJLCJJM@?$AAS?$AAD?$AAM?$AAA?$AA_?$AAP?$AAI?$AA_?$AAD?$AAM?$AAA?$AAR?$AAE?$AAQ?$AA3?$AA2?$AA_?$AAM?$AAU?$AAX?$AA2?$AA?$AA@ 1000b2fc     shell.obj
 0001:0000a328       ??_C@_1CM@KPPKAMEH@?$AAS?$AAD?$AAM?$AAA?$AA_?$AAP?$AAI?$AA_?$AAD?$AAM?$AAA?$AAR?$AAE?$AAQ?$AA3?$AA1?$AA_?$AAM?$AAU?$AAX?$AA2?$AA?$AA@ 1000b328     shell.obj
 0001:0000a354       ??_C@_1CM@DCPFONDB@?$AAS?$AAD?$AAM?$AAA?$AA_?$AAP?$AAI?$AA_?$AAD?$AAM?$AAA?$AAR?$AAE?$AAQ?$AA3?$AA0?$AA_?$AAM?$AAU?$AAX?$AA2?$AA?$AA@ 1000b354     shell.obj
 0001:0000a380       ??_C@_1CM@DCMLIDOA@?$AAS?$AAD?$AAM?$AAA?$AA_?$AAP?$AAI?$AA_?$AAD?$AAM?$AAA?$AAR?$AAE?$AAQ?$AA2?$AA9?$AA_?$AAM?$AAU?$AAX?$AA2?$AA?$AA@ 1000b380     shell.obj
 0001:0000a3ac       ??_C@_1CM@KPMEGCJG@?$AAS?$AAD?$AAM?$AAA?$AA_?$AAP?$AAI?$AA_?$AAD?$AAM?$AAA?$AAR?$AAE?$AAQ?$AA2?$AA8?$AA_?$AAM?$AAU?$AAX?$AA2?$AA?$AA@ 1000b3ac     shell.obj
 0001:0000a3d8       ??_C@_1CM@PJFANGGA@?$AAS?$AAD?$AAM?$AAA?$AA_?$AAP?$AAI?$AA_?$AAD?$AAM?$AAA?$AAR?$AAE?$AAQ?$AA2?$AA7?$AA_?$AAM?$AAU?$AAX?$AA2?$AA?$AA@ 1000b3d8     shell.obj
 0001:0000a404       ??_C@_1CM@GEFPDHBG@?$AAS?$AAD?$AAM?$AAA?$AA_?$AAP?$AAI?$AA_?$AAD?$AAM?$AAA?$AAR?$AAE?$AAQ?$AA2?$AA6?$AA_?$AAM?$AAU?$AAX?$AA2?$AA?$AA@ 1000b404     shell.obj
 0001:0000a430       ??_C@_1CM@BIDOBCMN@?$AAS?$AAD?$AAM?$AAA?$AA_?$AAP?$AAI?$AA_?$AAD?$AAM?$AAA?$AAR?$AAE?$AAQ?$AA2?$AA5?$AA_?$AAM?$AAU?$AAX?$AA2?$AA?$AA@ 1000b430     shell.obj
 0001:0000a45c       ??_C@_1CM@IFDBPDLL@?$AAS?$AAD?$AAM?$AAA?$AA_?$AAP?$AAI?$AA_?$AAD?$AAM?$AAA?$AAR?$AAE?$AAQ?$AA2?$AA4?$AA_?$AAM?$AAU?$AAX?$AA2?$AA?$AA@ 1000b45c     shell.obj
 0001:0000a488       ??_C@_1CM@OAPMFJHL@?$AAS?$AAD?$AAM?$AAA?$AA_?$AAP?$AAI?$AA_?$AAD?$AAM?$AAA?$AAR?$AAE?$AAQ?$AA2?$AA3?$AA_?$AAM?$AAU?$AAX?$AA2?$AA?$AA@ 1000b488     shell.obj
 0001:0000a4b4       ??_C@_1CM@HNPDLIAN@?$AAS?$AAD?$AAM?$AAA?$AA_?$AAP?$AAI?$AA_?$AAD?$AAM?$AAA?$AAR?$AAE?$AAQ?$AA2?$AA2?$AA_?$AAM?$AAU?$AAX?$AA2?$AA?$AA@ 1000b4b4     shell.obj
 0001:0000a4e0       ??_C@_1CM@BJCJNNG@?$AAS?$AAD?$AAM?$AAA?$AA_?$AAP?$AAI?$AA_?$AAD?$AAM?$AAA?$AAR?$AAE?$AAQ?$AA2?$AA1?$AA_?$AAM?$AAU?$AAX?$AA2?$AA?$AA@ 1000b4e0     shell.obj
 0001:0000a50c       ??_C@_1CM@JMJNHMKA@?$AAS?$AAD?$AAM?$AAA?$AA_?$AAP?$AAI?$AA_?$AAD?$AAM?$AAA?$AAR?$AAE?$AAQ?$AA2?$AA0?$AA_?$AAM?$AAU?$AAX?$AA2?$AA?$AA@ 1000b50c     shell.obj
 0001:0000a538       ??_C@_1CM@BLADDHBC@?$AAS?$AAD?$AAM?$AAA?$AA_?$AAP?$AAI?$AA_?$AAD?$AAM?$AAA?$AAR?$AAE?$AAQ?$AA1?$AA9?$AA_?$AAM?$AAU?$AAX?$AA2?$AA?$AA@ 1000b538     shell.obj
 0001:0000a564       ??_C@_1CM@IGAMNGGE@?$AAS?$AAD?$AAM?$AAA?$AA_?$AAP?$AAI?$AA_?$AAD?$AAM?$AAA?$AAR?$AAE?$AAQ?$AA1?$AA8?$AA_?$AAM?$AAU?$AAX?$AA2?$AA?$AA@ 1000b564     shell.obj
 0001:0000a590       ??_C@_1CM@NAJIGCJC@?$AAS?$AAD?$AAM?$AAA?$AA_?$AAP?$AAI?$AA_?$AAD?$AAM?$AAA?$AAR?$AAE?$AAQ?$AA1?$AA7?$AA_?$AAM?$AAU?$AAX?$AA2?$AA?$AA@ 1000b590     shell.obj
 0001:0000a5bc       ??_C@_1CM@ENJHIDOE@?$AAS?$AAD?$AAM?$AAA?$AA_?$AAP?$AAI?$AA_?$AAD?$AAM?$AAA?$AAR?$AAE?$AAQ?$AA1?$AA6?$AA_?$AAM?$AAU?$AAX?$AA2?$AA?$AA@ 1000b5bc     shell.obj
 0001:0000a5e8       ??_C@_1CM@DBPGKGDP@?$AAS?$AAD?$AAM?$AAA?$AA_?$AAP?$AAI?$AA_?$AAD?$AAM?$AAA?$AAR?$AAE?$AAQ?$AA1?$AA5?$AA_?$AAM?$AAU?$AAX?$AA2?$AA?$AA@ 1000b5e8     shell.obj
 0001:0000a614       ??_C@_1CM@KMPJEHEJ@?$AAS?$AAD?$AAM?$AAA?$AA_?$AAP?$AAI?$AA_?$AAD?$AAM?$AAA?$AAR?$AAE?$AAQ?$AA1?$AA4?$AA_?$AAM?$AAU?$AAX?$AA2?$AA?$AA@ 1000b614     shell.obj
 0001:0000a640       ??_C@_1CM@MJDEONIJ@?$AAS?$AAD?$AAM?$AAA?$AA_?$AAP?$AAI?$AA_?$AAD?$AAM?$AAA?$AAR?$AAE?$AAQ?$AA1?$AA3?$AA_?$AAM?$AAU?$AAX?$AA2?$AA?$AA@ 1000b640     shell.obj
 0001:0000a66c       ??_C@_1CM@FEDLAMPP@?$AAS?$AAD?$AAM?$AAA?$AA_?$AAP?$AAI?$AA_?$AAD?$AAM?$AAA?$AAR?$AAE?$AAQ?$AA1?$AA2?$AA_?$AAM?$AAU?$AAX?$AA2?$AA?$AA@ 1000b66c     shell.obj
 0001:0000a698       ??_C@_1CM@CIFKCJCE@?$AAS?$AAD?$AAM?$AAA?$AA_?$AAP?$AAI?$AA_?$AAD?$AAM?$AAA?$AAR?$AAE?$AAQ?$AA1?$AA1?$AA_?$AAM?$AAU?$AAX?$AA2?$AA?$AA@ 1000b698     shell.obj
 0001:0000a6c4       ??_C@_1CM@LFFFMIFC@?$AAS?$AAD?$AAM?$AAA?$AA_?$AAP?$AAI?$AA_?$AAD?$AAM?$AAA?$AAR?$AAE?$AAQ?$AA1?$AA0?$AA_?$AAM?$AAU?$AAX?$AA2?$AA?$AA@ 1000b6c4     shell.obj
 0001:0000a6f0       ??_C@_1CK@ICLMKDJO@?$AAS?$AAD?$AAM?$AAA?$AA_?$AAP?$AAI?$AA_?$AAD?$AAM?$AAA?$AAR?$AAE?$AAQ?$AA9?$AA_?$AAM?$AAU?$AAX?$AA2?$AA?$AA@ 1000b6f0     shell.obj
 0001:0000a71c       ??_C@_1CK@BPLDECOI@?$AAS?$AAD?$AAM?$AAA?$AA_?$AAP?$AAI?$AA_?$AAD?$AAM?$AAA?$AAR?$AAE?$AAQ?$AA8?$AA_?$AAM?$AAU?$AAX?$AA2?$AA?$AA@ 1000b71c     shell.obj
 0001:0000a748       ??_C@_1CK@EJCHPGBO@?$AAS?$AAD?$AAM?$AAA?$AA_?$AAP?$AAI?$AA_?$AAD?$AAM?$AAA?$AAR?$AAE?$AAQ?$AA7?$AA_?$AAM?$AAU?$AAX?$AA2?$AA?$AA@ 1000b748     shell.obj
 0001:0000a774       ??_C@_1CK@NECIBHGI@?$AAS?$AAD?$AAM?$AAA?$AA_?$AAP?$AAI?$AA_?$AAD?$AAM?$AAA?$AAR?$AAE?$AAQ?$AA6?$AA_?$AAM?$AAU?$AAX?$AA2?$AA?$AA@ 1000b774     shell.obj
 0001:0000a7a0       ??_C@_1CK@KIEJDCLD@?$AAS?$AAD?$AAM?$AAA?$AA_?$AAP?$AAI?$AA_?$AAD?$AAM?$AAA?$AAR?$AAE?$AAQ?$AA5?$AA_?$AAM?$AAU?$AAX?$AA2?$AA?$AA@ 1000b7a0     shell.obj
 0001:0000a7cc       ??_C@_1CK@DFEGNDMF@?$AAS?$AAD?$AAM?$AAA?$AA_?$AAP?$AAI?$AA_?$AAD?$AAM?$AAA?$AAR?$AAE?$AAQ?$AA4?$AA_?$AAM?$AAU?$AAX?$AA2?$AA?$AA@ 1000b7cc     shell.obj
 0001:0000a7f8       ??_C@_1CK@FAILHJAF@?$AAS?$AAD?$AAM?$AAA?$AA_?$AAP?$AAI?$AA_?$AAD?$AAM?$AAA?$AAR?$AAE?$AAQ?$AA3?$AA_?$AAM?$AAU?$AAX?$AA2?$AA?$AA@ 1000b7f8     shell.obj
 0001:0000a824       ??_C@_1CK@MNIEJIHD@?$AAS?$AAD?$AAM?$AAA?$AA_?$AAP?$AAI?$AA_?$AAD?$AAM?$AAA?$AAR?$AAE?$AAQ?$AA2?$AA_?$AAM?$AAU?$AAX?$AA2?$AA?$AA@ 1000b824     shell.obj
 0001:0000a850       ??_C@_1CK@LBOFLNKI@?$AAS?$AAD?$AAM?$AAA?$AA_?$AAP?$AAI?$AA_?$AAD?$AAM?$AAA?$AAR?$AAE?$AAQ?$AA1?$AA_?$AAM?$AAU?$AAX?$AA2?$AA?$AA@ 1000b850     shell.obj
 0001:0000a87c       ??_C@_1CI@CCHBKPF@?$AAP?$AAR?$AAC?$AAM?$AA_?$AAC?$AAO?$AAR?$AAE?$AA_?$AA4?$AA8?$AAM?$AA_?$AAG?$AAF?$AAC?$AAL?$AAK?$AA?$AA@ 1000b87c     shell.obj
 0001:0000a8a4       ??_C@_1CO@MEMPGIID@?$AAP?$AAR?$AAC?$AAM?$AA_?$AAS?$AAT?$AAA?$AAT?$AAE?$AA_?$AAI?$AAS?$AA_?$AAO?$AAF?$AAF?$AA_?$AAC?$AAO?$AAR?$AAE?$AA?$AA@ 1000b8a4     shell.obj
 0001:0000a8d4       ??_C@_1CM@CHMFIGIG@?$AAP?$AAR?$AAC?$AAM?$AA_?$AAE?$AAM?$AAU?$AA_?$AAd?$AAo?$AAm?$AAa?$AAi?$AAn?$AAI?$AAs?$AAI?$AAd?$AAl?$AAe?$AA?$AA@ 1000b8d4     shell.obj
 0001:0000a900       ??_C@_1CM@CGMMGMEP@?$AAP?$AAR?$AAC?$AAM?$AA_?$AAC?$AAA?$AAM?$AA_?$AAd?$AAo?$AAm?$AAa?$AAi?$AAn?$AAI?$AAs?$AAI?$AAd?$AAl?$AAe?$AA?$AA@ 1000b900     shell.obj
 0001:0000a92c       ??_C@_1CK@BNMCPFNL@?$AAP?$AAR?$AAC?$AAM?$AA_?$AAN?$AAE?$AAO?$AAN?$AA_?$AAf?$AAo?$AAr?$AAc?$AAe?$AAS?$AAl?$AAe?$AAe?$AAp?$AA?$AA@ 1000b92c     shell.obj
 0001:0000a958       ??_C@_1DK@GKBKDBMN@?$AAP?$AAR?$AAC?$AAM?$AA_?$AAC?$AAO?$AAR?$AAE?$AAL?$AA3?$AA_?$AAI?$AAC?$AAl?$AAk?$AAI?$AAs?$AAN?$AAo?$AAt?$AAR?$AAu?$AAn?$AAn?$AAi?$AAn?$AAg?$AA?$AA@ 1000b958     shell.obj
 0001:0000a994       ??_C@_1CI@DJIHDHFF@?$AAP?$AAR?$AAC?$AAM?$AA_?$AAD?$AAP?$AAL?$AAL?$AA4?$AA_?$AAf?$AAr?$AAe?$AAq?$AAl?$AAo?$AAc?$AAk?$AA?$AA@ 1000b994     shell.obj
 0001:0000a9bc       ??_C@_1CI@HCAOMAJF@?$AAP?$AAR?$AAC?$AAM?$AA_?$AAD?$AAP?$AAL?$AAL?$AA1?$AA_?$AAf?$AAr?$AAe?$AAq?$AAl?$AAo?$AAc?$AAk?$AA?$AA@ 1000b9bc     shell.obj
 0001:0000a9e4       ??_C@_1CI@PCLFDDKB@?$AAP?$AAR?$AAC?$AAM?$AA_?$AAD?$AAP?$AAL?$AAL?$AA3?$AA_?$AAM?$AA2?$AAX?$AA2?$AA_?$AAC?$AAL?$AAK?$AA?$AA@ 1000b9e4     shell.obj
 0001:0000aa0c       ??_C@_1CM@GJHOOPCO@?$AAS?$AAD?$AAM?$AAA?$AA_?$AAP?$AAI?$AA_?$AAD?$AAM?$AAA?$AAR?$AAE?$AAQ?$AA7?$AA1?$AA_?$AAM?$AAU?$AAX?$AA1?$AA?$AA@ 1000ba0c     shell.obj
 0001:0000aa38       ??_C@_1CM@PEHBAOFI@?$AAS?$AAD?$AAM?$AAA?$AA_?$AAP?$AAI?$AA_?$AAD?$AAM?$AAA?$AAR?$AAE?$AAQ?$AA7?$AA0?$AA_?$AAM?$AAU?$AAX?$AA1?$AA?$AA@ 1000ba38     shell.obj
 0001:0000aa64       ??_C@_1CM@PEEPGAIJ@?$AAS?$AAD?$AAM?$AAA?$AA_?$AAP?$AAI?$AA_?$AAD?$AAM?$AAA?$AAR?$AAE?$AAQ?$AA6?$AA9?$AA_?$AAM?$AAU?$AAX?$AA1?$AA?$AA@ 1000ba64     shell.obj
 0001:0000aa90       ??_C@_1CM@GJEAIBPP@?$AAS?$AAD?$AAM?$AAA?$AA_?$AAP?$AAI?$AA_?$AAD?$AAM?$AAA?$AAR?$AAE?$AAQ?$AA6?$AA8?$AA_?$AAM?$AAU?$AAX?$AA1?$AA?$AA@ 1000ba90     shell.obj
 0001:0000aabc       ??_C@_1CM@DPNEDFAJ@?$AAS?$AAD?$AAM?$AAA?$AA_?$AAP?$AAI?$AA_?$AAD?$AAM?$AAA?$AAR?$AAE?$AAQ?$AA6?$AA7?$AA_?$AAM?$AAU?$AAX?$AA1?$AA?$AA@ 1000babc     shell.obj
 0001:0000aae8       ??_C@_1CM@KCNLNEHP@?$AAS?$AAD?$AAM?$AAA?$AA_?$AAP?$AAI?$AA_?$AAD?$AAM?$AAA?$AAR?$AAE?$AAQ?$AA6?$AA6?$AA_?$AAM?$AAU?$AAX?$AA1?$AA?$AA@ 1000bae8     shell.obj
 0001:0000ab14       ??_C@_1CM@NOLKPBKE@?$AAS?$AAD?$AAM?$AAA?$AA_?$AAP?$AAI?$AA_?$AAD?$AAM?$AAA?$AAR?$AAE?$AAQ?$AA6?$AA5?$AA_?$AAM?$AAU?$AAX?$AA1?$AA?$AA@ 1000bb14     shell.obj
 0001:0000ab40       ??_C@_1CM@EDLFBANC@?$AAS?$AAD?$AAM?$AAA?$AA_?$AAP?$AAI?$AA_?$AAD?$AAM?$AAA?$AAR?$AAE?$AAQ?$AA6?$AA4?$AA_?$AAM?$AAU?$AAX?$AA1?$AA?$AA@ 1000bb40     shell.obj
 0001:0000ab6c       ??_C@_1CM@CGHILKBC@?$AAS?$AAD?$AAM?$AAA?$AA_?$AAP?$AAI?$AA_?$AAD?$AAM?$AAA?$AAR?$AAE?$AAQ?$AA6?$AA3?$AA_?$AAM?$AAU?$AAX?$AA1?$AA?$AA@ 1000bb6c     shell.obj
 0001:0000ab98       ??_C@_1CM@LLHHFLGE@?$AAS?$AAD?$AAM?$AAA?$AA_?$AAP?$AAI?$AA_?$AAD?$AAM?$AAA?$AAR?$AAE?$AAQ?$AA6?$AA2?$AA_?$AAM?$AAU?$AAX?$AA1?$AA?$AA@ 1000bb98     shell.obj
 0001:0000abc4       ??_C@_1CM@MHBGHOLP@?$AAS?$AAD?$AAM?$AAA?$AA_?$AAP?$AAI?$AA_?$AAD?$AAM?$AAA?$AAR?$AAE?$AAQ?$AA6?$AA1?$AA_?$AAM?$AAU?$AAX?$AA1?$AA?$AA@ 1000bbc4     shell.obj
 0001:0000abf0       ??_C@_1CM@FKBJJPMJ@?$AAS?$AAD?$AAM?$AAA?$AA_?$AAP?$AAI?$AA_?$AAD?$AAM?$AAA?$AAR?$AAE?$AAQ?$AA6?$AA0?$AA_?$AAM?$AAU?$AAX?$AA1?$AA?$AA@ 1000bbf0     shell.obj
 0001:0000ac1c       ??_C@_1CM@NNIHNEHL@?$AAS?$AAD?$AAM?$AAA?$AA_?$AAP?$AAI?$AA_?$AAD?$AAM?$AAA?$AAR?$AAE?$AAQ?$AA5?$AA9?$AA_?$AAM?$AAU?$AAX?$AA1?$AA?$AA@ 1000bc1c     shell.obj
 0001:0000ac48       ??_C@_1CM@EAIIDFAN@?$AAS?$AAD?$AAM?$AAA?$AA_?$AAP?$AAI?$AA_?$AAD?$AAM?$AAA?$AAR?$AAE?$AAQ?$AA5?$AA8?$AA_?$AAM?$AAU?$AAX?$AA1?$AA?$AA@ 1000bc48     shell.obj
 0001:0000ac74       ??_C@_1CM@BGBMIBPL@?$AAS?$AAD?$AAM?$AAA?$AA_?$AAP?$AAI?$AA_?$AAD?$AAM?$AAA?$AAR?$AAE?$AAQ?$AA5?$AA7?$AA_?$AAM?$AAU?$AAX?$AA1?$AA?$AA@ 1000bc74     shell.obj
 0001:0000aca0       ??_C@_1CM@ILBDGAIN@?$AAS?$AAD?$AAM?$AAA?$AA_?$AAP?$AAI?$AA_?$AAD?$AAM?$AAA?$AAR?$AAE?$AAQ?$AA5?$AA6?$AA_?$AAM?$AAU?$AAX?$AA1?$AA?$AA@ 1000bca0     shell.obj
 0001:0000accc       ??_C@_1CM@PHHCEFFG@?$AAS?$AAD?$AAM?$AAA?$AA_?$AAP?$AAI?$AA_?$AAD?$AAM?$AAA?$AAR?$AAE?$AAQ?$AA5?$AA5?$AA_?$AAM?$AAU?$AAX?$AA1?$AA?$AA@ 1000bccc     shell.obj
 0001:0000acf8       ??_C@_1CM@GKHNKECA@?$AAS?$AAD?$AAM?$AAA?$AA_?$AAP?$AAI?$AA_?$AAD?$AAM?$AAA?$AAR?$AAE?$AAQ?$AA5?$AA4?$AA_?$AAM?$AAU?$AAX?$AA1?$AA?$AA@ 1000bcf8     shell.obj
 0001:0000ad24       ??_C@_1CM@PLAAOOA@?$AAS?$AAD?$AAM?$AAA?$AA_?$AAP?$AAI?$AA_?$AAD?$AAM?$AAA?$AAR?$AAE?$AAQ?$AA5?$AA3?$AA_?$AAM?$AAU?$AAX?$AA1?$AA?$AA@ 1000bd24     shell.obj
 0001:0000ad50       ??_C@_1CM@JCLPOPJG@?$AAS?$AAD?$AAM?$AAA?$AA_?$AAP?$AAI?$AA_?$AAD?$AAM?$AAA?$AAR?$AAE?$AAQ?$AA5?$AA2?$AA_?$AAM?$AAU?$AAX?$AA1?$AA?$AA@ 1000bd50     shell.obj
 0001:0000ad7c       ??_C@_1CM@OONOMKEN@?$AAS?$AAD?$AAM?$AAA?$AA_?$AAP?$AAI?$AA_?$AAD?$AAM?$AAA?$AAR?$AAE?$AAQ?$AA5?$AA1?$AA_?$AAM?$AAU?$AAX?$AA1?$AA?$AA@ 1000bd7c     shell.obj
 0001:0000ada8       ??_C@_1CM@HDNBCLDL@?$AAS?$AAD?$AAM?$AAA?$AA_?$AAP?$AAI?$AA_?$AAD?$AAM?$AAA?$AAR?$AAE?$AAQ?$AA5?$AA0?$AA_?$AAM?$AAU?$AAX?$AA1?$AA?$AA@ 1000bda8     shell.obj
 0001:0000add4       ??_C@_1CM@HDOPEFOK@?$AAS?$AAD?$AAM?$AAA?$AA_?$AAP?$AAI?$AA_?$AAD?$AAM?$AAA?$AAR?$AAE?$AAQ?$AA4?$AA9?$AA_?$AAM?$AAU?$AAX?$AA1?$AA?$AA@ 1000bdd4     shell.obj
 0001:0000ae00       ??_C@_1CM@OOOAKEJM@?$AAS?$AAD?$AAM?$AAA?$AA_?$AAP?$AAI?$AA_?$AAD?$AAM?$AAA?$AAR?$AAE?$AAQ?$AA4?$AA8?$AA_?$AAM?$AAU?$AAX?$AA1?$AA?$AA@ 1000be00     shell.obj
 0001:0000ae2c       ??_C@_1CM@LIHEBAGK@?$AAS?$AAD?$AAM?$AAA?$AA_?$AAP?$AAI?$AA_?$AAD?$AAM?$AAA?$AAR?$AAE?$AAQ?$AA4?$AA7?$AA_?$AAM?$AAU?$AAX?$AA1?$AA?$AA@ 1000be2c     shell.obj
 0001:0000ae58       ??_C@_1CM@CFHLPBBM@?$AAS?$AAD?$AAM?$AAA?$AA_?$AAP?$AAI?$AA_?$AAD?$AAM?$AAA?$AAR?$AAE?$AAQ?$AA4?$AA6?$AA_?$AAM?$AAU?$AAX?$AA1?$AA?$AA@ 1000be58     shell.obj
 0001:0000ae84       ??_C@_1CM@FJBKNEMH@?$AAS?$AAD?$AAM?$AAA?$AA_?$AAP?$AAI?$AA_?$AAD?$AAM?$AAA?$AAR?$AAE?$AAQ?$AA4?$AA5?$AA_?$AAM?$AAU?$AAX?$AA1?$AA?$AA@ 1000be84     shell.obj
 0001:0000aeb0       ??_C@_1CM@MEBFDFLB@?$AAS?$AAD?$AAM?$AAA?$AA_?$AAP?$AAI?$AA_?$AAD?$AAM?$AAA?$AAR?$AAE?$AAQ?$AA4?$AA4?$AA_?$AAM?$AAU?$AAX?$AA1?$AA?$AA@ 1000beb0     shell.obj
 0001:0000aedc       ??_C@_1CM@KBNIJPHB@?$AAS?$AAD?$AAM?$AAA?$AA_?$AAP?$AAI?$AA_?$AAD?$AAM?$AAA?$AAR?$AAE?$AAQ?$AA4?$AA3?$AA_?$AAM?$AAU?$AAX?$AA1?$AA?$AA@ 1000bedc     shell.obj
 0001:0000af08       ??_C@_1CM@DMNHHOAH@?$AAS?$AAD?$AAM?$AAA?$AA_?$AAP?$AAI?$AA_?$AAD?$AAM?$AAA?$AAR?$AAE?$AAQ?$AA4?$AA2?$AA_?$AAM?$AAU?$AAX?$AA1?$AA?$AA@ 1000bf08     shell.obj
 0001:0000af34       ??_C@_1CM@EALGFLNM@?$AAS?$AAD?$AAM?$AAA?$AA_?$AAP?$AAI?$AA_?$AAD?$AAM?$AAA?$AAR?$AAE?$AAQ?$AA4?$AA1?$AA_?$AAM?$AAU?$AAX?$AA1?$AA?$AA@ 1000bf34     shell.obj
 0001:0000af60       ??_C@_1CM@NNLJLKKK@?$AAS?$AAD?$AAM?$AAA?$AA_?$AAP?$AAI?$AA_?$AAD?$AAM?$AAA?$AAR?$AAE?$AAQ?$AA4?$AA0?$AA_?$AAM?$AAU?$AAX?$AA1?$AA?$AA@ 1000bf60     shell.obj
 0001:0000af8c       ??_C@_1CM@IOBGLNJP@?$AAS?$AAD?$AAM?$AAA?$AA_?$AAP?$AAI?$AA_?$AAD?$AAM?$AAA?$AAR?$AAE?$AAQ?$AA3?$AA9?$AA_?$AAM?$AAU?$AAX?$AA1?$AA?$AA@ 1000bf8c     shell.obj
 0001:0000afb8       ??_C@_1CM@BDBJFMOJ@?$AAS?$AAD?$AAM?$AAA?$AA_?$AAP?$AAI?$AA_?$AAD?$AAM?$AAA?$AAR?$AAE?$AAQ?$AA3?$AA8?$AA_?$AAM?$AAU?$AAX?$AA1?$AA?$AA@ 1000bfb8     shell.obj
 0001:0000afe4       ??_C@_1CM@EFINOIBP@?$AAS?$AAD?$AAM?$AAA?$AA_?$AAP?$AAI?$AA_?$AAD?$AAM?$AAA?$AAR?$AAE?$AAQ?$AA3?$AA7?$AA_?$AAM?$AAU?$AAX?$AA1?$AA?$AA@ 1000bfe4     shell.obj
 0001:0000b010       ??_C@_1CM@NIICAJGJ@?$AAS?$AAD?$AAM?$AAA?$AA_?$AAP?$AAI?$AA_?$AAD?$AAM?$AAA?$AAR?$AAE?$AAQ?$AA3?$AA6?$AA_?$AAM?$AAU?$AAX?$AA1?$AA?$AA@ 1000c010     shell.obj
 0001:0000b03c       ??_C@_1CM@KEODCMLC@?$AAS?$AAD?$AAM?$AAA?$AA_?$AAP?$AAI?$AA_?$AAD?$AAM?$AAA?$AAR?$AAE?$AAQ?$AA3?$AA5?$AA_?$AAM?$AAU?$AAX?$AA1?$AA?$AA@ 1000c03c     shell.obj
 0001:0000b068       ??_C@_1CM@DJOMMNME@?$AAS?$AAD?$AAM?$AAA?$AA_?$AAP?$AAI?$AA_?$AAD?$AAM?$AAA?$AAR?$AAE?$AAQ?$AA3?$AA4?$AA_?$AAM?$AAU?$AAX?$AA1?$AA?$AA@ 1000c068     shell.obj
 0001:0000b094       ??_C@_1CM@FMCBGHAE@?$AAS?$AAD?$AAM?$AAA?$AA_?$AAP?$AAI?$AA_?$AAD?$AAM?$AAA?$AAR?$AAE?$AAQ?$AA3?$AA3?$AA_?$AAM?$AAU?$AAX?$AA1?$AA?$AA@ 1000c094     shell.obj
 0001:0000b0c0       ??_C@_1CM@MBCOIGHC@?$AAS?$AAD?$AAM?$AAA?$AA_?$AAP?$AAI?$AA_?$AAD?$AAM?$AAA?$AAR?$AAE?$AAQ?$AA3?$AA2?$AA_?$AAM?$AAU?$AAX?$AA1?$AA?$AA@ 1000c0c0     shell.obj
 0001:0000b0ec       ??_C@_1CM@LNEPKDKJ@?$AAS?$AAD?$AAM?$AAA?$AA_?$AAP?$AAI?$AA_?$AAD?$AAM?$AAA?$AAR?$AAE?$AAQ?$AA3?$AA1?$AA_?$AAM?$AAU?$AAX?$AA1?$AA?$AA@ 1000c0ec     shell.obj
 0001:0000b118       ??_C@_1CM@CAEAECNP@?$AAS?$AAD?$AAM?$AAA?$AA_?$AAP?$AAI?$AA_?$AAD?$AAM?$AAA?$AAR?$AAE?$AAQ?$AA3?$AA0?$AA_?$AAM?$AAU?$AAX?$AA1?$AA?$AA@ 1000c118     shell.obj
 0001:0000b144       ??_C@_1CM@CAHOCMAO@?$AAS?$AAD?$AAM?$AAA?$AA_?$AAP?$AAI?$AA_?$AAD?$AAM?$AAA?$AAR?$AAE?$AAQ?$AA2?$AA9?$AA_?$AAM?$AAU?$AAX?$AA1?$AA?$AA@ 1000c144     shell.obj
 0001:0000b170       ??_C@_1CM@LNHBMNHI@?$AAS?$AAD?$AAM?$AAA?$AA_?$AAP?$AAI?$AA_?$AAD?$AAM?$AAA?$AAR?$AAE?$AAQ?$AA2?$AA8?$AA_?$AAM?$AAU?$AAX?$AA1?$AA?$AA@ 1000c170     shell.obj
 0001:0000b19c       ??_C@_1CM@OLOFHJIO@?$AAS?$AAD?$AAM?$AAA?$AA_?$AAP?$AAI?$AA_?$AAD?$AAM?$AAA?$AAR?$AAE?$AAQ?$AA2?$AA7?$AA_?$AAM?$AAU?$AAX?$AA1?$AA?$AA@ 1000c19c     shell.obj
 0001:0000b1c8       ??_C@_1CM@HGOKJIPI@?$AAS?$AAD?$AAM?$AAA?$AA_?$AAP?$AAI?$AA_?$AAD?$AAM?$AAA?$AAR?$AAE?$AAQ?$AA2?$AA6?$AA_?$AAM?$AAU?$AAX?$AA1?$AA?$AA@ 1000c1c8     shell.obj
 0001:0000b1f4       ??_C@_1CM@KILLNCD@?$AAS?$AAD?$AAM?$AAA?$AA_?$AAP?$AAI?$AA_?$AAD?$AAM?$AAA?$AAR?$AAE?$AAQ?$AA2?$AA5?$AA_?$AAM?$AAU?$AAX?$AA1?$AA?$AA@ 1000c1f4     shell.obj
 0001:0000b220       ??_C@_1CM@JHIEFMFF@?$AAS?$AAD?$AAM?$AAA?$AA_?$AAP?$AAI?$AA_?$AAD?$AAM?$AAA?$AAR?$AAE?$AAQ?$AA2?$AA4?$AA_?$AAM?$AAU?$AAX?$AA1?$AA?$AA@ 1000c220     shell.obj
 0001:0000b24c       ??_C@_1CM@PCEJPGJF@?$AAS?$AAD?$AAM?$AAA?$AA_?$AAP?$AAI?$AA_?$AAD?$AAM?$AAA?$AAR?$AAE?$AAQ?$AA2?$AA3?$AA_?$AAM?$AAU?$AAX?$AA1?$AA?$AA@ 1000c24c     shell.obj
 0001:0000b278       ??_C@_1CM@GPEGBHOD@?$AAS?$AAD?$AAM?$AAA?$AA_?$AAP?$AAI?$AA_?$AAD?$AAM?$AAA?$AAR?$AAE?$AAQ?$AA2?$AA2?$AA_?$AAM?$AAU?$AAX?$AA1?$AA?$AA@ 1000c278     shell.obj
 0001:0000b2a4       ??_C@_1CM@BDCHDCDI@?$AAS?$AAD?$AAM?$AAA?$AA_?$AAP?$AAI?$AA_?$AAD?$AAM?$AAA?$AAR?$AAE?$AAQ?$AA2?$AA1?$AA_?$AAM?$AAU?$AAX?$AA1?$AA?$AA@ 1000c2a4     shell.obj
 0001:0000b2d0       ??_C@_1CM@IOCINDEO@?$AAS?$AAD?$AAM?$AAA?$AA_?$AAP?$AAI?$AA_?$AAD?$AAM?$AAA?$AAR?$AAE?$AAQ?$AA2?$AA0?$AA_?$AAM?$AAU?$AAX?$AA1?$AA?$AA@ 1000c2d0     shell.obj
 0001:0000b2fc       ??_C@_1CM@JLGJIPM@?$AAS?$AAD?$AAM?$AAA?$AA_?$AAP?$AAI?$AA_?$AAD?$AAM?$AAA?$AAR?$AAE?$AAQ?$AA1?$AA9?$AA_?$AAM?$AAU?$AAX?$AA1?$AA?$AA@ 1000c2fc     shell.obj
 0001:0000b328       ??_C@_1CM@JELJHJIK@?$AAS?$AAD?$AAM?$AAA?$AA_?$AAP?$AAI?$AA_?$AAD?$AAM?$AAA?$AAR?$AAE?$AAQ?$AA1?$AA8?$AA_?$AAM?$AAU?$AAX?$AA1?$AA?$AA@ 1000c328     shell.obj
 0001:0000b354       ??_C@_1CM@MCCNMNHM@?$AAS?$AAD?$AAM?$AAA?$AA_?$AAP?$AAI?$AA_?$AAD?$AAM?$AAA?$AAR?$AAE?$AAQ?$AA1?$AA7?$AA_?$AAM?$AAU?$AAX?$AA1?$AA?$AA@ 1000c354     shell.obj
 0001:0000b380       ??_C@_1CM@FPCCCMAK@?$AAS?$AAD?$AAM?$AAA?$AA_?$AAP?$AAI?$AA_?$AAD?$AAM?$AAA?$AAR?$AAE?$AAQ?$AA1?$AA6?$AA_?$AAM?$AAU?$AAX?$AA1?$AA?$AA@ 1000c380     shell.obj
 0001:0000b3ac       ??_C@_1CM@CDEDAJNB@?$AAS?$AAD?$AAM?$AAA?$AA_?$AAP?$AAI?$AA_?$AAD?$AAM?$AAA?$AAR?$AAE?$AAQ?$AA1?$AA5?$AA_?$AAM?$AAU?$AAX?$AA1?$AA?$AA@ 1000c3ac     shell.obj
 0001:0000b3d8       ??_C@_1CM@LOEMOIKH@?$AAS?$AAD?$AAM?$AAA?$AA_?$AAP?$AAI?$AA_?$AAD?$AAM?$AAA?$AAR?$AAE?$AAQ?$AA1?$AA4?$AA_?$AAM?$AAU?$AAX?$AA1?$AA?$AA@ 1000c3d8     shell.obj
 0001:0000b404       ??_C@_1CM@NLIBECGH@?$AAS?$AAD?$AAM?$AAA?$AA_?$AAP?$AAI?$AA_?$AAD?$AAM?$AAA?$AAR?$AAE?$AAQ?$AA1?$AA3?$AA_?$AAM?$AAU?$AAX?$AA1?$AA?$AA@ 1000c404     shell.obj
 0001:0000b430       ??_C@_1CM@EGIOKDBB@?$AAS?$AAD?$AAM?$AAA?$AA_?$AAP?$AAI?$AA_?$AAD?$AAM?$AAA?$AAR?$AAE?$AAQ?$AA1?$AA2?$AA_?$AAM?$AAU?$AAX?$AA1?$AA?$AA@ 1000c430     shell.obj
 0001:0000b45c       ??_C@_1CM@DKOPIGMK@?$AAS?$AAD?$AAM?$AAA?$AA_?$AAP?$AAI?$AA_?$AAD?$AAM?$AAA?$AAR?$AAE?$AAQ?$AA1?$AA1?$AA_?$AAM?$AAU?$AAX?$AA1?$AA?$AA@ 1000c45c     shell.obj
 0001:0000b488       ??_C@_1CM@KHOAGHLM@?$AAS?$AAD?$AAM?$AAA?$AA_?$AAP?$AAI?$AA_?$AAD?$AAM?$AAA?$AAR?$AAE?$AAQ?$AA1?$AA0?$AA_?$AAM?$AAU?$AAX?$AA1?$AA?$AA@ 1000c488     shell.obj
 0001:0000b4b4       ??_C@_1CK@JAAJAMHA@?$AAS?$AAD?$AAM?$AAA?$AA_?$AAP?$AAI?$AA_?$AAD?$AAM?$AAA?$AAR?$AAE?$AAQ?$AA9?$AA_?$AAM?$AAU?$AAX?$AA1?$AA?$AA@ 1000c4b4     shell.obj
 0001:0000b4e0       ??_C@_1CK@NAGONAG@?$AAS?$AAD?$AAM?$AAA?$AA_?$AAP?$AAI?$AA_?$AAD?$AAM?$AAA?$AAR?$AAE?$AAQ?$AA8?$AA_?$AAM?$AAU?$AAX?$AA1?$AA?$AA@ 1000c4e0     shell.obj
 0001:0000b50c       ??_C@_1CK@FLJCFJPA@?$AAS?$AAD?$AAM?$AAA?$AA_?$AAP?$AAI?$AA_?$AAD?$AAM?$AAA?$AAR?$AAE?$AAQ?$AA7?$AA_?$AAM?$AAU?$AAX?$AA1?$AA?$AA@ 1000c50c     shell.obj
 0001:0000b538       ??_C@_1CK@MGJNLIIG@?$AAS?$AAD?$AAM?$AAA?$AA_?$AAP?$AAI?$AA_?$AAD?$AAM?$AAA?$AAR?$AAE?$AAQ?$AA6?$AA_?$AAM?$AAU?$AAX?$AA1?$AA?$AA@ 1000c538     shell.obj
 0001:0000b564       ??_C@_1CK@LKPMJNFN@?$AAS?$AAD?$AAM?$AAA?$AA_?$AAP?$AAI?$AA_?$AAD?$AAM?$AAA?$AAR?$AAE?$AAQ?$AA5?$AA_?$AAM?$AAU?$AAX?$AA1?$AA?$AA@ 1000c564     shell.obj
 0001:0000b590       ??_C@_1CK@CHPDHMCL@?$AAS?$AAD?$AAM?$AAA?$AA_?$AAP?$AAI?$AA_?$AAD?$AAM?$AAA?$AAR?$AAE?$AAQ?$AA4?$AA_?$AAM?$AAU?$AAX?$AA1?$AA?$AA@ 1000c590     shell.obj
 0001:0000b5bc       ??_C@_1CK@ECDONGOL@?$AAS?$AAD?$AAM?$AAA?$AA_?$AAP?$AAI?$AA_?$AAD?$AAM?$AAA?$AAR?$AAE?$AAQ?$AA3?$AA_?$AAM?$AAU?$AAX?$AA1?$AA?$AA@ 1000c5bc     shell.obj
 0001:0000b5e8       ??_C@_1CK@NPDBDHJN@?$AAS?$AAD?$AAM?$AAA?$AA_?$AAP?$AAI?$AA_?$AAD?$AAM?$AAA?$AAR?$AAE?$AAQ?$AA2?$AA_?$AAM?$AAU?$AAX?$AA1?$AA?$AA@ 1000c5e8     shell.obj
 0001:0000b614       ??_C@_1CK@KDFABCEG@?$AAS?$AAD?$AAM?$AAA?$AA_?$AAP?$AAI?$AA_?$AAD?$AAM?$AAA?$AAR?$AAE?$AAQ?$AA1?$AA_?$AAM?$AAU?$AAX?$AA1?$AA?$AA@ 1000c614     shell.obj
 0001:0000b640       ??_C@_1CI@KNFLAONB@?$AAP?$AAR?$AAC?$AAM?$AA_?$AAC?$AAO?$AAR?$AAE?$AA_?$AA9?$AA6?$AAM?$AA_?$AAG?$AAF?$AAC?$AAL?$AAK?$AA?$AA@ 1000c640     shell.obj
 0001:0000b668       ??_C@_1CM@MEAMMLLJ@?$AAP?$AAR?$AAC?$AAM?$AA_?$AAS?$AAT?$AAA?$AAT?$AAE?$AA_?$AAI?$AAS?$AA_?$AAO?$AAN?$AA_?$AAC?$AAO?$AAR?$AAE?$AA?$AA@ 1000c668     shell.obj
 0001:0000b694       ??_C@_1DI@NHDOHPEO@?$AAP?$AAR?$AAC?$AAM?$AA_?$AAW?$AAK?$AAU?$AAP?$AA_?$AAd?$AAo?$AAm?$AAa?$AAi?$AAn?$AAN?$AAr?$AAe?$AAa?$AAd?$AAy?$AA_?$AAM?$AAU?$AAX?$AA1?$AA?$AA@ 1000c694     shell.obj
 0001:0000b6cc       ??_C@_1CO@PHBLGMAN@?$AAP?$AAR?$AAC?$AAM?$AA_?$AAN?$AAE?$AAO?$AAN?$AA_?$AAd?$AAo?$AAm?$AAa?$AAi?$AAn?$AAN?$AAr?$AAe?$AAa?$AAd?$AAy?$AA?$AA@ 1000c6cc     shell.obj
 0001:0000b6fc       ??_C@_1DG@CIGNCGKJ@?$AAP?$AAR?$AAC?$AAM?$AA_?$AAD?$AAP?$AAL?$AAL?$AA2?$AA_?$AAC?$AAl?$AAk?$AAI?$AAs?$AAN?$AAo?$AAt?$AAR?$AAu?$AAn?$AAn?$AAi?$AAn?$AAg?$AA?$AA@ 1000c6fc     shell.obj
 0001:0000b734       ??_C@_1BG@LNLDCDGE@?$AAC?$AAM?$AA_?$AAS?$AAY?$AAS?$AA_?$AAC?$AAL?$AAK?$AA?$AA@ 1000c734     shell.obj
 0001:0000b74c       ??_C@_1CE@OHLFAFBN@?$AAP?$AAR?$AAC?$AAM?$AA_?$AAD?$AAP?$AAL?$AAL?$AA3?$AA_?$AAM?$AA2?$AA_?$AAC?$AAL?$AAK?$AA?$AA@ 1000c74c     shell.obj
 0001:0000b770       ??_C@_1CM@NBMCIIEL@?$AAS?$AAD?$AAM?$AAA?$AA_?$AAP?$AAI?$AA_?$AAD?$AAM?$AAA?$AAR?$AAE?$AAQ?$AA7?$AA1?$AA_?$AAM?$AAU?$AAX?$AA0?$AA?$AA@ 1000c770     shell.obj
 0001:0000b79c       ??_C@_1CM@EMMNGJDN@?$AAS?$AAD?$AAM?$AAA?$AA_?$AAP?$AAI?$AA_?$AAD?$AAM?$AAA?$AAR?$AAE?$AAQ?$AA7?$AA0?$AA_?$AAM?$AAU?$AAX?$AA0?$AA?$AA@ 1000c79c     shell.obj
 0001:0000b7c8       ??_C@_1CM@EMPDAHOM@?$AAS?$AAD?$AAM?$AAA?$AA_?$AAP?$AAI?$AA_?$AAD?$AAM?$AAA?$AAR?$AAE?$AAQ?$AA6?$AA9?$AA_?$AAM?$AAU?$AAX?$AA0?$AA?$AA@ 1000c7c8     shell.obj
 0001:0000b7f4       ??_C@_1CM@NBPMOGJK@?$AAS?$AAD?$AAM?$AAA?$AA_?$AAP?$AAI?$AA_?$AAD?$AAM?$AAA?$AAR?$AAE?$AAQ?$AA6?$AA8?$AA_?$AAM?$AAU?$AAX?$AA0?$AA?$AA@ 1000c7f4     shell.obj
 0001:0000b820       ??_C@_1CM@IHGIFCGM@?$AAS?$AAD?$AAM?$AAA?$AA_?$AAP?$AAI?$AA_?$AAD?$AAM?$AAA?$AAR?$AAE?$AAQ?$AA6?$AA7?$AA_?$AAM?$AAU?$AAX?$AA0?$AA?$AA@ 1000c820     shell.obj
 0001:0000b84c       ??_C@_1CM@BKGHLDBK@?$AAS?$AAD?$AAM?$AAA?$AA_?$AAP?$AAI?$AA_?$AAD?$AAM?$AAA?$AAR?$AAE?$AAQ?$AA6?$AA6?$AA_?$AAM?$AAU?$AAX?$AA0?$AA?$AA@ 1000c84c     shell.obj
 0001:0000b878       ??_C@_1CM@GGAGJGMB@?$AAS?$AAD?$AAM?$AAA?$AA_?$AAP?$AAI?$AA_?$AAD?$AAM?$AAA?$AAR?$AAE?$AAQ?$AA6?$AA5?$AA_?$AAM?$AAU?$AAX?$AA0?$AA?$AA@ 1000c878     shell.obj
 0001:0000b8a4       ??_C@_1CM@PLAJHHLH@?$AAS?$AAD?$AAM?$AAA?$AA_?$AAP?$AAI?$AA_?$AAD?$AAM?$AAA?$AAR?$AAE?$AAQ?$AA6?$AA4?$AA_?$AAM?$AAU?$AAX?$AA0?$AA?$AA@ 1000c8a4     shell.obj
 0001:0000b8d0       ??_C@_1CM@JOMENNHH@?$AAS?$AAD?$AAM?$AAA?$AA_?$AAP?$AAI?$AA_?$AAD?$AAM?$AAA?$AAR?$AAE?$AAQ?$AA6?$AA3?$AA_?$AAM?$AAU?$AAX?$AA0?$AA?$AA@ 1000c8d0     shell.obj
 0001:0000b8fc       ??_C@_1CM@DMLDMAB@?$AAS?$AAD?$AAM?$AAA?$AA_?$AAP?$AAI?$AA_?$AAD?$AAM?$AAA?$AAR?$AAE?$AAQ?$AA6?$AA2?$AA_?$AAM?$AAU?$AAX?$AA0?$AA?$AA@ 1000c8fc     shell.obj
 0001:0000b928       ??_C@_1CM@HPKKBJNK@?$AAS?$AAD?$AAM?$AAA?$AA_?$AAP?$AAI?$AA_?$AAD?$AAM?$AAA?$AAR?$AAE?$AAQ?$AA6?$AA1?$AA_?$AAM?$AAU?$AAX?$AA0?$AA?$AA@ 1000c928     shell.obj
 0001:0000b954       ??_C@_1CM@OCKFPIKM@?$AAS?$AAD?$AAM?$AAA?$AA_?$AAP?$AAI?$AA_?$AAD?$AAM?$AAA?$AAR?$AAE?$AAQ?$AA6?$AA0?$AA_?$AAM?$AAU?$AAX?$AA0?$AA?$AA@ 1000c954     shell.obj
 0001:0000b980       ??_C@_1CM@GFDLLDBO@?$AAS?$AAD?$AAM?$AAA?$AA_?$AAP?$AAI?$AA_?$AAD?$AAM?$AAA?$AAR?$AAE?$AAQ?$AA5?$AA9?$AA_?$AAM?$AAU?$AAX?$AA0?$AA?$AA@ 1000c980     shell.obj
 0001:0000b9ac       ??_C@_1CM@PIDEFCGI@?$AAS?$AAD?$AAM?$AAA?$AA_?$AAP?$AAI?$AA_?$AAD?$AAM?$AAA?$AAR?$AAE?$AAQ?$AA5?$AA8?$AA_?$AAM?$AAU?$AAX?$AA0?$AA?$AA@ 1000c9ac     shell.obj
 0001:0000b9d8       ??_C@_1CM@KOKAOGJO@?$AAS?$AAD?$AAM?$AAA?$AA_?$AAP?$AAI?$AA_?$AAD?$AAM?$AAA?$AAR?$AAE?$AAQ?$AA5?$AA7?$AA_?$AAM?$AAU?$AAX?$AA0?$AA?$AA@ 1000c9d8     shell.obj
 0001:0000ba04       ??_C@_1CM@DDKPAHOI@?$AAS?$AAD?$AAM?$AAA?$AA_?$AAP?$AAI?$AA_?$AAD?$AAM?$AAA?$AAR?$AAE?$AAQ?$AA5?$AA6?$AA_?$AAM?$AAU?$AAX?$AA0?$AA?$AA@ 1000ca04     shell.obj
 0001:0000ba30       ??_C@_1CM@EPMOCCDD@?$AAS?$AAD?$AAM?$AAA?$AA_?$AAP?$AAI?$AA_?$AAD?$AAM?$AAA?$AAR?$AAE?$AAQ?$AA5?$AA5?$AA_?$AAM?$AAU?$AAX?$AA0?$AA?$AA@ 1000ca30     shell.obj
 0001:0000ba5c       ??_C@_1CM@NCMBMDEF@?$AAS?$AAD?$AAM?$AAA?$AA_?$AAP?$AAI?$AA_?$AAD?$AAM?$AAA?$AAR?$AAE?$AAQ?$AA5?$AA4?$AA_?$AAM?$AAU?$AAX?$AA0?$AA?$AA@ 1000ca5c     shell.obj
 0001:0000ba88       ??_C@_1CM@LHAMGJIF@?$AAS?$AAD?$AAM?$AAA?$AA_?$AAP?$AAI?$AA_?$AAD?$AAM?$AAA?$AAR?$AAE?$AAQ?$AA5?$AA3?$AA_?$AAM?$AAU?$AAX?$AA0?$AA?$AA@ 1000ca88     shell.obj
 0001:0000bab4       ??_C@_1CM@CKADIIPD@?$AAS?$AAD?$AAM?$AAA?$AA_?$AAP?$AAI?$AA_?$AAD?$AAM?$AAA?$AAR?$AAE?$AAQ?$AA5?$AA2?$AA_?$AAM?$AAU?$AAX?$AA0?$AA?$AA@ 1000cab4     shell.obj
 0001:0000bae0       ??_C@_1CM@FGGCKNCI@?$AAS?$AAD?$AAM?$AAA?$AA_?$AAP?$AAI?$AA_?$AAD?$AAM?$AAA?$AAR?$AAE?$AAQ?$AA5?$AA1?$AA_?$AAM?$AAU?$AAX?$AA0?$AA?$AA@ 1000cae0     shell.obj
 0001:0000bb0c       ??_C@_1CM@MLGNEMFO@?$AAS?$AAD?$AAM?$AAA?$AA_?$AAP?$AAI?$AA_?$AAD?$AAM?$AAA?$AAR?$AAE?$AAQ?$AA5?$AA0?$AA_?$AAM?$AAU?$AAX?$AA0?$AA?$AA@ 1000cb0c     shell.obj
 0001:0000bb38       ??_C@_1CM@MLFDCCIP@?$AAS?$AAD?$AAM?$AAA?$AA_?$AAP?$AAI?$AA_?$AAD?$AAM?$AAA?$AAR?$AAE?$AAQ?$AA4?$AA9?$AA_?$AAM?$AAU?$AAX?$AA0?$AA?$AA@ 1000cb38     shell.obj
 0001:0000bb64       ??_C@_1CM@FGFMMDPJ@?$AAS?$AAD?$AAM?$AAA?$AA_?$AAP?$AAI?$AA_?$AAD?$AAM?$AAA?$AAR?$AAE?$AAQ?$AA4?$AA8?$AA_?$AAM?$AAU?$AAX?$AA0?$AA?$AA@ 1000cb64     shell.obj
 0001:0000bb90       ??_C@_1CM@MIHHAP@?$AAS?$AAD?$AAM?$AAA?$AA_?$AAP?$AAI?$AA_?$AAD?$AAM?$AAA?$AAR?$AAE?$AAQ?$AA4?$AA7?$AA_?$AAM?$AAU?$AAX?$AA0?$AA?$AA@ 1000cb90     shell.obj
 0001:0000bbbc       ??_C@_1CM@JNMHJGHJ@?$AAS?$AAD?$AAM?$AAA?$AA_?$AAP?$AAI?$AA_?$AAD?$AAM?$AAA?$AAR?$AAE?$AAQ?$AA4?$AA6?$AA_?$AAM?$AAU?$AAX?$AA0?$AA?$AA@ 1000cbbc     shell.obj
 0001:0000bbe8       ??_C@_1CM@OBKGLDKC@?$AAS?$AAD?$AAM?$AAA?$AA_?$AAP?$AAI?$AA_?$AAD?$AAM?$AAA?$AAR?$AAE?$AAQ?$AA4?$AA5?$AA_?$AAM?$AAU?$AAX?$AA0?$AA?$AA@ 1000cbe8     shell.obj
 0001:0000bc14       ??_C@_1CM@HMKJFCNE@?$AAS?$AAD?$AAM?$AAA?$AA_?$AAP?$AAI?$AA_?$AAD?$AAM?$AAA?$AAR?$AAE?$AAQ?$AA4?$AA4?$AA_?$AAM?$AAU?$AAX?$AA0?$AA?$AA@ 1000cc14     shell.obj
 0001:0000bc40       ??_C@_1CM@BJGEPIBE@?$AAS?$AAD?$AAM?$AAA?$AA_?$AAP?$AAI?$AA_?$AAD?$AAM?$AAA?$AAR?$AAE?$AAQ?$AA4?$AA3?$AA_?$AAM?$AAU?$AAX?$AA0?$AA?$AA@ 1000cc40     shell.obj
 0001:0000bc6c       ??_C@_1CM@IEGLBJGC@?$AAS?$AAD?$AAM?$AAA?$AA_?$AAP?$AAI?$AA_?$AAD?$AAM?$AAA?$AAR?$AAE?$AAQ?$AA4?$AA2?$AA_?$AAM?$AAU?$AAX?$AA0?$AA?$AA@ 1000cc6c     shell.obj
 0001:0000bc98       ??_C@_1CM@PIAKDMLJ@?$AAS?$AAD?$AAM?$AAA?$AA_?$AAP?$AAI?$AA_?$AAD?$AAM?$AAA?$AAR?$AAE?$AAQ?$AA4?$AA1?$AA_?$AAM?$AAU?$AAX?$AA0?$AA?$AA@ 1000cc98     shell.obj
 0001:0000bcc4       ??_C@_1CM@GFAFNNMP@?$AAS?$AAD?$AAM?$AAA?$AA_?$AAP?$AAI?$AA_?$AAD?$AAM?$AAA?$AAR?$AAE?$AAQ?$AA4?$AA0?$AA_?$AAM?$AAU?$AAX?$AA0?$AA?$AA@ 1000ccc4     shell.obj
 0001:0000bcf0       ??_C@_1CM@DGKKNKPK@?$AAS?$AAD?$AAM?$AAA?$AA_?$AAP?$AAI?$AA_?$AAD?$AAM?$AAA?$AAR?$AAE?$AAQ?$AA3?$AA9?$AA_?$AAM?$AAU?$AAX?$AA0?$AA?$AA@ 1000ccf0     shell.obj
 0001:0000bd1c       ??_C@_1CM@KLKFDLIM@?$AAS?$AAD?$AAM?$AAA?$AA_?$AAP?$AAI?$AA_?$AAD?$AAM?$AAA?$AAR?$AAE?$AAQ?$AA3?$AA8?$AA_?$AAM?$AAU?$AAX?$AA0?$AA?$AA@ 1000cd1c     shell.obj
 0001:0000bd48       ??_C@_1CM@PNDBIPHK@?$AAS?$AAD?$AAM?$AAA?$AA_?$AAP?$AAI?$AA_?$AAD?$AAM?$AAA?$AAR?$AAE?$AAQ?$AA3?$AA7?$AA_?$AAM?$AAU?$AAX?$AA0?$AA?$AA@ 1000cd48     shell.obj
 0001:0000bd74       ??_C@_1CM@GADOGOAM@?$AAS?$AAD?$AAM?$AAA?$AA_?$AAP?$AAI?$AA_?$AAD?$AAM?$AAA?$AAR?$AAE?$AAQ?$AA3?$AA6?$AA_?$AAM?$AAU?$AAX?$AA0?$AA?$AA@ 1000cd74     shell.obj
 0001:0000bda0       ??_C@_1CM@BMFPELNH@?$AAS?$AAD?$AAM?$AAA?$AA_?$AAP?$AAI?$AA_?$AAD?$AAM?$AAA?$AAR?$AAE?$AAQ?$AA3?$AA5?$AA_?$AAM?$AAU?$AAX?$AA0?$AA?$AA@ 1000cda0     shell.obj
 0001:0000bdcc       ??_C@_1CM@IBFAKKKB@?$AAS?$AAD?$AAM?$AAA?$AA_?$AAP?$AAI?$AA_?$AAD?$AAM?$AAA?$AAR?$AAE?$AAQ?$AA3?$AA4?$AA_?$AAM?$AAU?$AAX?$AA0?$AA?$AA@ 1000cdcc     shell.obj
 0001:0000bdf8       ??_C@_1CM@OEJNAAGB@?$AAS?$AAD?$AAM?$AAA?$AA_?$AAP?$AAI?$AA_?$AAD?$AAM?$AAA?$AAR?$AAE?$AAQ?$AA3?$AA3?$AA_?$AAM?$AAU?$AAX?$AA0?$AA?$AA@ 1000cdf8     shell.obj
 0001:0000be24       ??_C@_1CM@HJJCOBBH@?$AAS?$AAD?$AAM?$AAA?$AA_?$AAP?$AAI?$AA_?$AAD?$AAM?$AAA?$AAR?$AAE?$AAQ?$AA3?$AA2?$AA_?$AAM?$AAU?$AAX?$AA0?$AA?$AA@ 1000ce24     shell.obj
 0001:0000be50       ??_C@_1CM@FPDMEMM@?$AAS?$AAD?$AAM?$AAA?$AA_?$AAP?$AAI?$AA_?$AAD?$AAM?$AAA?$AAR?$AAE?$AAQ?$AA3?$AA1?$AA_?$AAM?$AAU?$AAX?$AA0?$AA?$AA@ 1000ce50     shell.obj
 0001:0000be7c       ??_C@_1CM@JIPMCFLK@?$AAS?$AAD?$AAM?$AAA?$AA_?$AAP?$AAI?$AA_?$AAD?$AAM?$AAA?$AAR?$AAE?$AAQ?$AA3?$AA0?$AA_?$AAM?$AAU?$AAX?$AA0?$AA?$AA@ 1000ce7c     shell.obj
 0001:0000bea8       ??_C@_1CM@JIMCELGL@?$AAS?$AAD?$AAM?$AAA?$AA_?$AAP?$AAI?$AA_?$AAD?$AAM?$AAA?$AAR?$AAE?$AAQ?$AA2?$AA9?$AA_?$AAM?$AAU?$AAX?$AA0?$AA?$AA@ 1000cea8     shell.obj
 0001:0000bed4       ??_C@_1CM@FMNKKBN@?$AAS?$AAD?$AAM?$AAA?$AA_?$AAP?$AAI?$AA_?$AAD?$AAM?$AAA?$AAR?$AAE?$AAQ?$AA2?$AA8?$AA_?$AAM?$AAU?$AAX?$AA0?$AA?$AA@ 1000ced4     shell.obj
 0001:0000bf00       ??_C@_1CM@FDFJBOOL@?$AAS?$AAD?$AAM?$AAA?$AA_?$AAP?$AAI?$AA_?$AAD?$AAM?$AAA?$AAR?$AAE?$AAQ?$AA2?$AA7?$AA_?$AAM?$AAU?$AAX?$AA0?$AA?$AA@ 1000cf00     shell.obj
 0001:0000bf2c       ??_C@_1CM@MOFGPPJN@?$AAS?$AAD?$AAM?$AAA?$AA_?$AAP?$AAI?$AA_?$AAD?$AAM?$AAA?$AAR?$AAE?$AAQ?$AA2?$AA6?$AA_?$AAM?$AAU?$AAX?$AA0?$AA?$AA@ 1000cf2c     shell.obj
 0001:0000bf58       ??_C@_1CM@LCDHNKEG@?$AAS?$AAD?$AAM?$AAA?$AA_?$AAP?$AAI?$AA_?$AAD?$AAM?$AAA?$AAR?$AAE?$AAQ?$AA2?$AA5?$AA_?$AAM?$AAU?$AAX?$AA0?$AA?$AA@ 1000cf58     shell.obj
 0001:0000bf84       ??_C@_1CM@CPDIDLDA@?$AAS?$AAD?$AAM?$AAA?$AA_?$AAP?$AAI?$AA_?$AAD?$AAM?$AAA?$AAR?$AAE?$AAQ?$AA2?$AA4?$AA_?$AAM?$AAU?$AAX?$AA0?$AA?$AA@ 1000cf84     shell.obj
 0001:0000bfb0       ??_C@_1CM@EKPFJBPA@?$AAS?$AAD?$AAM?$AAA?$AA_?$AAP?$AAI?$AA_?$AAD?$AAM?$AAA?$AAR?$AAE?$AAQ?$AA2?$AA3?$AA_?$AAM?$AAU?$AAX?$AA0?$AA?$AA@ 1000cfb0     shell.obj
 0001:0000bfdc       ??_C@_1CM@NHPKHAIG@?$AAS?$AAD?$AAM?$AAA?$AA_?$AAP?$AAI?$AA_?$AAD?$AAM?$AAA?$AAR?$AAE?$AAQ?$AA2?$AA2?$AA_?$AAM?$AAU?$AAX?$AA0?$AA?$AA@ 1000cfdc     shell.obj
 0001:0000c008       ??_C@_1CM@KLJLFFFN@?$AAS?$AAD?$AAM?$AAA?$AA_?$AAP?$AAI?$AA_?$AAD?$AAM?$AAA?$AAR?$AAE?$AAQ?$AA2?$AA1?$AA_?$AAM?$AAU?$AAX?$AA0?$AA?$AA@ 1000d008     shell.obj
 0001:0000c034       ??_C@_1CM@DGJELECL@?$AAS?$AAD?$AAM?$AAA?$AA_?$AAP?$AAI?$AA_?$AAD?$AAM?$AAA?$AAR?$AAE?$AAQ?$AA2?$AA0?$AA_?$AAM?$AAU?$AAX?$AA0?$AA?$AA@ 1000d034     shell.obj
 0001:0000c060       ??_C@_1CM@LBAKPPJJ@?$AAS?$AAD?$AAM?$AAA?$AA_?$AAP?$AAI?$AA_?$AAD?$AAM?$AAA?$AAR?$AAE?$AAQ?$AA1?$AA9?$AA_?$AAM?$AAU?$AAX?$AA0?$AA?$AA@ 1000d060     shell.obj
 0001:0000c08c       ??_C@_1CM@CMAFBOOP@?$AAS?$AAD?$AAM?$AAA?$AA_?$AAP?$AAI?$AA_?$AAD?$AAM?$AAA?$AAR?$AAE?$AAQ?$AA1?$AA8?$AA_?$AAM?$AAU?$AAX?$AA0?$AA?$AA@ 1000d08c     shell.obj
 0001:0000c0b8       ??_C@_1CM@HKJBKKBJ@?$AAS?$AAD?$AAM?$AAA?$AA_?$AAP?$AAI?$AA_?$AAD?$AAM?$AAA?$AAR?$AAE?$AAQ?$AA1?$AA7?$AA_?$AAM?$AAU?$AAX?$AA0?$AA?$AA@ 1000d0b8     shell.obj
 0001:0000c0e4       ??_C@_1CM@OHJOELGP@?$AAS?$AAD?$AAM?$AAA?$AA_?$AAP?$AAI?$AA_?$AAD?$AAM?$AAA?$AAR?$AAE?$AAQ?$AA1?$AA6?$AA_?$AAM?$AAU?$AAX?$AA0?$AA?$AA@ 1000d0e4     shell.obj
 0001:0000c110       ??_C@_1CM@JLPPGOLE@?$AAS?$AAD?$AAM?$AAA?$AA_?$AAP?$AAI?$AA_?$AAD?$AAM?$AAA?$AAR?$AAE?$AAQ?$AA1?$AA5?$AA_?$AAM?$AAU?$AAX?$AA0?$AA?$AA@ 1000d110     shell.obj
 0001:0000c13c       ??_C@_1CM@GPAIPMC@?$AAS?$AAD?$AAM?$AAA?$AA_?$AAP?$AAI?$AA_?$AAD?$AAM?$AAA?$AAR?$AAE?$AAQ?$AA1?$AA4?$AA_?$AAM?$AAU?$AAX?$AA0?$AA?$AA@ 1000d13c     shell.obj
 0001:0000c168       ??_C@_1CM@GDDNCFAC@?$AAS?$AAD?$AAM?$AAA?$AA_?$AAP?$AAI?$AA_?$AAD?$AAM?$AAA?$AAR?$AAE?$AAQ?$AA1?$AA3?$AA_?$AAM?$AAU?$AAX?$AA0?$AA?$AA@ 1000d168     shell.obj
 0001:0000c194       ??_C@_1CM@PODCMEHE@?$AAS?$AAD?$AAM?$AAA?$AA_?$AAP?$AAI?$AA_?$AAD?$AAM?$AAA?$AAR?$AAE?$AAQ?$AA1?$AA2?$AA_?$AAM?$AAU?$AAX?$AA0?$AA?$AA@ 1000d194     shell.obj
 0001:0000c1c0       ??_C@_1CM@ICFDOBKP@?$AAS?$AAD?$AAM?$AAA?$AA_?$AAP?$AAI?$AA_?$AAD?$AAM?$AAA?$AAR?$AAE?$AAQ?$AA1?$AA1?$AA_?$AAM?$AAU?$AAX?$AA0?$AA?$AA@ 1000d1c0     shell.obj
 0001:0000c1ec       ??_C@_1CM@BPFMAANJ@?$AAS?$AAD?$AAM?$AAA?$AA_?$AAP?$AAI?$AA_?$AAD?$AAM?$AAA?$AAR?$AAE?$AAQ?$AA1?$AA0?$AA_?$AAM?$AAU?$AAX?$AA0?$AA?$AA@ 1000d1ec     shell.obj
 0001:0000c218       ??_C@_1CK@CILFGLBF@?$AAS?$AAD?$AAM?$AAA?$AA_?$AAP?$AAI?$AA_?$AAD?$AAM?$AAA?$AAR?$AAE?$AAQ?$AA9?$AA_?$AAM?$AAU?$AAX?$AA0?$AA?$AA@ 1000d218     shell.obj
 0001:0000c244       ??_C@_1CK@LFLKIKGD@?$AAS?$AAD?$AAM?$AAA?$AA_?$AAP?$AAI?$AA_?$AAD?$AAM?$AAA?$AAR?$AAE?$AAQ?$AA8?$AA_?$AAM?$AAU?$AAX?$AA0?$AA?$AA@ 1000d244     shell.obj
 0001:0000c270       ??_C@_1CK@ODCODOJF@?$AAS?$AAD?$AAM?$AAA?$AA_?$AAP?$AAI?$AA_?$AAD?$AAM?$AAA?$AAR?$AAE?$AAQ?$AA7?$AA_?$AAM?$AAU?$AAX?$AA0?$AA?$AA@ 1000d270     shell.obj
 0001:0000c29c       ??_C@_1CK@HOCBNPOD@?$AAS?$AAD?$AAM?$AAA?$AA_?$AAP?$AAI?$AA_?$AAD?$AAM?$AAA?$AAR?$AAE?$AAQ?$AA6?$AA_?$AAM?$AAU?$AAX?$AA0?$AA?$AA@ 1000d29c     shell.obj
 0001:0000c2c8       ??_C@_1CK@CEAPKDI@?$AAS?$AAD?$AAM?$AAA?$AA_?$AAP?$AAI?$AA_?$AAD?$AAM?$AAA?$AAR?$AAE?$AAQ?$AA5?$AA_?$AAM?$AAU?$AAX?$AA0?$AA?$AA@ 1000d2c8     shell.obj
 0001:0000c2f4       ??_C@_1CK@JPEPBLEO@?$AAS?$AAD?$AAM?$AAA?$AA_?$AAP?$AAI?$AA_?$AAD?$AAM?$AAA?$AAR?$AAE?$AAQ?$AA4?$AA_?$AAM?$AAU?$AAX?$AA0?$AA?$AA@ 1000d2f4     shell.obj
 0001:0000c320       ??_C@_1CK@PKICLBIO@?$AAS?$AAD?$AAM?$AAA?$AA_?$AAP?$AAI?$AA_?$AAD?$AAM?$AAA?$AAR?$AAE?$AAQ?$AA3?$AA_?$AAM?$AAU?$AAX?$AA0?$AA?$AA@ 1000d320     shell.obj
 0001:0000c34c       ??_C@_1CK@GHINFAPI@?$AAS?$AAD?$AAM?$AAA?$AA_?$AAP?$AAI?$AA_?$AAD?$AAM?$AAA?$AAR?$AAE?$AAQ?$AA2?$AA_?$AAM?$AAU?$AAX?$AA0?$AA?$AA@ 1000d34c     shell.obj
 0001:0000c378       ??_C@_1CK@BLOMHFCD@?$AAS?$AAD?$AAM?$AAA?$AA_?$AAP?$AAI?$AA_?$AAD?$AAM?$AAA?$AAR?$AAE?$AAQ?$AA1?$AA_?$AAM?$AAU?$AAX?$AA0?$AA?$AA@ 1000d378     shell.obj
 0001:0000c3a4       ??_C@_1CO@MDLDDKFK@?$AAP?$AAR?$AAC?$AAM?$AA_?$AAS?$AAT?$AAA?$AAT?$AAE?$AA_?$AAI?$AAS?$AA_?$AAO?$AAF?$AAF?$AA_?$AAI?$AAV?$AAA?$AA2?$AA?$AA@ 1000d3a4     shell.obj
 0001:0000c3d4       ??_C@_1DI@GPICBICL@?$AAP?$AAR?$AAC?$AAM?$AA_?$AAW?$AAK?$AAU?$AAP?$AA_?$AAd?$AAo?$AAm?$AAa?$AAi?$AAn?$AAN?$AAr?$AAe?$AAa?$AAd?$AAy?$AA_?$AAM?$AAU?$AAX?$AA0?$AA?$AA@ 1000d3d4     shell.obj
 0001:0000c40c       ??_C@_1CO@OAJAMALH@?$AAP?$AAR?$AAC?$AAM?$AA_?$AAC?$AAO?$AAR?$AAE?$AAL?$AA4?$AA_?$AAd?$AAo?$AAm?$AAa?$AAi?$AAn?$AAN?$AAr?$AAe?$AAa?$AA?$AA@ 1000d40c     shell.obj
 0001:0000c43c       ??_C@_1CM@NCDIIOM@?$AAP?$AAR?$AAC?$AAM?$AA_?$AAN?$AAE?$AAO?$AAN?$AA_?$AAf?$AAo?$AAr?$AAc?$AAe?$AAW?$AAa?$AAk?$AAe?$AAu?$AAp?$AA?$AA@ 1000d43c     shell.obj
 0001:0000c468       ??_C@_1DG@BLAKFFMF@?$AAP?$AAR?$AAC?$AAM?$AA_?$AAC?$AAA?$AAM?$AA_?$AAd?$AAo?$AAm?$AAa?$AAi?$AAn?$AAF?$AAr?$AAe?$AAe?$AAz?$AAe?$AA_?$AAM?$AAU?$AAX?$AA0?$AA?$AA@ 1000d468     shell.obj
 0001:0000c4a0       ??_C@_1BG@ENADIBCF@?$AAC?$AAM?$AA_?$AA3?$AA2?$AAK?$AA_?$AAC?$AAL?$AAK?$AA?$AA@ 1000d4a0     shell.obj
 0001:0000c4b8       ??_C@_1BG@HELJMILD@?$AAC?$AAM?$AA_?$AA9?$AA6?$AA_?$AAF?$AAC?$AAL?$AAK?$AA?$AA@ 1000d4b8     shell.obj
 0001:0000c4d0       DEVICE_IFC_TWL_GUID        1000d4d0     shell.obj
 0001:0000c4e0       ??_C@_1M@IMFGGFBL@?$AAB?$AAU?$AAS?$AA1?$AA?3?$AA?$AA@ 1000d4e0     shell.obj
 0001:0000c4ec       ??_C@_1M@IELIBAA@?$AAP?$AAX?$AAY?$AA1?$AA?3?$AA?$AA@ 1000d4ec     shell.obj
 0001:0000c4f8       ??_C@_1GE@FIPMNPNF@?$AA?5?$AA?5?$AAi?$AAn?$AA8?$AA?5?$AA?5?$AA?5?$AA?5?$AAa?$AAd?$AAd?$AAr?$AAe?$AAs?$AAs?$AA?5?$AA?$FL?$AAs?$AAi?$AAz?$AAe?$AA?$FN?$AA?5?$AA?9?$AA?$DO?$AA?5?$AAr?$AAe?$AAa?$AAd?$AA?5@ 1000d4f8     shell.obj
 0001:0000c560       ??_C@_1GG@EBKFNKON@?$AA?5?$AA?5?$AAi?$AAn?$AA1?$AA6?$AA?5?$AA?5?$AA?5?$AAa?$AAd?$AAd?$AAr?$AAe?$AAs?$AAs?$AA?5?$AA?$FL?$AAs?$AAi?$AAz?$AAe?$AA?$FN?$AA?5?$AA?9?$AA?$DO?$AA?5?$AAr?$AAe?$AAa?$AAd?$AA?5@ 1000d560     shell.obj
 0001:0000c5c8       ??_C@_1GG@DBIJDOIP@?$AA?5?$AA?5?$AAi?$AAn?$AA3?$AA2?$AA?5?$AA?5?$AA?5?$AAa?$AAd?$AAd?$AAr?$AAe?$AAs?$AAs?$AA?5?$AA?$FL?$AAs?$AAi?$AAz?$AAe?$AA?$FN?$AA?5?$AA?9?$AA?$DO?$AA?5?$AAr?$AAe?$AAa?$AAd?$AA?5@ 1000d5c8     shell.obj
 0001:0000c630       ??_C@_1GE@CPFAKEPE@?$AA?5?$AA?5?$AAo?$AAu?$AAt?$AA8?$AA?5?$AA?5?$AA?5?$AAa?$AAd?$AAd?$AAr?$AAe?$AAs?$AAs?$AA?5?$AAv?$AAa?$AAl?$AAu?$AAe?$AA?5?$AA?5?$AA?9?$AA?$DO?$AA?5?$AAw?$AAr?$AAi?$AAt?$AAe@ 1000d630     shell.obj
 0001:0000c698       ??_C@_1GG@BFPLIJJA@?$AA?5?$AA?5?$AAo?$AAu?$AAt?$AA1?$AA6?$AA?5?$AA?5?$AAa?$AAd?$AAd?$AAr?$AAe?$AAs?$AAs?$AA?5?$AAv?$AAa?$AAl?$AAu?$AAe?$AA?5?$AA?5?$AA?9?$AA?$DO?$AA?5?$AAw?$AAr?$AAi?$AAt?$AAe@ 1000d698     shell.obj
 0001:0000c700       ??_C@_1GG@GMKIPFDP@?$AA?5?$AA?5?$AAo?$AAu?$AAt?$AA3?$AA2?$AA?5?$AA?5?$AAa?$AAd?$AAd?$AAr?$AAe?$AAs?$AAs?$AA?5?$AAv?$AAa?$AAl?$AAu?$AAe?$AA?5?$AA?5?$AA?9?$AA?$DO?$AA?5?$AAw?$AAr?$AAi?$AAt?$AAe@ 1000d700     shell.obj
 0001:0000c768       ??_C@_1IG@IABBCNPF@?$AA?5?$AA?5?$AAi?$AAn?$AAi?$AA2?$AAc?$AA?5?$AA?5?$AA?$FL?$AA1?$AA?0?$AA2?$AA?0?$AA3?$AA?$FN?$AA?5?$AAa?$AAd?$AAd?$AAr?$AAe?$AAs?$AAs?$AA?5?$AAs?$AAu?$AAb?$AAa?$AAd?$AAd?$AAr@ 1000d768     shell.obj
 0001:0000c7f0       ??_C@_1IG@BBEOOOAM@?$AA?5?$AA?5?$AAo?$AAu?$AAt?$AAi?$AA2?$AAc?$AA?5?$AA?$FL?$AA1?$AA?0?$AA2?$AA?0?$AA3?$AA?$FN?$AA?5?$AAa?$AAd?$AAd?$AAr?$AAe?$AAs?$AAs?$AA?5?$AAs?$AAu?$AAb?$AAa?$AAd?$AAd?$AAr@ 1000d7f0     shell.obj
 0001:0000c878       ??_C@_1GO@DEFBDDHF@?$AA?5?$AA?5?$AAc?$AAp?$AAu?$AAi?$AAd?$AAl?$AAe?$AA?5?$AA?9?$AA?$DO?$AA?5?$AAd?$AAi?$AAs?$AAp?$AAl?$AAa?$AAy?$AA?5?$AAa?$AAm?$AAo?$AAu?$AAn?$AAt?$AA?5?$AAo?$AAf?$AA?5?$AAt@ 1000d878     shell.obj
 0001:0000c8e8       ??_C@_1NI@DINFMLHH@?$AA?5?$AA?5?$AAd?$AAu?$AAm?$AAp?$AA?5?$AA?$FL?$AAp?$AAr?$AAc?$AAm?$AA?5?$AA?$HM?$AA?5?$AAs?$AAd?$AAr?$AAc?$AA?5?$AA?$HM?$AA?5?$AAg?$AAp?$AAm?$AAc?$AA?5?$AA?$HM?$AA?5?$AAd?$AAs?$AAs@ 1000d8e8     shell.obj
 0001:0000c9c0       ??_C@_1EG@GPILLEJL@?$AA?5?$AA?5?$AAt?$AAs?$AAc?$AAa?$AAl?$AA?5?$AA?9?$AA?$DO?$AA?5?$AAc?$AAa?$AAl?$AAi?$AAb?$AAr?$AAa?$AAt?$AAe?$AA?5?$AAt?$AAo?$AAu?$AAc?$AAh?$AAs?$AAc?$AAr?$AAe?$AAe?$AAn@ 1000d9c0     shell.obj
 0001:0000ca08       ??_C@_1IG@NGLDFAON@?$AA?5?$AA?5?$AAr?$AAo?$AAt?$AAa?$AAt?$AAe?$AA?5?$AA?$FL?$AA0?$AA?0?$AA9?$AA0?$AA?0?$AA1?$AA8?$AA0?$AA?0?$AA2?$AA7?$AA0?$AA?$FN?$AA?5?$AA?9?$AA?$DO?$AA?5?$AAr?$AAo?$AAt?$AAa?$AAt@ 1000da08     shell.obj
 0001:0000ca90       ??_C@_1KK@FNEEJAEF@?$AA?5?$AA?5?$AAd?$AAe?$AAv?$AAi?$AAc?$AAe?$AA?5?$AA?$FL?$AA?$FL?$AAe?$AAn?$AAa?$AAb?$AAl?$AAe?$AA?5?$AA?$HM?$AA?5?$AAd?$AAi?$AAs?$AAa?$AAb?$AAl?$AAe?$AA?$FN?$AA?5?$AAp?$AAe?$AAr@ 1000da90     shell.obj
 0001:0000cb40       ??_C@_1FA@CMCJNDEA@?$AA?5?$AA?5?$AAo?$AAb?$AAs?$AAe?$AAr?$AAv?$AAe?$AA?5?$AA?$FL?$AAs?$AAi?$AAg?$AAn?$AAa?$AAl?$AA?$FN?$AA?5?$AA?$FL?$AAe?$AAn?$AAa?$AAb?$AAl?$AAe?$AA?5?$AA?$HM?$AA?5?$AAd?$AAi?$AAs@ 1000db40     shell.obj
 0001:0000cb90       ??_C@_1IA@KEHOMIIE@?$AA?5?$AA?5?$AAs?$AAe?$AAt?$AAc?$AAo?$AAn?$AAt?$AAr?$AAa?$AAs?$AAt?$AA?5?$AA?$FL?$AAl?$AAe?$AAv?$AAe?$AAl?$AA?$FN?$AA?5?$AA?9?$AA?$DO?$AA?5?$AAc?$AAh?$AAa?$AAn?$AAg?$AAe?$AAs@ 1000db90     shell.obj
 0001:0000cc10       ??_C@_1HE@JDAKNAL@?$AA?5?$AA?5?$AAo?$AAp?$AAm?$AA?5?$AA?$FL?$AAm?$AAo?$AAd?$AAe?$AA?5?$AA?$HM?$AA?5?$AA?$DP?$AA?$FN?$AA?5?$AA?9?$AA?$DO?$AA?5?$AAc?$AAh?$AAa?$AAn?$AAg?$AAe?$AAs?$AA?5?$AAt?$AAh?$AAe?$AA?5@ 1000dc10     shell.obj
 0001:0000cc88       ??_C@_1JM@OODLLNGD@?$AA?5?$AA?5?$AAs?$AAm?$AAa?$AAr?$AAt?$AAr?$AAe?$AAf?$AAl?$AAe?$AAx?$AA?5?$AA?$FL?$AAe?$AAn?$AAa?$AAb?$AAl?$AAe?$AA?5?$AA?$HM?$AA?5?$AAd?$AAi?$AAs?$AAa?$AAb?$AAl?$AAe?$AA?$FN@ 1000dc88     shell.obj
 0001:0000cd28       ??_C@_1EO@MJEPCMPC@?$AA?5?$AA?5?$AAr?$AAe?$AAb?$AAo?$AAo?$AAt?$AA?5?$AA?9?$AA?$DO?$AA?5?$AAs?$AAo?$AAf?$AAt?$AAw?$AAa?$AAr?$AAe?$AA?5?$AAr?$AAe?$AAs?$AAe?$AAt?$AA?5?$AAo?$AAf?$AA?5?$AAd?$AAe@ 1000dd28     shell.obj
 0001:0000cd78       ??_C@_1GI@LBANOODH@?$AA?5?$AA?5?$AAd?$AAi?$AAs?$AAp?$AAl?$AAa?$AAy?$AA?5?$AA?$FL?$AAo?$AAn?$AA?$HM?$AAo?$AAf?$AAf?$AA?$FN?$AA?5?$AA?9?$AA?$DO?$AA?5?$AAc?$AAo?$AAn?$AAt?$AAr?$AAo?$AAl?$AAs?$AA?5?$AAd@ 1000dd78     shell.obj
 0001:0000cde0       ??_C@_1JM@MKCGBEPO@?$AA?5?$AA?5?$AAt?$AAv?$AAo?$AAu?$AAt?$AA?5?$AA?$FL?$AAo?$AAn?$AA?$HM?$AAo?$AAf?$AAf?$AA?$HM?$AAs?$AAe?$AAt?$AAt?$AAi?$AAn?$AAg?$AAs?$AA?$HM?$AAa?$AAs?$AAp?$AAe?$AAc?$AAt?$AA?$HM@ 1000dde0     shell.obj
 0001:0000ce80       ??_C@_1EC@LLDODAKH@?$AA?5?$AA?5?$AAd?$AAv?$AAi?$AA?5?$AA?$FL?$AAo?$AAn?$AA?$HM?$AAo?$AAf?$AAf?$AA?$FN?$AA?5?$AA?9?$AA?$DO?$AA?5?$AAc?$AAo?$AAn?$AAt?$AAr?$AAo?$AAl?$AAs?$AA?5?$AAD?$AAV?$AAI?$AA?$AN?$AA?6@ 1000de80     shell.obj
 0001:0000cec8       ??_C@_1NO@BBDLBEDM@?$AA?5?$AA?5?$AAp?$AAo?$AAw?$AAe?$AAr?$AAd?$AAo?$AAm?$AAa?$AAi?$AAn?$AA?5?$AA?$FL?$AAc?$AAo?$AAr?$AAe?$AA?1?$AAm?$AAp?$AAu?$AA?1?$AAi?$AAv?$AAa?$AA2?$AA?1?$AAn?$AAe?$AAo@ 1000dec8     shell.obj
 0001:0000cfa8       ??_C@_1LE@PJAMIEFM@?$AA?5?$AA?5?$AAh?$AAa?$AAl?$AAp?$AAr?$AAo?$AAf?$AAi?$AAl?$AAe?$AA?5?$AA?$FL?$AAd?$AAv?$AAf?$AAs?$AA?5?$AA?$HM?$AA?5?$AAi?$AAn?$AAt?$AAe?$AAr?$AAr?$AAu?$AAp?$AAt?$AAl?$AAa@ 1000dfa8     shell.obj
 0001:0000d060       ??_C@_1IO@NAGBGDFG@?$AA?5?$AA?5?$AAi?$AAn?$AAt?$AAe?$AAr?$AAr?$AAu?$AAp?$AAt?$AAl?$AAa?$AAt?$AAe?$AAn?$AAc?$AAy?$AA?5?$AA?$FL?$AAt?$AAi?$AAm?$AAe?$AA?$FN?$AA?5?$AA?9?$AA?$DO?$AA?5?$AAa?$AAp?$AAp@ 1000e060     shell.obj
 0001:0000d0f0       ??_C@_1OC@OMJPBEIM@?$AA?5?$AA?5?$AAn?$AAe?$AAo?$AAn?$AAS?$AAt?$AAa?$AAt?$AA?5?$AA?$FL?$AAc?$AAl?$AAe?$AAa?$AAr?$AA?$FN?$AA?5?$AA?9?$AA?$DO?$AA?5?$AAG?$AAe?$AAt?$AA?5?$AAN?$AAE?$AAO?$AAN?$AA?5?$AAS@ 1000e0f0     shell.obj
 0001:0000d1d8       ??_C@_1BIG@IGFADKE@?$AA?5?$AA?5?$AAu?$AAs?$AAb?$AAF?$AAn?$AAS?$AAe?$AAt?$AA?5?$AA?$FL?$AAs?$AAe?$AAr?$AAi?$AAa?$AAl?$AA?1?$AAr?$AAn?$AAd?$AAi?$AAs?$AA?1?$AAs?$AAt?$AAo?$AAr?$AAa?$AAg?$AAe@ 1000e1d8     shell.obj
 0001:0000d360       ??_C@_15JNBOKNOG@?$AA?$AN?$AA?6?$AA?$AA@ 1000e360     shell.obj
 0001:0000d368       ??_C@_1FO@EIILCCMM@?$AA?5?$AA?5?$AA?5?$AA?5?$AAA?$AAd?$AAd?$AAr?$AAe?$AAs?$AAs?$AA?0?$AA?5?$AAs?$AAi?$AAz?$AAe?$AA?5?$AAa?$AAn?$AAd?$AA?5?$AAv?$AAa?$AAl?$AAu?$AAe?$AA?5?$AAa?$AAr?$AAe?$AA?5@ 1000e368     shell.obj
 0001:0000d3c8       ??_C@_1BM@NJHPADOD@?$AAN?$AAE?$AAO?$AAN?$AA?5?$AAS?$AAT?$AAA?$AAT?$AAS?$AA?3?$AA?$AN?$AA?6?$AA?$AA@ 1000e3c8     shell.obj
 0001:0000d3e8       ??_C@_1FE@MJOCFIG@?$AA?5?$AAC?$AAo?$AAr?$AAr?$AAe?$AAc?$AAt?$AA?5?$AAR?$AAe?$AAs?$AAt?$AAo?$AAr?$AAe?$AA?5?$AA?5?$AA?5?$AA?5?$AA?5?$AA?5?$AA?5?$AA?5?$AA?5?$AA?5?$AA?5?$AA?5?$AA?5?$AA?5?$AA?5?$AA?5@ 1000e3e8     shell.obj
 0001:0000d440       ??_C@_1FE@HPEPILGL@?$AA?5?$AAS?$AAa?$AAv?$AAe?$AAd?$AA?5?$AAu?$AAs?$AAi?$AAn?$AAg?$AA?5?$AAp?$AAA?$AAr?$AAe?$AAa?$AA?5?$AA?5?$AA?5?$AA?5?$AA?5?$AA?5?$AA?5?$AA?5?$AA?5?$AA?5?$AA?5?$AA?5?$AA?5?$AA?5@ 1000e440     shell.obj
 0001:0000d498       ??_C@_1FE@PKPLIAPD@?$AA?5?$AA?5?$AA?5?$AAA?$AAb?$AAs?$AAo?$AAl?$AAu?$AAt?$AAe?$AA?5?$AAC?$AAo?$AAr?$AAr?$AAe?$AAc?$AAt?$AA?5?$AAS?$AAa?$AAv?$AAe?$AA?5?$AA?5?$AA?5?$AA?5?$AA?5?$AA?5?$AA?5?$AA?5@ 1000e498     shell.obj
 0001:0000d4f0       ??_C@_1FE@MPCIJLLO@?$AA?5?$AA?5?$AA?5?$AAL?$AAa?$AAs?$AAt?$AA?5?$AAR?$AAe?$AAs?$AAt?$AAo?$AAr?$AAe?$AA?5?$AAd?$AAo?$AAe?$AAs?$AAn?$AAt?$AA?5?$AAm?$AAa?$AAt?$AAc?$AAh?$AA?5?$AA?5?$AA?5?$AA?5@ 1000e4f0     shell.obj
 0001:0000d548       ??_C@_1FE@PHDAMAON@?$AA?5?$AAS?$AAa?$AAv?$AAe?$AAd?$AA?5?$AAu?$AAs?$AAi?$AAn?$AAg?$AA?5?$AAE?$AAr?$AAr?$AAo?$AAr?$AA?5?$AAC?$AAo?$AAr?$AAr?$AAe?$AAc?$AAt?$AAi?$AAo?$AAn?$AA?5?$AA?5?$AA?5@ 1000e548     shell.obj
 0001:0000d5a0       ??_C@_1FE@NMCKDMJA@?$AA?5?$AA?5?$AA?5?$AAB?$AAa?$AAc?$AAk?$AA?9?$AAt?$AAo?$AA?9?$AAB?$AAa?$AAc?$AAk?$AA?5?$AAT?$AAh?$AAr?$AAe?$AAa?$AAd?$AA?5?$AAS?$AAw?$AAi?$AAt?$AAc?$AAh?$AAe?$AAs?$AA?5@ 1000e5a0     shell.obj
 0001:0000d5f8       ??_C@_1FE@PGLCMNJE@?$AA?5?$AA?5?$AA?5?$AAM?$AAu?$AAl?$AAt?$AAi?$AAp?$AAl?$AAe?$AA?5?$AAT?$AAh?$AAr?$AAe?$AAa?$AAd?$AA?5?$AAS?$AAw?$AAi?$AAt?$AAc?$AAh?$AAe?$AAs?$AA?5?$AA?5?$AA?5?$AA?5?$AA?5@ 1000e5f8     shell.obj
 0001:0000d650       ??_C@_1FE@LMCLJKID@?$AA?5?$AAS?$AAa?$AAv?$AAe?$AA?5?$AAS?$AAk?$AAi?$AAp?$AAp?$AAe?$AAd?$AA?5?$AA?5?$AA?5?$AA?5?$AA?5?$AA?5?$AA?5?$AA?5?$AA?5?$AA?5?$AA?5?$AA?5?$AA?5?$AA?5?$AA?5?$AA?5?$AA?5?$AA?5?$AA?5@ 1000e650     shell.obj
 0001:0000d6a4       ??_C@_1M@IKKIHJKB@?$AAc?$AAl?$AAe?$AAa?$AAr?$AA?$AA@ 1000e6a4     shell.obj
 0001:0000d6b0       ??_C@_1FG@FDMMAPBL@?$AAC?$AAo?$AAu?$AAl?$AAd?$AA?5?$AAn?$AAo?$AAt?$AA?5?$AAc?$AAh?$AAa?$AAn?$AAg?$AAe?$AA?5?$AAt?$AAo?$AA?5?$AAc?$AAl?$AAi?$AAe?$AAn?$AAt?$AA?5?$AA?$CC?$AA?$CF?$AAs?$AA?$CC?$AA?5@ 1000e6b0     shell.obj
 0001:0000d708       ??_C@_1EC@KJFFCBNM@?$AAT?$AAh?$AAe?$AAr?$AAe?$AA?5?$AAi?$AAs?$AA?5?$AAn?$AAo?$AAw?$AA?5?$AAn?$AAo?$AA?5?$AAc?$AAu?$AAr?$AAr?$AAe?$AAn?$AAt?$AA?5?$AAc?$AAl?$AAi?$AAe?$AAn?$AAt?$AA?$AN?$AA?6@ 1000e708     shell.obj
 0001:0000d74c       ??_C@_1DC@JINBFIC@?$AAC?$AAh?$AAa?$AAn?$AAg?$AAe?$AAd?$AA?5?$AAt?$AAo?$AA?5?$AAc?$AAl?$AAi?$AAe?$AAn?$AAt?$AA?5?$AA?$CC?$AA?$CF?$AAs?$AA?$CC?$AA?$AN?$AA?6?$AA?$AA@ 1000e74c     shell.obj
 0001:0000d780       ??_C@_1EO@EMEHEJI@?$AAi?$AAd?$AAl?$AAe?$AA?5?$AAc?$AAo?$AAu?$AAn?$AAt?$AA?$DN?$AA0?$AAx?$AA?$CF?$AA0?$AA8?$AAX?$AA?0?$AA?5?$AAt?$AAi?$AAc?$AAk?$AA?5?$AAc?$AAo?$AAu?$AAn?$AAt?$AA?$DN?$AA0?$AAx@ 1000e780     shell.obj
 0001:0000d7d0       ??_C@_1EO@DLPNCFHI@?$AAT?$AAh?$AAe?$AA?5?$AAd?$AAi?$AAf?$AAf?$AAe?$AAr?$AAe?$AAn?$AAc?$AAe?$AA?5?$AAf?$AAr?$AAo?$AAm?$AA?5?$AAl?$AAa?$AAs?$AAt?$AA?5?$AAc?$AAh?$AAe?$AAc?$AAk?$AA?5?$AAi@ 1000e7d0     shell.obj
 0001:0000d820       ??_C@_1EO@CCINODAD@?$AAi?$AAd?$AAl?$AAe?$AA?5?$AAd?$AAe?$AAl?$AAt?$AAa?$AA?$DN?$AA0?$AAx?$AA?$CF?$AA0?$AA8?$AAX?$AA?0?$AA?5?$AAt?$AAi?$AAc?$AAk?$AA?5?$AAd?$AAe?$AAl?$AAt?$AAa?$AA?$DN?$AA0?$AAx@ 1000e820     shell.obj
 0001:0000d870       ??_C@_1CG@MPMHNPFL@?$AAc?$AAp?$AAu?$AA?5?$AAl?$AAo?$AAa?$AAd?$AA?5?$AAi?$AAs?$AA?5?$AA?$CF?$AAf?$AA?$CF?$AA?$CF?$AA?$AN?$AA?6?$AA?$AA@ 1000e870     shell.obj
 0001:0000d898       ??_C@_1GK@CMOICNEL@?$AAC?$AAu?$AAr?$AAr?$AAe?$AAn?$AAt?$AA?5?$AAF?$AAr?$AAe?$AAq?$AAu?$AAe?$AAn?$AAc?$AAi?$AAe?$AAs?$AA?3?$AA?5?$AAM?$AAP?$AAU?$AA?9?$AA?$CF?$AA?4?$AA2?$AAf?$AA?0?$AA?5?$AAI@ 1000e898     shell.obj
 0001:0000d904       ??_C@_15OLECOAGL@?$AA?9?$AAf?$AA?$AA@ 1000e904     shell.obj
 0001:0000d90c       ??_C@_13LPLIHJO@?$AA6?$AA?$AA@ 1000e90c     shell.obj
 0001:0000d910       ??_C@_13BJEOCIHA@?$AA5?$AA?$AA@ 1000e910     shell.obj
 0001:0000d914       ??_C@_13KBPCEPBF@?$AA4?$AA?$AA@ 1000e914     shell.obj
 0001:0000d918       ??_C@_13DMCFHHKM@?$AA3?$AA?$AA@ 1000e918     shell.obj
 0001:0000d91c       ??_C@_13IEJJBAMJ@?$AA2?$AA?$AA@ 1000e91c     shell.obj
 0001:0000d920       ??_C@_13JGCMLPCH@?$AA1?$AA?$AA@ 1000e920     shell.obj
 0001:0000d924       ??_C@_13COJANIEC@?$AA0?$AA?$AA@ 1000e924     shell.obj
 0001:0000d928       ??_C@_1FG@MLLACLEB@?$AA?5?$AAI?$AAO?$AAC?$AAT?$AAL?$AA_?$AAH?$AAA?$AAL?$AA_?$AAG?$AAE?$AAT?$AA_?$AAC?$AAP?$AAU?$AAF?$AAA?$AAM?$AAI?$AAL?$AAY?$AA?5?$AAr?$AAe?$AAt?$AAu?$AAr?$AAn?$AAs@ 1000e928     shell.obj
 0001:0000d980       ??_C@_1JC@HFMHEFLE@?$AA?5?$AA6?$AA?5?$AA?9?$AA?5?$AAM?$AAP?$AAU?$AA?$FL?$AA7?$AA2?$AA0?$AAM?$AAh?$AAz?$AA?5?$AA?$EA?$AA?5?$AA1?$AA?4?$AA3?$AA5?$AAV?$AA?$FN?$AA?0?$AA?5?$AA?5?$AAI?$AAV?$AAA?$AA2?$AA?$FL@ 1000e980     shell.obj
 0001:0000da18       ??_C@_1JC@FKBLPPCG@?$AA?5?$AA5?$AA?5?$AA?9?$AA?5?$AAM?$AAP?$AAU?$AA?$FL?$AA6?$AA0?$AA0?$AAM?$AAh?$AAz?$AA?5?$AA?$EA?$AA?5?$AA1?$AA?4?$AA3?$AA5?$AAV?$AA?$FN?$AA?0?$AA?5?$AA?5?$AAI?$AAV?$AAA?$AA2?$AA?$FL@ 1000ea18     shell.obj
 0001:0000dab0       ??_C@_1JC@PFAHEFNL@?$AA?5?$AA4?$AA?5?$AA?9?$AA?5?$AAM?$AAP?$AAU?$AA?$FL?$AA5?$AA5?$AA0?$AAM?$AAh?$AAz?$AA?5?$AA?$EA?$AA?5?$AA1?$AA?4?$AA2?$AA7?$AAV?$AA?$FN?$AA?0?$AA?5?$AA?5?$AAI?$AAV?$AAA?$AA2?$AA?$FL@ 1000eab0     shell.obj
 0001:0000db48       ??_C@_1JC@JICOKFED@?$AA?5?$AA3?$AA?5?$AA?9?$AA?5?$AAM?$AAP?$AAU?$AA?$FL?$AA5?$AA0?$AA0?$AAM?$AAh?$AAz?$AA?5?$AA?$EA?$AA?5?$AA1?$AA?4?$AA2?$AA0?$AAV?$AA?$FN?$AA?0?$AA?5?$AA?5?$AAI?$AAV?$AAA?$AA2?$AA?$FL@ 1000eb48     shell.obj
 0001:0000dbe0       ??_C@_1JC@CBDPAMEK@?$AA?5?$AA2?$AA?5?$AA?9?$AA?5?$AAM?$AAP?$AAU?$AA?$FL?$AA2?$AA5?$AA0?$AAM?$AAh?$AAz?$AA?5?$AA?$EA?$AA?5?$AA1?$AA?4?$AA0?$AA5?$AAV?$AA?$FN?$AA?0?$AA?5?$AA?5?$AAI?$AAV?$AAA?$AA2?$AA?$FL@ 1000ebe0     shell.obj
 0001:0000dc78       ??_C@_1JC@BPLHLINF@?$AA?5?$AA1?$AA?5?$AA?9?$AA?5?$AAM?$AAP?$AAU?$AA?$FL?$AA1?$AA2?$AA5?$AAM?$AAh?$AAz?$AA?5?$AA?$EA?$AA?5?$AA0?$AA?4?$AA9?$AA7?$AA5?$AAV?$AA?$FN?$AA?0?$AA?5?$AAI?$AAV?$AAA?$AA2?$AA?$FL@ 1000ec78     shell.obj
 0001:0000dd10       ??_C@_1JC@JCJOPFDB@?$AA?5?$AA0?$AA?5?$AA?9?$AA?5?$AAM?$AAP?$AAU?$AA?$FL?$AA1?$AA2?$AA5?$AAM?$AAh?$AAz?$AA?5?$AA?$EA?$AA?5?$AA0?$AA?4?$AA9?$AA7?$AA5?$AAV?$AA?$FN?$AA?0?$AA?5?$AAI?$AAV?$AAA?$AA2?$AA?$FL@ 1000ed10     shell.obj
 0001:0000dda4       ??_C@_1DC@IOOOIMKO@?$AAO?$AAp?$AAe?$AAr?$AAa?$AAt?$AAi?$AAn?$AAg?$AA?5?$AAM?$AAo?$AAd?$AAe?$AA?5?$AAC?$AAh?$AAo?$AAi?$AAc?$AAe?$AAs?$AA?$AN?$AA?6?$AA?$AA@ 1000eda4     shell.obj
 0001:0000ddd8       ??_C@_1JC@MJENEHKP@?$AA?5?$AA4?$AA?5?$AA?9?$AA?5?$AAM?$AAP?$AAU?$AA?$FL?$AA1?$AA0?$AA0?$AA0?$AAM?$AAh?$AAz?$AA?5?$AA?$EA?$AA?5?$AA1?$AA?4?$AA3?$AA1?$AAV?$AA?$FN?$AA?0?$AA?5?$AAI?$AAV?$AAA?$AA2?$AA?$FL@ 1000edd8     shell.obj
 0001:0000de70       ??_C@_1JC@DNDCDLNF@?$AA?5?$AA3?$AA?5?$AA?9?$AA?5?$AAM?$AAP?$AAU?$AA?$FL?$AA8?$AA0?$AA0?$AAM?$AAh?$AAz?$AA?5?$AA?$EA?$AA?5?$AA1?$AA?4?$AA2?$AA6?$AAV?$AA?$FN?$AA?0?$AA?5?$AA?5?$AAI?$AAV?$AAA?$AA2?$AA?$FL@ 1000ee70     shell.obj
 0001:0000df08       ??_C@_1JC@FMPKBHCF@?$AA?5?$AA2?$AA?5?$AA?9?$AA?5?$AAM?$AAP?$AAU?$AA?$FL?$AA6?$AA0?$AA0?$AAM?$AAh?$AAz?$AA?5?$AA?$EA?$AA?5?$AA1?$AA?4?$AA1?$AA0?$AAV?$AA?$FN?$AA?0?$AA?5?$AA?5?$AAI?$AAV?$AAA?$AA2?$AA?$FL@ 1000ef08     shell.obj
 0001:0000dfa0       ??_C@_1JC@LCIAGAIJ@?$AA?5?$AA1?$AA?5?$AA?9?$AA?5?$AAM?$AAP?$AAU?$AA?$FL?$AA3?$AA0?$AA0?$AAM?$AAh?$AAz?$AA?5?$AA?$EA?$AA?5?$AA0?$AA?4?$AA9?$AA3?$AA5?$AAV?$AA?$FN?$AA?0?$AA?5?$AAI?$AAV?$AAA?$AA2?$AA?$FL@ 1000efa0     shell.obj
 0001:0000e038       ??_C@_1JC@MAPIHKDO@?$AA?5?$AA0?$AA?5?$AA?9?$AA?5?$AAM?$AAP?$AAU?$AA?$FL?$AA3?$AA0?$AA0?$AAM?$AAh?$AAz?$AA?5?$AA?$EA?$AA?5?$AA0?$AA?4?$AA9?$AA3?$AA5?$AAV?$AA?$FN?$AA?0?$AA?5?$AAI?$AAV?$AAA?$AA2?$AA?$FL@ 1000f038     shell.obj
 0001:0000e0cc       ??_C@_1CE@CNIENLGL@?$AAs?$AAy?$AAn?$AAt?$AAa?$AAx?$AA?5?$AAe?$AAr?$AAr?$AAo?$AAr?$AA?$CB?$AA?$CB?$AA?$CB?$AA?$AN?$AA?6?$AA?$AA@ 1000f0cc     shell.obj
 0001:0000e0f0       ??_C@_1EE@KDLPADDE@?$AAS?$AAm?$AAa?$AAr?$AAt?$AAr?$AAe?$AAf?$AAl?$AAe?$AAx?$AA?5?$AAm?$AAo?$AAn?$AAi?$AAt?$AAo?$AAr?$AAi?$AAn?$AAg?$AA?5?$AAd?$AAi?$AAs?$AAa?$AAb?$AAl?$AAe?$AAd?$AA?$AN@ 1000f0f0     shell.obj
 0001:0000e138       ??_C@_1EC@LNEABHGN@?$AAS?$AAm?$AAa?$AAr?$AAt?$AAr?$AAe?$AAf?$AAl?$AAe?$AAx?$AA?5?$AAm?$AAo?$AAn?$AAi?$AAt?$AAo?$AAr?$AAi?$AAn?$AAg?$AA?5?$AAe?$AAn?$AAa?$AAb?$AAl?$AAe?$AAd?$AA?$AN?$AA?6@ 1000f138     shell.obj
 0001:0000e17c       ??_C@_1CA@HMANKGJJ@?$AAR?$AAe?$AAq?$AAu?$AAs?$AAt?$AA?5?$AAf?$AAa?$AAi?$AAl?$AAe?$AAd?$AA?$AN?$AA?6?$AA?$AA@ 1000f17c     shell.obj
 0001:0000e19c       ??_C@_1BA@FAEOFGFP@?$AAd?$AAi?$AAs?$AAa?$AAb?$AAl?$AAe?$AA?$AA@ 1000f19c     shell.obj
 0001:0000e1ac       ??_C@_1O@DIHMNIPC@?$AAe?$AAn?$AAa?$AAb?$AAl?$AAe?$AA?$AA@ 1000f1ac     shell.obj
 0001:0000e1bc       ??_C@_1BM@GIPONKNP@?$AAG?$AAP?$AAM?$AAC?$AA_?$AAR?$AAE?$AAV?$AAI?$AAS?$AAI?$AAO?$AAN?$AA?$AA@ 1000f1bc     shell.obj
 0001:0000e1d8       ??_C@_1BO@HALCGDCO@?$AAG?$AAP?$AAM?$AAC?$AA_?$AAS?$AAY?$AAS?$AAC?$AAO?$AAN?$AAF?$AAI?$AAG?$AA?$AA@ 1000f1d8     shell.obj
 0001:0000e1f8       ??_C@_1BO@PHAHJED@?$AAG?$AAP?$AAM?$AAC?$AA_?$AAS?$AAY?$AAS?$AAS?$AAT?$AAA?$AAT?$AAU?$AAS?$AA?$AA@ 1000f1f8     shell.obj
 0001:0000e218       ??_C@_1BO@MCNECEFF@?$AAG?$AAP?$AAM?$AAC?$AA_?$AAI?$AAR?$AAQ?$AAS?$AAT?$AAA?$AAT?$AAU?$AAS?$AA?$AA@ 1000f218     shell.obj
 0001:0000e238       ??_C@_1BO@FBPEDFKO@?$AAG?$AAP?$AAM?$AAC?$AA_?$AAI?$AAR?$AAQ?$AAE?$AAN?$AAA?$AAB?$AAL?$AAE?$AA?$AA@ 1000f238     shell.obj
 0001:0000e258       ??_C@_1CK@BHBILOLA@?$AAG?$AAP?$AAM?$AAC?$AA_?$AAT?$AAI?$AAM?$AAE?$AAO?$AAU?$AAT?$AA_?$AAC?$AAO?$AAN?$AAT?$AAR?$AAO?$AAL?$AA?$AA@ 1000f258     shell.obj
 0001:0000e284       ??_C@_1CC@EEJNLNND@?$AAG?$AAP?$AAM?$AAC?$AA_?$AAE?$AAR?$AAR?$AA_?$AAA?$AAD?$AAD?$AAR?$AAE?$AAS?$AAS?$AA?$AA@ 1000f284     shell.obj
 0001:0000e2a8       ??_C@_1BM@PNMCJAFC@?$AAG?$AAP?$AAM?$AAC?$AA_?$AAE?$AAR?$AAR?$AA_?$AAT?$AAY?$AAP?$AAE?$AA?$AA@ 1000f2a8     shell.obj
 0001:0000e2c4       ??_C@_1BI@IDGIAIIO@?$AAG?$AAP?$AAM?$AAC?$AA_?$AAC?$AAO?$AAN?$AAF?$AAI?$AAG?$AA?$AA@ 1000f2c4     shell.obj
 0001:0000e2dc       ??_C@_1BI@PMKKBCOD@?$AAG?$AAP?$AAM?$AAC?$AA_?$AAS?$AAT?$AAA?$AAT?$AAU?$AAS?$AA?$AA@ 1000f2dc     shell.obj
 0001:0000e2f4       ??_C@_1BO@ENLPFFDM@?$AAG?$AAP?$AAM?$AAC?$AA_?$AAC?$AAO?$AAN?$AAF?$AAI?$AAG?$AA1?$AA_?$AA0?$AA?$AA@ 1000f2f4     shell.obj
 0001:0000e314       ??_C@_1BO@MDDAFCNP@?$AAG?$AAP?$AAM?$AAC?$AA_?$AAC?$AAO?$AAN?$AAF?$AAI?$AAG?$AA2?$AA_?$AA0?$AA?$AA@ 1000f314     shell.obj
 0001:0000e334       ??_C@_1BO@PJKFCEB@?$AAG?$AAP?$AAM?$AAC?$AA_?$AAC?$AAO?$AAN?$AAF?$AAI?$AAG?$AA3?$AA_?$AA0?$AA?$AA@ 1000f334     shell.obj
 0001:0000e354       ??_C@_1BO@FFPFLFI@?$AAG?$AAP?$AAM?$AAC?$AA_?$AAC?$AAO?$AAN?$AAF?$AAI?$AAG?$AA4?$AA_?$AA0?$AA?$AA@ 1000f354     shell.obj
 0001:0000e374       ??_C@_1BO@MJPFFLMG@?$AAG?$AAP?$AAM?$AAC?$AA_?$AAC?$AAO?$AAN?$AAF?$AAI?$AAG?$AA5?$AA_?$AA0?$AA?$AA@ 1000f374     shell.obj
 0001:0000e394       ??_C@_1BO@EHHKFMCF@?$AAG?$AAP?$AAM?$AAC?$AA_?$AAC?$AAO?$AAN?$AAF?$AAI?$AAG?$AA6?$AA_?$AA0?$AA?$AA@ 1000f394     shell.obj
 0001:0000e3b4       ??_C@_1BO@ILNAFMLL@?$AAG?$AAP?$AAM?$AAC?$AA_?$AAC?$AAO?$AAN?$AAF?$AAI?$AAG?$AA7?$AA_?$AA0?$AA?$AA@ 1000f3b4     shell.obj
 0001:0000e3d4       ??_C@_1BO@PFADDCFJ@?$AAG?$AAP?$AAM?$AAC?$AA_?$AAC?$AAO?$AAN?$AAF?$AAI?$AAG?$AA1?$AA_?$AA1?$AA?$AA@ 1000f3d4     shell.obj
 0001:0000e3f4       ??_C@_1BO@HLIMDFLK@?$AAG?$AAP?$AAM?$AAC?$AA_?$AAC?$AAO?$AAN?$AAF?$AAI?$AAG?$AA2?$AA_?$AA1?$AA?$AA@ 1000f3f4     shell.obj
 0001:0000e414       ??_C@_1BO@LHCGDFCE@?$AAG?$AAP?$AAM?$AAC?$AA_?$AAC?$AAO?$AAN?$AAF?$AAI?$AAG?$AA3?$AA_?$AA1?$AA?$AA@ 1000f414     shell.obj
 0001:0000e434       ??_C@_1BO@LNODDMDN@?$AAG?$AAP?$AAM?$AAC?$AA_?$AAC?$AAO?$AAN?$AAF?$AAI?$AAG?$AA4?$AA_?$AA1?$AA?$AA@ 1000f434     shell.obj
 0001:0000e454       ??_C@_1BO@HBEJDMKD@?$AAG?$AAP?$AAM?$AAC?$AA_?$AAC?$AAO?$AAN?$AAF?$AAI?$AAG?$AA5?$AA_?$AA1?$AA?$AA@ 1000f454     shell.obj
 0001:0000e474       ??_C@_1BO@PPMGDLEA@?$AAG?$AAP?$AAM?$AAC?$AA_?$AAC?$AAO?$AAN?$AAF?$AAI?$AAG?$AA6?$AA_?$AA1?$AA?$AA@ 1000f474     shell.obj
 0001:0000e494       ??_C@_1BO@DDGMDLNO@?$AAG?$AAP?$AAM?$AAC?$AA_?$AAC?$AAO?$AAN?$AAF?$AAI?$AAG?$AA7?$AA_?$AA1?$AA?$AA@ 1000f494     shell.obj
 0001:0000e4b4       ??_C@_1BO@OHLGJNLH@?$AAG?$AAP?$AAM?$AAC?$AA_?$AAC?$AAO?$AAN?$AAF?$AAI?$AAG?$AA1?$AA_?$AA2?$AA?$AA@ 1000f4b4     shell.obj
 0001:0000e4d4       ??_C@_1BO@GJDJJKFE@?$AAG?$AAP?$AAM?$AAC?$AA_?$AAC?$AAO?$AAN?$AAF?$AAI?$AAG?$AA2?$AA_?$AA2?$AA?$AA@ 1000f4d4     shell.obj
 0001:0000e4f4       ??_C@_1BO@KFJDJKMK@?$AAG?$AAP?$AAM?$AAC?$AA_?$AAC?$AAO?$AAN?$AAF?$AAI?$AAG?$AA3?$AA_?$AA2?$AA?$AA@ 1000f4f4     shell.obj
 0001:0000e514       ??_C@_1BO@KPFGJDND@?$AAG?$AAP?$AAM?$AAC?$AA_?$AAC?$AAO?$AAN?$AAF?$AAI?$AAG?$AA4?$AA_?$AA2?$AA?$AA@ 1000f514     shell.obj
 0001:0000e534       ??_C@_1BO@GDPMJDEN@?$AAG?$AAP?$AAM?$AAC?$AA_?$AAC?$AAO?$AAN?$AAF?$AAI?$AAG?$AA5?$AA_?$AA2?$AA?$AA@ 1000f534     shell.obj
 0001:0000e554       ??_C@_1BO@ONHDJEKO@?$AAG?$AAP?$AAM?$AAC?$AA_?$AAC?$AAO?$AAN?$AAF?$AAI?$AAG?$AA6?$AA_?$AA2?$AA?$AA@ 1000f554     shell.obj
 0001:0000e574       ??_C@_1BO@CBNJJEDA@?$AAG?$AAP?$AAM?$AAC?$AA_?$AAC?$AAO?$AAN?$AAF?$AAI?$AAG?$AA7?$AA_?$AA2?$AA?$AA@ 1000f574     shell.obj
 0001:0000e594       ??_C@_1BO@FPAKPKNC@?$AAG?$AAP?$AAM?$AAC?$AA_?$AAC?$AAO?$AAN?$AAF?$AAI?$AAG?$AA1?$AA_?$AA3?$AA?$AA@ 1000f594     shell.obj
 0001:0000e5b4       ??_C@_1BO@NBIFPNDB@?$AAG?$AAP?$AAM?$AAC?$AA_?$AAC?$AAO?$AAN?$AAF?$AAI?$AAG?$AA2?$AA_?$AA3?$AA?$AA@ 1000f5b4     shell.obj
 0001:0000e5d4       ??_C@_1BO@BNCPPNKP@?$AAG?$AAP?$AAM?$AAC?$AA_?$AAC?$AAO?$AAN?$AAF?$AAI?$AAG?$AA3?$AA_?$AA3?$AA?$AA@ 1000f5d4     shell.obj
 0001:0000e5f4       ??_C@_1BO@BHOKPELG@?$AAG?$AAP?$AAM?$AAC?$AA_?$AAC?$AAO?$AAN?$AAF?$AAI?$AAG?$AA4?$AA_?$AA3?$AA?$AA@ 1000f5f4     shell.obj
 0001:0000e614       ??_C@_1BO@NLEAPECI@?$AAG?$AAP?$AAM?$AAC?$AA_?$AAC?$AAO?$AAN?$AAF?$AAI?$AAG?$AA5?$AA_?$AA3?$AA?$AA@ 1000f614     shell.obj
 0001:0000e634       ??_C@_1BO@FFMPPDML@?$AAG?$AAP?$AAM?$AAC?$AA_?$AAC?$AAO?$AAN?$AAF?$AAI?$AAG?$AA6?$AA_?$AA3?$AA?$AA@ 1000f634     shell.obj
 0001:0000e654       ??_C@_1BO@JJGFPDFF@?$AAG?$AAP?$AAM?$AAC?$AA_?$AAC?$AAO?$AAN?$AAF?$AAI?$AAG?$AA7?$AA_?$AA3?$AA?$AA@ 1000f654     shell.obj
 0001:0000e674       ??_C@_1BO@MCNNMCGL@?$AAG?$AAP?$AAM?$AAC?$AA_?$AAC?$AAO?$AAN?$AAF?$AAI?$AAG?$AA1?$AA_?$AA4?$AA?$AA@ 1000f674     shell.obj
 0001:0000e694       ??_C@_1BO@EMFCMFII@?$AAG?$AAP?$AAM?$AAC?$AA_?$AAC?$AAO?$AAN?$AAF?$AAI?$AAG?$AA2?$AA_?$AA4?$AA?$AA@ 1000f694     shell.obj
 0001:0000e6b4       ??_C@_1BO@IAPIMFBG@?$AAG?$AAP?$AAM?$AAC?$AA_?$AAC?$AAO?$AAN?$AAF?$AAI?$AAG?$AA3?$AA_?$AA4?$AA?$AA@ 1000f6b4     shell.obj
 0001:0000e6d4       ??_C@_1BO@IKDNMMAP@?$AAG?$AAP?$AAM?$AAC?$AA_?$AAC?$AAO?$AAN?$AAF?$AAI?$AAG?$AA4?$AA_?$AA4?$AA?$AA@ 1000f6d4     shell.obj
 0001:0000e6f4       ??_C@_1BO@EGJHMMJB@?$AAG?$AAP?$AAM?$AAC?$AA_?$AAC?$AAO?$AAN?$AAF?$AAI?$AAG?$AA5?$AA_?$AA4?$AA?$AA@ 1000f6f4     shell.obj
 0001:0000e714       ??_C@_1BO@MIBIMLHC@?$AAG?$AAP?$AAM?$AAC?$AA_?$AAC?$AAO?$AAN?$AAF?$AAI?$AAG?$AA6?$AA_?$AA4?$AA?$AA@ 1000f714     shell.obj
 0001:0000e734       ??_C@_1BO@ELCMLOM@?$AAG?$AAP?$AAM?$AAC?$AA_?$AAC?$AAO?$AAN?$AAF?$AAI?$AAG?$AA7?$AA_?$AA4?$AA?$AA@ 1000f734     shell.obj
 0001:0000e754       ??_C@_1BO@HKGBKFAO@?$AAG?$AAP?$AAM?$AAC?$AA_?$AAC?$AAO?$AAN?$AAF?$AAI?$AAG?$AA1?$AA_?$AA5?$AA?$AA@ 1000f754     shell.obj
 0001:0000e774       ??_C@_1BO@PEOOKCON@?$AAG?$AAP?$AAM?$AAC?$AA_?$AAC?$AAO?$AAN?$AAF?$AAI?$AAG?$AA2?$AA_?$AA5?$AA?$AA@ 1000f774     shell.obj
 0001:0000e794       ??_C@_1BO@DIEEKCHD@?$AAG?$AAP?$AAM?$AAC?$AA_?$AAC?$AAO?$AAN?$AAF?$AAI?$AAG?$AA3?$AA_?$AA5?$AA?$AA@ 1000f794     shell.obj
 0001:0000e7b4       ??_C@_1BO@DCIBKLGK@?$AAG?$AAP?$AAM?$AAC?$AA_?$AAC?$AAO?$AAN?$AAF?$AAI?$AAG?$AA4?$AA_?$AA5?$AA?$AA@ 1000f7b4     shell.obj
 0001:0000e7d4       ??_C@_1BO@POCLKLPE@?$AAG?$AAP?$AAM?$AAC?$AA_?$AAC?$AAO?$AAN?$AAF?$AAI?$AAG?$AA5?$AA_?$AA5?$AA?$AA@ 1000f7d4     shell.obj
 0001:0000e7f4       ??_C@_1BO@HAKEKMBH@?$AAG?$AAP?$AAM?$AAC?$AA_?$AAC?$AAO?$AAN?$AAF?$AAI?$AAG?$AA6?$AA_?$AA5?$AA?$AA@ 1000f7f4     shell.obj
 0001:0000e814       ??_C@_1BO@LMAOKMIJ@?$AAG?$AAP?$AAM?$AAC?$AA_?$AAC?$AAO?$AAN?$AAF?$AAI?$AAG?$AA7?$AA_?$AA5?$AA?$AA@ 1000f814     shell.obj
 0001:0000e834       ??_C@_1BO@GINEAKOA@?$AAG?$AAP?$AAM?$AAC?$AA_?$AAC?$AAO?$AAN?$AAF?$AAI?$AAG?$AA1?$AA_?$AA6?$AA?$AA@ 1000f834     shell.obj
 0001:0000e854       ??_C@_1BO@OGFLANAD@?$AAG?$AAP?$AAM?$AAC?$AA_?$AAC?$AAO?$AAN?$AAF?$AAI?$AAG?$AA2?$AA_?$AA6?$AA?$AA@ 1000f854     shell.obj
 0001:0000e874       ??_C@_1BO@CKPBANJN@?$AAG?$AAP?$AAM?$AAC?$AA_?$AAC?$AAO?$AAN?$AAF?$AAI?$AAG?$AA3?$AA_?$AA6?$AA?$AA@ 1000f874     shell.obj
 0001:0000e894       ??_C@_1BO@CADEAEIE@?$AAG?$AAP?$AAM?$AAC?$AA_?$AAC?$AAO?$AAN?$AAF?$AAI?$AAG?$AA4?$AA_?$AA6?$AA?$AA@ 1000f894     shell.obj
 0001:0000e8b4       ??_C@_1BO@OMJOAEBK@?$AAG?$AAP?$AAM?$AAC?$AA_?$AAC?$AAO?$AAN?$AAF?$AAI?$AAG?$AA5?$AA_?$AA6?$AA?$AA@ 1000f8b4     shell.obj
 0001:0000e8d4       ??_C@_1BO@GCBBADPJ@?$AAG?$AAP?$AAM?$AAC?$AA_?$AAC?$AAO?$AAN?$AAF?$AAI?$AAG?$AA6?$AA_?$AA6?$AA?$AA@ 1000f8d4     shell.obj
 0001:0000e8f4       ??_C@_1BO@KOLLADGH@?$AAG?$AAP?$AAM?$AAC?$AA_?$AAC?$AAO?$AAN?$AAF?$AAI?$AAG?$AA7?$AA_?$AA6?$AA?$AA@ 1000f8f4     shell.obj
 0001:0000e914       ??_C@_1BO@NAGIGNIF@?$AAG?$AAP?$AAM?$AAC?$AA_?$AAC?$AAO?$AAN?$AAF?$AAI?$AAG?$AA1?$AA_?$AA7?$AA?$AA@ 1000f914     shell.obj
 0001:0000e934       ??_C@_1BO@FOOHGKGG@?$AAG?$AAP?$AAM?$AAC?$AA_?$AAC?$AAO?$AAN?$AAF?$AAI?$AAG?$AA2?$AA_?$AA7?$AA?$AA@ 1000f934     shell.obj
 0001:0000e954       ??_C@_1BO@JCENGKPI@?$AAG?$AAP?$AAM?$AAC?$AA_?$AAC?$AAO?$AAN?$AAF?$AAI?$AAG?$AA3?$AA_?$AA7?$AA?$AA@ 1000f954     shell.obj
 0001:0000e974       ??_C@_1BO@JIIIGDOB@?$AAG?$AAP?$AAM?$AAC?$AA_?$AAC?$AAO?$AAN?$AAF?$AAI?$AAG?$AA4?$AA_?$AA7?$AA?$AA@ 1000f974     shell.obj
 0001:0000e994       ??_C@_1BO@FECCGDHP@?$AAG?$AAP?$AAM?$AAC?$AA_?$AAC?$AAO?$AAN?$AAF?$AAI?$AAG?$AA5?$AA_?$AA7?$AA?$AA@ 1000f994     shell.obj
 0001:0000e9b4       ??_C@_1BO@NKKNGEJM@?$AAG?$AAP?$AAM?$AAC?$AA_?$AAC?$AAO?$AAN?$AAF?$AAI?$AAG?$AA6?$AA_?$AA7?$AA?$AA@ 1000f9b4     shell.obj
 0001:0000e9d4       ??_C@_1BO@BGAHGEAC@?$AAG?$AAP?$AAM?$AAC?$AA_?$AAC?$AAO?$AAN?$AAF?$AAI?$AAG?$AA7?$AA_?$AA7?$AA?$AA@ 1000f9d4     shell.obj
 0001:0000e9f4       ??_C@_1CM@HPCHAHLH@?$AAG?$AAP?$AAM?$AAC?$AA_?$AAP?$AAR?$AAE?$AAF?$AAE?$AAT?$AAC?$AAH?$AA_?$AAC?$AAO?$AAN?$AAF?$AAI?$AAG?$AA1?$AA?$AA@ 1000f9f4     shell.obj
 0001:0000ea20       ??_C@_1CM@GNJCKIFJ@?$AAG?$AAP?$AAM?$AAC?$AA_?$AAP?$AAR?$AAE?$AAF?$AAE?$AAT?$AAC?$AAH?$AA_?$AAC?$AAO?$AAN?$AAF?$AAI?$AAG?$AA2?$AA?$AA@ 1000fa20     shell.obj
 0001:0000ea4c       ??_C@_1CM@IKLIBDD@?$AAG?$AAP?$AAM?$AAC?$AA_?$AAP?$AAR?$AAE?$AAF?$AAE?$AAT?$AAC?$AAH?$AA_?$AAC?$AAO?$AAN?$AAT?$AAR?$AAO?$AAL?$AA?$AA@ 1000fa4c     shell.obj
 0001:0000ea78       ??_C@_1CK@BPCAJLP@?$AAG?$AAP?$AAM?$AAC?$AA_?$AAP?$AAR?$AAE?$AAF?$AAE?$AAT?$AAC?$AAH?$AA_?$AAS?$AAT?$AAA?$AAT?$AAU?$AAS?$AA?$AA@ 1000fa78     shell.obj
 0001:0000eaa4       ??_C@_1CA@JLKBGNAG@?$AAG?$AAP?$AAM?$AAC?$AA_?$AAE?$AAC?$AAC?$AA_?$AAC?$AAO?$AAN?$AAF?$AAI?$AAG?$AA?$AA@ 1000faa4     shell.obj
 0001:0000eac4       ??_C@_1CC@FKECDIIC@?$AAG?$AAP?$AAM?$AAC?$AA_?$AAE?$AAC?$AAC?$AA_?$AAC?$AAO?$AAN?$AAT?$AAR?$AAO?$AAL?$AA?$AA@ 1000fac4     shell.obj
 0001:0000eae8       ??_C@_1CK@MNNFFMHK@?$AAG?$AAP?$AAM?$AAC?$AA_?$AAE?$AAC?$AAC?$AA_?$AAS?$AAI?$AAZ?$AAE?$AA_?$AAC?$AAO?$AAN?$AAF?$AAI?$AAG?$AA?$AA@ 1000fae8     shell.obj
 0001:0000eb14       ??_C@_1CC@LOFLPIIK@?$AAG?$AAP?$AAM?$AAC?$AA_?$AAE?$AAC?$AAC?$AA1?$AA_?$AAR?$AAE?$AAS?$AAU?$AAL?$AAT?$AA?$AA@ 1000fb14     shell.obj
 0001:0000eb38       ??_C@_1CC@FENNCFOI@?$AAG?$AAP?$AAM?$AAC?$AA_?$AAE?$AAC?$AAC?$AA2?$AA_?$AAR?$AAE?$AAS?$AAU?$AAL?$AAT?$AA?$AA@ 1000fb38     shell.obj
 0001:0000eb5c       ??_C@_1CC@LLIPJDAJ@?$AAG?$AAP?$AAM?$AAC?$AA_?$AAE?$AAC?$AAC?$AA3?$AA_?$AAR?$AAE?$AAS?$AAU?$AAL?$AAT?$AA?$AA@ 1000fb5c     shell.obj
 0001:0000eb80       ??_C@_1CC@FKKBJJGN@?$AAG?$AAP?$AAM?$AAC?$AA_?$AAE?$AAC?$AAC?$AA4?$AA_?$AAR?$AAE?$AAS?$AAU?$AAL?$AAT?$AA?$AA@ 1000fb80     shell.obj
 0001:0000eba4       ??_C@_1CC@LFPDCPIM@?$AAG?$AAP?$AAM?$AAC?$AA_?$AAE?$AAC?$AAC?$AA5?$AA_?$AAR?$AAE?$AAS?$AAU?$AAL?$AAT?$AA?$AA@ 1000fba4     shell.obj
 0001:0000ebc8       ??_C@_1CC@FPHFPCOO@?$AAG?$AAP?$AAM?$AAC?$AA_?$AAE?$AAC?$AAC?$AA6?$AA_?$AAR?$AAE?$AAS?$AAU?$AAL?$AAT?$AA?$AA@ 1000fbc8     shell.obj
 0001:0000ebec       ??_C@_1CC@LACHEEAP@?$AAG?$AAP?$AAM?$AAC?$AA_?$AAE?$AAC?$AAC?$AA7?$AA_?$AAR?$AAE?$AAS?$AAU?$AAL?$AAT?$AA?$AA@ 1000fbec     shell.obj
 0001:0000ec10       ??_C@_1CC@EGFIOAGH@?$AAG?$AAP?$AAM?$AAC?$AA_?$AAE?$AAC?$AAC?$AA8?$AA_?$AAR?$AAE?$AAS?$AAU?$AAL?$AAT?$AA?$AA@ 1000fc10     shell.obj
 0001:0000ec34       ??_C@_1CC@KJAKFGIG@?$AAG?$AAP?$AAM?$AAC?$AA_?$AAE?$AAC?$AAC?$AA9?$AA_?$AAR?$AAE?$AAS?$AAU?$AAL?$AAT?$AA?$AA@ 1000fc34     shell.obj
 0001:0000ec58       ??_C@_1BE@BAPLKIDL@?$AA?$DN?$AA0?$AAx?$AA?$CF?$AA0?$AA8?$AAX?$AA?$AN?$AA?6?$AA?$AA@ 1000fc58     shell.obj
 0001:0000ec6c       ??_C@_1BM@GJMOEGCJ@?$AAS?$AAD?$AAR?$AAC?$AA_?$AAR?$AAE?$AAV?$AAI?$AAS?$AAI?$AAO?$AAN?$AA?$AA@ 1000fc6c     shell.obj
 0001:0000ec88       ??_C@_1BO@MLONPLEK@?$AAS?$AAD?$AAR?$AAC?$AA_?$AAS?$AAY?$AAS?$AAC?$AAO?$AAN?$AAF?$AAI?$AAG?$AA?$AA@ 1000fc88     shell.obj
 0001:0000eca8       ??_C@_1BO@LECPOBCH@?$AAS?$AAD?$AAR?$AAC?$AA_?$AAS?$AAY?$AAS?$AAS?$AAT?$AAA?$AAT?$AAU?$AAS?$AA?$AA@ 1000fca8     shell.obj
 0001:0000ecc8       ??_C@_1BI@IEMCBNLD@?$AAS?$AAD?$AAR?$AAC?$AA_?$AAC?$AAS?$AA_?$AAC?$AAF?$AAG?$AA?$AA@ 1000fcc8     shell.obj
 0001:0000ece0       ??_C@_1BK@LGOKNLKL@?$AAS?$AAD?$AAR?$AAC?$AA_?$AAS?$AAH?$AAA?$AAR?$AAI?$AAN?$AAG?$AA?$AA@ 1000fce0     shell.obj
 0001:0000ecfc       ??_C@_1BM@IPECENFJ@?$AAS?$AAD?$AAR?$AAC?$AA_?$AAE?$AAR?$AAR?$AA_?$AAA?$AAD?$AAD?$AAR?$AA?$AA@ 1000fcfc     shell.obj
 0001:0000ed18       ??_C@_1BM@PMPCAMKE@?$AAS?$AAD?$AAR?$AAC?$AA_?$AAE?$AAR?$AAR?$AA_?$AAT?$AAY?$AAP?$AAE?$AA?$AA@ 1000fd18     shell.obj
 0001:0000ed34       ??_C@_1BO@PAPNHDEJ@?$AAS?$AAD?$AAR?$AAC?$AA_?$AAD?$AAL?$AAL?$AAA?$AA_?$AAC?$AAT?$AAR?$AAL?$AA?$AA@ 1000fd34     shell.obj
 0001:0000ed54       ??_C@_1CC@CMIKLJED@?$AAS?$AAD?$AAR?$AAC?$AA_?$AAD?$AAL?$AAL?$AAA?$AA_?$AAS?$AAT?$AAA?$AAT?$AAU?$AAS?$AA?$AA@ 1000fd54     shell.obj
 0001:0000ed78       ??_C@_1BO@IMJMFGJC@?$AAS?$AAD?$AAR?$AAC?$AA_?$AAD?$AAL?$AAL?$AAB?$AA_?$AAC?$AAT?$AAR?$AAL?$AA?$AA@ 1000fd78     shell.obj
 0001:0000ed98       ??_C@_1CC@MGAMGECB@?$AAS?$AAD?$AAR?$AAC?$AA_?$AAD?$AAL?$AAL?$AAB?$AA_?$AAS?$AAT?$AAA?$AAT?$AAU?$AAS?$AA?$AA@ 1000fd98     shell.obj
 0001:0000edbc       ??_C@_1BG@KDGJBLAG@?$AAS?$AAD?$AAR?$AAC?$AA_?$AAP?$AAO?$AAW?$AAE?$AAR?$AA?$AA@ 1000fdbc     shell.obj
 0001:0000edd4       ??_C@_1BI@MOIBMKGB@?$AAS?$AAD?$AAR?$AAC?$AA_?$AAM?$AAC?$AAF?$AAG?$AA_?$AA0?$AA?$AA@ 1000fdd4     shell.obj
 0001:0000edec       ??_C@_1BE@HGOCEFJF@?$AAS?$AAD?$AAR?$AAC?$AA_?$AAM?$AAR?$AA_?$AA0?$AA?$AA@ 1000fdec     shell.obj
 0001:0000ee00       ??_C@_1BI@FAJDLOMM@?$AAS?$AAD?$AAR?$AAC?$AA_?$AAE?$AAM?$AAR?$AA1?$AA_?$AA0?$AA?$AA@ 1000fe00     shell.obj
 0001:0000ee18       ??_C@_1BI@NOBMLJCP@?$AAS?$AAD?$AAR?$AAC?$AA_?$AAE?$AAM?$AAR?$AA2?$AA_?$AA0?$AA?$AA@ 1000fe18     shell.obj
 0001:0000ee30       ??_C@_1CA@CPGENFOP@?$AAS?$AAD?$AAR?$AAC?$AA_?$AAD?$AAC?$AAD?$AAL?$AA1?$AA_?$AAC?$AAT?$AAR?$AAL?$AA?$AA@ 1000fe30     shell.obj
 0001:0000ee50       ??_C@_1CA@FDAFPADE@?$AAS?$AAD?$AAR?$AAC?$AA_?$AAD?$AAC?$AAD?$AAL?$AA2?$AA_?$AAC?$AAT?$AAR?$AAL?$AA?$AA@ 1000fe50     shell.obj
 0001:0000ee70       ??_C@_1CG@OGOCFPEA@?$AAS?$AAD?$AAR?$AAC?$AA_?$AAA?$AAC?$AAT?$AAI?$AAM?$AA_?$AAC?$AAT?$AAR?$AAL?$AAA?$AA_?$AA0?$AA?$AA@ 1000fe70     shell.obj
 0001:0000ee98       ??_C@_1CG@GIGNFIKD@?$AAS?$AAD?$AAR?$AAC?$AA_?$AAA?$AAC?$AAT?$AAI?$AAM?$AA_?$AAC?$AAT?$AAR?$AAL?$AAB?$AA_?$AA0?$AA?$AA@ 1000fe98     shell.obj
 0001:0000eec0       ??_C@_1CA@LAAOGAJE@?$AAS?$AAD?$AAR?$AAC?$AA_?$AAR?$AAF?$AAR?$AA_?$AAC?$AAT?$AAR?$AAL?$AA_?$AA0?$AA?$AA@ 1000fec0     shell.obj
 0001:0000eee0       ??_C@_1BM@NKFHPKHM@?$AAS?$AAD?$AAR?$AAC?$AA_?$AAM?$AAA?$AAN?$AAU?$AAA?$AAL?$AA_?$AA0?$AA?$AA@ 1000fee0     shell.obj
 0001:0000eefc       ??_C@_1BI@HGDNKNAE@?$AAS?$AAD?$AAR?$AAC?$AA_?$AAM?$AAC?$AAF?$AAG?$AA_?$AA1?$AA?$AA@ 1000fefc     shell.obj
 0001:0000ef14       ??_C@_1BE@MOFOCCPA@?$AAS?$AAD?$AAR?$AAC?$AA_?$AAM?$AAR?$AA_?$AA1?$AA?$AA@ 1000ff14     shell.obj
 0001:0000ef28       ??_C@_1BI@OICPNJKJ@?$AAS?$AAD?$AAR?$AAC?$AA_?$AAE?$AAM?$AAR?$AA1?$AA_?$AA1?$AA?$AA@ 1000ff28     shell.obj
 0001:0000ef40       ??_C@_1BI@GGKANOEK@?$AAS?$AAD?$AAR?$AAC?$AA_?$AAE?$AAM?$AAR?$AA2?$AA_?$AA1?$AA?$AA@ 1000ff40     shell.obj
 0001:0000ef58       ??_C@_1CG@FOFODICF@?$AAS?$AAD?$AAR?$AAC?$AA_?$AAA?$AAC?$AAT?$AAI?$AAM?$AA_?$AAC?$AAT?$AAR?$AAL?$AAA?$AA_?$AA1?$AA?$AA@ 1000ff58     shell.obj
 0001:0000ef80       ??_C@_1CG@NANBDPMG@?$AAS?$AAD?$AAR?$AAC?$AA_?$AAA?$AAC?$AAT?$AAI?$AAM?$AA_?$AAC?$AAT?$AAR?$AAL?$AAB?$AA_?$AA1?$AA?$AA@ 1000ff80     shell.obj
 0001:0000efa8       ??_C@_1CA@ILCAHPB@?$AAS?$AAD?$AAR?$AAC?$AA_?$AAR?$AAF?$AAR?$AA_?$AAC?$AAT?$AAR?$AAL?$AA_?$AA1?$AA?$AA@ 1000ffa8     shell.obj
 0001:0000efc8       ??_C@_1BM@GCOLJNBJ@?$AAS?$AAD?$AAR?$AAC?$AA_?$AAM?$AAA?$AAN?$AAU?$AAA?$AAL?$AA_?$AA1?$AA?$AA@ 1000ffc8     shell.obj
 0001:0000efe4       ??_C@_1BO@LBDDPNOG@?$AAP?$AAR?$AAM?$AA_?$AAV?$AAC?$AA_?$AAS?$AAM?$AAP?$AAS?$AA_?$AAS?$AAA?$AA?$AA@ 1000ffe4     shell.obj
 0001:0000f004       ??_C@_1CG@OIKDAOML@?$AAP?$AAR?$AAM?$AA_?$AAV?$AAC?$AA_?$AAS?$AAM?$AAP?$AAS?$AA_?$AAV?$AAO?$AAL?$AA_?$AAR?$AAA?$AA?$AA@ 10010004     shell.obj
 0001:0000f02c       ??_C@_1CG@PFFOICKB@?$AAP?$AAR?$AAM?$AA_?$AAV?$AAC?$AA_?$AAS?$AAM?$AAP?$AAS?$AA_?$AAC?$AAM?$AAD?$AA_?$AAR?$AAA?$AA?$AA@ 1001002c     shell.obj
 0001:0000f054       ??_C@_1CC@NGCEGMEK@?$AAP?$AAR?$AAM?$AA_?$AAV?$AAC?$AA_?$AAC?$AAM?$AAD?$AA_?$AAV?$AAA?$AAL?$AA_?$AA0?$AA?$AA@ 10010054     shell.obj
 0001:0000f078       ??_C@_1CC@GOJIALCP@?$AAP?$AAR?$AAM?$AA_?$AAV?$AAC?$AA_?$AAC?$AAM?$AAD?$AA_?$AAV?$AAA?$AAL?$AA_?$AA1?$AA?$AA@ 10010078     shell.obj
 0001:0000f09c       ??_C@_1BO@NIKJKLFL@?$AAP?$AAR?$AAM?$AA_?$AAV?$AAC?$AA_?$AAC?$AAH?$AA_?$AAC?$AAO?$AAN?$AAF?$AA?$AA@ 1001009c     shell.obj
 0001:0000f0bc       ??_C@_1BO@CDICEJPF@?$AAP?$AAR?$AAM?$AA_?$AAV?$AAC?$AA_?$AAI?$AA2?$AAC?$AA_?$AAC?$AAF?$AAG?$AA?$AA@ 100100bc     shell.obj
 0001:0000f0dc       ??_C@_1CE@LCNFDOGA@?$AAP?$AAR?$AAM?$AA_?$AAV?$AAC?$AA_?$AAB?$AAY?$AAP?$AAA?$AAS?$AAS?$AA_?$AAV?$AAA?$AAL?$AA?$AA@ 100100dc     shell.obj
 0001:0000f100       ??_C@_1BI@LGBDFDCO@?$AAP?$AAR?$AAM?$AA_?$AAR?$AAS?$AAT?$AAC?$AAT?$AAR?$AAL?$AA?$AA@ 10010100     shell.obj
 0001:0000f118       ??_C@_1BI@BLFHBCIB@?$AAP?$AAR?$AAM?$AA_?$AAR?$AAS?$AAT?$AAT?$AAI?$AAM?$AAE?$AA?$AA@ 10010118     shell.obj
 0001:0000f130       ??_C@_1BE@HPDPAFDK@?$AAP?$AAR?$AAM?$AA_?$AAR?$AAS?$AAT?$AAS?$AAT?$AA?$AA@ 10010130     shell.obj
 0001:0000f144       ??_C@_1BK@HFKALEHA@?$AAP?$AAR?$AAM?$AA_?$AAV?$AAO?$AAL?$AAT?$AAC?$AAT?$AAR?$AAL?$AA?$AA@ 10010144     shell.obj
 0001:0000f160       ??_C@_1CC@PEAEBONP@?$AAP?$AAR?$AAM?$AA_?$AAS?$AAR?$AAA?$AAM?$AA_?$AAP?$AAC?$AAH?$AAA?$AAR?$AAG?$AAE?$AA?$AA@ 10010160     shell.obj
 0001:0000f184       ??_C@_1CA@DKBCEFNM@?$AAP?$AAR?$AAM?$AA_?$AAC?$AAL?$AAK?$AAS?$AAR?$AAC?$AA_?$AAC?$AAT?$AAR?$AAL?$AA?$AA@ 10010184     shell.obj
 0001:0000f1a4       ??_C@_1BO@PMPMJPIB@?$AAP?$AAR?$AAM?$AA_?$AAV?$AAO?$AAL?$AAT?$AAS?$AAE?$AAT?$AAU?$AAP?$AA1?$AA?$AA@ 100101a4     shell.obj
 0001:0000f1c4       ??_C@_1BO@HNPCCMHL@?$AAP?$AAR?$AAM?$AA_?$AAV?$AAO?$AAL?$AAT?$AAO?$AAF?$AAF?$AAS?$AAE?$AAT?$AA?$AA@ 100101c4     shell.obj
 0001:0000f1e4       ??_C@_1BK@INLANGOK@?$AAP?$AAR?$AAM?$AA_?$AAC?$AAL?$AAK?$AAS?$AAE?$AAT?$AAU?$AAP?$AA?$AA@ 100101e4     shell.obj
 0001:0000f200       ??_C@_1BI@HHOAEAAO@?$AAP?$AAR?$AAM?$AA_?$AAP?$AAO?$AAL?$AAC?$AAT?$AAR?$AAL?$AA?$AA@ 10010200     shell.obj
 0001:0000f218       ??_C@_1BO@OOEJDAGP@?$AAP?$AAR?$AAM?$AA_?$AAV?$AAO?$AAL?$AAT?$AAS?$AAE?$AAT?$AAU?$AAP?$AA2?$AA?$AA@ 10010218     shell.obj
 0001:0000f238       ??_C@_1BO@CEANGLGM@?$AAP?$AAR?$AAM?$AA_?$AAV?$AAP?$AA1?$AA_?$AAC?$AAO?$AAN?$AAF?$AAI?$AAG?$AA?$AA@ 10010238     shell.obj
 0001:0000f258       ??_C@_1CC@ONHPNAAI@?$AAP?$AAR?$AAM?$AA_?$AAV?$AAP?$AA1?$AA_?$AAV?$AAS?$AAT?$AAE?$AAP?$AAM?$AAI?$AAN?$AA?$AA@ 10010258     shell.obj
 0001:0000f27c       ??_C@_1CC@HEFOFKCG@?$AAP?$AAR?$AAM?$AA_?$AAV?$AAP?$AA1?$AA_?$AAV?$AAS?$AAT?$AAE?$AAP?$AAM?$AAA?$AAX?$AA?$AA@ 1001027c     shell.obj
 0001:0000f2a0       ??_C@_1CC@ONENEFGH@?$AAP?$AAR?$AAM?$AA_?$AAV?$AAP?$AA1?$AA_?$AAV?$AAL?$AAI?$AAM?$AAI?$AAT?$AAT?$AAO?$AA?$AA@ 100102a0     shell.obj
 0001:0000f2c4       ??_C@_1CA@DPBJCHAO@?$AAP?$AAR?$AAM?$AA_?$AAV?$AAP?$AA1?$AA_?$AAV?$AAO?$AAL?$AAT?$AAA?$AAG?$AAE?$AA?$AA@ 100102c4     shell.obj
 0001:0000f2e4       ??_C@_1BO@FLMPHBAB@?$AAP?$AAR?$AAM?$AA_?$AAV?$AAP?$AA1?$AA_?$AAS?$AAT?$AAA?$AAT?$AAU?$AAS?$AA?$AA@ 100102e4     shell.obj
 0001:0000f304       ??_C@_1BO@MOILLGAO@?$AAP?$AAR?$AAM?$AA_?$AAV?$AAP?$AA2?$AA_?$AAC?$AAO?$AAN?$AAF?$AAI?$AAG?$AA?$AA@ 10010304     shell.obj
 0001:0000f324       ??_C@_1CC@NEAHHNEI@?$AAP?$AAR?$AAM?$AA_?$AAV?$AAP?$AA2?$AA_?$AAV?$AAS?$AAT?$AAE?$AAP?$AAM?$AAI?$AAN?$AA?$AA@ 10010324     shell.obj
 0001:0000f348       ??_C@_1CC@ENCGPHGG@?$AAP?$AAR?$AAM?$AA_?$AAV?$AAP?$AA2?$AA_?$AAV?$AAS?$AAT?$AAE?$AAP?$AAM?$AAA?$AAX?$AA?$AA@ 10010348     shell.obj
 0001:0000f36c       ??_C@_1CC@NEDFOICH@?$AAP?$AAR?$AAM?$AA_?$AAV?$AAP?$AA2?$AA_?$AAV?$AAL?$AAI?$AAM?$AAI?$AAT?$AAT?$AAO?$AA?$AA@ 1001036c     shell.obj
 0001:0000f390       ??_C@_1CA@JALAGKME@?$AAP?$AAR?$AAM?$AA_?$AAV?$AAP?$AA2?$AA_?$AAV?$AAO?$AAL?$AAT?$AAA?$AAG?$AAE?$AA?$AA@ 10010390     shell.obj
 0001:0000f3b0       ??_C@_1BO@LBEJKMGD@?$AAP?$AAR?$AAM?$AA_?$AAV?$AAP?$AA2?$AA_?$AAS?$AAT?$AAA?$AAT?$AAU?$AAS?$AA?$AA@ 100103b0     shell.obj
 0001:0000f3d0       ??_C@_1BG@MEGLEINJ@?$AAC?$AAO?$AAN?$AAV?$AA_?$AAC?$AAO?$AAE?$AAF?$AA0?$AA?$AA@ 100103d0     shell.obj
 0001:0000f3e8       ??_C@_1BG@HMNHCPLM@?$AAC?$AAO?$AAN?$AAV?$AA_?$AAC?$AAO?$AAE?$AAF?$AA1?$AA?$AA@ 100103e8     shell.obj
 0001:0000f400       ??_C@_1BG@GOGCIAFC@?$AAC?$AAO?$AAN?$AAV?$AA_?$AAC?$AAO?$AAE?$AAF?$AA2?$AA?$AA@ 10010400     shell.obj
 0001:0000f418       ??_C@_1BG@NGNOOHDH@?$AAC?$AAO?$AAN?$AAV?$AA_?$AAC?$AAO?$AAE?$AAF?$AA3?$AA?$AA@ 10010418     shell.obj
 0001:0000f430       ??_C@_1BG@ELAJNPIO@?$AAC?$AAO?$AAN?$AAV?$AA_?$AAC?$AAO?$AAE?$AAF?$AA4?$AA?$AA@ 10010430     shell.obj
 0001:0000f448       ??_C@_1DK@JMKKCMOM@?$AA?$AN?$AA?6?$AAD?$AAI?$AAS?$AAP?$AAC?$AA?5?$AAR?$AAe?$AAg?$AAi?$AAs?$AAt?$AAe?$AAr?$AAs?$AA?5?$AA?$CI?$AAV?$AAI?$AAD?$AA?5?$AA2?$AA?$CJ?$AA?3?$AA?$AN?$AA?6?$AA?$AA@ 10010448     shell.obj
 0001:0000f488       ??_C@_1FO@PMJOKNAK@?$AA?5?$AA?5?$AA?5?$AA?$CF?$AAd?$AA?3?$AA?5?$AAH?$AA?5?$AA?$DN?$AA?5?$AA0?$AAx?$AA?$CF?$AA0?$AA8?$AAx?$AA?5?$AA?5?$AA?5?$AAH?$AAV?$AA?5?$AA?$DN?$AA?5?$AA0?$AAx?$AA?$CF?$AA0?$AA8?$AAx?$AA?5@ 10010488     shell.obj
 0001:0000f4e8       ??_C@_1CG@LBBDODEC@?$AA?$AN?$AA?6?$AAD?$AAS?$AAS?$AA?5?$AAR?$AAe?$AAg?$AAi?$AAs?$AAt?$AAe?$AAr?$AAs?$AA?3?$AA?$AN?$AA?6?$AA?$AA@ 100104e8     shell.obj
 0001:0000f510       ??_C@_1CG@EHLCHKAL@?$AAD?$AAS?$AAS?$AA_?$AAR?$AAE?$AAV?$AAI?$AAS?$AAI?$AAO?$AAN?$AAN?$AAU?$AAM?$AAB?$AAE?$AAR?$AA?$AA@ 10010510     shell.obj
 0001:0000f538       ??_C@_1BM@PPGDIEOP@?$AAD?$AAS?$AAS?$AA_?$AAS?$AAY?$AAS?$AAC?$AAO?$AAN?$AAF?$AAI?$AAG?$AA?$AA@ 10010538     shell.obj
 0001:0000f554       ??_C@_1BM@IAKBJOIC@?$AAD?$AAS?$AAS?$AA_?$AAS?$AAY?$AAS?$AAS?$AAT?$AAA?$AAT?$AAU?$AAS?$AA?$AA@ 10010554     shell.obj
 0001:0000f570       ??_C@_1BI@BABKLDEO@?$AAD?$AAS?$AAS?$AA_?$AAC?$AAO?$AAN?$AAT?$AAR?$AAO?$AAL?$AA?$AA@ 10010570     shell.obj
 0001:0000f588       ??_C@_1CA@CAKAKODI@?$AAD?$AAS?$AAS?$AA_?$AAS?$AAD?$AAI?$AA_?$AAC?$AAO?$AAN?$AAT?$AAR?$AAO?$AAL?$AA?$AA@ 10010588     shell.obj
 0001:0000f5a8       ??_C@_1CA@OKHHPBAP@?$AAD?$AAS?$AAS?$AA_?$AAP?$AAL?$AAL?$AA_?$AAC?$AAO?$AAN?$AAT?$AAR?$AAO?$AAL?$AA?$AA@ 100105a8     shell.obj
 0001:0000f5c8       ??_C@_1BO@CACLBKLD@?$AAD?$AAS?$AAS?$AA_?$AAS?$AAD?$AAI?$AA_?$AAS?$AAT?$AAA?$AAT?$AAU?$AAS?$AA?$AA@ 100105c8     shell.obj
 0001:0000f5e8       ??_C@_1CK@MGKFPOIL@?$AA?$AN?$AA?6?$AAD?$AAI?$AAS?$AAP?$AAC?$AA?5?$AAR?$AAe?$AAg?$AAi?$AAs?$AAt?$AAe?$AAr?$AAs?$AA?3?$AA?$AN?$AA?6?$AA?$AA@ 100105e8     shell.obj
 0001:0000f614       ??_C@_1BO@LOMJFKEP@?$AAD?$AAI?$AAS?$AAP?$AAC?$AA_?$AAR?$AAE?$AAV?$AAI?$AAS?$AAI?$AAO?$AAN?$AA?$AA@ 10010614     shell.obj
 0001:0000f634       ??_C@_1CA@OMELLMCD@?$AAD?$AAI?$AAS?$AAP?$AAC?$AA_?$AAS?$AAY?$AAS?$AAC?$AAO?$AAN?$AAF?$AAI?$AAG?$AA?$AA@ 10010634     shell.obj
 0001:0000f654       ??_C@_1CA@JDIJKGEO@?$AAD?$AAI?$AAS?$AAP?$AAC?$AA_?$AAS?$AAY?$AAS?$AAS?$AAT?$AAA?$AAT?$AAU?$AAS?$AA?$AA@ 10010654     shell.obj
 0001:0000f674       ??_C@_1CA@FOCNPLFI@?$AAD?$AAI?$AAS?$AAP?$AAC?$AA_?$AAI?$AAR?$AAQ?$AAS?$AAT?$AAA?$AAT?$AAU?$AAS?$AA?$AA@ 10010674     shell.obj
 0001:0000f694       ??_C@_1CA@MNANOKKD@?$AAD?$AAI?$AAS?$AAP?$AAC?$AA_?$AAI?$AAR?$AAQ?$AAE?$AAN?$AAA?$AAB?$AAL?$AAE?$AA?$AA@ 10010694     shell.obj
 0001:0000f6b4       ??_C@_1DO@OLPNDLHJ@?$AA?$AN?$AA?6?$AAD?$AAI?$AAS?$AAP?$AAC?$AA?5?$AAR?$AAe?$AAg?$AAi?$AAs?$AAt?$AAe?$AAr?$AAs?$AA?5?$AA?$CI?$AAC?$AAo?$AAn?$AAt?$AAr?$AAo?$AAl?$AA?$CJ?$AA?3?$AA?$AN?$AA?6?$AA?$AA@ 100106b4     shell.obj
 0001:0000f6f4       ??_C@_1BM@LJCABPJE@?$AAD?$AAI?$AAS?$AAP?$AAC?$AA_?$AAC?$AAO?$AAN?$AAT?$AAR?$AAO?$AAL?$AA?$AA@ 100106f4     shell.obj
 0001:0000f710       ??_C@_1BK@GMNEODEH@?$AAD?$AAI?$AAS?$AAP?$AAC?$AA_?$AAC?$AAO?$AAN?$AAF?$AAI?$AAG?$AA?$AA@ 10010710     shell.obj
 0001:0000f72c       ??_C@_1BM@NBDCDCFF@?$AAD?$AAI?$AAS?$AAP?$AAC?$AA_?$AAC?$AAA?$AAP?$AAA?$AAB?$AAL?$AAE?$AA?$AA@ 1001072c     shell.obj
 0001:0000f748       ??_C@_1CK@CFCCBEMO@?$AAD?$AAI?$AAS?$AAP?$AAC?$AA_?$AAD?$AAE?$AAF?$AAA?$AAU?$AAL?$AAT?$AA_?$AAC?$AAO?$AAL?$AAO?$AAR?$AA0?$AA?$AA@ 10010748     shell.obj
 0001:0000f774       ??_C@_1CK@JNJOHDKL@?$AAD?$AAI?$AAS?$AAP?$AAC?$AA_?$AAD?$AAE?$AAF?$AAA?$AAU?$AAL?$AAT?$AA_?$AAC?$AAO?$AAL?$AAO?$AAR?$AA1?$AA?$AA@ 10010774     shell.obj
 0001:0000f7a0       ??_C@_1CG@HDHPDENC@?$AAD?$AAI?$AAS?$AAP?$AAC?$AA_?$AAT?$AAR?$AAA?$AAN?$AAS?$AA_?$AAC?$AAO?$AAL?$AAO?$AAR?$AA0?$AA?$AA@ 100107a0     shell.obj
 0001:0000f7c8       ??_C@_1CG@MLMDFDLH@?$AAD?$AAI?$AAS?$AAP?$AAC?$AA_?$AAT?$AAR?$AAA?$AAN?$AAS?$AA_?$AAC?$AAO?$AAL?$AAO?$AAR?$AA1?$AA?$AA@ 100107c8     shell.obj
 0001:0000f7f0       ??_C@_1CG@LLBONEMB@?$AAD?$AAI?$AAS?$AAP?$AAC?$AA_?$AAG?$AAL?$AAO?$AAB?$AAA?$AAL?$AA_?$AAA?$AAL?$AAP?$AAH?$AAA?$AA?$AA@ 100107f0     shell.obj
 0001:0000f818       ??_C@_1DG@EHBHLLLB@?$AA?$AN?$AA?6?$AAD?$AAI?$AAS?$AAP?$AAC?$AA?5?$AAR?$AAe?$AAg?$AAi?$AAs?$AAt?$AAe?$AAr?$AAs?$AA?5?$AA?$CI?$AAL?$AAC?$AAD?$AA?$CJ?$AA?3?$AA?$AN?$AA?6?$AA?$AA@ 10010818     shell.obj
 0001:0000f850       ??_C@_1CE@BKMEFOHP@?$AAD?$AAI?$AAS?$AAP?$AAC?$AA_?$AAL?$AAI?$AAN?$AAE?$AA_?$AAS?$AAT?$AAA?$AAT?$AAU?$AAS?$AA?$AA@ 10010850     shell.obj
 0001:0000f874       ??_C@_1CE@ELKLODPL@?$AAD?$AAI?$AAS?$AAP?$AAC?$AA_?$AAL?$AAI?$AAN?$AAE?$AA_?$AAN?$AAU?$AAM?$AAB?$AAE?$AAR?$AA?$AA@ 10010874     shell.obj
 0001:0000f898       ??_C@_1BO@NPHKHHKO@?$AAD?$AAI?$AAS?$AAP?$AAC?$AA_?$AAT?$AAI?$AAM?$AAI?$AAN?$AAG?$AA_?$AAH?$AA?$AA@ 10010898     shell.obj
 0001:0000f8b8       ??_C@_1BO@GPLMFHAC@?$AAD?$AAI?$AAS?$AAP?$AAC?$AA_?$AAT?$AAI?$AAM?$AAI?$AAN?$AAG?$AA_?$AAV?$AA?$AA@ 100108b8     shell.obj
 0001:0000f8d8       ??_C@_1BO@FBLJCGHF@?$AAD?$AAI?$AAS?$AAP?$AAC?$AA_?$AAP?$AAO?$AAL?$AA_?$AAF?$AAR?$AAE?$AAQ?$AA?$AA@ 100108d8     shell.obj
 0001:0000f8f8       ??_C@_1BM@BIDDBNDP@?$AAD?$AAI?$AAS?$AAP?$AAC?$AA_?$AAD?$AAI?$AAV?$AAI?$AAS?$AAO?$AAR?$AA?$AA@ 100108f8     shell.obj
 0001:0000f914       ??_C@_1BO@PDCOLKAC@?$AAD?$AAI?$AAS?$AAP?$AAC?$AA_?$AAS?$AAI?$AAZ?$AAE?$AA_?$AAD?$AAI?$AAG?$AA?$AA@ 10010914     shell.obj
 0001:0000f934       ??_C@_1BO@JDOFCNDP@?$AAD?$AAI?$AAS?$AAP?$AAC?$AA_?$AAS?$AAI?$AAZ?$AAE?$AA_?$AAL?$AAC?$AAD?$AA?$AA@ 10010934     shell.obj
 0001:0000f954       ??_C@_1DG@JAHNFOBM@?$AA?$AN?$AA?6?$AAD?$AAI?$AAS?$AAP?$AAC?$AA?5?$AAR?$AAe?$AAg?$AAi?$AAs?$AAt?$AAe?$AAr?$AAs?$AA?5?$AA?$CI?$AAG?$AAF?$AAX?$AA?$CJ?$AA?3?$AA?$AN?$AA?6?$AA?$AA@ 10010954     shell.obj
 0001:0000f98c       ??_C@_1BM@LPNKFAMH@?$AAD?$AAI?$AAS?$AAP?$AAC?$AA_?$AAG?$AAF?$AAX?$AA_?$AAB?$AAA?$AA0?$AA?$AA@ 1001098c     shell.obj
 0001:0000f9a8       ??_C@_1BM@HGGDHKC@?$AAD?$AAI?$AAS?$AAP?$AAC?$AA_?$AAG?$AAF?$AAX?$AA_?$AAB?$AAA?$AA1?$AA?$AA@ 100109a8     shell.obj
 0001:0000f9c4       ??_C@_1CG@PMLKIPND@?$AAD?$AAI?$AAS?$AAP?$AAC?$AA_?$AAG?$AAF?$AAX?$AA_?$AAP?$AAO?$AAS?$AAI?$AAT?$AAI?$AAO?$AAN?$AA?$AA@ 100109c4     shell.obj
 0001:0000f9ec       ??_C@_1BO@PBPMNKPH@?$AAD?$AAI?$AAS?$AAP?$AAC?$AA_?$AAG?$AAF?$AAX?$AA_?$AAS?$AAI?$AAZ?$AAE?$AA?$AA@ 100109ec     shell.obj
 0001:0000fa0c       ??_C@_1CK@LOBAFMDM@?$AAD?$AAI?$AAS?$AAP?$AAC?$AA_?$AAG?$AAF?$AAX?$AA_?$AAA?$AAT?$AAT?$AAR?$AAI?$AAB?$AAU?$AAT?$AAE?$AAS?$AA?$AA@ 10010a0c     shell.obj
 0001:0000fa38       ??_C@_1DC@OEJNAONE@?$AAD?$AAI?$AAS?$AAP?$AAC?$AA_?$AAG?$AAF?$AAX?$AA_?$AAF?$AAI?$AAF?$AAO?$AA_?$AAT?$AAH?$AAR?$AAE?$AAS?$AAH?$AAO?$AAL?$AAD?$AA?$AA@ 10010a38     shell.obj
 0001:0000fa6c       ??_C@_1DG@IEFHEKNP@?$AAD?$AAI?$AAS?$AAP?$AAC?$AA_?$AAG?$AAF?$AAX?$AA_?$AAF?$AAI?$AAF?$AAO?$AA_?$AAS?$AAI?$AAZ?$AAE?$AA_?$AAS?$AAT?$AAA?$AAT?$AAU?$AAS?$AA?$AA@ 10010a6c     shell.obj
 0001:0000faa4       ??_C@_1CE@MBMMHBEA@?$AAD?$AAI?$AAS?$AAP?$AAC?$AA_?$AAG?$AAF?$AAX?$AA_?$AAR?$AAO?$AAW?$AA_?$AAI?$AAN?$AAC?$AA?$AA@ 10010aa4     shell.obj
 0001:0000fac8       ??_C@_1CI@MGCKGGDL@?$AAD?$AAI?$AAS?$AAP?$AAC?$AA_?$AAG?$AAF?$AAX?$AA_?$AAP?$AAI?$AAX?$AAE?$AAL?$AA_?$AAI?$AAN?$AAC?$AA?$AA@ 10010ac8     shell.obj
 0001:0000faf0       ??_C@_1CM@NHOIHDMK@?$AAD?$AAI?$AAS?$AAP?$AAC?$AA_?$AAG?$AAF?$AAX?$AA_?$AAW?$AAI?$AAN?$AAD?$AAO?$AAW?$AA_?$AAS?$AAK?$AAI?$AAP?$AA?$AA@ 10010af0     shell.obj
 0001:0000fb1c       ??_C@_1CG@CCMLNFIG@?$AAD?$AAI?$AAS?$AAP?$AAC?$AA_?$AAG?$AAF?$AAX?$AA_?$AAT?$AAA?$AAB?$AAL?$AAE?$AA_?$AAB?$AAA?$AA?$AA@ 10010b1c     shell.obj
 0001:0000fb44       ??_C@_1DK@OLDEPOBM@?$AA?$AN?$AA?6?$AAD?$AAI?$AAS?$AAP?$AAC?$AA?5?$AAR?$AAe?$AAg?$AAi?$AAs?$AAt?$AAe?$AAr?$AAs?$AA?5?$AA?$CI?$AAV?$AAI?$AAD?$AA?5?$AA1?$AA?$CJ?$AA?3?$AA?$AN?$AA?6?$AA?$AA@ 10010b44     shell.obj
 0001:0000fb80       ??_C@_17MFEKMEGO@?$AAB?$AAA?$AA0?$AA?$AA@ 10010b80     shell.obj
 0001:0000fb88       ??_C@_17HNPGKDAL@?$AAB?$AAA?$AA1?$AA?$AA@ 10010b88     shell.obj
 0001:0000fb90       ??_C@_1BC@FJBGIGGO@?$AAP?$AAO?$AAS?$AAI?$AAT?$AAI?$AAO?$AAN?$AA?$AA@ 10010b90     shell.obj
 0001:0000fba4       ??_C@_19HJFLPAJK@?$AAS?$AAI?$AAZ?$AAE?$AA?$AA@ 10010ba4     shell.obj
 0001:0000fbb0       ??_C@_1BG@PKNHFFHG@?$AAA?$AAT?$AAT?$AAR?$AAI?$AAB?$AAU?$AAT?$AAE?$AAS?$AA?$AA@ 10010bb0     shell.obj
 0001:0000fbc8       ??_C@_1BO@GIMGEFKH@?$AAF?$AAI?$AAF?$AAO?$AA_?$AAT?$AAH?$AAR?$AAE?$AAS?$AAH?$AAO?$AAL?$AAD?$AA?$AA@ 10010bc8     shell.obj
 0001:0000fbe8       ??_C@_1CC@DMFDGMBI@?$AAF?$AAI?$AAF?$AAO?$AA_?$AAS?$AAI?$AAZ?$AAE?$AA_?$AAS?$AAT?$AAA?$AAT?$AAU?$AAS?$AA?$AA@ 10010be8     shell.obj
 0001:0000fc0c       ??_C@_1BA@MBENDBOF@?$AAR?$AAO?$AAW?$AA_?$AAI?$AAN?$AAC?$AA?$AA@ 10010c0c     shell.obj
 0001:0000fc1c       ??_C@_1BE@OOJNKLMG@?$AAP?$AAI?$AAX?$AAE?$AAL?$AA_?$AAI?$AAN?$AAC?$AA?$AA@ 10010c1c     shell.obj
 0001:0000fc30       ??_C@_17DMHMHHHB@?$AAF?$AAI?$AAR?$AA?$AA@ 10010c30     shell.obj
 0001:0000fc38       ??_C@_1BK@PCHMCLDN@?$AAP?$AAI?$AAC?$AAT?$AAU?$AAR?$AAE?$AA_?$AAS?$AAI?$AAZ?$AAE?$AA?$AA@ 10010c38     shell.obj
 0001:0000fc54       ??_C@_1M@FBBLNKEH@?$AAA?$AAC?$AAC?$AAU?$AA0?$AA?$AA@ 10010c54     shell.obj
 0001:0000fc60       ??_C@_1M@OJKHLNCC@?$AAA?$AAC?$AAC?$AAU?$AA1?$AA?$AA@ 10010c60     shell.obj
 0001:0000fc70       ??_C@_1EG@BNDOBAJG@?$AAD?$AAI?$AAS?$AAP?$AAC?$AA_?$AAV?$AAI?$AAD?$AAn?$AA_?$AAF?$AAI?$AAR?$AA_?$AAC?$AAO?$AAE?$AAF?$AA_?$AAH?$AAi?$AA?5?$AA_?$AAH?$AAV?$AAi?$AA?5?$AA_?$AAV?$AAi?$AA?3@ 10010c70     shell.obj
 0001:0000fcb8       ??_C@_1DO@GKHCCCHC@?$AA?$AN?$AA?6?$AAC?$AAo?$AAn?$AAt?$AAe?$AAx?$AAt?$AA?5?$AAR?$AAe?$AAs?$AAt?$AAo?$AAr?$AAe?$AA?5?$AAR?$AAe?$AAg?$AAi?$AAs?$AAt?$AAe?$AAr?$AAs?$AA?3?$AA?$AN?$AA?6?$AA?$AA@ 10010cb8     shell.obj
 0001:0000fcf8       ??_C@_1CC@JKNIDDJ@?$AAB?$AAO?$AAO?$AAT?$AA_?$AAC?$AAO?$AAN?$AAF?$AAI?$AAG?$AA_?$AAA?$AAD?$AAD?$AAR?$AA?$AA@ 10010cf8     shell.obj
 0001:0000fd1c       ??_C@_1CI@PHGDLNAE@?$AAP?$AAU?$AAB?$AAL?$AAI?$AAC?$AA_?$AAR?$AAE?$AAS?$AAT?$AAO?$AAR?$AAE?$AA_?$AAA?$AAD?$AAD?$AAR?$AA?$AA@ 10010d1c     shell.obj
 0001:0000fd44       ??_C@_1DC@BFMAALOA@?$AAS?$AAE?$AAC?$AAU?$AAR?$AAE?$AA_?$AAS?$AAR?$AAA?$AAM?$AA_?$AAR?$AAE?$AAS?$AAT?$AAO?$AAR?$AAE?$AA_?$AAA?$AAD?$AAD?$AAR?$AA?$AA@ 10010d44     shell.obj
 0001:0000fd78       ??_C@_1CM@COPCFPEF@?$AAS?$AAD?$AAR?$AAC?$AA_?$AAM?$AAO?$AAD?$AAU?$AAL?$AAE?$AA_?$AAS?$AAE?$AAM?$AAA?$AAP?$AAH?$AAO?$AAR?$AAE?$AA?$AA@ 10010d78     shell.obj
 0001:0000fda4       ??_C@_1CE@MJICBBHL@?$AAP?$AAR?$AAC?$AAM?$AA_?$AAB?$AAL?$AAO?$AAC?$AAK?$AA_?$AAO?$AAF?$AAF?$AAS?$AAE?$AAT?$AA?$AA@ 10010da4     shell.obj
 0001:0000fdc8       ??_C@_1CE@OGOKKOA@?$AAS?$AAD?$AAR?$AAC?$AA_?$AAB?$AAL?$AAO?$AAC?$AAK?$AA_?$AAO?$AAF?$AAF?$AAS?$AAE?$AAT?$AA?$AA@ 10010dc8     shell.obj
 0001:0000fdec       ??_C@_1CK@JCONAIHC@?$AAO?$AAE?$AAM?$AA_?$AAC?$AAP?$AAU?$AA_?$AAI?$AAN?$AAF?$AAO?$AA_?$AAD?$AAA?$AAT?$AAA?$AA_?$AAP?$AAA?$AA?$AA@ 10010dec     shell.obj
 0001:0000fe18       ??_C@_1CK@EELEOLGP@?$AAO?$AAE?$AAM?$AA_?$AAC?$AAP?$AAU?$AA_?$AAI?$AAN?$AAF?$AAO?$AA_?$AAD?$AAA?$AAT?$AAA?$AA_?$AAV?$AAA?$AA?$AA@ 10010e18     shell.obj
 0001:0000fe44       ??_C@_1DI@JLIKAKNN@?$AA?$AN?$AA?6?$AAP?$AAr?$AAc?$AAm?$AA?5?$AAR?$AAe?$AAs?$AAt?$AAo?$AAr?$AAe?$AA?5?$AAR?$AAe?$AAg?$AAi?$AAs?$AAt?$AAe?$AAr?$AAs?$AA?3?$AA?$AN?$AA?6?$AA?$AA@ 10010e44     shell.obj
 0001:0000fe7c       ??_C@_1BG@BPBPBGIA@?$AAP?$AAR?$AAM?$AA_?$AAC?$AAL?$AAK?$AAS?$AAE?$AAL?$AA?$AA@ 10010e7c     shell.obj
 0001:0000fe94       ??_C@_1BO@BGDPDEGJ@?$AAC?$AAM?$AA_?$AAC?$AAL?$AAK?$AAS?$AAE?$AAL?$AA_?$AAC?$AAO?$AAR?$AAE?$AA?$AA@ 10010e94     shell.obj
 0001:0000feb4       ??_C@_1BO@MGPCIMBE@?$AAC?$AAM?$AA_?$AAC?$AAL?$AAK?$AAS?$AAE?$AAL?$AA_?$AAW?$AAK?$AAU?$AAP?$AA?$AA@ 10010eb4     shell.obj
 0001:0000fed4       ??_C@_1BK@CFOGEALB@?$AAC?$AAM?$AA_?$AAC?$AAL?$AAK?$AAE?$AAN?$AA_?$AAP?$AAL?$AAL?$AA?$AA@ 10010ed4     shell.obj
 0001:0000fef0       ??_C@_1CA@ODFNPBKK@?$AAC?$AAM?$AA_?$AAA?$AAU?$AAT?$AAO?$AAI?$AAD?$AAL?$AAE?$AA_?$AAP?$AAL?$AAL?$AA?$AA@ 10010ef0     shell.obj
 0001:0000ff10       ??_C@_1BO@LIBOFPP@?$AAC?$AAM?$AA_?$AAC?$AAL?$AAK?$AAS?$AAE?$AAL?$AA1?$AA_?$AAP?$AAL?$AAL?$AA?$AA@ 10010f10     shell.obj
 0001:0000ff30       ??_C@_1BO@HMBPDHAP@?$AAC?$AAM?$AA_?$AAC?$AAL?$AAK?$AAS?$AAE?$AAL?$AA2?$AA_?$AAP?$AAL?$AAL?$AA?$AA@ 10010f30     shell.obj
 0001:0000ff50       ??_C@_1BO@OHLKHLGA@?$AAC?$AAM?$AA_?$AAC?$AAL?$AAK?$AAS?$AAE?$AAL?$AA3?$AA_?$AAP?$AAL?$AAL?$AA?$AA@ 10010f50     shell.obj
 0001:0000ff70       ??_C@_1CC@JNLBAGDF@?$AAC?$AAM?$AA_?$AAC?$AAL?$AAK?$AAE?$AAN?$AA_?$AAP?$AAL?$AAL?$AA_?$AAM?$AAP?$AAU?$AA?$AA@ 10010f70     shell.obj
 0001:0000ff94       ??_C@_1CI@CMDKJBJB@?$AAC?$AAM?$AA_?$AAA?$AAU?$AAT?$AAO?$AAI?$AAD?$AAL?$AAE?$AA_?$AAP?$AAL?$AAL?$AA_?$AAM?$AAP?$AAU?$AA?$AA@ 10010f94     shell.obj
 0001:0000ffbc       ??_C@_1CG@NPDFIEKE@?$AAC?$AAM?$AA_?$AAC?$AAL?$AAK?$AAS?$AAE?$AAL?$AA1?$AA_?$AAP?$AAL?$AAL?$AA_?$AAM?$AAP?$AAU?$AA?$AA@ 10010fbc     shell.obj
 0001:0000ffe4       ??_C@_1CG@HAJMMJGO@?$AAC?$AAM?$AA_?$AAC?$AAL?$AAK?$AAS?$AAE?$AAL?$AA2?$AA_?$AAP?$AAL?$AAL?$AA_?$AAM?$AAP?$AAU?$AA?$AA@ 10010fe4     shell.obj
 0001:0001000c       ??_C@_1DI@BMPKOGIL@?$AA?$AN?$AA?6?$AAS?$AAD?$AAR?$AAC?$AA?5?$AAR?$AAe?$AAs?$AAt?$AAo?$AAr?$AAe?$AA?5?$AAR?$AAe?$AAg?$AAi?$AAs?$AAt?$AAe?$AAr?$AAs?$AA?3?$AA?$AN?$AA?6?$AA?$AA@ 1001100c     shell.obj
 0001:00010044       ??_C@_1BE@DJDLFHHK@?$AAS?$AAY?$AAS?$AAC?$AAO?$AAN?$AAF?$AAI?$AAG?$AA?$AA@ 10011044     shell.obj
 0001:00010058       ??_C@_1O@GILGENNA@?$AAC?$AAS?$AA_?$AAC?$AAF?$AAG?$AA?$AA@ 10011058     shell.obj
 0001:00010068       ??_C@_1BA@JDFBFOEP@?$AAS?$AAH?$AAA?$AAR?$AAI?$AAN?$AAG?$AA?$AA@ 10011068     shell.obj
 0001:00010078       ??_C@_1BC@FLDCGIFI@?$AAE?$AAR?$AAR?$AA_?$AAT?$AAY?$AAP?$AAE?$AA?$AA@ 10011078     shell.obj
 0001:0001008c       ??_C@_1BE@CCLNPHJ@?$AAD?$AAL?$AAL?$AAA?$AA_?$AAC?$AAT?$AAR?$AAL?$AA?$AA@ 1001108c     shell.obj
 0001:000100a0       ??_C@_1BE@HOEKPKKC@?$AAD?$AAL?$AAL?$AAB?$AA_?$AAC?$AAT?$AAR?$AAL?$AA?$AA@ 100110a0     shell.obj
 0001:000100b4       ??_C@_1M@LGJCJJJI@?$AAP?$AAO?$AAW?$AAE?$AAR?$AA?$AA@ 100110b4     shell.obj
 0001:000100c0       ??_C@_1O@CCPFJKAC@?$AAM?$AAC?$AAF?$AAG?$AA_?$AA0?$AA?$AA@ 100110c0     shell.obj
 0001:000100d0       ??_C@_19GNMBKNKB@?$AAM?$AAR?$AA_?$AA0?$AA?$AA@ 100110d0     shell.obj
 0001:000100dc       ??_C@_1O@LMOHOOKP@?$AAE?$AAM?$AAR?$AA1?$AA_?$AA0?$AA?$AA@ 100110dc     shell.obj
 0001:000100ec       ??_C@_1O@DCGIOJEM@?$AAE?$AAM?$AAR?$AA2?$AA_?$AA0?$AA?$AA@ 100110ec     shell.obj
 0001:000100fc       ??_C@_1O@POMCOJNC@?$AAE?$AAM?$AAR?$AA3?$AA_?$AA0?$AA?$AA@ 100110fc     shell.obj
 0001:0001010c       ??_C@_1BM@BFLHEJCI@?$AAA?$AAC?$AAT?$AAI?$AAM?$AA_?$AAC?$AAT?$AAR?$AAL?$AAA?$AA_?$AA0?$AA?$AA@ 1001110c     shell.obj
 0001:00010128       ??_C@_1BM@JLDIEOML@?$AAA?$AAC?$AAT?$AAI?$AAM?$AA_?$AAC?$AAT?$AAR?$AAL?$AAB?$AA_?$AA0?$AA?$AA@ 10011128     shell.obj
 0001:00010144       ??_C@_1BG@LACIELHC@?$AAR?$AAF?$AAR?$AA_?$AAC?$AAT?$AAR?$AAL?$AA_?$AA0?$AA?$AA@ 10011144     shell.obj
 0001:0001015c       ??_C@_1O@JKEJPNGH@?$AAM?$AAC?$AAF?$AAG?$AA_?$AA1?$AA?$AA@ 1001115c     shell.obj
 0001:0001016c       ??_C@_19NFHNMKME@?$AAM?$AAR?$AA_?$AA1?$AA?$AA@ 1001116c     shell.obj
 0001:00010178       ??_C@_1O@EFLIJMK@?$AAE?$AAM?$AAR?$AA1?$AA_?$AA1?$AA?$AA@ 10011178     shell.obj
 0001:00010188       ??_C@_1O@IKNEIOCJ@?$AAE?$AAM?$AAR?$AA2?$AA_?$AA1?$AA?$AA@ 10011188     shell.obj
 0001:00010198       ??_C@_1O@EGHOIOLH@?$AAE?$AAM?$AAR?$AA3?$AA_?$AA1?$AA?$AA@ 10011198     shell.obj
 0001:000101a8       ??_C@_1BM@KNALCOEN@?$AAA?$AAC?$AAT?$AAI?$AAM?$AA_?$AAC?$AAT?$AAR?$AAL?$AAA?$AA_?$AA1?$AA?$AA@ 100111a8     shell.obj
 0001:000101c4       ??_C@_1BM@CDIECJKO@?$AAA?$AAC?$AAT?$AAI?$AAM?$AA_?$AAC?$AAT?$AAR?$AAL?$AAB?$AA_?$AA1?$AA?$AA@ 100111c4     shell.obj
 0001:000101e0       ??_C@_1BG@IJECMBH@?$AAR?$AAF?$AAR?$AA_?$AAC?$AAT?$AAR?$AAL?$AA_?$AA1?$AA?$AA@ 100111e0     shell.obj
 0001:000101f8       ??_C@_1BI@DHFDFNJA@?$AAD?$AAC?$AAD?$AAL?$AA_?$AA1?$AA_?$AAC?$AAT?$AAR?$AAL?$AA?$AA@ 100111f8     shell.obj
 0001:00010210       ??_C@_1BI@ELDCHIEL@?$AAD?$AAC?$AAD?$AAL?$AA_?$AA2?$AA_?$AAC?$AAT?$AAR?$AAL?$AA?$AA@ 10011210     shell.obj
 0001:00010228       ??_C@_1BE@KMHEILF@?$AA?$DN?$AA0?$AAx?$AA?$CF?$AA0?$AA4?$AAX?$AA?$AN?$AA?6?$AA?$AA@ 10011228     shell.obj
 0001:0001023c       ??_C@_1CA@HGIEBGFL@?$AAC?$AAO?$AAN?$AAT?$AAR?$AAO?$AAL?$AA_?$AAF?$AAU?$AAS?$AAE?$AA_?$AAS?$AAR?$AA?$AA@ 1001123c     shell.obj
 0001:0001025c       ??_C@_1DG@MHMPKKBP@?$AAC?$AAO?$AAN?$AAT?$AAR?$AAO?$AAL?$AA_?$AAF?$AAU?$AAS?$AAE?$AA_?$AAO?$AAP?$AAP?$AA_?$AAV?$AAD?$AAD?$AA2?$AA?$FL?$AAi?$AAd?$AAx?$AA?$FN?$AA?$AA@ 1001125c     shell.obj
 0001:00010294       ??_C@_1DG@LLKOIPME@?$AAC?$AAO?$AAN?$AAT?$AAR?$AAO?$AAL?$AA_?$AAF?$AAU?$AAS?$AAE?$AA_?$AAO?$AAP?$AAP?$AA_?$AAV?$AAD?$AAD?$AA1?$AA?$FL?$AAi?$AAd?$AAx?$AA?$FN?$AA?$AA@ 10011294     shell.obj
 0001:000102d0       ??_C@_1EC@EPNIEMIH@?$AA?$AN?$AA?6?$AAS?$AAm?$AAa?$AAr?$AAt?$AAr?$AAe?$AAf?$AAl?$AAe?$AAx?$AA?5?$AAE?$AAF?$AAu?$AAs?$AAe?$AA?5?$AAR?$AAe?$AAg?$AAi?$AAs?$AAt?$AAe?$AAr?$AAs?$AA?3?$AA?$AN?$AA?6@ 100112d0     shell.obj
 0001:00010314       ??_C@_1CA@GKNKFCGM@?$AA?$AN?$AA?6?$AAP?$AAR?$AAC?$AAM?$AA?5?$AAc?$AAh?$AAe?$AAc?$AAk?$AA?3?$AA?$AN?$AA?6?$AA?$AA@ 10011314     shell.obj
 0001:00010334       ??_C@_1DE@DAMCMDFL@?$AA?$AN?$AA?6?$AAC?$AAL?$AAO?$AAC?$AAK?$AA_?$AAC?$AAO?$AAN?$AAT?$AAR?$AAO?$AAL?$AA_?$AAR?$AAE?$AAG?$AA_?$AAC?$AAM?$AA?3?$AA?$AN?$AA?6?$AA?$AA@ 10011334     shell.obj
 0001:00010368       ??_C@_1CA@PFEJJBMO@?$AAC?$AAM?$AA_?$AAI?$AAD?$AAL?$AAE?$AAS?$AAT?$AA_?$AAC?$AAK?$AAG?$AAE?$AAN?$AA?$AA@ 10011368     shell.obj
 0001:00010388       ??_C@_1CC@OBCEIAAE@?$AAC?$AAM?$AA_?$AAI?$AAD?$AAL?$AAE?$AAS?$AAT?$AA2?$AA_?$AAC?$AAK?$AAG?$AAE?$AAN?$AA?$AA@ 10011388     shell.obj
 0001:000103ac       ??_C@_1CE@HKOKFJFM@?$AA?$AN?$AA?6?$AAP?$AAo?$AAw?$AAe?$AAr?$AA?5?$AAs?$AAt?$AAa?$AAt?$AAe?$AAs?$AA?3?$AA?$AN?$AA?6?$AA?$AA@ 100113ac     shell.obj
 0001:000103d0       ??_C@_1BO@FHNJGKGN@?$AAP?$AAM?$AA_?$AAP?$AAW?$AAS?$AAT?$AAS?$AAT?$AA_?$AAI?$AAV?$AAA?$AA2?$AA?$AA@ 100113d0     shell.obj
 0001:000103f0       ??_C@_1CE@PLIIPJHM@?$AAP?$AAM?$AA_?$AAP?$AAR?$AAE?$AAP?$AAW?$AAS?$AAT?$AAS?$AAT?$AA_?$AAI?$AAV?$AAA?$AA2?$AA?$AA@ 100113f0     shell.obj
 0001:00010414       ??_C@_1BM@LELJCJGF@?$AAP?$AAM?$AA_?$AAP?$AAW?$AAS?$AAT?$AAS?$AAT?$AA_?$AAM?$AAP?$AAU?$AA?$AA@ 10011414     shell.obj
 0001:00010430       ??_C@_1CC@GGGLCCOF@?$AAP?$AAM?$AA_?$AAP?$AAR?$AAE?$AAP?$AAW?$AAS?$AAT?$AAS?$AAT?$AA_?$AAM?$AAP?$AAU?$AA?$AA@ 10011430     shell.obj
 0001:00010454       ??_C@_1BO@FAKFDILE@?$AAP?$AAM?$AA_?$AAP?$AAW?$AAS?$AAT?$AAS?$AAT?$AA_?$AAC?$AAO?$AAR?$AAE?$AA?$AA@ 10011454     shell.obj
 0001:00010474       ??_C@_1CE@PMPEKLKF@?$AAP?$AAM?$AA_?$AAP?$AAR?$AAE?$AAP?$AAW?$AAS?$AAT?$AAS?$AAT?$AA_?$AAC?$AAO?$AAR?$AAE?$AA?$AA@ 10011474     shell.obj
 0001:00010498       ??_C@_1BM@DBDBOAIC@?$AAP?$AAM?$AA_?$AAP?$AAW?$AAS?$AAT?$AAS?$AAT?$AA_?$AAS?$AAG?$AAX?$AA?$AA@ 10011498     shell.obj
 0001:000104b4       ??_C@_1CC@ODODOLAC@?$AAP?$AAM?$AA_?$AAP?$AAR?$AAE?$AAP?$AAW?$AAS?$AAT?$AAS?$AAT?$AA_?$AAS?$AAG?$AAX?$AA?$AA@ 100114b4     shell.obj
 0001:000104d8       ??_C@_1BM@IAJBPDM@?$AAP?$AAM?$AA_?$AAP?$AAW?$AAS?$AAT?$AAS?$AAT?$AA_?$AAD?$AAS?$AAS?$AA?$AA@ 100114d8     shell.obj
 0001:000104f4       ??_C@_1CC@NKNLBELM@?$AAP?$AAM?$AA_?$AAP?$AAR?$AAE?$AAP?$AAW?$AAS?$AAT?$AAS?$AAT?$AA_?$AAD?$AAS?$AAS?$AA?$AA@ 100114f4     shell.obj
 0001:00010518       ??_C@_1BM@PMBEJFBJ@?$AAP?$AAM?$AA_?$AAP?$AAW?$AAS?$AAT?$AAS?$AAT?$AA_?$AAC?$AAA?$AAM?$AA?$AA@ 10011518     shell.obj
 0001:00010534       ??_C@_1CC@COMGJOJJ@?$AAP?$AAM?$AA_?$AAP?$AAR?$AAE?$AAP?$AAW?$AAS?$AAT?$AAS?$AAT?$AA_?$AAC?$AAA?$AAM?$AA?$AA@ 10011534     shell.obj
 0001:00010558       ??_C@_1BM@JNMLKGAO@?$AAP?$AAM?$AA_?$AAP?$AAW?$AAS?$AAT?$AAS?$AAT?$AA_?$AAP?$AAE?$AAR?$AA?$AA@ 10011558     shell.obj
 0001:00010574       ??_C@_1CC@EPBJKNIO@?$AAP?$AAM?$AA_?$AAP?$AAR?$AAE?$AAP?$AAW?$AAS?$AAT?$AAS?$AAT?$AA_?$AAP?$AAE?$AAR?$AA?$AA@ 10011574     shell.obj
 0001:00010598       ??_C@_1BO@FMNCDJII@?$AAP?$AAM?$AA_?$AAP?$AAW?$AAS?$AAT?$AAS?$AAT?$AA_?$AAN?$AAE?$AAO?$AAN?$AA?$AA@ 10011598     shell.obj
 0001:000105b8       ??_C@_1CE@PAIDKKJJ@?$AAP?$AAM?$AA_?$AAP?$AAR?$AAE?$AAP?$AAW?$AAS?$AAT?$AAS?$AAT?$AA_?$AAN?$AAE?$AAO?$AAN?$AA?$AA@ 100115b8     shell.obj
 0001:000105dc       ??_C@_1CE@DINMMLDJ@?$AAP?$AAM?$AA_?$AAP?$AAW?$AAS?$AAT?$AAS?$AAT?$AA_?$AAU?$AAS?$AAB?$AAH?$AAO?$AAS?$AAT?$AA?$AA@ 100115dc     shell.obj
 0001:00010600       ??_C@_1CK@MFCDILAE@?$AAP?$AAM?$AA_?$AAP?$AAR?$AAE?$AAP?$AAW?$AAS?$AAT?$AAS?$AAT?$AA_?$AAU?$AAS?$AAB?$AAH?$AAO?$AAS?$AAT?$AA?$AA@ 10011600     shell.obj
 0001:0001062c       ??_C@_1CO@FAIMMEAI@?$AA?$AN?$AA?6?$AAF?$AAu?$AAn?$AAc?$AAt?$AAi?$AAo?$AAn?$AAa?$AAl?$AA?5?$AAc?$AAl?$AAo?$AAc?$AAk?$AAs?$AA?3?$AA?$AN?$AA?6?$AA?$AA@ 1001162c     shell.obj
 0001:0001065c       ??_C@_1BO@BMCCBFKC@?$AAC?$AAM?$AA_?$AAF?$AAC?$AAL?$AAK?$AAE?$AAN?$AA_?$AAI?$AAV?$AAA?$AA2?$AA?$AA@ 1001165c     shell.obj
 0001:0001067c       ??_C@_1CA@CFLMELNM@?$AAC?$AAM?$AA_?$AAF?$AAC?$AAL?$AAK?$AAE?$AAN?$AA1?$AA_?$AAC?$AAO?$AAR?$AAE?$AA?$AA@ 1001167c     shell.obj
 0001:0001069c       ??_C@_1CA@MENCIPHB@?$AAC?$AAM?$AA_?$AAF?$AAC?$AAL?$AAK?$AAE?$AAN?$AA3?$AA_?$AAC?$AAO?$AAR?$AAE?$AA?$AA@ 1001169c     shell.obj
 0001:000106bc       ??_C@_1BM@JFNDLFFL@?$AAC?$AAM?$AA_?$AAF?$AAC?$AAL?$AAK?$AAE?$AAN?$AA_?$AAS?$AAG?$AAX?$AA?$AA@ 100116bc     shell.obj
 0001:000106d8       ??_C@_1BO@MLJDPPAG@?$AAC?$AAM?$AA_?$AAF?$AAC?$AAL?$AAK?$AAE?$AAN?$AA_?$AAW?$AAK?$AAU?$AAP?$AA?$AA@ 100116d8     shell.obj
 0001:000106f8       ??_C@_1BM@KMOLEKOF@?$AAC?$AAM?$AA_?$AAF?$AAC?$AAL?$AAK?$AAE?$AAN?$AA_?$AAD?$AAS?$AAS?$AA?$AA@ 100116f8     shell.obj
 0001:00010714       ??_C@_1BM@FIPGMAMA@?$AAC?$AAM?$AA_?$AAF?$AAC?$AAL?$AAK?$AAE?$AAN?$AA_?$AAC?$AAA?$AAM?$AA?$AA@ 10011714     shell.obj
 0001:00010730       ??_C@_1BM@DJCJPDNH@?$AAC?$AAM?$AA_?$AAF?$AAC?$AAL?$AAK?$AAE?$AAN?$AA_?$AAP?$AAE?$AAR?$AA?$AA@ 10011730     shell.obj
 0001:0001074c       ??_C@_1CE@IOEIODMB@?$AAC?$AAM?$AA_?$AAF?$AAC?$AAL?$AAK?$AAE?$AAN?$AA_?$AAU?$AAS?$AAB?$AAH?$AAO?$AAS?$AAT?$AA?$AA@ 1001174c     shell.obj
 0001:00010770       ??_C@_1CM@BFOHMHKE@?$AA?$AN?$AA?6?$AAI?$AAn?$AAt?$AAe?$AAr?$AAf?$AAa?$AAc?$AAe?$AA?5?$AAc?$AAl?$AAo?$AAc?$AAk?$AAs?$AA?3?$AA?$AN?$AA?6?$AA?$AA@ 10011770     shell.obj
 0001:0001079c       ??_C@_1CA@KIFGBNEG@?$AAC?$AAM?$AA_?$AAI?$AAC?$AAL?$AAK?$AAE?$AAN?$AA1?$AA_?$AAC?$AAO?$AAR?$AAE?$AA?$AA@ 1001179c     shell.obj
 0001:000107bc       ??_C@_1CA@EJDINJOL@?$AAC?$AAM?$AA_?$AAI?$AAC?$AAL?$AAK?$AAE?$AAN?$AA3?$AA_?$AAC?$AAO?$AAR?$AAE?$AA?$AA@ 100117bc     shell.obj
 0001:000107dc       ??_C@_1BM@EJEJKNBL@?$AAC?$AAM?$AA_?$AAI?$AAC?$AAL?$AAK?$AAE?$AAN?$AA_?$AAS?$AAG?$AAX?$AA?$AA@ 100117dc     shell.obj
 0001:000107f8       ??_C@_1BO@CIIGPEMP@?$AAC?$AAM?$AA_?$AAI?$AAC?$AAL?$AAK?$AAE?$AAN?$AA_?$AAW?$AAK?$AAU?$AAP?$AA?$AA@ 100117f8     shell.obj
 0001:00010818       ??_C@_1BM@HAHBFCKF@?$AAC?$AAM?$AA_?$AAI?$AAC?$AAL?$AAK?$AAE?$AAN?$AA_?$AAD?$AAS?$AAS?$AA?$AA@ 10011818     shell.obj
 0001:00010834       ??_C@_1BM@IEGMNIIA@?$AAC?$AAM?$AA_?$AAI?$AAC?$AAL?$AAK?$AAE?$AAN?$AA_?$AAC?$AAA?$AAM?$AA?$AA@ 10011834     shell.obj
 0001:00010850       ??_C@_1BM@OFLDOLJH@?$AAC?$AAM?$AA_?$AAI?$AAC?$AAL?$AAK?$AAE?$AAN?$AA_?$AAP?$AAE?$AAR?$AA?$AA@ 10011850     shell.obj
 0001:0001086c       ??_C@_1CE@DBMFEPI@?$AAC?$AAM?$AA_?$AAI?$AAC?$AAL?$AAK?$AAE?$AAN?$AA_?$AAU?$AAS?$AAB?$AAH?$AAO?$AAS?$AAT?$AA?$AA@ 1001186c     shell.obj
 0001:00010890       ??_C@_1DM@CBHJFMED@?$AAU?$AAn?$AAa?$AAb?$AAl?$AAe?$AA?5?$AAt?$AAo?$AA?5?$AAg?$AAe?$AAt?$AA?5?$AAc?$AAl?$AAo?$AAc?$AAk?$AA?5?$AAi?$AAf?$AA?5?$AAf?$AAo?$AAr?$AA?5?$AA?$CF?$AAs?$AA?$AA@ 10011890     shell.obj
 0001:000108cc       ??_C@_1BC@EEEPAKEF@?$AA?$CF?$AAs?$AA?$CI?$AA?$CF?$AAd?$AA?$CJ?$AA?$AN?$AA?6?$AA?$AA@ 100118cc     shell.obj
 0001:000108e0       ??_C@_1CC@DCCMFIKC@?$AAU?$AAn?$AAk?$AAn?$AAo?$AAw?$AAn?$AA?5?$AAd?$AAe?$AAv?$AAi?$AAc?$AAe?$AA?$AN?$AA?6?$AA?$AA@ 100118e0     shell.obj
 0001:00010908       ??_C@_1EC@FKNOIIOB@?$AA?$CF?$AAs?$AA?5?$AA?9?$AA?5?$AAE?$AAn?$AAa?$AAb?$AAl?$AAe?$AAd?$AA?$CI?$AA?$CF?$AAd?$AA?$CJ?$AA?0?$AA?5?$AAA?$AAu?$AAt?$AAo?$AAI?$AAd?$AAl?$AAe?$AA?$CI?$AA?$CF?$AAd?$AA?$CJ?$AA?$AN?$AA?6@ 10011908     shell.obj
 0001:0001094c       ??_C@_1DE@JIMMPGAA@?$AAu?$AAn?$AAd?$AAe?$AAf?$AAi?$AAn?$AAe?$AAd?$AA?5?$AAp?$AAa?$AAr?$AAa?$AAm?$AAe?$AAt?$AAe?$AAr?$AA?$CI?$AA?$CF?$AAs?$AA?$CJ?$AA?$AN?$AA?6?$AA?$AA@ 1001194c     shell.obj
 0001:00010980       ??_C@_1O@JOABEBCL@?$AAs?$AAo?$AAu?$AAr?$AAc?$AAe?$AA?$AA@ 10011980     shell.obj
 0001:00010990       ??_C@_1O@KLFMMJAJ@?$AAs?$AAt?$AAa?$AAt?$AAu?$AAs?$AA?$AA@ 10011990     shell.obj
 0001:000109a0       ??_C@_1DK@IGCCLGFD@?$AAu?$AAn?$AAk?$AAn?$AAo?$AAw?$AAn?$AA?5?$AAc?$AAo?$AAn?$AAf?$AAi?$AAg?$AAu?$AAr?$AAa?$AAt?$AAi?$AAo?$AAn?$AA?5?$AA?8?$AA?$CF?$AAs?$AA?8?$AA?$AN?$AA?6?$AA?$AA@ 100119a0     shell.obj
 0001:000109dc       ??_C@_1CI@NHBPHLEM@?$AAc?$AAo?$AAn?$AAf?$AAi?$AAg?$AAu?$AAr?$AAe?$AAd?$AA?5?$AAf?$AAo?$AAr?$AA?5?$AA?$CF?$AAs?$AA?$AN?$AA?6?$AA?$AA@ 100119dc     shell.obj
 0001:00010a08       ??_C@_1FA@EJDPFHHM@?$AAS?$AAe?$AAt?$AAC?$AAo?$AAn?$AAt?$AAr?$AAa?$AAs?$AAt?$AA?5?$AAw?$AAr?$AAo?$AAn?$AAg?$AA?5?$AAa?$AAr?$AAg?$AAs?$AA?5?$AA?8?$AA?$CF?$AAs?$AA?8?$AA?5?$AAe?$AAr?$AAr?$AAo@ 10011a08     shell.obj
 0001:00010a58       ??_C@_1DG@HKIIOBGN@?$AAI?$AAO?$AAC?$AAT?$AAL?$AA_?$AAH?$AAA?$AAL?$AA_?$AAR?$AAE?$AAB?$AAO?$AAO?$AAT?$AA?5?$AA?5?$AAf?$AAa?$AAi?$AAl?$AAe?$AAd?$AA?$AN?$AA?6?$AA?$AA@ 10011a58     shell.obj
 0001:00010a90       ??_C@_1CG@JLHLMDJH@?$AAR?$AAe?$AAb?$AAo?$AAo?$AAt?$AAi?$AAn?$AAg?$AA?5?$AAd?$AAe?$AAv?$AAi?$AAc?$AAe?$AA?$AN?$AA?6?$AA?$AA@ 10011a90     shell.obj
 0001:00010ab8       ??_C@_1CE@GNHMCIB@?$AAU?$AAn?$AAk?$AAn?$AAo?$AAw?$AAn?$AA?5?$AAc?$AAo?$AAm?$AAm?$AAa?$AAn?$AAd?$AA?$AN?$AA?6?$AA?$AA@ 10011ab8     shell.obj
 0001:00010adc       ??_C@_17FDPGNGBJ@?$AAo?$AAf?$AAf?$AA?$AA@ 10011adc     shell.obj
 0001:00010ae4       ??_C@_15GMGGGDOD@?$AAo?$AAn?$AA?$AA@ 10011ae4     shell.obj
 0001:00010af0       ??_C@_1EM@KOODGBJO@?$AAE?$AAr?$AAr?$AAo?$AAr?$AA?5?$AAg?$AAe?$AAt?$AAt?$AAi?$AAn?$AAg?$AA?5?$AAd?$AAi?$AAs?$AAp?$AAl?$AAa?$AAy?$AA?5?$AAd?$AAr?$AAi?$AAv?$AAe?$AAr?$AA?5?$AAh?$AAa?$AAn@ 10011af0     shell.obj
 0001:00010b3c       ??_C@_1DI@BDPGIAKC@?$AAU?$AAp?$AAd?$AAa?$AAt?$AAe?$AAd?$AA?5?$AAT?$AAV?$AA?5?$AAO?$AAu?$AAt?$AA?5?$AAS?$AAe?$AAt?$AAt?$AAi?$AAn?$AAg?$AAs?$AA?5?$AA?9?$AA?$AN?$AA?6?$AA?$AA@ 10011b3c     shell.obj
 0001:00010b74       ??_C@_1O@HBCADPGJ@?$AAo?$AAf?$AAf?$AAs?$AAe?$AAt?$AA?$AA@ 10011b74     shell.obj
 0001:00010b84       ??_C@_1M@ICKBLNNC@?$AAs?$AAc?$AAa?$AAl?$AAe?$AA?$AA@ 10011b84     shell.obj
 0001:00010b90       ??_C@_1O@GIDNNKBL@?$AAa?$AAs?$AAp?$AAe?$AAc?$AAt?$AA?$AA@ 10011b90     shell.obj
 0001:00010ba0       ??_C@_1O@JFGOJJFE@?$AAf?$AAi?$AAl?$AAt?$AAe?$AAr?$AA?$AA@ 10011ba0     shell.obj
 0001:00010bb0       ??_C@_1DK@IGHBLCMG@?$AA?5?$AA?5?$AAT?$AAV?$AA?5?$AAO?$AAu?$AAt?$AA?5?$AAE?$AAn?$AAa?$AAb?$AAl?$AAe?$AA?5?$AA?5?$AA?5?$AA?5?$AA?5?$AA?5?$AA?5?$AA?3?$AA?5?$AA?$CF?$AAd?$AA?$AN?$AA?6?$AA?$AA@ 10011bb0     shell.obj
 0001:00010bec       ??_C@_1DK@BNKNLOMF@?$AA?5?$AA?5?$AAT?$AAV?$AA?5?$AAO?$AAu?$AAt?$AA?5?$AAF?$AAi?$AAl?$AAt?$AAe?$AAr?$AA?5?$AAL?$AAe?$AAv?$AAe?$AAl?$AA?5?$AA?3?$AA?5?$AA?$CF?$AAd?$AA?$AN?$AA?6?$AA?$AA@ 10011bec     shell.obj
 0001:00010c28       ??_C@_1EA@NHDIOBAM@?$AA?5?$AA?5?$AAT?$AAV?$AA?5?$AAO?$AAu?$AAt?$AA?5?$AAA?$AAs?$AAp?$AAe?$AAc?$AAt?$AA?5?$AAR?$AAa?$AAt?$AAi?$AAo?$AA?5?$AA?3?$AA?5?$AA?$CF?$AAd?$AA?5?$AA?$CF?$AAd?$AA?$AN?$AA?6?$AA?$AA@ 10011c28     shell.obj
 0001:00010c68       ??_C@_1EC@MLHHKCKD@?$AA?5?$AA?5?$AAT?$AAV?$AA?5?$AAO?$AAu?$AAt?$AA?5?$AAS?$AAc?$AAa?$AAl?$AAi?$AAn?$AAg?$AA?5?$AA?$CF?$AA?$CF?$AA?5?$AA?5?$AA?5?$AA?5?$AA?3?$AA?5?$AA?$CF?$AAd?$AA?5?$AA?$CF?$AAd?$AA?$AN?$AA?6@ 10011c68     shell.obj
 0001:00010cb0       ??_C@_1EA@NNPPEJMH@?$AA?5?$AA?5?$AAT?$AAV?$AA?5?$AAO?$AAu?$AAt?$AA?5?$AAO?$AAf?$AAf?$AAs?$AAe?$AAt?$AA?5?$AA?5?$AA?5?$AA?5?$AA?5?$AA?5?$AA?5?$AA?3?$AA?5?$AA?$CF?$AAd?$AA?5?$AA?$CF?$AAd?$AA?$AN?$AA?6?$AA?$AA@ 10011cb0     shell.obj
 0001:00010cf0       ??_C@_1BC@KIHFACHP@?$AAs?$AAe?$AAt?$AAt?$AAi?$AAn?$AAg?$AAs?$AA?$AA@ 10011cf0     shell.obj
 0001:00010d08       ??_C@_1FE@FMALAGNP@?$AAD?$AAV?$AAI?$AA?5?$AAm?$AAo?$AAd?$AAe?$AA?3?$AA?5?$AAc?$AAa?$AAn?$AAn?$AAo?$AAt?$AA?5?$AAs?$AAw?$AAi?$AAt?$AAc?$AAh?$AA?5?$AAb?$AAe?$AAt?$AAw?$AAe?$AAe?$AAn?$AA?5@ 10011d08     shell.obj
 0001:00010d60       ??_C@_1NK@FEDDMPP@?$AAp?$AAo?$AAw?$AAe?$AAr?$AAd?$AAo?$AAm?$AAa?$AAi?$AAn?$AA?5?$AA?$FL?$AAc?$AAo?$AAr?$AAe?$AA?1?$AAm?$AAp?$AAu?$AA?1?$AAi?$AAv?$AAa?$AA2?$AA?1?$AAn?$AAe?$AAo?$AAn?$AA?1@ 10011d60     shell.obj
 0001:00010e3c       ??_C@_15DEDJCAKD@?$AA?9?$AAr?$AA?$AA@ 10011e3c     shell.obj
 0001:00010e44       ??_C@_15KFLNHJNA@?$AAD?$AA4?$AA?$AA@ 10011e44     shell.obj
 0001:00010e4c       ??_C@_15DIGKEBGJ@?$AAD?$AA3?$AA?$AA@ 10011e4c     shell.obj
 0001:00010e54       ??_C@_15IANGCGAM@?$AAD?$AA2?$AA?$AA@ 10011e54     shell.obj
 0001:00010e5c       ??_C@_15JCGDIJOC@?$AAD?$AA1?$AA?$AA@ 10011e5c     shell.obj
 0001:00010e64       ??_C@_15CKNPOOIH@?$AAD?$AA0?$AA?$AA@ 10011e64     shell.obj
 0001:00010e6c       ??_C@_17KPICEHPI@?$AAp?$AAe?$AAr?$AA?$AA@ 10011e6c     shell.obj
 0001:00010e74       ??_C@_17DHIABHE@?$AAs?$AAg?$AAx?$AA?$AA@ 10011e74     shell.obj
 0001:00010e7c       ??_C@_1O@BEGNBBBO@?$AAc?$AAa?$AAm?$AAe?$AAr?$AAa?$AA?$AA@ 10011e7c     shell.obj
 0001:00010e8c       ??_C@_17DKEAPOMK@?$AAd?$AAs?$AAs?$AA?$AA@ 10011e8c     shell.obj
 0001:00010e94       ??_C@_1BA@EGAMAAJL@?$AAu?$AAs?$AAb?$AAh?$AAo?$AAs?$AAt?$AA?$AA@ 10011e94     shell.obj
 0001:00010ea4       ??_C@_19GJALDACK@?$AAn?$AAe?$AAo?$AAn?$AA?$AA@ 10011ea4     shell.obj
 0001:00010eb0       ??_C@_19MCDCMMPB@?$AAi?$AAv?$AAa?$AA2?$AA?$AA@ 10011eb0     shell.obj
 0001:00010ebc       ??_C@_17IGPAMIJD@?$AAm?$AAp?$AAu?$AA?$AA@ 10011ebc     shell.obj
 0001:00010ec4       ??_C@_19GFHMDBBG@?$AAc?$AAo?$AAr?$AAe?$AA?$AA@ 10011ec4     shell.obj
 0001:00010ed0       ??_C@_1KI@OJKMKFEE@?$AAh?$AAa?$AAl?$AAp?$AAr?$AAo?$AAf?$AAi?$AAl?$AAe?$AA?5?$AA?$FL?$AAd?$AAv?$AAf?$AAs?$AA?$HM?$AAw?$AAa?$AAk?$AAe?$AAu?$AAp?$AAa?$AAc?$AAc?$AAu?$AAr?$AAa?$AAc?$AAy?$AA?$HM@ 10011ed0     shell.obj
 0001:00010f78       ??_C@_1BI@PIJDNKGG@?$AA?5?$AA?5?$AAd?$AAv?$AAf?$AAs?$AA?5?$AA?9?$AA?5?$AA?$AN?$AA?6?$AA?$AA@ 10011f78     shell.obj
 0001:00010f90       ??_C@_1FE@NOLLBBPN@?$AA?5?$AA?5?$AA?5?$AA?5?$AA?9?$AAt?$AA?5?$AA?3?$AA?5?$AAT?$AAi?$AAm?$AAe?$AA?5?$AAi?$AAn?$AA?5?$AAm?$AAs?$AA?5?$AAb?$AAe?$AAt?$AAw?$AAe?$AAe?$AAn?$AA?5?$AAo?$AAp?$AAm?$AA?5@ 10011f90     shell.obj
 0001:00010fe8       ??_C@_1EI@LALODEPH@?$AA?5?$AA?5?$AA?5?$AA?5?$AA?9?$AAd?$AA?5?$AA?3?$AA?5?$AAT?$AAe?$AAs?$AAt?$AA?5?$AAd?$AAu?$AAr?$AAa?$AAt?$AAi?$AAo?$AAn?$AA?5?$AAi?$AAn?$AA?5?$AAs?$AAe?$AAc?$AAo?$AAn?$AAd@ 10011fe8     shell.obj
 0001:00011030       ??_C@_1EM@MPGMOBP@?$AA?5?$AA?5?$AA?5?$AA?5?$AA?9?$AAr?$AA?5?$AA?3?$AA?5?$AAI?$AAf?$AA?5?$AAe?$AAx?$AAi?$AAs?$AAt?$AAs?$AA?5?$AAt?$AAh?$AAe?$AAn?$AA?5?$AAr?$AAa?$AAn?$AAd?$AAo?$AAm?$AA?5?$AAm@ 10012030     shell.obj
 0001:00011080       ??_C@_1EO@BDPLDDHB@?$AA?5?$AA?5?$AA?5?$AA?5?$AA?9?$AAh?$AA?5?$AA?3?$AA?5?$AAH?$AAi?$AAg?$AAh?$AA?5?$AAo?$AAp?$AAm?$AA?5?$AA?$CI?$AA1?$AA?9?$AA5?$AA?$CJ?$AA?5?$AA?$CI?$AAd?$AAe?$AAf?$AAa?$AAu?$AAl?$AAt@ 10012080     shell.obj
 0001:000110d0       ??_C@_1EM@GAGECKM@?$AA?5?$AA?5?$AA?5?$AA?5?$AA?9?$AAl?$AA?5?$AA?3?$AA?5?$AAL?$AAo?$AAw?$AA?5?$AAo?$AAp?$AAm?$AA?5?$AA?$CI?$AA0?$AA?9?$AA4?$AA?$CJ?$AA?5?$AA?$CI?$AAd?$AAe?$AAf?$AAa?$AAu?$AAl?$AAt?$AA?3@ 100120d0     shell.obj
 0001:0001111c       ??_C@_1DA@JHIDENEE@?$AA?5?$AA?5?$AAi?$AAn?$AAt?$AAe?$AAr?$AAr?$AAu?$AAp?$AAt?$AAl?$AAa?$AAt?$AAe?$AAn?$AAc?$AAy?$AA?5?$AA?9?$AA?5?$AA?$AN?$AA?6?$AA?$AA@ 1001211c     shell.obj
 0001:00011150       ??_C@_1HG@DHONFCHJ@?$AA?5?$AA?5?$AA?5?$AA?5?$AA?9?$AAs?$AA?5?$AA?3?$AA?5?$AAn?$AAu?$AAm?$AAb?$AAe?$AAr?$AA?5?$AAo?$AAf?$AA?5?$AAt?$AAi?$AAm?$AAe?$AAs?$AA?5?$AAp?$AAe?$AAr?$AA?5?$AAs?$AAl?$AAe@ 10012150     shell.obj
 0001:000111c8       ??_C@_1CC@MAHEIKAK@?$AA?5?$AA?5?$AAs?$AAd?$AAr?$AAc?$AAs?$AAt?$AAa?$AAl?$AAl?$AA?5?$AA?9?$AA?5?$AA?$AN?$AA?6?$AA?$AA@ 100121c8     shell.obj
 0001:000111f0       ??_C@_1JA@MABKMCAE@?$AA?5?$AA?5?$AA?5?$AA?5?$AA?9?$AAs?$AA?5?$AA?3?$AA?5?$AAn?$AAu?$AAm?$AAb?$AAe?$AAr?$AA?5?$AAo?$AAf?$AA?5?$AAt?$AAr?$AAa?$AAn?$AAs?$AAi?$AAt?$AAi?$AAo?$AAn?$AAs?$AA?5?$AAb@ 100121f0     shell.obj
 0001:00011280       ??_C@_1CM@NMAMHCID@?$AA?5?$AA?5?$AAw?$AAa?$AAk?$AAe?$AAu?$AAp?$AAa?$AAc?$AAc?$AAu?$AAr?$AAa?$AAc?$AAy?$AA?5?$AA?9?$AA?5?$AA?$AN?$AA?6?$AA?$AA@ 10012280     shell.obj
 0001:000112b0       ??_C@_1FI@BKCKMCHJ@?$AA?5?$AA?5?$AA?5?$AA?5?$AA?9?$AAs?$AA?5?$AA?3?$AA?5?$AAn?$AAu?$AAm?$AAb?$AAe?$AAr?$AA?5?$AAo?$AAf?$AA?5?$AAs?$AAa?$AAm?$AAp?$AAl?$AAe?$AAs?$AA?5?$AA?$CI?$AAd?$AAe?$AAf?$AAa@ 100122b0     shell.obj
 0001:00011308       ??_C@_1EO@FHCEHNCI@?$AA?5?$AA?5?$AA?5?$AA?5?$AA?9?$AAt?$AA?5?$AA?3?$AA?5?$AAT?$AAi?$AAm?$AAe?$AA?5?$AAi?$AAn?$AA?5?$AAm?$AAs?$AA?5?$AAb?$AAe?$AAt?$AAw?$AAe?$AAe?$AAn?$AA?5?$AAc?$AAa?$AAp?$AAt@ 10012308     shell.obj
 0001:00011358       ??_C@_1BO@IIDAAKM@?$AAw?$AAa?$AAk?$AAe?$AAu?$AAp?$AAa?$AAc?$AAc?$AAu?$AAr?$AAa?$AAc?$AAy?$AA?$AA@ 10012358     shell.obj
 0001:00011378       ??_C@_1BE@GKKJAAAH@?$AAs?$AAd?$AAr?$AAc?$AAs?$AAt?$AAa?$AAl?$AAl?$AA?$AA@ 10012378     shell.obj
 0001:0001138c       ??_C@_19BINEIDCP@?$AAD?$AAV?$AAF?$AAS?$AA?$AA@ 1001238c     shell.obj
 0001:00011398       ??_C@_1DK@GEFICDEO@?$AA?5?$AA?5?$AAI?$AAn?$AAt?$AAe?$AAr?$AAr?$AAu?$AAp?$AAt?$AAL?$AAa?$AAt?$AAe?$AAn?$AAc?$AAy?$AA?5?$AA?$FL?$AAt?$AAi?$AAm?$AAe?$AA?$FN?$AA?5?$AA?$AN?$AA?6?$AA?$AA@ 10012398     shell.obj
 0001:000113d8       ??_C@_1HK@HBBICGPE@?$AA?5?$AA?5?$AA?5?$AA?5?$AAt?$AAi?$AAm?$AAe?$AA?5?$AA?9?$AA?5?$AAi?$AAn?$AA?5?$AAt?$AAi?$AAc?$AAk?$AAs?$AA?5?$AAo?$AAf?$AA?5?$AA3?$AA2?$AAk?$AAh?$AAz?$AA?5?$AAc?$AAl?$AAo@ 100123d8     shell.obj
 0001:00011458       ??_C@_1FO@JLAGDBOI@?$AAe?$AAx?$AAc?$AAe?$AAp?$AAt?$AAi?$AAo?$AAn?$AA?3?$AA?5?$AAp?$AAl?$AAe?$AAa?$AAs?$AAe?$AA?5?$AAc?$AAh?$AAe?$AAc?$AAk?$AA?5?$AAa?$AAd?$AAd?$AAr?$AAe?$AAs?$AAs?$AAe@ 10012458     shell.obj
 0001:000114b8       ??_C@_1EC@DKLEBGIE@?$AAN?$AAo?$AA?5?$AAa?$AAv?$AAa?$AAi?$AAl?$AAa?$AAb?$AAl?$AAe?$AA?5?$AAU?$AAs?$AAb?$AAF?$AAn?$AA?5?$AAc?$AAo?$AAn?$AAt?$AAr?$AAo?$AAl?$AAl?$AAe?$AAr?$AA?$CB?$AA?$AN?$AA?6@ 100124b8     shell.obj
 0001:00011500       ??_C@_1GC@MIJCAPDC@?$AA?$CF?$AA0?$AA8?$AAx?$AA?9?$AA?$CF?$AA0?$AA4?$AAx?$AA?9?$AA?$CF?$AA0?$AA4?$AAx?$AA?9?$AA?$CF?$AA0?$AA2?$AAx?$AA?$CF?$AA0?$AA2?$AAx?$AA?9?$AA?$CF?$AA0?$AA2?$AAx?$AA?$CF?$AA0?$AA2?$AAx@ 10012500     shell.obj
 0001:00011568       ??_C@_1EK@NLFENOND@?$AAE?$AA2?$AAB?$AAD?$AAC?$AA3?$AA7?$AA2?$AA?9?$AA5?$AA9?$AA8?$AAF?$AA?9?$AA4?$AA6?$AA1?$AA9?$AA?9?$AAB?$AAC?$AA5?$AA0?$AA?9?$AA5?$AA4?$AAB?$AA3?$AAF?$AA7?$AA8?$AA4@ 10012568     shell.obj
 0001:000115b4       ??_C@_1DI@JBNKGHMJ@?$AAI?$AAn?$AAv?$AAa?$AAl?$AAi?$AAd?$AA?5?$AAU?$AAS?$AAB?$AA?5?$AAF?$AAu?$AAn?$AAc?$AAt?$AAi?$AAo?$AAn?$AA?5?$AAt?$AAy?$AAp?$AAe?$AA?$AN?$AA?6?$AA?$AA@ 100125b4     shell.obj
 0001:000115ec       ??_C@_1CG@CMJBFBCL@?$AAm?$AAa?$AAs?$AAs?$AA_?$AAs?$AAt?$AAo?$AAr?$AAa?$AAg?$AAe?$AA_?$AAc?$AAl?$AAa?$AAs?$AAs?$AA?$AA@ 100125ec     shell.obj
 0001:00011614       ??_C@_1BG@ICHEEICH@?$AAD?$AAe?$AAv?$AAi?$AAc?$AAe?$AAN?$AAa?$AAm?$AAe?$AA?$AA@ 10012614     shell.obj
 0001:00011630       ??_C@_1GA@DPKADMMI@?$AA?2?$AAD?$AAr?$AAi?$AAv?$AAe?$AAr?$AAs?$AA?2?$AAU?$AAS?$AAB?$AA?2?$AAF?$AAu?$AAn?$AAc?$AAt?$AAi?$AAo?$AAn?$AAD?$AAr?$AAi?$AAv?$AAe?$AAr?$AAs?$AA?2?$AAM?$AAa?$AAs@ 10012630     shell.obj
 0001:00011690       ??_C@_1BA@LLBLLBDF@?$AAs?$AAt?$AAo?$AAr?$AAa?$AAg?$AAe?$AA?$AA@ 10012690     shell.obj
 0001:000116a0       ??_C@_1M@IICBPNOP@?$AAR?$AAN?$AAD?$AAI?$AAS?$AA?$AA@ 100126a0     shell.obj
 0001:000116ac       ??_C@_1M@IBKFONJJ@?$AAr?$AAn?$AAd?$AAi?$AAs?$AA?$AA@ 100126ac     shell.obj
 0001:000116b8       ??_C@_1BK@PKPBCFOP@?$AAs?$AAe?$AAr?$AAi?$AAa?$AAl?$AA_?$AAc?$AAl?$AAa?$AAs?$AAs?$AA?$AA@ 100126b8     shell.obj
 0001:000116d4       ??_C@_1O@IHPLHBMP@?$AAs?$AAe?$AAr?$AAi?$AAa?$AAl?$AA?$AA@ 100126d4     shell.obj
 0001:000116e4       ??_C@_1M@FHJLFHFE@?$AA?5?$AA?$CF?$AA0?$AA2?$AAx?$AA?$AA@ 100126e4     shell.obj
 0001:000116f0       ??_C@_1M@ECIEMIOB@?$AA?$CF?$AA0?$AA8?$AAx?$AA?3?$AA?$AA@ 100126f0     shell.obj
 0001:00011700       ??_C@_1HC@DDDDDFHI@?$AAF?$AAa?$AAi?$AAl?$AAe?$AAd?$AA?5?$AAm?$AAa?$AAp?$AA?5?$AAp?$AAh?$AAy?$AAs?$AAi?$AAc?$AAa?$AAl?$AA?5?$AAa?$AAd?$AAd?$AAr?$AAe?$AAs?$AAs?$AA?5?$AA0?$AAx?$AA?$CF?$AA0@ 10012700     shell.obj
 0001:00011774       ??_C@_1CG@JPIOLNGO@?$AAM?$AAi?$AAs?$AAs?$AAi?$AAn?$AAg?$AA?5?$AAa?$AAd?$AAd?$AAr?$AAe?$AAs?$AAs?$AA?$CB?$AA?$AN?$AA?6?$AA?$AA@ 10012774     shell.obj
 0001:0001179c       ??_C@_1M@IBMCLEEJ@?$AA?5?$AA?$CF?$AA0?$AA4?$AAx?$AA?$AA@ 1001279c     shell.obj
 0001:000117a8       ??_C@_1M@PGAAHEDC@?$AA?5?$AA?$CF?$AA0?$AA8?$AAx?$AA?$AA@ 100127a8     shell.obj
 0001:000117b4       ??_C@_1DE@PKDFBGFL@?$AAD?$AAo?$AAn?$AAe?$AA?0?$AA?5?$AAr?$AAe?$AAa?$AAd?$AA?5?$AAb?$AAa?$AAc?$AAk?$AA?3?$AA?5?$AA0?$AAx?$AA?$CF?$AA0?$AA2?$AAx?$AA?$AN?$AA?6?$AA?$AA@ 100127b4     shell.obj
 0001:000117e8       ??_C@_1EO@GIAPNCHJ@?$AAV?$AAa?$AAl?$AAu?$AAe?$AA?5?$AAm?$AAu?$AAs?$AAt?$AA?5?$AAb?$AAe?$AA?5?$AAi?$AAn?$AA?5?$AA0?$AAx?$AA0?$AA0?$AA?5?$AAt?$AAo?$AA?5?$AA0?$AAx?$AAF?$AAF?$AA?5?$AAr?$AAa@ 100127e8     shell.obj
 0001:00011838       ??_C@_1DM@IKLJCMLL@?$AAA?$AAd?$AAd?$AAr?$AAe?$AAs?$AAs?$AA?5?$AAa?$AAn?$AAd?$AA?5?$AAv?$AAa?$AAl?$AAu?$AAe?$AA?5?$AAr?$AAe?$AAq?$AAu?$AAi?$AAr?$AAe?$AAd?$AA?$CB?$AA?$AN?$AA?6?$AA?$AA@ 10012838     shell.obj
 0001:00011874       ??_C@_1DE@PHCLGGBM@?$AAD?$AAo?$AAn?$AAe?$AA?0?$AA?5?$AAr?$AAe?$AAa?$AAd?$AA?5?$AAb?$AAa?$AAc?$AAk?$AA?3?$AA?5?$AA0?$AAx?$AA?$CF?$AA0?$AA4?$AAx?$AA?$AN?$AA?6?$AA?$AA@ 10012874     shell.obj
 0001:000118a8       ??_C@_1FG@IJLJMBKL@?$AAV?$AAa?$AAl?$AAu?$AAe?$AA?5?$AAm?$AAu?$AAs?$AAt?$AA?5?$AAb?$AAe?$AA?5?$AAi?$AAn?$AA?5?$AA0?$AAx?$AA0?$AA0?$AA0?$AA0?$AA?5?$AAt?$AAo?$AA?5?$AA0?$AAx?$AAF?$AAF?$AAF@ 100128a8     shell.obj
 0001:00011900       ??_C@_1DE@ONBHIGJC@?$AAD?$AAo?$AAn?$AAe?$AA?0?$AA?5?$AAr?$AAe?$AAa?$AAd?$AA?5?$AAb?$AAa?$AAc?$AAk?$AA?3?$AA?5?$AA0?$AAx?$AA?$CF?$AA0?$AA8?$AAx?$AA?$AN?$AA?6?$AA?$AA@ 10012900     shell.obj
 0001:00011934       ??_C@_1M@BFCLNNKO@?$AA?$CF?$AA0?$AA4?$AAx?$AA?3?$AA?$AA@ 10012934     shell.obj
 0001:00011940       ??_C@_1DA@FONEHBKJ@?$AAR?$AAe?$AAa?$AAd?$AA?5?$AA?$CF?$AAd?$AA?5?$AAo?$AAf?$AA?5?$AA?$CF?$AAd?$AA?5?$AAb?$AAy?$AAt?$AAe?$AA?$CI?$AAs?$AA?$CJ?$AA?$AN?$AA?6?$AA?$AA@ 10012940     shell.obj
 0001:00011970       ??_C@_1DE@OGECCPKD@?$AAF?$AAa?$AAi?$AAl?$AAe?$AAd?$AA?5?$AAr?$AAe?$AAa?$AAd?$AAi?$AAn?$AAg?$AA?5?$AAv?$AAa?$AAl?$AAu?$AAe?$AA?$CI?$AAs?$AA?$CJ?$AA?$AN?$AA?6?$AA?$AA@ 10012970     shell.obj
 0001:000119a4       ??_C@_1DO@GAAEPIN@?$AAF?$AAa?$AAi?$AAl?$AAe?$AAd?$AA?5?$AAs?$AAe?$AAt?$AA?5?$AAI?$AA2?$AAC?$AA?5?$AAs?$AAl?$AAa?$AAv?$AAe?$AA?5?$AAa?$AAd?$AAd?$AAr?$AAe?$AAs?$AAs?$AA?$AN?$AA?6?$AA?$AA@ 100129a4     shell.obj
 0001:000119e8       ??_C@_1EA@HKKIJPFP@?$AAC?$AAa?$AAn?$AA?8?$AAt?$AA?5?$AAo?$AAp?$AAe?$AAn?$AA?5?$AA?$CF?$AAs?$AA?3?$AA?5?$AAd?$AAe?$AAv?$AAi?$AAc?$AAe?$AA?5?$AAd?$AAr?$AAi?$AAv?$AAe?$AAr?$AA?$CB?$AA?$AN?$AA?6?$AA?$AA@ 100129e8     shell.obj
 0001:00011a28       ??_C@_1EE@BJAAKHNB@?$AAR?$AAe?$AAa?$AAd?$AA?5?$AAc?$AAa?$AAn?$AA?8?$AAt?$AA?5?$AAc?$AAr?$AAo?$AAs?$AAs?$AA?5?$AAp?$AAa?$AAg?$AAe?$AA?5?$AAb?$AAo?$AAu?$AAn?$AAd?$AAa?$AAr?$AAy?$AA?$CB?$AA?$AN@ 10012a28     shell.obj
 0001:00011a70       ??_C@_1FC@KBHOHMIG@?$AAI?$AAn?$AAv?$AAa?$AAl?$AAi?$AAd?$AA?5?$AAi?$AA2?$AAc?$AA?5?$AAi?$AAd?$AAe?$AAn?$AAt?$AAi?$AAf?$AAi?$AAe?$AAr?$AA?0?$AA?5?$AAm?$AAu?$AAs?$AAt?$AA?5?$AAb?$AAe?$AA?5@ 10012a70     shell.obj
 0001:00011ac8       ??_C@_1GO@LHOMDBHA@?$AAM?$AAi?$AAs?$AAs?$AAi?$AAn?$AAg?$AA?5?$AAi?$AA2?$AAc?$AA?5?$AAi?$AAd?$AA?0?$AA?5?$AAa?$AAd?$AAd?$AAr?$AAe?$AAs?$AAs?$AA?0?$AA?5?$AAa?$AAn?$AAd?$AA?1?$AAo?$AAr?$AA?5@ 10012ac8     shell.obj
 0001:00011b38       ??_C@_1M@LCEEOPDH@?$AAI?$AA2?$AAC?$AA1?$AA?3?$AA?$AA@ 10012b38     shell.obj
 0001:00011b44       ??_C@_1M@DENAJNJJ@?$AAI?$AA2?$AAC?$AA2?$AA?3?$AA?$AA@ 10012b44     shell.obj
 0001:00011b50       ??_C@_1M@PPIMEODM@?$AAI?$AA2?$AAC?$AA3?$AA?3?$AA?$AA@ 10012b50     shell.obj
 0001:00011b60       ??_C@_1EG@DHJELMCG@?$AAD?$AAo?$AAn?$AAe?$AA?0?$AA?5?$AAr?$AAe?$AAa?$AAd?$AA?5?$AAb?$AAa?$AAc?$AAk?$AA?5?$AAv?$AAa?$AAl?$AAu?$AAe?$AA?5?$AAi?$AAs?$AA?3?$AA?5?$AA0?$AAx?$AA?$CF?$AA0?$AA2?$AAx@ 10012b60     shell.obj
 0001:00011ba8       ??_C@_1DE@GPLBIPCH@?$AAF?$AAa?$AAi?$AAl?$AAe?$AAd?$AA?5?$AAw?$AAr?$AAi?$AAt?$AAi?$AAn?$AAg?$AA?5?$AAv?$AAa?$AAl?$AAu?$AAe?$AA?$CI?$AAs?$AA?$CJ?$AA?$AN?$AA?6?$AA?$AA@ 10012ba8     shell.obj
 0001:00011be0       ??_C@_1FE@GOGOGMKM@?$AAI?$AAn?$AAv?$AAa?$AAl?$AAi?$AAd?$AA?5?$AAi?$AA2?$AAc?$AA?5?$AAi?$AAd?$AAe?$AAn?$AAt?$AAi?$AAf?$AAi?$AAe?$AAr?$AA?0?$AA?5?$AAm?$AAu?$AAs?$AAt?$AA?5?$AAb?$AAe?$AA?5@ 10012be0     shell.obj
 0001:00011c34       ??_C@_1DE@FPFOOKOM@?$AAu?$AAn?$AAd?$AAe?$AAf?$AAi?$AAn?$AAe?$AAd?$AA?5?$AAr?$AAe?$AAg?$AAi?$AAs?$AAt?$AAe?$AAr?$AAs?$AA?$CI?$AA?$CF?$AAs?$AA?$CJ?$AA?$AN?$AA?6?$AA?$AA@ 10012c34     shell.obj
 0001:00011c68       ??_C@_1BE@PEIGJIKD@?$AAp?$AAr?$AAc?$AAm?$AAs?$AAt?$AAa?$AAt?$AAe?$AA?$AA@ 10012c68     shell.obj
 0001:00011c7c       ??_C@_1M@INNMLBBF@?$AAe?$AAf?$AAu?$AAs?$AAe?$AA?$AA@ 10012c7c     shell.obj
 0001:00011c88       ??_C@_1BO@NJCMMHEC@?$AAc?$AAo?$AAn?$AAt?$AAe?$AAx?$AAt?$AAr?$AAe?$AAs?$AAt?$AAo?$AAr?$AAe?$AA?$AA@ 10012c88     shell.obj
 0001:00011ca8       ??_C@_19EDGFNGNG@?$AAp?$AAr?$AAc?$AAm?$AA?$AA@ 10012ca8     shell.obj
 0001:00011cb4       ??_C@_19BOOHFNHJ@?$AAg?$AAp?$AAm?$AAc?$AA?$AA@ 10012cb4     shell.obj
 0001:00011cc0       ??_C@_19DKNDPDHE@?$AAs?$AAd?$AAr?$AAc?$AA?$AA@ 10012cc0     shell.obj
 0001:00011ccc       ??_C@_13KHDBCPJB@?$AAs?$AA?$AA@ 10012ccc     profile.obj
 0001:00011cd0       ??_C@_13KPELGIFI@?$AAl?$AA?$AA@ 10012cd0     profile.obj
 0001:00011cd4       ??_C@_13CACJPPAP@?$AAh?$AA?$AA@ 10012cd4     profile.obj
 0001:00011cd8       ??_C@_13BPINEIPE@?$AAr?$AA?$AA@ 10012cd8     profile.obj
 0001:00011cdc       ??_C@_13GKPPEALH@?$AAd?$AA?$AA@ 10012cdc     profile.obj
 0001:00011ce0       ??_C@_13DKOGBHCI@?$AAt?$AA?$AA@ 10012ce0     profile.obj
 0001:00011ce4       ??_C@_1BI@EJBCNOLJ@?$AAE?$AAX?$AAT?$AA_?$AAS?$AAY?$AAS?$AA_?$AAC?$AAL?$AAK?$AA?$AA@ 10012ce4     utils.obj
 0001:00011cfc       ??_C@_1CA@KPICPENJ@?$AAD?$AAP?$AAL?$AAL?$AA5?$AA_?$AAC?$AAL?$AAK?$AAO?$AAU?$AAT?$AA_?$AAM?$AA2?$AA?$AA@ 10012cfc     utils.obj
 0001:00011d1c       ??_C@_1CE@JJENCAPI@?$AAD?$AAP?$AAL?$AAL?$AA4?$AA_?$AAC?$AAL?$AAK?$AAO?$AAU?$AAT?$AA_?$AAM?$AA6?$AAX?$AA2?$AA?$AA@ 10012d1c     utils.obj
 0001:00011d40       ??_C@_1CE@BHMCCHBL@?$AAD?$AAP?$AAL?$AAL?$AA4?$AA_?$AAC?$AAL?$AAK?$AAO?$AAU?$AAT?$AA_?$AAM?$AA5?$AAX?$AA2?$AA?$AA@ 10012d40     utils.obj
 0001:00011d64       ??_C@_1CE@NLGICHIF@?$AAD?$AAP?$AAL?$AAL?$AA4?$AA_?$AAC?$AAL?$AAK?$AAO?$AAU?$AAT?$AA_?$AAM?$AA4?$AAX?$AA2?$AA?$AA@ 10012d64     utils.obj
 0001:00011d88       ??_C@_1CE@NBKNCOJM@?$AAD?$AAP?$AAL?$AAL?$AA4?$AA_?$AAC?$AAL?$AAK?$AAO?$AAU?$AAT?$AA_?$AAM?$AA3?$AAX?$AA2?$AA?$AA@ 10012d88     utils.obj
 0001:00011dac       ??_C@_1CE@BNAHCOAC@?$AAD?$AAP?$AAL?$AAL?$AA4?$AA_?$AAC?$AAL?$AAK?$AAO?$AAU?$AAT?$AA_?$AAM?$AA2?$AAX?$AA2?$AA?$AA@ 10012dac     utils.obj
 0001:00011dd0       ??_C@_1CE@NFKENNMP@?$AAD?$AAP?$AAL?$AAL?$AA3?$AA_?$AAC?$AAL?$AAK?$AAO?$AAU?$AAT?$AA_?$AAM?$AA3?$AAX?$AA2?$AA?$AA@ 10012dd0     utils.obj
 0001:00011df4       ??_C@_1CE@BJAONNFB@?$AAD?$AAP?$AAL?$AAL?$AA3?$AA_?$AAC?$AAL?$AAK?$AAO?$AAU?$AAT?$AA_?$AAM?$AA2?$AAX?$AA2?$AA?$AA@ 10012df4     utils.obj
 0001:00011e18       ??_C@_1CA@BPLPKGIJ@?$AAD?$AAP?$AAL?$AAL?$AA3?$AA_?$AAC?$AAL?$AAK?$AAO?$AAU?$AAT?$AA_?$AAM?$AA2?$AA?$AA@ 10012e18     utils.obj
 0001:00011e38       ??_C@_1CA@JOJKMDKO@?$AAD?$AAP?$AAL?$AAL?$AA2?$AA_?$AAC?$AAL?$AAK?$AAO?$AAU?$AAT?$AA_?$AAM?$AA2?$AA?$AA@ 10012e38     utils.obj
 0001:00011e58       ??_C@_1CE@BKGFCHGL@?$AAD?$AAP?$AAL?$AAL?$AA1?$AA_?$AAC?$AAL?$AAK?$AAO?$AAU?$AAT?$AA_?$AAM?$AA2?$AAX?$AA2?$AA?$AA@ 10012e58     utils.obj
 0001:00011e7c       ??_C@_1BE@DMCNGCAK@?$AAE?$AAX?$AAT?$AA_?$AA3?$AA2?$AAK?$AAH?$AAZ?$AA?$AA@ 10012e7c     utils.obj
 0001:00011e90       ??_C@_1BC@DCGNMADO@?$AAD?$AAP?$AAL?$AAL?$AA_?$AAE?$AAX?$AAT?$AA?$AA@ 10012e90     utils.obj
 0001:00011ea4       ??_C@_1BC@NBGNPOOD@?$AAM?$AAM?$AAC?$AA_?$AAV?$AAD?$AAD?$AAS?$AA?$AA@ 10012ea4     utils.obj
 0001:00011eb8       ??_C@_1BA@GOCMOCGM@?$AAV?$AAD?$AAD?$AA_?$AAE?$AAX?$AAT?$AA?$AA@ 10012eb8     utils.obj
 0001:00011ec8       ??_C@_1M@KONPKJLO@?$AAU?$AAA?$AAR?$AAT?$AA4?$AA?$AA@ 10012ec8     utils.obj
 0001:00011ed4       ??_C@_1BC@FOIAEGEP@?$AAU?$AAS?$AAB?$AAH?$AAO?$AAS?$AAT?$AA3?$AA?$AA@ 10012ed4     utils.obj
 0001:00011ee8       ??_C@_1BC@OGDMCBCK@?$AAU?$AAS?$AAB?$AAH?$AAO?$AAS?$AAT?$AA2?$AA?$AA@ 10012ee8     utils.obj
 0001:00011efc       ??_C@_1BC@PEIJIOME@?$AAU?$AAS?$AAB?$AAH?$AAO?$AAS?$AAT?$AA1?$AA?$AA@ 10012efc     utils.obj
 0001:00011f10       ??_C@_17FNJAMJCK@?$AAS?$AAG?$AAX?$AA?$AA@ 10012f10     utils.obj
 0001:00011f18       ??_C@_15NIKFOEDF@?$AA3?$AAD?$AA?$AA@ 10012f18     utils.obj
 0001:00011f20       ??_C@_15BDPJDHJA@?$AA2?$AAD?$AA?$AA@ 10012f20     utils.obj
 0001:00011f28       ??_C@_17HGBNJJHK@?$AAD?$AAS?$AAP?$AA?$AA@ 10012f28     utils.obj
 0001:00011f30       ??_C@_19MACELEIB@?$AAC?$AAS?$AAI?$AA2?$AA?$AA@ 10012f30     utils.obj
 0001:00011f3c       ??_C@_1O@NAINHJLA@?$AAC?$AAA?$AAM?$AAE?$AAR?$AAA?$AA?$AA@ 10012f3c     utils.obj
 0001:00011f4c       ??_C@_1M@OHMMHPBM@?$AAT?$AAV?$AAO?$AAU?$AAT?$AA?$AA@ 10012f4c     utils.obj
 0001:00011f58       ??_C@_19IALFIOAF@?$AAD?$AAS?$AAS?$AA2?$AA?$AA@ 10012f58     utils.obj
 0001:00011f64       ??_C@_19JCAACBOL@?$AAD?$AAS?$AAS?$AA1?$AA?$AA@ 10012f64     utils.obj
 0001:00011f70       ??_C@_17GEKIDGJE@?$AAD?$AAS?$AAS?$AA?$AA@ 10012f70     utils.obj
 0001:00011f78       ??_C@_19JPOLNLAB@?$AAW?$AAD?$AAT?$AA3?$AA?$AA@ 10012f78     utils.obj
 0001:00011f84       ??_C@_1M@DDAIJBAH@?$AAU?$AAA?$AAR?$AAT?$AA3?$AA?$AA@ 10012f84     utils.obj
 0001:00011f90       ??_C@_1BC@FOCPBFHL@?$AAG?$AAP?$AAT?$AAI?$AAM?$AAE?$AAR?$AA9?$AA?$AA@ 10012f90     utils.obj
 0001:00011fa4       ??_C@_1BC@OGJDHCBO@?$AAG?$AAP?$AAT?$AAI?$AAM?$AAE?$AAR?$AA8?$AA?$AA@ 10012fa4     utils.obj
 0001:00011fb8       ??_C@_1BC@LOPAGCEI@?$AAG?$AAP?$AAT?$AAI?$AAM?$AAE?$AAR?$AA7?$AA?$AA@ 10012fb8     utils.obj
 0001:00011fcc       ??_C@_1BC@GEMAFCN@?$AAG?$AAP?$AAT?$AAI?$AAM?$AAE?$AAR?$AA6?$AA?$AA@ 10012fcc     utils.obj
 0001:00011fe0       ??_C@_1BC@BEPJKKMD@?$AAG?$AAP?$AAT?$AAI?$AAM?$AAE?$AAR?$AA5?$AA?$AA@ 10012fe0     utils.obj
 0001:00011ff4       ??_C@_1BC@KMEFMNKG@?$AAG?$AAP?$AAT?$AAI?$AAM?$AAE?$AAR?$AA4?$AA?$AA@ 10012ff4     utils.obj
 0001:00012008       ??_C@_1BC@DBJCPFBP@?$AAG?$AAP?$AAT?$AAI?$AAM?$AAE?$AAR?$AA3?$AA?$AA@ 10013008     utils.obj
 0001:0001201c       ??_C@_1BC@IJCOJCHK@?$AAG?$AAP?$AAT?$AAI?$AAM?$AAE?$AAR?$AA2?$AA?$AA@ 1001301c     utils.obj
 0001:00012030       ??_C@_1O@KNNLCACL@?$AAM?$AAC?$AAB?$AAS?$AAP?$AA4?$AA?$AA@ 10013030     utils.obj
 0001:00012040       ??_C@_1O@DAAMBIJC@?$AAM?$AAC?$AAB?$AAS?$AAP?$AA3?$AA?$AA@ 10013040     utils.obj
 0001:00012050       ??_C@_1O@IILAHPPH@?$AAM?$AAC?$AAB?$AAS?$AAP?$AA2?$AA?$AA@ 10013050     utils.obj
 0001:00012060       ??_C@_1M@GEFJCHKF@?$AAG?$AAP?$AAI?$AAO?$AA6?$AA?$AA@ 10013060     utils.obj
 0001:0001206c       ??_C@_1M@HGOMIIEL@?$AAG?$AAP?$AAI?$AAO?$AA5?$AA?$AA@ 1001306c     utils.obj
 0001:00012078       ??_C@_1M@MOFAOPCO@?$AAG?$AAP?$AAI?$AAO?$AA4?$AA?$AA@ 10013078     utils.obj
 0001:00012084       ??_C@_1M@FDIHNHJH@?$AAG?$AAP?$AAI?$AAO?$AA3?$AA?$AA@ 10013084     utils.obj
 0001:00012090       ??_C@_1M@OLDLLAPC@?$AAG?$AAP?$AAI?$AAO?$AA2?$AA?$AA@ 10013090     utils.obj
 0001:0001209c       ??_C@_19NJMIPFOE@?$AAU?$AAS?$AAI?$AAM?$AA?$AA@ 1001309c     utils.obj
 0001:000120a8       ??_C@_17FKBAENGF@?$AAS?$AAR?$AA2?$AA?$AA@ 100130a8     utils.obj
 0001:000120b0       ??_C@_17EIKFOCIL@?$AAS?$AAR?$AA1?$AA?$AA@ 100130b0     utils.obj
 0001:000120b8       ??_C@_1M@PJIOBPBM@?$AAG?$AAP?$AAI?$AAO?$AA1?$AA?$AA@ 100130b8     utils.obj
 0001:000120c4       ??_C@_19CHFHLMGE@?$AAW?$AAD?$AAT?$AA2?$AA?$AA@ 100130c4     utils.obj
 0001:000120d0       ??_C@_19DFOCBDIK@?$AAW?$AAD?$AAT?$AA1?$AA?$AA@ 100130d0     utils.obj
 0001:000120dc       ??_C@_1BA@GEGEJPDF@?$AA3?$AA2?$AAK?$AAS?$AAY?$AAN?$AAC?$AA?$AA@ 100130dc     utils.obj
 0001:000120ec       ??_C@_1BE@BHGHKILO@?$AAG?$AAP?$AAT?$AAI?$AAM?$AAE?$AAR?$AA1?$AA2?$AA?$AA@ 100130ec     utils.obj
 0001:00012100       ??_C@_1BC@JLJLDNJE@?$AAG?$AAP?$AAT?$AAI?$AAM?$AAE?$AAR?$AA1?$AA?$AA@ 10013100     utils.obj
 0001:00012114       ??_C@_1O@DDNPEFEM@?$AAE?$AAF?$AAU?$AAL?$AAS?$AAE?$AA?$AA@ 10013114     utils.obj
 0001:00012124       ??_C@_15JKLEPB@?$AAT?$AAS?$AA?$AA@ 10013124     utils.obj
 0001:0001212c       ??_C@_1O@CEHCKMAH@?$AAU?$AAS?$AAB?$AAT?$AAL?$AAL?$AA?$AA@ 1001312c     utils.obj
 0001:0001213c       ??_C@_17IJMMBGKH@?$AAP?$AAK?$AAA?$AA?$AA@ 1001313c     utils.obj
 0001:00012144       ??_C@_19MOPNNCAD@?$AAA?$AAE?$AAS?$AA1?$AA?$AA@ 10013144     utils.obj
 0001:00012150       ??_C@_17LOEPNPLF@?$AAR?$AAN?$AAG?$AA?$AA@ 10013150     utils.obj
 0001:00012158       ??_C@_1M@CACEHPIH@?$AAS?$AAH?$AAA?$AA1?$AA1?$AA?$AA@ 10013158     utils.obj
 0001:00012164       ??_C@_19CINEBJEH@?$AAD?$AAE?$AAS?$AA1?$AA?$AA@ 10013164     utils.obj
 0001:00012170       ??_C@_17EEMHEGLL@?$AAI?$AAC?$AAR?$AA?$AA@ 10013170     utils.obj
 0001:00012178       ??_C@_19NMEIHNON@?$AAA?$AAE?$AAS?$AA2?$AA?$AA@ 10013178     utils.obj
 0001:00012184       ??_C@_1M@DCJBNAGJ@?$AAS?$AAH?$AAA?$AA1?$AA2?$AA?$AA@ 10013184     utils.obj
 0001:00012190       ??_C@_19DKGBLGKJ@?$AAD?$AAE?$AAS?$AA2?$AA?$AA@ 10013190     utils.obj
 0001:0001219c       ??_C@_19KOPLODCI@?$AAM?$AAM?$AAC?$AA3?$AA?$AA@ 1001319c     utils.obj
 0001:000121a8       ??_C@_19BGEHIEEN@?$AAM?$AAM?$AAC?$AA2?$AA?$AA@ 100131a8     utils.obj
 0001:000121b4       ??_C@_19EPCCLKD@?$AAM?$AAM?$AAC?$AA1?$AA?$AA@ 100131b4     utils.obj
 0001:000121c0       ??_C@_1M@KPNCKAJE@?$AAM?$AAS?$AAP?$AAR?$AAO?$AA?$AA@ 100131c0     utils.obj
 0001:000121cc       ??_C@_17IHNNNJHD@?$AAH?$AAD?$AAQ?$AA?$AA@ 100131cc     utils.obj
 0001:000121d4       ??_C@_1O@MPOBJOEN@?$AAM?$AAC?$AAS?$AAP?$AAI?$AA4?$AA?$AA@ 100131d4     utils.obj
 0001:000121e4       ??_C@_1O@FCDGKGPE@?$AAM?$AAC?$AAS?$AAP?$AAI?$AA3?$AA?$AA@ 100131e4     utils.obj
 0001:000121f4       ??_C@_1O@OKIKMBJB@?$AAM?$AAC?$AAS?$AAP?$AAI?$AA2?$AA?$AA@ 100131f4     utils.obj
 0001:00012204       ??_C@_1O@PIDPGOHP@?$AAM?$AAC?$AAS?$AAP?$AAI?$AA1?$AA?$AA@ 10013204     utils.obj
 0001:00012214       ??_C@_19NCGAMAGO@?$AAI?$AA2?$AAC?$AA3?$AA?$AA@ 10013214     utils.obj
 0001:00012220       ??_C@_19GKNMKHAL@?$AAI?$AA2?$AAC?$AA2?$AA?$AA@ 10013220     utils.obj
 0001:0001222c       ??_C@_19HIGJAIOF@?$AAI?$AA2?$AAC?$AA1?$AA?$AA@ 1001322c     utils.obj
 0001:00012238       ??_C@_1M@ILLEPGGC@?$AAU?$AAA?$AAR?$AAT?$AA2?$AA?$AA@ 10013238     utils.obj
 0001:00012244       ??_C@_1M@JJABFJIM@?$AAU?$AAA?$AAR?$AAT?$AA1?$AA?$AA@ 10013244     utils.obj
 0001:00012250       ??_C@_1BE@FNCAHFA@?$AAG?$AAP?$AAT?$AAI?$AAM?$AAE?$AAR?$AA1?$AA1?$AA?$AA@ 10013250     utils.obj
 0001:00012264       ??_C@_1BE@LNGOGADF@?$AAG?$AAP?$AAT?$AAI?$AAM?$AAE?$AAR?$AA1?$AA0?$AA?$AA@ 10013264     utils.obj
 0001:00012278       ??_C@_1O@BFGHEHEO@?$AAM?$AAC?$AAB?$AAS?$AAP?$AA5?$AA?$AA@ 10013278     utils.obj
 0001:00012288       ??_C@_1O@JKAFNABJ@?$AAM?$AAC?$AAB?$AAS?$AAP?$AA1?$AA?$AA@ 10013288     utils.obj
 0001:00012298       ??_C@_1BE@NBCDMBC@?$AAM?$AAA?$AAI?$AAL?$AAB?$AAO?$AAX?$AAE?$AAS?$AA?$AA@ 10013298     utils.obj
 0001:000122ac       ??_C@_1BC@CHIKBDHE@?$AAO?$AAM?$AAA?$AAP?$AAC?$AAT?$AAR?$AAL?$AA?$AA@ 100132ac     utils.obj
 0001:000122c0       ??_C@_1BC@CGFOLLKI@?$AAH?$AAS?$AAO?$AAT?$AAG?$AAU?$AAS?$AAB?$AA?$AA@ 100132c0     utils.obj
 0001:000122d4       ??_C@_17GKMOIFEN@?$AAD?$AA2?$AAD?$AA?$AA@ 100132d4     utils.obj
 0001:000122dc       ??_C@_19CLGGDIPK@?$AAS?$AAD?$AAR?$AAC?$AA?$AA@ 100132dc     utils.obj
 0001:000122e8       ??_C@_17CNHCLJFN@?$AAS?$AAS?$AAI?$AA?$AA@ 100132e8     utils.obj
 0001:000122f0       ??_C@_1BA@HCPGGPNM@?$AAV?$AAD?$AAD?$AAA?$AAD?$AAA?$AAC?$AA?$AA@ 100132f0     utils.obj
 0001:00012300       ??_C@_1O@KJMHPDBC@?$AAV?$AAD?$AAD?$AAP?$AAL?$AAL?$AA?$AA@ 10013300     utils.obj
 0001:00012310       ??_C@_19EINJEFKH@?$AAV?$AAD?$AAD?$AAS?$AA?$AA@ 10013310     utils.obj
 0001:0001231c       ??_C@_19FGJEONHI@?$AAV?$AAD?$AAD?$AA5?$AA?$AA@ 1001331c     utils.obj
 0001:00012328       ??_C@_19OOCIIKBN@?$AAV?$AAD?$AAD?$AA4?$AA?$AA@ 10013328     utils.obj
 0001:00012334       ??_C@_19HDPPLCKE@?$AAV?$AAD?$AAD?$AA3?$AA?$AA@ 10013334     utils.obj
 0001:00012340       ??_C@_19MLEDNFMB@?$AAV?$AAD?$AAD?$AA2?$AA?$AA@ 10013340     utils.obj
 0001:0001234c       ??_C@_19NJPGHKCP@?$AAV?$AAD?$AAD?$AA1?$AA?$AA@ 1001334c     utils.obj
 0001:00012358       ??_C@_1M@MPAGCGHB@?$AAD?$AAP?$AAL?$AAL?$AA5?$AA?$AA@ 10013358     utils.obj
 0001:00012364       ??_C@_1M@HHLKEBBE@?$AAD?$AAP?$AAL?$AAL?$AA4?$AA?$AA@ 10013364     utils.obj
 0001:00012370       ??_C@_1M@OKGNHJKN@?$AAD?$AAP?$AAL?$AAL?$AA3?$AA?$AA@ 10013370     utils.obj
 0001:0001237c       ??_C@_1M@FCNBBOMI@?$AAD?$AAP?$AAL?$AAL?$AA2?$AA?$AA@ 1001337c     utils.obj
 0001:00012388       ??_C@_1M@EAGELBCG@?$AAD?$AAP?$AAL?$AAL?$AA1?$AA?$AA@ 10013388     utils.obj
 0001:00012394       ??_C@_1BC@KMFBFJEN@?$AAE?$AAx?$AAt?$AAe?$AAr?$AAn?$AAa?$AAl?$AA?$AA@ 10013394     utils.obj
 0001:000123a8       ??_C@_1BA@OOAHAPIC@?$AAI?$AAN?$AAT?$AA_?$AAO?$AAS?$AAC?$AA?$AA@ 100133a8     utils.obj
 0001:000123b8       ??_C@_1BC@FDLMCPLJ@?$AAE?$AAX?$AAT?$AA_?$AAM?$AAI?$AAS?$AAC?$AA?$AA@ 100133b8     utils.obj
 0001:000123cc       ??_C@_1BA@PNJBGGMK@?$AAE?$AAX?$AAT?$AA_?$AAA?$AAL?$AAT?$AA?$AA@ 100133cc     utils.obj
 0001:000123dc       ??_C@_1BI@NEMFOGAA@?$AAE?$AAX?$AAT?$AA_?$AAS?$AAY?$AAS?$AA_?$AAC?$AAL?$AAL?$AA?$AA@ 100133dc     utils.obj
 0001:000123f4       ??_C@_1CA@FCHLAMKM@?$AAD?$AAP?$AAL?$AAL?$AA5?$AA_?$AAC?$AAL?$AAL?$AAO?$AAU?$AAT?$AA_?$AAM?$AA2?$AA?$AA@ 100133f4     utils.obj
 0001:00012414       ??_C@_1CE@HIAJIGGL@?$AAD?$AAP?$AAL?$AAL?$AA4?$AA_?$AAC?$AAL?$AAL?$AAO?$AAU?$AAT?$AA_?$AAM?$AA6?$AAX?$AA2?$AA?$AA@ 10013414     utils.obj
 0001:00012438       ??_C@_1CE@PGIGIBII@?$AAD?$AAP?$AAL?$AAL?$AA4?$AA_?$AAC?$AAL?$AAL?$AAO?$AAU?$AAT?$AA_?$AAM?$AA5?$AAX?$AA2?$AA?$AA@ 10013438     utils.obj
 0001:0001245c       ??_C@_1CE@DKCMIBBG@?$AAD?$AAP?$AAL?$AAL?$AA4?$AA_?$AAC?$AAL?$AAL?$AAO?$AAU?$AAT?$AA_?$AAM?$AA4?$AAX?$AA2?$AA?$AA@ 1001345c     utils.obj
 0001:00012480       ??_C@_1CE@DAOJIIAP@?$AAD?$AAP?$AAL?$AAL?$AA4?$AA_?$AAC?$AAL?$AAL?$AAO?$AAU?$AAT?$AA_?$AAM?$AA3?$AAX?$AA2?$AA?$AA@ 10013480     utils.obj
 0001:000124a4       ??_C@_1CE@PMEDIIJB@?$AAD?$AAP?$AAL?$AAL?$AA4?$AA_?$AAC?$AAL?$AAL?$AAO?$AAU?$AAT?$AA_?$AAM?$AA2?$AAX?$AA2?$AA?$AA@ 100134a4     utils.obj
 0001:000124c8       ??_C@_1CE@DEOAHLFM@?$AAD?$AAP?$AAL?$AAL?$AA3?$AA_?$AAC?$AAL?$AAL?$AAO?$AAU?$AAT?$AA_?$AAM?$AA3?$AAX?$AA2?$AA?$AA@ 100134c8     utils.obj
 0001:000124ec       ??_C@_1CE@PIEKHLMC@?$AAD?$AAP?$AAL?$AAL?$AA3?$AA_?$AAC?$AAL?$AAL?$AAO?$AAU?$AAT?$AA_?$AAM?$AA2?$AAX?$AA2?$AA?$AA@ 100134ec     utils.obj
 0001:00012510       ??_C@_1CA@OCEGFOPM@?$AAD?$AAP?$AAL?$AAL?$AA3?$AA_?$AAC?$AAL?$AAL?$AAO?$AAU?$AAT?$AA_?$AAM?$AA2?$AA?$AA@ 10013510     utils.obj
 0001:00012530       ??_C@_1CA@GDGDDLNL@?$AAD?$AAP?$AAL?$AAL?$AA2?$AA_?$AAC?$AAL?$AAL?$AAO?$AAU?$AAT?$AA_?$AAM?$AA2?$AA?$AA@ 10013530     utils.obj
 0001:00012550       ??_C@_1CE@PLCBIBPI@?$AAD?$AAP?$AAL?$AAL?$AA1?$AA_?$AAC?$AAL?$AAL?$AAO?$AAU?$AAT?$AA_?$AAM?$AA2?$AAX?$AA2?$AA?$AA@ 10013550     utils.obj
 0001:00012574       ??_C@_1BE@DGOIGLBD@?$AAE?$AAX?$AAT?$AA_?$AA3?$AA2?$AAL?$AAH?$AAZ?$AA?$AA@ 10013574     utils.obj
 0001:00012588       ??_C@_1BG@JFIGLANK@?$AAG?$AAP?$AAT?$AA1?$AA1?$AA_?$AAF?$AAC?$AAL?$AAK?$AA?$AA@ 10013588     utils.obj
 0001:000125a0       ??_C@_1BG@IIJFBKM@?$AAG?$AAP?$AAT?$AA1?$AA0?$AA_?$AAF?$AAC?$AAL?$AAK?$AA?$AA@ 100135a0     utils.obj
 0001:000125b8       ??_C@_1CA@DEAGOIIH@?$AAG?$AAP?$AAT?$AA9?$AA_?$AAA?$AAL?$AAW?$AAO?$AAN?$AA_?$AAF?$AAC?$AAL?$AAK?$AA?$AA@ 100135b8     utils.obj
 0001:000125d8       ??_C@_1CA@NDBLEOBA@?$AAG?$AAP?$AAT?$AA8?$AA_?$AAA?$AAL?$AAW?$AAO?$AAN?$AA_?$AAF?$AAC?$AAL?$AAK?$AA?$AA@ 100135d8     utils.obj
 0001:000125f8       ??_C@_1CA@FOPBBIIK@?$AAG?$AAP?$AAT?$AA7?$AA_?$AAA?$AAL?$AAW?$AAO?$AAN?$AA_?$AAF?$AAC?$AAL?$AAK?$AA?$AA@ 100135f8     utils.obj
 0001:00012618       ??_C@_1CA@LJOMLOBN@?$AAG?$AAP?$AAT?$AA6?$AA_?$AAA?$AAL?$AAW?$AAO?$AAN?$AA_?$AAF?$AAC?$AAL?$AAK?$AA?$AA@ 10013618     utils.obj
 0001:00012638       ??_C@_1CA@ELLLFDOF@?$AAG?$AAP?$AAT?$AA5?$AA_?$AAA?$AAL?$AAW?$AAO?$AAN?$AA_?$AAF?$AAC?$AAL?$AAK?$AA?$AA@ 10013638     utils.obj
 0001:00012658       ??_C@_1CA@KMKGPFHC@?$AAG?$AAP?$AAT?$AA4?$AA_?$AAA?$AAL?$AAW?$AAO?$AAN?$AA_?$AAF?$AAC?$AAL?$AAK?$AA?$AA@ 10013658     utils.obj
 0001:00012678       ??_C@_1CA@HEGFIOFE@?$AAG?$AAP?$AAT?$AA3?$AA_?$AAA?$AAL?$AAW?$AAO?$AAN?$AA_?$AAF?$AAC?$AAL?$AAK?$AA?$AA@ 10013678     utils.obj
 0001:00012698       ??_C@_1CA@JDHICIMD@?$AAG?$AAP?$AAT?$AA2?$AA_?$AAA?$AAL?$AAW?$AAO?$AAN?$AA_?$AAF?$AAC?$AAL?$AAK?$AA?$AA@ 10013698     utils.obj
 0001:000126b8       ??_C@_1BE@NENPANBB@?$AAG?$AAP?$AAT?$AA1?$AA_?$AAF?$AAC?$AAL?$AAK?$AA?$AA@ 100136b8     utils.obj
 0001:000126cc       ??_C@_1BC@GPEPHIDD@?$AAS?$AAG?$AAX?$AA_?$AAF?$AAC?$AAL?$AAK?$AA?$AA@ 100136cc     utils.obj
 0001:000126e0       ??_C@_1BC@JCEHFJAM@?$AA5?$AA4?$AAM?$AA_?$AAF?$AAC?$AAL?$AAK?$AA?$AA@ 100136e0     utils.obj
 0001:000126f4       ??_C@_1BC@NKDHDMCF@?$AA4?$AA8?$AAM?$AA_?$AAF?$AAC?$AAL?$AAK?$AA?$AA@ 100136f4     utils.obj
 0001:00012708       ??_C@_1BC@JBOAFGF@?$AA9?$AA6?$AAM?$AA_?$AAF?$AAC?$AAL?$AAK?$AA?$AA@ 10013708     utils.obj
 0001:0001271c       ??_C@_1BE@DLKGFDHF@?$AAU?$AAS?$AAI?$AAM?$AA_?$AAF?$AAC?$AAL?$AAK?$AA?$AA@ 1001371c     utils.obj
 0001:00012730       ??_C@_1CE@IOEFPMHG@?$AAU?$AAS?$AAB?$AAH?$AAO?$AAS?$AAT?$AA_?$AA1?$AA2?$AA0?$AAM?$AA_?$AAF?$AAC?$AAL?$AAK?$AA?$AA@ 10013730     utils.obj
 0001:00012754       ??_C@_1BI@NMJEDNGN@?$AAD?$AAS?$AAS?$AA_?$AAT?$AAV?$AA_?$AAF?$AAC?$AAL?$AAK?$AA?$AA@ 10013754     utils.obj
 0001:0001276c       ??_C@_1BM@KDGOMIAG@?$AAC?$AAO?$AAR?$AAE?$AA_?$AA1?$AA2?$AAM?$AA_?$AAF?$AAC?$AAL?$AAK?$AA?$AA@ 1001376c     utils.obj
 0001:00012788       ??_C@_1BC@MKHOOHOO@?$AA1?$AA2?$AAM?$AA_?$AAF?$AAC?$AAL?$AAK?$AA?$AA@ 10013788     utils.obj
 0001:0001279c       ??_C@_1BK@FGPPKLNI@?$AAP?$AAE?$AAR?$AA_?$AA4?$AA8?$AAM?$AA_?$AAF?$AAC?$AAL?$AAK?$AA?$AA@ 1001379c     utils.obj
 0001:000127b8       ??_C@_1CC@IGGLCLAN@?$AAU?$AAS?$AAB?$AAH?$AAO?$AAS?$AAT?$AA_?$AA4?$AA8?$AAM?$AA_?$AAF?$AAC?$AAL?$AAK?$AA?$AA@ 100137b8     utils.obj
 0001:000127dc       ??_C@_1BM@LDCHBDMN@?$AAC?$AAO?$AAR?$AAE?$AA_?$AA4?$AA8?$AAM?$AA_?$AAF?$AAC?$AAL?$AAK?$AA?$AA@ 100137dc     utils.obj
 0001:000127f8       ??_C@_1BM@MOGGOFDJ@?$AAC?$AAS?$AAI?$AA2?$AA_?$AA9?$AA6?$AAM?$AA_?$AAF?$AAC?$AAL?$AAK?$AA?$AA@ 100137f8     utils.obj
 0001:00012814       ??_C@_1BK@NNGOBGJD@?$AAD?$AAS?$AAS?$AA_?$AA9?$AA6?$AAM?$AA_?$AAF?$AAC?$AAL?$AAK?$AA?$AA@ 10013814     utils.obj
 0001:00012830       ??_C@_1BM@GAAOCKIN@?$AAC?$AAO?$AAR?$AAE?$AA_?$AA9?$AA6?$AAM?$AA_?$AAF?$AAC?$AAL?$AAK?$AA?$AA@ 10013830     utils.obj
 0001:0001284c       ??_C@_1BK@OPKJANGO@?$AAS?$AAS?$AAI?$AA_?$AAS?$AAS?$AAT?$AA_?$AAF?$AAC?$AAL?$AAK?$AA?$AA@ 1001384c     utils.obj
 0001:00012868       ??_C@_1BK@BHGLEGNI@?$AAS?$AAS?$AAI?$AA_?$AAS?$AAS?$AAR?$AA_?$AAF?$AAC?$AAL?$AAK?$AA?$AA@ 10013868     utils.obj
 0001:00012884       ??_C@_1BG@PEENKINJ@?$AAS?$AAR?$AA_?$AAL?$AA4?$AA_?$AAI?$AAC?$AAL?$AAK?$AA?$AA@ 10013884     utils.obj
 0001:0001289c       ??_C@_1BI@HNBEEGFA@?$AAP?$AAE?$AAR?$AA_?$AAL?$AA4?$AA_?$AAI?$AAC?$AAL?$AAK?$AA?$AA@ 1001389c     utils.obj
 0001:000128b4       ??_C@_1CA@DPIDPCEG@?$AAU?$AAS?$AAB?$AAH?$AAO?$AAS?$AAT?$AA_?$AAL?$AA4?$AA_?$AAI?$AAC?$AAL?$AAK?$AA?$AA@ 100138b4     utils.obj
 0001:000128d4       ??_C@_1CA@FKEOFIIG@?$AAU?$AAS?$AAB?$AAH?$AAO?$AAS?$AAT?$AA_?$AAL?$AA3?$AA_?$AAI?$AAC?$AAL?$AAK?$AA?$AA@ 100138d4     utils.obj
 0001:000128f4       ??_C@_1BI@JKJJNIEB@?$AAC?$AAA?$AAM?$AA_?$AAL?$AA4?$AA_?$AAI?$AAC?$AAL?$AAK?$AA?$AA@ 100138f4     utils.obj
 0001:0001290c       ??_C@_1BI@PPFEHCIB@?$AAC?$AAA?$AAM?$AA_?$AAL?$AA3?$AA_?$AAI?$AAC?$AAL?$AAK?$AA?$AA@ 1001390c     utils.obj
 0001:00012924       ??_C@_1BI@NFBIIMLF@?$AAD?$AAS?$AAS?$AA_?$AAL?$AA4?$AA_?$AAI?$AAC?$AAL?$AAK?$AA?$AA@ 10013924     utils.obj
 0001:0001293c       ??_C@_1BI@LANFCGHF@?$AAD?$AAS?$AAS?$AA_?$AAL?$AA3?$AA_?$AAI?$AAC?$AAL?$AAK?$AA?$AA@ 1001393c     utils.obj
 0001:00012954       ??_C@_1BI@CMLIMPOE@?$AAS?$AAS?$AAI?$AA_?$AAL?$AA4?$AA_?$AAI?$AAC?$AAL?$AAK?$AA?$AA@ 10013954     utils.obj
 0001:0001296c       ??_C@_1BI@DJICCMAG@?$AAS?$AAG?$AAX?$AA_?$AAL?$AA3?$AA_?$AAI?$AAC?$AAL?$AAK?$AA?$AA@ 1001396c     utils.obj
 0001:00012984       ??_C@_1CE@CGIFCMMB@?$AAS?$AAE?$AAC?$AAU?$AAR?$AAI?$AAT?$AAY?$AA_?$AAL?$AA4?$AA_?$AAI?$AAC?$AAL?$AAK?$AA2?$AA?$AA@ 10013984     utils.obj
 0001:000129a8       ??_C@_1CE@DEDAIDCP@?$AAS?$AAE?$AAC?$AAU?$AAR?$AAI?$AAT?$AAY?$AA_?$AAL?$AA4?$AA_?$AAI?$AAC?$AAL?$AAK?$AA1?$AA?$AA@ 100139a8     utils.obj
 0001:000129cc       ??_C@_1CC@CHLKMKAK@?$AAS?$AAE?$AAC?$AAU?$AAR?$AAI?$AAT?$AAY?$AA_?$AAL?$AA3?$AA_?$AAI?$AAC?$AAL?$AAK?$AA?$AA@ 100139cc     utils.obj
 0001:000129f0       ??_C@_1BK@BGGGLFNK@?$AAC?$AAO?$AAR?$AAE?$AA_?$AAL?$AA4?$AA_?$AAI?$AAC?$AAL?$AAK?$AA?$AA@ 100139f0     utils.obj
 0001:00012a0c       ??_C@_1BK@HDKLBPBK@?$AAC?$AAO?$AAR?$AAE?$AA_?$AAL?$AA3?$AA_?$AAI?$AAC?$AAL?$AAK?$AA?$AA@ 10013a0c     utils.obj
 0001:00012a28       ??_C@_1BG@DPEBDLBF@?$AAD?$AAP?$AAL?$AAL?$AA2?$AA_?$AAF?$AAC?$AAL?$AAK?$AA?$AA@ 10013a28     utils.obj
 0001:00012a40       ??_C@_1BG@EDCABOMO@?$AAD?$AAP?$AAL?$AAL?$AA1?$AA_?$AAF?$AAC?$AAL?$AAK?$AA?$AA@ 10013a40     utils.obj
 0001:00012a58       ??_C@_1BA@BFCDOHDF@?$AAR?$AAM?$AA_?$AAI?$AAC?$AAL?$AAK?$AA?$AA@ 10013a58     utils.obj
 0001:00012a68       ??_C@_1BI@KOPHAGMM@?$AAU?$AAS?$AAB?$AA_?$AAL?$AA4?$AA_?$AAI?$AAC?$AAL?$AAK?$AA?$AA@ 10013a68     utils.obj
 0001:00012a80       ??_C@_1BA@JHLPGDAF@?$AAL?$AA4?$AA_?$AAI?$AAC?$AAL?$AAK?$AA?$AA@ 10013a80     utils.obj
 0001:00012a90       ??_C@_1BA@PCHCMJMF@?$AAL?$AA3?$AA_?$AAI?$AAC?$AAL?$AAK?$AA?$AA@ 10013a90     utils.obj
 0001:00012aa0       ??_C@_1BO@IOJFFNAE@?$AA9?$AA6?$AAM?$AA_?$AAA?$AAL?$AAW?$AAO?$AAN?$AA_?$AAF?$AAC?$AAL?$AAK?$AA?$AA@ 10013aa0     utils.obj
 0001:00012ac0       ??_C@_1BI@CCCDNKIA@?$AAC?$AAM?$AA_?$AA9?$AA6?$AAM?$AA_?$AAF?$AAC?$AAL?$AAK?$AA?$AA@ 10013ac0     utils.obj
 0001:00012ad8       ??_C@_1BO@GNLNKGOK@?$AAC?$AAO?$AAR?$AAE?$AA_?$AA1?$AA2?$AA0?$AAM?$AA_?$AAF?$AAC?$AAL?$AAK?$AA?$AA@ 10013ad8     utils.obj
 0001:00012af8       ??_C@_1CG@DGCMBKPD@?$AAP?$AAE?$AAR?$AA_?$AA3?$AA2?$AAK?$AA_?$AAA?$AAL?$AAW?$AAO?$AAN?$AA_?$AAF?$AAC?$AAL?$AAK?$AA?$AA@ 10013af8     utils.obj
 0001:00012b20       ??_C@_1BM@LKACNBLP@?$AAW?$AAK?$AAU?$AAP?$AA_?$AA3?$AA2?$AAK?$AA_?$AAF?$AAC?$AAL?$AAK?$AA?$AA@ 10013b20     utils.obj
 0001:00012b3c       ??_C@_1BM@FOHIOIDD@?$AAC?$AAO?$AAR?$AAE?$AA_?$AA3?$AA2?$AAK?$AA_?$AAF?$AAC?$AAL?$AAK?$AA?$AA@ 10013b3c     utils.obj
 0001:00012b58       ??_C@_1BK@FBDDKDFJ@?$AAW?$AAK?$AAU?$AAP?$AA_?$AAL?$AA4?$AA_?$AAI?$AAC?$AAL?$AAK?$AA?$AA@ 10013b58     utils.obj
 0001:00012b74       ??_C@_1CA@BKMPPGDH@?$AAD?$AAS?$AAS?$AA2?$AA_?$AAA?$AAL?$AAW?$AAO?$AAN?$AA_?$AAF?$AAC?$AAL?$AAK?$AA?$AA@ 10013b74     utils.obj
 0001:00012b94       ??_C@_1CC@BNDEKDFB@?$AAD?$AAP?$AAL?$AAL?$AA5?$AA_?$AAA?$AAL?$AAW?$AAO?$AAN?$AA_?$AAF?$AAC?$AAL?$AAK?$AA?$AA@ 10013b94     utils.obj
 0001:00012bb8       ??_C@_1CC@PKCJAFMG@?$AAD?$AAP?$AAL?$AAL?$AA4?$AA_?$AAA?$AAL?$AAW?$AAO?$AAN?$AA_?$AAF?$AAC?$AAL?$AAK?$AA?$AA@ 10013bb8     utils.obj
 0001:00012bdc       ??_C@_1CC@CCOKHOOA@?$AAD?$AAP?$AAL?$AAL?$AA3?$AA_?$AAA?$AAL?$AAW?$AAO?$AAN?$AA_?$AAF?$AAC?$AAL?$AAK?$AA?$AA@ 10013bdc     utils.obj
 0001:00012c00       ??_C@_1CC@MFPHNIHH@?$AAD?$AAP?$AAL?$AAL?$AA2?$AA_?$AAA?$AAL?$AAW?$AAO?$AAN?$AA_?$AAF?$AAC?$AAL?$AAK?$AA?$AA@ 10013c00     utils.obj
 0001:00012c24       ??_C@_1CC@DHKADFIP@?$AAD?$AAP?$AAL?$AAL?$AA1?$AA_?$AAA?$AAL?$AAW?$AAO?$AAN?$AA_?$AAF?$AAC?$AAL?$AAK?$AA?$AA@ 10013c24     utils.obj
 0001:00012c48       ??_C@_1BM@OANJENDM@?$AAS?$AAR?$AA_?$AAA?$AAL?$AAW?$AAO?$AAN?$AA_?$AAF?$AAC?$AAL?$AAK?$AA?$AA@ 10013c48     utils.obj
 0001:00012c64       ??_C@_1CC@OKPOAMDL@?$AAE?$AAF?$AAU?$AAS?$AAE?$AA_?$AAA?$AAL?$AAW?$AAO?$AAN?$AA_?$AAF?$AAC?$AAL?$AAK?$AA?$AA@ 10013c64     utils.obj
 0001:00012c88       ??_C@_1CC@LCLFNMGE@?$AAU?$AAS?$AAB?$AAH?$AAO?$AAS?$AAT?$AA_?$AAS?$AAA?$AAR?$AA_?$AAF?$AAC?$AAL?$AAK?$AA?$AA@ 10013c88     utils.obj
 0001:00012cac       ??_C@_1CA@GFMKNGEM@?$AAU?$AAS?$AAB?$AAT?$AAL?$AAL?$AA_?$AAS?$AAA?$AAR?$AA_?$AAF?$AAC?$AAL?$AAK?$AA?$AA@ 10013cac     utils.obj
 0001:00012ccc       ??_C@_1BG@HFLHAJLD@?$AAM?$AAC?$AAB?$AAS?$AAP?$AA_?$AAC?$AAL?$AAK?$AAS?$AA?$AA@ 10013ccc     utils.obj
 0001:00012ce4       ??_C@_1CA@FJDCLDEP@?$AAS?$AAE?$AAC?$AAU?$AAR?$AAE?$AA_?$AA3?$AA2?$AAK?$AA_?$AAF?$AAC?$AAL?$AAK?$AA?$AA@ 10013ce4     utils.obj
 0001:00012d04       ??_C@_1BG@NCDDCILL@?$AAS?$AAY?$AAS?$AA_?$AAA?$AAL?$AAT?$AAC?$AAL?$AAK?$AA?$AA@ 10013d04     utils.obj
 0001:00012d1c       ??_C@_1BA@OLOPHJPN@?$AAS?$AAY?$AAS?$AA_?$AAC?$AAL?$AAK?$AA?$AA@ 10013d1c     utils.obj
 0001:00012d2c       ??_C@_1BC@DHGIMHNL@?$AA3?$AA2?$AAK?$AA_?$AAF?$AAC?$AAL?$AAK?$AA?$AA@ 10013d2c     utils.obj
 0001:00012d40       ??_C@_1BE@FAMLILEH@?$AA1?$AA2?$AA0?$AAM?$AA_?$AAF?$AAC?$AAL?$AAK?$AA?$AA@ 10013d40     utils.obj
 0001:00012d54       ??_C@_1CG@HFAMOILM@?$AAE?$AAM?$AAU?$AAL?$AA_?$AAP?$AAE?$AAR?$AA_?$AAA?$AAL?$AAW?$AAO?$AAN?$AA_?$AAC?$AAL?$AAK?$AA?$AA@ 10013d54     utils.obj
 0001:00012d7c       ??_C@_1BC@IIMOEDJ@?$AAC?$AAA?$AAM?$AA_?$AAM?$AAC?$AAL?$AAK?$AA?$AA@ 10013d7c     utils.obj
 0001:00012d90       ??_C@_1CA@OIJIBLMP@?$AAD?$AAS?$AAS?$AA1?$AA_?$AAA?$AAL?$AAW?$AAO?$AAN?$AA_?$AAF?$AAC?$AAL?$AAK?$AA?$AA@ 10013d90     utils.obj
 0001:00012db0       ??_C@_1BO@DEHFKHHM@?$AAD?$AAP?$AAL?$AAL?$AA4?$AA_?$AAM?$AA3?$AAX?$AA2?$AA_?$AAC?$AAL?$AAK?$AA?$AA@ 10013db0     utils.obj
 0001:00012dd0       ??_C@_1CE@BJAPKP@?$AAP?$AAR?$AAM?$AA_?$AA9?$AA6?$AAM?$AA_?$AAA?$AAL?$AAW?$AAO?$AAN?$AA_?$AAC?$AAL?$AAK?$AA?$AA@ 10013dd0     utils.obj
 0001:00012df4       ??_C@_1CI@IFDBBING@?$AAE?$AAM?$AAU?$AAL?$AA_?$AAC?$AAO?$AAR?$AAE?$AA_?$AAA?$AAL?$AAW?$AAO?$AAN?$AA_?$AAC?$AAL?$AAK?$AA?$AA@ 10013df4     utils.obj
 0001:00012e1c       ??_C@_1BG@BPJIAMGI@?$AAC?$AAO?$AAR?$AAE?$AAX?$AA2?$AA_?$AAC?$AAL?$AAK?$AA?$AA@ 10013e1c     utils.obj
 0001:00012e34       ??_C@_1BC@NNFMMOEA@?$AAC?$AAO?$AAR?$AAE?$AA_?$AAC?$AAL?$AAK?$AA?$AA@ 10013e34     utils.obj
 0001:00012e48       ??_C@_1BK@MLNJDMKG@?$AAD?$AAP?$AAL?$AAL?$AA2?$AA_?$AAM?$AA2?$AA_?$AAC?$AAL?$AAK?$AA?$AA@ 10013e48     utils.obj
 0001:00012e64       ??_C@_1BO@NBJEMBCN@?$AAD?$AAP?$AAL?$AAL?$AA1?$AA_?$AAM?$AA2?$AAX?$AA2?$AA_?$AAC?$AAL?$AAK?$AA?$AA@ 10013e64     utils.obj
 0001:00012fb8       I2CDefaultI2CTimeout       10013fb8     bspcfg:bspcfg.obj
 0001:00012fc0       g_BSP_icL1Level            10013fc0     bspcfg:bspcfg.obj
 0001:00013168       ?GetBusHandle@@YAPAXXZ     10014168 f   shell.obj
 0001:000131cc       ?GetProxyDriverHandle@@YAPAXXZ 100141cc f   shell.obj
 0001:00013230       ?MmMapIoSpace_Proxy@@YAPAXT_LARGE_INTEGER@@KH@Z 10014230 f   shell.obj
 0001:00013730       ?ChangeClient@@YAKPAXPBG@Z 10014730 f   shell.obj
 0001:00013acc       ?DumpCurrentFrequencies@@YAKKQAPAGP6AXPAGZZ@Z 10014acc f   shell.obj
 0001:000193b0       ?DisplayClockInfo@@YAXIIP6AXPAGZZ@Z 1001a3b0 f   shell.obj
 0001:000194f0       ?Device_Enable@@YAXIHP6AXPAGZZ@Z 1001a4f0 f   shell.obj
 0001:00019604       ?Device_Status@@YAXIP6AXPAGZZ@Z 1001a604 f   shell.obj
 0001:0001a5fc       ?ParseCommand@@YAHPAG0P6AX0ZZP6APAG0H@Z@Z 1001b5fc f   shell.obj
 0001:0001a730       ?GetUfnController@@YAPAXXZ 1001b730 f   shell.obj
 0001:0001a894       ?SetUSBFn@@YAHKQAPAGP6AXPAGZZ@Z 1001b894 f   shell.obj
 0001:0001ba0c       ?get_lock@?$singleton@V?$free_list@$0GE@Vallocator@ce@@@ce@@$03V?$static_allocator@V?$free_list@$0GE@Vallocator@ce@@@ce@@$03@2@@ce@@KAAAVcritical_section@2@XZ 1001ca0c f i shell.obj
 0001:0001ba64       ?ProfileInterruptLatency@@YAHKQAPAGP6AXPAGZZ@Z 1001ca64 f   profile.obj
 0001:0001bac8       ?ProfileDvfs@@YAHKQAPAGP6AXPAGZZ@Z 1001cac8 f   profile.obj
 0001:0001bbf8       ?ProfileSdrcStall@@YAHKQAPAGP6AXPAGZZ@Z 1001cbf8 f   profile.obj
 0001:0001bc5c       ?ProfileWakeupAccuracy@@YAHKQAPAGP6AXPAGZZ@Z 1001cc5c f   profile.obj
 0001:0001bce4       ?IsOptionChar@@YAHG@Z      1001cce4 f   utils.obj
 0001:0001bd34       ?GetOptionFlag@@YAHPAHQAPAGPBG@Z 1001cd34 f   utils.obj
 0001:0001bde8       ?GetOptionString@@YAPAGPAHQAPAGPBG@Z 1001cde8 f   utils.obj
 0001:0001beec       ?GetOptionLong@@YAJPAHQAPAGJPBG@Z 1001ceec f   utils.obj
 0001:0001bfc8       ?CommandLineToArgs@@YAXQAGPAHQAPAG@Z 1001cfc8 f   utils.obj
 0001:0001c0c0       ?FindClockIdByName@@YAIPBG@Z 1001d0c0 f   utils.obj
 0001:0001c11c       ?FindDeviceIdByName@@YAIPBG@Z 1001d11c f   utils.obj
 0001:0001c180       ?FindDeviceNameById@@YAPBGI@Z 1001d180 f   utils.obj
 0001:0001c1e0       ?FindClockNameById@@YAPBGII@Z 1001d1e0 f   utils.obj
 0001:0001c1f8       IsDVIMode                  1001d1f8 f   ceddk:CEDDK.dll
 0001:0001c208       __GetUserKData             1001d208 f   coredll:COREDLL.dll
 0001:0001c218       InitializeCriticalSection  1001d218 f   coredll:COREDLL.dll
 0001:0001c228       DeleteCriticalSection      1001d228 f   coredll:COREDLL.dll
 0001:0001c238       CreateFileW                1001d238 f   coredll:COREDLL.dll
 0001:0001c248       VirtualFree                1001d248 f   coredll:COREDLL.dll
 0001:0001c258       DeviceIoControl            1001d258 f   coredll:COREDLL.dll
 0001:0001c268       VirtualAlloc               1001d268 f   coredll:COREDLL.dll
 0001:0001c278       KernelIoControl            1001d278 f   coredll:COREDLL.dll
 0001:0001c288       GetLastError               1001d288 f   coredll:COREDLL.dll
 0001:0001c298       NKDbgPrintfW               1001d298 f   coredll:COREDLL.dll
 0001:0001c2a8       TouchCalibrate             1001d2a8 f   coredll:COREDLL.dll
 0001:0001c2b8       WriteFile                  1001d2b8 f   coredll:COREDLL.dll
 0001:0001c2c8       SetFilePointer             1001d2c8 f   coredll:COREDLL.dll
 0001:0001c2d8       ReadFile                   1001d2d8 f   coredll:COREDLL.dll
 0001:0001c2e8       StringCchPrintfW           1001d2e8 f   coredll:COREDLL.dll
 0001:0001c2f8       GetTickCount               1001d2f8 f   coredll:COREDLL.dll
 0001:0001c308       GetIdleTime                1001d308 f   coredll:COREDLL.dll
 0001:0001c318       ExtEscape                  1001d318 f   coredll:COREDLL.dll
 0001:0001c328       GetDC                      1001d328 f   coredll:COREDLL.dll
 0001:0001c338       ReleaseDC                  1001d338 f   coredll:COREDLL.dll
 0001:0001c348       CloseHandle                1001d348 f   coredll:COREDLL.dll
 0001:0001c358       FindFirstDevice            1001d358 f   coredll:COREDLL.dll
 0001:0001c368       RegCloseKey                1001d368 f   coredll:COREDLL.dll
 0001:0001c378       RegSetValueExW             1001d378 f   coredll:COREDLL.dll
 0001:0001c388       RegCreateKeyExW            1001d388 f   coredll:COREDLL.dll
 0001:0001c398       ChangeDisplaySettingsEx    1001d398 f   coredll:COREDLL.dll
 0001:0001c3a8       DllMain                    1001d3a8 f   corelib0:dllmain.obj
 0001:0001c4c4       _DllMainCRTStartup         1001d4c4 f   corelib0:pegdmain.obj
 0001:0001c4f4       __GSHandlerCheckCommon     1001d4f4 f   corelib0:gshandler.obj
 0001:0001c530       __GSHandlerCheck           1001d530 f   corelib0:gshandler.obj
 0001:0001c554       __security_init_cookie     1001d554 f   corelib0:seccinit.obj
 0001:0001c5b0       __security_check_cookie    1001d5b0 f   corelib0:armsecgs.obj
 0001:0001c5c4       __gsfailure                1001d5c4 f   corelib0:armsecgs.obj
 0001:0001c610       _onexit                    1001d610 f   corelib0:onexit.obj
 0001:0001c798       atexit                     1001d798 f   corelib0:onexit.obj
 0001:0001c8b4       _cexit                     1001d8b4 f   corelib0:cexit.obj
 0001:0001c8d0       _initterm                  1001d8d0 f   corelib0:crt0dat.obj
 0001:0001c904       _cinit                     1001d904 f   corelib0:crt0dat.obj
 0001:0001c938       wcscmp                     1001d938 f   corelib1:COREDLL.dll
 0001:0001c948       _wcsicmp                   1001d948 f   corelib1:COREDLL.dll
 0001:0001c958       memset                     1001d958 f   corelib1:COREDLL.dll
 0001:0001c968       wcscpy                     1001d968 f   corelib1:COREDLL.dll
 0001:0001c978       __utos                     1001d978 f   corelib1:COREDLL.dll
 0001:0001c988       __divs                     1001d988 f   corelib1:COREDLL.dll
 0001:0001c998       __subs                     1001d998 f   corelib1:COREDLL.dll
 0001:0001c9a8       __muls                     1001d9a8 f   corelib1:COREDLL.dll
 0001:0001c9b8       __stod                     1001d9b8 f   corelib1:COREDLL.dll
 0001:0001c9c8       __adds                     1001d9c8 f   corelib1:COREDLL.dll
 0001:0001c9d8       _wtol                      1001d9d8 f   corelib1:COREDLL.dll
 0001:0001c9e8       __itos                     1001d9e8 f   corelib1:COREDLL.dll
 0001:0001c9f8       __C_specific_handler       1001d9f8 f   corelib1:COREDLL.dll
 0001:0001ca08       swscanf                    1001da08 f   corelib1:COREDLL.dll
 0001:0001ca18       wcslen                     1001da18 f   corelib1:COREDLL.dll
 0001:0001ca28       memcpy                     1001da28 f   corelib1:COREDLL.dll
 0001:0001ca38       _wcsnicmp                  1001da38 f   corelib1:COREDLL.dll
 0001:0001ca48       iswctype                   1001da48 f   corelib1:COREDLL.dll
 0001:0001ca58       _XcptFilter                1001da58 f   corelib1:COREDLL.dll
 0001:0001ca68       __security_gen_cookie2     1001da68 f   corelib1:COREDLL.dll
 0001:0001ca78       __report_gsfailure         1001da78 f   corelib1:COREDLL.dll
 0001:0001ca88       free                       1001da88 f   corelib1:COREDLL.dll
 0001:0001ca98       malloc                     1001da98 f   corelib1:COREDLL.dll
 0001:0001caa8       realloc                    1001daa8 f   corelib1:COREDLL.dll
 0001:0001cab8       _msize                     1001dab8 f   corelib1:COREDLL.dll
 0001:0001cac8       LeaveCriticalSection       1001dac8 f   coredll:COREDLL.dll
 0001:0001cad8       EnterCriticalSection       1001dad8 f   coredll:COREDLL.dll
 0001:0001cae8       DisableThreadLibraryCalls  1001dae8 f   coredll:COREDLL.dll
 0001:0001caf8       InterlockedCompareExchange 1001daf8 f   coredll:COREDLL.dll
 0001:0001cb08       InterlockedExchange        1001db08 f   coredll:COREDLL.dll
 0001:0001cb18       TerminateProcess           1001db18 f   coredll:COREDLL.dll
 0001:0001cb38       ??__Fcs@?1??get_lock@?$singleton@V?$free_list@$0GE@Vallocator@ce@@@ce@@$03V?$static_allocator@V?$free_list@$0GE@Vallocator@ce@@@ce@@$03@2@@ce@@KAAAVcritical_section@2@XZ@YAXXZ 1001db38 f i shell.obj
 0001:0001cbe0       __IMPORT_DESCRIPTOR_CEDDK  1001dbe0     ceddk:CEDDK.dll
 0001:0001cbf4       __IMPORT_DESCRIPTOR_COREDLL 1001dbf4     coredll:COREDLL.dll
 0001:0001cc08       __NULL_IMPORT_DESCRIPTOR   1001dc08     ceddk:CEDDK.dll
 0002:00000000       __imp_IsDVIMode            1001e000     ceddk:CEDDK.dll
 0002:00000004       \177CEDDK_NULL_THUNK_DATA  1001e004     ceddk:CEDDK.dll
 0002:00000008       __imp_DeviceIoControl      1001e008     coredll:COREDLL.dll
 0002:0000000c       __imp_VirtualAlloc         1001e00c     coredll:COREDLL.dll
 0002:00000010       __imp_KernelIoControl      1001e010     coredll:COREDLL.dll
 0002:00000014       __imp_GetLastError         1001e014     coredll:COREDLL.dll
 0002:00000018       __imp_NKDbgPrintfW         1001e018     coredll:COREDLL.dll
 0002:0000001c       __imp_TouchCalibrate       1001e01c     coredll:COREDLL.dll
 0002:00000020       __imp_WriteFile            1001e020     coredll:COREDLL.dll
 0002:00000024       __imp_SetFilePointer       1001e024     coredll:COREDLL.dll
 0002:00000028       __imp_ReadFile             1001e028     coredll:COREDLL.dll
 0002:0000002c       __imp_StringCchPrintfW     1001e02c     coredll:COREDLL.dll
 0002:00000030       __imp_GetTickCount         1001e030     coredll:COREDLL.dll
 0002:00000034       __imp_GetIdleTime          1001e034     coredll:COREDLL.dll
 0002:00000038       __imp_ExtEscape            1001e038     coredll:COREDLL.dll
 0002:0000003c       __imp_GetDC                1001e03c     coredll:COREDLL.dll
 0002:00000040       __imp_ReleaseDC            1001e040     coredll:COREDLL.dll
 0002:00000044       __imp_CloseHandle          1001e044     coredll:COREDLL.dll
 0002:00000048       __imp_FindFirstDevice      1001e048     coredll:COREDLL.dll
 0002:0000004c       __imp_RegCloseKey          1001e04c     coredll:COREDLL.dll
 0002:00000050       __imp_RegSetValueExW       1001e050     coredll:COREDLL.dll
 0002:00000054       __imp_RegCreateKeyExW      1001e054     coredll:COREDLL.dll
 0002:00000058       __imp_ChangeDisplaySettingsEx 1001e058     coredll:COREDLL.dll
 0002:0000005c       __imp_VirtualFree          1001e05c     coredll:COREDLL.dll
 0002:00000060       __imp__wcsicmp             1001e060     corelib1:COREDLL.dll
 0002:00000064       __imp_memset               1001e064     corelib1:COREDLL.dll
 0002:00000068       __imp_wcscpy               1001e068     corelib1:COREDLL.dll
 0002:0000006c       __imp___utos               1001e06c     corelib1:COREDLL.dll
 0002:00000070       __imp___divs               1001e070     corelib1:COREDLL.dll
 0002:00000074       __imp___subs               1001e074     corelib1:COREDLL.dll
 0002:00000078       __imp___muls               1001e078     corelib1:COREDLL.dll
 0002:0000007c       __imp___stod               1001e07c     corelib1:COREDLL.dll
 0002:00000080       __imp___adds               1001e080     corelib1:COREDLL.dll
 0002:00000084       __imp__wtol                1001e084     corelib1:COREDLL.dll
 0002:00000088       __imp___itos               1001e088     corelib1:COREDLL.dll
 0002:0000008c       __imp___C_specific_handler 1001e08c     corelib1:COREDLL.dll
 0002:00000090       __imp_swscanf              1001e090     corelib1:COREDLL.dll
 0002:00000094       __imp_wcslen               1001e094     corelib1:COREDLL.dll
 0002:00000098       __imp_memcpy               1001e098     corelib1:COREDLL.dll
 0002:0000009c       __imp__wcsnicmp            1001e09c     corelib1:COREDLL.dll
 0002:000000a0       __imp_iswctype             1001e0a0     corelib1:COREDLL.dll
 0002:000000a4       __imp__XcptFilter          1001e0a4     corelib1:COREDLL.dll
 0002:000000a8       __imp___security_gen_cookie2 1001e0a8     corelib1:COREDLL.dll
 0002:000000ac       __imp___report_gsfailure   1001e0ac     corelib1:COREDLL.dll
 0002:000000b0       __imp_free                 1001e0b0     corelib1:COREDLL.dll
 0002:000000b4       __imp_malloc               1001e0b4     corelib1:COREDLL.dll
 0002:000000b8       __imp_realloc              1001e0b8     corelib1:COREDLL.dll
 0002:000000bc       __imp__msize               1001e0bc     corelib1:COREDLL.dll
 0002:000000c0       __imp_CreateFileW          1001e0c0     coredll:COREDLL.dll
 0002:000000c4       __imp_DeleteCriticalSection 1001e0c4     coredll:COREDLL.dll
 0002:000000c8       __imp_InitializeCriticalSection 1001e0c8     coredll:COREDLL.dll
 0002:000000cc       __imp___GetUserKData       1001e0cc     coredll:COREDLL.dll
 0002:000000d0       __imp_wcscmp               1001e0d0     corelib1:COREDLL.dll
 0002:000000d4       __imp_LeaveCriticalSection 1001e0d4     coredll:COREDLL.dll
 0002:000000d8       __imp_EnterCriticalSection 1001e0d8     coredll:COREDLL.dll
 0002:000000dc       __imp_DisableThreadLibraryCalls 1001e0dc     coredll:COREDLL.dll
 0002:000000e0       __imp_InterlockedCompareExchange 1001e0e0     coredll:COREDLL.dll
 0002:000000e4       __imp_InterlockedExchange  1001e0e4     coredll:COREDLL.dll
 0002:000000e8       __imp_TerminateProcess     1001e0e8     coredll:COREDLL.dll
 0002:000000ec       \177COREDLL_NULL_THUNK_DATA 1001e0ec     coredll:COREDLL.dll
 0002:000000f0       ?CONTROL_PADCONF_ETK_CLK@@3UOBSERVE_ETK@@A 1001e0f0     shell.obj
 0002:000000fc       ?CONTROL_PADCONF_ETK_CTL@@3UOBSERVE_ETK@@A 1001e0fc     shell.obj
 0002:00000108       ?CONTROL_PADCONF_ETK_D0@@3UOBSERVE_ETK@@A 1001e108     shell.obj
 0002:00000114       ?CONTROL_PADCONF_ETK_D1@@3UOBSERVE_ETK@@A 1001e114     shell.obj
 0002:00000120       ?CONTROL_PADCONF_ETK_D2@@3UOBSERVE_ETK@@A 1001e120     shell.obj
 0002:0000012c       ?CONTROL_PADCONF_ETK_D3@@3UOBSERVE_ETK@@A 1001e12c     shell.obj
 0002:00000138       ?CONTROL_PADCONF_ETK_D4@@3UOBSERVE_ETK@@A 1001e138     shell.obj
 0002:00000144       ?CONTROL_PADCONF_ETK_D5@@3UOBSERVE_ETK@@A 1001e144     shell.obj
 0002:00000150       ?CONTROL_PADCONF_ETK_D6@@3UOBSERVE_ETK@@A 1001e150     shell.obj
 0002:0000015c       ?CONTROL_PADCONF_ETK_D7@@3UOBSERVE_ETK@@A 1001e15c     shell.obj
 0002:00000168       ?CONTROL_PADCONF_ETK_D8@@3UOBSERVE_ETK@@A 1001e168     shell.obj
 0002:00000174       ?CONTROL_PADCONF_ETK_D9@@3UOBSERVE_ETK@@A 1001e174     shell.obj
 0002:00000180       ?CONTROL_PADCONF_ETK_D10@@3UOBSERVE_ETK@@A 1001e180     shell.obj
 0002:0000018c       ?CONTROL_PADCONF_ETK_D11@@3UOBSERVE_ETK@@A 1001e18c     shell.obj
 0002:00000198       ?CONTROL_PADCONF_ETK_D12@@3UOBSERVE_ETK@@A 1001e198     shell.obj
 0002:000001a4       ?CONTROL_PADCONF_ETK_D13@@3UOBSERVE_ETK@@A 1001e1a4     shell.obj
 0002:000001b0       ?CONTROL_PADCONF_ETK_D14@@3UOBSERVE_ETK@@A 1001e1b0     shell.obj
 0002:000001bc       ?CONTROL_PADCONF_ETK_D15@@3UOBSERVE_ETK@@A 1001e1bc     shell.obj
 0002:000001c8       ?WKUPOBSMUX0@@3UOBSERVE_WKUP@@A 1001e1c8     shell.obj
 0002:000001d4       ?WKUPOBSMUX1@@3UOBSERVE_WKUP@@A 1001e1d4     shell.obj
 0002:000001e0       ?WKUPOBSMUX2@@3UOBSERVE_WKUP@@A 1001e1e0     shell.obj
 0002:000001ec       ?WKUPOBSMUX3@@3UOBSERVE_WKUP@@A 1001e1ec     shell.obj
 0002:000001f8       ?WKUPOBSMUX4@@3UOBSERVE_WKUP@@A 1001e1f8     shell.obj
 0002:00000204       ?WKUPOBSMUX5@@3UOBSERVE_WKUP@@A 1001e204     shell.obj
 0002:00000210       ?WKUPOBSMUX6@@3UOBSERVE_WKUP@@A 1001e210     shell.obj
 0002:0000021c       ?WKUPOBSMUX7@@3UOBSERVE_WKUP@@A 1001e21c     shell.obj
 0002:00000228       ?WKUPOBSMUX8@@3UOBSERVE_WKUP@@A 1001e228     shell.obj
 0002:00000234       ?WKUPOBSMUX9@@3UOBSERVE_WKUP@@A 1001e234     shell.obj
 0002:00000240       ?WKUPOBSMUX10@@3UOBSERVE_WKUP@@A 1001e240     shell.obj
 0002:0000024c       ?WKUPOBSMUX11@@3UOBSERVE_WKUP@@A 1001e24c     shell.obj
 0002:00000258       ?WKUPOBSMUX12@@3UOBSERVE_WKUP@@A 1001e258     shell.obj
 0002:00000264       ?WKUPOBSMUX13@@3UOBSERVE_WKUP@@A 1001e264     shell.obj
 0002:00000270       ?WKUPOBSMUX14@@3UOBSERVE_WKUP@@A 1001e270     shell.obj
 0002:0000027c       ?WKUPOBSMUX15@@3UOBSERVE_WKUP@@A 1001e27c     shell.obj
 0002:00000288       ?WKUPOBSMUX16@@3UOBSERVE_WKUP@@A 1001e288     shell.obj
 0002:00000294       ?WKUPOBSMUX17@@3UOBSERVE_WKUP@@A 1001e294     shell.obj
 0002:000002a0       ?OBSMUX0@@3UOBSERVE_CORE@@A 1001e2a0     shell.obj
 0002:000002ac       ?OBSMUX1@@3UOBSERVE_CORE@@A 1001e2ac     shell.obj
 0002:000002b8       ?OBSMUX2@@3UOBSERVE_CORE@@A 1001e2b8     shell.obj
 0002:000002c4       ?OBSMUX3@@3UOBSERVE_CORE@@A 1001e2c4     shell.obj
 0002:000002d0       ?OBSMUX4@@3UOBSERVE_CORE@@A 1001e2d0     shell.obj
 0002:000002dc       ?OBSMUX5@@3UOBSERVE_CORE@@A 1001e2dc     shell.obj
 0002:000002e8       ?OBSMUX6@@3UOBSERVE_CORE@@A 1001e2e8     shell.obj
 0002:000002f4       ?OBSMUX7@@3UOBSERVE_CORE@@A 1001e2f4     shell.obj
 0002:00000300       ?OBSMUX8@@3UOBSERVE_CORE@@A 1001e300     shell.obj
 0002:0000030c       ?OBSMUX9@@3UOBSERVE_CORE@@A 1001e30c     shell.obj
 0002:00000318       ?OBSMUX10@@3UOBSERVE_CORE@@A 1001e318     shell.obj
 0002:00000324       ?OBSMUX11@@3UOBSERVE_CORE@@A 1001e324     shell.obj
 0002:00000330       ?OBSMUX12@@3UOBSERVE_CORE@@A 1001e330     shell.obj
 0002:0000033c       ?OBSMUX13@@3UOBSERVE_CORE@@A 1001e33c     shell.obj
 0002:00000348       ?OBSMUX14@@3UOBSERVE_CORE@@A 1001e348     shell.obj
 0002:00000354       ?OBSMUX15@@3UOBSERVE_CORE@@A 1001e354     shell.obj
 0002:00000360       ?OBSMUX16@@3UOBSERVE_CORE@@A 1001e360     shell.obj
 0002:0000036c       ?OBSMUX17@@3UOBSERVE_CORE@@A 1001e36c     shell.obj
 0002:00000378       ?CM_96_FCLK@@3UOBSERVE_ENTRY@@A 1001e378     shell.obj
 0002:0000038c       ?CM_32K_CLK@@3UOBSERVE_ENTRY@@A 1001e38c     shell.obj
 0002:000003a0       ?PRCM_CAM_domainFreeze_MUX0@@3UOBSERVE_ENTRY@@A 1001e3a0     shell.obj
 0002:000003b4       ?PRCM_NEON_forceWakeup@@3UOBSERVE_ENTRY@@A 1001e3b4     shell.obj
 0002:000003c8       ?PRCM_COREL4_domainNrea@@3UOBSERVE_ENTRY@@A 1001e3c8     shell.obj
 0002:000003dc       ?PRCM_WKUP_domainNready_MUX0@@3UOBSERVE_ENTRY@@A 1001e3dc     shell.obj
 0002:000003f0       ?PRCM_STATE_IS_OFF_IVA2@@3UOBSERVE_ENTRY@@A 1001e3f0     shell.obj
 0002:00000404       ?SDMA_PI_DMAREQ1_MUX0@@3UOBSERVE_ENTRY@@A 1001e404     shell.obj
 0002:00000418       ?SDMA_PI_DMAREQ2_MUX0@@3UOBSERVE_ENTRY@@A 1001e418     shell.obj
 0002:0000042c       ?SDMA_PI_DMAREQ3_MUX0@@3UOBSERVE_ENTRY@@A 1001e42c     shell.obj
 0002:00000440       ?SDMA_PI_DMAREQ4_MUX0@@3UOBSERVE_ENTRY@@A 1001e440     shell.obj
 0002:00000454       ?SDMA_PI_DMAREQ5_MUX0@@3UOBSERVE_ENTRY@@A 1001e454     shell.obj
 0002:00000468       ?SDMA_PI_DMAREQ6_MUX0@@3UOBSERVE_ENTRY@@A 1001e468     shell.obj
 0002:0000047c       ?SDMA_PI_DMAREQ7_MUX0@@3UOBSERVE_ENTRY@@A 1001e47c     shell.obj
 0002:00000490       ?SDMA_PI_DMAREQ8_MUX0@@3UOBSERVE_ENTRY@@A 1001e490     shell.obj
 0002:000004a4       ?SDMA_PI_DMAREQ9_MUX0@@3UOBSERVE_ENTRY@@A 1001e4a4     shell.obj
 0002:000004b8       ?SDMA_PI_DMAREQ10_MUX0@@3UOBSERVE_ENTRY@@A 1001e4b8     shell.obj
 0002:000004cc       ?SDMA_PI_DMAREQ11_MUX0@@3UOBSERVE_ENTRY@@A 1001e4cc     shell.obj
 0002:000004e0       ?SDMA_PI_DMAREQ12_MUX0@@3UOBSERVE_ENTRY@@A 1001e4e0     shell.obj
 0002:000004f4       ?SDMA_PI_DMAREQ13_MUX0@@3UOBSERVE_ENTRY@@A 1001e4f4     shell.obj
 0002:00000508       ?SDMA_PI_DMAREQ14_MUX0@@3UOBSERVE_ENTRY@@A 1001e508     shell.obj
 0002:0000051c       ?SDMA_PI_DMAREQ15_MUX0@@3UOBSERVE_ENTRY@@A 1001e51c     shell.obj
 0002:00000530       ?SDMA_PI_DMAREQ16_MUX0@@3UOBSERVE_ENTRY@@A 1001e530     shell.obj
 0002:00000544       ?SDMA_PI_DMAREQ17_MUX0@@3UOBSERVE_ENTRY@@A 1001e544     shell.obj
 0002:00000558       ?SDMA_PI_DMAREQ18_MUX0@@3UOBSERVE_ENTRY@@A 1001e558     shell.obj
 0002:0000056c       ?SDMA_PI_DMAREQ19_MUX0@@3UOBSERVE_ENTRY@@A 1001e56c     shell.obj
 0002:00000580       ?SDMA_PI_DMAREQ20_MUX0@@3UOBSERVE_ENTRY@@A 1001e580     shell.obj
 0002:00000594       ?SDMA_PI_DMAREQ21_MUX0@@3UOBSERVE_ENTRY@@A 1001e594     shell.obj
 0002:000005a8       ?SDMA_PI_DMAREQ22_MUX0@@3UOBSERVE_ENTRY@@A 1001e5a8     shell.obj
 0002:000005bc       ?SDMA_PI_DMAREQ23_MUX0@@3UOBSERVE_ENTRY@@A 1001e5bc     shell.obj
 0002:000005d0       ?SDMA_PI_DMAREQ24_MUX0@@3UOBSERVE_ENTRY@@A 1001e5d0     shell.obj
 0002:000005e4       ?SDMA_PI_DMAREQ25_MUX0@@3UOBSERVE_ENTRY@@A 1001e5e4     shell.obj
 0002:000005f8       ?SDMA_PI_DMAREQ26_MUX0@@3UOBSERVE_ENTRY@@A 1001e5f8     shell.obj
 0002:0000060c       ?SDMA_PI_DMAREQ27_MUX0@@3UOBSERVE_ENTRY@@A 1001e60c     shell.obj
 0002:00000620       ?SDMA_PI_DMAREQ28_MUX0@@3UOBSERVE_ENTRY@@A 1001e620     shell.obj
 0002:00000634       ?SDMA_PI_DMAREQ29_MUX0@@3UOBSERVE_ENTRY@@A 1001e634     shell.obj
 0002:00000648       ?SDMA_PI_DMAREQ30_MUX0@@3UOBSERVE_ENTRY@@A 1001e648     shell.obj
 0002:0000065c       ?SDMA_PI_DMAREQ31_MUX0@@3UOBSERVE_ENTRY@@A 1001e65c     shell.obj
 0002:00000670       ?SDMA_PI_DMAREQ32_MUX0@@3UOBSERVE_ENTRY@@A 1001e670     shell.obj
 0002:00000684       ?SDMA_PI_DMAREQ33_MUX0@@3UOBSERVE_ENTRY@@A 1001e684     shell.obj
 0002:00000698       ?SDMA_PI_DMAREQ34_MUX0@@3UOBSERVE_ENTRY@@A 1001e698     shell.obj
 0002:000006ac       ?SDMA_PI_DMAREQ35_MUX0@@3UOBSERVE_ENTRY@@A 1001e6ac     shell.obj
 0002:000006c0       ?SDMA_PI_DMAREQ36_MUX0@@3UOBSERVE_ENTRY@@A 1001e6c0     shell.obj
 0002:000006d4       ?SDMA_PI_DMAREQ37_MUX0@@3UOBSERVE_ENTRY@@A 1001e6d4     shell.obj
 0002:000006e8       ?SDMA_PI_DMAREQ38_MUX0@@3UOBSERVE_ENTRY@@A 1001e6e8     shell.obj
 0002:000006fc       ?SDMA_PI_DMAREQ39_MUX0@@3UOBSERVE_ENTRY@@A 1001e6fc     shell.obj
 0002:00000710       ?SDMA_PI_DMAREQ40_MUX0@@3UOBSERVE_ENTRY@@A 1001e710     shell.obj
 0002:00000724       ?SDMA_PI_DMAREQ41_MUX0@@3UOBSERVE_ENTRY@@A 1001e724     shell.obj
 0002:00000738       ?SDMA_PI_DMAREQ42_MUX0@@3UOBSERVE_ENTRY@@A 1001e738     shell.obj
 0002:0000074c       ?SDMA_PI_DMAREQ43_MUX0@@3UOBSERVE_ENTRY@@A 1001e74c     shell.obj
 0002:00000760       ?SDMA_PI_DMAREQ44_MUX0@@3UOBSERVE_ENTRY@@A 1001e760     shell.obj
 0002:00000774       ?SDMA_PI_DMAREQ45_MUX0@@3UOBSERVE_ENTRY@@A 1001e774     shell.obj
 0002:00000788       ?SDMA_PI_DMAREQ46_MUX0@@3UOBSERVE_ENTRY@@A 1001e788     shell.obj
 0002:0000079c       ?SDMA_PI_DMAREQ47_MUX0@@3UOBSERVE_ENTRY@@A 1001e79c     shell.obj
 0002:000007b0       ?SDMA_PI_DMAREQ48_MUX0@@3UOBSERVE_ENTRY@@A 1001e7b0     shell.obj
 0002:000007c4       ?SDMA_PI_DMAREQ49_MUX0@@3UOBSERVE_ENTRY@@A 1001e7c4     shell.obj
 0002:000007d8       ?SDMA_PI_DMAREQ50_MUX0@@3UOBSERVE_ENTRY@@A 1001e7d8     shell.obj
 0002:000007ec       ?SDMA_PI_DMAREQ51_MUX0@@3UOBSERVE_ENTRY@@A 1001e7ec     shell.obj
 0002:00000800       ?SDMA_PI_DMAREQ52_MUX0@@3UOBSERVE_ENTRY@@A 1001e800     shell.obj
 0002:00000814       ?SDMA_PI_DMAREQ53_MUX0@@3UOBSERVE_ENTRY@@A 1001e814     shell.obj
 0002:00000828       ?SDMA_PI_DMAREQ54_MUX0@@3UOBSERVE_ENTRY@@A 1001e828     shell.obj
 0002:0000083c       ?SDMA_PI_DMAREQ55_MUX0@@3UOBSERVE_ENTRY@@A 1001e83c     shell.obj
 0002:00000850       ?SDMA_PI_DMAREQ56_MUX0@@3UOBSERVE_ENTRY@@A 1001e850     shell.obj
 0002:00000864       ?SDMA_PI_DMAREQ57_MUX0@@3UOBSERVE_ENTRY@@A 1001e864     shell.obj
 0002:00000878       ?SDMA_PI_DMAREQ58_MUX0@@3UOBSERVE_ENTRY@@A 1001e878     shell.obj
 0002:0000088c       ?SDMA_PI_DMAREQ59_MUX0@@3UOBSERVE_ENTRY@@A 1001e88c     shell.obj
 0002:000008a0       ?SDMA_PI_DMAREQ60_MUX0@@3UOBSERVE_ENTRY@@A 1001e8a0     shell.obj
 0002:000008b4       ?SDMA_PI_DMAREQ61_MUX0@@3UOBSERVE_ENTRY@@A 1001e8b4     shell.obj
 0002:000008c8       ?SDMA_PI_DMAREQ62_MUX0@@3UOBSERVE_ENTRY@@A 1001e8c8     shell.obj
 0002:000008dc       ?SDMA_PI_DMAREQ63_MUX0@@3UOBSERVE_ENTRY@@A 1001e8dc     shell.obj
 0002:000008f0       ?SDMA_PI_DMAREQ64_MUX0@@3UOBSERVE_ENTRY@@A 1001e8f0     shell.obj
 0002:00000904       ?SDMA_PI_DMAREQ65_MUX0@@3UOBSERVE_ENTRY@@A 1001e904     shell.obj
 0002:00000918       ?SDMA_PI_DMAREQ66_MUX0@@3UOBSERVE_ENTRY@@A 1001e918     shell.obj
 0002:0000092c       ?SDMA_PI_DMAREQ67_MUX0@@3UOBSERVE_ENTRY@@A 1001e92c     shell.obj
 0002:00000940       ?SDMA_PI_DMAREQ68_MUX0@@3UOBSERVE_ENTRY@@A 1001e940     shell.obj
 0002:00000954       ?SDMA_PI_DMAREQ69_MUX0@@3UOBSERVE_ENTRY@@A 1001e954     shell.obj
 0002:00000968       ?SDMA_PI_DMAREQ70_MUX0@@3UOBSERVE_ENTRY@@A 1001e968     shell.obj
 0002:0000097c       ?SDMA_PI_DMAREQ71_MUX0@@3UOBSERVE_ENTRY@@A 1001e97c     shell.obj
 0002:00000990       ?PRCM_DPLL3_M2_CLK@@3UOBSERVE_ENTRY@@A 1001e990     shell.obj
 0002:000009a4       ?CM_SYS_CLK@@3UOBSERVE_ENTRY@@A 1001e9a4     shell.obj
 0002:000009b8       ?PRCM_DPLL2_ClkIsNotRunning@@3UOBSERVE_ENTRY@@A 1001e9b8     shell.obj
 0002:000009cc       ?PRCM_NEON_domainNready@@3UOBSERVE_ENTRY@@A 1001e9cc     shell.obj
 0002:000009e0       ?PRCM_WKUP_domainNready_MUX1@@3UOBSERVE_ENTRY@@A 1001e9e0     shell.obj
 0002:000009f4       ?PRCM_STATE_IS_ON_CORE@@3UOBSERVE_ENTRY@@A 1001e9f4     shell.obj
 0002:00000a08       ?PRCM_CORE_96M_GFCLK@@3UOBSERVE_ENTRY@@A 1001ea08     shell.obj
 0002:00000a1c       ?SDMA_PI_DMAREQ1_MUX1@@3UOBSERVE_ENTRY@@A 1001ea1c     shell.obj
 0002:00000a30       ?SDMA_PI_DMAREQ2_MUX1@@3UOBSERVE_ENTRY@@A 1001ea30     shell.obj
 0002:00000a44       ?SDMA_PI_DMAREQ3_MUX1@@3UOBSERVE_ENTRY@@A 1001ea44     shell.obj
 0002:00000a58       ?SDMA_PI_DMAREQ4_MUX1@@3UOBSERVE_ENTRY@@A 1001ea58     shell.obj
 0002:00000a6c       ?SDMA_PI_DMAREQ5_MUX1@@3UOBSERVE_ENTRY@@A 1001ea6c     shell.obj
 0002:00000a80       ?SDMA_PI_DMAREQ6_MUX1@@3UOBSERVE_ENTRY@@A 1001ea80     shell.obj
 0002:00000a94       ?SDMA_PI_DMAREQ7_MUX1@@3UOBSERVE_ENTRY@@A 1001ea94     shell.obj
 0002:00000aa8       ?SDMA_PI_DMAREQ8_MUX1@@3UOBSERVE_ENTRY@@A 1001eaa8     shell.obj
 0002:00000abc       ?SDMA_PI_DMAREQ9_MUX1@@3UOBSERVE_ENTRY@@A 1001eabc     shell.obj
 0002:00000ad0       ?SDMA_PI_DMAREQ10_MUX1@@3UOBSERVE_ENTRY@@A 1001ead0     shell.obj
 0002:00000ae4       ?SDMA_PI_DMAREQ11_MUX1@@3UOBSERVE_ENTRY@@A 1001eae4     shell.obj
 0002:00000af8       ?SDMA_PI_DMAREQ12_MUX1@@3UOBSERVE_ENTRY@@A 1001eaf8     shell.obj
 0002:00000b0c       ?SDMA_PI_DMAREQ13_MUX1@@3UOBSERVE_ENTRY@@A 1001eb0c     shell.obj
 0002:00000b20       ?SDMA_PI_DMAREQ14_MUX1@@3UOBSERVE_ENTRY@@A 1001eb20     shell.obj
 0002:00000b34       ?SDMA_PI_DMAREQ15_MUX1@@3UOBSERVE_ENTRY@@A 1001eb34     shell.obj
 0002:00000b48       ?SDMA_PI_DMAREQ16_MUX1@@3UOBSERVE_ENTRY@@A 1001eb48     shell.obj
 0002:00000b5c       ?SDMA_PI_DMAREQ17_MUX1@@3UOBSERVE_ENTRY@@A 1001eb5c     shell.obj
 0002:00000b70       ?SDMA_PI_DMAREQ18_MUX1@@3UOBSERVE_ENTRY@@A 1001eb70     shell.obj
 0002:00000b84       ?SDMA_PI_DMAREQ19_MUX1@@3UOBSERVE_ENTRY@@A 1001eb84     shell.obj
 0002:00000b98       ?SDMA_PI_DMAREQ20_MUX1@@3UOBSERVE_ENTRY@@A 1001eb98     shell.obj
 0002:00000bac       ?SDMA_PI_DMAREQ21_MUX1@@3UOBSERVE_ENTRY@@A 1001ebac     shell.obj
 0002:00000bc0       ?SDMA_PI_DMAREQ22_MUX1@@3UOBSERVE_ENTRY@@A 1001ebc0     shell.obj
 0002:00000bd4       ?SDMA_PI_DMAREQ23_MUX1@@3UOBSERVE_ENTRY@@A 1001ebd4     shell.obj
 0002:00000be8       ?SDMA_PI_DMAREQ24_MUX1@@3UOBSERVE_ENTRY@@A 1001ebe8     shell.obj
 0002:00000bfc       ?SDMA_PI_DMAREQ25_MUX1@@3UOBSERVE_ENTRY@@A 1001ebfc     shell.obj
 0002:00000c10       ?SDMA_PI_DMAREQ26_MUX1@@3UOBSERVE_ENTRY@@A 1001ec10     shell.obj
 0002:00000c24       ?SDMA_PI_DMAREQ27_MUX1@@3UOBSERVE_ENTRY@@A 1001ec24     shell.obj
 0002:00000c38       ?SDMA_PI_DMAREQ28_MUX1@@3UOBSERVE_ENTRY@@A 1001ec38     shell.obj
 0002:00000c4c       ?SDMA_PI_DMAREQ29_MUX1@@3UOBSERVE_ENTRY@@A 1001ec4c     shell.obj
 0002:00000c60       ?SDMA_PI_DMAREQ30_MUX1@@3UOBSERVE_ENTRY@@A 1001ec60     shell.obj
 0002:00000c74       ?SDMA_PI_DMAREQ31_MUX1@@3UOBSERVE_ENTRY@@A 1001ec74     shell.obj
 0002:00000c88       ?SDMA_PI_DMAREQ32_MUX1@@3UOBSERVE_ENTRY@@A 1001ec88     shell.obj
 0002:00000c9c       ?SDMA_PI_DMAREQ33_MUX1@@3UOBSERVE_ENTRY@@A 1001ec9c     shell.obj
 0002:00000cb0       ?SDMA_PI_DMAREQ34_MUX1@@3UOBSERVE_ENTRY@@A 1001ecb0     shell.obj
 0002:00000cc4       ?SDMA_PI_DMAREQ35_MUX1@@3UOBSERVE_ENTRY@@A 1001ecc4     shell.obj
 0002:00000cd8       ?SDMA_PI_DMAREQ36_MUX1@@3UOBSERVE_ENTRY@@A 1001ecd8     shell.obj
 0002:00000cec       ?SDMA_PI_DMAREQ37_MUX1@@3UOBSERVE_ENTRY@@A 1001ecec     shell.obj
 0002:00000d00       ?SDMA_PI_DMAREQ38_MUX1@@3UOBSERVE_ENTRY@@A 1001ed00     shell.obj
 0002:00000d14       ?SDMA_PI_DMAREQ39_MUX1@@3UOBSERVE_ENTRY@@A 1001ed14     shell.obj
 0002:00000d28       ?SDMA_PI_DMAREQ40_MUX1@@3UOBSERVE_ENTRY@@A 1001ed28     shell.obj
 0002:00000d3c       ?SDMA_PI_DMAREQ41_MUX1@@3UOBSERVE_ENTRY@@A 1001ed3c     shell.obj
 0002:00000d50       ?SDMA_PI_DMAREQ42_MUX1@@3UOBSERVE_ENTRY@@A 1001ed50     shell.obj
 0002:00000d64       ?SDMA_PI_DMAREQ43_MUX1@@3UOBSERVE_ENTRY@@A 1001ed64     shell.obj
 0002:00000d78       ?SDMA_PI_DMAREQ44_MUX1@@3UOBSERVE_ENTRY@@A 1001ed78     shell.obj
 0002:00000d8c       ?SDMA_PI_DMAREQ45_MUX1@@3UOBSERVE_ENTRY@@A 1001ed8c     shell.obj
 0002:00000da0       ?SDMA_PI_DMAREQ46_MUX1@@3UOBSERVE_ENTRY@@A 1001eda0     shell.obj
 0002:00000db4       ?SDMA_PI_DMAREQ47_MUX1@@3UOBSERVE_ENTRY@@A 1001edb4     shell.obj
 0002:00000dc8       ?SDMA_PI_DMAREQ48_MUX1@@3UOBSERVE_ENTRY@@A 1001edc8     shell.obj
 0002:00000ddc       ?SDMA_PI_DMAREQ49_MUX1@@3UOBSERVE_ENTRY@@A 1001eddc     shell.obj
 0002:00000df0       ?SDMA_PI_DMAREQ50_MUX1@@3UOBSERVE_ENTRY@@A 1001edf0     shell.obj
 0002:00000e04       ?SDMA_PI_DMAREQ51_MUX1@@3UOBSERVE_ENTRY@@A 1001ee04     shell.obj
 0002:00000e18       ?SDMA_PI_DMAREQ52_MUX1@@3UOBSERVE_ENTRY@@A 1001ee18     shell.obj
 0002:00000e2c       ?SDMA_PI_DMAREQ53_MUX1@@3UOBSERVE_ENTRY@@A 1001ee2c     shell.obj
 0002:00000e40       ?SDMA_PI_DMAREQ54_MUX1@@3UOBSERVE_ENTRY@@A 1001ee40     shell.obj
 0002:00000e54       ?SDMA_PI_DMAREQ55_MUX1@@3UOBSERVE_ENTRY@@A 1001ee54     shell.obj
 0002:00000e68       ?SDMA_PI_DMAREQ56_MUX1@@3UOBSERVE_ENTRY@@A 1001ee68     shell.obj
 0002:00000e7c       ?SDMA_PI_DMAREQ57_MUX1@@3UOBSERVE_ENTRY@@A 1001ee7c     shell.obj
 0002:00000e90       ?SDMA_PI_DMAREQ58_MUX1@@3UOBSERVE_ENTRY@@A 1001ee90     shell.obj
 0002:00000ea4       ?SDMA_PI_DMAREQ59_MUX1@@3UOBSERVE_ENTRY@@A 1001eea4     shell.obj
 0002:00000eb8       ?SDMA_PI_DMAREQ60_MUX1@@3UOBSERVE_ENTRY@@A 1001eeb8     shell.obj
 0002:00000ecc       ?SDMA_PI_DMAREQ61_MUX1@@3UOBSERVE_ENTRY@@A 1001eecc     shell.obj
 0002:00000ee0       ?SDMA_PI_DMAREQ62_MUX1@@3UOBSERVE_ENTRY@@A 1001eee0     shell.obj
 0002:00000ef4       ?SDMA_PI_DMAREQ63_MUX1@@3UOBSERVE_ENTRY@@A 1001eef4     shell.obj
 0002:00000f08       ?SDMA_PI_DMAREQ64_MUX1@@3UOBSERVE_ENTRY@@A 1001ef08     shell.obj
 0002:00000f1c       ?SDMA_PI_DMAREQ65_MUX1@@3UOBSERVE_ENTRY@@A 1001ef1c     shell.obj
 0002:00000f30       ?SDMA_PI_DMAREQ66_MUX1@@3UOBSERVE_ENTRY@@A 1001ef30     shell.obj
 0002:00000f44       ?SDMA_PI_DMAREQ67_MUX1@@3UOBSERVE_ENTRY@@A 1001ef44     shell.obj
 0002:00000f58       ?SDMA_PI_DMAREQ68_MUX1@@3UOBSERVE_ENTRY@@A 1001ef58     shell.obj
 0002:00000f6c       ?SDMA_PI_DMAREQ69_MUX1@@3UOBSERVE_ENTRY@@A 1001ef6c     shell.obj
 0002:00000f80       ?SDMA_PI_DMAREQ70_MUX1@@3UOBSERVE_ENTRY@@A 1001ef80     shell.obj
 0002:00000f94       ?SDMA_PI_DMAREQ71_MUX1@@3UOBSERVE_ENTRY@@A 1001ef94     shell.obj
 0002:00000fa8       ?PRCM_DPLL3_M2X2_CLK@@3UOBSERVE_ENTRY@@A 1001efa8     shell.obj
 0002:00000fbc       ?PRCM_DPLL1_freqlock@@3UOBSERVE_ENTRY@@A 1001efbc     shell.obj
 0002:00000fd0       ?PRCM_DPLL4_freqlock@@3UOBSERVE_ENTRY@@A 1001efd0     shell.obj
 0002:00000fe4       ?PRCM_COREL3_IClkIsNotRunning@@3UOBSERVE_ENTRY@@A 1001efe4     shell.obj
 0002:00000ff8       ?PRCM_NEON_forceSleep@@3UOBSERVE_ENTRY@@A 1001eff8     shell.obj
 0002:0000100c       ?PRCM_CAM_domainIsIdle@@3UOBSERVE_ENTRY@@A 1001f00c     shell.obj
 0002:00001020       ?PRCM_EMU_domainIsIdle@@3UOBSERVE_ENTRY@@A 1001f020     shell.obj
 0002:00001034       ?PRCM_STATE_IS_OFF_CORE@@3UOBSERVE_ENTRY@@A 1001f034     shell.obj
 0002:00001048       ?PRCM_CORE_48M_GFCLK@@3UOBSERVE_ENTRY@@A 1001f048     shell.obj
 0002:0000105c       ?SDMA_PI_DMAREQ1_MUX2@@3UOBSERVE_ENTRY@@A 1001f05c     shell.obj
 0002:00001070       ?SDMA_PI_DMAREQ2_MUX2@@3UOBSERVE_ENTRY@@A 1001f070     shell.obj
 0002:00001084       ?SDMA_PI_DMAREQ3_MUX2@@3UOBSERVE_ENTRY@@A 1001f084     shell.obj
 0002:00001098       ?SDMA_PI_DMAREQ4_MUX2@@3UOBSERVE_ENTRY@@A 1001f098     shell.obj
 0002:000010ac       ?SDMA_PI_DMAREQ5_MUX2@@3UOBSERVE_ENTRY@@A 1001f0ac     shell.obj
 0002:000010c0       ?SDMA_PI_DMAREQ6_MUX2@@3UOBSERVE_ENTRY@@A 1001f0c0     shell.obj
 0002:000010d4       ?SDMA_PI_DMAREQ7_MUX2@@3UOBSERVE_ENTRY@@A 1001f0d4     shell.obj
 0002:000010e8       ?SDMA_PI_DMAREQ8_MUX2@@3UOBSERVE_ENTRY@@A 1001f0e8     shell.obj
 0002:000010fc       ?SDMA_PI_DMAREQ9_MUX2@@3UOBSERVE_ENTRY@@A 1001f0fc     shell.obj
 0002:00001110       ?SDMA_PI_DMAREQ10_MUX2@@3UOBSERVE_ENTRY@@A 1001f110     shell.obj
 0002:00001124       ?SDMA_PI_DMAREQ11_MUX2@@3UOBSERVE_ENTRY@@A 1001f124     shell.obj
 0002:00001138       ?SDMA_PI_DMAREQ12_MUX2@@3UOBSERVE_ENTRY@@A 1001f138     shell.obj
 0002:0000114c       ?SDMA_PI_DMAREQ13_MUX2@@3UOBSERVE_ENTRY@@A 1001f14c     shell.obj
 0002:00001160       ?SDMA_PI_DMAREQ14_MUX2@@3UOBSERVE_ENTRY@@A 1001f160     shell.obj
 0002:00001174       ?SDMA_PI_DMAREQ15_MUX2@@3UOBSERVE_ENTRY@@A 1001f174     shell.obj
 0002:00001188       ?SDMA_PI_DMAREQ16_MUX2@@3UOBSERVE_ENTRY@@A 1001f188     shell.obj
 0002:0000119c       ?SDMA_PI_DMAREQ17_MUX2@@3UOBSERVE_ENTRY@@A 1001f19c     shell.obj
 0002:000011b0       ?SDMA_PI_DMAREQ18_MUX2@@3UOBSERVE_ENTRY@@A 1001f1b0     shell.obj
 0002:000011c4       ?SDMA_PI_DMAREQ19_MUX2@@3UOBSERVE_ENTRY@@A 1001f1c4     shell.obj
 0002:000011d8       ?SDMA_PI_DMAREQ20_MUX2@@3UOBSERVE_ENTRY@@A 1001f1d8     shell.obj
 0002:000011ec       ?SDMA_PI_DMAREQ21_MUX2@@3UOBSERVE_ENTRY@@A 1001f1ec     shell.obj
 0002:00001200       ?SDMA_PI_DMAREQ22_MUX2@@3UOBSERVE_ENTRY@@A 1001f200     shell.obj
 0002:00001214       ?SDMA_PI_DMAREQ23_MUX2@@3UOBSERVE_ENTRY@@A 1001f214     shell.obj
 0002:00001228       ?SDMA_PI_DMAREQ24_MUX2@@3UOBSERVE_ENTRY@@A 1001f228     shell.obj
 0002:0000123c       ?SDMA_PI_DMAREQ25_MUX2@@3UOBSERVE_ENTRY@@A 1001f23c     shell.obj
 0002:00001250       ?SDMA_PI_DMAREQ26_MUX2@@3UOBSERVE_ENTRY@@A 1001f250     shell.obj
 0002:00001264       ?SDMA_PI_DMAREQ27_MUX2@@3UOBSERVE_ENTRY@@A 1001f264     shell.obj
 0002:00001278       ?SDMA_PI_DMAREQ28_MUX2@@3UOBSERVE_ENTRY@@A 1001f278     shell.obj
 0002:0000128c       ?SDMA_PI_DMAREQ29_MUX2@@3UOBSERVE_ENTRY@@A 1001f28c     shell.obj
 0002:000012a0       ?SDMA_PI_DMAREQ30_MUX2@@3UOBSERVE_ENTRY@@A 1001f2a0     shell.obj
 0002:000012b4       ?SDMA_PI_DMAREQ31_MUX2@@3UOBSERVE_ENTRY@@A 1001f2b4     shell.obj
 0002:000012c8       ?SDMA_PI_DMAREQ32_MUX2@@3UOBSERVE_ENTRY@@A 1001f2c8     shell.obj
 0002:000012dc       ?SDMA_PI_DMAREQ33_MUX2@@3UOBSERVE_ENTRY@@A 1001f2dc     shell.obj
 0002:000012f0       ?SDMA_PI_DMAREQ34_MUX2@@3UOBSERVE_ENTRY@@A 1001f2f0     shell.obj
 0002:00001304       ?SDMA_PI_DMAREQ35_MUX2@@3UOBSERVE_ENTRY@@A 1001f304     shell.obj
 0002:00001318       ?SDMA_PI_DMAREQ36_MUX2@@3UOBSERVE_ENTRY@@A 1001f318     shell.obj
 0002:0000132c       ?SDMA_PI_DMAREQ37_MUX2@@3UOBSERVE_ENTRY@@A 1001f32c     shell.obj
 0002:00001340       ?SDMA_PI_DMAREQ38_MUX2@@3UOBSERVE_ENTRY@@A 1001f340     shell.obj
 0002:00001354       ?SDMA_PI_DMAREQ39_MUX2@@3UOBSERVE_ENTRY@@A 1001f354     shell.obj
 0002:00001368       ?SDMA_PI_DMAREQ40_MUX2@@3UOBSERVE_ENTRY@@A 1001f368     shell.obj
 0002:0000137c       ?SDMA_PI_DMAREQ41_MUX2@@3UOBSERVE_ENTRY@@A 1001f37c     shell.obj
 0002:00001390       ?SDMA_PI_DMAREQ42_MUX2@@3UOBSERVE_ENTRY@@A 1001f390     shell.obj
 0002:000013a4       ?SDMA_PI_DMAREQ43_MUX2@@3UOBSERVE_ENTRY@@A 1001f3a4     shell.obj
 0002:000013b8       ?SDMA_PI_DMAREQ44_MUX2@@3UOBSERVE_ENTRY@@A 1001f3b8     shell.obj
 0002:000013cc       ?SDMA_PI_DMAREQ45_MUX2@@3UOBSERVE_ENTRY@@A 1001f3cc     shell.obj
 0002:000013e0       ?SDMA_PI_DMAREQ46_MUX2@@3UOBSERVE_ENTRY@@A 1001f3e0     shell.obj
 0002:000013f4       ?SDMA_PI_DMAREQ47_MUX2@@3UOBSERVE_ENTRY@@A 1001f3f4     shell.obj
 0002:00001408       ?SDMA_PI_DMAREQ48_MUX2@@3UOBSERVE_ENTRY@@A 1001f408     shell.obj
 0002:0000141c       ?SDMA_PI_DMAREQ49_MUX2@@3UOBSERVE_ENTRY@@A 1001f41c     shell.obj
 0002:00001430       ?SDMA_PI_DMAREQ50_MUX2@@3UOBSERVE_ENTRY@@A 1001f430     shell.obj
 0002:00001444       ?SDMA_PI_DMAREQ51_MUX2@@3UOBSERVE_ENTRY@@A 1001f444     shell.obj
 0002:00001458       ?SDMA_PI_DMAREQ52_MUX2@@3UOBSERVE_ENTRY@@A 1001f458     shell.obj
 0002:0000146c       ?SDMA_PI_DMAREQ53_MUX2@@3UOBSERVE_ENTRY@@A 1001f46c     shell.obj
 0002:00001480       ?SDMA_PI_DMAREQ54_MUX2@@3UOBSERVE_ENTRY@@A 1001f480     shell.obj
 0002:00001494       ?SDMA_PI_DMAREQ55_MUX2@@3UOBSERVE_ENTRY@@A 1001f494     shell.obj
 0002:000014a8       ?SDMA_PI_DMAREQ56_MUX2@@3UOBSERVE_ENTRY@@A 1001f4a8     shell.obj
 0002:000014bc       ?SDMA_PI_DMAREQ57_MUX2@@3UOBSERVE_ENTRY@@A 1001f4bc     shell.obj
 0002:000014d0       ?SDMA_PI_DMAREQ58_MUX2@@3UOBSERVE_ENTRY@@A 1001f4d0     shell.obj
 0002:000014e4       ?SDMA_PI_DMAREQ59_MUX2@@3UOBSERVE_ENTRY@@A 1001f4e4     shell.obj
 0002:000014f8       ?SDMA_PI_DMAREQ60_MUX2@@3UOBSERVE_ENTRY@@A 1001f4f8     shell.obj
 0002:0000150c       ?SDMA_PI_DMAREQ61_MUX2@@3UOBSERVE_ENTRY@@A 1001f50c     shell.obj
 0002:00001520       ?SDMA_PI_DMAREQ62_MUX2@@3UOBSERVE_ENTRY@@A 1001f520     shell.obj
 0002:00001534       ?SDMA_PI_DMAREQ63_MUX2@@3UOBSERVE_ENTRY@@A 1001f534     shell.obj
 0002:00001548       ?SDMA_PI_DMAREQ64_MUX2@@3UOBSERVE_ENTRY@@A 1001f548     shell.obj
 0002:0000155c       ?SDMA_PI_DMAREQ65_MUX2@@3UOBSERVE_ENTRY@@A 1001f55c     shell.obj
 0002:00001570       ?SDMA_PI_DMAREQ66_MUX2@@3UOBSERVE_ENTRY@@A 1001f570     shell.obj
 0002:00001584       ?SDMA_PI_DMAREQ67_MUX2@@3UOBSERVE_ENTRY@@A 1001f584     shell.obj
 0002:00001598       ?SDMA_PI_DMAREQ68_MUX2@@3UOBSERVE_ENTRY@@A 1001f598     shell.obj
 0002:000015ac       ?SDMA_PI_DMAREQ69_MUX2@@3UOBSERVE_ENTRY@@A 1001f5ac     shell.obj
 0002:000015c0       ?SDMA_PI_DMAREQ70_MUX2@@3UOBSERVE_ENTRY@@A 1001f5c0     shell.obj
 0002:000015d4       ?SDMA_PI_DMAREQ71_MUX2@@3UOBSERVE_ENTRY@@A 1001f5d4     shell.obj
 0002:000015e8       ?PRCM_L3_ICLK@@3UOBSERVE_ENTRY@@A 1001f5e8     shell.obj
 0002:000015fc       ?PRCM_DPLL1_bypass@@3UOBSERVE_ENTRY@@A 1001f5fc     shell.obj
 0002:00001610       ?PRCM_DPLL4_bypass@@3UOBSERVE_ENTRY@@A 1001f610     shell.obj
 0002:00001624       ?PRCM_IVA2_domainIsIdle@@3UOBSERVE_ENTRY@@A 1001f624     shell.obj
 0002:00001638       ?PRCM_CAM_forceWakeup@@3UOBSERVE_ENTRY@@A 1001f638     shell.obj
 0002:0000164c       ?PRCM_EMU_domainMute@@3UOBSERVE_ENTRY@@A 1001f64c     shell.obj
 0002:00001660       ?PRCM_SEQ_FORCECLKON@@3UOBSERVE_ENTRY@@A 1001f660     shell.obj
 0002:00001674       ?PRCM_CORE_12M_GFCLK@@3UOBSERVE_ENTRY@@A 1001f674     shell.obj
 0002:00001688       ?SDMA_PI_DMAREQ1_MUX3@@3UOBSERVE_ENTRY@@A 1001f688     shell.obj
 0002:0000169c       ?SDMA_PI_DMAREQ2_MUX3@@3UOBSERVE_ENTRY@@A 1001f69c     shell.obj
 0002:000016b0       ?SDMA_PI_DMAREQ3_MUX3@@3UOBSERVE_ENTRY@@A 1001f6b0     shell.obj
 0002:000016c4       ?SDMA_PI_DMAREQ4_MUX3@@3UOBSERVE_ENTRY@@A 1001f6c4     shell.obj
 0002:000016d8       ?SDMA_PI_DMAREQ5_MUX3@@3UOBSERVE_ENTRY@@A 1001f6d8     shell.obj
 0002:000016ec       ?SDMA_PI_DMAREQ6_MUX3@@3UOBSERVE_ENTRY@@A 1001f6ec     shell.obj
 0002:00001700       ?SDMA_PI_DMAREQ7_MUX3@@3UOBSERVE_ENTRY@@A 1001f700     shell.obj
 0002:00001714       ?SDMA_PI_DMAREQ8_MUX3@@3UOBSERVE_ENTRY@@A 1001f714     shell.obj
 0002:00001728       ?SDMA_PI_DMAREQ9_MUX3@@3UOBSERVE_ENTRY@@A 1001f728     shell.obj
 0002:0000173c       ?SDMA_PI_DMAREQ10_MUX3@@3UOBSERVE_ENTRY@@A 1001f73c     shell.obj
 0002:00001750       ?SDMA_PI_DMAREQ11_MUX3@@3UOBSERVE_ENTRY@@A 1001f750     shell.obj
 0002:00001764       ?SDMA_PI_DMAREQ12_MUX3@@3UOBSERVE_ENTRY@@A 1001f764     shell.obj
 0002:00001778       ?SDMA_PI_DMAREQ13_MUX3@@3UOBSERVE_ENTRY@@A 1001f778     shell.obj
 0002:0000178c       ?SDMA_PI_DMAREQ14_MUX3@@3UOBSERVE_ENTRY@@A 1001f78c     shell.obj
 0002:000017a0       ?SDMA_PI_DMAREQ15_MUX3@@3UOBSERVE_ENTRY@@A 1001f7a0     shell.obj
 0002:000017b4       ?SDMA_PI_DMAREQ16_MUX3@@3UOBSERVE_ENTRY@@A 1001f7b4     shell.obj
 0002:000017c8       ?SDMA_PI_DMAREQ17_MUX3@@3UOBSERVE_ENTRY@@A 1001f7c8     shell.obj
 0002:000017dc       ?SDMA_PI_DMAREQ18_MUX3@@3UOBSERVE_ENTRY@@A 1001f7dc     shell.obj
 0002:000017f0       ?SDMA_PI_DMAREQ19_MUX3@@3UOBSERVE_ENTRY@@A 1001f7f0     shell.obj
 0002:00001804       ?SDMA_PI_DMAREQ20_MUX3@@3UOBSERVE_ENTRY@@A 1001f804     shell.obj
 0002:00001818       ?SDMA_PI_DMAREQ21_MUX3@@3UOBSERVE_ENTRY@@A 1001f818     shell.obj
 0002:0000182c       ?SDMA_PI_DMAREQ22_MUX3@@3UOBSERVE_ENTRY@@A 1001f82c     shell.obj
 0002:00001840       ?SDMA_PI_DMAREQ23_MUX3@@3UOBSERVE_ENTRY@@A 1001f840     shell.obj
 0002:00001854       ?SDMA_PI_DMAREQ24_MUX3@@3UOBSERVE_ENTRY@@A 1001f854     shell.obj
 0002:00001868       ?SDMA_PI_DMAREQ25_MUX3@@3UOBSERVE_ENTRY@@A 1001f868     shell.obj
 0002:0000187c       ?SDMA_PI_DMAREQ26_MUX3@@3UOBSERVE_ENTRY@@A 1001f87c     shell.obj
 0002:00001890       ?SDMA_PI_DMAREQ27_MUX3@@3UOBSERVE_ENTRY@@A 1001f890     shell.obj
 0002:000018a4       ?SDMA_PI_DMAREQ28_MUX3@@3UOBSERVE_ENTRY@@A 1001f8a4     shell.obj
 0002:000018b8       ?SDMA_PI_DMAREQ29_MUX3@@3UOBSERVE_ENTRY@@A 1001f8b8     shell.obj
 0002:000018cc       ?SDMA_PI_DMAREQ30_MUX3@@3UOBSERVE_ENTRY@@A 1001f8cc     shell.obj
 0002:000018e0       ?SDMA_PI_DMAREQ31_MUX3@@3UOBSERVE_ENTRY@@A 1001f8e0     shell.obj
 0002:000018f4       ?SDMA_PI_DMAREQ32_MUX3@@3UOBSERVE_ENTRY@@A 1001f8f4     shell.obj
 0002:00001908       ?SDMA_PI_DMAREQ33_MUX3@@3UOBSERVE_ENTRY@@A 1001f908     shell.obj
 0002:0000191c       ?SDMA_PI_DMAREQ34_MUX3@@3UOBSERVE_ENTRY@@A 1001f91c     shell.obj
 0002:00001930       ?SDMA_PI_DMAREQ35_MUX3@@3UOBSERVE_ENTRY@@A 1001f930     shell.obj
 0002:00001944       ?SDMA_PI_DMAREQ36_MUX3@@3UOBSERVE_ENTRY@@A 1001f944     shell.obj
 0002:00001958       ?SDMA_PI_DMAREQ37_MUX3@@3UOBSERVE_ENTRY@@A 1001f958     shell.obj
 0002:0000196c       ?SDMA_PI_DMAREQ38_MUX3@@3UOBSERVE_ENTRY@@A 1001f96c     shell.obj
 0002:00001980       ?SDMA_PI_DMAREQ39_MUX3@@3UOBSERVE_ENTRY@@A 1001f980     shell.obj
 0002:00001994       ?SDMA_PI_DMAREQ40_MUX3@@3UOBSERVE_ENTRY@@A 1001f994     shell.obj
 0002:000019a8       ?SDMA_PI_DMAREQ41_MUX3@@3UOBSERVE_ENTRY@@A 1001f9a8     shell.obj
 0002:000019bc       ?SDMA_PI_DMAREQ42_MUX3@@3UOBSERVE_ENTRY@@A 1001f9bc     shell.obj
 0002:000019d0       ?SDMA_PI_DMAREQ43_MUX3@@3UOBSERVE_ENTRY@@A 1001f9d0     shell.obj
 0002:000019e4       ?SDMA_PI_DMAREQ44_MUX3@@3UOBSERVE_ENTRY@@A 1001f9e4     shell.obj
 0002:000019f8       ?SDMA_PI_DMAREQ45_MUX3@@3UOBSERVE_ENTRY@@A 1001f9f8     shell.obj
 0002:00001a0c       ?SDMA_PI_DMAREQ46_MUX3@@3UOBSERVE_ENTRY@@A 1001fa0c     shell.obj
 0002:00001a20       ?SDMA_PI_DMAREQ47_MUX3@@3UOBSERVE_ENTRY@@A 1001fa20     shell.obj
 0002:00001a34       ?SDMA_PI_DMAREQ48_MUX3@@3UOBSERVE_ENTRY@@A 1001fa34     shell.obj
 0002:00001a48       ?SDMA_PI_DMAREQ49_MUX3@@3UOBSERVE_ENTRY@@A 1001fa48     shell.obj
 0002:00001a5c       ?SDMA_PI_DMAREQ50_MUX3@@3UOBSERVE_ENTRY@@A 1001fa5c     shell.obj
 0002:00001a70       ?SDMA_PI_DMAREQ51_MUX3@@3UOBSERVE_ENTRY@@A 1001fa70     shell.obj
 0002:00001a84       ?SDMA_PI_DMAREQ52_MUX3@@3UOBSERVE_ENTRY@@A 1001fa84     shell.obj
 0002:00001a98       ?SDMA_PI_DMAREQ53_MUX3@@3UOBSERVE_ENTRY@@A 1001fa98     shell.obj
 0002:00001aac       ?SDMA_PI_DMAREQ54_MUX3@@3UOBSERVE_ENTRY@@A 1001faac     shell.obj
 0002:00001ac0       ?SDMA_PI_DMAREQ55_MUX3@@3UOBSERVE_ENTRY@@A 1001fac0     shell.obj
 0002:00001ad4       ?SDMA_PI_DMAREQ56_MUX3@@3UOBSERVE_ENTRY@@A 1001fad4     shell.obj
 0002:00001ae8       ?SDMA_PI_DMAREQ57_MUX3@@3UOBSERVE_ENTRY@@A 1001fae8     shell.obj
 0002:00001afc       ?SDMA_PI_DMAREQ58_MUX3@@3UOBSERVE_ENTRY@@A 1001fafc     shell.obj
 0002:00001b10       ?SDMA_PI_DMAREQ59_MUX3@@3UOBSERVE_ENTRY@@A 1001fb10     shell.obj
 0002:00001b24       ?SDMA_PI_DMAREQ60_MUX3@@3UOBSERVE_ENTRY@@A 1001fb24     shell.obj
 0002:00001b38       ?SDMA_PI_DMAREQ61_MUX3@@3UOBSERVE_ENTRY@@A 1001fb38     shell.obj
 0002:00001b4c       ?SDMA_PI_DMAREQ62_MUX3@@3UOBSERVE_ENTRY@@A 1001fb4c     shell.obj
 0002:00001b60       ?SDMA_PI_DMAREQ63_MUX3@@3UOBSERVE_ENTRY@@A 1001fb60     shell.obj
 0002:00001b74       ?SDMA_PI_DMAREQ64_MUX3@@3UOBSERVE_ENTRY@@A 1001fb74     shell.obj
 0002:00001b88       ?SDMA_PI_DMAREQ65_MUX3@@3UOBSERVE_ENTRY@@A 1001fb88     shell.obj
 0002:00001b9c       ?SDMA_PI_DMAREQ66_MUX3@@3UOBSERVE_ENTRY@@A 1001fb9c     shell.obj
 0002:00001bb0       ?SDMA_PI_DMAREQ67_MUX3@@3UOBSERVE_ENTRY@@A 1001fbb0     shell.obj
 0002:00001bc4       ?SDMA_PI_DMAREQ68_MUX3@@3UOBSERVE_ENTRY@@A 1001fbc4     shell.obj
 0002:00001bd8       ?SDMA_PI_DMAREQ69_MUX3@@3UOBSERVE_ENTRY@@A 1001fbd8     shell.obj
 0002:00001bec       ?SDMA_PI_DMAREQ70_MUX3@@3UOBSERVE_ENTRY@@A 1001fbec     shell.obj
 0002:00001c00       ?SDMA_PI_DMAREQ71_MUX3@@3UOBSERVE_ENTRY@@A 1001fc00     shell.obj
 0002:00001c14       ?PRCM_L4_ICLK@@3UOBSERVE_ENTRY@@A 1001fc14     shell.obj
 0002:00001c28       ?PRCM_DPLL1_idle@@3UOBSERVE_ENTRY@@A 1001fc28     shell.obj
 0002:00001c3c       ?PRCM_DPLL4_idle@@3UOBSERVE_ENTRY@@A 1001fc3c     shell.obj
 0002:00001c50       ?PRCM_IVA2_forceWakeup@@3UOBSERVE_ENTRY@@A 1001fc50     shell.obj
 0002:00001c64       ?PRCM_CAM_domainNready@@3UOBSERVE_ENTRY@@A 1001fc64     shell.obj
 0002:00001c78       ?PRCM_EMU_forceWakeup@@3UOBSERVE_ENTRY@@A 1001fc78     shell.obj
 0002:00001c8c       ?SEQ_FORCECLKONACK@@3UOBSERVE_ENTRY@@A 1001fc8c     shell.obj
 0002:00001ca0       ?PRCM_CORE_L3_GICLK@@3UOBSERVE_ENTRY@@A 1001fca0     shell.obj
 0002:00001cb4       ?mpu_PIIRQ1_MUX4@@3UOBSERVE_ENTRY@@A 1001fcb4     shell.obj
 0002:00001cc8       ?mpu_PIIRQ2_MUX4@@3UOBSERVE_ENTRY@@A 1001fcc8     shell.obj
 0002:00001cdc       ?mpu_PIIRQ3_MUX4@@3UOBSERVE_ENTRY@@A 1001fcdc     shell.obj
 0002:00001cf0       ?mpu_PIIRQ4_MUX4@@3UOBSERVE_ENTRY@@A 1001fcf0     shell.obj
 0002:00001d04       ?mpu_PIIRQ5_MUX4@@3UOBSERVE_ENTRY@@A 1001fd04     shell.obj
 0002:00001d18       ?mpu_PIIRQ6_MUX4@@3UOBSERVE_ENTRY@@A 1001fd18     shell.obj
 0002:00001d2c       ?mpu_PIIRQ7_MUX4@@3UOBSERVE_ENTRY@@A 1001fd2c     shell.obj
 0002:00001d40       ?mpu_PIIRQ8_MUX4@@3UOBSERVE_ENTRY@@A 1001fd40     shell.obj
 0002:00001d54       ?mpu_PIIRQ9_MUX4@@3UOBSERVE_ENTRY@@A 1001fd54     shell.obj
 0002:00001d68       ?mpu_PIIRQ10_MUX4@@3UOBSERVE_ENTRY@@A 1001fd68     shell.obj
 0002:00001d7c       ?mpu_PIIRQ11_MUX4@@3UOBSERVE_ENTRY@@A 1001fd7c     shell.obj
 0002:00001d90       ?mpu_PIIRQ12_MUX4@@3UOBSERVE_ENTRY@@A 1001fd90     shell.obj
 0002:00001da4       ?mpu_PIIRQ13_MUX4@@3UOBSERVE_ENTRY@@A 1001fda4     shell.obj
 0002:00001db8       ?mpu_PIIRQ14_MUX4@@3UOBSERVE_ENTRY@@A 1001fdb8     shell.obj
 0002:00001dcc       ?mpu_PIIRQ15_MUX4@@3UOBSERVE_ENTRY@@A 1001fdcc     shell.obj
 0002:00001de0       ?mpu_PIIRQ16_MUX4@@3UOBSERVE_ENTRY@@A 1001fde0     shell.obj
 0002:00001df4       ?mpu_PIIRQ17_MUX4@@3UOBSERVE_ENTRY@@A 1001fdf4     shell.obj
 0002:00001e08       ?mpu_PIIRQ18_MUX4@@3UOBSERVE_ENTRY@@A 1001fe08     shell.obj
 0002:00001e1c       ?mpu_PIIRQ19_MUX4@@3UOBSERVE_ENTRY@@A 1001fe1c     shell.obj
 0002:00001e30       ?mpu_PIIRQ20_MUX4@@3UOBSERVE_ENTRY@@A 1001fe30     shell.obj
 0002:00001e44       ?mpu_PIIRQ21_MUX4@@3UOBSERVE_ENTRY@@A 1001fe44     shell.obj
 0002:00001e58       ?mpu_PIIRQ22_MUX4@@3UOBSERVE_ENTRY@@A 1001fe58     shell.obj
 0002:00001e6c       ?mpu_PIIRQ23_MUX4@@3UOBSERVE_ENTRY@@A 1001fe6c     shell.obj
 0002:00001e80       ?mpu_PIIRQ24_MUX4@@3UOBSERVE_ENTRY@@A 1001fe80     shell.obj
 0002:00001e94       ?mpu_PIIRQ25_MUX4@@3UOBSERVE_ENTRY@@A 1001fe94     shell.obj
 0002:00001ea8       ?mpu_PIIRQ26_MUX4@@3UOBSERVE_ENTRY@@A 1001fea8     shell.obj
 0002:00001ebc       ?mpu_PIIRQ27_MUX4@@3UOBSERVE_ENTRY@@A 1001febc     shell.obj
 0002:00001ed0       ?mpu_PIIRQ28_MUX4@@3UOBSERVE_ENTRY@@A 1001fed0     shell.obj
 0002:00001ee4       ?mpu_PIIRQ29_MUX4@@3UOBSERVE_ENTRY@@A 1001fee4     shell.obj
 0002:00001ef8       ?mpu_PIIRQ30_MUX4@@3UOBSERVE_ENTRY@@A 1001fef8     shell.obj
 0002:00001f0c       ?mpu_PIIRQ31_MUX4@@3UOBSERVE_ENTRY@@A 1001ff0c     shell.obj
 0002:00001f20       ?mpu_PIIRQ32_MUX4@@3UOBSERVE_ENTRY@@A 1001ff20     shell.obj
 0002:00001f34       ?mpu_PIIRQ33_MUX4@@3UOBSERVE_ENTRY@@A 1001ff34     shell.obj
 0002:00001f48       ?mpu_PIIRQ34_MUX4@@3UOBSERVE_ENTRY@@A 1001ff48     shell.obj
 0002:00001f5c       ?mpu_PIIRQ35_MUX4@@3UOBSERVE_ENTRY@@A 1001ff5c     shell.obj
 0002:00001f70       ?mpu_PIIRQ36_MUX4@@3UOBSERVE_ENTRY@@A 1001ff70     shell.obj
 0002:00001f84       ?mpu_PIIRQ37_MUX4@@3UOBSERVE_ENTRY@@A 1001ff84     shell.obj
 0002:00001f98       ?mpu_PIIRQ38_MUX4@@3UOBSERVE_ENTRY@@A 1001ff98     shell.obj
 0002:00001fac       ?mpu_PIIRQ39_MUX4@@3UOBSERVE_ENTRY@@A 1001ffac     shell.obj
 0002:00001fc0       ?mpu_PIIRQ40_MUX4@@3UOBSERVE_ENTRY@@A 1001ffc0     shell.obj
 0002:00001fd4       ?mpu_PIIRQ41_MUX4@@3UOBSERVE_ENTRY@@A 1001ffd4     shell.obj
 0002:00001fe8       ?mpu_PIIRQ42_MUX4@@3UOBSERVE_ENTRY@@A 1001ffe8     shell.obj
 0002:00001ffc       ?mpu_PIIRQ43_MUX4@@3UOBSERVE_ENTRY@@A 1001fffc     shell.obj
 0002:00002010       ?mpu_PIIRQ44_MUX4@@3UOBSERVE_ENTRY@@A 10020010     shell.obj
 0002:00002024       ?mpu_PIIRQ45_MUX4@@3UOBSERVE_ENTRY@@A 10020024     shell.obj
 0002:00002038       ?mpu_PIIRQ46_MUX4@@3UOBSERVE_ENTRY@@A 10020038     shell.obj
 0002:0000204c       ?mpu_PIIRQ47_MUX4@@3UOBSERVE_ENTRY@@A 1002004c     shell.obj
 0002:00002060       ?mpu_PIIRQ48_MUX4@@3UOBSERVE_ENTRY@@A 10020060     shell.obj
 0002:00002074       ?mpu_PIIRQ49_MUX4@@3UOBSERVE_ENTRY@@A 10020074     shell.obj
 0002:00002088       ?mpu_PIIRQ50_MUX4@@3UOBSERVE_ENTRY@@A 10020088     shell.obj
 0002:0000209c       ?mpu_PIIRQ51_MUX4@@3UOBSERVE_ENTRY@@A 1002009c     shell.obj
 0002:000020b0       ?mpu_PIIRQ52_MUX4@@3UOBSERVE_ENTRY@@A 100200b0     shell.obj
 0002:000020c4       ?mpu_PIIRQ53_MUX4@@3UOBSERVE_ENTRY@@A 100200c4     shell.obj
 0002:000020d8       ?mpu_PIIRQ54_MUX4@@3UOBSERVE_ENTRY@@A 100200d8     shell.obj
 0002:000020ec       ?mpu_PIIRQ55_MUX4@@3UOBSERVE_ENTRY@@A 100200ec     shell.obj
 0002:00002100       ?mpu_PIIRQ56_MUX4@@3UOBSERVE_ENTRY@@A 10020100     shell.obj
 0002:00002114       ?mpu_PIIRQ57_MUX4@@3UOBSERVE_ENTRY@@A 10020114     shell.obj
 0002:00002128       ?mpu_PIIRQ58_MUX4@@3UOBSERVE_ENTRY@@A 10020128     shell.obj
 0002:0000213c       ?mpu_PIIRQ59_MUX4@@3UOBSERVE_ENTRY@@A 1002013c     shell.obj
 0002:00002150       ?mpu_PIIRQ60_MUX4@@3UOBSERVE_ENTRY@@A 10020150     shell.obj
 0002:00002164       ?mpu_PIIRQ61_MUX4@@3UOBSERVE_ENTRY@@A 10020164     shell.obj
 0002:00002178       ?mpu_PIIRQ62_MUX4@@3UOBSERVE_ENTRY@@A 10020178     shell.obj
 0002:0000218c       ?mpu_PIIRQ63_MUX4@@3UOBSERVE_ENTRY@@A 1002018c     shell.obj
 0002:000021a0       ?mpu_PIIRQ64_MUX4@@3UOBSERVE_ENTRY@@A 100201a0     shell.obj
 0002:000021b4       ?mpu_PIIRQ65_MUX4@@3UOBSERVE_ENTRY@@A 100201b4     shell.obj
 0002:000021c8       ?mpu_PIIRQ66_MUX4@@3UOBSERVE_ENTRY@@A 100201c8     shell.obj
 0002:000021dc       ?mpu_PIIRQ67_MUX4@@3UOBSERVE_ENTRY@@A 100201dc     shell.obj
 0002:000021f0       ?mpu_PIIRQ68_MUX4@@3UOBSERVE_ENTRY@@A 100201f0     shell.obj
 0002:00002204       ?mpu_PIIRQ69_MUX4@@3UOBSERVE_ENTRY@@A 10020204     shell.obj
 0002:00002218       ?mpu_PIIRQ70_MUX4@@3UOBSERVE_ENTRY@@A 10020218     shell.obj
 0002:0000222c       ?mpu_PIIRQ71_MUX4@@3UOBSERVE_ENTRY@@A 1002022c     shell.obj
 0002:00002240       ?mpu_PIIRQ72_MUX4@@3UOBSERVE_ENTRY@@A 10020240     shell.obj
 0002:00002254       ?mpu_PIIRQ73_MUX4@@3UOBSERVE_ENTRY@@A 10020254     shell.obj
 0002:00002268       ?mpu_PIIRQ74_MUX4@@3UOBSERVE_ENTRY@@A 10020268     shell.obj
 0002:0000227c       ?mpu_PIIRQ75_MUX4@@3UOBSERVE_ENTRY@@A 1002027c     shell.obj
 0002:00002290       ?mpu_PIIRQ76_MUX4@@3UOBSERVE_ENTRY@@A 10020290     shell.obj
 0002:000022a4       ?mpu_PIIRQ77_MUX4@@3UOBSERVE_ENTRY@@A 100202a4     shell.obj
 0002:000022b8       ?mpu_PIIRQ78_MUX4@@3UOBSERVE_ENTRY@@A 100202b8     shell.obj
 0002:000022cc       ?mpu_PIIRQ79_MUX4@@3UOBSERVE_ENTRY@@A 100202cc     shell.obj
 0002:000022e0       ?mpu_PIIRQ80_MUX4@@3UOBSERVE_ENTRY@@A 100202e0     shell.obj
 0002:000022f4       ?mpu_PIIRQ81_MUX4@@3UOBSERVE_ENTRY@@A 100202f4     shell.obj
 0002:00002308       ?mpu_PIIRQ82_MUX4@@3UOBSERVE_ENTRY@@A 10020308     shell.obj
 0002:0000231c       ?mpu_PIIRQ83_MUX4@@3UOBSERVE_ENTRY@@A 1002031c     shell.obj
 0002:00002330       ?mpu_PIIRQ84_MUX4@@3UOBSERVE_ENTRY@@A 10020330     shell.obj
 0002:00002344       ?mpu_PIIRQ85_MUX4@@3UOBSERVE_ENTRY@@A 10020344     shell.obj
 0002:00002358       ?mpu_PIIRQ86_MUX4@@3UOBSERVE_ENTRY@@A 10020358     shell.obj
 0002:0000236c       ?mpu_PIIRQ87_MUX4@@3UOBSERVE_ENTRY@@A 1002036c     shell.obj
 0002:00002380       ?mpu_PIIRQ88_MUX4@@3UOBSERVE_ENTRY@@A 10020380     shell.obj
 0002:00002394       ?mpu_PIIRQ89_MUX4@@3UOBSERVE_ENTRY@@A 10020394     shell.obj
 0002:000023a8       ?mpu_PIIRQ90_MUX4@@3UOBSERVE_ENTRY@@A 100203a8     shell.obj
 0002:000023bc       ?mpu_PIIRQ91_MUX4@@3UOBSERVE_ENTRY@@A 100203bc     shell.obj
 0002:000023d0       ?mpu_PIIRQ92_MUX4@@3UOBSERVE_ENTRY@@A 100203d0     shell.obj
 0002:000023e4       ?mpu_PIIRQ93_MUX4@@3UOBSERVE_ENTRY@@A 100203e4     shell.obj
 0002:000023f8       ?mpu_PIIRQ94_MUX4@@3UOBSERVE_ENTRY@@A 100203f8     shell.obj
 0002:0000240c       ?mpu_PIIRQ95_MUX4@@3UOBSERVE_ENTRY@@A 1002040c     shell.obj
 0002:00002420       ?mpu_PIIRQ96_MUX4@@3UOBSERVE_ENTRY@@A 10020420     shell.obj
 0002:00002434       ?PRCM_RM_ICLK@@3UOBSERVE_ENTRY@@A 10020434     shell.obj
 0002:00002448       ?PRCM_DPLL1_initz@@3UOBSERVE_ENTRY@@A 10020448     shell.obj
 0002:0000245c       ?PRCM_DPLL4_initz@@3UOBSERVE_ENTRY@@A 1002045c     shell.obj
 0002:00002470       ?CM_SysClkIsRunning@@3UOBSERVE_ENTRY@@A 10020470     shell.obj
 0002:00002484       ?PRCM_IVA2_domainNready@@3UOBSERVE_ENTRY@@A 10020484     shell.obj
 0002:00002498       ?PRCM_CAM_forceSleep@@3UOBSERVE_ENTRY@@A 10020498     shell.obj
 0002:000024ac       ?PRCM_EMU_domainNready@@3UOBSERVE_ENTRY@@A 100204ac     shell.obj
 0002:000024c0       ?PRCM_CORE_L4_GICLK@@3UOBSERVE_ENTRY@@A 100204c0     shell.obj
 0002:000024d4       ?mpu_PIIRQ1_MUX5@@3UOBSERVE_ENTRY@@A 100204d4     shell.obj
 0002:000024e8       ?mpu_PIIRQ2_MUX5@@3UOBSERVE_ENTRY@@A 100204e8     shell.obj
 0002:000024fc       ?mpu_PIIRQ3_MUX5@@3UOBSERVE_ENTRY@@A 100204fc     shell.obj
 0002:00002510       ?mpu_PIIRQ4_MUX5@@3UOBSERVE_ENTRY@@A 10020510     shell.obj
 0002:00002524       ?mpu_PIIRQ5_MUX5@@3UOBSERVE_ENTRY@@A 10020524     shell.obj
 0002:00002538       ?mpu_PIIRQ6_MUX5@@3UOBSERVE_ENTRY@@A 10020538     shell.obj
 0002:0000254c       ?mpu_PIIRQ7_MUX5@@3UOBSERVE_ENTRY@@A 1002054c     shell.obj
 0002:00002560       ?mpu_PIIRQ8_MUX5@@3UOBSERVE_ENTRY@@A 10020560     shell.obj
 0002:00002574       ?mpu_PIIRQ9_MUX5@@3UOBSERVE_ENTRY@@A 10020574     shell.obj
 0002:00002588       ?mpu_PIIRQ10_MUX5@@3UOBSERVE_ENTRY@@A 10020588     shell.obj
 0002:0000259c       ?mpu_PIIRQ11_MUX5@@3UOBSERVE_ENTRY@@A 1002059c     shell.obj
 0002:000025b0       ?mpu_PIIRQ12_MUX5@@3UOBSERVE_ENTRY@@A 100205b0     shell.obj
 0002:000025c4       ?mpu_PIIRQ13_MUX5@@3UOBSERVE_ENTRY@@A 100205c4     shell.obj
 0002:000025d8       ?mpu_PIIRQ14_MUX5@@3UOBSERVE_ENTRY@@A 100205d8     shell.obj
 0002:000025ec       ?mpu_PIIRQ15_MUX5@@3UOBSERVE_ENTRY@@A 100205ec     shell.obj
 0002:00002600       ?mpu_PIIRQ16_MUX5@@3UOBSERVE_ENTRY@@A 10020600     shell.obj
 0002:00002614       ?mpu_PIIRQ17_MUX5@@3UOBSERVE_ENTRY@@A 10020614     shell.obj
 0002:00002628       ?mpu_PIIRQ18_MUX5@@3UOBSERVE_ENTRY@@A 10020628     shell.obj
 0002:0000263c       ?mpu_PIIRQ19_MUX5@@3UOBSERVE_ENTRY@@A 1002063c     shell.obj
 0002:00002650       ?mpu_PIIRQ20_MUX5@@3UOBSERVE_ENTRY@@A 10020650     shell.obj
 0002:00002664       ?mpu_PIIRQ21_MUX5@@3UOBSERVE_ENTRY@@A 10020664     shell.obj
 0002:00002678       ?mpu_PIIRQ22_MUX5@@3UOBSERVE_ENTRY@@A 10020678     shell.obj
 0002:0000268c       ?mpu_PIIRQ23_MUX5@@3UOBSERVE_ENTRY@@A 1002068c     shell.obj
 0002:000026a0       ?mpu_PIIRQ24_MUX5@@3UOBSERVE_ENTRY@@A 100206a0     shell.obj
 0002:000026b4       ?mpu_PIIRQ25_MUX5@@3UOBSERVE_ENTRY@@A 100206b4     shell.obj
 0002:000026c8       ?mpu_PIIRQ26_MUX5@@3UOBSERVE_ENTRY@@A 100206c8     shell.obj
 0002:000026dc       ?mpu_PIIRQ27_MUX5@@3UOBSERVE_ENTRY@@A 100206dc     shell.obj
 0002:000026f0       ?mpu_PIIRQ28_MUX5@@3UOBSERVE_ENTRY@@A 100206f0     shell.obj
 0002:00002704       ?mpu_PIIRQ29_MUX5@@3UOBSERVE_ENTRY@@A 10020704     shell.obj
 0002:00002718       ?mpu_PIIRQ30_MUX5@@3UOBSERVE_ENTRY@@A 10020718     shell.obj
 0002:0000272c       ?mpu_PIIRQ31_MUX5@@3UOBSERVE_ENTRY@@A 1002072c     shell.obj
 0002:00002740       ?mpu_PIIRQ32_MUX5@@3UOBSERVE_ENTRY@@A 10020740     shell.obj
 0002:00002754       ?mpu_PIIRQ33_MUX5@@3UOBSERVE_ENTRY@@A 10020754     shell.obj
 0002:00002768       ?mpu_PIIRQ34_MUX5@@3UOBSERVE_ENTRY@@A 10020768     shell.obj
 0002:0000277c       ?mpu_PIIRQ35_MUX5@@3UOBSERVE_ENTRY@@A 1002077c     shell.obj
 0002:00002790       ?mpu_PIIRQ36_MUX5@@3UOBSERVE_ENTRY@@A 10020790     shell.obj
 0002:000027a4       ?mpu_PIIRQ37_MUX5@@3UOBSERVE_ENTRY@@A 100207a4     shell.obj
 0002:000027b8       ?mpu_PIIRQ38_MUX5@@3UOBSERVE_ENTRY@@A 100207b8     shell.obj
 0002:000027cc       ?mpu_PIIRQ39_MUX5@@3UOBSERVE_ENTRY@@A 100207cc     shell.obj
 0002:000027e0       ?mpu_PIIRQ40_MUX5@@3UOBSERVE_ENTRY@@A 100207e0     shell.obj
 0002:000027f4       ?mpu_PIIRQ41_MUX5@@3UOBSERVE_ENTRY@@A 100207f4     shell.obj
 0002:00002808       ?mpu_PIIRQ42_MUX5@@3UOBSERVE_ENTRY@@A 10020808     shell.obj
 0002:0000281c       ?mpu_PIIRQ43_MUX5@@3UOBSERVE_ENTRY@@A 1002081c     shell.obj
 0002:00002830       ?mpu_PIIRQ44_MUX5@@3UOBSERVE_ENTRY@@A 10020830     shell.obj
 0002:00002844       ?mpu_PIIRQ45_MUX5@@3UOBSERVE_ENTRY@@A 10020844     shell.obj
 0002:00002858       ?mpu_PIIRQ46_MUX5@@3UOBSERVE_ENTRY@@A 10020858     shell.obj
 0002:0000286c       ?mpu_PIIRQ47_MUX5@@3UOBSERVE_ENTRY@@A 1002086c     shell.obj
 0002:00002880       ?mpu_PIIRQ48_MUX5@@3UOBSERVE_ENTRY@@A 10020880     shell.obj
 0002:00002894       ?mpu_PIIRQ49_MUX5@@3UOBSERVE_ENTRY@@A 10020894     shell.obj
 0002:000028a8       ?mpu_PIIRQ50_MUX5@@3UOBSERVE_ENTRY@@A 100208a8     shell.obj
 0002:000028bc       ?mpu_PIIRQ51_MUX5@@3UOBSERVE_ENTRY@@A 100208bc     shell.obj
 0002:000028d0       ?mpu_PIIRQ52_MUX5@@3UOBSERVE_ENTRY@@A 100208d0     shell.obj
 0002:000028e4       ?mpu_PIIRQ53_MUX5@@3UOBSERVE_ENTRY@@A 100208e4     shell.obj
 0002:000028f8       ?mpu_PIIRQ54_MUX5@@3UOBSERVE_ENTRY@@A 100208f8     shell.obj
 0002:0000290c       ?mpu_PIIRQ55_MUX5@@3UOBSERVE_ENTRY@@A 1002090c     shell.obj
 0002:00002920       ?mpu_PIIRQ56_MUX5@@3UOBSERVE_ENTRY@@A 10020920     shell.obj
 0002:00002934       ?mpu_PIIRQ57_MUX5@@3UOBSERVE_ENTRY@@A 10020934     shell.obj
 0002:00002948       ?mpu_PIIRQ58_MUX5@@3UOBSERVE_ENTRY@@A 10020948     shell.obj
 0002:0000295c       ?mpu_PIIRQ59_MUX5@@3UOBSERVE_ENTRY@@A 1002095c     shell.obj
 0002:00002970       ?mpu_PIIRQ60_MUX5@@3UOBSERVE_ENTRY@@A 10020970     shell.obj
 0002:00002984       ?mpu_PIIRQ61_MUX5@@3UOBSERVE_ENTRY@@A 10020984     shell.obj
 0002:00002998       ?mpu_PIIRQ62_MUX5@@3UOBSERVE_ENTRY@@A 10020998     shell.obj
 0002:000029ac       ?mpu_PIIRQ63_MUX5@@3UOBSERVE_ENTRY@@A 100209ac     shell.obj
 0002:000029c0       ?mpu_PIIRQ64_MUX5@@3UOBSERVE_ENTRY@@A 100209c0     shell.obj
 0002:000029d4       ?mpu_PIIRQ65_MUX5@@3UOBSERVE_ENTRY@@A 100209d4     shell.obj
 0002:000029e8       ?mpu_PIIRQ66_MUX5@@3UOBSERVE_ENTRY@@A 100209e8     shell.obj
 0002:000029fc       ?mpu_PIIRQ67_MUX5@@3UOBSERVE_ENTRY@@A 100209fc     shell.obj
 0002:00002a10       ?mpu_PIIRQ68_MUX5@@3UOBSERVE_ENTRY@@A 10020a10     shell.obj
 0002:00002a24       ?mpu_PIIRQ69_MUX5@@3UOBSERVE_ENTRY@@A 10020a24     shell.obj
 0002:00002a38       ?mpu_PIIRQ70_MUX5@@3UOBSERVE_ENTRY@@A 10020a38     shell.obj
 0002:00002a4c       ?mpu_PIIRQ71_MUX5@@3UOBSERVE_ENTRY@@A 10020a4c     shell.obj
 0002:00002a60       ?mpu_PIIRQ72_MUX5@@3UOBSERVE_ENTRY@@A 10020a60     shell.obj
 0002:00002a74       ?mpu_PIIRQ73_MUX5@@3UOBSERVE_ENTRY@@A 10020a74     shell.obj
 0002:00002a88       ?mpu_PIIRQ74_MUX5@@3UOBSERVE_ENTRY@@A 10020a88     shell.obj
 0002:00002a9c       ?mpu_PIIRQ75_MUX5@@3UOBSERVE_ENTRY@@A 10020a9c     shell.obj
 0002:00002ab0       ?mpu_PIIRQ76_MUX5@@3UOBSERVE_ENTRY@@A 10020ab0     shell.obj
 0002:00002ac4       ?mpu_PIIRQ77_MUX5@@3UOBSERVE_ENTRY@@A 10020ac4     shell.obj
 0002:00002ad8       ?mpu_PIIRQ78_MUX5@@3UOBSERVE_ENTRY@@A 10020ad8     shell.obj
 0002:00002aec       ?mpu_PIIRQ79_MUX5@@3UOBSERVE_ENTRY@@A 10020aec     shell.obj
 0002:00002b00       ?mpu_PIIRQ80_MUX5@@3UOBSERVE_ENTRY@@A 10020b00     shell.obj
 0002:00002b14       ?mpu_PIIRQ81_MUX5@@3UOBSERVE_ENTRY@@A 10020b14     shell.obj
 0002:00002b28       ?mpu_PIIRQ82_MUX5@@3UOBSERVE_ENTRY@@A 10020b28     shell.obj
 0002:00002b3c       ?mpu_PIIRQ83_MUX5@@3UOBSERVE_ENTRY@@A 10020b3c     shell.obj
 0002:00002b50       ?mpu_PIIRQ84_MUX5@@3UOBSERVE_ENTRY@@A 10020b50     shell.obj
 0002:00002b64       ?mpu_PIIRQ85_MUX5@@3UOBSERVE_ENTRY@@A 10020b64     shell.obj
 0002:00002b78       ?mpu_PIIRQ86_MUX5@@3UOBSERVE_ENTRY@@A 10020b78     shell.obj
 0002:00002b8c       ?mpu_PIIRQ87_MUX5@@3UOBSERVE_ENTRY@@A 10020b8c     shell.obj
 0002:00002ba0       ?mpu_PIIRQ88_MUX5@@3UOBSERVE_ENTRY@@A 10020ba0     shell.obj
 0002:00002bb4       ?mpu_PIIRQ89_MUX5@@3UOBSERVE_ENTRY@@A 10020bb4     shell.obj
 0002:00002bc8       ?mpu_PIIRQ90_MUX5@@3UOBSERVE_ENTRY@@A 10020bc8     shell.obj
 0002:00002bdc       ?mpu_PIIRQ91_MUX5@@3UOBSERVE_ENTRY@@A 10020bdc     shell.obj
 0002:00002bf0       ?mpu_PIIRQ92_MUX5@@3UOBSERVE_ENTRY@@A 10020bf0     shell.obj
 0002:00002c04       ?mpu_PIIRQ93_MUX5@@3UOBSERVE_ENTRY@@A 10020c04     shell.obj
 0002:00002c18       ?mpu_PIIRQ94_MUX5@@3UOBSERVE_ENTRY@@A 10020c18     shell.obj
 0002:00002c2c       ?mpu_PIIRQ95_MUX5@@3UOBSERVE_ENTRY@@A 10020c2c     shell.obj
 0002:00002c40       ?mpu_PIIRQ96_MUX5@@3UOBSERVE_ENTRY@@A 10020c40     shell.obj
 0002:00002c54       ?PRCM_FUNC_96M_FCLK@@3UOBSERVE_ENTRY@@A 10020c54     shell.obj
 0002:00002c68       ?PRCM_DPLL1_enable@@3UOBSERVE_ENTRY@@A 10020c68     shell.obj
 0002:00002c7c       ?PRCM_DPLL4_enable@@3UOBSERVE_ENTRY@@A 10020c7c     shell.obj
 0002:00002c90       ?PRCM_WKUP_IClkIsRunning@@3UOBSERVE_ENTRY@@A 10020c90     shell.obj
 0002:00002ca4       ?PRCM_IVA2_forceSleep@@3UOBSERVE_ENTRY@@A 10020ca4     shell.obj
 0002:00002cb8       ?PRCM_CAM_domainFreeze_MUX6@@3UOBSERVE_ENTRY@@A 10020cb8     shell.obj
 0002:00002ccc       ?PRCM_USBHOST_domainIsidle@@3UOBSERVE_ENTRY@@A 10020ccc     shell.obj
 0002:00002ce0       ?PRCM_DSS_GICLK@@3UOBSERVE_ENTRY@@A 10020ce0     shell.obj
 0002:00002cf4       ?PRCM_SECURITY_L3_GICLK@@3UOBSERVE_ENTRY@@A 10020cf4     shell.obj
 0002:00002d08       ?PRCM_DPLL1_LOSSREF@@3UOBSERVE_ENTRY@@A 10020d08     shell.obj
 0002:00002d1c       ?PRCM_DPLL2_LOSSREF@@3UOBSERVE_ENTRY@@A 10020d1c     shell.obj
 0002:00002d30       ?PRCM_DPLL3_LOSSREF@@3UOBSERVE_ENTRY@@A 10020d30     shell.obj
 0002:00002d44       ?PRCM_DPLL4_LOSSREF@@3UOBSERVE_ENTRY@@A 10020d44     shell.obj
 0002:00002d58       ?mpu_PIIRQ1_MUX6@@3UOBSERVE_ENTRY@@A 10020d58     shell.obj
 0002:00002d6c       ?mpu_PIIRQ2_MUX6@@3UOBSERVE_ENTRY@@A 10020d6c     shell.obj
 0002:00002d80       ?mpu_PIIRQ3_MUX6@@3UOBSERVE_ENTRY@@A 10020d80     shell.obj
 0002:00002d94       ?mpu_PIIRQ4_MUX6@@3UOBSERVE_ENTRY@@A 10020d94     shell.obj
 0002:00002da8       ?mpu_PIIRQ5_MUX6@@3UOBSERVE_ENTRY@@A 10020da8     shell.obj
 0002:00002dbc       ?mpu_PIIRQ6_MUX6@@3UOBSERVE_ENTRY@@A 10020dbc     shell.obj
 0002:00002dd0       ?mpu_PIIRQ7_MUX6@@3UOBSERVE_ENTRY@@A 10020dd0     shell.obj
 0002:00002de4       ?mpu_PIIRQ8_MUX6@@3UOBSERVE_ENTRY@@A 10020de4     shell.obj
 0002:00002df8       ?mpu_PIIRQ9_MUX6@@3UOBSERVE_ENTRY@@A 10020df8     shell.obj
 0002:00002e0c       ?mpu_PIIRQ10_MUX6@@3UOBSERVE_ENTRY@@A 10020e0c     shell.obj
 0002:00002e20       ?mpu_PIIRQ11_MUX6@@3UOBSERVE_ENTRY@@A 10020e20     shell.obj
 0002:00002e34       ?mpu_PIIRQ12_MUX6@@3UOBSERVE_ENTRY@@A 10020e34     shell.obj
 0002:00002e48       ?mpu_PIIRQ13_MUX6@@3UOBSERVE_ENTRY@@A 10020e48     shell.obj
 0002:00002e5c       ?mpu_PIIRQ14_MUX6@@3UOBSERVE_ENTRY@@A 10020e5c     shell.obj
 0002:00002e70       ?mpu_PIIRQ15_MUX6@@3UOBSERVE_ENTRY@@A 10020e70     shell.obj
 0002:00002e84       ?mpu_PIIRQ16_MUX6@@3UOBSERVE_ENTRY@@A 10020e84     shell.obj
 0002:00002e98       ?mpu_PIIRQ17_MUX6@@3UOBSERVE_ENTRY@@A 10020e98     shell.obj
 0002:00002eac       ?mpu_PIIRQ18_MUX6@@3UOBSERVE_ENTRY@@A 10020eac     shell.obj
 0002:00002ec0       ?mpu_PIIRQ19_MUX6@@3UOBSERVE_ENTRY@@A 10020ec0     shell.obj
 0002:00002ed4       ?mpu_PIIRQ20_MUX6@@3UOBSERVE_ENTRY@@A 10020ed4     shell.obj
 0002:00002ee8       ?mpu_PIIRQ21_MUX6@@3UOBSERVE_ENTRY@@A 10020ee8     shell.obj
 0002:00002efc       ?mpu_PIIRQ22_MUX6@@3UOBSERVE_ENTRY@@A 10020efc     shell.obj
 0002:00002f10       ?mpu_PIIRQ23_MUX6@@3UOBSERVE_ENTRY@@A 10020f10     shell.obj
 0002:00002f24       ?mpu_PIIRQ24_MUX6@@3UOBSERVE_ENTRY@@A 10020f24     shell.obj
 0002:00002f38       ?mpu_PIIRQ25_MUX6@@3UOBSERVE_ENTRY@@A 10020f38     shell.obj
 0002:00002f4c       ?mpu_PIIRQ26_MUX6@@3UOBSERVE_ENTRY@@A 10020f4c     shell.obj
 0002:00002f60       ?mpu_PIIRQ27_MUX6@@3UOBSERVE_ENTRY@@A 10020f60     shell.obj
 0002:00002f74       ?mpu_PIIRQ28_MUX6@@3UOBSERVE_ENTRY@@A 10020f74     shell.obj
 0002:00002f88       ?mpu_PIIRQ29_MUX6@@3UOBSERVE_ENTRY@@A 10020f88     shell.obj
 0002:00002f9c       ?mpu_PIIRQ30_MUX6@@3UOBSERVE_ENTRY@@A 10020f9c     shell.obj
 0002:00002fb0       ?mpu_PIIRQ31_MUX6@@3UOBSERVE_ENTRY@@A 10020fb0     shell.obj
 0002:00002fc4       ?mpu_PIIRQ32_MUX6@@3UOBSERVE_ENTRY@@A 10020fc4     shell.obj
 0002:00002fd8       ?mpu_PIIRQ33_MUX6@@3UOBSERVE_ENTRY@@A 10020fd8     shell.obj
 0002:00002fec       ?mpu_PIIRQ34_MUX6@@3UOBSERVE_ENTRY@@A 10020fec     shell.obj
 0002:00003000       ?mpu_PIIRQ35_MUX6@@3UOBSERVE_ENTRY@@A 10021000     shell.obj
 0002:00003014       ?mpu_PIIRQ36_MUX6@@3UOBSERVE_ENTRY@@A 10021014     shell.obj
 0002:00003028       ?mpu_PIIRQ37_MUX6@@3UOBSERVE_ENTRY@@A 10021028     shell.obj
 0002:0000303c       ?mpu_PIIRQ38_MUX6@@3UOBSERVE_ENTRY@@A 1002103c     shell.obj
 0002:00003050       ?mpu_PIIRQ39_MUX6@@3UOBSERVE_ENTRY@@A 10021050     shell.obj
 0002:00003064       ?mpu_PIIRQ40_MUX6@@3UOBSERVE_ENTRY@@A 10021064     shell.obj
 0002:00003078       ?mpu_PIIRQ41_MUX6@@3UOBSERVE_ENTRY@@A 10021078     shell.obj
 0002:0000308c       ?mpu_PIIRQ42_MUX6@@3UOBSERVE_ENTRY@@A 1002108c     shell.obj
 0002:000030a0       ?mpu_PIIRQ43_MUX6@@3UOBSERVE_ENTRY@@A 100210a0     shell.obj
 0002:000030b4       ?mpu_PIIRQ44_MUX6@@3UOBSERVE_ENTRY@@A 100210b4     shell.obj
 0002:000030c8       ?mpu_PIIRQ45_MUX6@@3UOBSERVE_ENTRY@@A 100210c8     shell.obj
 0002:000030dc       ?mpu_PIIRQ46_MUX6@@3UOBSERVE_ENTRY@@A 100210dc     shell.obj
 0002:000030f0       ?mpu_PIIRQ47_MUX6@@3UOBSERVE_ENTRY@@A 100210f0     shell.obj
 0002:00003104       ?mpu_PIIRQ48_MUX6@@3UOBSERVE_ENTRY@@A 10021104     shell.obj
 0002:00003118       ?mpu_PIIRQ49_MUX6@@3UOBSERVE_ENTRY@@A 10021118     shell.obj
 0002:0000312c       ?mpu_PIIRQ50_MUX6@@3UOBSERVE_ENTRY@@A 1002112c     shell.obj
 0002:00003140       ?mpu_PIIRQ51_MUX6@@3UOBSERVE_ENTRY@@A 10021140     shell.obj
 0002:00003154       ?mpu_PIIRQ52_MUX6@@3UOBSERVE_ENTRY@@A 10021154     shell.obj
 0002:00003168       ?mpu_PIIRQ53_MUX6@@3UOBSERVE_ENTRY@@A 10021168     shell.obj
 0002:0000317c       ?mpu_PIIRQ54_MUX6@@3UOBSERVE_ENTRY@@A 1002117c     shell.obj
 0002:00003190       ?mpu_PIIRQ55_MUX6@@3UOBSERVE_ENTRY@@A 10021190     shell.obj
 0002:000031a4       ?mpu_PIIRQ56_MUX6@@3UOBSERVE_ENTRY@@A 100211a4     shell.obj
 0002:000031b8       ?mpu_PIIRQ57_MUX6@@3UOBSERVE_ENTRY@@A 100211b8     shell.obj
 0002:000031cc       ?mpu_PIIRQ58_MUX6@@3UOBSERVE_ENTRY@@A 100211cc     shell.obj
 0002:000031e0       ?mpu_PIIRQ59_MUX6@@3UOBSERVE_ENTRY@@A 100211e0     shell.obj
 0002:000031f4       ?mpu_PIIRQ60_MUX6@@3UOBSERVE_ENTRY@@A 100211f4     shell.obj
 0002:00003208       ?mpu_PIIRQ61_MUX6@@3UOBSERVE_ENTRY@@A 10021208     shell.obj
 0002:0000321c       ?mpu_PIIRQ62_MUX6@@3UOBSERVE_ENTRY@@A 1002121c     shell.obj
 0002:00003230       ?mpu_PIIRQ63_MUX6@@3UOBSERVE_ENTRY@@A 10021230     shell.obj
 0002:00003244       ?mpu_PIIRQ64_MUX6@@3UOBSERVE_ENTRY@@A 10021244     shell.obj
 0002:00003258       ?mpu_PIIRQ65_MUX6@@3UOBSERVE_ENTRY@@A 10021258     shell.obj
 0002:0000326c       ?mpu_PIIRQ66_MUX6@@3UOBSERVE_ENTRY@@A 1002126c     shell.obj
 0002:00003280       ?mpu_PIIRQ67_MUX6@@3UOBSERVE_ENTRY@@A 10021280     shell.obj
 0002:00003294       ?mpu_PIIRQ68_MUX6@@3UOBSERVE_ENTRY@@A 10021294     shell.obj
 0002:000032a8       ?mpu_PIIRQ69_MUX6@@3UOBSERVE_ENTRY@@A 100212a8     shell.obj
 0002:000032bc       ?mpu_PIIRQ70_MUX6@@3UOBSERVE_ENTRY@@A 100212bc     shell.obj
 0002:000032d0       ?mpu_PIIRQ71_MUX6@@3UOBSERVE_ENTRY@@A 100212d0     shell.obj
 0002:000032e4       ?mpu_PIIRQ72_MUX6@@3UOBSERVE_ENTRY@@A 100212e4     shell.obj
 0002:000032f8       ?mpu_PIIRQ73_MUX6@@3UOBSERVE_ENTRY@@A 100212f8     shell.obj
 0002:0000330c       ?mpu_PIIRQ74_MUX6@@3UOBSERVE_ENTRY@@A 1002130c     shell.obj
 0002:00003320       ?mpu_PIIRQ75_MUX6@@3UOBSERVE_ENTRY@@A 10021320     shell.obj
 0002:00003334       ?mpu_PIIRQ76_MUX6@@3UOBSERVE_ENTRY@@A 10021334     shell.obj
 0002:00003348       ?mpu_PIIRQ77_MUX6@@3UOBSERVE_ENTRY@@A 10021348     shell.obj
 0002:0000335c       ?mpu_PIIRQ78_MUX6@@3UOBSERVE_ENTRY@@A 1002135c     shell.obj
 0002:00003370       ?mpu_PIIRQ79_MUX6@@3UOBSERVE_ENTRY@@A 10021370     shell.obj
 0002:00003384       ?mpu_PIIRQ80_MUX6@@3UOBSERVE_ENTRY@@A 10021384     shell.obj
 0002:00003398       ?mpu_PIIRQ81_MUX6@@3UOBSERVE_ENTRY@@A 10021398     shell.obj
 0002:000033ac       ?mpu_PIIRQ82_MUX6@@3UOBSERVE_ENTRY@@A 100213ac     shell.obj
 0002:000033c0       ?mpu_PIIRQ83_MUX6@@3UOBSERVE_ENTRY@@A 100213c0     shell.obj
 0002:000033d4       ?mpu_PIIRQ84_MUX6@@3UOBSERVE_ENTRY@@A 100213d4     shell.obj
 0002:000033e8       ?mpu_PIIRQ85_MUX6@@3UOBSERVE_ENTRY@@A 100213e8     shell.obj
 0002:000033fc       ?mpu_PIIRQ86_MUX6@@3UOBSERVE_ENTRY@@A 100213fc     shell.obj
 0002:00003410       ?mpu_PIIRQ87_MUX6@@3UOBSERVE_ENTRY@@A 10021410     shell.obj
 0002:00003424       ?mpu_PIIRQ88_MUX6@@3UOBSERVE_ENTRY@@A 10021424     shell.obj
 0002:00003438       ?mpu_PIIRQ89_MUX6@@3UOBSERVE_ENTRY@@A 10021438     shell.obj
 0002:0000344c       ?mpu_PIIRQ90_MUX6@@3UOBSERVE_ENTRY@@A 1002144c     shell.obj
 0002:00003460       ?mpu_PIIRQ91_MUX6@@3UOBSERVE_ENTRY@@A 10021460     shell.obj
 0002:00003474       ?mpu_PIIRQ92_MUX6@@3UOBSERVE_ENTRY@@A 10021474     shell.obj
 0002:00003488       ?mpu_PIIRQ93_MUX6@@3UOBSERVE_ENTRY@@A 10021488     shell.obj
 0002:0000349c       ?mpu_PIIRQ94_MUX6@@3UOBSERVE_ENTRY@@A 1002149c     shell.obj
 0002:000034b0       ?mpu_PIIRQ95_MUX6@@3UOBSERVE_ENTRY@@A 100214b0     shell.obj
 0002:000034c4       ?mpu_PIIRQ96_MUX6@@3UOBSERVE_ENTRY@@A 100214c4     shell.obj
 0002:000034d8       ?PRCM_FUNC_48M_FCLK@@3UOBSERVE_ENTRY@@A 100214d8     shell.obj
 0002:000034ec       ?PRCM_DPLL1_enablediv@@3UOBSERVE_ENTRY@@A 100214ec     shell.obj
 0002:00003500       ?PRCM_DPLL4_enablediv@@3UOBSERVE_ENTRY@@A 10021500     shell.obj
 0002:00003514       ?PRCM_SRL4_IClkIsRunning@@3UOBSERVE_ENTRY@@A 10021514     shell.obj
 0002:00003528       ?PRCM_IVA2_domainFreeze_MUX7@@3UOBSERVE_ENTRY@@A 10021528     shell.obj
 0002:0000353c       ?PRCM_DSS_domainIsIdle@@3UOBSERVE_ENTRY@@A 1002153c     shell.obj
 0002:00003550       ?PRCM_USBHOST_forceWakeup@@3UOBSERVE_ENTRY@@A 10021550     shell.obj
 0002:00003564       ?PRCM_CAM_GICLK@@3UOBSERVE_ENTRY@@A 10021564     shell.obj
 0002:00003578       ?PRCM_SECURITY_L4_GICLK@@3UOBSERVE_ENTRY@@A 10021578     shell.obj
 0002:0000358c       ?PRCM_DPLL1_BREAKLOCKZ@@3UOBSERVE_ENTRY@@A 1002158c     shell.obj
 0002:000035a0       ?PRCM_DPLL2_BREAKLOCKZ@@3UOBSERVE_ENTRY@@A 100215a0     shell.obj
 0002:000035b4       ?PRCM_DPLL3_BREAKLOCKZ@@3UOBSERVE_ENTRY@@A 100215b4     shell.obj
 0002:000035c8       ?PRCM_DPLL4_BREAKLOCKZ@@3UOBSERVE_ENTRY@@A 100215c8     shell.obj
 0002:000035dc       ?mpu_PIIRQ1_MUX7@@3UOBSERVE_ENTRY@@A 100215dc     shell.obj
 0002:000035f0       ?mpu_PIIRQ2_MUX7@@3UOBSERVE_ENTRY@@A 100215f0     shell.obj
 0002:00003604       ?mpu_PIIRQ3_MUX7@@3UOBSERVE_ENTRY@@A 10021604     shell.obj
 0002:00003618       ?mpu_PIIRQ4_MUX7@@3UOBSERVE_ENTRY@@A 10021618     shell.obj
 0002:0000362c       ?mpu_PIIRQ5_MUX7@@3UOBSERVE_ENTRY@@A 1002162c     shell.obj
 0002:00003640       ?mpu_PIIRQ6_MUX7@@3UOBSERVE_ENTRY@@A 10021640     shell.obj
 0002:00003654       ?mpu_PIIRQ7_MUX7@@3UOBSERVE_ENTRY@@A 10021654     shell.obj
 0002:00003668       ?mpu_PIIRQ8_MUX7@@3UOBSERVE_ENTRY@@A 10021668     shell.obj
 0002:0000367c       ?mpu_PIIRQ9_MUX7@@3UOBSERVE_ENTRY@@A 1002167c     shell.obj
 0002:00003690       ?mpu_PIIRQ10_MUX7@@3UOBSERVE_ENTRY@@A 10021690     shell.obj
 0002:000036a4       ?mpu_PIIRQ11_MUX7@@3UOBSERVE_ENTRY@@A 100216a4     shell.obj
 0002:000036b8       ?mpu_PIIRQ12_MUX7@@3UOBSERVE_ENTRY@@A 100216b8     shell.obj
 0002:000036cc       ?mpu_PIIRQ13_MUX7@@3UOBSERVE_ENTRY@@A 100216cc     shell.obj
 0002:000036e0       ?mpu_PIIRQ14_MUX7@@3UOBSERVE_ENTRY@@A 100216e0     shell.obj
 0002:000036f4       ?mpu_PIIRQ15_MUX7@@3UOBSERVE_ENTRY@@A 100216f4     shell.obj
 0002:00003708       ?mpu_PIIRQ16_MUX7@@3UOBSERVE_ENTRY@@A 10021708     shell.obj
 0002:0000371c       ?mpu_PIIRQ17_MUX7@@3UOBSERVE_ENTRY@@A 1002171c     shell.obj
 0002:00003730       ?mpu_PIIRQ18_MUX7@@3UOBSERVE_ENTRY@@A 10021730     shell.obj
 0002:00003744       ?mpu_PIIRQ19_MUX7@@3UOBSERVE_ENTRY@@A 10021744     shell.obj
 0002:00003758       ?mpu_PIIRQ20_MUX7@@3UOBSERVE_ENTRY@@A 10021758     shell.obj
 0002:0000376c       ?mpu_PIIRQ21_MUX7@@3UOBSERVE_ENTRY@@A 1002176c     shell.obj
 0002:00003780       ?mpu_PIIRQ22_MUX7@@3UOBSERVE_ENTRY@@A 10021780     shell.obj
 0002:00003794       ?mpu_PIIRQ23_MUX7@@3UOBSERVE_ENTRY@@A 10021794     shell.obj
 0002:000037a8       ?mpu_PIIRQ24_MUX7@@3UOBSERVE_ENTRY@@A 100217a8     shell.obj
 0002:000037bc       ?mpu_PIIRQ25_MUX7@@3UOBSERVE_ENTRY@@A 100217bc     shell.obj
 0002:000037d0       ?mpu_PIIRQ26_MUX7@@3UOBSERVE_ENTRY@@A 100217d0     shell.obj
 0002:000037e4       ?mpu_PIIRQ27_MUX7@@3UOBSERVE_ENTRY@@A 100217e4     shell.obj
 0002:000037f8       ?mpu_PIIRQ28_MUX7@@3UOBSERVE_ENTRY@@A 100217f8     shell.obj
 0002:0000380c       ?mpu_PIIRQ29_MUX7@@3UOBSERVE_ENTRY@@A 1002180c     shell.obj
 0002:00003820       ?mpu_PIIRQ30_MUX7@@3UOBSERVE_ENTRY@@A 10021820     shell.obj
 0002:00003834       ?mpu_PIIRQ31_MUX7@@3UOBSERVE_ENTRY@@A 10021834     shell.obj
 0002:00003848       ?mpu_PIIRQ32_MUX7@@3UOBSERVE_ENTRY@@A 10021848     shell.obj
 0002:0000385c       ?mpu_PIIRQ33_MUX7@@3UOBSERVE_ENTRY@@A 1002185c     shell.obj
 0002:00003870       ?mpu_PIIRQ34_MUX7@@3UOBSERVE_ENTRY@@A 10021870     shell.obj
 0002:00003884       ?mpu_PIIRQ35_MUX7@@3UOBSERVE_ENTRY@@A 10021884     shell.obj
 0002:00003898       ?mpu_PIIRQ36_MUX7@@3UOBSERVE_ENTRY@@A 10021898     shell.obj
 0002:000038ac       ?mpu_PIIRQ37_MUX7@@3UOBSERVE_ENTRY@@A 100218ac     shell.obj
 0002:000038c0       ?mpu_PIIRQ38_MUX7@@3UOBSERVE_ENTRY@@A 100218c0     shell.obj
 0002:000038d4       ?mpu_PIIRQ39_MUX7@@3UOBSERVE_ENTRY@@A 100218d4     shell.obj
 0002:000038e8       ?mpu_PIIRQ40_MUX7@@3UOBSERVE_ENTRY@@A 100218e8     shell.obj
 0002:000038fc       ?mpu_PIIRQ41_MUX7@@3UOBSERVE_ENTRY@@A 100218fc     shell.obj
 0002:00003910       ?mpu_PIIRQ42_MUX7@@3UOBSERVE_ENTRY@@A 10021910     shell.obj
 0002:00003924       ?mpu_PIIRQ43_MUX7@@3UOBSERVE_ENTRY@@A 10021924     shell.obj
 0002:00003938       ?mpu_PIIRQ44_MUX7@@3UOBSERVE_ENTRY@@A 10021938     shell.obj
 0002:0000394c       ?mpu_PIIRQ45_MUX7@@3UOBSERVE_ENTRY@@A 1002194c     shell.obj
 0002:00003960       ?mpu_PIIRQ46_MUX7@@3UOBSERVE_ENTRY@@A 10021960     shell.obj
 0002:00003974       ?mpu_PIIRQ47_MUX7@@3UOBSERVE_ENTRY@@A 10021974     shell.obj
 0002:00003988       ?mpu_PIIRQ48_MUX7@@3UOBSERVE_ENTRY@@A 10021988     shell.obj
 0002:0000399c       ?mpu_PIIRQ49_MUX7@@3UOBSERVE_ENTRY@@A 1002199c     shell.obj
 0002:000039b0       ?mpu_PIIRQ50_MUX7@@3UOBSERVE_ENTRY@@A 100219b0     shell.obj
 0002:000039c4       ?mpu_PIIRQ51_MUX7@@3UOBSERVE_ENTRY@@A 100219c4     shell.obj
 0002:000039d8       ?mpu_PIIRQ52_MUX7@@3UOBSERVE_ENTRY@@A 100219d8     shell.obj
 0002:000039ec       ?mpu_PIIRQ53_MUX7@@3UOBSERVE_ENTRY@@A 100219ec     shell.obj
 0002:00003a00       ?mpu_PIIRQ54_MUX7@@3UOBSERVE_ENTRY@@A 10021a00     shell.obj
 0002:00003a14       ?mpu_PIIRQ55_MUX7@@3UOBSERVE_ENTRY@@A 10021a14     shell.obj
 0002:00003a28       ?mpu_PIIRQ56_MUX7@@3UOBSERVE_ENTRY@@A 10021a28     shell.obj
 0002:00003a3c       ?mpu_PIIRQ57_MUX7@@3UOBSERVE_ENTRY@@A 10021a3c     shell.obj
 0002:00003a50       ?mpu_PIIRQ58_MUX7@@3UOBSERVE_ENTRY@@A 10021a50     shell.obj
 0002:00003a64       ?mpu_PIIRQ59_MUX7@@3UOBSERVE_ENTRY@@A 10021a64     shell.obj
 0002:00003a78       ?mpu_PIIRQ60_MUX7@@3UOBSERVE_ENTRY@@A 10021a78     shell.obj
 0002:00003a8c       ?mpu_PIIRQ61_MUX7@@3UOBSERVE_ENTRY@@A 10021a8c     shell.obj
 0002:00003aa0       ?mpu_PIIRQ62_MUX7@@3UOBSERVE_ENTRY@@A 10021aa0     shell.obj
 0002:00003ab4       ?mpu_PIIRQ63_MUX7@@3UOBSERVE_ENTRY@@A 10021ab4     shell.obj
 0002:00003ac8       ?mpu_PIIRQ64_MUX7@@3UOBSERVE_ENTRY@@A 10021ac8     shell.obj
 0002:00003adc       ?mpu_PIIRQ65_MUX7@@3UOBSERVE_ENTRY@@A 10021adc     shell.obj
 0002:00003af0       ?mpu_PIIRQ66_MUX7@@3UOBSERVE_ENTRY@@A 10021af0     shell.obj
 0002:00003b04       ?mpu_PIIRQ67_MUX7@@3UOBSERVE_ENTRY@@A 10021b04     shell.obj
 0002:00003b18       ?mpu_PIIRQ68_MUX7@@3UOBSERVE_ENTRY@@A 10021b18     shell.obj
 0002:00003b2c       ?mpu_PIIRQ69_MUX7@@3UOBSERVE_ENTRY@@A 10021b2c     shell.obj
 0002:00003b40       ?mpu_PIIRQ70_MUX7@@3UOBSERVE_ENTRY@@A 10021b40     shell.obj
 0002:00003b54       ?mpu_PIIRQ71_MUX7@@3UOBSERVE_ENTRY@@A 10021b54     shell.obj
 0002:00003b68       ?mpu_PIIRQ72_MUX7@@3UOBSERVE_ENTRY@@A 10021b68     shell.obj
 0002:00003b7c       ?mpu_PIIRQ73_MUX7@@3UOBSERVE_ENTRY@@A 10021b7c     shell.obj
 0002:00003b90       ?mpu_PIIRQ74_MUX7@@3UOBSERVE_ENTRY@@A 10021b90     shell.obj
 0002:00003ba4       ?mpu_PIIRQ75_MUX7@@3UOBSERVE_ENTRY@@A 10021ba4     shell.obj
 0002:00003bb8       ?mpu_PIIRQ76_MUX7@@3UOBSERVE_ENTRY@@A 10021bb8     shell.obj
 0002:00003bcc       ?mpu_PIIRQ77_MUX7@@3UOBSERVE_ENTRY@@A 10021bcc     shell.obj
 0002:00003be0       ?mpu_PIIRQ78_MUX7@@3UOBSERVE_ENTRY@@A 10021be0     shell.obj
 0002:00003bf4       ?mpu_PIIRQ79_MUX7@@3UOBSERVE_ENTRY@@A 10021bf4     shell.obj
 0002:00003c08       ?mpu_PIIRQ80_MUX7@@3UOBSERVE_ENTRY@@A 10021c08     shell.obj
 0002:00003c1c       ?mpu_PIIRQ81_MUX7@@3UOBSERVE_ENTRY@@A 10021c1c     shell.obj
 0002:00003c30       ?mpu_PIIRQ82_MUX7@@3UOBSERVE_ENTRY@@A 10021c30     shell.obj
 0002:00003c44       ?mpu_PIIRQ83_MUX7@@3UOBSERVE_ENTRY@@A 10021c44     shell.obj
 0002:00003c58       ?mpu_PIIRQ84_MUX7@@3UOBSERVE_ENTRY@@A 10021c58     shell.obj
 0002:00003c6c       ?mpu_PIIRQ85_MUX7@@3UOBSERVE_ENTRY@@A 10021c6c     shell.obj
 0002:00003c80       ?mpu_PIIRQ86_MUX7@@3UOBSERVE_ENTRY@@A 10021c80     shell.obj
 0002:00003c94       ?mpu_PIIRQ87_MUX7@@3UOBSERVE_ENTRY@@A 10021c94     shell.obj
 0002:00003ca8       ?mpu_PIIRQ88_MUX7@@3UOBSERVE_ENTRY@@A 10021ca8     shell.obj
 0002:00003cbc       ?mpu_PIIRQ89_MUX7@@3UOBSERVE_ENTRY@@A 10021cbc     shell.obj
 0002:00003cd0       ?mpu_PIIRQ90_MUX7@@3UOBSERVE_ENTRY@@A 10021cd0     shell.obj
 0002:00003ce4       ?mpu_PIIRQ91_MUX7@@3UOBSERVE_ENTRY@@A 10021ce4     shell.obj
 0002:00003cf8       ?mpu_PIIRQ92_MUX7@@3UOBSERVE_ENTRY@@A 10021cf8     shell.obj
 0002:00003d0c       ?mpu_PIIRQ93_MUX7@@3UOBSERVE_ENTRY@@A 10021d0c     shell.obj
 0002:00003d20       ?mpu_PIIRQ94_MUX7@@3UOBSERVE_ENTRY@@A 10021d20     shell.obj
 0002:00003d34       ?mpu_PIIRQ95_MUX7@@3UOBSERVE_ENTRY@@A 10021d34     shell.obj
 0002:00003d48       ?mpu_PIIRQ96_MUX7@@3UOBSERVE_ENTRY@@A 10021d48     shell.obj
 0002:00003d5c       ?PRCM_DSS_TV_FCLK@@3UOBSERVE_ENTRY@@A 10021d5c     shell.obj
 0002:00003d70       ?PRCM_DPLL2_freqlock@@3UOBSERVE_ENTRY@@A 10021d70     shell.obj
 0002:00003d84       ?PRCM_DPLL5_freqlock@@3UOBSERVE_ENTRY@@A 10021d84     shell.obj
 0002:00003d98       ?PRCM_GFX_IClkIsNotRunning@@3UOBSERVE_ENTRY@@A 10021d98     shell.obj
 0002:00003dac       ?PRCM_SGX_domainIsIdle@@3UOBSERVE_ENTRY@@A 10021dac     shell.obj
 0002:00003dc0       ?PRCM_DSS_forceWakeup@@3UOBSERVE_ENTRY@@A 10021dc0     shell.obj
 0002:00003dd4       ?PRCM_USBHOST_domainNready@@3UOBSERVE_ENTRY@@A 10021dd4     shell.obj
 0002:00003de8       ?PRCM_CSIb_96M_GFCLK@@3UOBSERVE_ENTRY@@A 10021de8     shell.obj
 0002:00003dfc       ?PRCM_SSI_L4_GICLK@@3UOBSERVE_ENTRY@@A 10021dfc     shell.obj
 0002:00003e10       ?PRCM_DPLL1_PHASELOCK@@3UOBSERVE_ENTRY@@A 10021e10     shell.obj
 0002:00003e24       ?PRCM_DPLL2_PHASELOCK@@3UOBSERVE_ENTRY@@A 10021e24     shell.obj
 0002:00003e38       ?PRCM_DPLL3_PHASELOCK@@3UOBSERVE_ENTRY@@A 10021e38     shell.obj
 0002:00003e4c       ?PRCM_DPLL4_PHASELOCK@@3UOBSERVE_ENTRY@@A 10021e4c     shell.obj
 0002:00003e60       ?CM_USIM_CLK@@3UOBSERVE_ENTRY@@A 10021e60     shell.obj
 0002:00003e74       ?PRCM_DPLL2_bypass@@3UOBSERVE_ENTRY@@A 10021e74     shell.obj
 0002:00003e88       ?PRCM_DPLL5_bypass@@3UOBSERVE_ENTRY@@A 10021e88     shell.obj
 0002:00003e9c       ?PRCM_DSS_IClkIsNotRunning@@3UOBSERVE_ENTRY@@A 10021e9c     shell.obj
 0002:00003eb0       ?PRCM_SGX_forceWakeup@@3UOBSERVE_ENTRY@@A 10021eb0     shell.obj
 0002:00003ec4       ?PRCM_DSS_domainNready@@3UOBSERVE_ENTRY@@A 10021ec4     shell.obj
 0002:00003ed8       ?PRCM_USBHOST_forceSleep@@3UOBSERVE_ENTRY@@A 10021ed8     shell.obj
 0002:00003eec       ?PRCM_PER_48M_GFCLK@@3UOBSERVE_ENTRY@@A 10021eec     shell.obj
 0002:00003f00       ?PRCM_DSS_96M_GFCLK@@3UOBSERVE_ENTRY@@A 10021f00     shell.obj
 0002:00003f14       ?PRCM_DPLL1_RECAL@@3UOBSERVE_ENTRY@@A 10021f14     shell.obj
 0002:00003f28       ?PRCM_DPLL2_RECAL@@3UOBSERVE_ENTRY@@A 10021f28     shell.obj
 0002:00003f3c       ?PRCM_DPLL3_RECAL@@3UOBSERVE_ENTRY@@A 10021f3c     shell.obj
 0002:00003f50       ?PRCM_DPLL4_RECAL@@3UOBSERVE_ENTRY@@A 10021f50     shell.obj
 0002:00003f64       ?PRCM_CPEFUSE_FCLK@@3UOBSERVE_ENTRY@@A 10021f64     shell.obj
 0002:00003f78       ?PRCM_DPLL2_idle@@3UOBSERVE_ENTRY@@A 10021f78     shell.obj
 0002:00003f8c       ?PRCM_DPLL5_idle@@3UOBSERVE_ENTRY@@A 10021f8c     shell.obj
 0002:00003fa0       ?PRCM_CAM_IClkIsNotRunning@@3UOBSERVE_ENTRY@@A 10021fa0     shell.obj
 0002:00003fb4       ?PRCM_SGX_domainNready@@3UOBSERVE_ENTRY@@A 10021fb4     shell.obj
 0002:00003fc8       ?PRCM_DSS_forceSleep@@3UOBSERVE_ENTRY@@A 10021fc8     shell.obj
 0002:00003fdc       ?PRCM_USBHOST_domainFreeze@@3UOBSERVE_ENTRY@@A 10021fdc     shell.obj
 0002:00003ff0       ?PRCM_SR1_UPDATECLK_MUX10@@3UOBSERVE_ENTRY@@A 10021ff0     shell.obj
 0002:00004004       ?PRCM_PER_96M_GFCLK@@3UOBSERVE_ENTRY@@A 10022004     shell.obj
 0002:00004018       ?PRCM_MPU_EMU_CLK@@3UOBSERVE_ENTRY@@A 10022018     shell.obj
 0002:0000402c       ?PRCM_IVA_FCLK@@3UOBSERVE_ENTRY@@A 1002202c     shell.obj
 0002:00004040       ?PRCM_DPLL1_BYPASS@@3UOBSERVE_ENTRY@@A 10022040     shell.obj
 0002:00004054       ?PRCM_DPLL2_BYPASS@@3UOBSERVE_ENTRY@@A 10022054     shell.obj
 0002:00004068       ?PRCM_DPLL3_BYPASS@@3UOBSERVE_ENTRY@@A 10022068     shell.obj
 0002:0000407c       ?PRCM_DPLL4_BYPASS@@3UOBSERVE_ENTRY@@A 1002207c     shell.obj
 0002:00004090       ?PRCM_DPLL5_M2_CLK@@3UOBSERVE_ENTRY@@A 10022090     shell.obj
 0002:000040a4       ?PRCM_DPLL2_initz@@3UOBSERVE_ENTRY@@A 100220a4     shell.obj
 0002:000040b8       ?PRCM_DPLL5_initz@@3UOBSERVE_ENTRY@@A 100220b8     shell.obj
 0002:000040cc       ?PRCM_PERL4_IClkIsNotRunning@@3UOBSERVE_ENTRY@@A 100220cc     shell.obj
 0002:000040e0       ?PRCM_SGX_forceSleep@@3UOBSERVE_ENTRY@@A 100220e0     shell.obj
 0002:000040f4       ?PRCM_DSS_domainFreeze_MUX11@@3UOBSERVE_ENTRY@@A 100220f4     shell.obj
 0002:00004108       ?PRCM_emudpll3srcclkactivitystatus@@3UOBSERVE_ENTRY@@A 10022108     shell.obj
 0002:0000411c       ?PRCM_SR1_FREQERRINTZ_MUX11@@3UOBSERVE_ENTRY@@A 1002211c     shell.obj
 0002:00004130       ?PRCM_PER_L4_GICLK@@3UOBSERVE_ENTRY@@A 10022130     shell.obj
 0002:00004144       ?PRCM_DPLL1_TICOPWDN@@3UOBSERVE_ENTRY@@A 10022144     shell.obj
 0002:00004158       ?PRCM_DPLL2_TICOPWDN@@3UOBSERVE_ENTRY@@A 10022158     shell.obj
 0002:0000416c       ?PRCM_DPLL3_TICOPWDN@@3UOBSERVE_ENTRY@@A 1002216c     shell.obj
 0002:00004180       ?PRCM_DPLL4_TICOPWDN@@3UOBSERVE_ENTRY@@A 10022180     shell.obj
 0002:00004194       ?PRCM_DPLL1_FCLK@@3UOBSERVE_ENTRY@@A 10022194     shell.obj
 0002:000041a8       ?PRCM_DPLL2_enable@@3UOBSERVE_ENTRY@@A 100221a8     shell.obj
 0002:000041bc       ?PRCM_DPLL5_enable@@3UOBSERVE_ENTRY@@A 100221bc     shell.obj
 0002:000041d0       ?PRCM_EMU_ClkIsRunning@@3UOBSERVE_ENTRY@@A 100221d0     shell.obj
 0002:000041e4       ?PRCM_COREL3_domainIsIdle@@3UOBSERVE_ENTRY@@A 100221e4     shell.obj
 0002:000041f8       ?PRCM_PER_domainIsIdle@@3UOBSERVE_ENTRY@@A 100221f8     shell.obj
 0002:0000420c       ?PRCM_IVA2_DPLLCHANG@@3UOBSERVE_ENTRY@@A 1002220c     shell.obj
 0002:00004220       ?PRCM_SR_L4_GICLK@@3UOBSERVE_ENTRY@@A 10022220     shell.obj
 0002:00004234       ?PRCM_DPLL2_FCLK@@3UOBSERVE_ENTRY@@A 10022234     shell.obj
 0002:00004248       ?PRCM_DPLL2_enablediv@@3UOBSERVE_ENTRY@@A 10022248     shell.obj
 0002:0000425c       ?PRCM_DPLL5_enablediv@@3UOBSERVE_ENTRY@@A 1002225c     shell.obj
 0002:00004270       ?PRCM_CPEFUSE_FClkIsNotRunning@@3UOBSERVE_ENTRY@@A 10022270     shell.obj
 0002:00004284       ?PRCM_COREL4_domainIsIdle@@3UOBSERVE_ENTRY@@A 10022284     shell.obj
 0002:00004298       ?PRCM_PER_forceWakeup@@3UOBSERVE_ENTRY@@A 10022298     shell.obj
 0002:000042ac       ?PRCM_IVAA2_DPLLCHANGEACK@@3UOBSERVE_ENTRY@@A 100222ac     shell.obj
 0002:000042c0       ?PRCM_USBHOST_GICLK@@3UOBSERVE_ENTRY@@A 100222c0     shell.obj
 0002:000042d4       ?PRCM_EMU_CORE_ALWON_CLK@@3UOBSERVE_ENTRY@@A 100222d4     shell.obj
 0002:000042e8       ?PRCM_MPU_CLK@@3UOBSERVE_ENTRY@@A 100222e8     shell.obj
 0002:000042fc       ?PRCM_SSI_FCLK@@3UOBSERVE_ENTRY@@A 100222fc     shell.obj
 0002:00004310       ?PRCM_DPLL3_freqlock@@3UOBSERVE_ENTRY@@A 10022310     shell.obj
 0002:00004324       ?PRCM_MPU_domainFreeze_MUX14@@3UOBSERVE_ENTRY@@A 10022324     shell.obj
 0002:00004338       ?PRCM_MPU_domainIsIdle@@3UOBSERVE_ENTRY@@A 10022338     shell.obj
 0002:0000434c       ?PRCM_PER_domainNready@@3UOBSERVE_ENTRY@@A 1002234c     shell.obj
 0002:00004360       ?PRCM_EMU_MStandby@@3UOBSERVE_ENTRY@@A 10022360     shell.obj
 0002:00004374       ?PRCM_USBHOST_48M_GFCLK@@3UOBSERVE_ENTRY@@A 10022374     shell.obj
 0002:00004388       ?PRCM_EMU_PER_ALWON_CLK@@3UOBSERVE_ENTRY@@A 10022388     shell.obj
 0002:0000439c       ?PRCM_IVA_CLK@@3UOBSERVE_ENTRY@@A 1002239c     shell.obj
 0002:000043b0       ?PRCM_GPT10_FCLK@@3UOBSERVE_ENTRY@@A 100223b0     shell.obj
 0002:000043c4       ?PRCM_DPLL3_bypass@@3UOBSERVE_ENTRY@@A 100223c4     shell.obj
 0002:000043d8       ?PRCM_IVA2_domainFreeze_MUX15@@3UOBSERVE_ENTRY@@A 100223d8     shell.obj
 0002:000043ec       ?PRCM_MPU_domainNready@@3UOBSERVE_ENTRY@@A 100223ec     shell.obj
 0002:00004400       ?PRCM_CORECM_domainIsIdle@@3UOBSERVE_ENTRY@@A 10022400     shell.obj
 0002:00004414       ?PRCM_PER_forceSleep@@3UOBSERVE_ENTRY@@A 10022414     shell.obj
 0002:00004428       ?PRCM_STATE_IS_ON_MPU@@3UOBSERVE_ENTRY@@A 10022428     shell.obj
 0002:0000443c       ?PRCM_USBHOST_120M_GFCLK@@3UOBSERVE_ENTRY@@A 1002243c     shell.obj
 0002:00004450       ?PRCM_DPLL4_M2X2_CLK@@3UOBSERVE_ENTRY@@A 10022450     shell.obj
 0002:00004464       ?PRCM_SR1_UPDATECLK_MUX15@@3UOBSERVE_ENTRY@@A 10022464     shell.obj
 0002:00004478       ?PRCM_GPT11_FCLK@@3UOBSERVE_ENTRY@@A 10022478     shell.obj
 0002:0000448c       ?PRCM_DPLL3_idle@@3UOBSERVE_ENTRY@@A 1002248c     shell.obj
 0002:000044a0       ?PRCM_MPU_domainFreeze_MUX16@@3UOBSERVE_ENTRY@@A 100224a0     shell.obj
 0002:000044b4       ?PRCM_CORE_domainNready@@3UOBSERVE_ENTRY@@A 100224b4     shell.obj
 0002:000044c8       ?PRCM_WKUP_domainIsIdle@@3UOBSERVE_ENTRY@@A 100224c8     shell.obj
 0002:000044dc       ?PRCM_STATE_IS_OFF_MPU@@3UOBSERVE_ENTRY@@A 100224dc     shell.obj
 0002:000044f0       ?PRCM_SGX_GICLK@@3UOBSERVE_ENTRY@@A 100224f0     shell.obj
 0002:00004504       ?PRCM_DPLL4_M4X2_CLK@@3UOBSERVE_ENTRY@@A 10022504     shell.obj
 0002:00004518       ?PRCM_SR1_FREQERRINTZ_MUX16@@3UOBSERVE_ENTRY@@A 10022518     shell.obj
 0002:0000452c       ?PRCM_SGX_GFCLK@@3UOBSERVE_ENTRY@@A 1002252c     shell.obj
 0002:00004540       ?PRCM_DPLL3_initz@@3UOBSERVE_ENTRY@@A 10022540     shell.obj
 0002:00004554       ?PRCM_DSS_domainFreeze_MUX17@@3UOBSERVE_ENTRY@@A 10022554     shell.obj
 0002:00004568       ?PRCM_NEON_domainIsIdle@@3UOBSERVE_ENTRY@@A 10022568     shell.obj
 0002:0000457c       ?PRCM_COREL3_domainNready@@3UOBSERVE_ENTRY@@A 1002257c     shell.obj
 0002:00004590       ?PRCM_WKUP_domainWakeupAck@@3UOBSERVE_ENTRY@@A 10022590     shell.obj
 0002:000045a4       ?PRCM_STATE_IS_ON_IVA2@@3UOBSERVE_ENTRY@@A 100225a4     shell.obj
 0002:000045b8       ?PRCM_DPLL4_M5X2_CLK@@3UOBSERVE_ENTRY@@A 100225b8     shell.obj
 0002:000045cc       ?PRCM_SYS_CLK@@3UOBSERVE_ENTRY@@A 100225cc     shell.obj
 0002:000045e0       ?PRCM_GPT5_ALWON_FCLK@@3UOBSERVE_ENTRY@@A 100225e0     shell.obj
 0002:000045f4       ?PRCM_SGX_RST@@3UOBSERVE_ENTRY@@A 100225f4     shell.obj
 0002:00004608       ?PRCM_USBHOST_RST@@3UOBSERVE_ENTRY@@A 10022608     shell.obj
 0002:0000461c       ?PRCM_CORECM_domainIsOn@@3UOBSERVE_ENTRY@@A 1002261c     shell.obj
 0002:00004630       ?PRCM_WKUP_domainWakeup@@3UOBSERVE_ENTRY@@A 10022630     shell.obj
 0002:00004644       ?PRCM_vdd2_domain_is_ret@@3UOBSERVE_ENTRY@@A 10022644     shell.obj
 0002:00004658       ?PRCM_vdd5_domain_is_on@@3UOBSERVE_ENTRY@@A 10022658     shell.obj
 0002:0000466c       ?PRCM_device_is_on@@3UOBSERVE_ENTRY@@A 1002266c     shell.obj
 0002:00004680       ?PRCM_MPU_SRAMAONIN_MUX0@@3UOBSERVE_ENTRY@@A 10022680     shell.obj
 0002:00004694       ?PRCM_IVA2_SRAMAONIN_MUX0@@3UOBSERVE_ENTRY@@A 10022694     shell.obj
 0002:000046a8       ?PRCM_CORE_POWER_ISO@@3UOBSERVE_ENTRY@@A 100226a8     shell.obj
 0002:000046bc       ?PRCM_CORE_SRAMRETONIN_MUX0@@3UOBSERVE_ENTRY@@A 100226bc     shell.obj
 0002:000046d0       ?PRCM_SGX_POWER_GOOD_MUX0@@3UOBSERVE_ENTRY@@A 100226d0     shell.obj
 0002:000046e4       ?PRCM_CAM_POWER_ON@@3UOBSERVE_ENTRY@@A 100226e4     shell.obj
 0002:000046f8       ?PRCM_SR_POWER_ISO@@3UOBSERVE_ENTRY@@A 100226f8     shell.obj
 0002:0000470c       ?PRCM_PER_POWER_GOOD_MUX0@@3UOBSERVE_ENTRY@@A 1002270c     shell.obj
 0002:00004720       ?forceenumon@@3UOBSERVE_ENTRY@@A 10022720     shell.obj
 0002:00004734       ?PRCM_MPU_INTC_SWAKEUP@@3UOBSERVE_ENTRY@@A 10022734     shell.obj
 0002:00004748       ?PRCM_DPLL1_ALWON_FCLK@@3UOBSERVE_ENTRY@@A 10022748     shell.obj
 0002:0000475c       ?PRCM_GPT6_ALWON_FCLK@@3UOBSERVE_ENTRY@@A 1002275c     shell.obj
 0002:00004770       ?PRCM_DSS_RST@@3UOBSERVE_ENTRY@@A 10022770     shell.obj
 0002:00004784       ?PRCM_ICEPICK_RSTPWRON@@3UOBSERVE_ENTRY@@A 10022784     shell.obj
 0002:00004798       ?PRCM_eFuseReady_n@@3UOBSERVE_ENTRY@@A 10022798     shell.obj
 0002:000047ac       ?PRCM_CAM_domainWakeup@@3UOBSERVE_ENTRY@@A 100227ac     shell.obj
 0002:000047c0       ?PRCM_cam_domain_is_inactive@@3UOBSERVE_ENTRY@@A 100227c0     shell.obj
 0002:000047d4       ?PRCM_cam_domain_is_retention@@3UOBSERVE_ENTRY@@A 100227d4     shell.obj
 0002:000047e8       ?PRCM_Control_start_restore@@3UOBSERVE_ENTRY@@A 100227e8     shell.obj
 0002:000047fc       ?PRCM_device_is_lp@@3UOBSERVE_ENTRY@@A 100227fc     shell.obj
 0002:00004810       ?PRCM_MPU_SRAMAGOODOUT_MUX1@@3UOBSERVE_ENTRY@@A 10022810     shell.obj
 0002:00004824       ?PRCM_IVA2_SRAMAONIN_MUX1@@3UOBSERVE_ENTRY@@A 10022824     shell.obj
 0002:00004838       ?PRCM_CORE_POWER_GOOD_MUX1@@3UOBSERVE_ENTRY@@A 10022838     shell.obj
 0002:0000484c       ?PRCM_CORE_SRAMRETONIN_MUX1@@3UOBSERVE_ENTRY@@A 1002284c     shell.obj
 0002:00004860       ?PRCM_SGX_POWER_GOOD_MUX1@@3UOBSERVE_ENTRY@@A 10022860     shell.obj
 0002:00004874       ?PRCM_CAM_POWER_ISO@@3UOBSERVE_ENTRY@@A 10022874     shell.obj
 0002:00004888       ?PRCM_SR_POWER_GOOD@@3UOBSERVE_ENTRY@@A 10022888     shell.obj
 0002:0000489c       ?PRCM_PER_POWER_GOOD_MUX1@@3UOBSERVE_ENTRY@@A 1002289c     shell.obj
 0002:000048b0       ?PRCM_emudpll3srcclkactivityctrl@@3UOBSERVE_ENTRY@@A 100228b0     shell.obj
 0002:000048c4       ?PRCM_IVA2_WUGEN_SWAKEUP@@3UOBSERVE_ENTRY@@A 100228c4     shell.obj
 0002:000048d8       ?PRCM_DPLL2_ALWON_FCLK@@3UOBSERVE_ENTRY@@A 100228d8     shell.obj
 0002:000048ec       ?PRCM_GPT7_ALWON_FCLK@@3UOBSERVE_ENTRY@@A 100228ec     shell.obj
 0002:00004900       ?PRCM_BANDGAP_RSTPWRON@@3UOBSERVE_ENTRY@@A 10022900     shell.obj
 0002:00004914       ?PRCM_cam_domain_is_off@@3UOBSERVE_ENTRY@@A 10022914     shell.obj
 0002:00004928       ?PRCM_CAM_domainIsOn@@3UOBSERVE_ENTRY@@A 10022928     shell.obj
 0002:0000493c       ?PRCM_EMU_domainWakeup@@3UOBSERVE_ENTRY@@A 1002293c     shell.obj
 0002:00004950       ?PRCM_vdd2_domain_is_sleep@@3UOBSERVE_ENTRY@@A 10022950     shell.obj
 0002:00004964       ?PRCM_Control_restore_done@@3UOBSERVE_ENTRY@@A 10022964     shell.obj
 0002:00004978       ?PRCM_MPU_SRAMAGOODOUT_MUX2@@3UOBSERVE_ENTRY@@A 10022978     shell.obj
 0002:0000498c       ?PRCM_IVA2_SRAMAGOODOUT_MUX2@@3UOBSERVE_ENTRY@@A 1002298c     shell.obj
 0002:000049a0       ?PRCM_CORE_POWER_GOODOUT_MUX2@@3UOBSERVE_ENTRY@@A 100229a0     shell.obj
 0002:000049b4       ?PRCM_CORE_SRAMRETONIN_MUX2@@3UOBSERVE_ENTRY@@A 100229b4     shell.obj
 0002:000049c8       ?PRCM_SGX_POWER_GOOD_MUX2@@3UOBSERVE_ENTRY@@A 100229c8     shell.obj
 0002:000049dc       ?PRCM_CAM_POWER_GOOD_MUX2@@3UOBSERVE_ENTRY@@A 100229dc     shell.obj
 0002:000049f0       ?PRCM_DPLL1_POWER_ON@@3UOBSERVE_ENTRY@@A 100229f0     shell.obj
 0002:00004a04       ?PRCM_PER_POWER_GOOD_MUX2@@3UOBSERVE_ENTRY@@A 10022a04     shell.obj
 0002:00004a18       ?PRCM_EMU_block_reset_cm@@3UOBSERVE_ENTRY@@A 10022a18     shell.obj
 0002:00004a2c       ?PRCM_DSS_SWAKEUP@@3UOBSERVE_ENTRY@@A 10022a2c     shell.obj
 0002:00004a40       ?PRCM_DPLL3_ALWON_FCLK@@3UOBSERVE_ENTRY@@A 10022a40     shell.obj
 0002:00004a54       ?PRCM_GPT8_ALWON_FCLK@@3UOBSERVE_ENTRY@@A 10022a54     shell.obj
 0002:00004a68       ?PRCM_MPU_WD_RST@@3UOBSERVE_ENTRY@@A 10022a68     shell.obj
 0002:00004a7c       ?PRCM_MPU_domainWakeup@@3UOBSERVE_ENTRY@@A 10022a7c     shell.obj
 0002:00004a90       ?PRCM_efuseClk_is_not_running@@3UOBSERVE_ENTRY@@A 10022a90     shell.obj
 0002:00004aa4       ?PRCM_EMU_domainIsOn@@3UOBSERVE_ENTRY@@A 10022aa4     shell.obj
 0002:00004ab8       ?PRCM_vdd2_domain_is_lp@@3UOBSERVE_ENTRY@@A 10022ab8     shell.obj
 0002:00004acc       ?PRCM_SYS_CLKREQ_out@@3UOBSERVE_ENTRY@@A 10022acc     shell.obj
 0002:00004ae0       ?PRCM_MPU_SRAMRETONIN_MUX3@@3UOBSERVE_ENTRY@@A 10022ae0     shell.obj
 0002:00004af4       ?PRCM_IVA2_SRAMAGOODOUT_MUX3@@3UOBSERVE_ENTRY@@A 10022af4     shell.obj
 0002:00004b08       ?PRCM_CORE_POWER_GOOD_MUX3@@3UOBSERVE_ENTRY@@A 10022b08     shell.obj
 0002:00004b1c       ?PRCM_CORE_SRAMRETONIN_MUX3@@3UOBSERVE_ENTRY@@A 10022b1c     shell.obj
 0002:00004b30       ?PRCM_SGX_POWER_GOOD_MUX3@@3UOBSERVE_ENTRY@@A 10022b30     shell.obj
 0002:00004b44       ?PRCM_CAM_POWER_GOOD_MUX3@@3UOBSERVE_ENTRY@@A 10022b44     shell.obj
 0002:00004b58       ?PRCM_DPLL1_POWER_ISO@@3UOBSERVE_ENTRY@@A 10022b58     shell.obj
 0002:00004b6c       ?PRCM_PER_POWER_GOOD_MUX3@@3UOBSERVE_ENTRY@@A 10022b6c     shell.obj
 0002:00004b80       ?PRCM_FORCEACTIVEWKUP@@3UOBSERVE_ENTRY@@A 10022b80     shell.obj
 0002:00004b94       ?PRCM_USBHOST_SWAKEUP@@3UOBSERVE_ENTRY@@A 10022b94     shell.obj
 0002:00004ba8       ?PRCM_DPLL4_ALWON_FCLK@@3UOBSERVE_ENTRY@@A 10022ba8     shell.obj
 0002:00004bbc       ?PRCM_GPT9_ALWON_FCLK@@3UOBSERVE_ENTRY@@A 10022bbc     shell.obj
 0002:00004bd0       ?PRCM_CAM_RST@@3UOBSERVE_ENTRY@@A 10022bd0     shell.obj
 0002:00004be4       ?PRCM_SECURE_WD_RST@@3UOBSERVE_ENTRY@@A 10022be4     shell.obj
 0002:00004bf8       ?PRCM_MPU_domainIsOn@@3UOBSERVE_ENTRY@@A 10022bf8     shell.obj
 0002:00004c0c       ?PRCM_mpu_domain_is_inactive@@3UOBSERVE_ENTRY@@A 10022c0c     shell.obj
 0002:00004c20       ?PRCM_mpu_domain_is_retention@@3UOBSERVE_ENTRY@@A 10022c20     shell.obj
 0002:00004c34       ?PRCM_mpu_domain_is_off@@3UOBSERVE_ENTRY@@A 10022c34     shell.obj
 0002:00004c48       ?PRCM_SYS_CLKREQ_in@@3UOBSERVE_ENTRY@@A 10022c48     shell.obj
 0002:00004c5c       ?PRCM_vdd1_domain_go_off_mode@@3UOBSERVE_ENTRY@@A 10022c5c     shell.obj
 0002:00004c70       ?PRCM_MPU_SRAMRETONIN_MUX4@@3UOBSERVE_ENTRY@@A 10022c70     shell.obj
 0002:00004c84       ?PRCM_IVA2_SRAMAGOODOUT_MUX4@@3UOBSERVE_ENTRY@@A 10022c84     shell.obj
 0002:00004c98       ?PRCM_CORE_POWER_GOOD_MUX4@@3UOBSERVE_ENTRY@@A 10022c98     shell.obj
 0002:00004cac       ?PRCM_CORE_SRAMRETONIN_MUX4@@3UOBSERVE_ENTRY@@A 10022cac     shell.obj
 0002:00004cc0       ?PRCM_SGX_SRAMAONIN@@3UOBSERVE_ENTRY@@A 10022cc0     shell.obj
 0002:00004cd4       ?PRCM_CAM_POWER_GOOD_MUX4@@3UOBSERVE_ENTRY@@A 10022cd4     shell.obj
 0002:00004ce8       ?PRCM_DPLL1_POWER_GOOD@@3UOBSERVE_ENTRY@@A 10022ce8     shell.obj
 0002:00004cfc       ?PRCM_PER_POWER_RET@@3UOBSERVE_ENTRY@@A 10022cfc     shell.obj
 0002:00004d10       ?PRCM_FORCEACTIVECORE@@3UOBSERVE_ENTRY@@A 10022d10     shell.obj
 0002:00004d24       ?PRCM_GPIO2_SWAKEUP@@3UOBSERVE_ENTRY@@A 10022d24     shell.obj
 0002:00004d38       ?PRCM_DPLL5_ALWON_FCLK@@3UOBSERVE_ENTRY@@A 10022d38     shell.obj
 0002:00004d4c       ?PRCM_MPU_RST@@3UOBSERVE_ENTRY@@A 10022d4c     shell.obj
 0002:00004d60       ?PRCM_PER_RST@@3UOBSERVE_ENTRY@@A 10022d60     shell.obj
 0002:00004d74       ?PRCM_SYNCT_RST@@3UOBSERVE_ENTRY@@A 10022d74     shell.obj
 0002:00004d88       ?PRCM_NEON_domainWakeup@@3UOBSERVE_ENTRY@@A 10022d88     shell.obj
 0002:00004d9c       ?PRCM_vdd1_domain_is_on@@3UOBSERVE_ENTRY@@A 10022d9c     shell.obj
 0002:00004db0       ?PRCM_emu_domain_is_off@@3UOBSERVE_ENTRY@@A 10022db0     shell.obj
 0002:00004dc4       ?PRCM_vdd4_domain_is_on@@3UOBSERVE_ENTRY@@A 10022dc4     shell.obj
 0002:00004dd8       ?PRCM_SYS_CLKREQ_oen@@3UOBSERVE_ENTRY@@A 10022dd8     shell.obj
 0002:00004dec       ?PRCM_SRAMALLRET_MUX5@@3UOBSERVE_ENTRY@@A 10022dec     shell.obj
 0002:00004e00       ?PRCM_MPU_SRAMRETGOODOUT_MUX5@@3UOBSERVE_ENTRY@@A 10022e00     shell.obj
 0002:00004e14       ?PRCM_IVA2_SRAMAGOODOUT_MUX5@@3UOBSERVE_ENTRY@@A 10022e14     shell.obj
 0002:00004e28       ?PRCM_CORE_POWER_RET@@3UOBSERVE_ENTRY@@A 10022e28     shell.obj
 0002:00004e3c       ?PRCM_CORE_SRAMRETONIN_MUX5@@3UOBSERVE_ENTRY@@A 10022e3c     shell.obj
 0002:00004e50       ?PRCM_SGX_SRAMAGOODOUT@@3UOBSERVE_ENTRY@@A 10022e50     shell.obj
 0002:00004e64       ?PRCM_CAM_POWER_GOOD_MUX5@@3UOBSERVE_ENTRY@@A 10022e64     shell.obj
 0002:00004e78       ?PRCM_DPLL2_POWER_ON@@3UOBSERVE_ENTRY@@A 10022e78     shell.obj
 0002:00004e8c       ?PRCM_PER_POWER_ISO@@3UOBSERVE_ENTRY@@A 10022e8c     shell.obj
 0002:00004ea0       ?PRCM_WAKEEMU@@3UOBSERVE_ENTRY@@A 10022ea0     shell.obj
 0002:00004eb4       ?PRCM_GPT2_SWAKEUP@@3UOBSERVE_ENTRY@@A 10022eb4     shell.obj
 0002:00004ec8       ?PRCM_SR_ALWAYSON_FCLK@@3UOBSERVE_ENTRY@@A 10022ec8     shell.obj
 0002:00004edc       ?PRCM_MPU_RSTPWRON@@3UOBSERVE_ENTRY@@A 10022edc     shell.obj
 0002:00004ef0       ?PRCM_PER_RSTRET@@3UOBSERVE_ENTRY@@A 10022ef0     shell.obj
 0002:00004f04       ?PRCM_ICEPICK_POR@@3UOBSERVE_ENTRY@@A 10022f04     shell.obj
 0002:00004f18       ?PRCM_NEON_domainIsOn@@3UOBSERVE_ENTRY@@A 10022f18     shell.obj
 0002:00004f2c       ?PRCM_neon_domain_is_inactive@@3UOBSERVE_ENTRY@@A 10022f2c     shell.obj
 0002:00004f40       ?PRCM_neon_domain_is_retention@@3UOBSERVE_ENTRY@@A 10022f40     shell.obj
 0002:00004f54       ?PRCM_neon_domain_is_off@@3UOBSERVE_ENTRY@@A 10022f54     shell.obj
 0002:00004f68       ?PRCM_SRAMALLRET_MUX6@@3UOBSERVE_ENTRY@@A 10022f68     shell.obj
 0002:00004f7c       ?PRCM_MPU_SRAMRETGOODOUT_MUX6@@3UOBSERVE_ENTRY@@A 10022f7c     shell.obj
 0002:00004f90       ?PRCM_IVA2_SRAMAGOODOUT_MUX6@@3UOBSERVE_ENTRY@@A 10022f90     shell.obj
 0002:00004fa4       ?PRCM_CORE_SRAMAONIN_MUX6@@3UOBSERVE_ENTRY@@A 10022fa4     shell.obj
 0002:00004fb8       ?PRCM_CORE_SRAMRETGOODOUT_MUX6@@3UOBSERVE_ENTRY@@A 10022fb8     shell.obj
 0002:00004fcc       ?PRCM_SGX_SRAMRETONIN@@3UOBSERVE_ENTRY@@A 10022fcc     shell.obj
 0002:00004fe0       ?PRCM_CAM_SRAMAONIN@@3UOBSERVE_ENTRY@@A 10022fe0     shell.obj
 0002:00004ff4       ?PRCM_DPLL2_POWER_ISO@@3UOBSERVE_ENTRY@@A 10022ff4     shell.obj
 0002:00005008       ?PRCM_PER_SRAMONIN@@3UOBSERVE_ENTRY@@A 10023008     shell.obj
 0002:0000501c       ?PRCM_IPPWR@@3UOBSERVE_ENTRY@@A 1002301c     shell.obj
 0002:00005030       ?PRCM_MCBSP2_SWAKEUP@@3UOBSERVE_ENTRY@@A 10023030     shell.obj
 0002:00005044       ?PRCM_USIM_FCLK@@3UOBSERVE_ENTRY@@A 10023044     shell.obj
 0002:00005058       ?PRCM_IVA2_RST1@@3UOBSERVE_ENTRY@@A 10023058     shell.obj
 0002:0000506c       ?PRCM_WKUP_RST@@3UOBSERVE_ENTRY@@A 1002306c     shell.obj
 0002:00005080       ?PRCM_ICEPICK_RST@@3UOBSERVE_ENTRY@@A 10023080     shell.obj
 0002:00005094       ?PRCM_IVA2_domainWakeup@@3UOBSERVE_ENTRY@@A 10023094     shell.obj
 0002:000050a8       ?PRCM_usbhost_domain_is_inactive@@3UOBSERVE_ENTRY@@A 100230a8     shell.obj
 0002:000050bc       ?PRCM_usbhost_domain_is_retention@@3UOBSERVE_ENTRY@@A 100230bc     shell.obj
 0002:000050d0       ?PRCM_usbhost_domain_is_off@@3UOBSERVE_ENTRY@@A 100230d0     shell.obj
 0002:000050e4       ?PRCM_SRAMALLOFF_MUX7@@3UOBSERVE_ENTRY@@A 100230e4     shell.obj
 0002:000050f8       ?PRCM_IVA2_POWER_ON@@3UOBSERVE_ENTRY@@A 100230f8     shell.obj
 0002:0000510c       ?PRCM_IVA2_SRAMRETONIN_MUX7@@3UOBSERVE_ENTRY@@A 1002310c     shell.obj
 0002:00005120       ?PRCM_CORE_SRAMAONIN_MUX7@@3UOBSERVE_ENTRY@@A 10023120     shell.obj
 0002:00005134       ?PRCM_CORE_SRAMRETGOODOUT_MUX7@@3UOBSERVE_ENTRY@@A 10023134     shell.obj
 0002:00005148       ?PRCM_SGX_SRAMRETGOODOUT@@3UOBSERVE_ENTRY@@A 10023148     shell.obj
 0002:0000515c       ?PRCM_CAM_SRAMAGOODOUT@@3UOBSERVE_ENTRY@@A 1002315c     shell.obj
 0002:00005170       ?PRCM_DPLL2_POWER_GOOD@@3UOBSERVE_ENTRY@@A 10023170     shell.obj
 0002:00005184       ?PRCM_PER_SRAMAGOODOUT@@3UOBSERVE_ENTRY@@A 10023184     shell.obj
 0002:00005198       ?PRCM_ActLikeSecure@@3UOBSERVE_ENTRY@@A 10023198     shell.obj
 0002:000051ac       ?PRCM_USBHS_SWAKEUP@@3UOBSERVE_ENTRY@@A 100231ac     shell.obj
 0002:000051c0       ?PRCM_USBTHOST_SAR_FCLK@@3UOBSERVE_ENTRY@@A 100231c0     shell.obj
 0002:000051d4       ?PRCM_NEON_RST@@3UOBSERVE_ENTRY@@A 100231d4     shell.obj
 0002:000051e8       ?PRCM_WKUP_RSTPWRON@@3UOBSERVE_ENTRY@@A 100231e8     shell.obj
 0002:000051fc       ?PRCM_VDD1_VOLCON_RST@@3UOBSERVE_ENTRY@@A 100231fc     shell.obj
 0002:00005210       ?PRCM_IVA2_domainIsOn@@3UOBSERVE_ENTRY@@A 10023210     shell.obj
 0002:00005224       ?PRCM_iva2_domain_is_inactive@@3UOBSERVE_ENTRY@@A 10023224     shell.obj
 0002:00005238       ?PRCM_iva2_domain_is_retention@@3UOBSERVE_ENTRY@@A 10023238     shell.obj
 0002:0000524c       ?PRCM_iva2_domain_is_off@@3UOBSERVE_ENTRY@@A 1002324c     shell.obj
 0002:00005260       ?PRCM_SRAMALLOFF_MUX8@@3UOBSERVE_ENTRY@@A 10023260     shell.obj
 0002:00005274       ?PRCM_IVA2_POWER_ISO@@3UOBSERVE_ENTRY@@A 10023274     shell.obj
 0002:00005288       ?PRCM_IVA2_SRAMRETONIN_MUX8@@3UOBSERVE_ENTRY@@A 10023288     shell.obj
 0002:0000529c       ?PRCM_CORE_SRAMAONIN_MUX8@@3UOBSERVE_ENTRY@@A 1002329c     shell.obj
 0002:000052b0       ?PRCM_CORE_SRAMRETGOODOUT_MUX8@@3UOBSERVE_ENTRY@@A 100232b0     shell.obj
 0002:000052c4       ?PRCM_DSS_POWER_ON@@3UOBSERVE_ENTRY@@A 100232c4     shell.obj
 0002:000052d8       ?PRCM_CAM_SRAMRETONIN@@3UOBSERVE_ENTRY@@A 100232d8     shell.obj
 0002:000052ec       ?PRCM_DPLL3_POWER_ON@@3UOBSERVE_ENTRY@@A 100232ec     shell.obj
 0002:00005300       ?PRCM_PER_SRAMRETONIN@@3UOBSERVE_ENTRY@@A 10023300     shell.obj
 0002:00005314       ?PRCM_USBHOST_ISO_SAR@@3UOBSERVE_ENTRY@@A 10023314     shell.obj
 0002:00005328       ?PRCM_GPT10_SWAKEUP@@3UOBSERVE_ENTRY@@A 10023328     shell.obj
 0002:0000533c       ?PRCM_USBTLL_SAR_FCLK@@3UOBSERVE_ENTRY@@A 1002333c     shell.obj
 0002:00005350       ?PRCM_IVA2_RST2@@3UOBSERVE_ENTRY@@A 10023350     shell.obj
 0002:00005364       ?PRCM_EMU_RST@@3UOBSERVE_ENTRY@@A 10023364     shell.obj
 0002:00005378       ?PRCM_VDD2_VOLCON_RST@@3UOBSERVE_ENTRY@@A 10023378     shell.obj
 0002:0000538c       ?PRCM_COREL3_domainWakeup@@3UOBSERVE_ENTRY@@A 1002338c     shell.obj
 0002:000053a0       ?PRCM_vdd1_domain_is_good@@3UOBSERVE_ENTRY@@A 100233a0     shell.obj
 0002:000053b4       ?PRCM_vdd1_domain_is_sleep@@3UOBSERVE_ENTRY@@A 100233b4     shell.obj
 0002:000053c8       ?PRCM_vdd4_domain_is_off@@3UOBSERVE_ENTRY@@A 100233c8     shell.obj
 0002:000053dc       ?PRCM_Device_wakeup@@3UOBSERVE_ENTRY@@A 100233dc     shell.obj
 0002:000053f0       ?PRCM_MPU_POWER_ON@@3UOBSERVE_ENTRY@@A 100233f0     shell.obj
 0002:00005404       ?PRCM_IVA2_POWER_GOOD_MUX9@@3UOBSERVE_ENTRY@@A 10023404     shell.obj
 0002:00005418       ?PRCM_IVA2_SRAMRETONIN_MUX9@@3UOBSERVE_ENTRY@@A 10023418     shell.obj
 0002:0000542c       ?PRCM_CORE_SRAMAONIN_MUX9@@3UOBSERVE_ENTRY@@A 1002342c     shell.obj
 0002:00005440       ?PRCM_CORE_SRAMRETGOODOUT_MUX9@@3UOBSERVE_ENTRY@@A 10023440     shell.obj
 0002:00005454       ?PRCM_DSS_POWER_ISO@@3UOBSERVE_ENTRY@@A 10023454     shell.obj
 0002:00005468       ?PRCM_CAM_SRAMRETGOODOUT@@3UOBSERVE_ENTRY@@A 10023468     shell.obj
 0002:0000547c       ?PRCM_DPLL3_POWER_ISO@@3UOBSERVE_ENTRY@@A 1002347c     shell.obj
 0002:00005490       ?PRCM_PER_SRAMRETGOODOUT@@3UOBSERVE_ENTRY@@A 10023490     shell.obj
 0002:000054a4       ?PRCM_USBHOST_STARTSAVE@@3UOBSERVE_ENTRY@@A 100234a4     shell.obj
 0002:000054b8       ?PRCM_USBTLL_SWAKEUP@@3UOBSERVE_ENTRY@@A 100234b8     shell.obj
 0002:000054cc       ?PRCM_FUNC_96M_ALWON_CLK@@3UOBSERVE_ENTRY@@A 100234cc     shell.obj
 0002:000054e0       ?PRCM_IVA2_RST3@@3UOBSERVE_ENTRY@@A 100234e0     shell.obj
 0002:000054f4       ?PRCM_EMU_RSTPWRON@@3UOBSERVE_ENTRY@@A 100234f4     shell.obj
 0002:00005508       ?PRCM_CM_RSTPWRONRET@@3UOBSERVE_ENTRY@@A 10023508     shell.obj
 0002:0000551c       ?PRCM_COREL3_domainIsOn@@3UOBSERVE_ENTRY@@A 1002351c     shell.obj
 0002:00005530       ?PRCM_sgx_domain_is_inactive@@3UOBSERVE_ENTRY@@A 10023530     shell.obj
 0002:00005544       ?PRCM_sgx_domain_is_retention@@3UOBSERVE_ENTRY@@A 10023544     shell.obj
 0002:00005558       ?PRCM_sgx_domain_is_off@@3UOBSERVE_ENTRY@@A 10023558     shell.obj
 0002:0000556c       ?PRCM_PADS_OFF_mode@@3UOBSERVE_ENTRY@@A 1002356c     shell.obj
 0002:00005580       ?PRCM_MPU_POWER_ISO@@3UOBSERVE_ENTRY@@A 10023580     shell.obj
 0002:00005594       ?PRCM_IVA2_POWER_GOOD_MUX10@@3UOBSERVE_ENTRY@@A 10023594     shell.obj
 0002:000055a8       ?PRCM_IVA2_SRAMRETONIN_MUX10@@3UOBSERVE_ENTRY@@A 100235a8     shell.obj
 0002:000055bc       ?PRCM_CORE_SRAMAONIN_MUX10@@3UOBSERVE_ENTRY@@A 100235bc     shell.obj
 0002:000055d0       ?PRCM_CORE_SRAMRETGOODOUT_MUX10@@3UOBSERVE_ENTRY@@A 100235d0     shell.obj
 0002:000055e4       ?PRCM_DSS_POWER_GOOD_MUX10@@3UOBSERVE_ENTRY@@A 100235e4     shell.obj
 0002:000055f8       ?PRCM_EMU_POWER_ON@@3UOBSERVE_ENTRY@@A 100235f8     shell.obj
 0002:0000560c       ?PRCM_DPLL3_POWER_GOOD@@3UOBSERVE_ENTRY@@A 1002360c     shell.obj
 0002:00005620       ?PRCM_USBHOST_POWER_ON@@3UOBSERVE_ENTRY@@A 10023620     shell.obj
 0002:00005634       ?PRCM_USBHOST_SAVEDONE@@3UOBSERVE_ENTRY@@A 10023634     shell.obj
 0002:00005648       ?PRCM_GPIO1_SWAKEUP@@3UOBSERVE_ENTRY@@A 10023648     shell.obj
 0002:0000565c       ?PRCM_DSS2_ALWON_FCLK@@3UOBSERVE_ENTRY@@A 1002365c     shell.obj
 0002:00005670       ?PRCM_IVA2_RSTPWRON@@3UOBSERVE_ENTRY@@A 10023670     shell.obj
 0002:00005684       ?PRCM_EFUSE_RSTPWRON@@3UOBSERVE_ENTRY@@A 10023684     shell.obj
 0002:00005698       ?PRCM_DPLL3_rstdata@@3UOBSERVE_ENTRY@@A 10023698     shell.obj
 0002:000056ac       ?PRCM_SGX_domainWakeup@@3UOBSERVE_ENTRY@@A 100236ac     shell.obj
 0002:000056c0       ?PRCM_vdd1_domain_is_off@@3UOBSERVE_ENTRY@@A 100236c0     shell.obj
 0002:000056d4       ?PRCM_vdd1_domain_is_lp@@3UOBSERVE_ENTRY@@A 100236d4     shell.obj
 0002:000056e8       ?PRCM_PRM2MPU_IRQ@@3UOBSERVE_ENTRY@@A 100236e8     shell.obj
 0002:000056fc       ?PRCM_GLOBAL_WKUP_en@@3UOBSERVE_ENTRY@@A 100236fc     shell.obj
 0002:00005710       ?PRCM_MPU_POWER_GOOD_MUX11@@3UOBSERVE_ENTRY@@A 10023710     shell.obj
 0002:00005724       ?PRCM_IVA2_POWER_GOOD_MUX11@@3UOBSERVE_ENTRY@@A 10023724     shell.obj
 0002:00005738       ?PRCM_IVA2_SRAMRETONIN_MUX11@@3UOBSERVE_ENTRY@@A 10023738     shell.obj
 0002:0000574c       ?PRCM_CORE_SRAMAONIN_MUX11@@3UOBSERVE_ENTRY@@A 1002374c     shell.obj
 0002:00005760       ?PRCM_CORE_SRAMRETGOODOUT_MUX11@@3UOBSERVE_ENTRY@@A 10023760     shell.obj
 0002:00005774       ?PRCM_DSS_POWER_GOOD_MUX11@@3UOBSERVE_ENTRY@@A 10023774     shell.obj
 0002:00005788       ?PRCM_EMU_POWER_ISO@@3UOBSERVE_ENTRY@@A 10023788     shell.obj
 0002:0000579c       ?PRCM_DPLL4_POWER_ON@@3UOBSERVE_ENTRY@@A 1002379c     shell.obj
 0002:000057b0       ?PRCM_USBHOST_POWER_ISO@@3UOBSERVE_ENTRY@@A 100237b0     shell.obj
 0002:000057c4       ?PRCM_USBHOST_STARTRESTORE@@3UOBSERVE_ENTRY@@A 100237c4     shell.obj
 0002:000057d8       ?PRCM_WAITINRESET_WK@@3UOBSERVE_ENTRY@@A 100237d8     shell.obj
 0002:000057ec       ?PRCM_EFUSE_ALWON_FCLK@@3UOBSERVE_ENTRY@@A 100237ec     shell.obj
 0002:00005800       ?PRCM_IVA2_RSTDONE@@3UOBSERVE_ENTRY@@A 10023800     shell.obj
 0002:00005814       ?PRCM_SR_RST@@3UOBSERVE_ENTRY@@A 10023814     shell.obj
 0002:00005828       ?PRCM_GlbRstData@@3UOBSERVE_ENTRY@@A 10023828     shell.obj
 0002:0000583c       ?PRCM_SGX_domainIsOn@@3UOBSERVE_ENTRY@@A 1002383c     shell.obj
 0002:00005850       ?PRCM_core_domain_is_inactive@@3UOBSERVE_ENTRY@@A 10023850     shell.obj
 0002:00005864       ?PRCM_core_domain_is_retention@@3UOBSERVE_ENTRY@@A 10023864     shell.obj
 0002:00005878       ?PRCM_core_domain_is_off@@3UOBSERVE_ENTRY@@A 10023878     shell.obj
 0002:0000588c       ?PRCM_IO_WUCLK@@3UOBSERVE_ENTRY@@A 1002388c     shell.obj
 0002:000058a0       ?PRCM_MPU_POWER_GOOD_MUX12@@3UOBSERVE_ENTRY@@A 100238a0     shell.obj
 0002:000058b4       ?PRCM_IVA2_POWER_GOOD_MUX12@@3UOBSERVE_ENTRY@@A 100238b4     shell.obj
 0002:000058c8       ?PRCM_IVA2_SRAMRETGOODOUT_MUX12@@3UOBSERVE_ENTRY@@A 100238c8     shell.obj
 0002:000058dc       ?PRCM_CORE_SRAMAGOODOUT_MUX12@@3UOBSERVE_ENTRY@@A 100238dc     shell.obj
 0002:000058f0       ?PRCM_NEON_POWER_ON@@3UOBSERVE_ENTRY@@A 100238f0     shell.obj
 0002:00005904       ?PRCM_DSS_POWER_GOOD_MUX12@@3UOBSERVE_ENTRY@@A 10023904     shell.obj
 0002:00005918       ?PRCM_EMU_POWER_GOOD@@3UOBSERVE_ENTRY@@A 10023918     shell.obj
 0002:0000592c       ?PRCM_DPLL4_POWER_ISO@@3UOBSERVE_ENTRY@@A 1002392c     shell.obj
 0002:00005940       ?PRCM_USBHOST_POWER_GOOD@@3UOBSERVE_ENTRY@@A 10023940     shell.obj
 0002:00005954       ?PRCM_USBHOST_RESTOREDONE@@3UOBSERVE_ENTRY@@A 10023954     shell.obj
 0002:00005968       ?PRCM_PER_32K_ALWON_FCLK@@3UOBSERVE_ENTRY@@A 10023968     shell.obj
 0002:0000597c       ?PRCM_CORE_RST@@3UOBSERVE_ENTRY@@A 1002397c     shell.obj
 0002:00005990       ?PRCM_DPLL1_RSTPWRON@@3UOBSERVE_ENTRY@@A 10023990     shell.obj
 0002:000059a4       ?PRCM_GlblWarmRst_n@@3UOBSERVE_ENTRY@@A 100239a4     shell.obj
 0002:000059b8       ?PRCM_COREL4_domainWakeup@@3UOBSERVE_ENTRY@@A 100239b8     shell.obj
 0002:000059cc       ?PRCM_vdd1_domain_is_ret@@3UOBSERVE_ENTRY@@A 100239cc     shell.obj
 0002:000059e0       ?PRCM_vdd2_domain_is_on@@3UOBSERVE_ENTRY@@A 100239e0     shell.obj
 0002:000059f4       ?PRCM_USBHOST_domainWakeup@@3UOBSERVE_ENTRY@@A 100239f4     shell.obj
 0002:00005a08       ?PRCM_IO_ISOCLK@@3UOBSERVE_ENTRY@@A 10023a08     shell.obj
 0002:00005a1c       ?PRCM_MPU_POWER_GOOD_MUX13@@3UOBSERVE_ENTRY@@A 10023a1c     shell.obj
 0002:00005a30       ?PRCM_IVA2_POWER_GOOD_MUX13@@3UOBSERVE_ENTRY@@A 10023a30     shell.obj
 0002:00005a44       ?PRCM_IVA2_SRAMRETGOODOUT_MUX13@@3UOBSERVE_ENTRY@@A 10023a44     shell.obj
 0002:00005a58       ?PRCM_CORE_SRAMAGOODOUT_MUX13@@3UOBSERVE_ENTRY@@A 10023a58     shell.obj
 0002:00005a6c       ?PRCM_NEON_POWER_ISO@@3UOBSERVE_ENTRY@@A 10023a6c     shell.obj
 0002:00005a80       ?PRCM_DSS_POWER_GOOD_MUX13@@3UOBSERVE_ENTRY@@A 10023a80     shell.obj
 0002:00005a94       ?PRCM_EMU_SRAMAONIN@@3UOBSERVE_ENTRY@@A 10023a94     shell.obj
 0002:00005aa8       ?PRCM_DPLL4_POWER_GOOD@@3UOBSERVE_ENTRY@@A 10023aa8     shell.obj
 0002:00005abc       ?PRCM_USBHOST_SRAMAONIN@@3UOBSERVE_ENTRY@@A 10023abc     shell.obj
 0002:00005ad0       ?PRCM_USBTLL_ISO_SAR@@3UOBSERVE_ENTRY@@A 10023ad0     shell.obj
 0002:00005ae4       ?PRCM_GPT1_SWAKEUP@@3UOBSERVE_ENTRY@@A 10023ae4     shell.obj
 0002:00005af8       ?PRCM_GPT1_FCLK@@3UOBSERVE_ENTRY@@A 10023af8     shell.obj
 0002:00005b0c       ?PRCM_CORE_RSTPWRONRET@@3UOBSERVE_ENTRY@@A 10023b0c     shell.obj
 0002:00005b20       ?PRCM_DPLL2_RSTPWRON@@3UOBSERVE_ENTRY@@A 10023b20     shell.obj
 0002:00005b34       ?PRCM_GlblPwrOnRst_n@@3UOBSERVE_ENTRY@@A 10023b34     shell.obj
 0002:00005b48       ?PRCM_COREL4_domainIsOn@@3UOBSERVE_ENTRY@@A 10023b48     shell.obj
 0002:00005b5c       ?PRCM_DSS_domainWakeup@@3UOBSERVE_ENTRY@@A 10023b5c     shell.obj
 0002:00005b70       ?PRCM_vdd2_domain_is_good@@3UOBSERVE_ENTRY@@A 10023b70     shell.obj
 0002:00005b84       ?PRCM_USBHOST_domainIsOn@@3UOBSERVE_ENTRY@@A 10023b84     shell.obj
 0002:00005b98       ?PRCM_IO_ISO@@3UOBSERVE_ENTRY@@A 10023b98     shell.obj
 0002:00005bac       ?PRCM_MPU_POWER_GOOD_MUX14@@3UOBSERVE_ENTRY@@A 10023bac     shell.obj
 0002:00005bc0       ?PRCM_IVA2_POWER_GOOD_MUX14@@3UOBSERVE_ENTRY@@A 10023bc0     shell.obj
 0002:00005bd4       ?PRCM_IVA2_SRAMRETGOODOUT_MUX14@@3UOBSERVE_ENTRY@@A 10023bd4     shell.obj
 0002:00005be8       ?PRCM_CORE_SRAMAGOODOUT_MUX14@@3UOBSERVE_ENTRY@@A 10023be8     shell.obj
 0002:00005bfc       ?PRCM_NEON_POWER_GOOD_MUX14@@3UOBSERVE_ENTRY@@A 10023bfc     shell.obj
 0002:00005c10       ?PRCM_DSS_SRAMAONIN@@3UOBSERVE_ENTRY@@A 10023c10     shell.obj
 0002:00005c24       ?PRCM_EMU_SRAMAGOODOUT@@3UOBSERVE_ENTRY@@A 10023c24     shell.obj
 0002:00005c38       ?PRCM_DPLL5_POWER_ON@@3UOBSERVE_ENTRY@@A 10023c38     shell.obj
 0002:00005c4c       ?PRCM_USBHOST_SRAMAGOODOUT@@3UOBSERVE_ENTRY@@A 10023c4c     shell.obj
 0002:00005c60       ?PRCM_USBTLL_STARTSAVE@@3UOBSERVE_ENTRY@@A 10023c60     shell.obj
 0002:00005c74       ?PRCM_EMU_SYS_GCLK@@3UOBSERVE_ENTRY@@A 10023c74     shell.obj
 0002:00005c88       ?PRCM_GPT2_ALWON_FCLK@@3UOBSERVE_ENTRY@@A 10023c88     shell.obj
 0002:00005c9c       ?PRCM_CORE_RSTRET@@3UOBSERVE_ENTRY@@A 10023c9c     shell.obj
 0002:00005cb0       ?PRCM_DPLL3_RSTPWRON@@3UOBSERVE_ENTRY@@A 10023cb0     shell.obj
 0002:00005cc4       ?PRCM_GlblSecureRst_n@@3UOBSERVE_ENTRY@@A 10023cc4     shell.obj
 0002:00005cd8       ?PRCM_DSS_domainIsOn@@3UOBSERVE_ENTRY@@A 10023cd8     shell.obj
 0002:00005cec       ?PRCM_dss_domain_is_inactive@@3UOBSERVE_ENTRY@@A 10023cec     shell.obj
 0002:00005d00       ?PRCM_dss_domain_is_retention@@3UOBSERVE_ENTRY@@A 10023d00     shell.obj
 0002:00005d14       ?PRCM_dss_domain_is_off@@3UOBSERVE_ENTRY@@A 10023d14     shell.obj
 0002:00005d28       ?PRCM_MPU_POWER_GOOD_MUX15@@3UOBSERVE_ENTRY@@A 10023d28     shell.obj
 0002:00005d3c       ?PRCM_IVA2_SRAMAONIN_MUX15@@3UOBSERVE_ENTRY@@A 10023d3c     shell.obj
 0002:00005d50       ?PRCM_IVA2_SRAMRETGOODOUT_MUX15@@3UOBSERVE_ENTRY@@A 10023d50     shell.obj
 0002:00005d64       ?PRCM_CORE_SRAMAGOODOUT_MUX15@@3UOBSERVE_ENTRY@@A 10023d64     shell.obj
 0002:00005d78       ?PRCM_NEON_POWER_GOOD_MUX15@@3UOBSERVE_ENTRY@@A 10023d78     shell.obj
 0002:00005d8c       ?PRCM_DSS_SRAMAGOODOUT@@3UOBSERVE_ENTRY@@A 10023d8c     shell.obj
 0002:00005da0       ?PRCM_EMU_SRAMRETONIN@@3UOBSERVE_ENTRY@@A 10023da0     shell.obj
 0002:00005db4       ?PRCM_DPLL5_POWER_ISO@@3UOBSERVE_ENTRY@@A 10023db4     shell.obj
 0002:00005dc8       ?PRCM_USBHOST_SRAMRETONIN@@3UOBSERVE_ENTRY@@A 10023dc8     shell.obj
 0002:00005ddc       ?PRCM_USBTLL_SAVEDONE@@3UOBSERVE_ENTRY@@A 10023ddc     shell.obj
 0002:00005df0       ?PRCM_GPT3_ALWON_FCLK@@3UOBSERVE_ENTRY@@A 10023df0     shell.obj
 0002:00005e04       ?PRCM_CPEFUSE_RST@@3UOBSERVE_ENTRY@@A 10023e04     shell.obj
 0002:00005e18       ?PRCM_DPLL4_RSTPWRON@@3UOBSERVE_ENTRY@@A 10023e18     shell.obj
 0002:00005e2c       ?PRCM_MPU_SECURITY_VIOL_RST@@3UOBSERVE_ENTRY@@A 10023e2c     shell.obj
 0002:00005e40       ?PRCM_PER_domainWakeup@@3UOBSERVE_ENTRY@@A 10023e40     shell.obj
 0002:00005e54       ?PRCM_vdd2_domain_is_off@@3UOBSERVE_ENTRY@@A 10023e54     shell.obj
 0002:00005e68       ?PRCM_vdd5_domain_is_off@@3UOBSERVE_ENTRY@@A 10023e68     shell.obj
 0002:00005e7c       ?PRCM_PRM2IVA2_IRQ@@3UOBSERVE_ENTRY@@A 10023e7c     shell.obj
 0002:00005e90       ?PRCM_MPU_POWER_GOOD_MUX16@@3UOBSERVE_ENTRY@@A 10023e90     shell.obj
 0002:00005ea4       ?PRCM_IVA2_SRAMAONIN_MUX16@@3UOBSERVE_ENTRY@@A 10023ea4     shell.obj
 0002:00005eb8       ?PRCM_IVA2_SRAMRETGOODOUT_MUX16@@3UOBSERVE_ENTRY@@A 10023eb8     shell.obj
 0002:00005ecc       ?PRCM_CORE_SRAMAGOODOUT_MUX16@@3UOBSERVE_ENTRY@@A 10023ecc     shell.obj
 0002:00005ee0       ?PRCM_SGX_POWER_ON@@3UOBSERVE_ENTRY@@A 10023ee0     shell.obj
 0002:00005ef4       ?PRCM_DSS_SRAMRETONIN@@3UOBSERVE_ENTRY@@A 10023ef4     shell.obj
 0002:00005f08       ?PRCM_EMU_SRAMRETGOODOUT@@3UOBSERVE_ENTRY@@A 10023f08     shell.obj
 0002:00005f1c       ?PRCM_DPLL5_POWER_GOOD@@3UOBSERVE_ENTRY@@A 10023f1c     shell.obj
 0002:00005f30       ?PRCM_USBHOST_SRAMRETGOODOUT@@3UOBSERVE_ENTRY@@A 10023f30     shell.obj
 0002:00005f44       ?PRCM_USBTLL_STARTRESTORE@@3UOBSERVE_ENTRY@@A 10023f44     shell.obj
 0002:00005f58       ?PRCM_WKUP_32K_GFCLK@@3UOBSERVE_ENTRY@@A 10023f58     shell.obj
 0002:00005f6c       ?PRCM_GPT4_ALWON_FCLK@@3UOBSERVE_ENTRY@@A 10023f6c     shell.obj
 0002:00005f80       ?PRCM_USBTLL_RST@@3UOBSERVE_ENTRY@@A 10023f80     shell.obj
 0002:00005f94       ?PRCM_DPLL5_RSTPWRON@@3UOBSERVE_ENTRY@@A 10023f94     shell.obj
 0002:00005fa8       ?PRCM_ICECRUSHER_RST@@3UOBSERVE_ENTRY@@A 10023fa8     shell.obj
 0002:00005fbc       ?PRCM_CORECM_domainWakeup@@3UOBSERVE_ENTRY@@A 10023fbc     shell.obj
 0002:00005fd0       ?PRCM_PER_domainIsOn@@3UOBSERVE_ENTRY@@A 10023fd0     shell.obj
 0002:00005fe4       ?PRCM_per_domain_is_inactive@@3UOBSERVE_ENTRY@@A 10023fe4     shell.obj
 0002:00005ff8       ?PRCM_per_domain_is_retention@@3UOBSERVE_ENTRY@@A 10023ff8     shell.obj
 0002:0000600c       ?PRCM_per_domain_is_off@@3UOBSERVE_ENTRY@@A 1002400c     shell.obj
 0002:00006020       ?PRCM_MPU_SRAMAONIN_MUX17@@3UOBSERVE_ENTRY@@A 10024020     shell.obj
 0002:00006034       ?PRCM_IVA2_SRAMAONIN_MUX17@@3UOBSERVE_ENTRY@@A 10024034     shell.obj
 0002:00006048       ?PRCM_CORE_POWER_ON@@3UOBSERVE_ENTRY@@A 10024048     shell.obj
 0002:0000605c       ?PRCM_CORE_SRAMAGOODOUT@@3UOBSERVE_ENTRY@@A 1002405c     shell.obj
 0002:00006070       ?PRCM_SGX_POWER_ISO@@3UOBSERVE_ENTRY@@A 10024070     shell.obj
 0002:00006084       ?PRCM_DSS_SRAMRETGOODOUT@@3UOBSERVE_ENTRY@@A 10024084     shell.obj
 0002:00006098       ?PRCM_SR_POWER_ON@@3UOBSERVE_ENTRY@@A 10024098     shell.obj
 0002:000060ac       ?PRCM_PER_POWER_ON@@3UOBSERVE_ENTRY@@A 100240ac     shell.obj
 0002:000060c0       ?PRCM_ldoemuonz@@3UOBSERVE_ENTRY@@A 100240c0     shell.obj
 0002:000060d4       ?PRCM_USBTLL_RESTOREDONE@@3UOBSERVE_ENTRY@@A 100240d4     shell.obj
 0002:000060e8       ?PRCM_WKUP_L4_GICLK@@3UOBSERVE_ENTRY@@A 100240e8     shell.obj
 0002:00006100       ?g_rgObservabilityList@@3PAUOBSERVE_ITEM@@A 10024100     shell.obj
 0002:000087b0       ?_rgDeviceClockNames@@3PAPBGA 100267b0     utils.obj
 0002:00008908       ?_rgDpllClockNames@@3PAPBGA 10026908     utils.obj
 0002:00008948       ?_rgDpllNames@@3PAPBGA     10026948     utils.obj
 0002:00008960       ?_rgVddNames@@3PAPBGA      10026960     utils.obj
 0002:00008984       ?_rgVddMap@@3PAPBGA        10026984     utils.obj
 0002:000089b0       ?_rgOmapDeviceMap@@3PAUOMAP_CLOCK_MAP@@A 100269b0     utils.obj
 0002:00008c20       ?_rgDpllMap@@3PAPBGA       10026c20     utils.obj
 0002:00008c40       ?_rgDpllClkOutMap@@3PAPBGA 10026c40     utils.obj
 0002:00008c84       ?_rgClockMap@@3PAPAPBGA    10026c84     utils.obj
 0002:00008c98       g_dwMeasuredSysClkFreq     10026c98     bspcfg:bspcfg.obj
 0002:00008c9c       _rgScaleTable              10026c9c     bspcfg:bspcfg.obj
 0002:00008cc0       _rgI2CDevice               10026cc0     bspcfg:bspcfg.obj
 0002:00008da0       SupportedNands             10026da0     bspcfg:bspcfg.obj
 0002:00008ddc       BSPGpioTables              10026ddc     bspcfg:bspcfg.obj
 0002:00008df4       __security_cookie          10026df4     corelib0:seccinit.obj
 0002:00008df8       __security_cookie_complement 10026df8     corelib0:seccinit.obj
 0002:00008e0c       ??_B?1??get_lock@?$singleton@V?$free_list@$0GE@Vallocator@ce@@@ce@@$03V?$static_allocator@V?$free_list@$0GE@Vallocator@ce@@@ce@@$03@2@@ce@@KAAAVcritical_section@2@XZ@51 10026e0c     shell.obj
 0002:00008e10       ?cs@?1??get_lock@?$singleton@V?$free_list@$0GE@Vallocator@ce@@@ce@@$03V?$static_allocator@V?$free_list@$0GE@Vallocator@ce@@@ce@@$03@2@@ce@@KAAAVcritical_section@3@XZ@4V43@A 10026e10     shell.obj
 0002:00008e24       ?_factory@?$singleton@V?$free_list@$0GE@Vallocator@ce@@@ce@@$03V?$static_allocator@V?$free_list@$0GE@Vallocator@ce@@@ce@@$03@2@@ce@@1Ulock_factory@12@A 10026e24     shell.obj
 0002:00008e8c       _exitflag                  10026e8c     corelib0:cexit.obj
 0002:00008e90       __onexitend                10026e90     <common>
 0002:00008e94       __onexitbegin              10026e94     <common>
 0002:00008e98       g_pcsExit                  10026e98     <common>
 0002:00008e9c       _pRawDllMain               10026e9c     <common>

 entry point at        0001:0001c4c4

 Static symbols

 0001:00013404       ?Help@@YAHKQAPAGP6AXPAGZZ@Z 10014404 f   shell.obj
 0001:000135d8       ?GetNEONStat@@YAHKQAPAGP6AXPAGZZ@Z 100145d8 f   shell.obj
 0001:00013894       ?TouchScreenCalibrate@@YAHKQAPAGP6AXPAGZZ@Z 10014894 f   shell.obj
 0001:000138a8       ?GetDec@@YAJPBG@Z          100148a8 f   shell.obj
 0001:00013900       ?GetHex@@YAIPBG@Z          10014900 f   shell.obj
 0001:00013974       ?CpuIdle@@YAHKQAPAGP6AXPAGZZ@Z 10014974 f   shell.obj
 0001:00013d70       ?OPMode@@YAHKQAPAGP6AXPAGZZ@Z 10014d70 f   shell.obj
 0001:00014010       ?SmartReflex@@YAHKQAPAGP6AXPAGZZ@Z 10015010 f   shell.obj
 0001:00014128       ?Dump_GPMC@@YAXP6AXPAGZZ@Z 10015128 f   shell.obj
 0001:00015604       ?Dump_SDRC@@YAXP6AXPAGZZ@Z 10016604 f   shell.obj
 0001:00015dd8       ?Dump_PRCM@@YAXP6AXPAGZZ@Z 10016dd8 f   shell.obj
 0001:000165f0       ?Dump_DSS@@YAXP6AXPAGZZ@Z  100175f0 f   shell.obj
 0001:00017a3c       ?Dump_ContextRestore@@YAXP6AXPAGZZ@Z 10018a3c f   shell.obj
 0001:00018680       ?Dump_EFuse@@YAXP6AXPAGZZ@Z 10019680 f   shell.obj
 0001:000187c8       ?Dump_PRCMStates@@YAXP6AXPAGZZ@Z 100197c8 f   shell.obj
 0001:00019754       ?Device_xxx@@YAHKQAPAGP6AXPAGZZ@Z 1001a754 f   shell.obj
 0001:00019910       ?Observe@@YAHKQAPAGP6AXPAGZZ@Z 1001a910 f   shell.obj
 0001:00019acc       ?SetContrast@@YAHKQAPAGP6AXPAGZZ@Z 1001aacc f   shell.obj
 0001:00019b60       ?Reboot@@YAHKQAPAGP6AXPAGZZ@Z 1001ab60 f   shell.obj
 0001:00019bc4       ?Display@@YAHKQAPAGP6AXPAGZZ@Z 1001abc4 f   shell.obj
 0001:00019cc4       ?TvOut@@YAHKQAPAGP6AXPAGZZ@Z 1001acc4 f   shell.obj
 0001:0001a00c       ?DVIControl@@YAHKQAPAGP6AXPAGZZ@Z 1001b00c f   shell.obj
 0001:0001a118       ?PowerDomain@@YAHKQAPAGP6AXPAGZZ@Z 1001b118 f   shell.obj
 0001:0001a340       ?HalProfile@@YAHKQAPAGP6AXPAGZZ@Z 1001b340 f   shell.obj
 0001:0001a528       ?InterruptLatency@@YAHKQAPAGP6AXPAGZZ@Z 1001b528 f   shell.obj
 0001:0001aa54       ?InReg8@@YAHKQAPAGP6AXPAGZZ@Z 1001ba54 f   shell.obj
 0001:0001abe8       ?InReg16@@YAHKQAPAGP6AXPAGZZ@Z 1001bbe8 f   shell.obj
 0001:0001ad90       ?InReg32@@YAHKQAPAGP6AXPAGZZ@Z 1001bd90 f   shell.obj
 0001:0001af30       ?OutReg8@@YAHKQAPAGP6AXPAGZZ@Z 1001bf30 f   shell.obj
 0001:0001afec       ?OutReg16@@YAHKQAPAGP6AXPAGZZ@Z 1001bfec f   shell.obj
 0001:0001b0a8       ?OutReg32@@YAHKQAPAGP6AXPAGZZ@Z 1001c0a8 f   shell.obj
 0001:0001b150       ?InI2C@@YAHKQAPAGP6AXPAGZZ@Z 1001c150 f   shell.obj
 0001:0001b4f8       ?OutI2C@@YAHKQAPAGP6AXPAGZZ@Z 1001c4f8 f   shell.obj
 0001:0001b7b4       ?Dump_RegisterGroup@@YAHKQAPAGP6AXPAGZZ@Z 1001c7b4 f   shell.obj
 0001:0001b8fc       ?ScreenRotate@@YAHKQAPAGP6AXPAGZZ@Z 1001c8fc f   shell.obj
 0001:0001c3c8       _DllMainCRTStartupHelper   1001d3c8 f   corelib0:pegdmain.obj
 0001:0001c7b8       doexit                     1001d7b8 f   corelib0:cexit.obj
 0001:0001cb28       ??__E?_factory@?$singleton@V?$free_list@$0GE@Vallocator@ce@@@ce@@$03V?$static_allocator@V?$free_list@$0GE@Vallocator@ce@@@ce@@$03@2@@ce@@1Ulock_factory@12@A@@YAXXZ 1001db28 f   shell.obj
