 tiwlnapi

 Timestamp is 51dcc79f (Wed Jul 10 10:31:59 2013)

 Preferred load address is 10000000

 Start         Length     Name                   Class
 0001:00000000 000182a3H .rdata                  CODE
 0001:000182a4 00000025H .rdata$debug            CODE
 0001:000182cc 00089f08H .text                   CODE
 0001:000a21d4 000003f4H .xdata                  CODE
 0001:000a25c8 00000064H .idata$2                CODE
 0001:000a262c 00000014H .idata$3                CODE
 0001:000a2640 00000168H .idata$4                CODE
 0001:000a27a8 0000040aH .idata$6                CODE
 0001:000a2bc0 0000004bH .edata                  CODE
 0002:00000000 00000168H .idata$5                DATA
 0002:00000168 000059a0H .data                   DATA
 0002:00005b08 000003c4H .bss                    DATA
 0003:00000000 000044f0H .pdata                  DATA

  Address         Publics by Value              Rva+Base       Lib:Object

 0000:00000000       ___safe_se_handler_count   00000000     <absolute>
 0000:00000000       ___safe_se_handler_table   00000000     <absolute>
 0001:00000020       ??_C@_0EE@KNMGGJN@JSR?3?5TICCXWLN?3Else?5calling?5callb@ 10001020     ipc_k.obj
 0001:00000068       ??_C@_1HO@PKCFBODD@?$AAJ?$AAS?$AAR?$AA?3?$AAE?$AAV?$AAE?$AAN?$AAT?$AA?3?$AA?3?$AA?5?$AAS?$AAe?$AAt?$AA?5?$AAE?$AAv?$AAe?$AAn?$AAt?$AA?5?$AAF?$AAa?$AAi?$AAl?$AAe?$AAd?$AA?4?$AA?4?$AA?4?$AA?4@ 10001068     ipc_k.obj
 0001:000000e8       ??_C@_1BK@HCHILLOM@?$AAI?$AAP?$AAC?$AA_?$AAR?$AAX?$AA_?$AAE?$AAV?$AAE?$AAN?$AAT?$AA?$AA@ 100010e8     ipc_k.obj
 0001:00000108       ??_C@_0EI@KHKIEJFM@JSR?3EVENT?3?5TICCXWLN?3IPC_K?4C?3Set?5@ 10001108     ipc_k.obj
 0001:00000150       ??_C@_0CB@JEBBFCCI@JSR?3EVENT?3?3?5PC?4pRxIPCEvent?5?$DNNULL@ 10001150     ipc_k.obj
 0001:00000208       ??_C@_1FG@PFFGBJGK@?$AA?6?$AAo?$AAs?$AA_?$AAs?$AAe?$AAt?$AAD?$AAe?$AAb?$AAu?$AAg?$AAO?$AAu?$AAt?$AAp?$AAu?$AAt?$AAT?$AAo?$AAL?$AAo?$AAg?$AAg?$AAe?$AAr?$AA?5?$AAs?$AAe?$AAt?$AA?5?$AAf@ 10001208     osapi.obj
 0001:00000260       ??_C@_15GANGMFKL@?$AA?$CF?$AAs?$AA?$AA@ 10001260     osapi.obj
 0001:00000268       ??_C@_1O@CHBMPDIL@?$AAT?$AAI?$AAW?$AAL?$AAA?$AAN?$AA?$AA@ 10001268     osapi.obj
 0001:00000278       ??_C@_1CA@KOJLDMDP@?$AA?$CF?$AAs?$AA?3?$AA?5?$AA?$CF?$AAd?$AA?4?$AA?$CF?$AA0?$AA6?$AAd?$AA?3?$AA?5?$AA?$CF?$AAs?$AA?$AA@ 10001278     osapi.obj
 0001:00000298       ??_C@_1GI@DBNJIBPD@?$AAE?$AAr?$AAr?$AAo?$AAr?$AA?5?$AAs?$AAe?$AAn?$AAd?$AAt?$AAo?$AA?5?$AAs?$AAo?$AAc?$AAk?$AAe?$AAt?$AA?4?$AA?5?$AAP?$AAr?$AAi?$AAn?$AAt?$AAo?$AAu?$AAt?$AA?5?$AAr?$AAe@ 10001298     osapi.obj
 0001:00000300       ??_C@_0BM@KHKGDMAA@TIWL?3?5DISASSOCIATED?5?$DM?$DM?$DM?$DM?$DM?5?6?$AA@ 10001300     osapi.obj
 0001:0000031c       ??_C@_0CG@LDMFOADB@TIWL?3?5Not?5supported?5Connection?5E@ 1000131c     osapi.obj
 0001:00000344       ??_C@_0CD@GFENJFCK@TIWL?3?5Connection?5Status?3?5Event?$DN?$CF@ 10001344     osapi.obj
 0001:00000368       ??_C@_0CG@BHGKFIGA@Could?5not?5find?5a?5usable?5WinSock?5@ 10001368     osapi.obj
 0001:00000390       ??_C@_0BL@OENIHIIK@os_initPrintRedirectSocket?$AA@ 10001390     osapi.obj
 0001:000003ac       ??_C@_0CC@PHJHEFJL@?$CFs?3?5error?5opening?5socket?5socket?4@ 100013ac     osapi.obj
 0001:000003d0       ??_C@_0CC@PMLEMPFG@Could?5not?5initializate?5WinSocks?4@ 100013d0     osapi.obj
 0001:000003f8       ??_C@_1FE@DPNAIBPG@?$AA?6?$AAo?$AAs?$AA_?$AAs?$AAe?$AAt?$AAD?$AAe?$AAb?$AAu?$AAg?$AAO?$AAu?$AAt?$AAp?$AAu?$AAt?$AAT?$AAo?$AAT?$AAi?$AAc?$AAo?$AAn?$AA?5?$AAs?$AAe?$AAt?$AA?5?$AAf?$AAl@ 100013f8     osapi.obj
 0001:00000450       ??_C@_1FI@PKGHCKEJ@?$AAE?$AAr?$AAr?$AAo?$AAr?$AA?5?$AAi?$AAn?$AAi?$AAt?$AA?5?$AAs?$AAo?$AAc?$AAk?$AAe?$AAt?$AA?5?$AAf?$AAo?$AAr?$AA?5?$AAp?$AAr?$AAi?$AAn?$AAt?$AAo?$AAu?$AAt?$AA?5?$AAr@ 10001450     osapi.obj
 0001:00000538       ??_C@_0BN@MNPBLLGD@TI?5WLAN?3?5DLL_PROCESS_DETACH?6?$AA@ 10001538     osentry.obj
 0001:00000558       ??_C@_0BN@EELICCHN@TI?5WLAN?3?5DLL_PROCESS_ATTACH?6?$AA@ 10001558     osentry.obj
 0001:00000578       ??_C@_0CN@LFMHEBBI@TIWL?3?5entryMiniportInitialize?5Go@ 10001578     osentry.obj
 0001:000005a8       ??_C@_0BL@JOGHLAKE@wlanDrvIf_Start?$CI?$CJ?3?5Failed?6?$AA@ 100015a8     osentry.obj
 0001:000005c4       ??_C@_0DB@GKLNMHEH@TIWL?3?5entryMiniportInitialize?5wl@ 100015c4     osentry.obj
 0001:000005f8       ??_C@_0CI@JKMPPIGL@TIWL?3?5Could?5not?5register?5interru@ 100015f8     osentry.obj
 0001:00000620       ??_C@_0CB@FDJPHBOI@TIWL?3?5wlanDrvIf_Create?5failed?$CB?$CB?6@ 10001620     osentry.obj
 0001:00000644       ??_C@_0CG@EBOGJFLG@TIWL?3?5Could?5not?5create?5drvThread@ 10001644     osentry.obj
 0001:0000066c       ??_C@_0CF@GMNBGID@TIWL?3?5Could?5not?5create?5drvEvent?$CI@ 1000166c     osentry.obj
 0001:00000694       ??_C@_0CK@NMHJBFJH@TIWL?3?5NdisAllocateBufferPool?$CI?$CJ?5f@ 10001694     osentry.obj
 0001:000006c0       ??_C@_0CK@FIDPDPK@TIWL?3?5NdisAllocatePacketPool?$CI?$CJ?5f@ 100016c0     osentry.obj
 0001:000006ec       ??_C@_0DB@CNNEDHBL@TIWL?3?5Could?8n?5open?5the?5device?5co@ 100016ec     osentry.obj
 0001:00000720       ??_C@_0CA@MAACLNMD@TIWL?3?5os_memoryAlloc?5failed?$CB?$CB?$CB?6?$AA@ 10001720     osentry.obj
 0001:00000740       ??_C@_0EB@FEHNIFIB@TIWL?3?5entryMiniportInitialize?5Ou@ 10001740     osentry.obj
 0001:00000784       ??_C@_0CC@DNGOFEPB@TIWL?3?5entryMiniportInitialize?5In@ 10001784     osentry.obj
 0001:000007a8       ??_C@_0BH@DJOBIEAN@TIWL?3?5DriverEntry?5Out?6?$AA@ 100017a8     osentry.obj
 0001:000007c0       ??_C@_0BG@IGEGGBMI@TIWL?3?5DriverEntry?5In?6?$AA@ 100017c0     osentry.obj
 0001:000007d8       ??_C@_0BM@OFILIJFP@TIWL?3?5ndisMiniportHalt?5Out?6?$AA@ 100017d8     osndis.obj
 0001:000007f4       ??_C@_0BD@DEHPELOE@MiniportHalt?$CI?$CJ?5In?6?$AA@ 100017f4     osndis.obj
 0001:00000808       ??_C@_0BE@LILNBME@MiniportHalt?$CI?$CJ?5Out?6?$AA@ 10001808     osndis.obj
 0001:0000081c       ??_C@_0BL@DKEGPMOG@TIWL?3?5ndisMiniportHalt?5In?6?$AA@ 1000181c     osndis.obj
 0001:00000838       ??_C@_0BM@MLOILGEN@TIWL?3?5ndisMiniportReset?5In?6?$AA@ 10001838     osndis.obj
 0001:00000854       ??_C@_0BL@DFLIKJGI@TIWL?3?5ndisMiniportISR?5Out?6?$AA@ 10001854     osndis.obj
 0001:00000870       ??_C@_0BK@GJHADMAD@TIWL?3?5ndisMiniportISR?5In?6?$AA@ 10001870     osndis.obj
 0001:00000890       ??_C@_0GA@BPJAMLLF@TIWL?3?5InsertCommand?$CI?$CJ?5failed?5to?5@ 10001890     osoid.obj
 0001:000008f0       ??_C@_0DH@KOPHIKEJ@cmdInterpret?3?5Wrong?5buffer?5size?5@ 100018f0     osoid.obj
 0001:00000928       ??_C@_0BN@PLCPPALE@TIWL?3?5OID_GEN_LINK_SPEED?5?$CFd?6?$AA@ 10001928     osoid.obj
 0001:00000948       ??_C@_0CD@MEIGCGL@TIWL?3?5?$CISET?$CJ?5OID_PNP_SET_POWER?5?$CF?5@ 10001948     osoid.obj
 0001:0000096c       ??_C@_0CL@OFOJHPLN@SET?5POWER_MODE_ACTIVE?5?$CINdisDevic@ 1000196c     osoid.obj
 0001:00000998       ??_C@_0CL@PHNIBGBF@SET?5OID_PNP_SET_POWER?5?$CINdisDevic@ 10001998     osoid.obj
 0001:000009c4       ??_C@_0DB@LDEPMBLJ@TIWL?3?5?$CISET?$CJOID_PNP_SET_POWER?5Ndi@ 100019c4     osoid.obj
 0001:000009f8       ??_C@_0CL@OFGNLJPL@SET?5OID_PNP_SET_POWER?5?$CINdisDevic@ 100019f8     osoid.obj
 0001:00000a24       ??_C@_0DB@KBPKGOFH@TIWL?3?5?$CISET?$CJOID_PNP_SET_POWER?5Ndi@ 10001a24     osoid.obj
 0001:00000a58       ??_C@_0DB@BJEGAJDC@TIWL?3?5?$CISET?$CJOID_PNP_SET_POWER?5Ndi@ 10001a58     osoid.obj
 0001:00000a8c       ??_C@_0BE@EECMLNJC@POWER_MODE?5unknown?6?$AA@ 10001a8c     osoid.obj
 0001:00000aa0       ??_C@_0CB@FBOIDJDJ@TIWL?3?5?$CISET?$CJOID_PNP_SET_POWER?5?$CFd?6@ 10001aa0     osoid.obj
 0001:00000ac8       ??_C@_0IA@CNDMMFEI@TIWLN?3?5PacketFilter?4?5Block?4?5SrcA@ 10001ac8     osrecv.obj
 0001:00000b48       ??_C@_0BM@CLJDKDGI@TIWL?3?5recvReturnPacket?5Out?6?$AA@ 10001b48     osrecv.obj
 0001:00000b64       ??_C@_0CC@FJMOOIJB@?5?5Could?5not?5allocate?5NDIS?5buffer@ 10001b64     osrecv.obj
 0001:00000b88       ??_C@_0CN@FCAKMNKJ@?5?5Could?5not?5allocate?5NDIS?5packet@ 10001b88     osrecv.obj
 0001:00000bb8       ??_C@_0CE@PGBNENLH@TIWL?3?5Received?5packet?4?5Length?5?9?5@ 10001bb8     osrecv.obj
 0001:00000c70       ??_C@_0DJ@OFEIPBM@cmdInterpret_init?3?5failed?5to?5all@ 10001c70     cmdinterpretoid.obj
 0001:00000cb0       ??_C@_0EE@EGCJJPF@TIWLN?3?5cmdGetAppIndexByPort?$CI?$CJ?3?5C@ 10001cb0     cmdinterpretoid.obj
 0001:00000cf4       ??_C@_0DE@LNBKGJLJ@cmdInterpret_ServiceCompleteCB?3?5@ 10001cf4     cmdinterpretoid.obj
 0001:00000d28       ??_C@_0CD@OJBAEJHN@App?5EVENT?5registration?4?5App?5id?$DN?$CF@ 10001d28     cmdinterpretoid.obj
 0001:00000d4c       ??_C@_0CI@JEJINKLA@App?5DISABLE?5EVENT?4?5App?5id?$DN?$CFX?0?5ev@ 10001d4c     cmdinterpretoid.obj
 0001:00000d74       ??_C@_0CH@CAJHDOAA@App?5ENABLE?5EVENT?4?5App?5id?$DN?$CFX?0?5eve@ 10001d74     cmdinterpretoid.obj
 0001:00000d9c       ??_C@_0BL@KDAMFAFK@App?5UNREGISTER?4?5App?5id?$DN?$CFX?6?$AA@ 10001d9c     cmdinterpretoid.obj
 0001:00000db8       ??_C@_0CP@JIFODCLJ@Redirecting?5driver?5output?5to?5tic@ 10001db8     cmdinterpretoid.obj
 0001:00000de8       ??_C@_0FD@HKHFHJGO@UtilAssociationInfoGet?3?5pData?$DN?$CFp@ 10001de8     cmdinterpretoid.obj
 0001:00000e3c       ??_C@_09PFCHIMEP@127?40?40?41?$AA@ 10001e3c     cmdinterpretoid.obj
 0001:00000e48       ??_C@_0DG@NFLJLAHD@?$CFs?5cmd?$DN0x?$CFx?5ndisStatus?$DN0x?$CFx?5b1?$DN0@ 10001e48     cmdinterpretoid.obj
 0001:00000e7e       ??_C@_00CNPNBAHC@?$AA@     10001e7e     cmdinterpretoid.obj
 0001:00000e80       ??_C@_03CEMDFJG@Set?$AA@   10001e80     cmdinterpretoid.obj
 0001:00000e84       ??_C@_0CL@BHBFPAIF@TIWL?3?5TIWLN_802_11_AVAILABLE_OPT@ 10001e84     cmdinterpretoid.obj
 0001:00000eb0       ??_C@_0CE@KLDLPBEK@TIWL?3?5TIWLN_802_11_WPA_OPTIONS_G@ 10001eb0     cmdinterpretoid.obj
 0001:00000ed4       ??_C@_0CE@DOFLMAAI@TIWL?3?5TIWLN_802_11_WPA_OPTIONS_S@ 10001ed4     cmdinterpretoid.obj
 0001:00000ef8       ??_C@_0BM@GLJCMPGF@TIWL?3?5UNSUPPORTED?5OID?5?$CI?$CFX?$CJ?6?$AA@ 10001ef8     cmdinterpretoid.obj
 0001:00000f14       ??_C@_0CE@BOIMNNC@TIWL?3?5?$CISET?$CJ?5OID_PNP_ENABLE_WAKE_@ 10001f14     cmdinterpretoid.obj
 0001:00000f38       ??_C@_0BN@JHGBFHNC@TIWL?3?5OID_PNP_CAPABILITIES?5?6?$AA@ 10001f38     cmdinterpretoid.obj
 0001:00000f58       ??_C@_0CD@BAKNIDMD@TIWL?3?5?$CIGET?$CJOID_PNP_QUERY_POWER?5?$CF@ 10001f58     cmdinterpretoid.obj
 0001:00000f7c       ??_C@_0CM@BFGLCMHA@TIWL?3?5?$CISET?$CJ?5OID_PNP_REMOVE_WAKE_@ 10001f7c     cmdinterpretoid.obj
 0001:00000fa8       ??_C@_0CJ@ELFINLNK@TIWL?3?5?$CISET?$CJ?5OID_PNP_ADD_WAKE_UP_@ 10001fa8     cmdinterpretoid.obj
 0001:00000fd4       ??_C@_0CA@PBCGMEDL@TIWL?3?5OID_802_11_POWER_MODE?5?$CFd?6?$AA@ 10001fd4     cmdinterpretoid.obj
 0001:00000ff4       ??_C@_0BB@JPGKHKBB@POWER_MODE_AUTO?6?$AA@ 10001ff4     cmdinterpretoid.obj
 0001:00001008       ??_C@_0BD@GFCCGPLH@POWER_MODE_ACTIVE?6?$AA@ 10002008     cmdinterpretoid.obj
 0001:0000101c       ??_C@_0BH@CNOJFDED@POWER_MODE_SHORT_DOZE?6?$AA@ 1000201c     cmdinterpretoid.obj
 0001:00001034       ??_C@_0BG@OMABKAAA@POWER_MODE_LONG_DOZE?6?$AA@ 10002034     cmdinterpretoid.obj
 0001:0000104c       ??_C@_0DI@LGEHAIDM@SET?5POWER_MODE_LONG_DOZE?5?$CINdis80@ 1000204c     cmdinterpretoid.obj
 0001:00001084       ??_C@_0CP@CMOHPMLC@SET?5POWER_MODE_SHORT_DOZE?5?$CINdisD@ 10002084     cmdinterpretoid.obj
 0001:000010b4       ??_C@_0DA@OFGFLEA@SET?5POWER_MODE_ACTIVE?5?$CINdis802_1@ 100020b4     cmdinterpretoid.obj
 0001:000010e4       ??_C@_0CK@MABMEAIF@TIWL?3?5OID_802_11_BSSID_LIST?50x?$CFx@ 100020e4     cmdinterpretoid.obj
 0001:00001110       ??_C@_0CN@HLAKBLHK@TIWL?3?5OID_802_11_CONFIGURATION?50@ 10002110     cmdinterpretoid.obj
 0001:00001140       ??_C@_0CM@NEILGEPM@OID_802_11_DESIRED_RATES?5is?5not?5@ 10002140     cmdinterpretoid.obj
 0001:0000116c       ??_C@_0CN@DNINCEMG@TIWL?3?5OID_802_11_SUPPORTED_RATES@ 1000216c     cmdinterpretoid.obj
 0001:0000119c       ??_C@_0DH@MKCIJMPN@TIWL?3?5OID_802_11_TX_ANTENNA_SELE@ 1000219c     cmdinterpretoid.obj
 0001:000011d4       ??_C@_0DH@FBPIJMDD@TIWL?3?5OID_802_11_RX_ANTENNA_SELE@ 100021d4     cmdinterpretoid.obj
 0001:0000120c       ??_C@_0CI@OENNMPOK@TIWL?3?5OID_802_11_NUMBER_OF_ANTEN@ 1000220c     cmdinterpretoid.obj
 0001:00001234       ??_C@_0CD@CFLLDEDO@TIWL?3?5OID_802_11_RTS_THRESHOLD?5?$CF@ 10002234     cmdinterpretoid.obj
 0001:00001258       ??_C@_0CC@MHLHLKEG@TIWL?3?5OID_802_11_RSSI_TRIGGER?5?$CFd@ 10002258     cmdinterpretoid.obj
 0001:0000127c       ??_C@_0BK@NHOPAFCH@TIWL?3?5OID_802_11_RSSI?5?$CFd?6?$AA@ 1000227c     cmdinterpretoid.obj
 0001:00001298       ??_C@_0CE@LBNMCBOK@TIWL?3?5OID_802_11_TX_POWER_LEVEL?5@ 10002298     cmdinterpretoid.obj
 0001:000012bc       ??_C@_0CH@PGDPAMIP@TIWL?3?5SITE_MGR_NETWORK_TYPE_IN_U@ 100022bc     cmdinterpretoid.obj
 0001:000012e4       ??_C@_0CN@GDCJLIIF@TIWL?3?5OID_802_11_NETWORK_TYPES_S@ 100022e4     cmdinterpretoid.obj
 0001:00001314       ??_C@_0BN@NAPOFGIF@TIWL?3?5?$CISET?$CJ?5OID_802_11_TEST?6?$AA@ 10002314     cmdinterpretoid.obj
 0001:00001334       ??_C@_0CH@ONENMLNF@TIWL?3?5OID_802_11_ENCRYPTION_STAT@ 10002334     cmdinterpretoid.obj
 0001:0000135c       ??_C@_0CD@PAEAAOPC@TIWL?3?5?$CISET?$CJ?5OID_802_11_WEP_STATU@ 1000235c     cmdinterpretoid.obj
 0001:00001380       ??_C@_0CI@OJEGPOFH@TIWL?3?5?$CISET?$CJ?5OID_802_11_RELOAD_DE@ 10002380     cmdinterpretoid.obj
 0001:000013a8       ??_C@_0DA@OBEEPFN@Unexpected?5COMMAND?5PENDING?5resul@ 100023a8     cmdinterpretoid.obj
 0001:000013d8       ??_C@_0CE@GPHCPIBM@TIWL?3?5OID_802_11_PRIVACY_FILTER?5@ 100023d8     cmdinterpretoid.obj
 0001:000013fc       ??_C@_0CJ@JDKILECC@TIWL?3?5OID_802_11_AUTHENTICATION_@ 100023fc     cmdinterpretoid.obj
 0001:00001428       ??_C@_0DI@ICGMJBFL@TIWL?3?5?$CISET?$CJOID_802_11_AUTHENTICA@ 10002428     cmdinterpretoid.obj
 0001:00001460       ??_C@_0CD@BJNIBJCE@TIWL?3?5?$CISET?$CJ?5OID_802_11_REMOVE_KE@ 10002460     cmdinterpretoid.obj
 0001:00001484       ??_C@_0CA@ODICINBC@TIWL?3?5?$CISET?$CJ?5OID_802_11_ADD_KEY?6?$AA@ 10002484     cmdinterpretoid.obj
 0001:000014a4       ??_C@_0BM@CHMEPDOK@TIWL?3?5OID_802_11_PMKID?5GET?6?$AA@ 100024a4     cmdinterpretoid.obj
 0001:000014c0       ??_C@_0CF@NAIPMHIA@TIWL?3?5?$CISET?$CJ?5OID_802_11_DISASSOCI@ 100024c0     cmdinterpretoid.obj
 0001:000014e8       ??_C@_0CH@HFANJGCL@TIWL?3?5OID_802_3_XMIT_ONE_COLLISI@ 100024e8     cmdinterpretoid.obj
 0001:00001510       ??_C@_0CJ@FNHGKJGJ@TIWL?3?5OID_802_3_XMIT_MORE_COLLIS@ 10002510     cmdinterpretoid.obj
 0001:0000153c       ??_C@_0DK@OBCIPIFO@TIWL?3?5OID_802_11_BSSID?5?$CF02x?3?$CF02x@ 1000253c     cmdinterpretoid.obj
 0001:00001578       ??_C@_0CC@KGCKHECJ@TIWL?3?5OID_802_11_SSID?5?$CFs?0?5len?5?$CFd@ 10002578     cmdinterpretoid.obj
 0001:0000159c       ??_C@_0BK@LPCOBPCF@set?5OID_802_11_SSID?5?$HM?$CFs?$HM?6?$AA@ 1000259c     cmdinterpretoid.obj
 0001:000015b8       ??_C@_0BM@JGLNBFBL@set?5OID_802_11_SSID?5?$HMJUNK?$HM?6?$AA@ 100025b8     cmdinterpretoid.obj
 0001:000015d4       ??_C@_01LOCGONAA@?$AA?$AA@ 100025d4     cmdinterpretoid.obj
 0001:000015d8       ??_C@_0CN@IELBAIGC@TIWL?3?5OID_802_11_FRAGMENTATION_T@ 100025d8     cmdinterpretoid.obj
 0001:00001608       ??_C@_0CA@EJEDMMBO@TIWL?3?5?$CISET?$CJ?5OID_802_11_ADD_WEP?6?$AA@ 10002608     cmdinterpretoid.obj
 0001:00001628       ??_C@_0CD@LDBJFICI@TIWL?3?5?$CISET?$CJ?5OID_802_11_REMOVE_WE@ 10002628     cmdinterpretoid.obj
 0001:0000164c       ??_C@_0CI@CGHDHNGN@TIWL?3?5OID_802_3_RCV_ERROR_ALIGNM@ 1000264c     cmdinterpretoid.obj
 0001:00001678       ??_C@_0ED@PFAIKKJA@TIWL?3?5OID_802_3_CURRENT_ADDRESS?5@ 10002678     cmdinterpretoid.obj
 0001:000016bc       ??_C@_0O@IPCIPD@?4?4?4LIST?5FULL?6?$AA@ 100026bc     cmdinterpretoid.obj
 0001:000016cc       ??_C@_0CG@MBMHJPEO@TIWL?3?5?$CISET?$CJ?5OID_802_3_MULTICAST_@ 100026cc     cmdinterpretoid.obj
 0001:000016f8       ??_C@_0EA@FEIEOJGN@cmdInterpret?3?5Wrong?5buffer?5size?5@ 100026f8     cmdinterpretoid.obj
 0001:00001738       ??_C@_0CG@LOACOKKC@TIWL?3?5OID_802_3_MAXIMUM_LIST_SIZ@ 10002738     cmdinterpretoid.obj
 0001:00001760       ??_C@_0EF@FCGDIHHE@TIWL?3?5OID_802_3_PERMANENT_ADDRES@ 10002760     cmdinterpretoid.obj
 0001:000017a8       ??_C@_0CP@HEOCFNEN@TIWL?3?5OID_GEN_BROADCAST_FRAMES_R@ 100027a8     cmdinterpretoid.obj
 0001:000017d8       ??_C@_0CI@NKAMNBN@TIWL?3?5OID_GEN_RCV_CRC_ERROR?5?$CFd?0?5@ 100027d8     cmdinterpretoid.obj
 0001:00001800       ??_C@_0BP@NLEIIGNA@TIWL?3?5OID_GEN_INIT_TIME_MS?5?$CFd?6?$AA@ 10002800     cmdinterpretoid.obj
 0001:00001820       ??_C@_0CF@CPLJOEDF@TIWL?3?5OID_GEN_MEDIA_SENSE_COUNTS@ 10002820     cmdinterpretoid.obj
 0001:00001848       ??_C@_0CO@PFIEOPNE@TIWL?3?5OID_GEN_BROADCAST_BYTES_RC@ 10002848     cmdinterpretoid.obj
 0001:00001878       ??_C@_0CP@BENNCING@TIWL?3?5OID_GEN_MULTICAST_FRAMES_R@ 10002878     cmdinterpretoid.obj
 0001:000018a8       ??_C@_0CO@HKHPKBEL@TIWL?3?5OID_GEN_MULTICAST_BYTES_RC@ 100028a8     cmdinterpretoid.obj
 0001:000018d8       ??_C@_0CO@BPPONLEA@TIWL?3?5OID_GEN_DIRECTED_FRAMES_RC@ 100028d8     cmdinterpretoid.obj
 0001:00001908       ??_C@_0CN@ICFDBGIE@TIWL?3?5OID_GEN_DIRECTED_BYTES_RCV@ 10002908     cmdinterpretoid.obj
 0001:00001938       ??_C@_0DA@HKJCKMPA@TIWL?3?5OID_GEN_BROADCAST_FRAMES_X@ 10002938     cmdinterpretoid.obj
 0001:00001968       ??_C@_0CP@PDMAOBKC@TIWL?3?5OID_GEN_BROADCAST_BYTES_XM@ 10002968     cmdinterpretoid.obj
 0001:00001998       ??_C@_0DA@BNCPNJEJ@TIWL?3?5OID_GEN_MULTICAST_FRAMES_X@ 10002998     cmdinterpretoid.obj
 0001:000019c8       ??_C@_0CP@JDPPJEDJ@TIWL?3?5OID_GEN_MULTICAST_BYTES_XM@ 100029c8     cmdinterpretoid.obj
 0001:000019f8       ??_C@_0CP@EEIMMML@TIWL?3?5OID_GEN_DIRECTED_FRAMES_XM@ 100029f8     cmdinterpretoid.obj
 0001:00001a28       ??_C@_0CE@PLPPLPBN@TIWL?3?5OID_GEN_RCV_ERROR?5?$CFd?0?5len?5@ 10002a28     cmdinterpretoid.obj
 0001:00001a4c       ??_C@_0CI@BECFFADM@TIWL?3?5OID_GEN_RCV_NO_BUFFER?5?$CFd?0?5@ 10002a4c     cmdinterpretoid.obj
 0001:00001a74       ??_C@_0CO@JINMGHKP@TIWL?3?5OID_GEN_DIRECTED_BYTES_XMI@ 10002a74     cmdinterpretoid.obj
 0001:00001aa4       ??_C@_0CF@ODFNDAD@TIWL?3?5OID_GEN_XMIT_ERROR?5?$CFd?0?5len@ 10002aa4     cmdinterpretoid.obj
 0001:00001acc       ??_C@_0DM@FBIAEDEC@cmdInterpret?3?5Wrong?5buffer?5size?5@ 10002acc     cmdinterpretoid.obj
 0001:00001b08       ??_C@_0BP@EDPHKCG@TIWL?3?5OID_GEN_PHYSICAL_MEDIUM?6?$AA@ 10002b08     cmdinterpretoid.obj
 0001:00001b28       ??_C@_0CC@GKJLMABO@TIWL?3?5OID_GEN_XMIT_OK?5?$CFd?0?5len?5?$CFd@ 10002b28     cmdinterpretoid.obj
 0001:00001b4c       ??_C@_0DM@MJFDPOBD@cmdInterpret?3?5ERROR?5on?5return?5fr@ 10002b4c     cmdinterpretoid.obj
 0001:00001b88       ??_C@_0CB@KPJLCIEH@TIWL?3?5OID_GEN_RCV_OK?5?$CFd?0?5len?5?$CFd?6@ 10002b88     cmdinterpretoid.obj
 0001:00001bac       ??_C@_0DP@IICLILKO@cmdInterpret?3?5Wrong?5buffer?5size?5@ 10002bac     cmdinterpretoid.obj
 0001:00001bec       ??_C@_0CC@JCKPMLKA@TIWL?3?5OID_GEN_MEDIA_CAPABILITIES@ 10002bec     cmdinterpretoid.obj
 0001:00001c10       ??_C@_0BO@PPJPODJG@TIWL?3?5OID_GEN_MAC_OPTIONS?5?$CFd?6?$AA@ 10002c10     cmdinterpretoid.obj
 0001:00001c30       ??_C@_0EC@BNOALACN@cmdInterpret?3?5Wrong?5buffer?5size?5@ 10002c30     cmdinterpretoid.obj
 0001:00001c74       ??_C@_0CI@MMIFEEEC@TIWL?3?5OID_GEN_CURRENT_PACKET_FIL@ 10002c74     cmdinterpretoid.obj
 0001:00001c9c       ??_C@_0CC@OKEGKNG@TIWLN?3?5Filter?5not?5supported?50x?$CFx@ 10002c9c     cmdinterpretoid.obj
 0001:00001cc0       ??_C@_0CL@FJOFPJEP@TIWL?3?5?$CISET?$CJ?5OID_GEN_CURRENT_PACK@ 10002cc0     cmdinterpretoid.obj
 0001:00001cec       ??_C@_0DL@GFFJIPFC@cmdInterpret?3?5Wrong?5buffer?5size?5@ 10002cec     cmdinterpretoid.obj
 0001:00001d28       ??_C@_0EC@IDBGECKH@cmdInterpret?3?5Wrong?5buffer?5size?5@ 10002d28     cmdinterpretoid.obj
 0001:00001d6c       ??_C@_0CI@FCHDAOJM@TIWL?3?5OID_GEN_VENDOR_DRIVER_VERS@ 10002d6c     cmdinterpretoid.obj
 0001:00001d94       ??_C@_0DG@ECEMOLCF@cmdInterpret?3?5Wrong?5buffer?5size?5@ 10002d94     cmdinterpretoid.obj
 0001:00001dcc       ??_C@_0CE@LFEDABNM@TIWL?3?5OID_GEN_VENDOR_ID?5?$CFs?0?5len?5@ 10002dcc     cmdinterpretoid.obj
 0001:00001df0       ??_C@_0DP@LFNDBANB@cmdInterpret?3?5Wrong?5buffer?5size?5@ 10002df0     cmdinterpretoid.obj
 0001:00001e30       ??_C@_0CN@HGCGNEHM@TIWL?3?5OID_GEN_VENDOR_DESCRIPTION@ 10002e30     cmdinterpretoid.obj
 0001:00001e60       ??_C@_08KKGJGOHA@TNET1271?$AA@ 10002e60     cmdinterpretoid.obj
 0001:00001e70       ??_C@_0EB@IIFLOEPI@cmdInterpret?3?5Wrong?5buffer?5size?5@ 10002e70     cmdinterpretoid.obj
 0001:00001eb4       ??_C@_0CH@KGOFNAHA@TIWL?3?5OID_GEN_MAXIMUM_SEND_PACKE@ 10002eb4     cmdinterpretoid.obj
 0001:00001ee0       ??_C@_0EB@LOCIFHEG@cmdInterpret?3?5Wrong?5buffer?5size?5@ 10002ee0     cmdinterpretoid.obj
 0001:00001f24       ??_C@_0CH@GPMBNOKB@TIWL?3?5OID_GEN_RECEIVE_BUFFER_SPA@ 10002f24     cmdinterpretoid.obj
 0001:00001f50       ??_C@_0EC@HFPNEGHD@cmdInterpret?3?5Wrong?5buffer?5size?5@ 10002f50     cmdinterpretoid.obj
 0001:00001f94       ??_C@_0CI@ILEHGNHC@TIWL?3?5OID_GEN_TRANSMIT_BUFFER_SP@ 10002f94     cmdinterpretoid.obj
 0001:00001fbc       ??_C@_0DP@NPIMLAOD@cmdInterpret?3?5Wrong?5buffer?5size?5@ 10002fbc     cmdinterpretoid.obj
 0001:00001ffc       ??_C@_0CF@BCPBMJGG@TIWL?3?5OID_GEN_MAXIMUM_TOTAL_SIZE@ 10002ffc     cmdinterpretoid.obj
 0001:00002024       ??_C@_0DP@JLHOGMHH@cmdInterpret?3?5Wrong?5buffer?5size?5@ 10003024     cmdinterpretoid.obj
 0001:00002064       ??_C@_0CF@JGNFMACN@TIWL?3?5OID_GEN_RECEIVE_BLOCK_SIZE@ 10003064     cmdinterpretoid.obj
 0001:00002090       ??_C@_0EA@DCHJOLIL@cmdInterpret?3?5Wrong?5buffer?5size?5@ 10003090     cmdinterpretoid.obj
 0001:000020d0       ??_C@_0CG@OCFHKKPF@TIWL?3?5OID_GEN_TRANSMIT_BLOCK_SIZ@ 100030d0     cmdinterpretoid.obj
 0001:000020f8       ??_C@_0DP@GCDBOINP@cmdInterpret?3?5Wrong?5buffer?5size?5@ 100030f8     cmdinterpretoid.obj
 0001:00002138       ??_C@_0CF@PIDCMNEC@TIWL?3?5OID_GEN_MAXIMUM_FRAME_SIZE@ 10003138     cmdinterpretoid.obj
 0001:00002160       ??_C@_0DO@HJJENIAA@cmdInterpret?3?5Wrong?5buffer?5size?5@ 10003160     cmdinterpretoid.obj
 0001:000021a0       ??_C@_0CE@PPHAINHG@TIWL?3?5OID_GEN_CURRENT_LOOKAHEAD?5@ 100031a0     cmdinterpretoid.obj
 0001:000021c4       ??_C@_0DO@JDKDOIMG@cmdInterpret?3?5Wrong?5buffer?5size?5@ 100031c4     cmdinterpretoid.obj
 0001:00002204       ??_C@_0CE@NKJPEJC@TIWL?3?5OID_GEN_MAXIMUM_LOOKAHEAD?5@ 10003204     cmdinterpretoid.obj
 0001:00002228       ??_C@_0EB@HCFGKBCC@cmdInterpret?3?5Wrong?5buffer?5size?5@ 10003228     cmdinterpretoid.obj
 0001:0000226c       ??_C@_0CH@NFEEKHJB@TIWL?3?5OID_GEN_MEDIA_CONNECT_STAT@ 1000326c     cmdinterpretoid.obj
 0001:00002294       ??_C@_0DJ@OCOOHNFL@cmdInterpret?3?5Wrong?5buffer?5size?5@ 10003294     cmdinterpretoid.obj
 0001:000022d0       ??_C@_0BP@PEADMHFM@TIWL?3?5OID_GEN_MEDIA_SUPPORTED?6?$AA@ 100032d0     cmdinterpretoid.obj
 0001:000022f0       ??_C@_0DM@LPHHOOEB@cmdInterpret?3?5Wrong?5buffer?5size?5@ 100032f0     cmdinterpretoid.obj
 0001:0000232c       ??_C@_0BP@OKMINHCF@TIWL?3?5OID_GEN_HARDWARE_STATUS?6?$AA@ 1000332c     cmdinterpretoid.obj
 0001:0000234c       ??_C@_0DF@LJHHFBPK@Buffer?5for?5parameter?50x?$CFX?5is?5big@ 1000334c     cmdinterpretoid.obj
 0001:00002384       ??_C@_0BO@OEIBGDFG@TIWL?3?5OID_GEN_SUPPORTED_LIST?6?$AA@ 10003384     cmdinterpretoid.obj
 0001:000023a4       ??_C@_0CI@PFPIHLBJ@cmdObj?$DN0x?$CFx?5cmd?$DN0x?$CFx?5b1?$DN0x?$CFx?5b1_@ 100033a4     cmdinterpretoid.obj
 0001:000023cc       ??_C@_0DN@BJFOPFCM@TIWL?3?5OID_TI_WILINK_IOCTL?3?5cbInf@ 100033cc     cmdinterpretoid.obj
 0001:0000240c       ??_C@_0CL@NFDOGJEI@wlanDrvIf_UpdateDriverState?$CI?$CJ?3?5S@ 1000340c     wlandrvif.obj
 0001:00002438       ??_C@_0CN@MCFFAIG@TIWL?3?5Could?5not?5map?5image?5file?0?5@ 10003438     wlandrvif.obj
 0001:00002468       ??_C@_0CO@PAKLKDO@TIWL?3?5Could?5not?5open?5image?5file?0@ 10003468     wlandrvif.obj
 0001:00002498       ??_C@_0DP@CENJACHM@wlanDrvIf_loadFile?3?5name?$DN?$CFs?0?5han@ 10003498     wlandrvif.obj
 0001:000024d8       ??_C@_0M@NNOAEJJL@nvs_map?4bin?$AA@ 100034d8     wlandrvif.obj
 0001:000024e4       ??_C@_0DE@MJDABMIA@wlanDrvIf_GetFile?3?5No?4?5of?5Bytes?5@ 100034e4     wlandrvif.obj
 0001:00002518       ??_C@_0DO@ENGBOCAD@wlanDrvIf_GetFile?3?5o?4?5of?5Bytes?5L@ 10003518     wlandrvif.obj
 0001:00002558       ??_C@_0BA@KIPAOKFL@Fw1273_CHIP?4bin?$AA@ 10003558     wlandrvif.obj
 0001:00002568       ??_C@_0CN@HNOFBPBJ@drvThread?$CI?$CJ?5WaitForSingleObject?5@ 10003568     wlandrvif.obj
 0001:00002598       ??_C@_0CH@PPEOIDPA@wlanDrvIf_Start?$CI?$CJ?5Driver?5not?5cre@ 10003598     wlandrvif.obj
 0001:000025c0       ??_C@_0BD@KBNPNBNP@wlanDrvIf_Start?$CI?$CJ?6?$AA@ 100035c0     wlandrvif.obj
 0001:000025d4       ??_C@_0BC@JAONNHOD@wlanDrvIf_Stop?$CI?$CJ?6?$AA@ 100035d4     wlandrvif.obj
 0001:000025e8       ??_C@_0DI@JFJHIMHA@wlanDrvIf_FreeTxPacket?$CI?$CJ?5sending@ 100035e8     wlandrvif.obj
 0001:00002620       ??_C@_0FF@FOJHOLNM@wlanDrvIf_SendPacket?$CI?$CJ?5BAD?5NDIS?5@ 10003620     wlandrvif.obj
 0001:00002678       ??_C@_0BI@PCNIOAPM@TIWL?3?5Send?5returned?5?$CFX?6?$AA@ 10003678     wlandrvif.obj
 0001:00002690       ??_C@_0DB@LIAHOFND@TIWL?3?5Sending?4?4?4?5OsCtx?3?$CFX?5?5Packe@ 10003690     wlandrvif.obj
 0001:000026c8       ??_C@_0EB@DGBFBDDN@wlanDrvIf_SendPacket?$CI?$CJ?5Too?5many?5@ 100036c8     wlandrvif.obj
 0001:00002710       ??_C@_0EC@DHMCOKBP@wlanDrvIf_SendPacket?$CI?$CJ?3?5txCtrl_A@ 10003710     wlandrvif.obj
 0001:00002754       ??_C@_0CE@POCPCCDM@TWD_txCtrlBlkAlloc?$CI?$CJ?5returned?5NU@ 10003754     wlandrvif.obj
 0001:00002778       ??_C@_0DB@ODMFNAKE@wlanDrvIf_SendPacket?3?5NumBufs?5?$DN?5@ 10003778     wlandrvif.obj
 0001:000027ac       ??_C@_0BM@FCEKJLBE@TIWL?3?5sendMultipleSend?5Out?6?$AA@ 100037ac     wlandrvif.obj
 0001:000027c8       ??_C@_0EH@DDMJIDMC@MiniportMultipleSend?$CI?$CJ?3?5No?5resou@ 100037c8     wlandrvif.obj
 0001:00002810       ??_C@_0CJ@GIOIIFDE@TIWL?3?5sendMultipleSend?5In?4?5Packe@ 10003810     wlandrvif.obj
 0001:0000283c       ??_C@_0CI@LDGKEBOP@jkljz98c?$CG2?$DOa?$CLt?$CJcl5?$FLd?$DNn3?$DL?$CCf_um6?2d@ 1000383c     oscommon:osRgstry.obj
 0001:00002864       ??_C@_1CK@NEIDNDNM@?$AAI?$AAn?$AAc?$AAl?$AAu?$AAd?$AAe?$AAW?$AAS?$AAC?$AAi?$AAn?$AAP?$AAr?$AAo?$AAb?$AAe?$AAR?$AAe?$AAq?$AA?$AA@ 10003864     oscommon:osRgstry.obj
 0001:00002890       ??_C@_1CO@PODOGDMN@?$AAR?$AAa?$AAt?$AAe?$AAM?$AAn?$AAg?$AAR?$AAa?$AAt?$AAe?$AAR?$AAe?$AAt?$AAr?$AAy?$AAP?$AAo?$AAl?$AAi?$AAc?$AAy?$AA?$AA@ 10003890     oscommon:osRgstry.obj
 0001:000028c0       ??_C@_1CK@PMIIFHFA@?$AAR?$AAa?$AAt?$AAe?$AAM?$AAn?$AAg?$AAR?$AAa?$AAt?$AAe?$AAC?$AAh?$AAe?$AAc?$AAk?$AAD?$AAo?$AAw?$AAn?$AA?$AA@ 100038c0     oscommon:osRgstry.obj
 0001:000028ec       ??_C@_1CG@EBKKBBEE@?$AAR?$AAa?$AAt?$AAe?$AAM?$AAn?$AAg?$AAR?$AAa?$AAt?$AAe?$AAC?$AAh?$AAe?$AAc?$AAk?$AAU?$AAp?$AA?$AA@ 100038ec     oscommon:osRgstry.obj
 0001:00002914       ??_C@_1CK@DMLJIHCB@?$AAR?$AAa?$AAt?$AAe?$AAM?$AAn?$AAg?$AAP?$AAe?$AAr?$AAB?$AAe?$AAt?$AAa?$AA2?$AAS?$AAh?$AAi?$AAf?$AAt?$AA?$AA@ 10003914     oscommon:osRgstry.obj
 0001:00002940       ??_C@_1CK@EANIKCPK@?$AAR?$AAa?$AAt?$AAe?$AAM?$AAn?$AAg?$AAP?$AAe?$AAr?$AAB?$AAe?$AAt?$AAa?$AA1?$AAS?$AAh?$AAi?$AAf?$AAt?$AA?$AA@ 10003940     oscommon:osRgstry.obj
 0001:0000296c       ??_C@_1CG@JKJDCDLH@?$AAR?$AAa?$AAt?$AAe?$AAM?$AAn?$AAg?$AAP?$AAe?$AAr?$AAA?$AAd?$AAd?$AAS?$AAh?$AAi?$AAf?$AAt?$AA?$AA@ 1000396c     oscommon:osRgstry.obj
 0001:00002994       ??_C@_1CK@HAMEPAAL@?$AAR?$AAa?$AAt?$AAe?$AAM?$AAn?$AAg?$AAP?$AAe?$AAr?$AAA?$AAl?$AAp?$AAh?$AAa?$AAS?$AAh?$AAi?$AAf?$AAt?$AA?$AA@ 10003994     oscommon:osRgstry.obj
 0001:000029c0       ??_C@_1CI@MBONAFCD@?$AAR?$AAa?$AAt?$AAe?$AAM?$AAn?$AAg?$AAT?$AAx?$AAF?$AAa?$AAi?$AAl?$AAH?$AAi?$AAg?$AAh?$AAT?$AAh?$AA?$AA@ 100039c0     oscommon:osRgstry.obj
 0001:000029e8       ??_C@_1CG@NNDGNGCN@?$AAR?$AAa?$AAt?$AAe?$AAM?$AAn?$AAg?$AAT?$AAx?$AAF?$AAa?$AAi?$AAl?$AAL?$AAo?$AAw?$AAT?$AAh?$AA?$AA@ 100039e8     oscommon:osRgstry.obj
 0001:00002a10       ??_C@_1DM@BAADOCLO@?$AAR?$AAa?$AAt?$AAe?$AAM?$AAn?$AAg?$AAI?$AAn?$AAv?$AAe?$AAr?$AAs?$AAe?$AAC?$AAu?$AAr?$AAi?$AAo?$AAs?$AAi?$AAt?$AAy?$AAF?$AAa?$AAc?$AAt?$AAo?$AAr?$AA?$AA@ 10003a10     oscommon:osRgstry.obj
 0001:00002a4c       ??_C@_1BM@LEBNFINJ@?$AAR?$AAa?$AAt?$AAe?$AAM?$AAn?$AAg?$AAM?$AAa?$AAx?$AAP?$AAe?$AAr?$AA?$AA@ 10003a4c     oscommon:osRgstry.obj
 0001:00002a68       ??_C@_1BM@NCLBPKEB@?$AAR?$AAa?$AAt?$AAe?$AAM?$AAn?$AAg?$AAP?$AAe?$AAr?$AAT?$AAh?$AA2?$AA?$AA@ 10003a68     oscommon:osRgstry.obj
 0001:00002a84       ??_C@_1BM@MAAEFFKP@?$AAR?$AAa?$AAt?$AAe?$AAM?$AAn?$AAg?$AAP?$AAe?$AAr?$AAT?$AAh?$AA1?$AA?$AA@ 10003a84     oscommon:osRgstry.obj
 0001:00002aa0       ??_C@_1BM@HPEOFFAL@?$AAR?$AAa?$AAt?$AAe?$AAM?$AAn?$AAg?$AAP?$AAe?$AAr?$AAA?$AAd?$AAd?$AA?$AA@ 10003aa0     oscommon:osRgstry.obj
 0001:00002abc       ??_C@_1CM@PMFGPLCC@?$AAR?$AAa?$AAt?$AAe?$AAM?$AAn?$AAg?$AAR?$AAa?$AAt?$AAe?$AAR?$AAe?$AAt?$AAr?$AAy?$AAS?$AAc?$AAo?$AAr?$AAe?$AA?$AA@ 10003abc     oscommon:osRgstry.obj
 0001:00002ae8       ??_C@_1CI@GBNJOELB@?$AAF?$AAm?$AAC?$AAo?$AAe?$AAx?$AAS?$AAw?$AAa?$AAl?$AAl?$AAo?$AAw?$AAC?$AAl?$AAk?$AAD?$AAi?$AAf?$AA?$AA@ 10003ae8     oscommon:osRgstry.obj
 0001:00002b10       ??_C@_1DG@HALAPDNN@?$AAF?$AAm?$AAC?$AAo?$AAe?$AAx?$AAu?$AAD?$AAi?$AAs?$AAt?$AAu?$AAr?$AAb?$AAe?$AAd?$AAB?$AAa?$AAn?$AAd?$AAM?$AAa?$AAr?$AAg?$AAi?$AAn?$AA?$AA@ 10003b10     oscommon:osRgstry.obj
 0001:00002b48       ??_C@_1DI@KJKABHID@?$AAF?$AAm?$AAC?$AAo?$AAe?$AAx?$AAu?$AAL?$AAd?$AAo?$AAS?$AAt?$AAa?$AAb?$AAi?$AAl?$AAi?$AAz?$AAa?$AAt?$AAi?$AAo?$AAn?$AAT?$AAi?$AAm?$AAe?$AA?$AA@ 10003b48     oscommon:osRgstry.obj
 0001:00002b80       ??_C@_1DI@GNODNCLJ@?$AAF?$AAm?$AAC?$AAo?$AAe?$AAx?$AAu?$AAP?$AAl?$AAl?$AAS?$AAt?$AAa?$AAb?$AAi?$AAl?$AAi?$AAz?$AAa?$AAt?$AAi?$AAo?$AAn?$AAT?$AAi?$AAm?$AAe?$AA?$AA@ 10003b80     oscommon:osRgstry.obj
 0001:00002bb8       ??_C@_1DA@CLBHBOBP@?$AAF?$AAm?$AAC?$AAo?$AAe?$AAx?$AAu?$AAM?$AAD?$AAi?$AAv?$AAi?$AAd?$AAe?$AAr?$AAF?$AAr?$AAe?$AAf?$AAS?$AAe?$AAt?$AA2?$AA?$AA@ 10003bb8     oscommon:osRgstry.obj
 0001:00002be8       ??_C@_1DA@DJKCLBPB@?$AAF?$AAm?$AAC?$AAo?$AAe?$AAx?$AAu?$AAM?$AAD?$AAi?$AAv?$AAi?$AAd?$AAe?$AAr?$AAF?$AAr?$AAe?$AAf?$AAS?$AAe?$AAt?$AA1?$AA?$AA@ 10003be8     oscommon:osRgstry.obj
 0001:00002c18       ??_C@_1DA@EGJBONEF@?$AAF?$AAm?$AAC?$AAo?$AAe?$AAx?$AAu?$AAN?$AAD?$AAi?$AAv?$AAi?$AAd?$AAe?$AAr?$AAF?$AAr?$AAe?$AAf?$AAS?$AAe?$AAt?$AA2?$AA?$AA@ 10003c18     oscommon:osRgstry.obj
 0001:00002c48       ??_C@_1DA@FECEECKL@?$AAF?$AAm?$AAC?$AAo?$AAe?$AAx?$AAu?$AAN?$AAD?$AAi?$AAv?$AAi?$AAd?$AAe?$AAr?$AAF?$AAr?$AAe?$AAf?$AAS?$AAe?$AAt?$AA1?$AA?$AA@ 10003c48     oscommon:osRgstry.obj
 0001:00002c78       ??_C@_1CK@IACPIPHA@?$AAF?$AAm?$AAC?$AAo?$AAe?$AAx?$AAu?$AAS?$AAw?$AAa?$AAl?$AAl?$AAo?$AAw?$AAP?$AAe?$AAr?$AAi?$AAo?$AAd?$AA?$AA@ 10003c78     oscommon:osRgstry.obj
 0001:00002ca4       ??_C@_1BM@IALOKDPN@?$AAF?$AAm?$AAC?$AAo?$AAe?$AAx?$AAu?$AAE?$AAn?$AAa?$AAb?$AAl?$AAe?$AA?$AA@ 10003ca4     oscommon:osRgstry.obj
 0001:00002cc0       ??_C@_1CI@DCGPJHLD@?$AAS?$AAe?$AAn?$AAd?$AAT?$AAs?$AAp?$AAe?$AAc?$AAI?$AAn?$AAR?$AAe?$AAa?$AAs?$AAs?$AAP?$AAk?$AAt?$AA?$AA@ 10003cc0     oscommon:osRgstry.obj
 0001:00002ce8       ??_C@_1CO@MPPJPJBK@?$AAR?$AAo?$AAa?$AAm?$AAi?$AAn?$AAg?$AAO?$AAp?$AAe?$AAr?$AAa?$AAt?$AAi?$AAo?$AAn?$AAa?$AAl?$AAM?$AAo?$AAd?$AAe?$AA?$AA@ 10003ce8     oscommon:osRgstry.obj
 0001:00002d18       ??_C@_1BM@LFMDLMPE@?$AAS?$AAu?$AAs?$AAp?$AAe?$AAn?$AAd?$AAA?$AAc?$AAt?$AAi?$AAo?$AAn?$AA?$AA@ 10003d18     oscommon:osRgstry.obj
 0001:00002d34       ??_C@_1CC@LLFMINJE@?$AAS?$AAd?$AAi?$AAo?$AAB?$AAl?$AAk?$AAS?$AAi?$AAz?$AAe?$AAS?$AAh?$AAi?$AAf?$AAt?$AA?$AA@ 10003d34     oscommon:osRgstry.obj
 0001:00002d58       ??_C@_1CK@HABIJOJB@?$AAB?$AAu?$AAs?$AAD?$AAr?$AAv?$AAT?$AAh?$AAr?$AAe?$AAa?$AAd?$AAP?$AAr?$AAi?$AAo?$AAr?$AAi?$AAt?$AAy?$AA?$AA@ 10003d58     oscommon:osRgstry.obj
 0001:00002d84       ??_C@_1CM@CLDGHDEL@?$AAW?$AAl?$AAa?$AAn?$AAD?$AAr?$AAv?$AAT?$AAh?$AAr?$AAe?$AAa?$AAd?$AAP?$AAr?$AAi?$AAo?$AAr?$AAi?$AAt?$AAy?$AA?$AA@ 10003d84     oscommon:osRgstry.obj
 0001:00002db0       ??_C@_1FG@OFFJKOMI@?$AAF?$AAE?$AAM?$AA0?$AA_?$AAT?$AAx?$AAP?$AAe?$AAr?$AAC?$AAh?$AAa?$AAn?$AAn?$AAe?$AAl?$AAP?$AAo?$AAw?$AAe?$AAr?$AAC?$AAo?$AAm?$AAp?$AAe?$AAn?$AAs?$AAa?$AAt?$AAi@ 10003db0     oscommon:osRgstry.obj
 0001:00002e08       ??_C@_1FA@GLGEFKMD@?$AAF?$AAE?$AAM?$AA0?$AA_?$AAT?$AAx?$AAP?$AAe?$AAr?$AAC?$AAh?$AAa?$AAn?$AAn?$AAe?$AAl?$AAP?$AAo?$AAw?$AAe?$AAr?$AAC?$AAo?$AAm?$AAp?$AAe?$AAn?$AAs?$AAa?$AAt?$AAi@ 10003e08     oscommon:osRgstry.obj
 0001:00002e58       ??_C@_1EK@JEFCHHGH@?$AAF?$AAE?$AAM?$AA0?$AA_?$AAR?$AAx?$AAR?$AAs?$AAs?$AAi?$AAA?$AAn?$AAd?$AAP?$AAr?$AAo?$AAc?$AAe?$AAs?$AAs?$AAC?$AAo?$AAm?$AAp?$AAe?$AAn?$AAs?$AAa?$AAt?$AAi?$AAo@ 10003e58     oscommon:osRgstry.obj
 0001:00002ea4       ??_C@_1CI@DFLLIGAA@?$AAF?$AAE?$AAM?$AA0?$AA_?$AAT?$AAX?$AAT?$AAr?$AAa?$AAc?$AAe?$AAL?$AAo?$AAs?$AAs?$AA_?$AA5?$AAG?$AA?$AA@ 10003ea4     oscommon:osRgstry.obj
 0001:00002ecc       ??_C@_1DK@KFGLOBNJ@?$AAF?$AAE?$AAM?$AA0?$AA_?$AAR?$AAx?$AAT?$AAr?$AAa?$AAc?$AAe?$AAI?$AAn?$AAs?$AAe?$AAr?$AAt?$AAi?$AAo?$AAn?$AAL?$AAo?$AAs?$AAs?$AA_?$AA5?$AAG?$AA?$AA@ 10003ecc     oscommon:osRgstry.obj
 0001:00002f08       ??_C@_1DG@LIMMNKEK@?$AAF?$AAE?$AAM?$AA0?$AA_?$AAR?$AAx?$AAF?$AAe?$AAm?$AAI?$AAn?$AAs?$AAe?$AAr?$AAt?$AAi?$AAo?$AAn?$AAL?$AAo?$AAs?$AAs?$AA_?$AA5?$AAG?$AA?$AA@ 10003f08     oscommon:osRgstry.obj
 0001:00002f40       ??_C@_1CK@CEOJAKKJ@?$AAF?$AAE?$AAM?$AA0?$AA_?$AAT?$AAx?$AAI?$AAb?$AAi?$AAa?$AAs?$AAT?$AAa?$AAb?$AAl?$AAe?$AA_?$AA5?$AAG?$AA?$AA@ 10003f40     oscommon:osRgstry.obj
 0001:00002f6c       ??_C@_1DE@PCDILKGC@?$AAF?$AAE?$AAM?$AA0?$AA_?$AAT?$AAx?$AAP?$AAD?$AAV?$AAs?$AAR?$AAa?$AAt?$AAe?$AAO?$AAf?$AAf?$AAs?$AAe?$AAt?$AAs?$AA_?$AA5?$AAG?$AA?$AA@ 10003f6c     oscommon:osRgstry.obj
 0001:00002fa0       ??_C@_1EK@PCPDINPL@?$AAF?$AAE?$AAM?$AA0?$AA_?$AAT?$AAx?$AAP?$AAe?$AAr?$AAC?$AAh?$AAa?$AAn?$AAn?$AAe?$AAl?$AAP?$AAo?$AAw?$AAe?$AAr?$AAL?$AAi?$AAm?$AAi?$AAt?$AAs?$AA_?$AA5?$AAG?$AA_@ 10003fa0     oscommon:osRgstry.obj
 0001:00002ff0       ??_C@_1EK@DDHFIOJK@?$AAF?$AAE?$AAM?$AA0?$AA_?$AAT?$AAx?$AAP?$AAe?$AAr?$AAR?$AAa?$AAt?$AAe?$AAP?$AAo?$AAw?$AAe?$AAr?$AAL?$AAi?$AAm?$AAi?$AAt?$AAs?$AA_?$AA5?$AAG?$AA_?$AAE?$AAx?$AAt@ 10003ff0     oscommon:osRgstry.obj
 0001:00003040       ??_C@_1EM@DJKCPHFG@?$AAF?$AAE?$AAM?$AA0?$AA_?$AAT?$AAx?$AAP?$AAe?$AAr?$AAR?$AAa?$AAt?$AAe?$AAP?$AAo?$AAw?$AAe?$AAr?$AAL?$AAi?$AAm?$AAi?$AAt?$AAs?$AA_?$AA5?$AAG?$AA_?$AAD?$AAe?$AAg@ 10004040     oscommon:osRgstry.obj
 0001:00003090       ??_C@_1EI@OLKECLIP@?$AAF?$AAE?$AAM?$AA0?$AA_?$AAT?$AAx?$AAP?$AAe?$AAr?$AAR?$AAa?$AAt?$AAe?$AAP?$AAo?$AAw?$AAe?$AAr?$AAL?$AAi?$AAm?$AAi?$AAt?$AAs?$AA_?$AA5?$AAG?$AA_?$AAN?$AAo?$AAr@ 10004090     oscommon:osRgstry.obj
 0001:000030d8       ??_C@_1CM@POPLAFGK@?$AAF?$AAE?$AAM?$AA0?$AA_?$AAT?$AAx?$AAB?$AAi?$AAP?$AAO?$AAf?$AAf?$AAs?$AAe?$AAt?$AAd?$AAB?$AA_?$AA5?$AAG?$AA?$AA@ 100040d8     oscommon:osRgstry.obj
 0001:00003104       ??_C@_1DI@LCHEBCNG@?$AAF?$AAE?$AAM?$AA0?$AA_?$AAT?$AAx?$AAB?$AAi?$AAP?$AAR?$AAe?$AAf?$AAe?$AAr?$AAe?$AAn?$AAc?$AAe?$AAP?$AAo?$AAw?$AAe?$AAr?$AA_?$AA5?$AAG?$AA?$AA@ 10004104     oscommon:osRgstry.obj
 0001:00003140       ??_C@_1EA@BPMKKPAM@?$AAF?$AAE?$AAM?$AA0?$AA_?$AAT?$AAX?$AAB?$AAi?$AAP?$AAR?$AAe?$AAf?$AAe?$AAr?$AAe?$AAn?$AAc?$AAe?$AAP?$AAD?$AAv?$AAo?$AAl?$AAt?$AAa?$AAg?$AAe?$AA_?$AA5?$AAG?$AA?$AA@ 10004140     oscommon:osRgstry.obj
 0001:00003180       ??_C@_1EO@FMAKMNDM@?$AAF?$AAE?$AAM?$AA0?$AA_?$AAR?$AAx?$AAR?$AAs?$AAs?$AAi?$AAA?$AAn?$AAd?$AAP?$AAr?$AAo?$AAc?$AAe?$AAs?$AAs?$AAC?$AAo?$AAm?$AAp?$AAe?$AAn?$AAs?$AAa?$AAt?$AAi?$AAo@ 10004180     oscommon:osRgstry.obj
 0001:000031d0       ??_C@_1CM@GAJAMALK@?$AAF?$AAE?$AAM?$AA0?$AA_?$AAT?$AAX?$AAT?$AAr?$AAa?$AAc?$AAe?$AAL?$AAo?$AAs?$AAs?$AA_?$AA2?$AA_?$AA4?$AAG?$AA?$AA@ 100041d0     oscommon:osRgstry.obj
 0001:000031fc       ??_C@_1DO@HGDLNFH@?$AAF?$AAE?$AAM?$AA0?$AA_?$AAR?$AAx?$AAT?$AAr?$AAa?$AAc?$AAe?$AAI?$AAn?$AAs?$AAe?$AAr?$AAt?$AAi?$AAo?$AAn?$AAL?$AAo?$AAs?$AAs?$AA_?$AA2?$AA_?$AA4?$AAG?$AA?$AA@ 100041fc     oscommon:osRgstry.obj
 0001:00003240       ??_C@_1EA@POOMGDHP@?$AAF?$AAE?$AAM?$AA0?$AA_?$AAN?$AAo?$AAr?$AAm?$AAa?$AAl?$AAT?$AAo?$AAD?$AAe?$AAg?$AAr?$AAa?$AAd?$AAe?$AAd?$AAH?$AAi?$AAg?$AAh?$AAT?$AAh?$AAr?$AA_?$AA5?$AAG?$AA?$AA@ 10004240     oscommon:osRgstry.obj
 0001:00003280       ??_C@_1DO@COODJDOJ@?$AAF?$AAE?$AAM?$AA0?$AA_?$AAD?$AAe?$AAg?$AAr?$AAa?$AAd?$AAe?$AAd?$AAL?$AAo?$AAw?$AAT?$AAo?$AAN?$AAo?$AAr?$AAm?$AAa?$AAl?$AAT?$AAh?$AAr?$AA_?$AA5?$AAG?$AA?$AA@ 10004280     oscommon:osRgstry.obj
 0001:000032c0       ??_C@_1EE@FKJLCJA@?$AAF?$AAE?$AAM?$AA0?$AA_?$AAN?$AAo?$AAr?$AAm?$AAa?$AAl?$AAT?$AAo?$AAD?$AAe?$AAg?$AAr?$AAa?$AAd?$AAe?$AAd?$AAH?$AAi?$AAg?$AAh?$AAT?$AAh?$AAr?$AA_?$AA2?$AA_?$AA4@ 100042c0     oscommon:osRgstry.obj
 0001:00003308       ??_C@_1EC@CJANLBCD@?$AAF?$AAE?$AAM?$AA0?$AA_?$AAD?$AAe?$AAg?$AAr?$AAa?$AAd?$AAe?$AAd?$AAL?$AAo?$AAw?$AAT?$AAo?$AAN?$AAo?$AAr?$AAm?$AAa?$AAl?$AAT?$AAh?$AAr?$AA_?$AA2?$AA_?$AA4?$AAG@ 10004308     oscommon:osRgstry.obj
 0001:0000334c       ??_C@_1DK@COILPJL@?$AAF?$AAE?$AAM?$AA0?$AA_?$AAR?$AAx?$AAF?$AAe?$AAm?$AAI?$AAn?$AAs?$AAe?$AAr?$AAt?$AAi?$AAo?$AAn?$AAL?$AAo?$AAs?$AAs?$AA_?$AA2?$AA_?$AA4?$AAG?$AA?$AA@ 1000434c     oscommon:osRgstry.obj
 0001:00003388       ??_C@_1CO@FKOBGLPF@?$AAF?$AAE?$AAM?$AA0?$AA_?$AAT?$AAx?$AAI?$AAb?$AAi?$AAa?$AAs?$AAT?$AAa?$AAb?$AAl?$AAe?$AA_?$AA2?$AA_?$AA4?$AAG?$AA?$AA@ 10004388     oscommon:osRgstry.obj
 0001:000033b8       ??_C@_1DI@MJGAHPFN@?$AAF?$AAE?$AAM?$AA0?$AA_?$AAT?$AAx?$AAP?$AAD?$AAV?$AAs?$AAR?$AAa?$AAt?$AAe?$AAO?$AAf?$AAf?$AAs?$AAe?$AAt?$AAs?$AA_?$AA2?$AA_?$AA4?$AAG?$AA?$AA@ 100043b8     oscommon:osRgstry.obj
 0001:000033f0       ??_C@_1EO@JFFBCMOG@?$AAF?$AAE?$AAM?$AA0?$AA_?$AAT?$AAx?$AAP?$AAe?$AAr?$AAC?$AAh?$AAa?$AAn?$AAn?$AAe?$AAl?$AAP?$AAo?$AAw?$AAe?$AAr?$AAL?$AAi?$AAm?$AAi?$AAt?$AAs?$AA_?$AA2?$AA_?$AA4@ 100043f0     oscommon:osRgstry.obj
 0001:00003440       ??_C@_1EM@HHGJLHD@?$AAF?$AAE?$AAM?$AA0?$AA_?$AAT?$AAx?$AAP?$AAe?$AAr?$AAC?$AAh?$AAa?$AAn?$AAn?$AAe?$AAl?$AAP?$AAo?$AAw?$AAe?$AAr?$AAL?$AAi?$AAm?$AAi?$AAt?$AAs?$AA_?$AA2?$AA_?$AA4@ 10004440     oscommon:osRgstry.obj
 0001:00003490       ??_C@_1EO@GBOKHDHM@?$AAF?$AAE?$AAM?$AA0?$AA_?$AAT?$AAx?$AAP?$AAe?$AAr?$AAR?$AAa?$AAt?$AAe?$AAP?$AAo?$AAw?$AAe?$AAr?$AAL?$AAi?$AAm?$AAi?$AAt?$AAs?$AA_?$AA2?$AA_?$AA4?$AAG?$AA_?$AAE@ 10004490     oscommon:osRgstry.obj
 0001:000034e0       ??_C@_1FA@PCIKHPAC@?$AAF?$AAE?$AAM?$AA0?$AA_?$AAT?$AAx?$AAP?$AAe?$AAr?$AAR?$AAa?$AAt?$AAe?$AAP?$AAo?$AAw?$AAe?$AAr?$AAL?$AAi?$AAm?$AAi?$AAt?$AAs?$AA_?$AA2?$AA_?$AA4?$AAG?$AA_?$AAD@ 100044e0     oscommon:osRgstry.obj
 0001:00003530       ??_C@_1EM@JGCDMFBL@?$AAF?$AAE?$AAM?$AA0?$AA_?$AAT?$AAx?$AAP?$AAe?$AAr?$AAR?$AAa?$AAt?$AAe?$AAP?$AAo?$AAw?$AAe?$AAr?$AAL?$AAi?$AAm?$AAi?$AAt?$AAs?$AA_?$AA2?$AA_?$AA4?$AAG?$AA_?$AAN@ 10004530     oscommon:osRgstry.obj
 0001:0000357c       ??_C@_1DA@CLLHCGDJ@?$AAF?$AAE?$AAM?$AA0?$AA_?$AAT?$AAx?$AAB?$AAi?$AAP?$AAO?$AAf?$AAf?$AAs?$AAe?$AAt?$AAd?$AAB?$AA_?$AA2?$AA_?$AA4?$AAG?$AA?$AA@ 1000457c     oscommon:osRgstry.obj
 0001:000035ac       ??_C@_1DM@KGALOLNB@?$AAF?$AAE?$AAM?$AA0?$AA_?$AAT?$AAx?$AAB?$AAi?$AAP?$AAR?$AAe?$AAf?$AAe?$AAr?$AAe?$AAn?$AAc?$AAe?$AAP?$AAo?$AAw?$AAe?$AAr?$AA_?$AA2?$AA_?$AA4?$AAG?$AA?$AA@ 100045ac     oscommon:osRgstry.obj
 0001:000035e8       ??_C@_1EE@PAEFIDAM@?$AAF?$AAE?$AAM?$AA0?$AA_?$AAT?$AAX?$AAB?$AAi?$AAP?$AAR?$AAe?$AAf?$AAe?$AAr?$AAe?$AAn?$AAc?$AAe?$AAP?$AAD?$AAv?$AAo?$AAl?$AAt?$AAa?$AAg?$AAe?$AA_?$AA2?$AA_?$AA4@ 100045e8     oscommon:osRgstry.obj
 0001:00003630       ??_C@_1FG@PJHODGNN@?$AAF?$AAE?$AAM?$AA1?$AA_?$AAT?$AAx?$AAP?$AAe?$AAr?$AAC?$AAh?$AAa?$AAn?$AAn?$AAe?$AAl?$AAP?$AAo?$AAw?$AAe?$AAr?$AAC?$AAo?$AAm?$AAp?$AAe?$AAn?$AAs?$AAa?$AAt?$AAi@ 10004630     oscommon:osRgstry.obj
 0001:00003688       ??_C@_1FA@IMCLLLJI@?$AAF?$AAE?$AAM?$AA1?$AA_?$AAT?$AAx?$AAP?$AAe?$AAr?$AAC?$AAh?$AAa?$AAn?$AAn?$AAe?$AAl?$AAP?$AAo?$AAw?$AAe?$AAr?$AAC?$AAo?$AAm?$AAp?$AAe?$AAn?$AAs?$AAa?$AAt?$AAi@ 10004688     oscommon:osRgstry.obj
 0001:000036d8       ??_C@_1EK@PBGPOPEF@?$AAF?$AAE?$AAM?$AA1?$AA_?$AAR?$AAx?$AAR?$AAs?$AAs?$AAi?$AAA?$AAn?$AAd?$AAP?$AAr?$AAo?$AAc?$AAe?$AAs?$AAs?$AAC?$AAo?$AAm?$AAp?$AAe?$AAn?$AAs?$AAa?$AAt?$AAi?$AAo@ 100046d8     oscommon:osRgstry.obj
 0001:00003724       ??_C@_1CI@BBDJNHDG@?$AAF?$AAE?$AAM?$AA1?$AA_?$AAT?$AAX?$AAT?$AAr?$AAa?$AAc?$AAe?$AAL?$AAo?$AAs?$AAs?$AA_?$AA5?$AAG?$AA?$AA@ 10004724     oscommon:osRgstry.obj
 0001:0000374c       ??_C@_1DK@MMKHBNNE@?$AAF?$AAE?$AAM?$AA1?$AA_?$AAR?$AAx?$AAT?$AAr?$AAa?$AAc?$AAe?$AAI?$AAn?$AAs?$AAe?$AAr?$AAt?$AAi?$AAo?$AAn?$AAL?$AAo?$AAs?$AAs?$AA_?$AA5?$AAG?$AA?$AA@ 1000474c     oscommon:osRgstry.obj
 0001:00003788       ??_C@_1DG@IFHNDGJG@?$AAF?$AAE?$AAM?$AA1?$AA_?$AAR?$AAx?$AAF?$AAe?$AAm?$AAI?$AAn?$AAs?$AAe?$AAr?$AAt?$AAi?$AAo?$AAn?$AAL?$AAo?$AAs?$AAs?$AA_?$AA5?$AAG?$AA?$AA@ 10004788     oscommon:osRgstry.obj
 0001:000037c0       ??_C@_1CK@LBJJNODM@?$AAF?$AAE?$AAM?$AA1?$AA_?$AAT?$AAx?$AAI?$AAb?$AAi?$AAa?$AAs?$AAT?$AAa?$AAb?$AAl?$AAe?$AA_?$AA5?$AAG?$AA?$AA@ 100047c0     oscommon:osRgstry.obj
 0001:000037ec       ??_C@_1DE@INPBCBPB@?$AAF?$AAE?$AAM?$AA1?$AA_?$AAT?$AAx?$AAP?$AAD?$AAV?$AAs?$AAR?$AAa?$AAt?$AAe?$AAO?$AAf?$AAf?$AAs?$AAe?$AAt?$AAs?$AA_?$AA5?$AAG?$AA?$AA@ 100047ec     oscommon:osRgstry.obj
 0001:00003820       ??_C@_1EK@JHMOBFNJ@?$AAF?$AAE?$AAM?$AA1?$AA_?$AAT?$AAx?$AAP?$AAe?$AAr?$AAC?$AAh?$AAa?$AAn?$AAn?$AAe?$AAl?$AAP?$AAo?$AAw?$AAe?$AAr?$AAL?$AAi?$AAm?$AAi?$AAt?$AAs?$AA_?$AA5?$AAG?$AA_@ 10004820     oscommon:osRgstry.obj
 0001:00003870       ??_C@_1EK@FGEIBGLI@?$AAF?$AAE?$AAM?$AA1?$AA_?$AAT?$AAx?$AAP?$AAe?$AAr?$AAR?$AAa?$AAt?$AAe?$AAP?$AAo?$AAw?$AAe?$AAr?$AAL?$AAi?$AAm?$AAi?$AAt?$AAs?$AA_?$AA5?$AAG?$AA_?$AAE?$AAx?$AAt@ 10004870     oscommon:osRgstry.obj
 0001:000038c0       ??_C@_1EM@GAMEMPDN@?$AAF?$AAE?$AAM?$AA1?$AA_?$AAT?$AAx?$AAP?$AAe?$AAr?$AAR?$AAa?$AAt?$AAe?$AAP?$AAo?$AAw?$AAe?$AAr?$AAL?$AAi?$AAm?$AAi?$AAt?$AAs?$AA_?$AA5?$AAG?$AA_?$AAD?$AAe?$AAg@ 100048c0     oscommon:osRgstry.obj
 0001:00003910       ??_C@_1EI@KCENIGJA@?$AAF?$AAE?$AAM?$AA1?$AA_?$AAT?$AAx?$AAP?$AAe?$AAr?$AAR?$AAa?$AAt?$AAe?$AAP?$AAo?$AAw?$AAe?$AAr?$AAL?$AAi?$AAm?$AAi?$AAt?$AAs?$AA_?$AA5?$AAG?$AA_?$AAN?$AAo?$AAr@ 10004910     oscommon:osRgstry.obj
 0001:00003958       ??_C@_1CM@HDHDPIII@?$AAF?$AAE?$AAM?$AA1?$AA_?$AAT?$AAx?$AAB?$AAi?$AAP?$AAO?$AAf?$AAf?$AAs?$AAe?$AAt?$AAd?$AAB?$AA_?$AA5?$AAG?$AA?$AA@ 10004958     oscommon:osRgstry.obj
 0001:00003984       ??_C@_1DI@DGEFALCH@?$AAF?$AAE?$AAM?$AA1?$AA_?$AAT?$AAx?$AAB?$AAi?$AAP?$AAR?$AAe?$AAf?$AAe?$AAr?$AAe?$AAn?$AAc?$AAe?$AAP?$AAo?$AAw?$AAe?$AAr?$AA_?$AA5?$AAG?$AA?$AA@ 10004984     oscommon:osRgstry.obj
 0001:000039c0       ??_C@_1EA@FFANKAJP@?$AAF?$AAE?$AAM?$AA1?$AA_?$AAT?$AAX?$AAB?$AAi?$AAP?$AAR?$AAe?$AAf?$AAe?$AAr?$AAe?$AAn?$AAc?$AAe?$AAP?$AAD?$AAv?$AAo?$AAl?$AAt?$AAa?$AAg?$AAe?$AA_?$AA5?$AAG?$AA?$AA@ 100049c0     oscommon:osRgstry.obj
 0001:00003a00       ??_C@_1EO@PCABJOKI@?$AAF?$AAE?$AAM?$AA1?$AA_?$AAR?$AAx?$AAR?$AAs?$AAs?$AAi?$AAA?$AAn?$AAd?$AAP?$AAr?$AAo?$AAc?$AAe?$AAs?$AAs?$AAC?$AAo?$AAm?$AAp?$AAe?$AAn?$AAs?$AAa?$AAt?$AAi?$AAo@ 10004a00     oscommon:osRgstry.obj
 0001:00003a50       ??_C@_1CM@ONBIDNFI@?$AAF?$AAE?$AAM?$AA1?$AA_?$AAT?$AAX?$AAT?$AAr?$AAa?$AAc?$AAe?$AAL?$AAo?$AAs?$AAs?$AA_?$AA2?$AA_?$AA4?$AAG?$AA?$AA@ 10004a50     oscommon:osRgstry.obj
 0001:00003a7c       ??_C@_1DO@BKPGKOIA@?$AAF?$AAE?$AAM?$AA1?$AA_?$AAR?$AAx?$AAT?$AAr?$AAa?$AAc?$AAe?$AAI?$AAn?$AAs?$AAe?$AAr?$AAt?$AAi?$AAo?$AAn?$AAL?$AAo?$AAs?$AAs?$AA_?$AA2?$AA_?$AA4?$AAG?$AA?$AA@ 10004a7c     oscommon:osRgstry.obj
 0001:00003ac0       ??_C@_1EA@LECLGMOM@?$AAF?$AAE?$AAM?$AA1?$AA_?$AAN?$AAo?$AAr?$AAm?$AAa?$AAl?$AAT?$AAo?$AAD?$AAe?$AAg?$AAr?$AAa?$AAd?$AAe?$AAd?$AAH?$AAi?$AAg?$AAh?$AAT?$AAh?$AAr?$AA_?$AA5?$AAG?$AA?$AA@ 10004ac0     oscommon:osRgstry.obj
 0001:00003b00       ??_C@_1DO@DDHGIADO@?$AAF?$AAE?$AAM?$AA1?$AA_?$AAD?$AAe?$AAg?$AAr?$AAa?$AAd?$AAe?$AAd?$AAL?$AAo?$AAw?$AAT?$AAo?$AAN?$AAo?$AAr?$AAm?$AAa?$AAl?$AAT?$AAh?$AAr?$AA_?$AA5?$AAG?$AA?$AA@ 10004b00     oscommon:osRgstry.obj
 0001:00003b40       ??_C@_1EE@LDLCFCOA@?$AAF?$AAE?$AAM?$AA1?$AA_?$AAN?$AAo?$AAr?$AAm?$AAa?$AAl?$AAT?$AAo?$AAD?$AAe?$AAg?$AAr?$AAa?$AAd?$AAe?$AAd?$AAH?$AAi?$AAg?$AAh?$AAT?$AAh?$AAr?$AA_?$AA2?$AA_?$AA4@ 10004b40     oscommon:osRgstry.obj
 0001:00003b88       ??_C@_1EC@ODNODPKM@?$AAF?$AAE?$AAM?$AA1?$AA_?$AAD?$AAe?$AAg?$AAr?$AAa?$AAd?$AAe?$AAd?$AAL?$AAo?$AAw?$AAT?$AAo?$AAN?$AAo?$AAr?$AAm?$AAa?$AAl?$AAT?$AAh?$AAr?$AA_?$AA2?$AA_?$AA4?$AAG@ 10004b88     oscommon:osRgstry.obj
 0001:00003bcc       ??_C@_1DK@GLCEEDJG@?$AAF?$AAE?$AAM?$AA1?$AA_?$AAR?$AAx?$AAF?$AAe?$AAm?$AAI?$AAn?$AAs?$AAe?$AAr?$AAt?$AAi?$AAo?$AAn?$AAL?$AAo?$AAs?$AAs?$AA_?$AA2?$AA_?$AA4?$AAG?$AA?$AA@ 10004bcc     oscommon:osRgstry.obj
 0001:00003c08       ??_C@_1CO@PFKFPJLC@?$AAF?$AAE?$AAM?$AA1?$AA_?$AAT?$AAx?$AAI?$AAb?$AAi?$AAa?$AAs?$AAT?$AAa?$AAb?$AAl?$AAe?$AA_?$AA2?$AA_?$AA4?$AAG?$AA?$AA@ 10004c08     oscommon:osRgstry.obj
 0001:00003c38       ??_C@_1DI@ENFBGGKM@?$AAF?$AAE?$AAM?$AA1?$AA_?$AAT?$AAx?$AAP?$AAD?$AAV?$AAs?$AAR?$AAa?$AAt?$AAe?$AAO?$AAf?$AAf?$AAs?$AAe?$AAt?$AAs?$AA_?$AA2?$AA_?$AA4?$AAG?$AA?$AA@ 10004c38     oscommon:osRgstry.obj
 0001:00003c70       ??_C@_1EO@DLFKHPHC@?$AAF?$AAE?$AAM?$AA1?$AA_?$AAT?$AAx?$AAP?$AAe?$AAr?$AAC?$AAh?$AAa?$AAn?$AAn?$AAe?$AAl?$AAP?$AAo?$AAw?$AAe?$AAr?$AAL?$AAi?$AAm?$AAi?$AAt?$AAs?$AA_?$AA2?$AA_?$AA4@ 10004c70     oscommon:osRgstry.obj
 0001:00003cc0       ??_C@_1EM@FOBAKDBI@?$AAF?$AAE?$AAM?$AA1?$AA_?$AAT?$AAx?$AAP?$AAe?$AAr?$AAC?$AAh?$AAa?$AAn?$AAn?$AAe?$AAl?$AAP?$AAo?$AAw?$AAe?$AAr?$AAL?$AAi?$AAm?$AAi?$AAt?$AAs?$AA_?$AA2?$AA_?$AA4@ 10004cc0     oscommon:osRgstry.obj
 0001:00003d10       ??_C@_1EO@MPOBCAOI@?$AAF?$AAE?$AAM?$AA1?$AA_?$AAT?$AAx?$AAP?$AAe?$AAr?$AAR?$AAa?$AAt?$AAe?$AAP?$AAo?$AAw?$AAe?$AAr?$AAL?$AAi?$AAm?$AAi?$AAt?$AAs?$AA_?$AA2?$AA_?$AA4?$AAG?$AA_?$AAE@ 10004d10     oscommon:osRgstry.obj
 0001:00003d60       ??_C@_1FA@BFMFJOFJ@?$AAF?$AAE?$AAM?$AA1?$AA_?$AAT?$AAx?$AAP?$AAe?$AAr?$AAR?$AAa?$AAt?$AAe?$AAP?$AAo?$AAw?$AAe?$AAr?$AAL?$AAi?$AAm?$AAi?$AAt?$AAs?$AA_?$AA2?$AA_?$AA4?$AAG?$AA_?$AAD@ 10004d60     oscommon:osRgstry.obj
 0001:00003db0       ??_C@_1EM@MPEFPNHA@?$AAF?$AAE?$AAM?$AA1?$AA_?$AAT?$AAx?$AAP?$AAe?$AAr?$AAR?$AAa?$AAt?$AAe?$AAP?$AAo?$AAw?$AAe?$AAr?$AAL?$AAi?$AAm?$AAi?$AAt?$AAs?$AA_?$AA2?$AA_?$AA4?$AAG?$AA_?$AAN@ 10004db0     oscommon:osRgstry.obj
 0001:00003dfc       ??_C@_1DA@IKIOKCNH@?$AAF?$AAE?$AAM?$AA1?$AA_?$AAT?$AAx?$AAB?$AAi?$AAP?$AAO?$AAf?$AAf?$AAs?$AAe?$AAt?$AAd?$AAB?$AA_?$AA2?$AA_?$AA4?$AAG?$AA?$AA@ 10004dfc     oscommon:osRgstry.obj
 0001:00003e2c       ??_C@_1DM@KHKOECGH@?$AAF?$AAE?$AAM?$AA1?$AA_?$AAT?$AAx?$AAB?$AAi?$AAP?$AAR?$AAe?$AAf?$AAe?$AAr?$AAe?$AAn?$AAc?$AAe?$AAP?$AAo?$AAw?$AAe?$AAr?$AA_?$AA2?$AA_?$AA4?$AAG?$AA?$AA@ 10004e2c     oscommon:osRgstry.obj
 0001:00003e68       ??_C@_1EE@EGFOGDHM@?$AAF?$AAE?$AAM?$AA1?$AA_?$AAT?$AAX?$AAB?$AAi?$AAP?$AAR?$AAe?$AAf?$AAe?$AAr?$AAe?$AAn?$AAc?$AAe?$AAP?$AAD?$AAv?$AAo?$AAl?$AAt?$AAa?$AAg?$AAe?$AA_?$AA2?$AA_?$AA4@ 10004e68     oscommon:osRgstry.obj
 0001:00003eac       ??_C@_1BC@PFDDLKEP@?$AAS?$AAe?$AAt?$AAt?$AAi?$AAn?$AAg?$AAs?$AA?$AA@ 10004eac     oscommon:osRgstry.obj
 0001:00003ec0       ??_C@_1DE@HOMACJCO@?$AAS?$AAi?$AAn?$AAg?$AAl?$AAe?$AA_?$AAD?$AAu?$AAa?$AAl?$AA_?$AAB?$AAa?$AAn?$AAd?$AA_?$AAS?$AAo?$AAl?$AAu?$AAt?$AAi?$AAo?$AAn?$AA?$AA@ 10004ec0     oscommon:osRgstry.obj
 0001:00003ef4       ??_C@_1BE@EPHGILCP@?$AAD?$AAC?$AA2?$AAD?$AAC?$AAM?$AAo?$AAd?$AAe?$AA?$AA@ 10004ef4     oscommon:osRgstry.obj
 0001:00003f08       ??_C@_1CG@DJAMJPBH@?$AAC?$AAl?$AAo?$AAc?$AAk?$AAV?$AAa?$AAl?$AAi?$AAd?$AAO?$AAn?$AAW?$AAa?$AAk?$AAe?$AAu?$AAp?$AA?$AA@ 10004f08     oscommon:osRgstry.obj
 0001:00003f30       ??_C@_1CK@GJMCHMGM@?$AAT?$AAX?$AAB?$AAi?$AAP?$AAF?$AAE?$AAM?$AAM?$AAa?$AAn?$AAu?$AAf?$AAa?$AAc?$AAt?$AAu?$AAr?$AAe?$AAr?$AA?$AA@ 10004f30     oscommon:osRgstry.obj
 0001:00003f5c       ??_C@_1CG@KOOFEGIK@?$AAT?$AAX?$AAB?$AAi?$AAP?$AAF?$AAE?$AAM?$AAA?$AAu?$AAt?$AAo?$AAD?$AAe?$AAt?$AAe?$AAc?$AAt?$AA?$AA@ 10004f5c     oscommon:osRgstry.obj
 0001:00003f84       ??_C@_1CA@EOIBLOHM@?$AAF?$AAR?$AAe?$AAf?$AAC?$AAl?$AAo?$AAc?$AAk?$AAS?$AAt?$AAa?$AAt?$AAu?$AAs?$AA?$AA@ 10004f84     oscommon:osRgstry.obj
 0001:00003fa4       ??_C@_1DA@EEOPOPDB@?$AAS?$AAT?$AAR?$AAF?$AAR?$AAe?$AAf?$AAC?$AAl?$AAo?$AAc?$AAk?$AAS?$AAe?$AAt?$AAt?$AAi?$AAn?$AAg?$AAT?$AAi?$AAm?$AAe?$AA?$AA@ 10004fa4     oscommon:osRgstry.obj
 0001:00003fd4       ??_C@_1BK@EBBIPLJG@?$AAS?$AAT?$AAR?$AAF?$AAR?$AAe?$AAf?$AAC?$AAl?$AAo?$AAc?$AAk?$AA?$AA@ 10004fd4     oscommon:osRgstry.obj
 0001:00003ff0       ??_C@_1CM@KEBGLAMO@?$AAC?$AAo?$AAn?$AAt?$AAe?$AAx?$AAt?$AAS?$AAw?$AAi?$AAt?$AAc?$AAh?$AAR?$AAe?$AAq?$AAu?$AAi?$AAr?$AAe?$AAd?$AA?$AA@ 10004ff0     oscommon:osRgstry.obj
 0001:0000401c       ??_C@_1DO@MDAGGJJP@?$AAN?$AAu?$AAl?$AAl?$AAD?$AAa?$AAt?$AAa?$AAK?$AAe?$AAe?$AAp?$AAA?$AAl?$AAi?$AAv?$AAe?$AAD?$AAe?$AAf?$AAa?$AAu?$AAl?$AAt?$AAP?$AAe?$AAr?$AAi?$AAo?$AAd?$AA?$AA@ 1000501c     oscommon:osRgstry.obj
 0001:0000405c       ??_C@_1CE@FICKNNML@?$AAP?$AAa?$AAr?$AAs?$AAe?$AAW?$AAS?$AAC?$AAI?$AAn?$AAB?$AAe?$AAa?$AAc?$AAo?$AAn?$AAs?$AA?$AA@ 1000505c     oscommon:osRgstry.obj
 0001:00004080       ??_C@_1CM@LHPFHCPB@?$AAS?$AAc?$AAa?$AAn?$AAC?$AAn?$AAc?$AAn?$AAR?$AAs?$AAs?$AAi?$AAT?$AAh?$AAr?$AAe?$AAs?$AAh?$AAo?$AAl?$AAd?$AA?$AA@ 10005080     oscommon:osRgstry.obj
 0001:000040ac       ??_C@_1CA@OLDIJCAO@?$AAS?$AAc?$AAa?$AAn?$AAR?$AAe?$AAs?$AAu?$AAl?$AAt?$AAA?$AAg?$AAi?$AAn?$AAg?$AA?$AA@ 100050ac     oscommon:osRgstry.obj
 0001:000040cc       ??_C@_1BK@FLIOOJFC@?$AAS?$AAc?$AAa?$AAn?$AAP?$AAu?$AAs?$AAh?$AAM?$AAo?$AAd?$AAe?$AA?$AA@ 100050cc     oscommon:osRgstry.obj
 0001:000040e8       ??_C@_1CM@BBEKGLBI@?$AAD?$AAf?$AAs?$AAP?$AAa?$AAs?$AAs?$AAi?$AAv?$AAe?$AAD?$AAw?$AAe?$AAl?$AAl?$AAT?$AAi?$AAm?$AAe?$AAM?$AAs?$AA?$AA@ 100050e8     oscommon:osRgstry.obj
 0001:00004114       ??_C@_1DM@CKOBCDEM@?$AAM?$AAi?$AAn?$AAi?$AAm?$AAu?$AAm?$AAD?$AAu?$AAr?$AAa?$AAt?$AAi?$AAo?$AAn?$AAB?$AAe?$AAt?$AAw?$AAe?$AAe?$AAn?$AAO?$AAs?$AAS?$AAc?$AAa?$AAn?$AAs?$AA?$AA@ 10005114     oscommon:osRgstry.obj
 0001:00004150       ??_C@_1CO@HAEDKFCJ@?$AAS?$AAn?$AAr?$AAP?$AAa?$AAc?$AAk?$AAe?$AAt?$AAA?$AAv?$AAe?$AAr?$AAa?$AAg?$AAe?$AAW?$AAe?$AAi?$AAg?$AAh?$AAt?$AA?$AA@ 10005150     oscommon:osRgstry.obj
 0001:00004180       ??_C@_1CO@LPJFIEJL@?$AAS?$AAn?$AAr?$AAB?$AAe?$AAa?$AAc?$AAo?$AAn?$AAA?$AAv?$AAe?$AAr?$AAa?$AAg?$AAe?$AAW?$AAe?$AAi?$AAg?$AAh?$AAt?$AA?$AA@ 10005180     oscommon:osRgstry.obj
 0001:000041b0       ??_C@_1DA@OHFNAFDP@?$AAR?$AAs?$AAs?$AAi?$AAP?$AAa?$AAc?$AAk?$AAe?$AAt?$AAA?$AAv?$AAe?$AAr?$AAa?$AAg?$AAe?$AAW?$AAe?$AAi?$AAg?$AAh?$AAt?$AA?$AA@ 100051b0     oscommon:osRgstry.obj
 0001:000041e0       ??_C@_1DA@CIILCEIN@?$AAR?$AAs?$AAs?$AAi?$AAB?$AAe?$AAa?$AAc?$AAo?$AAn?$AAA?$AAv?$AAe?$AAr?$AAa?$AAg?$AAe?$AAW?$AAe?$AAi?$AAg?$AAh?$AAt?$AA?$AA@ 100051e0     oscommon:osRgstry.obj
 0001:00004210       ??_C@_1DA@HBAEEBP@?$AAS?$AAe?$AAn?$AAd?$AAI?$AAN?$AAI?$AAB?$AAu?$AAf?$AAf?$AAe?$AAr?$AAT?$AAo?$AAU?$AAs?$AAe?$AAr?$AAM?$AAo?$AAd?$AAe?$AA?$AA@ 10005210     oscommon:osRgstry.obj
 0001:00004240       ??_C@_1BO@OIPMHELG@?$AAd?$AAo?$AAt?$AA1?$AA1?$AAS?$AAt?$AAa?$AAt?$AAi?$AAo?$AAn?$AAI?$AAD?$AA?$AA@ 10005240     oscommon:osRgstry.obj
 0001:00004260       ??_C@_1DA@CNJIKDED@?$AAE?$AAE?$AAP?$AAR?$AAO?$AAM?$AAl?$AAe?$AAs?$AAs?$AAM?$AAo?$AAd?$AAe?$AAS?$AAu?$AAp?$AAp?$AAo?$AAr?$AAt?$AAe?$AAd?$AA?$AA@ 10005260     oscommon:osRgstry.obj
 0001:00004290       ??_C@_1BM@GHPKNIOM@?$AAX?$AAC?$AAC?$AAT?$AAe?$AAs?$AAt?$AAR?$AAo?$AAg?$AAe?$AAA?$AAP?$AA?$AA@ 10005290     oscommon:osRgstry.obj
 0001:000042b0       ??_C@_1EK@IOGKEDEI@?$AAM?$AAe?$AAa?$AAs?$AAu?$AAr?$AAM?$AAa?$AAx?$AAD?$AAu?$AAr?$AAa?$AAt?$AAi?$AAo?$AAn?$AAO?$AAn?$AAN?$AAo?$AAn?$AAS?$AAe?$AAr?$AAv?$AAi?$AAn?$AAg?$AAC?$AAh?$AAa@ 100052b0     oscommon:osRgstry.obj
 0001:000042fc       ??_C@_1CO@KGOHLCIC@?$AAM?$AAe?$AAa?$AAs?$AAu?$AAr?$AAT?$AAr?$AAa?$AAf?$AAf?$AAi?$AAc?$AAT?$AAh?$AAr?$AAe?$AAs?$AAh?$AAo?$AAl?$AAd?$AA?$AA@ 100052fc     oscommon:osRgstry.obj
 0001:0000432c       ??_C@_1CI@GDEFPLKL@?$AAR?$AAe?$AAA?$AAu?$AAt?$AAh?$AAA?$AAc?$AAt?$AAi?$AAv?$AAe?$AAT?$AAi?$AAm?$AAe?$AAo?$AAu?$AAt?$AA?$AA@ 1000532c     oscommon:osRgstry.obj
 0001:00004354       ??_C@_1DK@JBLKNKHJ@?$AAR?$AAx?$AAD?$AAa?$AAt?$AAa?$AAF?$AAi?$AAl?$AAt?$AAe?$AAr?$AAs?$AA_?$AAF?$AAi?$AAl?$AAt?$AAe?$AAr?$AA4?$AAP?$AAa?$AAt?$AAt?$AAe?$AAr?$AAn?$AA?$AA@ 10005354     oscommon:osRgstry.obj
 0001:00004390       ??_C@_1DE@JPAMFILM@?$AAR?$AAx?$AAD?$AAa?$AAt?$AAa?$AAF?$AAi?$AAl?$AAt?$AAe?$AAr?$AAs?$AA_?$AAF?$AAi?$AAl?$AAt?$AAe?$AAr?$AA4?$AAM?$AAa?$AAs?$AAk?$AA?$AA@ 10005390     oscommon:osRgstry.obj
 0001:000043c4       ??_C@_1DI@LOEFKLMB@?$AAR?$AAx?$AAD?$AAa?$AAt?$AAa?$AAF?$AAi?$AAl?$AAt?$AAe?$AAr?$AAs?$AA_?$AAF?$AAi?$AAl?$AAt?$AAe?$AAr?$AA4?$AAO?$AAf?$AAf?$AAs?$AAe?$AAt?$AA?$AA@ 100053c4     oscommon:osRgstry.obj
 0001:000043fc       ??_C@_1DK@HAJENABN@?$AAR?$AAx?$AAD?$AAa?$AAt?$AAa?$AAF?$AAi?$AAl?$AAt?$AAe?$AAr?$AAs?$AA_?$AAF?$AAi?$AAl?$AAt?$AAe?$AAr?$AA3?$AAP?$AAa?$AAt?$AAt?$AAe?$AAr?$AAn?$AA?$AA@ 100053fc     oscommon:osRgstry.obj
 0001:00004438       ??_C@_1DE@OLJELBDD@?$AAR?$AAx?$AAD?$AAa?$AAt?$AAa?$AAF?$AAi?$AAl?$AAt?$AAe?$AAr?$AAs?$AA_?$AAF?$AAi?$AAl?$AAt?$AAe?$AAr?$AA3?$AAM?$AAa?$AAs?$AAk?$AA?$AA@ 10005438     oscommon:osRgstry.obj
 0001:0000446c       ??_C@_1DI@EDLMFDLE@?$AAR?$AAx?$AAD?$AAa?$AAt?$AAa?$AAF?$AAi?$AAl?$AAt?$AAe?$AAr?$AAs?$AA_?$AAF?$AAi?$AAl?$AAt?$AAe?$AAr?$AA3?$AAO?$AAf?$AAf?$AAs?$AAe?$AAt?$AA?$AA@ 1000546c     oscommon:osRgstry.obj
 0001:000044a4       ??_C@_1DK@JPMGGGPM@?$AAR?$AAx?$AAD?$AAa?$AAt?$AAa?$AAF?$AAi?$AAl?$AAt?$AAe?$AAr?$AAs?$AA_?$AAF?$AAi?$AAl?$AAt?$AAe?$AAr?$AA2?$AAP?$AAa?$AAt?$AAt?$AAe?$AAr?$AAn?$AA?$AA@ 100054a4     oscommon:osRgstry.obj
 0001:000044e0       ??_C@_1DE@HADBPNFM@?$AAR?$AAx?$AAD?$AAa?$AAt?$AAa?$AAF?$AAi?$AAl?$AAt?$AAe?$AAr?$AAs?$AA_?$AAF?$AAi?$AAl?$AAt?$AAe?$AAr?$AA2?$AAM?$AAa?$AAs?$AAk?$AA?$AA@ 100054e0     oscommon:osRgstry.obj
 0001:00004514       ??_C@_1DI@ONNEMCCF@?$AAR?$AAx?$AAD?$AAa?$AAt?$AAa?$AAF?$AAi?$AAl?$AAt?$AAe?$AAr?$AAs?$AA_?$AAF?$AAi?$AAl?$AAt?$AAe?$AAr?$AA2?$AAO?$AAf?$AAf?$AAs?$AAe?$AAt?$AA?$AA@ 10005514     oscommon:osRgstry.obj
 0001:0000454c       ??_C@_1DK@HFEALLJO@?$AAR?$AAx?$AAD?$AAa?$AAt?$AAa?$AAF?$AAi?$AAl?$AAt?$AAe?$AAr?$AAs?$AA_?$AAF?$AAi?$AAl?$AAt?$AAe?$AAr?$AA1?$AAP?$AAa?$AAt?$AAt?$AAe?$AAr?$AAn?$AA?$AA@ 1000554c     oscommon:osRgstry.obj
 0001:00004588       ??_C@_1DE@HKPCPKM@?$AAR?$AAx?$AAD?$AAa?$AAt?$AAa?$AAF?$AAi?$AAl?$AAt?$AAe?$AAr?$AAs?$AA_?$AAF?$AAi?$AAl?$AAt?$AAe?$AAr?$AA1?$AAM?$AAa?$AAs?$AAk?$AA?$AA@ 10005588     oscommon:osRgstry.obj
 0001:000045bc       ??_C@_1DI@MEBMHGNH@?$AAR?$AAx?$AAD?$AAa?$AAt?$AAa?$AAF?$AAi?$AAl?$AAt?$AAe?$AAr?$AAs?$AA_?$AAF?$AAi?$AAl?$AAt?$AAe?$AAr?$AA1?$AAO?$AAf?$AAf?$AAs?$AAe?$AAt?$AA?$AA@ 100055bc     oscommon:osRgstry.obj
 0001:000045f4       ??_C@_1DI@NBMKHONM@?$AAR?$AAx?$AAD?$AAa?$AAt?$AAa?$AAF?$AAi?$AAl?$AAt?$AAe?$AAr?$AAs?$AA_?$AAD?$AAe?$AAf?$AAa?$AAu?$AAl?$AAt?$AAA?$AAc?$AAt?$AAi?$AAo?$AAn?$AA?$AA@ 100055f4     oscommon:osRgstry.obj
 0001:0000462c       ??_C@_1CM@JHKHLDMB@?$AAR?$AAx?$AAD?$AAa?$AAt?$AAa?$AAF?$AAi?$AAl?$AAt?$AAe?$AAr?$AAs?$AA_?$AAE?$AAn?$AAa?$AAb?$AAl?$AAe?$AAd?$AA?$AA@ 1000562c     oscommon:osRgstry.obj
 0001:00004658       ??_C@_1DA@JJIJHDFO@?$AAI?$AAP?$AAP?$AAo?$AAr?$AAt?$AAC?$AAl?$AAa?$AAs?$AAs?$AAi?$AAf?$AAi?$AAe?$AAr?$AA1?$AA5?$AA_?$AAD?$AAT?$AAa?$AAg?$AA?$AA@ 10005658     oscommon:osRgstry.obj
 0001:00004688       ??_C@_1DA@EIGJCCI@?$AAI?$AAP?$AAP?$AAo?$AAr?$AAt?$AAC?$AAl?$AAa?$AAs?$AAs?$AAi?$AAf?$AAi?$AAe?$AAr?$AA1?$AA4?$AA_?$AAD?$AAT?$AAa?$AAg?$AA?$AA@ 10005688     oscommon:osRgstry.obj
 0001:000046b8       ??_C@_1DA@GBELDIOI@?$AAI?$AAP?$AAP?$AAo?$AAr?$AAt?$AAC?$AAl?$AAa?$AAs?$AAs?$AAi?$AAf?$AAi?$AAe?$AAr?$AA1?$AA3?$AA_?$AAD?$AAT?$AAa?$AAg?$AA?$AA@ 100056b8     oscommon:osRgstry.obj
 0001:000046e8       ??_C@_1DA@PMEENJJO@?$AAI?$AAP?$AAP?$AAo?$AAr?$AAt?$AAC?$AAl?$AAa?$AAs?$AAs?$AAi?$AAf?$AAi?$AAe?$AAr?$AA1?$AA2?$AA_?$AAD?$AAT?$AAa?$AAg?$AA?$AA@ 100056e8     oscommon:osRgstry.obj
 0001:00004718       ??_C@_1DA@IACFPMEF@?$AAI?$AAP?$AAP?$AAo?$AAr?$AAt?$AAC?$AAl?$AAa?$AAs?$AAs?$AAi?$AAf?$AAi?$AAe?$AAr?$AA1?$AA1?$AA_?$AAD?$AAT?$AAa?$AAg?$AA?$AA@ 10005718     oscommon:osRgstry.obj
 0001:00004748       ??_C@_1DA@BNCKBNDD@?$AAI?$AAP?$AAP?$AAo?$AAr?$AAt?$AAC?$AAl?$AAa?$AAs?$AAs?$AAi?$AAf?$AAi?$AAe?$AAr?$AA1?$AA0?$AA_?$AAD?$AAT?$AAa?$AAg?$AA?$AA@ 10005748     oscommon:osRgstry.obj
 0001:00004778       ??_C@_1DA@BNBEHDOC@?$AAI?$AAP?$AAP?$AAo?$AAr?$AAt?$AAC?$AAl?$AAa?$AAs?$AAs?$AAi?$AAf?$AAi?$AAe?$AAr?$AA0?$AA9?$AA_?$AAD?$AAT?$AAa?$AAg?$AA?$AA@ 10005778     oscommon:osRgstry.obj
 0001:000047a8       ??_C@_1DA@IABLJCJE@?$AAI?$AAP?$AAP?$AAo?$AAr?$AAt?$AAC?$AAl?$AAa?$AAs?$AAs?$AAi?$AAf?$AAi?$AAe?$AAr?$AA0?$AA8?$AA_?$AAD?$AAT?$AAa?$AAg?$AA?$AA@ 100057a8     oscommon:osRgstry.obj
 0001:000047d8       ??_C@_1DA@NGIPCGGC@?$AAI?$AAP?$AAP?$AAo?$AAr?$AAt?$AAC?$AAl?$AAa?$AAs?$AAs?$AAi?$AAf?$AAi?$AAe?$AAr?$AA0?$AA7?$AA_?$AAD?$AAT?$AAa?$AAg?$AA?$AA@ 100057d8     oscommon:osRgstry.obj
 0001:00004808       ??_C@_1DA@ELIAMHBE@?$AAI?$AAP?$AAP?$AAo?$AAr?$AAt?$AAC?$AAl?$AAa?$AAs?$AAs?$AAi?$AAf?$AAi?$AAe?$AAr?$AA0?$AA6?$AA_?$AAD?$AAT?$AAa?$AAg?$AA?$AA@ 10005808     oscommon:osRgstry.obj
 0001:00004838       ??_C@_1DA@DHOBOCMP@?$AAI?$AAP?$AAP?$AAo?$AAr?$AAt?$AAC?$AAl?$AAa?$AAs?$AAs?$AAi?$AAf?$AAi?$AAe?$AAr?$AA0?$AA5?$AA_?$AAD?$AAT?$AAa?$AAg?$AA?$AA@ 10005838     oscommon:osRgstry.obj
 0001:00004868       ??_C@_1DA@KKOOADLJ@?$AAI?$AAP?$AAP?$AAo?$AAr?$AAt?$AAC?$AAl?$AAa?$AAs?$AAs?$AAi?$AAf?$AAi?$AAe?$AAr?$AA0?$AA4?$AA_?$AAD?$AAT?$AAa?$AAg?$AA?$AA@ 10005868     oscommon:osRgstry.obj
 0001:00004898       ??_C@_1DA@MPCDKJHJ@?$AAI?$AAP?$AAP?$AAo?$AAr?$AAt?$AAC?$AAl?$AAa?$AAs?$AAs?$AAi?$AAf?$AAi?$AAe?$AAr?$AA0?$AA3?$AA_?$AAD?$AAT?$AAa?$AAg?$AA?$AA@ 10005898     oscommon:osRgstry.obj
 0001:000048c8       ??_C@_1DA@FCCMEIAP@?$AAI?$AAP?$AAP?$AAo?$AAr?$AAt?$AAC?$AAl?$AAa?$AAs?$AAs?$AAi?$AAf?$AAi?$AAe?$AAr?$AA0?$AA2?$AA_?$AAD?$AAT?$AAa?$AAg?$AA?$AA@ 100058c8     oscommon:osRgstry.obj
 0001:000048f8       ??_C@_1DA@COENGNNE@?$AAI?$AAP?$AAP?$AAo?$AAr?$AAt?$AAC?$AAl?$AAa?$AAs?$AAs?$AAi?$AAf?$AAi?$AAe?$AAr?$AA0?$AA1?$AA_?$AAD?$AAT?$AAa?$AAg?$AA?$AA@ 100058f8     oscommon:osRgstry.obj
 0001:00004928       ??_C@_1DA@LDECIMKC@?$AAI?$AAP?$AAP?$AAo?$AAr?$AAt?$AAC?$AAl?$AAa?$AAs?$AAs?$AAi?$AAf?$AAi?$AAe?$AAr?$AA0?$AA0?$AA_?$AAD?$AAT?$AAa?$AAg?$AA?$AA@ 10005928     oscommon:osRgstry.obj
 0001:00004958       ??_C@_1DA@KIIFJFKD@?$AAI?$AAP?$AAP?$AAo?$AAr?$AAt?$AAC?$AAl?$AAa?$AAs?$AAs?$AAi?$AAf?$AAi?$AAe?$AAr?$AA1?$AA5?$AA_?$AAP?$AAo?$AAr?$AAt?$AA?$AA@ 10005958     oscommon:osRgstry.obj
 0001:00004988       ??_C@_1DA@DFIKHENF@?$AAI?$AAP?$AAP?$AAo?$AAr?$AAt?$AAC?$AAl?$AAa?$AAs?$AAs?$AAi?$AAf?$AAi?$AAe?$AAr?$AA1?$AA4?$AA_?$AAP?$AAo?$AAr?$AAt?$AA?$AA@ 10005988     oscommon:osRgstry.obj
 0001:000049b8       ??_C@_1DA@FAEHNOBF@?$AAI?$AAP?$AAP?$AAo?$AAr?$AAt?$AAC?$AAl?$AAa?$AAs?$AAs?$AAi?$AAf?$AAi?$AAe?$AAr?$AA1?$AA3?$AA_?$AAP?$AAo?$AAr?$AAt?$AA?$AA@ 100059b8     oscommon:osRgstry.obj
 0001:000049e8       ??_C@_1DA@MNEIDPGD@?$AAI?$AAP?$AAP?$AAo?$AAr?$AAt?$AAC?$AAl?$AAa?$AAs?$AAs?$AAi?$AAf?$AAi?$AAe?$AAr?$AA1?$AA2?$AA_?$AAP?$AAo?$AAr?$AAt?$AA?$AA@ 100059e8     oscommon:osRgstry.obj
 0001:00004a18       ??_C@_1DA@LBCJBKLI@?$AAI?$AAP?$AAP?$AAo?$AAr?$AAt?$AAC?$AAl?$AAa?$AAs?$AAs?$AAi?$AAf?$AAi?$AAe?$AAr?$AA1?$AA1?$AA_?$AAP?$AAo?$AAr?$AAt?$AA?$AA@ 10005a18     oscommon:osRgstry.obj
 0001:00004a48       ??_C@_1DA@CMCGPLMO@?$AAI?$AAP?$AAP?$AAo?$AAr?$AAt?$AAC?$AAl?$AAa?$AAs?$AAs?$AAi?$AAf?$AAi?$AAe?$AAr?$AA1?$AA0?$AA_?$AAP?$AAo?$AAr?$AAt?$AA?$AA@ 10005a48     oscommon:osRgstry.obj
 0001:00004a78       ??_C@_1DA@CMBIJFBP@?$AAI?$AAP?$AAP?$AAo?$AAr?$AAt?$AAC?$AAl?$AAa?$AAs?$AAs?$AAi?$AAf?$AAi?$AAe?$AAr?$AA0?$AA9?$AA_?$AAP?$AAo?$AAr?$AAt?$AA?$AA@ 10005a78     oscommon:osRgstry.obj
 0001:00004aa8       ??_C@_1DA@LBBHHEGJ@?$AAI?$AAP?$AAP?$AAo?$AAr?$AAt?$AAC?$AAl?$AAa?$AAs?$AAs?$AAi?$AAf?$AAi?$AAe?$AAr?$AA0?$AA8?$AA_?$AAP?$AAo?$AAr?$AAt?$AA?$AA@ 10005aa8     oscommon:osRgstry.obj
 0001:00004ad8       ??_C@_1DA@OHIDMAJP@?$AAI?$AAP?$AAP?$AAo?$AAr?$AAt?$AAC?$AAl?$AAa?$AAs?$AAs?$AAi?$AAf?$AAi?$AAe?$AAr?$AA0?$AA7?$AA_?$AAP?$AAo?$AAr?$AAt?$AA?$AA@ 10005ad8     oscommon:osRgstry.obj
 0001:00004b08       ??_C@_1DA@HKIMCBOJ@?$AAI?$AAP?$AAP?$AAo?$AAr?$AAt?$AAC?$AAl?$AAa?$AAs?$AAs?$AAi?$AAf?$AAi?$AAe?$AAr?$AA0?$AA6?$AA_?$AAP?$AAo?$AAr?$AAt?$AA?$AA@ 10005b08     oscommon:osRgstry.obj
 0001:00004b38       ??_C@_1DA@GONAEDC@?$AAI?$AAP?$AAP?$AAo?$AAr?$AAt?$AAC?$AAl?$AAa?$AAs?$AAs?$AAi?$AAf?$AAi?$AAe?$AAr?$AA0?$AA5?$AA_?$AAP?$AAo?$AAr?$AAt?$AA?$AA@ 10005b38     oscommon:osRgstry.obj
 0001:00004b68       ??_C@_1DA@JLOCOFEE@?$AAI?$AAP?$AAP?$AAo?$AAr?$AAt?$AAC?$AAl?$AAa?$AAs?$AAs?$AAi?$AAf?$AAi?$AAe?$AAr?$AA0?$AA4?$AA_?$AAP?$AAo?$AAr?$AAt?$AA?$AA@ 10005b68     oscommon:osRgstry.obj
 0001:00004b98       ??_C@_1DA@POCPEPIE@?$AAI?$AAP?$AAP?$AAo?$AAr?$AAt?$AAC?$AAl?$AAa?$AAs?$AAs?$AAi?$AAf?$AAi?$AAe?$AAr?$AA0?$AA3?$AA_?$AAP?$AAo?$AAr?$AAt?$AA?$AA@ 10005b98     oscommon:osRgstry.obj
 0001:00004bc8       ??_C@_1DA@GDCAKOPC@?$AAI?$AAP?$AAP?$AAo?$AAr?$AAt?$AAC?$AAl?$AAa?$AAs?$AAs?$AAi?$AAf?$AAi?$AAe?$AAr?$AA0?$AA2?$AA_?$AAP?$AAo?$AAr?$AAt?$AA?$AA@ 10005bc8     oscommon:osRgstry.obj
 0001:00004bf8       ??_C@_1DA@BPEBILCJ@?$AAI?$AAP?$AAP?$AAo?$AAr?$AAt?$AAC?$AAl?$AAa?$AAs?$AAs?$AAi?$AAf?$AAi?$AAe?$AAr?$AA0?$AA1?$AA_?$AAP?$AAo?$AAr?$AAt?$AA?$AA@ 10005bf8     oscommon:osRgstry.obj
 0001:00004c28       ??_C@_1DA@ICEOGKFP@?$AAI?$AAP?$AAP?$AAo?$AAr?$AAt?$AAC?$AAl?$AAa?$AAs?$AAs?$AAi?$AAf?$AAi?$AAe?$AAr?$AA0?$AA0?$AA_?$AAP?$AAo?$AAr?$AAt?$AA?$AA@ 10005c28     oscommon:osRgstry.obj
 0001:00004c58       ??_C@_1DK@DLKPLHOI@?$AAI?$AAP?$AAP?$AAo?$AAr?$AAt?$AAC?$AAl?$AAa?$AAs?$AAs?$AAi?$AAf?$AAi?$AAe?$AAr?$AA1?$AA5?$AA_?$AAI?$AAP?$AAA?$AAd?$AAd?$AAr?$AAe?$AAs?$AAs?$AA?$AA@ 10005c58     oscommon:osRgstry.obj
 0001:00004c94       ??_C@_1DK@LKIKNCMP@?$AAI?$AAP?$AAP?$AAo?$AAr?$AAt?$AAC?$AAl?$AAa?$AAs?$AAs?$AAi?$AAf?$AAi?$AAe?$AAr?$AA1?$AA4?$AA_?$AAI?$AAP?$AAA?$AAd?$AAd?$AAr?$AAe?$AAs?$AAs?$AA?$AA@ 10005c94     oscommon:osRgstry.obj
 0001:00004cd0       ??_C@_1DK@ILJCOFLI@?$AAI?$AAP?$AAP?$AAo?$AAr?$AAt?$AAC?$AAl?$AAa?$AAs?$AAs?$AAi?$AAf?$AAi?$AAe?$AAr?$AA1?$AA3?$AA_?$AAI?$AAP?$AAA?$AAd?$AAd?$AAr?$AAe?$AAs?$AAs?$AA?$AA@ 10005cd0     oscommon:osRgstry.obj
 0001:00004d0c       ??_C@_1DK@KLHIAJP@?$AAI?$AAP?$AAP?$AAo?$AAr?$AAt?$AAC?$AAl?$AAa?$AAs?$AAs?$AAi?$AAf?$AAi?$AAe?$AAr?$AA1?$AA2?$AA_?$AAI?$AAP?$AAA?$AAd?$AAd?$AAr?$AAe?$AAs?$AAs?$AA?$AA@ 10005d0c     oscommon:osRgstry.obj
 0001:00004d48       ??_C@_1DK@FCKJCJLH@?$AAI?$AAP?$AAP?$AAo?$AAr?$AAt?$AAC?$AAl?$AAa?$AAs?$AAs?$AAi?$AAf?$AAi?$AAe?$AAr?$AA1?$AA1?$AA_?$AAI?$AAP?$AAA?$AAd?$AAd?$AAr?$AAe?$AAs?$AAs?$AA?$AA@ 10005d48     oscommon:osRgstry.obj
 0001:00004d84       ??_C@_1DK@NDIMEMJA@?$AAI?$AAP?$AAP?$AAo?$AAr?$AAt?$AAC?$AAl?$AAa?$AAs?$AAs?$AAi?$AAf?$AAi?$AAe?$AAr?$AA1?$AA0?$AA_?$AAI?$AAP?$AAA?$AAd?$AAd?$AAr?$AAe?$AAs?$AAs?$AA?$AA@ 10005d84     oscommon:osRgstry.obj
 0001:00004dc0       ??_C@_1DK@GHLJLDJO@?$AAI?$AAP?$AAP?$AAo?$AAr?$AAt?$AAC?$AAl?$AAa?$AAs?$AAs?$AAi?$AAf?$AAi?$AAe?$AAr?$AA0?$AA9?$AA_?$AAI?$AAP?$AAA?$AAd?$AAd?$AAr?$AAe?$AAs?$AAs?$AA?$AA@ 10005dc0     oscommon:osRgstry.obj
 0001:00004dfc       ??_C@_1DK@OGJMNGLJ@?$AAI?$AAP?$AAP?$AAo?$AAr?$AAt?$AAC?$AAl?$AAa?$AAs?$AAs?$AAi?$AAf?$AAi?$AAe?$AAr?$AA0?$AA8?$AA_?$AAI?$AAP?$AAA?$AAd?$AAd?$AAr?$AAe?$AAs?$AAs?$AA?$AA@ 10005dfc     oscommon:osRgstry.obj
 0001:00004e38       ??_C@_1DK@FIJNNHA@?$AAI?$AAP?$AAP?$AAo?$AAr?$AAt?$AAC?$AAl?$AAa?$AAs?$AAs?$AAi?$AAf?$AAi?$AAe?$AAr?$AA0?$AA7?$AA_?$AAI?$AAP?$AAA?$AAd?$AAd?$AAr?$AAe?$AAs?$AAs?$AA?$AA@ 10005e38     oscommon:osRgstry.obj
 0001:00004e74       ??_C@_1DK@IEKMLIFH@?$AAI?$AAP?$AAP?$AAo?$AAr?$AAt?$AAC?$AAl?$AAa?$AAs?$AAs?$AAi?$AAf?$AAi?$AAe?$AAr?$AA0?$AA6?$AA_?$AAI?$AAP?$AAA?$AAd?$AAd?$AAr?$AAe?$AAs?$AAs?$AA?$AA@ 10005e74     oscommon:osRgstry.obj
 0001:00004eb0       ??_C@_1DK@NMLCBBHP@?$AAI?$AAP?$AAP?$AAo?$AAr?$AAt?$AAC?$AAl?$AAa?$AAs?$AAs?$AAi?$AAf?$AAi?$AAe?$AAr?$AA0?$AA5?$AA_?$AAI?$AAP?$AAA?$AAd?$AAd?$AAr?$AAe?$AAs?$AAs?$AA?$AA@ 10005eb0     oscommon:osRgstry.obj
 0001:00004eec       ??_C@_1DK@FNJHHEFI@?$AAI?$AAP?$AAP?$AAo?$AAr?$AAt?$AAC?$AAl?$AAa?$AAs?$AAs?$AAi?$AAf?$AAi?$AAe?$AAr?$AA0?$AA4?$AA_?$AAI?$AAP?$AAA?$AAd?$AAd?$AAr?$AAe?$AAs?$AAs?$AA?$AA@ 10005eec     oscommon:osRgstry.obj
 0001:00004f28       ??_C@_1DK@GMIPEDCP@?$AAI?$AAP?$AAP?$AAo?$AAr?$AAt?$AAC?$AAl?$AAa?$AAs?$AAs?$AAi?$AAf?$AAi?$AAe?$AAr?$AA0?$AA3?$AA_?$AAI?$AAP?$AAA?$AAd?$AAd?$AAr?$AAe?$AAs?$AAs?$AA?$AA@ 10005f28     oscommon:osRgstry.obj
 0001:00004f64       ??_C@_1DK@ONKKCGAI@?$AAI?$AAP?$AAP?$AAo?$AAr?$AAt?$AAC?$AAl?$AAa?$AAs?$AAs?$AAi?$AAf?$AAi?$AAe?$AAr?$AA0?$AA2?$AA_?$AAI?$AAP?$AAA?$AAd?$AAd?$AAr?$AAe?$AAs?$AAs?$AA?$AA@ 10005f64     oscommon:osRgstry.obj
 0001:00004fa0       ??_C@_1DK@LFLEIPCA@?$AAI?$AAP?$AAP?$AAo?$AAr?$AAt?$AAC?$AAl?$AAa?$AAs?$AAs?$AAi?$AAf?$AAi?$AAe?$AAr?$AA0?$AA1?$AA_?$AAI?$AAP?$AAA?$AAd?$AAd?$AAr?$AAe?$AAs?$AAs?$AA?$AA@ 10005fa0     oscommon:osRgstry.obj
 0001:00004fdc       ??_C@_1DK@DEJBOKAH@?$AAI?$AAP?$AAP?$AAo?$AAr?$AAt?$AAC?$AAl?$AAa?$AAs?$AAs?$AAi?$AAf?$AAi?$AAe?$AAr?$AA0?$AA0?$AA_?$AAI?$AAP?$AAA?$AAd?$AAd?$AAr?$AAe?$AAs?$AAs?$AA?$AA@ 10005fdc     oscommon:osRgstry.obj
 0001:00005018       ??_C@_1CM@DGFAADME@?$AAP?$AAo?$AAr?$AAt?$AAC?$AAl?$AAa?$AAs?$AAs?$AAi?$AAf?$AAi?$AAe?$AAr?$AA1?$AA5?$AA_?$AAD?$AAT?$AAa?$AAg?$AA?$AA@ 10006018     oscommon:osRgstry.obj
 0001:00005044       ??_C@_1CM@KLFPOCLC@?$AAP?$AAo?$AAr?$AAt?$AAC?$AAl?$AAa?$AAs?$AAs?$AAi?$AAf?$AAi?$AAe?$AAr?$AA1?$AA4?$AA_?$AAD?$AAT?$AAa?$AAg?$AA?$AA@ 10006044     oscommon:osRgstry.obj
 0001:00005070       ??_C@_1CM@MOJCEIHC@?$AAP?$AAo?$AAr?$AAt?$AAC?$AAl?$AAa?$AAs?$AAs?$AAi?$AAf?$AAi?$AAe?$AAr?$AA1?$AA3?$AA_?$AAD?$AAT?$AAa?$AAg?$AA?$AA@ 10006070     oscommon:osRgstry.obj
 0001:0000509c       ??_C@_1CM@FDJNKJAE@?$AAP?$AAo?$AAr?$AAt?$AAC?$AAl?$AAa?$AAs?$AAs?$AAi?$AAf?$AAi?$AAe?$AAr?$AA1?$AA2?$AA_?$AAD?$AAT?$AAa?$AAg?$AA?$AA@ 1000609c     oscommon:osRgstry.obj
 0001:000050c8       ??_C@_1CM@CPPMIMNP@?$AAP?$AAo?$AAr?$AAt?$AAC?$AAl?$AAa?$AAs?$AAs?$AAi?$AAf?$AAi?$AAe?$AAr?$AA1?$AA1?$AA_?$AAD?$AAT?$AAa?$AAg?$AA?$AA@ 100060c8     oscommon:osRgstry.obj
 0001:000050f4       ??_C@_1CM@LCPDGNKJ@?$AAP?$AAo?$AAr?$AAt?$AAC?$AAl?$AAa?$AAs?$AAs?$AAi?$AAf?$AAi?$AAe?$AAr?$AA1?$AA0?$AA_?$AAD?$AAT?$AAa?$AAg?$AA?$AA@ 100060f4     oscommon:osRgstry.obj
 0001:00005120       ??_C@_1CM@LCMNADHI@?$AAP?$AAo?$AAr?$AAt?$AAC?$AAl?$AAa?$AAs?$AAs?$AAi?$AAf?$AAi?$AAe?$AAr?$AA0?$AA9?$AA_?$AAD?$AAT?$AAa?$AAg?$AA?$AA@ 10006120     oscommon:osRgstry.obj
 0001:0000514c       ??_C@_1CM@CPMCOCAO@?$AAP?$AAo?$AAr?$AAt?$AAC?$AAl?$AAa?$AAs?$AAs?$AAi?$AAf?$AAi?$AAe?$AAr?$AA0?$AA8?$AA_?$AAD?$AAT?$AAa?$AAg?$AA?$AA@ 1000614c     oscommon:osRgstry.obj
 0001:00005178       ??_C@_1CM@HJFGFGPI@?$AAP?$AAo?$AAr?$AAt?$AAC?$AAl?$AAa?$AAs?$AAs?$AAi?$AAf?$AAi?$AAe?$AAr?$AA0?$AA7?$AA_?$AAD?$AAT?$AAa?$AAg?$AA?$AA@ 10006178     oscommon:osRgstry.obj
 0001:000051a4       ??_C@_1CM@OEFJLHIO@?$AAP?$AAo?$AAr?$AAt?$AAC?$AAl?$AAa?$AAs?$AAs?$AAi?$AAf?$AAi?$AAe?$AAr?$AA0?$AA6?$AA_?$AAD?$AAT?$AAa?$AAg?$AA?$AA@ 100061a4     oscommon:osRgstry.obj
 0001:000051d0       ??_C@_1CM@JIDIJCFF@?$AAP?$AAo?$AAr?$AAt?$AAC?$AAl?$AAa?$AAs?$AAs?$AAi?$AAf?$AAi?$AAe?$AAr?$AA0?$AA5?$AA_?$AAD?$AAT?$AAa?$AAg?$AA?$AA@ 100061d0     oscommon:osRgstry.obj
 0001:000051fc       ??_C@_1CM@FDHHDCD@?$AAP?$AAo?$AAr?$AAt?$AAC?$AAl?$AAa?$AAs?$AAs?$AAi?$AAf?$AAi?$AAe?$AAr?$AA0?$AA4?$AA_?$AAD?$AAT?$AAa?$AAg?$AA?$AA@ 100061fc     oscommon:osRgstry.obj
 0001:00005228       ??_C@_1CM@GAPKNJOD@?$AAP?$AAo?$AAr?$AAt?$AAC?$AAl?$AAa?$AAs?$AAs?$AAi?$AAf?$AAi?$AAe?$AAr?$AA0?$AA3?$AA_?$AAD?$AAT?$AAa?$AAg?$AA?$AA@ 10006228     oscommon:osRgstry.obj
 0001:00005254       ??_C@_1CM@PNPFDIJF@?$AAP?$AAo?$AAr?$AAt?$AAC?$AAl?$AAa?$AAs?$AAs?$AAi?$AAf?$AAi?$AAe?$AAr?$AA0?$AA2?$AA_?$AAD?$AAT?$AAa?$AAg?$AA?$AA@ 10006254     oscommon:osRgstry.obj
 0001:00005280       ??_C@_1CM@IBJEBNEO@?$AAP?$AAo?$AAr?$AAt?$AAC?$AAl?$AAa?$AAs?$AAs?$AAi?$AAf?$AAi?$AAe?$AAr?$AA0?$AA1?$AA_?$AAD?$AAT?$AAa?$AAg?$AA?$AA@ 10006280     oscommon:osRgstry.obj
 0001:000052ac       ??_C@_1CM@BMJLPMDI@?$AAP?$AAo?$AAr?$AAt?$AAC?$AAl?$AAa?$AAs?$AAs?$AAi?$AAf?$AAi?$AAe?$AAr?$AA0?$AA0?$AA_?$AAD?$AAT?$AAa?$AAg?$AA?$AA@ 100062ac     oscommon:osRgstry.obj
 0001:000052d8       ??_C@_1CM@HFMOFDJ@?$AAP?$AAo?$AAr?$AAt?$AAC?$AAl?$AAa?$AAs?$AAs?$AAi?$AAf?$AAi?$AAe?$AAr?$AA1?$AA5?$AA_?$AAP?$AAo?$AAr?$AAt?$AA?$AA@ 100062d8     oscommon:osRgstry.obj
 0001:00005304       ??_C@_1CM@JKFDAEEP@?$AAP?$AAo?$AAr?$AAt?$AAC?$AAl?$AAa?$AAs?$AAs?$AAi?$AAf?$AAi?$AAe?$AAr?$AA1?$AA4?$AA_?$AAP?$AAo?$AAr?$AAt?$AA?$AA@ 10006304     oscommon:osRgstry.obj
 0001:00005330       ??_C@_1CM@PPJOKOIP@?$AAP?$AAo?$AAr?$AAt?$AAC?$AAl?$AAa?$AAs?$AAs?$AAi?$AAf?$AAi?$AAe?$AAr?$AA1?$AA3?$AA_?$AAP?$AAo?$AAr?$AAt?$AA?$AA@ 10006330     oscommon:osRgstry.obj
 0001:0000535c       ??_C@_1CM@GCJBEPPJ@?$AAP?$AAo?$AAr?$AAt?$AAC?$AAl?$AAa?$AAs?$AAs?$AAi?$AAf?$AAi?$AAe?$AAr?$AA1?$AA2?$AA_?$AAP?$AAo?$AAr?$AAt?$AA?$AA@ 1000635c     oscommon:osRgstry.obj
 0001:00005388       ??_C@_1CM@BOPAGKCC@?$AAP?$AAo?$AAr?$AAt?$AAC?$AAl?$AAa?$AAs?$AAs?$AAi?$AAf?$AAi?$AAe?$AAr?$AA1?$AA1?$AA_?$AAP?$AAo?$AAr?$AAt?$AA?$AA@ 10006388     oscommon:osRgstry.obj
 0001:000053b4       ??_C@_1CM@IDPPILFE@?$AAP?$AAo?$AAr?$AAt?$AAC?$AAl?$AAa?$AAs?$AAs?$AAi?$AAf?$AAi?$AAe?$AAr?$AA1?$AA0?$AA_?$AAP?$AAo?$AAr?$AAt?$AA?$AA@ 100063b4     oscommon:osRgstry.obj
 0001:000053e0       ??_C@_1CM@IDMBOFIF@?$AAP?$AAo?$AAr?$AAt?$AAC?$AAl?$AAa?$AAs?$AAs?$AAi?$AAf?$AAi?$AAe?$AAr?$AA0?$AA9?$AA_?$AAP?$AAo?$AAr?$AAt?$AA?$AA@ 100063e0     oscommon:osRgstry.obj
 0001:0000540c       ??_C@_1CM@BOMOAEPD@?$AAP?$AAo?$AAr?$AAt?$AAC?$AAl?$AAa?$AAs?$AAs?$AAi?$AAf?$AAi?$AAe?$AAr?$AA0?$AA8?$AA_?$AAP?$AAo?$AAr?$AAt?$AA?$AA@ 1000640c     oscommon:osRgstry.obj
 0001:00005438       ??_C@_1CM@EIFKLAAF@?$AAP?$AAo?$AAr?$AAt?$AAC?$AAl?$AAa?$AAs?$AAs?$AAi?$AAf?$AAi?$AAe?$AAr?$AA0?$AA7?$AA_?$AAP?$AAo?$AAr?$AAt?$AA?$AA@ 10006438     oscommon:osRgstry.obj
 0001:00005464       ??_C@_1CM@NFFFFBHD@?$AAP?$AAo?$AAr?$AAt?$AAC?$AAl?$AAa?$AAs?$AAs?$AAi?$AAf?$AAi?$AAe?$AAr?$AA0?$AA6?$AA_?$AAP?$AAo?$AAr?$AAt?$AA?$AA@ 10006464     oscommon:osRgstry.obj
 0001:00005490       ??_C@_1CM@KJDEHEKI@?$AAP?$AAo?$AAr?$AAt?$AAC?$AAl?$AAa?$AAs?$AAs?$AAi?$AAf?$AAi?$AAe?$AAr?$AA0?$AA5?$AA_?$AAP?$AAo?$AAr?$AAt?$AA?$AA@ 10006490     oscommon:osRgstry.obj
 0001:000054bc       ??_C@_1CM@DEDLJFNO@?$AAP?$AAo?$AAr?$AAt?$AAC?$AAl?$AAa?$AAs?$AAs?$AAi?$AAf?$AAi?$AAe?$AAr?$AA0?$AA4?$AA_?$AAP?$AAo?$AAr?$AAt?$AA?$AA@ 100064bc     oscommon:osRgstry.obj
 0001:000054e8       ??_C@_1CM@FBPGDPBO@?$AAP?$AAo?$AAr?$AAt?$AAC?$AAl?$AAa?$AAs?$AAs?$AAi?$AAf?$AAi?$AAe?$AAr?$AA0?$AA3?$AA_?$AAP?$AAo?$AAr?$AAt?$AA?$AA@ 100064e8     oscommon:osRgstry.obj
 0001:00005514       ??_C@_1CM@MMPJNOGI@?$AAP?$AAo?$AAr?$AAt?$AAC?$AAl?$AAa?$AAs?$AAs?$AAi?$AAf?$AAi?$AAe?$AAr?$AA0?$AA2?$AA_?$AAP?$AAo?$AAr?$AAt?$AA?$AA@ 10006514     oscommon:osRgstry.obj
 0001:00005540       ??_C@_1CM@LAJIPLLD@?$AAP?$AAo?$AAr?$AAt?$AAC?$AAl?$AAa?$AAs?$AAs?$AAi?$AAf?$AAi?$AAe?$AAr?$AA0?$AA1?$AA_?$AAP?$AAo?$AAr?$AAt?$AA?$AA@ 10006540     oscommon:osRgstry.obj
 0001:0000556c       ??_C@_1CM@CNJHBKMF@?$AAP?$AAo?$AAr?$AAt?$AAC?$AAl?$AAa?$AAs?$AAs?$AAi?$AAf?$AAi?$AAe?$AAr?$AA0?$AA0?$AA_?$AAP?$AAo?$AAr?$AAt?$AA?$AA@ 1000656c     oscommon:osRgstry.obj
 0001:00005598       ??_C@_1CM@GOMHFAF@?$AAD?$AAS?$AAC?$AAP?$AAC?$AAl?$AAa?$AAs?$AAs?$AAi?$AAf?$AAi?$AAe?$AAr?$AA1?$AA5?$AA_?$AAD?$AAT?$AAa?$AAg?$AA?$AA@ 10006598     oscommon:osRgstry.obj
 0001:000055c4       ??_C@_1CM@JLODJEHD@?$AAD?$AAS?$AAC?$AAP?$AAC?$AAl?$AAa?$AAs?$AAs?$AAi?$AAf?$AAi?$AAe?$AAr?$AA1?$AA4?$AA_?$AAD?$AAT?$AAa?$AAg?$AA?$AA@ 100065c4     oscommon:osRgstry.obj
 0001:000055f0       ??_C@_1CM@POCODOLD@?$AAD?$AAS?$AAC?$AAP?$AAC?$AAl?$AAa?$AAs?$AAs?$AAi?$AAf?$AAi?$AAe?$AAr?$AA1?$AA3?$AA_?$AAD?$AAT?$AAa?$AAg?$AA?$AA@ 100065f0     oscommon:osRgstry.obj
 0001:0000561c       ??_C@_1CM@GDCBNPMF@?$AAD?$AAS?$AAC?$AAP?$AAC?$AAl?$AAa?$AAs?$AAs?$AAi?$AAf?$AAi?$AAe?$AAr?$AA1?$AA2?$AA_?$AAD?$AAT?$AAa?$AAg?$AA?$AA@ 1000661c     oscommon:osRgstry.obj
 0001:00005648       ??_C@_1CM@BPEAPKBO@?$AAD?$AAS?$AAC?$AAP?$AAC?$AAl?$AAa?$AAs?$AAs?$AAi?$AAf?$AAi?$AAe?$AAr?$AA1?$AA1?$AA_?$AAD?$AAT?$AAa?$AAg?$AA?$AA@ 10006648     oscommon:osRgstry.obj
 0001:00005674       ??_C@_1CM@ICEPBLGI@?$AAD?$AAS?$AAC?$AAP?$AAC?$AAl?$AAa?$AAs?$AAs?$AAi?$AAf?$AAi?$AAe?$AAr?$AA1?$AA0?$AA_?$AAD?$AAT?$AAa?$AAg?$AA?$AA@ 10006674     oscommon:osRgstry.obj
 0001:000056a0       ??_C@_1CM@ICHBHFLJ@?$AAD?$AAS?$AAC?$AAP?$AAC?$AAl?$AAa?$AAs?$AAs?$AAi?$AAf?$AAi?$AAe?$AAr?$AA0?$AA9?$AA_?$AAD?$AAT?$AAa?$AAg?$AA?$AA@ 100066a0     oscommon:osRgstry.obj
 0001:000056cc       ??_C@_1CM@BPHOJEMP@?$AAD?$AAS?$AAC?$AAP?$AAC?$AAl?$AAa?$AAs?$AAs?$AAi?$AAf?$AAi?$AAe?$AAr?$AA0?$AA8?$AA_?$AAD?$AAT?$AAa?$AAg?$AA?$AA@ 100066cc     oscommon:osRgstry.obj
 0001:000056f8       ??_C@_1CM@EJOKCADJ@?$AAD?$AAS?$AAC?$AAP?$AAC?$AAl?$AAa?$AAs?$AAs?$AAi?$AAf?$AAi?$AAe?$AAr?$AA0?$AA7?$AA_?$AAD?$AAT?$AAa?$AAg?$AA?$AA@ 100066f8     oscommon:osRgstry.obj
 0001:00005724       ??_C@_1CM@NEOFMBEP@?$AAD?$AAS?$AAC?$AAP?$AAC?$AAl?$AAa?$AAs?$AAs?$AAi?$AAf?$AAi?$AAe?$AAr?$AA0?$AA6?$AA_?$AAD?$AAT?$AAa?$AAg?$AA?$AA@ 10006724     oscommon:osRgstry.obj
 0001:00005750       ??_C@_1CM@KIIEOEJE@?$AAD?$AAS?$AAC?$AAP?$AAC?$AAl?$AAa?$AAs?$AAs?$AAi?$AAf?$AAi?$AAe?$AAr?$AA0?$AA5?$AA_?$AAD?$AAT?$AAa?$AAg?$AA?$AA@ 10006750     oscommon:osRgstry.obj
 0001:0000577c       ??_C@_1CM@DFILAFOC@?$AAD?$AAS?$AAC?$AAP?$AAC?$AAl?$AAa?$AAs?$AAs?$AAi?$AAf?$AAi?$AAe?$AAr?$AA0?$AA4?$AA_?$AAD?$AAT?$AAa?$AAg?$AA?$AA@ 1000677c     oscommon:osRgstry.obj
 0001:000057a8       ??_C@_1CM@FAEGKPCC@?$AAD?$AAS?$AAC?$AAP?$AAC?$AAl?$AAa?$AAs?$AAs?$AAi?$AAf?$AAi?$AAe?$AAr?$AA0?$AA3?$AA_?$AAD?$AAT?$AAa?$AAg?$AA?$AA@ 100067a8     oscommon:osRgstry.obj
 0001:000057d4       ??_C@_1CM@MNEJEOFE@?$AAD?$AAS?$AAC?$AAP?$AAC?$AAl?$AAa?$AAs?$AAs?$AAi?$AAf?$AAi?$AAe?$AAr?$AA0?$AA2?$AA_?$AAD?$AAT?$AAa?$AAg?$AA?$AA@ 100067d4     oscommon:osRgstry.obj
 0001:00005800       ??_C@_1CM@LBCIGLIP@?$AAD?$AAS?$AAC?$AAP?$AAC?$AAl?$AAa?$AAs?$AAs?$AAi?$AAf?$AAi?$AAe?$AAr?$AA0?$AA1?$AA_?$AAD?$AAT?$AAa?$AAg?$AA?$AA@ 10006800     oscommon:osRgstry.obj
 0001:0000582c       ??_C@_1CM@CMCHIKPJ@?$AAD?$AAS?$AAC?$AAP?$AAC?$AAl?$AAa?$AAs?$AAs?$AAi?$AAf?$AAi?$AAe?$AAr?$AA0?$AA0?$AA_?$AAD?$AAT?$AAa?$AAg?$AA?$AA@ 1000682c     oscommon:osRgstry.obj
 0001:00005858       ??_C@_1DG@BKGDIHCE@?$AAD?$AAS?$AAC?$AAP?$AAC?$AAl?$AAa?$AAs?$AAs?$AAi?$AAf?$AAi?$AAe?$AAr?$AA1?$AA5?$AA_?$AAC?$AAo?$AAd?$AAe?$AAP?$AAo?$AAi?$AAn?$AAt?$AA?$AA@ 10006858     oscommon:osRgstry.obj
 0001:00005890       ??_C@_1DG@JLEGOCAD@?$AAD?$AAS?$AAC?$AAP?$AAC?$AAl?$AAa?$AAs?$AAs?$AAi?$AAf?$AAi?$AAe?$AAr?$AA1?$AA4?$AA_?$AAC?$AAo?$AAd?$AAe?$AAP?$AAo?$AAi?$AAn?$AAt?$AA?$AA@ 10006890     oscommon:osRgstry.obj
 0001:000058c8       ??_C@_1DG@KKFONFHE@?$AAD?$AAS?$AAC?$AAP?$AAC?$AAl?$AAa?$AAs?$AAs?$AAi?$AAf?$AAi?$AAe?$AAr?$AA1?$AA3?$AA_?$AAC?$AAo?$AAd?$AAe?$AAP?$AAo?$AAi?$AAn?$AAt?$AA?$AA@ 100068c8     oscommon:osRgstry.obj
 0001:00005900       ??_C@_1DG@CLHLLAFD@?$AAD?$AAS?$AAC?$AAP?$AAC?$AAl?$AAa?$AAs?$AAs?$AAi?$AAf?$AAi?$AAe?$AAr?$AA1?$AA2?$AA_?$AAC?$AAo?$AAd?$AAe?$AAP?$AAo?$AAi?$AAn?$AAt?$AA?$AA@ 10006900     oscommon:osRgstry.obj
 0001:00005938       ??_C@_1DG@HDGFBJHL@?$AAD?$AAS?$AAC?$AAP?$AAC?$AAl?$AAa?$AAs?$AAs?$AAi?$AAf?$AAi?$AAe?$AAr?$AA1?$AA1?$AA_?$AAC?$AAo?$AAd?$AAe?$AAP?$AAo?$AAi?$AAn?$AAt?$AA?$AA@ 10006938     oscommon:osRgstry.obj
 0001:00005970       ??_C@_1DG@PCEAHMFM@?$AAD?$AAS?$AAC?$AAP?$AAC?$AAl?$AAa?$AAs?$AAs?$AAi?$AAf?$AAi?$AAe?$AAr?$AA1?$AA0?$AA_?$AAC?$AAo?$AAd?$AAe?$AAP?$AAo?$AAi?$AAn?$AAt?$AA?$AA@ 10006970     oscommon:osRgstry.obj
 0001:000059a8       ??_C@_1DG@EGHFIDFC@?$AAD?$AAS?$AAC?$AAP?$AAC?$AAl?$AAa?$AAs?$AAs?$AAi?$AAf?$AAi?$AAe?$AAr?$AA0?$AA9?$AA_?$AAC?$AAo?$AAd?$AAe?$AAP?$AAo?$AAi?$AAn?$AAt?$AA?$AA@ 100069a8     oscommon:osRgstry.obj
 0001:000059e0       ??_C@_1DG@MHFAOGHF@?$AAD?$AAS?$AAC?$AAP?$AAC?$AAl?$AAa?$AAs?$AAs?$AAi?$AAf?$AAi?$AAe?$AAr?$AA0?$AA8?$AA_?$AAC?$AAo?$AAd?$AAe?$AAP?$AAo?$AAi?$AAn?$AAt?$AA?$AA@ 100069e0     oscommon:osRgstry.obj
 0001:00005a18       ??_C@_1DG@CEEFONLM@?$AAD?$AAS?$AAC?$AAP?$AAC?$AAl?$AAa?$AAs?$AAs?$AAi?$AAf?$AAi?$AAe?$AAr?$AA0?$AA7?$AA_?$AAC?$AAo?$AAd?$AAe?$AAP?$AAo?$AAi?$AAn?$AAt?$AA?$AA@ 10006a18     oscommon:osRgstry.obj
 0001:00005a50       ??_C@_1DG@KFGAIIJL@?$AAD?$AAS?$AAC?$AAP?$AAC?$AAl?$AAa?$AAs?$AAs?$AAi?$AAf?$AAi?$AAe?$AAr?$AA0?$AA6?$AA_?$AAC?$AAo?$AAd?$AAe?$AAP?$AAo?$AAi?$AAn?$AAt?$AA?$AA@ 10006a50     oscommon:osRgstry.obj
 0001:00005a88       ??_C@_1DG@PNHOCBLD@?$AAD?$AAS?$AAC?$AAP?$AAC?$AAl?$AAa?$AAs?$AAs?$AAi?$AAf?$AAi?$AAe?$AAr?$AA0?$AA5?$AA_?$AAC?$AAo?$AAd?$AAe?$AAP?$AAo?$AAi?$AAn?$AAt?$AA?$AA@ 10006a88     oscommon:osRgstry.obj
 0001:00005ac0       ??_C@_1DG@HMFLEEJE@?$AAD?$AAS?$AAC?$AAP?$AAC?$AAl?$AAa?$AAs?$AAs?$AAi?$AAf?$AAi?$AAe?$AAr?$AA0?$AA4?$AA_?$AAC?$AAo?$AAd?$AAe?$AAP?$AAo?$AAi?$AAn?$AAt?$AA?$AA@ 10006ac0     oscommon:osRgstry.obj
 0001:00005af8       ??_C@_1DG@ENEDHDOD@?$AAD?$AAS?$AAC?$AAP?$AAC?$AAl?$AAa?$AAs?$AAs?$AAi?$AAf?$AAi?$AAe?$AAr?$AA0?$AA3?$AA_?$AAC?$AAo?$AAd?$AAe?$AAP?$AAo?$AAi?$AAn?$AAt?$AA?$AA@ 10006af8     oscommon:osRgstry.obj
 0001:00005b30       ??_C@_1DG@MMGGBGME@?$AAD?$AAS?$AAC?$AAP?$AAC?$AAl?$AAa?$AAs?$AAs?$AAi?$AAf?$AAi?$AAe?$AAr?$AA0?$AA2?$AA_?$AAC?$AAo?$AAd?$AAe?$AAP?$AAo?$AAi?$AAn?$AAt?$AA?$AA@ 10006b30     oscommon:osRgstry.obj
 0001:00005b68       ??_C@_1DG@JEHILPOM@?$AAD?$AAS?$AAC?$AAP?$AAC?$AAl?$AAa?$AAs?$AAs?$AAi?$AAf?$AAi?$AAe?$AAr?$AA0?$AA1?$AA_?$AAC?$AAo?$AAd?$AAe?$AAP?$AAo?$AAi?$AAn?$AAt?$AA?$AA@ 10006b68     oscommon:osRgstry.obj
 0001:00005ba0       ??_C@_1DG@BFFNNKML@?$AAD?$AAS?$AAC?$AAP?$AAC?$AAl?$AAa?$AAs?$AAs?$AAi?$AAf?$AAi?$AAe?$AAr?$AA0?$AA0?$AA_?$AAC?$AAo?$AAd?$AAe?$AAP?$AAo?$AAi?$AAn?$AAt?$AA?$AA@ 10006ba0     oscommon:osRgstry.obj
 0001:00005bd8       ??_C@_1DE@FCLHFNMJ@?$AAN?$AAu?$AAm?$AAO?$AAf?$AAD?$AAs?$AAt?$AAI?$AAP?$AAP?$AAo?$AAr?$AAt?$AAC?$AAl?$AAa?$AAs?$AAs?$AAi?$AAf?$AAi?$AAe?$AAr?$AAs?$AA?$AA@ 10006bd8     oscommon:osRgstry.obj
 0001:00005c0c       ??_C@_1DA@IAKJKEE@?$AAN?$AAu?$AAm?$AAO?$AAf?$AAD?$AAs?$AAt?$AAP?$AAo?$AAr?$AAt?$AAC?$AAl?$AAa?$AAs?$AAs?$AAi?$AAf?$AAi?$AAe?$AAr?$AAs?$AA?$AA@ 10006c0c     oscommon:osRgstry.obj
 0001:00005c3c       ??_C@_1CA@HOGGCJLD@?$AAN?$AAu?$AAm?$AAO?$AAf?$AAC?$AAo?$AAd?$AAe?$AAP?$AAo?$AAi?$AAn?$AAt?$AAs?$AA?$AA@ 10006c3c     oscommon:osRgstry.obj
 0001:00005c5c       ??_C@_1BG@FADILEML@?$AAC?$AAl?$AAs?$AAf?$AAr?$AA_?$AAT?$AAy?$AAp?$AAe?$AA?$AA@ 10006c5c     oscommon:osRgstry.obj
 0001:00005c74       ??_C@_1BC@GCGDANPP@?$AAM?$AAa?$AAx?$AAA?$AAM?$AAP?$AAD?$AAU?$AA?$AA@ 10006c74     oscommon:osRgstry.obj
 0001:00005c88       ??_C@_1CC@FFGNBIFO@?$AAP?$AAe?$AAr?$AAf?$AAo?$AAr?$AAm?$AAa?$AAn?$AAc?$AAe?$AAB?$AAo?$AAo?$AAs?$AAt?$AA?$AA@ 10006c88     oscommon:osRgstry.obj
 0001:00005cac       ??_C@_1DC@KDHFHJBL@?$AAQ?$AAO?$AAS?$AA_?$AAP?$AAa?$AAc?$AAk?$AAe?$AAt?$AAB?$AAu?$AAr?$AAs?$AAt?$AAT?$AAx?$AAO?$AAp?$AAL?$AAi?$AAm?$AAi?$AAt?$AA?$AA@ 10006cac     oscommon:osRgstry.obj
 0001:00005ce0       ??_C@_1CM@IFOFNKJI@?$AAQ?$AAO?$AAS?$AA_?$AAP?$AAa?$AAc?$AAk?$AAe?$AAt?$AAB?$AAu?$AAr?$AAs?$AAt?$AAE?$AAn?$AAa?$AAb?$AAl?$AAe?$AA?$AA@ 10006ce0     oscommon:osRgstry.obj
 0001:00005d10       ??_C@_1EC@ILNJJEKO@?$AAT?$AAr?$AAa?$AAf?$AAf?$AAi?$AAc?$AAM?$AAo?$AAn?$AAi?$AAt?$AAo?$AAr?$AAM?$AAi?$AAn?$AAI?$AAn?$AAt?$AAe?$AAr?$AAv?$AAa?$AAl?$AAP?$AAe?$AAr?$AAc?$AAe?$AAn?$AAt@ 10006d10     oscommon:osRgstry.obj
 0001:00005d58       ??_C@_1EC@DCEEEGEO@?$AAT?$AAr?$AAa?$AAf?$AAf?$AAi?$AAc?$AAI?$AAn?$AAt?$AAe?$AAn?$AAs?$AAi?$AAt?$AAy?$AAT?$AAh?$AAr?$AAe?$AAs?$AAh?$AAo?$AAl?$AAd?$AAE?$AAn?$AAa?$AAb?$AAl?$AAe?$AAd@ 10006d58     oscommon:osRgstry.obj
 0001:00005d9c       ??_C@_1DK@MJGDAFGO@?$AAT?$AAr?$AAa?$AAf?$AAf?$AAi?$AAc?$AAI?$AAn?$AAt?$AAe?$AAn?$AAs?$AAi?$AAt?$AAy?$AAT?$AAe?$AAs?$AAt?$AAI?$AAn?$AAt?$AAe?$AAr?$AAv?$AAa?$AAl?$AA?$AA@ 10006d9c     oscommon:osRgstry.obj
 0001:00005dd8       ??_C@_1DC@JIBADLKK@?$AAT?$AAr?$AAa?$AAf?$AAf?$AAi?$AAc?$AAI?$AAn?$AAt?$AAe?$AAn?$AAs?$AAi?$AAt?$AAy?$AAT?$AAh?$AAr?$AAe?$AAs?$AAL?$AAo?$AAw?$AA?$AA@ 10006dd8     oscommon:osRgstry.obj
 0001:00005e0c       ??_C@_1DE@NHCDFBNN@?$AAT?$AAr?$AAa?$AAf?$AAf?$AAi?$AAc?$AAI?$AAn?$AAt?$AAe?$AAn?$AAs?$AAi?$AAt?$AAy?$AAT?$AAh?$AAr?$AAe?$AAs?$AAH?$AAi?$AAg?$AAh?$AA?$AA@ 10006e0c     oscommon:osRgstry.obj
 0001:00005e40       ??_C@_1BK@JDCLPMHI@?$AAR?$AAx?$AAM?$AAe?$AAm?$AAB?$AAl?$AAk?$AAs?$AAN?$AAu?$AAm?$AA?$AA@ 10006e40     oscommon:osRgstry.obj
 0001:00005e5c       ??_C@_1CM@FACGIBM@?$AAQ?$AAO?$AAS?$AA_?$AAt?$AAx?$AAB?$AAl?$AAk?$AAs?$AAT?$AAh?$AAr?$AAe?$AAs?$AAh?$AAo?$AAl?$AAd?$AAV?$AAO?$AA?$AA@ 10006e5c     oscommon:osRgstry.obj
 0001:00005e88       ??_C@_1CM@CAGJDHMA@?$AAQ?$AAO?$AAS?$AA_?$AAt?$AAx?$AAB?$AAl?$AAk?$AAs?$AAT?$AAh?$AAr?$AAe?$AAs?$AAh?$AAo?$AAl?$AAd?$AAV?$AAI?$AA?$AA@ 10006e88     oscommon:osRgstry.obj
 0001:00005eb4       ??_C@_1CM@BCCHLPMG@?$AAQ?$AAO?$AAS?$AA_?$AAt?$AAx?$AAB?$AAl?$AAk?$AAs?$AAT?$AAh?$AAr?$AAe?$AAs?$AAh?$AAo?$AAl?$AAd?$AAB?$AAK?$AA?$AA@ 10006eb4     oscommon:osRgstry.obj
 0001:00005ee0       ??_C@_1CM@PCPIMIPF@?$AAQ?$AAO?$AAS?$AA_?$AAt?$AAx?$AAB?$AAl?$AAk?$AAs?$AAT?$AAh?$AAr?$AAe?$AAs?$AAh?$AAo?$AAl?$AAd?$AAB?$AAE?$AA?$AA@ 10006ee0     oscommon:osRgstry.obj
 0001:00005f0c       ??_C@_1CA@ONBAKACO@?$AAP?$AAs?$AAT?$AAr?$AAa?$AAf?$AAf?$AAi?$AAc?$AAP?$AAe?$AAr?$AAi?$AAo?$AAd?$AA?$AA@ 10006f0c     oscommon:osRgstry.obj
 0001:00005f2c       ??_C@_1DC@JLNGBNKH@?$AAB?$AAa?$AAI?$AAn?$AAa?$AAc?$AAt?$AAi?$AAv?$AAi?$AAt?$AAy?$AAT?$AAi?$AAm?$AAe?$AAo?$AAu?$AAt?$AAT?$AAi?$AAd?$AA_?$AA7?$AA?$AA@ 10006f2c     oscommon:osRgstry.obj
 0001:00005f60       ??_C@_1DC@CDGKHKMC@?$AAB?$AAa?$AAI?$AAn?$AAa?$AAc?$AAt?$AAi?$AAv?$AAi?$AAt?$AAy?$AAT?$AAi?$AAm?$AAe?$AAo?$AAu?$AAt?$AAT?$AAi?$AAd?$AA_?$AA6?$AA?$AA@ 10006f60     oscommon:osRgstry.obj
 0001:00005f94       ??_C@_1DC@DBNPNFCM@?$AAB?$AAa?$AAI?$AAn?$AAa?$AAc?$AAt?$AAi?$AAv?$AAi?$AAt?$AAy?$AAT?$AAi?$AAm?$AAe?$AAo?$AAu?$AAt?$AAT?$AAi?$AAd?$AA_?$AA5?$AA?$AA@ 10006f94     oscommon:osRgstry.obj
 0001:00005fc8       ??_C@_1DC@IJGDLCEJ@?$AAB?$AAa?$AAI?$AAn?$AAa?$AAc?$AAt?$AAi?$AAv?$AAi?$AAt?$AAy?$AAT?$AAi?$AAm?$AAe?$AAo?$AAu?$AAt?$AAT?$AAi?$AAd?$AA_?$AA4?$AA?$AA@ 10006fc8     oscommon:osRgstry.obj
 0001:00005ffc       ??_C@_1DC@BELEIKPA@?$AAB?$AAa?$AAI?$AAn?$AAa?$AAc?$AAt?$AAi?$AAv?$AAi?$AAt?$AAy?$AAT?$AAi?$AAm?$AAe?$AAo?$AAu?$AAt?$AAT?$AAi?$AAd?$AA_?$AA3?$AA?$AA@ 10006ffc     oscommon:osRgstry.obj
 0001:00006030       ??_C@_1DC@KMAIONJF@?$AAB?$AAa?$AAI?$AAn?$AAa?$AAc?$AAt?$AAi?$AAv?$AAi?$AAt?$AAy?$AAT?$AAi?$AAm?$AAe?$AAo?$AAu?$AAt?$AAT?$AAi?$AAd?$AA_?$AA2?$AA?$AA@ 10007030     oscommon:osRgstry.obj
 0001:00006064       ??_C@_1DC@LOLNECHL@?$AAB?$AAa?$AAI?$AAn?$AAa?$AAc?$AAt?$AAi?$AAv?$AAi?$AAt?$AAy?$AAT?$AAi?$AAm?$AAe?$AAo?$AAu?$AAt?$AAT?$AAi?$AAd?$AA_?$AA1?$AA?$AA@ 10007064     oscommon:osRgstry.obj
 0001:00006098       ??_C@_1DC@GABCFBO@?$AAB?$AAa?$AAI?$AAn?$AAa?$AAc?$AAt?$AAi?$AAv?$AAi?$AAt?$AAy?$AAT?$AAi?$AAm?$AAe?$AAo?$AAu?$AAt?$AAT?$AAi?$AAd?$AA_?$AA0?$AA?$AA@ 10007098     oscommon:osRgstry.obj
 0001:000060cc       ??_C@_1BM@BLDFJKCM@?$AAB?$AAa?$AAP?$AAo?$AAl?$AAi?$AAc?$AAy?$AAT?$AAi?$AAd?$AA_?$AA7?$AA?$AA@ 100070cc     oscommon:osRgstry.obj
 0001:000060e8       ??_C@_1BM@KDIJPNEJ@?$AAB?$AAa?$AAP?$AAo?$AAl?$AAi?$AAc?$AAy?$AAT?$AAi?$AAd?$AA_?$AA6?$AA?$AA@ 100070e8     oscommon:osRgstry.obj
 0001:00006104       ??_C@_1BM@LBDMFCKH@?$AAB?$AAa?$AAP?$AAo?$AAl?$AAi?$AAc?$AAy?$AAT?$AAi?$AAd?$AA_?$AA5?$AA?$AA@ 10007104     oscommon:osRgstry.obj
 0001:00006120       ??_C@_1BM@JIADFMC@?$AAB?$AAa?$AAP?$AAo?$AAl?$AAi?$AAc?$AAy?$AAT?$AAi?$AAd?$AA_?$AA4?$AA?$AA@ 10007120     oscommon:osRgstry.obj
 0001:0000613c       ??_C@_1BM@JEFHANHL@?$AAB?$AAa?$AAP?$AAo?$AAl?$AAi?$AAc?$AAy?$AAT?$AAi?$AAd?$AA_?$AA3?$AA?$AA@ 1000713c     oscommon:osRgstry.obj
 0001:00006158       ??_C@_1BM@CMOLGKBO@?$AAB?$AAa?$AAP?$AAo?$AAl?$AAi?$AAc?$AAy?$AAT?$AAi?$AAd?$AA_?$AA2?$AA?$AA@ 10007158     oscommon:osRgstry.obj
 0001:00006174       ??_C@_1BM@DOFOMFPA@?$AAB?$AAa?$AAP?$AAo?$AAl?$AAi?$AAc?$AAy?$AAT?$AAi?$AAd?$AA_?$AA1?$AA?$AA@ 10007174     oscommon:osRgstry.obj
 0001:00006190       ??_C@_1BM@IGOCKCJF@?$AAB?$AAa?$AAP?$AAo?$AAl?$AAi?$AAc?$AAy?$AAT?$AAi?$AAd?$AA_?$AA0?$AA?$AA@ 10007190     oscommon:osRgstry.obj
 0001:000061ac       ??_C@_1BE@FKGAGAOE@?$AAH?$AAT?$AA_?$AAE?$AAn?$AAa?$AAb?$AAl?$AAe?$AA?$AA@ 100071ac     oscommon:osRgstry.obj
 0001:000061c0       ??_C@_1DC@LMLOCOJF@?$AAQ?$AAO?$AAS?$AA_?$AAq?$AAu?$AAe?$AAu?$AAe?$AA3?$AAO?$AAv?$AAe?$AAr?$AAF?$AAl?$AAo?$AAw?$AAP?$AAo?$AAl?$AAi?$AAc?$AAy?$AA?$AA@ 100071c0     oscommon:osRgstry.obj
 0001:000061f4       ??_C@_1DC@ENGECLDP@?$AAQ?$AAO?$AAS?$AA_?$AAq?$AAu?$AAe?$AAu?$AAe?$AA2?$AAO?$AAv?$AAe?$AAr?$AAF?$AAl?$AAo?$AAw?$AAP?$AAo?$AAl?$AAi?$AAc?$AAy?$AA?$AA@ 100071f4     oscommon:osRgstry.obj
 0001:00006228       ??_C@_1DC@IEHLCDIA@?$AAQ?$AAO?$AAS?$AA_?$AAq?$AAu?$AAe?$AAu?$AAe?$AA1?$AAO?$AAv?$AAe?$AAr?$AAF?$AAl?$AAo?$AAw?$AAP?$AAo?$AAl?$AAi?$AAc?$AAy?$AA?$AA@ 10007228     oscommon:osRgstry.obj
 0001:0000625c       ??_C@_1DC@HFKBCGCK@?$AAQ?$AAO?$AAS?$AA_?$AAq?$AAu?$AAe?$AAu?$AAe?$AA0?$AAO?$AAv?$AAe?$AAr?$AAF?$AAl?$AAo?$AAw?$AAP?$AAo?$AAl?$AAi?$AAc?$AAy?$AA?$AA@ 1000725c     oscommon:osRgstry.obj
 0001:00006290       ??_C@_1CA@BMAFDABB@?$AAQ?$AAO?$AAS?$AA_?$AAA?$AAc?$AAk?$AAP?$AAo?$AAl?$AAi?$AAc?$AAy?$AAV?$AAO?$AA?$AA@ 10007290     oscommon:osRgstry.obj
 0001:000062b0       ??_C@_1CA@DJGOGPMN@?$AAQ?$AAO?$AAS?$AA_?$AAA?$AAc?$AAk?$AAP?$AAo?$AAl?$AAi?$AAc?$AAy?$AAV?$AAI?$AA?$AA@ 100072b0     oscommon:osRgstry.obj
 0001:000062d0       ??_C@_1CA@LCAOHML@?$AAQ?$AAO?$AAS?$AA_?$AAA?$AAc?$AAk?$AAP?$AAo?$AAl?$AAi?$AAc?$AAy?$AAB?$AAK?$AA?$AA@ 100072d0     oscommon:osRgstry.obj
 0001:000062f0       ??_C@_1CA@OLPPJAPI@?$AAQ?$AAO?$AAS?$AA_?$AAA?$AAc?$AAk?$AAP?$AAo?$AAl?$AAi?$AAc?$AAy?$AAB?$AAE?$AA?$AA@ 100072f0     oscommon:osRgstry.obj
 0001:00006310       ??_C@_1CK@IMKLOFJM@?$AAQ?$AAO?$AAS?$AA_?$AAL?$AAo?$AAn?$AAg?$AAR?$AAe?$AAt?$AAr?$AAy?$AAL?$AAi?$AAm?$AAi?$AAt?$AAV?$AAO?$AA?$AA@ 10007310     oscommon:osRgstry.obj
 0001:0000633c       ??_C@_1CK@KJMALKEA@?$AAQ?$AAO?$AAS?$AA_?$AAL?$AAo?$AAn?$AAg?$AAR?$AAe?$AAt?$AAr?$AAy?$AAL?$AAi?$AAm?$AAi?$AAt?$AAV?$AAI?$AA?$AA@ 1000733c     oscommon:osRgstry.obj
 0001:00006368       ??_C@_1CK@JLIODCEG@?$AAQ?$AAO?$AAS?$AA_?$AAL?$AAo?$AAn?$AAg?$AAR?$AAe?$AAt?$AAr?$AAy?$AAL?$AAi?$AAm?$AAi?$AAt?$AAB?$AAK?$AA?$AA@ 10007368     oscommon:osRgstry.obj
 0001:00006394       ??_C@_1CK@HLFBEFHF@?$AAQ?$AAO?$AAS?$AA_?$AAL?$AAo?$AAn?$AAg?$AAR?$AAe?$AAt?$AAr?$AAy?$AAL?$AAi?$AAm?$AAi?$AAt?$AAB?$AAE?$AA?$AA@ 10007394     oscommon:osRgstry.obj
 0001:000063c0       ??_C@_1CM@GNGLELDL@?$AAQ?$AAO?$AAS?$AA_?$AAS?$AAh?$AAo?$AAr?$AAt?$AAR?$AAe?$AAt?$AAr?$AAy?$AAL?$AAi?$AAm?$AAi?$AAt?$AAV?$AAO?$AA?$AA@ 100073c0     oscommon:osRgstry.obj
 0001:000063ec       ??_C@_1CM@EIAABEOH@?$AAQ?$AAO?$AAS?$AA_?$AAS?$AAh?$AAo?$AAr?$AAt?$AAR?$AAe?$AAt?$AAr?$AAy?$AAL?$AAi?$AAm?$AAi?$AAt?$AAV?$AAI?$AA?$AA@ 100073ec     oscommon:osRgstry.obj
 0001:00006418       ??_C@_1CM@HKEOJMOB@?$AAQ?$AAO?$AAS?$AA_?$AAS?$AAh?$AAo?$AAr?$AAt?$AAR?$AAe?$AAt?$AAr?$AAy?$AAL?$AAi?$AAm?$AAi?$AAt?$AAB?$AAK?$AA?$AA@ 10007418     oscommon:osRgstry.obj
 0001:00006444       ??_C@_1CM@JKJBOLNC@?$AAQ?$AAO?$AAS?$AA_?$AAS?$AAh?$AAo?$AAr?$AAt?$AAR?$AAe?$AAt?$AAr?$AAy?$AAL?$AAi?$AAm?$AAi?$AAt?$AAB?$AAE?$AA?$AA@ 10007444     oscommon:osRgstry.obj
 0001:00006470       ??_C@_1CA@MIFEDKOE@?$AAQ?$AAO?$AAS?$AA_?$AAw?$AAm?$AAe?$AAP?$AAs?$AAM?$AAo?$AAd?$AAe?$AAV?$AAO?$AA?$AA@ 10007470     oscommon:osRgstry.obj
 0001:00006490       ??_C@_1CA@ONDPGFDI@?$AAQ?$AAO?$AAS?$AA_?$AAw?$AAm?$AAe?$AAP?$AAs?$AAM?$AAo?$AAd?$AAe?$AAV?$AAI?$AA?$AA@ 10007490     oscommon:osRgstry.obj
 0001:000064b0       ??_C@_1CA@NPHBONDO@?$AAQ?$AAO?$AAS?$AA_?$AAw?$AAm?$AAe?$AAP?$AAs?$AAM?$AAo?$AAd?$AAe?$AAB?$AAK?$AA?$AA@ 100074b0     oscommon:osRgstry.obj
 0001:000064d0       ??_C@_1CA@DPKOJKAN@?$AAQ?$AAO?$AAS?$AA_?$AAw?$AAm?$AAe?$AAP?$AAs?$AAM?$AAo?$AAd?$AAe?$AAB?$AAE?$AA?$AA@ 100074d0     oscommon:osRgstry.obj
 0001:000064f0       ??_C@_1CE@NLECNPMB@?$AAQ?$AAO?$AAS?$AA_?$AAr?$AAx?$AAT?$AAi?$AAm?$AAe?$AAo?$AAu?$AAt?$AAU?$AAP?$AAS?$AAD?$AA?$AA@ 100074f0     oscommon:osRgstry.obj
 0001:00006514       ??_C@_1CI@DBILPIEJ@?$AAQ?$AAO?$AAS?$AA_?$AAr?$AAx?$AAT?$AAi?$AAm?$AAe?$AAo?$AAu?$AAt?$AAP?$AAs?$AAP?$AAo?$AAl?$AAl?$AA?$AA@ 10007514     oscommon:osRgstry.obj
 0001:0000653c       ??_C@_1CG@KIHPGKG@?$AAQ?$AAO?$AAS?$AA_?$AAm?$AAs?$AAd?$AAu?$AAL?$AAi?$AAf?$AAe?$AAT?$AAi?$AAm?$AAe?$AAV?$AAO?$AA?$AA@ 1000753c     oscommon:osRgstry.obj
 0001:00006564       ??_C@_1CG@CPOMKJHK@?$AAQ?$AAO?$AAS?$AA_?$AAm?$AAs?$AAd?$AAu?$AAL?$AAi?$AAf?$AAe?$AAT?$AAi?$AAm?$AAe?$AAV?$AAI?$AA?$AA@ 10007564     oscommon:osRgstry.obj
 0001:0000658c       ??_C@_1CG@BNKCCBHM@?$AAQ?$AAO?$AAS?$AA_?$AAm?$AAs?$AAd?$AAu?$AAL?$AAi?$AAf?$AAe?$AAT?$AAi?$AAm?$AAe?$AAB?$AAK?$AA?$AA@ 1000758c     oscommon:osRgstry.obj
 0001:000065b4       ??_C@_1CG@PNHNFGEP@?$AAQ?$AAO?$AAS?$AA_?$AAm?$AAs?$AAd?$AAu?$AAL?$AAi?$AAf?$AAe?$AAT?$AAi?$AAm?$AAe?$AAB?$AAE?$AA?$AA@ 100075b4     oscommon:osRgstry.obj
 0001:000065dc       ??_C@_1BM@NFFLPHKH@?$AAd?$AAe?$AAs?$AAi?$AAr?$AAe?$AAd?$AAP?$AAs?$AAM?$AAo?$AAd?$AAe?$AA?$AA@ 100075dc     oscommon:osRgstry.obj
 0001:000065f8       ??_C@_1CM@HKJHNJEI@?$AAT?$AAr?$AAa?$AAf?$AAf?$AAi?$AAc?$AAA?$AAd?$AAm?$AAC?$AAt?$AAr?$AAl?$AA_?$AAE?$AAn?$AAa?$AAb?$AAl?$AAe?$AA?$AA@ 100075f8     oscommon:osRgstry.obj
 0001:00006624       ??_C@_1BG@BBIHCHKJ@?$AAW?$AAM?$AAE?$AA_?$AAE?$AAn?$AAa?$AAb?$AAl?$AAe?$AA?$AA@ 10007624     oscommon:osRgstry.obj
 0001:0000663c       ??_C@_1CG@BILAILMD@?$AAT?$AAx?$AAP?$AAo?$AAw?$AAe?$AAr?$AAT?$AAe?$AAm?$AAp?$AAR?$AAe?$AAc?$AAo?$AAv?$AAe?$AAr?$AA?$AA@ 1000763c     oscommon:osRgstry.obj
 0001:00006664       ??_C@_1DC@INHDDKPK@?$AAT?$AAx?$AAP?$AAo?$AAw?$AAe?$AAr?$AAR?$AAs?$AAs?$AAi?$AAR?$AAe?$AAs?$AAt?$AAo?$AAr?$AAe?$AAT?$AAh?$AAr?$AAe?$AAs?$AAh?$AA?$AA@ 10007664     oscommon:osRgstry.obj
 0001:00006698       ??_C@_1CE@DLNJDCPJ@?$AAT?$AAx?$AAP?$AAo?$AAw?$AAe?$AAr?$AAR?$AAs?$AAs?$AAi?$AAT?$AAh?$AAr?$AAe?$AAs?$AAh?$AA?$AA@ 10007698     oscommon:osRgstry.obj
 0001:000066bc       ??_C@_1CC@PDDCJADK@?$AAT?$AAx?$AAP?$AAo?$AAw?$AAe?$AAr?$AAC?$AAo?$AAn?$AAt?$AAr?$AAo?$AAl?$AAO?$AAn?$AA?$AA@ 100076bc     oscommon:osRgstry.obj
 0001:000066e0       ??_C@_1CC@JPJPKELF@?$AAT?$AAx?$AAP?$AAo?$AAw?$AAe?$AAr?$AAC?$AAh?$AAe?$AAc?$AAk?$AAT?$AAi?$AAm?$AAe?$AA?$AA@ 100076e0     oscommon:osRgstry.obj
 0001:00006704       ??_C@_1DK@HJANMLDB@?$AAR?$AAe?$AAc?$AAo?$AAv?$AAe?$AAr?$AAy?$AAE?$AAn?$AAa?$AAb?$AAl?$AAe?$AAd?$AAR?$AAx?$AAX?$AAf?$AAe?$AAr?$AAF?$AAa?$AAi?$AAl?$AAu?$AAr?$AAe?$AA?$AA@ 10007704     oscommon:osRgstry.obj
 0001:00006740       ??_C@_1DE@KAPGEEJF@?$AAR?$AAe?$AAc?$AAo?$AAv?$AAe?$AAr?$AAy?$AAE?$AAn?$AAa?$AAb?$AAl?$AAe?$AAd?$AAH?$AAw?$AAW?$AAd?$AAE?$AAx?$AAp?$AAi?$AAr?$AAe?$AA?$AA@ 10007740     oscommon:osRgstry.obj
 0001:00006774       ??_C@_1DE@GOKJPPOD@?$AAR?$AAe?$AAc?$AAo?$AAv?$AAe?$AAr?$AAy?$AAE?$AAn?$AAa?$AAb?$AAl?$AAe?$AAd?$AAB?$AAu?$AAs?$AAF?$AAa?$AAi?$AAl?$AAu?$AAr?$AAe?$AA?$AA@ 10007774     oscommon:osRgstry.obj
 0001:000067a8       ??_C@_1EE@MFDCGMIG@?$AAR?$AAe?$AAc?$AAo?$AAv?$AAe?$AAr?$AAy?$AAE?$AAn?$AAa?$AAb?$AAl?$AAe?$AAd?$AAM?$AAe?$AAa?$AAs?$AAu?$AAr?$AAe?$AAm?$AAe?$AAn?$AAt?$AAF?$AAa?$AAi?$AAl?$AAu?$AAr@ 100077a8     oscommon:osRgstry.obj
 0001:000067f0       ??_C@_1EA@DEMDNHOH@?$AAR?$AAe?$AAc?$AAo?$AAv?$AAe?$AAr?$AAy?$AAE?$AAn?$AAa?$AAb?$AAl?$AAe?$AAd?$AAP?$AAo?$AAw?$AAe?$AAr?$AAS?$AAa?$AAv?$AAe?$AAF?$AAa?$AAi?$AAl?$AAu?$AAr?$AAe?$AA?$AA@ 100077f0     oscommon:osRgstry.obj
 0001:00006830       ??_C@_1EC@OJBOOGPJ@?$AAR?$AAe?$AAc?$AAo?$AAv?$AAe?$AAr?$AAy?$AAE?$AAn?$AAa?$AAb?$AAl?$AAe?$AAd?$AAD?$AAi?$AAs?$AAc?$AAo?$AAn?$AAn?$AAe?$AAc?$AAt?$AAT?$AAi?$AAm?$AAe?$AAo?$AAu?$AAt@ 10007830     oscommon:osRgstry.obj
 0001:00006874       ??_C@_1CO@LCGMFIBC@?$AAR?$AAe?$AAc?$AAo?$AAv?$AAe?$AAr?$AAy?$AAE?$AAn?$AAa?$AAb?$AAl?$AAe?$AAd?$AAT?$AAx?$AAS?$AAt?$AAu?$AAc?$AAk?$AA?$AA@ 10007874     oscommon:osRgstry.obj
 0001:000068a4       ??_C@_1DM@GEEMJMOC@?$AAR?$AAe?$AAc?$AAo?$AAv?$AAe?$AAr?$AAy?$AAE?$AAn?$AAa?$AAb?$AAl?$AAe?$AAd?$AAH?$AAw?$AAA?$AAw?$AAa?$AAk?$AAe?$AAF?$AAa?$AAi?$AAl?$AAu?$AAr?$AAe?$AA?$AA@ 100078a4     oscommon:osRgstry.obj
 0001:000068e0       ??_C@_1DG@KMDLECKL@?$AAR?$AAe?$AAc?$AAo?$AAv?$AAe?$AAr?$AAy?$AAE?$AAn?$AAa?$AAb?$AAl?$AAe?$AAd?$AAM?$AAb?$AAo?$AAx?$AAF?$AAa?$AAi?$AAl?$AAu?$AAr?$AAe?$AA?$AA@ 100078e0     oscommon:osRgstry.obj
 0001:00006918       ??_C@_1DM@PBNJCLOA@?$AAR?$AAe?$AAc?$AAo?$AAv?$AAe?$AAr?$AAy?$AAE?$AAn?$AAa?$AAb?$AAl?$AAe?$AAd?$AAN?$AAo?$AAS?$AAc?$AAa?$AAn?$AAC?$AAo?$AAm?$AAp?$AAl?$AAe?$AAt?$AAe?$AA?$AA@ 10007918     oscommon:osRgstry.obj
 0001:00006954       ??_C@_1BO@ODCNNKNI@?$AAR?$AAo?$AAa?$AAm?$AAS?$AAc?$AAa?$AAn?$AAE?$AAn?$AAa?$AAb?$AAl?$AAe?$AA?$AA@ 10007954     oscommon:osRgstry.obj
 0001:00006974       ??_C@_1CI@ICKDFCHD@?$AAS?$AAm?$AAe?$AAS?$AAc?$AAa?$AAn?$AAA?$AAC?$AAh?$AAa?$AAn?$AAn?$AAe?$AAl?$AAL?$AAi?$AAs?$AAt?$AA?$AA@ 10007974     oscommon:osRgstry.obj
 0001:0000699c       ??_C@_1CI@LNHNIPMC@?$AAS?$AAm?$AAe?$AAS?$AAc?$AAa?$AAn?$AAG?$AAC?$AAh?$AAa?$AAn?$AAn?$AAe?$AAl?$AAL?$AAi?$AAs?$AAt?$AA?$AA@ 1000799c     oscommon:osRgstry.obj
 0001:000069c4       ??_C@_1CI@KPEIFJLD@?$AAS?$AAm?$AAe?$AAS?$AAc?$AAa?$AAn?$AAI?$AAn?$AAt?$AAe?$AAr?$AAv?$AAa?$AAl?$AAL?$AAi?$AAs?$AAt?$AA?$AA@ 100079c4     oscommon:osRgstry.obj
 0001:000069ec       ??_C@_1DE@EAIOKLLC@?$AAS?$AAm?$AAe?$AAS?$AAc?$AAa?$AAn?$AAP?$AAr?$AAo?$AAb?$AAe?$AAR?$AAe?$AAq?$AAu?$AAe?$AAs?$AAt?$AAN?$AAu?$AAm?$AAb?$AAe?$AAr?$AA?$AA@ 100079ec     oscommon:osRgstry.obj
 0001:00006a20       ??_C@_1CM@JDLHDMAK@?$AAS?$AAm?$AAe?$AAS?$AAc?$AAa?$AAn?$AAM?$AAi?$AAn?$AAD?$AAw?$AAe?$AAl?$AAl?$AAT?$AAi?$AAm?$AAe?$AAM?$AAs?$AA?$AA@ 10007a20     oscommon:osRgstry.obj
 0001:00006a4c       ??_C@_1CM@LJEFCCL@?$AAS?$AAm?$AAe?$AAS?$AAc?$AAa?$AAn?$AAM?$AAa?$AAx?$AAD?$AAw?$AAe?$AAl?$AAl?$AAT?$AAi?$AAm?$AAe?$AAM?$AAs?$AA?$AA@ 10007a4c     oscommon:osRgstry.obj
 0001:00006a78       ??_C@_1CG@MFKCBOJO@?$AAS?$AAm?$AAe?$AAS?$AAc?$AAa?$AAn?$AAC?$AAy?$AAc?$AAl?$AAe?$AAN?$AAu?$AAm?$AAb?$AAe?$AAr?$AA?$AA@ 10007a78     oscommon:osRgstry.obj
 0001:00006aa0       ??_C@_1CI@FKCJLIK@?$AAS?$AAm?$AAe?$AAS?$AAc?$AAa?$AAn?$AAS?$AAn?$AAr?$AAT?$AAh?$AAr?$AAe?$AAs?$AAh?$AAo?$AAl?$AAd?$AA?$AA@ 10007aa0     oscommon:osRgstry.obj
 0001:00006ac8       ??_C@_1CK@BODLLBGI@?$AAS?$AAm?$AAe?$AAS?$AAc?$AAa?$AAn?$AAR?$AAs?$AAs?$AAi?$AAT?$AAh?$AAr?$AAe?$AAs?$AAh?$AAo?$AAl?$AAd?$AA?$AA@ 10007ac8     oscommon:osRgstry.obj
 0001:00006af4       ??_C@_1BO@EFJFGDEL@?$AAS?$AAm?$AAe?$AAC?$AAo?$AAn?$AAn?$AAe?$AAc?$AAt?$AAM?$AAo?$AAd?$AAe?$AA?$AA@ 10007af4     oscommon:osRgstry.obj
 0001:00006b14       ??_C@_1BA@GHPFMFKB@?$AAR?$AAa?$AAd?$AAi?$AAo?$AAO?$AAn?$AA?$AA@ 10007b14     oscommon:osRgstry.obj
 0001:00006b24       ??_C@_1CG@FOIKKHPD@?$AAD?$AAi?$AAs?$AAa?$AAb?$AAl?$AAe?$AAS?$AAs?$AAi?$AAd?$AAP?$AAe?$AAn?$AAd?$AAi?$AAn?$AAg?$AA?$AA@ 10007b24     oscommon:osRgstry.obj
 0001:00006b4c       ??_C@_1BO@BKMBFBJI@?$AAc?$AAo?$AAe?$AAx?$AAT?$AAe?$AAm?$AAp?$AAP?$AAa?$AAr?$AAa?$AAm?$AA5?$AA?$AA@ 10007b4c     oscommon:osRgstry.obj
 0001:00006b6c       ??_C@_1BO@KCHNDGPN@?$AAc?$AAo?$AAe?$AAx?$AAT?$AAe?$AAm?$AAp?$AAP?$AAa?$AAr?$AAa?$AAm?$AA4?$AA?$AA@ 10007b6c     oscommon:osRgstry.obj
 0001:00006b8c       ??_C@_1BO@DPKKAOEE@?$AAc?$AAo?$AAe?$AAx?$AAT?$AAe?$AAm?$AAp?$AAP?$AAa?$AAr?$AAa?$AAm?$AA3?$AA?$AA@ 10007b8c     oscommon:osRgstry.obj
 0001:00006bac       ??_C@_1BO@IHBGGJCB@?$AAc?$AAo?$AAe?$AAx?$AAT?$AAe?$AAm?$AAp?$AAP?$AAa?$AAr?$AAa?$AAm?$AA2?$AA?$AA@ 10007bac     oscommon:osRgstry.obj
 0001:00006bcc       ??_C@_1BO@JFKDMGMP@?$AAc?$AAo?$AAe?$AAx?$AAT?$AAe?$AAm?$AAp?$AAP?$AAa?$AAr?$AAa?$AAm?$AA1?$AA?$AA@ 10007bcc     oscommon:osRgstry.obj
 0001:00006bf0       ??_C@_1FG@HGHAJJPD@?$AAc?$AAo?$AAe?$AAx?$AAA?$AA2?$AAd?$AAp?$AAA?$AAu?$AAt?$AAo?$AAS?$AAc?$AAa?$AAn?$AAE?$AAn?$AAl?$AAa?$AAr?$AAg?$AAe?$AAd?$AAS?$AAc?$AAa?$AAn?$AAW?$AAi?$AAn?$AAo@ 10007bf0     oscommon:osRgstry.obj
 0001:00006c48       ??_C@_1CC@ONDFOPL@?$AAC?$AAo?$AAe?$AAx?$AAH?$AAv?$AA3?$AAM?$AAa?$AAx?$AAS?$AAe?$AAr?$AAv?$AAe?$AAd?$AA?$AA@ 10007c48     oscommon:osRgstry.obj
 0001:00006c6c       ??_C@_1BK@GBFNKHFA@?$AAc?$AAo?$AAe?$AAx?$AAD?$AAh?$AAc?$AAp?$AAT?$AAi?$AAm?$AAe?$AA?$AA@ 10007c6c     oscommon:osRgstry.obj
 0001:00006c88       ??_C@_1DI@KCANANFM@?$AAc?$AAo?$AAe?$AAx?$AAP?$AAa?$AAs?$AAs?$AAi?$AAv?$AAe?$AAS?$AAc?$AAa?$AAn?$AAA?$AA2?$AAd?$AAp?$AAW?$AAl?$AAa?$AAn?$AAT?$AAi?$AAm?$AAe?$AA?$AA@ 10007c88     oscommon:osRgstry.obj
 0001:00006cc0       ??_C@_1DE@BOPNMLPH@?$AAc?$AAo?$AAe?$AAx?$AAP?$AAa?$AAs?$AAs?$AAi?$AAv?$AAe?$AAS?$AAc?$AAa?$AAn?$AAA?$AA2?$AAd?$AAp?$AAB?$AAt?$AAT?$AAi?$AAm?$AAe?$AA?$AA@ 10007cc0     oscommon:osRgstry.obj
 0001:00006cf8       ??_C@_1FI@CBEHCIAA@?$AAc?$AAo?$AAe?$AAx?$AAA?$AA2?$AAD?$AAP?$AAA?$AAu?$AAt?$AAo?$AAE?$AAn?$AAl?$AAa?$AAr?$AAg?$AAe?$AAP?$AAa?$AAs?$AAs?$AAi?$AAv?$AAe?$AAS?$AAc?$AAa?$AAn?$AAW?$AAi@ 10007cf8     oscommon:osRgstry.obj
 0001:00006d50       ??_C@_1FG@DBGMALFN@?$AAc?$AAo?$AAe?$AAx?$AAH?$AAv?$AA3?$AAA?$AAu?$AAt?$AAo?$AAE?$AAn?$AAl?$AAa?$AAr?$AAg?$AAe?$AAP?$AAa?$AAs?$AAs?$AAi?$AAv?$AAe?$AAS?$AAc?$AAa?$AAn?$AAW?$AAi?$AAn@ 10007d50     oscommon:osRgstry.obj
 0001:00006da8       ??_C@_1DC@DCPDDPBI@?$AAc?$AAo?$AAe?$AAx?$AAW?$AAl?$AAa?$AAn?$AAA?$AAc?$AAt?$AAi?$AAv?$AAe?$AAM?$AAa?$AAx?$AAB?$AAt?$AAA?$AAc?$AAl?$AAB?$AAR?$AA?$AA@ 10007da8     oscommon:osRgstry.obj
 0001:00006ddc       ??_C@_1DC@LLHBMKHM@?$AAc?$AAo?$AAe?$AAx?$AAW?$AAl?$AAa?$AAn?$AAA?$AAc?$AAt?$AAi?$AAv?$AAe?$AAB?$AAt?$AAA?$AAc?$AAl?$AAM?$AAa?$AAx?$AAB?$AAR?$AA?$AA@ 10007ddc     oscommon:osRgstry.obj
 0001:00006e10       ??_C@_1DC@BCHCLCCE@?$AAc?$AAo?$AAe?$AAx?$AAW?$AAl?$AAa?$AAn?$AAA?$AAc?$AAt?$AAi?$AAv?$AAe?$AAB?$AAt?$AAA?$AAc?$AAl?$AAM?$AAi?$AAn?$AAB?$AAR?$AA?$AA@ 10007e10     oscommon:osRgstry.obj
 0001:00006e44       ??_C@_1DO@CDIKGEAC@?$AAc?$AAo?$AAe?$AAx?$AAW?$AAl?$AAa?$AAn?$AAA?$AAc?$AAt?$AAi?$AAv?$AAe?$AAM?$AAa?$AAx?$AAB?$AAt?$AAA?$AAc?$AAl?$AAS?$AAl?$AAa?$AAv?$AAe?$AAE?$AAD?$AAR?$AA?$AA@ 10007e44     oscommon:osRgstry.obj
 0001:00006e84       ??_C@_1DO@GCBCBGG@?$AAc?$AAo?$AAe?$AAx?$AAW?$AAl?$AAa?$AAn?$AAA?$AAc?$AAt?$AAi?$AAv?$AAe?$AAB?$AAt?$AAA?$AAc?$AAl?$AAS?$AAl?$AAa?$AAv?$AAe?$AAM?$AAa?$AAx?$AAE?$AAD?$AAR?$AA?$AA@ 10007e84     oscommon:osRgstry.obj
 0001:00006ec4       ??_C@_1DO@CKJNKGDH@?$AAc?$AAo?$AAe?$AAx?$AAW?$AAl?$AAa?$AAn?$AAA?$AAc?$AAt?$AAi?$AAv?$AAe?$AAB?$AAt?$AAA?$AAc?$AAl?$AAS?$AAl?$AAa?$AAv?$AAe?$AAM?$AAi?$AAn?$AAE?$AAD?$AAR?$AA?$AA@ 10007ec4     oscommon:osRgstry.obj
 0001:00006f08       ??_C@_1EA@JLKLMA@?$AAc?$AAo?$AAe?$AAx?$AAW?$AAl?$AAa?$AAn?$AAA?$AAc?$AAt?$AAi?$AAv?$AAe?$AAM?$AAa?$AAx?$AAB?$AAt?$AAA?$AAc?$AAl?$AAM?$AAa?$AAs?$AAt?$AAe?$AAr?$AAE?$AAD?$AAR?$AA?$AA@ 10007f08     oscommon:osRgstry.obj
 0001:00006f48       ??_C@_1EA@CENCHAFI@?$AAc?$AAo?$AAe?$AAx?$AAW?$AAl?$AAa?$AAn?$AAA?$AAc?$AAt?$AAi?$AAv?$AAe?$AAB?$AAt?$AAA?$AAc?$AAl?$AAM?$AAa?$AAs?$AAt?$AAe?$AAr?$AAM?$AAa?$AAx?$AAE?$AAD?$AAR?$AA?$AA@ 10007f48     oscommon:osRgstry.obj
 0001:00006f88       ??_C@_1EA@IGOPHAJ@?$AAc?$AAo?$AAe?$AAx?$AAW?$AAl?$AAa?$AAn?$AAA?$AAc?$AAt?$AAi?$AAv?$AAe?$AAB?$AAt?$AAA?$AAc?$AAl?$AAM?$AAa?$AAs?$AAt?$AAe?$AAr?$AAM?$AAi?$AAn?$AAE?$AAD?$AAR?$AA?$AA@ 10007f88     oscommon:osRgstry.obj
 0001:00006fc8       ??_C@_1CA@CDLFHCNH@?$AAc?$AAo?$AAe?$AAx?$AAU?$AAp?$AAs?$AAd?$AAT?$AAi?$AAm?$AAe?$AAo?$AAu?$AAt?$AA?$AA@ 10007fc8     oscommon:osRgstry.obj
 0001:00006fe8       ??_C@_1CE@NEJOCBMK@?$AAc?$AAo?$AAe?$AAx?$AAP?$AAs?$AAP?$AAo?$AAl?$AAl?$AAT?$AAi?$AAm?$AAe?$AAo?$AAu?$AAt?$AA?$AA@ 10007fe8     oscommon:osRgstry.obj
 0001:0000700c       ??_C@_1CG@KCDEHADF@?$AAc?$AAo?$AAe?$AAx?$AAA?$AAd?$AAa?$AAp?$AAt?$AAi?$AAv?$AAe?$AAR?$AAx?$AAt?$AAT?$AAx?$AAt?$AA?$AA@ 1000800c     oscommon:osRgstry.obj
 0001:00007034       ??_C@_1BA@FOKLCNCP@?$AAc?$AAo?$AAe?$AAx?$AAT?$AAx?$AAt?$AA?$AA@ 10008034     oscommon:osRgstry.obj
 0001:00007044       ??_C@_1BA@JIMECEKI@?$AAc?$AAo?$AAe?$AAx?$AAR?$AAx?$AAt?$AA?$AA@ 10008044     oscommon:osRgstry.obj
 0001:00007054       ??_C@_1DG@IJMJDHDJ@?$AAc?$AAo?$AAe?$AAx?$AAW?$AAl?$AAa?$AAn?$AAP?$AAs?$AAM?$AAa?$AAx?$AAB?$AAt?$AAA?$AAc?$AAl?$AAS?$AAl?$AAa?$AAv?$AAe?$AAE?$AAD?$AAR?$AA?$AA@ 10008054     oscommon:osRgstry.obj
 0001:0000708c       ??_C@_1DI@MOELOOPF@?$AAc?$AAo?$AAe?$AAx?$AAW?$AAl?$AAa?$AAn?$AAP?$AAs?$AAM?$AAa?$AAx?$AAB?$AAt?$AAA?$AAc?$AAl?$AAM?$AAa?$AAs?$AAt?$AAe?$AAr?$AAE?$AAD?$AAR?$AA?$AA@ 1000808c     oscommon:osRgstry.obj
 0001:000070c4       ??_C@_1DG@KMGCHCFN@?$AAc?$AAo?$AAe?$AAx?$AAW?$AAl?$AAa?$AAn?$AAP?$AAs?$AAB?$AAt?$AAA?$AAc?$AAl?$AAS?$AAl?$AAa?$AAv?$AAe?$AAM?$AAa?$AAx?$AAE?$AAD?$AAR?$AA?$AA@ 100080c4     oscommon:osRgstry.obj
 0001:000070fc       ??_C@_1DI@OKACDFGN@?$AAc?$AAo?$AAe?$AAx?$AAW?$AAl?$AAa?$AAn?$AAP?$AAs?$AAB?$AAt?$AAA?$AAc?$AAl?$AAM?$AAa?$AAs?$AAt?$AAe?$AAr?$AAM?$AAa?$AAx?$AAE?$AAD?$AAR?$AA?$AA@ 100080fc     oscommon:osRgstry.obj
 0001:00007134       ??_C@_1DG@IANOPFAM@?$AAc?$AAo?$AAe?$AAx?$AAW?$AAl?$AAa?$AAn?$AAP?$AAs?$AAB?$AAt?$AAA?$AAc?$AAl?$AAS?$AAl?$AAa?$AAv?$AAe?$AAM?$AAi?$AAn?$AAE?$AAD?$AAR?$AA?$AA@ 10008134     oscommon:osRgstry.obj
 0001:0000716c       ??_C@_1DI@MGLOLCDM@?$AAc?$AAo?$AAe?$AAx?$AAW?$AAl?$AAa?$AAn?$AAP?$AAs?$AAB?$AAt?$AAA?$AAc?$AAl?$AAM?$AAa?$AAs?$AAt?$AAe?$AAr?$AAM?$AAi?$AAn?$AAE?$AAD?$AAR?$AA?$AA@ 1000816c     oscommon:osRgstry.obj
 0001:000071a4       ??_C@_1DE@CGPHODDJ@?$AAc?$AAo?$AAe?$AAx?$AAW?$AAl?$AAa?$AAn?$AAP?$AAs?$AAM?$AAa?$AAx?$AAB?$AAt?$AAA?$AAc?$AAl?$AAS?$AAl?$AAa?$AAv?$AAe?$AAB?$AAR?$AA?$AA@ 100081a4     oscommon:osRgstry.obj
 0001:000071d8       ??_C@_1DG@IFLLOENG@?$AAc?$AAo?$AAe?$AAx?$AAW?$AAl?$AAa?$AAn?$AAP?$AAs?$AAM?$AAa?$AAx?$AAB?$AAt?$AAA?$AAc?$AAl?$AAM?$AAa?$AAs?$AAt?$AAe?$AAr?$AAB?$AAR?$AA?$AA@ 100081d8     oscommon:osRgstry.obj
 0001:00007210       ??_C@_1DE@NAHJOJMA@?$AAc?$AAo?$AAe?$AAx?$AAW?$AAl?$AAa?$AAn?$AAP?$AAs?$AAB?$AAt?$AAA?$AAc?$AAl?$AAS?$AAl?$AAa?$AAv?$AAe?$AAM?$AAa?$AAx?$AAB?$AAR?$AA?$AA@ 10008210     oscommon:osRgstry.obj
 0001:00007244       ??_C@_1DG@JPHMGNMM@?$AAc?$AAo?$AAe?$AAx?$AAW?$AAl?$AAa?$AAn?$AAP?$AAs?$AAB?$AAt?$AAA?$AAc?$AAl?$AAM?$AAa?$AAs?$AAt?$AAe?$AAr?$AAM?$AAa?$AAx?$AAB?$AAR?$AA?$AA@ 10008244     oscommon:osRgstry.obj
 0001:0000727c       ??_C@_1DE@HJHKJBJI@?$AAc?$AAo?$AAe?$AAx?$AAW?$AAl?$AAa?$AAn?$AAP?$AAs?$AAB?$AAt?$AAA?$AAc?$AAl?$AAS?$AAl?$AAa?$AAv?$AAe?$AAM?$AAi?$AAn?$AAB?$AAR?$AA?$AA@ 1000827c     oscommon:osRgstry.obj
 0001:000072b0       ??_C@_1DG@DGHPBFJE@?$AAc?$AAo?$AAe?$AAx?$AAW?$AAl?$AAa?$AAn?$AAP?$AAs?$AAB?$AAt?$AAA?$AAc?$AAl?$AAM?$AAa?$AAs?$AAt?$AAe?$AAr?$AAM?$AAi?$AAn?$AAB?$AAR?$AA?$AA@ 100082b0     oscommon:osRgstry.obj
 0001:000072e8       ??_C@_1CO@NFLIBACE@?$AAc?$AAo?$AAe?$AAx?$AAA?$AAP?$AAR?$AAa?$AAt?$AAe?$AAA?$AAd?$AAa?$AAp?$AAa?$AAt?$AAi?$AAo?$AAn?$AAS?$AAn?$AAr?$AA?$AA@ 100082e8     oscommon:osRgstry.obj
 0001:00007318       ??_C@_1CO@JCEPKCA@?$AAc?$AAo?$AAe?$AAx?$AAA?$AAP?$AAR?$AAa?$AAt?$AAe?$AAA?$AAd?$AAa?$AAp?$AAa?$AAt?$AAi?$AAo?$AAn?$AAT?$AAh?$AAr?$AA?$AA@ 10008318     oscommon:osRgstry.obj
 0001:00007348       ??_C@_1EI@CCGCCEAO@?$AAc?$AAo?$AAe?$AAx?$AAM?$AAa?$AAx?$AAC?$AAo?$AAn?$AAs?$AAe?$AAc?$AAu?$AAt?$AAi?$AAv?$AAe?$AAB?$AAe?$AAa?$AAc?$AAo?$AAn?$AAM?$AAi?$AAs?$AAs?$AAP?$AAr?$AAe?$AAc@ 10008348     oscommon:osRgstry.obj
 0001:00007390       ??_C@_1DA@HNHLIFKI@?$AAc?$AAo?$AAe?$AAx?$AAB?$AAt?$AAN?$AAf?$AAs?$AAS?$AAa?$AAm?$AAp?$AAl?$AAe?$AAI?$AAn?$AAt?$AAe?$AAr?$AAv?$AAa?$AAl?$AA?$AA@ 10008390     oscommon:osRgstry.obj
 0001:000073c0       ??_C@_1DC@LBKJADKK@?$AAc?$AAo?$AAe?$AAx?$AAA?$AAn?$AAt?$AAe?$AAn?$AAn?$AAa?$AAC?$AAo?$AAn?$AAf?$AAi?$AAg?$AAu?$AAr?$AAa?$AAt?$AAi?$AAo?$AAn?$AA?$AA@ 100083c0     oscommon:osRgstry.obj
 0001:000073f8       ??_C@_1FE@GFEPDDMO@?$AAc?$AAo?$AAe?$AAx?$AAH?$AAv?$AA3?$AAA?$AAu?$AAt?$AAo?$AAS?$AAc?$AAa?$AAn?$AAE?$AAn?$AAl?$AAa?$AAr?$AAg?$AAe?$AAd?$AAS?$AAc?$AAa?$AAn?$AAW?$AAi?$AAn?$AAo?$AAd@ 100083f8     oscommon:osRgstry.obj
 0001:00007450       ??_C@_1FI@CPBLPKNE@?$AAc?$AAo?$AAe?$AAx?$AAH?$AAv?$AA3?$AAA?$AAu?$AAt?$AAo?$AAS?$AAc?$AAa?$AAn?$AAE?$AAn?$AAl?$AAa?$AAr?$AAg?$AAe?$AAd?$AAN?$AAu?$AAm?$AAO?$AAf?$AAP?$AAr?$AAo?$AAb@ 10008450     oscommon:osRgstry.obj
 0001:000074a8       ??_C@_1BO@CGEHLMOD@?$AAc?$AAo?$AAe?$AAx?$AAA?$AAu?$AAt?$AAo?$AAP?$AAs?$AAM?$AAo?$AAd?$AAe?$AA?$AA@ 100084a8     oscommon:osRgstry.obj
 0001:000074c8       ??_C@_1CA@MLCFIPFO@?$AAc?$AAo?$AAe?$AAx?$AAB?$AAt?$AAL?$AAo?$AAa?$AAd?$AAR?$AAa?$AAt?$AAi?$AAo?$AA?$AA@ 100084c8     oscommon:osRgstry.obj
 0001:000074e8       ??_C@_1CG@PGNKAOMM@?$AAc?$AAo?$AAe?$AAx?$AAH?$AAv?$AA3?$AAM?$AAa?$AAx?$AAO?$AAv?$AAe?$AAr?$AAr?$AAi?$AAd?$AAe?$AA?$AA@ 100084e8     oscommon:osRgstry.obj
 0001:00007510       ??_C@_1CG@CIDABBLK@?$AAc?$AAo?$AAe?$AAx?$AAB?$AAt?$AAP?$AAe?$AAr?$AAT?$AAh?$AAr?$AAe?$AAs?$AAh?$AAo?$AAl?$AAd?$AA?$AA@ 10008510     oscommon:osRgstry.obj
 0001:00007538       ??_C@_1CK@BEMDGOFG@?$AAB?$AAT?$AAh?$AAW?$AAl?$AAa?$AAn?$AAC?$AAo?$AAe?$AAx?$AAi?$AAs?$AAt?$AAE?$AAn?$AAa?$AAb?$AAl?$AAe?$AA?$AA@ 10008538     oscommon:osRgstry.obj
 0001:00007564       ??_C@_1CK@NDDOCKEH@?$AAT?$AAr?$AAi?$AAg?$AAg?$AAe?$AAr?$AAe?$AAd?$AAS?$AAc?$AAa?$AAn?$AAT?$AAi?$AAm?$AAe?$AAO?$AAu?$AAt?$AA?$AA@ 10008564     oscommon:osRgstry.obj
 0001:00007590       ??_C@_1EC@GJDJPOIG@?$AAN?$AAu?$AAm?$AAb?$AAe?$AAr?$AAO?$AAf?$AAN?$AAo?$AAS?$AAc?$AAa?$AAn?$AAC?$AAo?$AAm?$AAp?$AAl?$AAe?$AAt?$AAe?$AAT?$AAo?$AAR?$AAe?$AAc?$AAo?$AAv?$AAe?$AAr?$AAy@ 10008590     oscommon:osRgstry.obj
 0001:000075d4       ??_C@_1BA@PFBHPGLM@?$AAT?$AAx?$AAP?$AAo?$AAw?$AAe?$AAr?$AA?$AA@ 100085d4     oscommon:osRgstry.obj
 0001:000075e8       ??_C@_1FE@KGPBGJKE@?$AAC?$AAo?$AAn?$AAs?$AAe?$AAc?$AAu?$AAt?$AAi?$AAv?$AAe?$AAP?$AAs?$AAP?$AAo?$AAl?$AAl?$AAD?$AAe?$AAl?$AAi?$AAv?$AAe?$AAr?$AAy?$AAF?$AAa?$AAi?$AAl?$AAu?$AAr?$AAe@ 100085e8     oscommon:osRgstry.obj
 0001:0000763c       ??_C@_1CA@GLGPNJGK@?$AAR?$AAx?$AAB?$AAr?$AAo?$AAa?$AAd?$AAc?$AAa?$AAs?$AAt?$AAI?$AAn?$AAP?$AAs?$AA?$AA@ 1000863c     oscommon:osRgstry.obj
 0001:0000765c       ??_C@_1CG@DIKAPINK@?$AAB?$AAr?$AAo?$AAa?$AAd?$AAc?$AAa?$AAs?$AAt?$AAR?$AAx?$AAT?$AAi?$AAm?$AAe?$AAo?$AAu?$AAt?$AA?$AA@ 1000865c     oscommon:osRgstry.obj
 0001:00007684       ??_C@_1CA@GJOBEJO@?$AAB?$AAe?$AAa?$AAc?$AAo?$AAn?$AAR?$AAx?$AAT?$AAi?$AAm?$AAe?$AAo?$AAu?$AAt?$AA?$AA@ 10008684     oscommon:osRgstry.obj
 0001:000076a4       ??_C@_1BI@CBOCHOJB@?$AAP?$AAl?$AAl?$AAL?$AAo?$AAc?$AAk?$AAT?$AAi?$AAm?$AAe?$AA?$AA@ 100086a4     oscommon:osRgstry.obj
 0001:000076bc       ??_C@_1DG@EGCNNGBJ@?$AAP?$AAo?$AAw?$AAe?$AAr?$AAM?$AAg?$AAm?$AAt?$AAN?$AAu?$AAm?$AAN?$AAu?$AAl?$AAl?$AAP?$AAk?$AAt?$AAR?$AAe?$AAt?$AAr?$AAi?$AAe?$AAs?$AA?$AA@ 100086bc     oscommon:osRgstry.obj
 0001:000076f4       ??_C@_1DO@LFHNEPKK@?$AAP?$AAo?$AAw?$AAe?$AAr?$AAM?$AAg?$AAm?$AAt?$AAN?$AAu?$AAl?$AAl?$AAP?$AAk?$AAt?$AAR?$AAa?$AAt?$AAe?$AAM?$AAo?$AAd?$AAu?$AAl?$AAa?$AAt?$AAi?$AAo?$AAn?$AA?$AA@ 100086f4     oscommon:osRgstry.obj
 0001:00007734       ??_C@_1DI@HKOCLHDI@?$AAP?$AAo?$AAw?$AAe?$AAr?$AAM?$AAg?$AAm?$AAt?$AAN?$AAe?$AAe?$AAd?$AAT?$AAo?$AAS?$AAe?$AAn?$AAd?$AAN?$AAu?$AAl?$AAl?$AAD?$AAa?$AAt?$AAa?$AA?$AA@ 10008734     oscommon:osRgstry.obj
 0001:0000776c       ??_C@_1BM@DJIAEDIB@?$AAP?$AAo?$AAw?$AAe?$AAr?$AAM?$AAg?$AAm?$AAt?$AAM?$AAo?$AAd?$AAe?$AA?$AA@ 1000876c     oscommon:osRgstry.obj
 0001:00007788       ??_C@_1DA@KLIJNKKO@?$AAP?$AAo?$AAw?$AAe?$AAr?$AAM?$AAg?$AAm?$AAt?$AAH?$AAa?$AAn?$AAg?$AAO?$AAv?$AAe?$AAr?$AAP?$AAe?$AAr?$AAi?$AAo?$AAd?$AA?$AA@ 10008788     oscommon:osRgstry.obj
 0001:000077b8       ??_C@_1EI@FOBBGGJM@?$AAP?$AAs?$AAP?$AAo?$AAl?$AAl?$AAD?$AAe?$AAl?$AAi?$AAv?$AAe?$AAr?$AAy?$AAF?$AAa?$AAi?$AAl?$AAu?$AAr?$AAe?$AAR?$AAe?$AAc?$AAo?$AAv?$AAe?$AAr?$AAy?$AAP?$AAe?$AAr@ 100087b8     oscommon:osRgstry.obj
 0001:00007800       ??_C@_1DE@ILPDDKOC@?$AAD?$AAc?$AAo?$AAI?$AAt?$AAr?$AAi?$AAm?$AAM?$AAo?$AAd?$AAe?$AAr?$AAa?$AAt?$AAi?$AAo?$AAn?$AAT?$AAi?$AAm?$AAe?$AAo?$AAu?$AAt?$AA?$AA@ 10008800     oscommon:osRgstry.obj
 0001:00007834       ??_C@_1CA@KNFODAMG@?$AAD?$AAc?$AAo?$AAI?$AAt?$AAr?$AAi?$AAm?$AAE?$AAn?$AAa?$AAb?$AAl?$AAe?$AAd?$AA?$AA@ 10008834     oscommon:osRgstry.obj
 0001:00007854       ??_C@_1CM@BMHBDCFB@?$AAH?$AAo?$AAs?$AAt?$AAF?$AAa?$AAs?$AAt?$AAW?$AAa?$AAk?$AAe?$AAu?$AAp?$AAS?$AAu?$AAp?$AAp?$AAo?$AAr?$AAt?$AA?$AA@ 10008854     oscommon:osRgstry.obj
 0001:00007880       ??_C@_1CI@OHOBIPNH@?$AAH?$AAo?$AAs?$AAt?$AAC?$AAl?$AAk?$AAS?$AAe?$AAt?$AAt?$AAl?$AAi?$AAn?$AAg?$AAT?$AAi?$AAm?$AAe?$AA?$AA@ 10008880     oscommon:osRgstry.obj
 0001:000078a8       ??_C@_1CI@DCBBNCKB@?$AAP?$AAo?$AAw?$AAe?$AAr?$AAS?$AAa?$AAv?$AAe?$AAP?$AAo?$AAw?$AAe?$AAr?$AAL?$AAe?$AAv?$AAe?$AAl?$AA?$AA@ 100088a8     oscommon:osRgstry.obj
 0001:000078d0       ??_C@_1CE@IDNHJAHF@?$AAd?$AAe?$AAf?$AAa?$AAu?$AAl?$AAt?$AAP?$AAo?$AAw?$AAe?$AAr?$AAL?$AAe?$AAv?$AAe?$AAl?$AA?$AA@ 100088d0     oscommon:osRgstry.obj
 0001:000078f4       ??_C@_1CM@KIALPNGD@?$AAA?$AAu?$AAt?$AAo?$AAP?$AAo?$AAw?$AAe?$AAr?$AAM?$AAo?$AAd?$AAe?$AAD?$AAo?$AAz?$AAe?$AAM?$AAo?$AAd?$AAe?$AA?$AA@ 100088f4     oscommon:osRgstry.obj
 0001:00007920       ??_C@_1CI@OMNDHFLC@?$AAA?$AAu?$AAt?$AAo?$AAP?$AAo?$AAw?$AAe?$AAr?$AAM?$AAo?$AAd?$AAe?$AAD?$AAo?$AAz?$AAe?$AAT?$AAh?$AA?$AA@ 10008920     oscommon:osRgstry.obj
 0001:00007948       ??_C@_1CM@NCIBONDK@?$AAA?$AAu?$AAt?$AAo?$AAP?$AAo?$AAw?$AAe?$AAr?$AAM?$AAo?$AAd?$AAe?$AAA?$AAc?$AAt?$AAi?$AAv?$AAe?$AAT?$AAh?$AA?$AA@ 10008948     oscommon:osRgstry.obj
 0001:00007974       ??_C@_1CM@OJJKNLBF@?$AAA?$AAu?$AAt?$AAo?$AAP?$AAo?$AAw?$AAe?$AAr?$AAM?$AAo?$AAd?$AAe?$AAI?$AAn?$AAt?$AAe?$AAr?$AAv?$AAa?$AAl?$AA?$AA@ 10008974     oscommon:osRgstry.obj
 0001:000079a0       ??_C@_1CO@ODEDCHBI@?$AAE?$AAn?$AAt?$AAe?$AAr?$AAT?$AAo?$AA8?$AA0?$AA2?$AA_?$AA1?$AA1?$AAP?$AAs?$AAR?$AAe?$AAt?$AAr?$AAi?$AAe?$AAs?$AA?$AA@ 100089a0     oscommon:osRgstry.obj
 0001:000079d0       ??_C@_1DE@MDDGDAPM@?$AAN?$AAC?$AAo?$AAn?$AAs?$AAe?$AAc?$AAu?$AAt?$AAi?$AAv?$AAe?$AAB?$AAe?$AAa?$AAc?$AAo?$AAn?$AAs?$AAM?$AAi?$AAs?$AAs?$AAe?$AAd?$AA?$AA@ 100089d0     oscommon:osRgstry.obj
 0001:00007a04       ??_C@_1CG@IKOGEHC@?$AAD?$AAt?$AAi?$AAm?$AAL?$AAi?$AAs?$AAt?$AAe?$AAn?$AAI?$AAn?$AAt?$AAe?$AAr?$AAv?$AAa?$AAl?$AA?$AA@ 10008a04     oscommon:osRgstry.obj
 0001:00007a2c       ??_C@_1CK@EACIOBEM@?$AAB?$AAe?$AAa?$AAc?$AAo?$AAn?$AAL?$AAi?$AAs?$AAt?$AAe?$AAn?$AAI?$AAn?$AAt?$AAe?$AAr?$AAv?$AAa?$AAl?$AA?$AA@ 10008a2c     oscommon:osRgstry.obj
 0001:00007a58       ??_C@_1BO@CEIKJHNH@?$AAH?$AAa?$AAn?$AAg?$AAo?$AAv?$AAe?$AAr?$AAP?$AAe?$AAr?$AAi?$AAo?$AAd?$AA?$AA@ 10008a58     oscommon:osRgstry.obj
 0001:00007a78       ??_C@_1CG@GPEEKGP@?$AAB?$AAa?$AAs?$AAe?$AAB?$AAa?$AAn?$AAd?$AAW?$AAa?$AAk?$AAe?$AAU?$AAp?$AAT?$AAi?$AAm?$AAe?$AA?$AA@ 10008a78     oscommon:osRgstry.obj
 0001:00007aa0       ??_C@_1CE@MHMNMKFM@?$AAB?$AAe?$AAa?$AAc?$AAo?$AAn?$AAR?$AAe?$AAc?$AAe?$AAi?$AAv?$AAe?$AAT?$AAi?$AAm?$AAe?$AA?$AA@ 10008aa0     oscommon:osRgstry.obj
 0001:00007ac4       ??_C@_1BO@IDBONIFI@?$AAd?$AAo?$AAt?$AA1?$AA1?$AAP?$AAo?$AAw?$AAe?$AAr?$AAM?$AAo?$AAd?$AAe?$AA?$AA@ 10008ac4     oscommon:osRgstry.obj
 0001:00007ae4       ??_C@_19GCMKOAEH@?$AAS?$AAR?$AAF?$AA3?$AA?$AA@ 10008ae4     oscommon:osRgstry.obj
 0001:00007af0       ??_C@_19NKHGIHCC@?$AAS?$AAR?$AAF?$AA2?$AA?$AA@ 10008af0     oscommon:osRgstry.obj
 0001:00007afc       ??_C@_19MIMDCIMM@?$AAS?$AAR?$AAF?$AA1?$AA?$AA@ 10008afc     oscommon:osRgstry.obj
 0001:00007b08       ??_C@_1BA@PNICNB@?$AAS?$AAR?$AAS?$AAt?$AAa?$AAt?$AAe?$AA?$AA@ 10008b08     oscommon:osRgstry.obj
 0001:00007b18       ??_C@_1CA@GOOCJBNP@?$AAB?$AAu?$AAr?$AAs?$AAt?$AAM?$AAo?$AAd?$AAe?$AAE?$AAn?$AAa?$AAb?$AAl?$AAe?$AA?$AA@ 10008b18     oscommon:osRgstry.obj
 0001:00007b38       ??_C@_1CM@BPFFBCLI@?$AAA?$AAl?$AAl?$AAo?$AAw?$AAe?$AAd?$AAC?$AAh?$AAa?$AAn?$AAn?$AAe?$AAl?$AAs?$AAT?$AAa?$AAb?$AAl?$AAe?$AA5?$AA?$AA@ 10008b38     oscommon:osRgstry.obj
 0001:00007b64       ??_C@_1CO@LNOJBFOD@?$AAA?$AAl?$AAl?$AAo?$AAw?$AAe?$AAd?$AAC?$AAh?$AAa?$AAn?$AAn?$AAe?$AAl?$AAs?$AAT?$AAa?$AAb?$AAl?$AAe?$AA2?$AA4?$AA?$AA@ 10008b64     oscommon:osRgstry.obj
 0001:00007b94       ??_C@_1CG@NPKMGMNI@?$AAS?$AAp?$AAe?$AAc?$AAt?$AAr?$AAu?$AAm?$AAM?$AAa?$AAn?$AAa?$AAg?$AAe?$AAm?$AAe?$AAn?$AAt?$AA?$AA@ 10008b94     oscommon:osRgstry.obj
 0001:00007bbc       ??_C@_1CM@KPDHJAHE@?$AAM?$AAu?$AAl?$AAt?$AAi?$AAR?$AAe?$AAg?$AAu?$AAl?$AAa?$AAt?$AAo?$AAr?$AAy?$AAD?$AAo?$AAm?$AAa?$AAi?$AAn?$AA?$AA@ 10008bbc     oscommon:osRgstry.obj
 0001:00007be8       ??_C@_1CK@OKDJCPGJ@?$AAT?$AAi?$AAm?$AAe?$AAT?$AAo?$AAR?$AAe?$AAs?$AAe?$AAt?$AAC?$AAo?$AAu?$AAn?$AAt?$AAr?$AAy?$AAM?$AAs?$AA?$AA@ 10008be8     oscommon:osRgstry.obj
 0001:00007c14       ??_C@_1DC@NKDOGOII@?$AAP?$AAa?$AAi?$AAr?$AAw?$AAi?$AAs?$AAe?$AAM?$AAi?$AAc?$AAF?$AAa?$AAi?$AAl?$AAu?$AAr?$AAe?$AAF?$AAi?$AAl?$AAt?$AAe?$AAr?$AA?$AA@ 10008c14     oscommon:osRgstry.obj
 0001:00007c48       ??_C@_1CE@GFLMPJBD@?$AAR?$AAS?$AAN?$AAP?$AAr?$AAe?$AAA?$AAu?$AAt?$AAh?$AAT?$AAi?$AAm?$AAe?$AAo?$AAu?$AAt?$AA?$AA@ 10008c48     oscommon:osRgstry.obj
 0001:00007c6c       ??_C@_1CK@LHEMPGJN@?$AAR?$AAS?$AAN?$AAP?$AAr?$AAe?$AAA?$AAu?$AAt?$AAh?$AAe?$AAn?$AAt?$AAi?$AAc?$AAa?$AAt?$AAi?$AAo?$AAn?$AA?$AA@ 10008c6c     oscommon:osRgstry.obj
 0001:00007c98       ??_C@_1BK@IMKFFMCG@?$AAW?$AAP?$AAA?$AAM?$AAi?$AAx?$AAe?$AAd?$AAM?$AAo?$AAd?$AAe?$AA?$AA@ 10008c98     oscommon:osRgstry.obj
 0001:00007cb4       ??_C@_1BE@BOAGPMGL@?$AAM?$AAi?$AAx?$AAe?$AAd?$AAM?$AAo?$AAd?$AAe?$AA?$AA@ 10008cb4     oscommon:osRgstry.obj
 0001:00007cc8       ??_C@_1CK@ODLHFMOA@?$AAd?$AAo?$AAt?$AA1?$AA1?$AAW?$AAE?$AAP?$AAD?$AAe?$AAf?$AAa?$AAu?$AAl?$AAt?$AAK?$AAe?$AAy?$AAI?$AAD?$AA?$AA@ 10008cc8     oscommon:osRgstry.obj
 0001:00007cf4       ??_C@_1DC@HGGDHNLC@?$AAd?$AAo?$AAt?$AA1?$AA1?$AAW?$AAE?$AAP?$AAK?$AAe?$AAy?$AAm?$AAa?$AAp?$AAp?$AAi?$AAn?$AAg?$AAL?$AAe?$AAn?$AAg?$AAt?$AAh?$AA?$AA@ 10008cf4     oscommon:osRgstry.obj
 0001:00007d28       ??_C@_1DA@FCMLILPK@?$AAd?$AAo?$AAt?$AA1?$AA1?$AAE?$AAx?$AAc?$AAl?$AAu?$AAd?$AAe?$AAU?$AAn?$AAe?$AAn?$AAc?$AAr?$AAy?$AAp?$AAt?$AAe?$AAd?$AA?$AA@ 10008d28     oscommon:osRgstry.obj
 0001:00007d58       ??_C@_1BO@LCDODNMA@?$AAd?$AAo?$AAt?$AA1?$AA1?$AAW?$AAE?$AAP?$AAS?$AAt?$AAa?$AAt?$AAu?$AAs?$AA?$AA@ 10008d58     oscommon:osRgstry.obj
 0001:00007d78       ??_C@_1DA@GENPMOFM@?$AAd?$AAo?$AAt?$AA1?$AA1?$AAA?$AAu?$AAt?$AAh?$AAe?$AAn?$AAt?$AAi?$AAc?$AAa?$AAt?$AAi?$AAo?$AAn?$AAM?$AAo?$AAd?$AAe?$AA?$AA@ 10008d78     oscommon:osRgstry.obj
 0001:00007da8       ??_C@_1EI@CECGOJHE@?$AAR?$AAa?$AAt?$AAe?$AAP?$AAo?$AAl?$AAi?$AAc?$AAy?$AAU?$AAs?$AAe?$AAr?$AAE?$AAn?$AAa?$AAb?$AAl?$AAe?$AAd?$AAR?$AAa?$AAt?$AAe?$AAs?$AAM?$AAa?$AAs?$AAk?$AAO?$AAf@ 10008da8     oscommon:osRgstry.obj
 0001:00007df0       ??_C@_1EI@HMEFPJCC@?$AAR?$AAa?$AAt?$AAe?$AAP?$AAo?$AAl?$AAi?$AAc?$AAy?$AAU?$AAs?$AAe?$AAr?$AAE?$AAn?$AAa?$AAb?$AAl?$AAe?$AAd?$AAR?$AAa?$AAt?$AAe?$AAs?$AAM?$AAa?$AAs?$AAk?$AAO?$AAf@ 10008df0     oscommon:osRgstry.obj
 0001:00007e38       ??_C@_1EG@PGKGAKEH@?$AAR?$AAa?$AAt?$AAe?$AAP?$AAo?$AAl?$AAi?$AAc?$AAy?$AAU?$AAs?$AAe?$AAr?$AAE?$AAn?$AAa?$AAb?$AAl?$AAe?$AAd?$AAR?$AAa?$AAt?$AAe?$AAs?$AAM?$AAa?$AAs?$AAk?$AAO?$AAf@ 10008e38     oscommon:osRgstry.obj
 0001:00007e80       ??_C@_1EE@HJMNDKJD@?$AAR?$AAa?$AAt?$AAe?$AAP?$AAo?$AAl?$AAi?$AAc?$AAy?$AAU?$AAs?$AAe?$AAr?$AAE?$AAn?$AAa?$AAb?$AAl?$AAe?$AAd?$AAR?$AAa?$AAt?$AAe?$AAs?$AAM?$AAa?$AAs?$AAk?$AAC?$AAc@ 10008e80     oscommon:osRgstry.obj
 0001:00007ec4       ??_C@_1DK@GIKBFFI@?$AAR?$AAa?$AAt?$AAe?$AAP?$AAo?$AAl?$AAi?$AAc?$AAy?$AAU?$AAs?$AAe?$AAr?$AAL?$AAo?$AAn?$AAg?$AAR?$AAe?$AAt?$AAr?$AAy?$AAL?$AAi?$AAm?$AAi?$AAt?$AA?$AA@ 10008ec4     oscommon:osRgstry.obj
 0001:00007f00       ??_C@_1DM@CICEABIN@?$AAR?$AAa?$AAt?$AAe?$AAP?$AAo?$AAl?$AAi?$AAc?$AAy?$AAU?$AAs?$AAe?$AAr?$AAS?$AAh?$AAo?$AAr?$AAt?$AAR?$AAe?$AAt?$AAr?$AAy?$AAL?$AAi?$AAm?$AAi?$AAt?$AA?$AA@ 10008f00     oscommon:osRgstry.obj
 0001:00007f3c       ??_C@_1BI@LJHENONB@?$AAD?$AAe?$AAs?$AAi?$AAr?$AAe?$AAC?$AAw?$AAM?$AAa?$AAx?$AA?$AA@ 10008f3c     oscommon:osRgstry.obj
 0001:00007f54       ??_C@_1BI@CAFFFEPP@?$AAD?$AAe?$AAs?$AAi?$AAr?$AAe?$AAC?$AAw?$AAM?$AAi?$AAn?$AA?$AA@ 10008f54     oscommon:osRgstry.obj
 0001:00007f6c       ??_C@_1CC@JBINLMBA@?$AAC?$AAw?$AAF?$AAr?$AAo?$AAm?$AAU?$AAs?$AAe?$AAr?$AAE?$AAn?$AAa?$AAb?$AAl?$AAe?$AA?$AA@ 10008f6c     oscommon:osRgstry.obj
 0001:00007f90       ??_C@_1CA@DMBGKEJL@?$AAD?$AAe?$AAs?$AAi?$AAr?$AAe?$AAd?$AAM?$AAa?$AAx?$AAS?$AAp?$AAL?$AAe?$AAn?$AA?$AA@ 10008f90     oscommon:osRgstry.obj
 0001:00007fb0       ??_C@_1DO@PBAPNIJP@?$AAT?$AAr?$AAa?$AAf?$AAf?$AAi?$AAc?$AAA?$AAd?$AAm?$AAC?$AAt?$AAr?$AAl?$AAU?$AAs?$AAe?$AAF?$AAi?$AAx?$AAe?$AAd?$AAM?$AAs?$AAd?$AAu?$AAS?$AAi?$AAz?$AAe?$AA?$AA@ 10008fb0     oscommon:osRgstry.obj
 0001:00007ff0       ??_C@_1DC@KJHFBCFI@?$AAT?$AAr?$AAa?$AAf?$AAf?$AAi?$AAc?$AAA?$AAd?$AAm?$AAC?$AAo?$AAn?$AAt?$AAr?$AAo?$AAl?$AAT?$AAi?$AAm?$AAe?$AAo?$AAu?$AAt?$AA?$AA@ 10008ff0     oscommon:osRgstry.obj
 0001:00008024       ??_C@_1CO@OCJNPEPE@?$AAC?$AAr?$AAe?$AAd?$AAi?$AAt?$AAC?$AAa?$AAl?$AAc?$AAT?$AAi?$AAm?$AAe?$AAr?$AAE?$AAn?$AAa?$AAb?$AAl?$AAe?$AAd?$AA?$AA@ 10009024     oscommon:osRgstry.obj
 0001:00008054       ??_C@_1CC@DKPIACOO@?$AAC?$AAr?$AAe?$AAd?$AAi?$AAt?$AAC?$AAa?$AAl?$AAc?$AAT?$AAi?$AAm?$AAo?$AAu?$AAt?$AA?$AA@ 10009054     oscommon:osRgstry.obj
 0001:00008078       ??_C@_1CA@EIDEJJFF@?$AAC?$AAo?$AAn?$AAn?$AAS?$AAe?$AAl?$AAf?$AAT?$AAi?$AAm?$AAe?$AAo?$AAu?$AAt?$AA?$AA@ 10009078     oscommon:osRgstry.obj
 0001:00008098       ??_C@_1EA@ONGCOLHF@?$AAd?$AAo?$AAt?$AA1?$AA1?$AAA?$AAs?$AAs?$AAo?$AAc?$AAi?$AAa?$AAt?$AAi?$AAo?$AAn?$AAR?$AAe?$AAs?$AAp?$AAo?$AAn?$AAs?$AAe?$AAT?$AAi?$AAm?$AAe?$AAo?$AAu?$AAt?$AA?$AA@ 10009098     oscommon:osRgstry.obj
 0001:000080d8       ??_C@_1EG@HFBPEHDO@?$AAd?$AAo?$AAt?$AA1?$AA1?$AAA?$AAu?$AAt?$AAh?$AAe?$AAn?$AAt?$AAi?$AAc?$AAa?$AAt?$AAi?$AAo?$AAn?$AAR?$AAe?$AAs?$AAp?$AAo?$AAn?$AAs?$AAe?$AAT?$AAi?$AAm?$AAe?$AAo@ 100090d8     oscommon:osRgstry.obj
 0001:00008120       ??_C@_1CG@NIOBGNIA@?$AAd?$AAo?$AAt?$AA1?$AA1?$AAM?$AAa?$AAx?$AAA?$AAs?$AAs?$AAo?$AAc?$AAR?$AAe?$AAt?$AAr?$AAy?$AA?$AA@ 10009120     oscommon:osRgstry.obj
 0001:00008148       ??_C@_1CE@PJPHBEMN@?$AAd?$AAo?$AAt?$AA1?$AA1?$AAM?$AAa?$AAx?$AAA?$AAu?$AAt?$AAh?$AAR?$AAe?$AAt?$AAr?$AAy?$AA?$AA@ 10009148     oscommon:osRgstry.obj
 0001:0000816c       ??_C@_1CK@LJKDNLHB@?$AAd?$AAo?$AAt?$AA1?$AA1?$AAM?$AAa?$AAx?$AAS?$AAi?$AAt?$AAe?$AAL?$AAi?$AAf?$AAe?$AAt?$AAi?$AAm?$AAe?$AA?$AA@ 1000916c     oscommon:osRgstry.obj
 0001:00008198       ??_C@_1CC@MMDBNENA@?$AAd?$AAo?$AAt?$AA1?$AA1?$AAM?$AAi?$AAn?$AAS?$AAc?$AAa?$AAn?$AAT?$AAi?$AAm?$AAe?$AA?$AA@ 10009198     oscommon:osRgstry.obj
 0001:000081bc       ??_C@_1CC@BBJHMECA@?$AAd?$AAo?$AAt?$AA1?$AA1?$AAM?$AAa?$AAx?$AAS?$AAc?$AAa?$AAn?$AAT?$AAi?$AAm?$AAe?$AA?$AA@ 100091bc     oscommon:osRgstry.obj
 0001:000081e0       ??_C@_1CE@CDMOEKEO@?$AAd?$AAo?$AAt?$AA1?$AA1?$AAB?$AAe?$AAa?$AAc?$AAo?$AAn?$AAP?$AAe?$AAr?$AAi?$AAo?$AAd?$AA?$AA@ 100091e0     oscommon:osRgstry.obj
 0001:00008204       ??_C@_1DE@ILCJELIG@?$AAd?$AAo?$AAt?$AA1?$AA1?$AAS?$AAh?$AAo?$AAr?$AAt?$AAP?$AAr?$AAe?$AAa?$AAm?$AAb?$AAl?$AAe?$AAI?$AAn?$AAv?$AAo?$AAk?$AAe?$AAd?$AA?$AA@ 10009204     oscommon:osRgstry.obj
 0001:00008238       ??_C@_1CE@GJLJODBA@?$AAg?$AA8?$AA0?$AA2?$AA1?$AA1?$AAD?$AAr?$AAa?$AAf?$AAt?$AAN?$AAu?$AAm?$AAb?$AAe?$AAr?$AA?$AA@ 10009238     oscommon:osRgstry.obj
 0001:0000825c       ??_C@_1BK@PPMKDNDJ@?$AAA?$AAr?$AAm?$AAC?$AAl?$AAo?$AAc?$AAk?$AAR?$AAa?$AAt?$AAe?$AA?$AA@ 1000925c     oscommon:osRgstry.obj
 0001:00008278       ??_C@_1BK@GMLACMMO@?$AAM?$AAa?$AAc?$AAC?$AAl?$AAo?$AAc?$AAk?$AAR?$AAa?$AAt?$AAe?$AA?$AA@ 10009278     oscommon:osRgstry.obj
 0001:00008294       ??_C@_1CO@COODGIOP@?$AAT?$AAd?$AAd?$AAC?$AAa?$AAl?$AAi?$AAb?$AAr?$AAa?$AAt?$AAi?$AAo?$AAn?$AAI?$AAn?$AAt?$AAe?$AAr?$AAv?$AAa?$AAl?$AA?$AA@ 10009294     oscommon:osRgstry.obj
 0001:000082c4       ??_C@_1CO@DLGFHIKC@?$AAC?$AAr?$AAt?$AAC?$AAa?$AAl?$AAi?$AAb?$AAr?$AAa?$AAt?$AAi?$AAo?$AAn?$AAI?$AAn?$AAt?$AAe?$AAr?$AAv?$AAa?$AAl?$AA?$AA@ 100092c4     oscommon:osRgstry.obj
 0001:000082f4       ??_C@_1BK@BDOPMMEG@?$AAC?$AAh?$AA1?$AA4?$AAT?$AAe?$AAl?$AAe?$AAc?$AAC?$AAC?$AAA?$AA?$AA@ 100092f4     oscommon:osRgstry.obj
 0001:00008310       ??_C@_1CE@DOHAPJAJ@?$AAR?$AAx?$AAE?$AAn?$AAe?$AAr?$AAg?$AAy?$AAD?$AAe?$AAt?$AAe?$AAc?$AAt?$AAi?$AAo?$AAn?$AA?$AA@ 10009310     oscommon:osRgstry.obj
 0001:00008334       ??_C@_1CM@EJDEKKDG@?$AAd?$AAo?$AAt?$AA1?$AA1?$AAR?$AAt?$AAs?$AAC?$AAt?$AAs?$AAP?$AAr?$AAo?$AAt?$AAe?$AAc?$AAt?$AAi?$AAo?$AAn?$AA?$AA@ 10009334     oscommon:osRgstry.obj
 0001:00008360       ??_C@_1CG@KAGCILGM@?$AAI?$AAb?$AAs?$AAs?$AAP?$AAr?$AAo?$AAt?$AAe?$AAc?$AAt?$AAi?$AAo?$AAn?$AAT?$AAy?$AAp?$AAe?$AA?$AA@ 10009360     oscommon:osRgstry.obj
 0001:00008388       ??_C@_1BM@LABGMGDL@?$AAS?$AAh?$AAo?$AAr?$AAt?$AAS?$AAl?$AAo?$AAt?$AAT?$AAi?$AAm?$AAe?$AA?$AA@ 10009388     oscommon:osRgstry.obj
 0001:000083a4       ??_C@_1DA@CBPKFFLF@?$AAd?$AAo?$AAt?$AA1?$AA1?$AAD?$AAe?$AAf?$AAa?$AAu?$AAl?$AAt?$AAN?$AAe?$AAt?$AAw?$AAo?$AAr?$AAk?$AAT?$AAy?$AAp?$AAe?$AA?$AA@ 100093a4     oscommon:osRgstry.obj
 0001:000083d4       ??_C@_1CC@HGFBDBNE@?$AAd?$AAo?$AAt?$AA1?$AA1?$AAN?$AAe?$AAt?$AAw?$AAo?$AAr?$AAk?$AAT?$AAy?$AAp?$AAe?$AA?$AA@ 100093d4     oscommon:osRgstry.obj
 0001:000083f8       ??_C@_1BK@EHCODDAO@?$AAR?$AAa?$AAd?$AAi?$AAo?$AA0?$AAD?$AA_?$AAR?$AAS?$AAS?$AAI?$AA?$AA@ 100093f8     oscommon:osRgstry.obj
 0001:00008414       ??_C@_1BI@PIKFBOMA@?$AAR?$AAa?$AAd?$AAi?$AAo?$AA0?$AAD?$AA_?$AAL?$AAN?$AAA?$AA?$AA@ 10009414     oscommon:osRgstry.obj
 0001:0000842c       ??_C@_1CA@DPEHMMN@?$AAR?$AAa?$AAd?$AAi?$AAo?$AA0?$AAD?$AA_?$AAR?$AAx?$AAL?$AAe?$AAv?$AAe?$AAl?$AA?$AA@ 1000942c     oscommon:osRgstry.obj
 0001:0000844c       ??_C@_1BK@IHIKHPLH@?$AAR?$AAa?$AAd?$AAi?$AAo?$AA1?$AA1?$AA_?$AAR?$AAS?$AAS?$AAI?$AA?$AA@ 1000944c     oscommon:osRgstry.obj
 0001:00008468       ??_C@_1BI@NJEDAJFC@?$AAR?$AAa?$AAd?$AAi?$AAo?$AA1?$AA1?$AA_?$AAL?$AAN?$AAA?$AA?$AA@ 10009468     oscommon:osRgstry.obj
 0001:00008480       ??_C@_1CA@PAJEJDCK@?$AAR?$AAa?$AAd?$AAi?$AAo?$AA1?$AA1?$AA_?$AAR?$AAx?$AAL?$AAe?$AAv?$AAe?$AAl?$AA?$AA@ 10009480     oscommon:osRgstry.obj
 0001:000084a0       ??_C@_1DA@MGCECOLC@?$AAd?$AAo?$AAt?$AA1?$AA1?$AAS?$AAu?$AAp?$AAp?$AAo?$AAr?$AAt?$AAe?$AAd?$AAR?$AAa?$AAt?$AAe?$AAM?$AAa?$AAs?$AAk?$AAN?$AA?$AA@ 100094a0     oscommon:osRgstry.obj
 0001:000084d0       ??_C@_1CI@DCDAJIEG@?$AAd?$AAo?$AAt?$AA1?$AA1?$AAB?$AAa?$AAs?$AAi?$AAc?$AAR?$AAa?$AAt?$AAe?$AAM?$AAa?$AAs?$AAk?$AAN?$AA?$AA@ 100094d0     oscommon:osRgstry.obj
 0001:000084f8       ??_C@_1DC@PNLANFIA@?$AAd?$AAo?$AAt?$AA1?$AA1?$AAS?$AAu?$AAp?$AAp?$AAo?$AAr?$AAt?$AAe?$AAd?$AAR?$AAa?$AAt?$AAe?$AAM?$AAa?$AAs?$AAk?$AAA?$AAG?$AA?$AA@ 100094f8     oscommon:osRgstry.obj
 0001:0000852c       ??_C@_1CK@KPGCBDJE@?$AAd?$AAo?$AAt?$AA1?$AA1?$AAB?$AAa?$AAs?$AAi?$AAc?$AAR?$AAa?$AAt?$AAe?$AAM?$AAa?$AAs?$AAk?$AAA?$AAG?$AA?$AA@ 1000952c     oscommon:osRgstry.obj
 0001:00008558       ??_C@_1DA@JOEHDOOE@?$AAd?$AAo?$AAt?$AA1?$AA1?$AAS?$AAu?$AAp?$AAp?$AAo?$AAr?$AAt?$AAe?$AAd?$AAR?$AAa?$AAt?$AAe?$AAM?$AAa?$AAs?$AAk?$AAA?$AA?$AA@ 10009558     oscommon:osRgstry.obj
 0001:00008588       ??_C@_1CI@GKFDIIBA@?$AAd?$AAo?$AAt?$AA1?$AA1?$AAB?$AAa?$AAs?$AAi?$AAc?$AAR?$AAa?$AAt?$AAe?$AAM?$AAa?$AAs?$AAk?$AAA?$AA?$AA@ 10009588     oscommon:osRgstry.obj
 0001:000085b0       ??_C@_1DA@LLCMGBDI@?$AAd?$AAo?$AAt?$AA1?$AA1?$AAS?$AAu?$AAp?$AAp?$AAo?$AAr?$AAt?$AAe?$AAd?$AAR?$AAa?$AAt?$AAe?$AAM?$AAa?$AAs?$AAk?$AAG?$AA?$AA@ 100095b0     oscommon:osRgstry.obj
 0001:000085e0       ??_C@_1CI@EPDINHMM@?$AAd?$AAo?$AAt?$AA1?$AA1?$AAB?$AAa?$AAs?$AAi?$AAc?$AAR?$AAa?$AAt?$AAe?$AAM?$AAa?$AAs?$AAk?$AAG?$AA?$AA@ 100095e0     oscommon:osRgstry.obj
 0001:00008608       ??_C@_1DA@IMPCJBAK@?$AAd?$AAo?$AAt?$AA1?$AA1?$AAS?$AAu?$AAp?$AAp?$AAo?$AAr?$AAt?$AAe?$AAd?$AAR?$AAa?$AAt?$AAe?$AAM?$AAa?$AAs?$AAk?$AAB?$AA?$AA@ 10009608     oscommon:osRgstry.obj
 0001:00008638       ??_C@_1CI@HIOGCHPO@?$AAd?$AAo?$AAt?$AA1?$AA1?$AAB?$AAa?$AAs?$AAi?$AAc?$AAR?$AAa?$AAt?$AAe?$AAM?$AAa?$AAs?$AAk?$AAB?$AA?$AA@ 10009638     oscommon:osRgstry.obj
 0001:00008660       ??_C@_1CI@OJHCKGON@?$AAd?$AAo?$AAt?$AA1?$AA1?$AAD?$AAe?$AAs?$AAi?$AAr?$AAe?$AAd?$AAB?$AAS?$AAS?$AAT?$AAy?$AAp?$AAe?$AA?$AA@ 10009660     oscommon:osRgstry.obj
 0001:00008688       ??_C@_1CC@IELKKHKE@?$AAd?$AAo?$AAt?$AA1?$AA1?$AAD?$AAe?$AAs?$AAi?$AAr?$AAe?$AAd?$AAS?$AAS?$AAI?$AAD?$AA?$AA@ 10009688     oscommon:osRgstry.obj
 0001:000086ac       ??_C@_1CI@HMFKBGNP@?$AAd?$AAo?$AAt?$AA1?$AA1?$AAD?$AAe?$AAs?$AAi?$AAr?$AAe?$AAd?$AAC?$AAh?$AAa?$AAn?$AAn?$AAe?$AAl?$AA?$AA@ 100096ac     oscommon:osRgstry.obj
 0001:000086d4       ??_C@_1CC@KAEMMJML@?$AAT?$AAx?$AAS?$AAe?$AAn?$AAd?$AAP?$AAa?$AAc?$AAe?$AAT?$AAh?$AAr?$AAe?$AAs?$AAh?$AA?$AA@ 100096d4     oscommon:osRgstry.obj
 0001:000086f8       ??_C@_1BO@BMGJIIAP@?$AAS?$AAt?$AAo?$AAp?$AAN?$AAe?$AAt?$AAS?$AAt?$AAa?$AAc?$AAk?$AAT?$AAx?$AA?$AA@ 100096f8     oscommon:osRgstry.obj
 0001:00008718       ??_C@_1BC@PIEMALFD@?$AAW?$AAi?$AAF?$AAi?$AAM?$AAo?$AAd?$AAe?$AA?$AA@ 10009718     oscommon:osRgstry.obj
 0001:0000872c       ??_C@_1BE@HGNONHIK@?$AAW?$AAi?$AAF?$AAi?$AAW?$AAm?$AAm?$AAP?$AAS?$AA?$AA@ 1000972c     oscommon:osRgstry.obj
 0001:00008740       ??_C@_1BE@CEAJPHOB@?$AAW?$AAi?$AAF?$AAi?$AAA?$AAd?$AAh?$AAo?$AAc?$AA?$AA@ 10009740     oscommon:osRgstry.obj
 0001:00008754       ??_C@_1CG@MGAIJKE@?$AAD?$AAr?$AAi?$AAv?$AAe?$AAr?$AAE?$AAx?$AAt?$AAe?$AAr?$AAn?$AAa?$AAl?$AAM?$AAo?$AAd?$AAe?$AA?$AA@ 10009754     oscommon:osRgstry.obj
 0001:0000877c       ??_C@_1CI@CMJJCOP@?$AAd?$AAo?$AAt?$AA1?$AA1?$AAL?$AAi?$AAs?$AAt?$AAe?$AAn?$AAI?$AAn?$AAt?$AAe?$AAr?$AAv?$AAa?$AAl?$AA?$AA@ 1000977c     oscommon:osRgstry.obj
 0001:000087a4       ??_C@_1CK@MMCAEJIG@?$AAR?$AAe?$AAA?$AAu?$AAt?$AAh?$AAA?$AAc?$AAt?$AAi?$AAv?$AAe?$AAP?$AAr?$AAi?$AAo?$AAr?$AAi?$AAt?$AAy?$AA?$AA@ 100097a4     oscommon:osRgstry.obj
 0001:000087d0       ??_C@_1DI@ODDKIMHO@?$AAd?$AAo?$AAt?$AA1?$AA1?$AAR?$AAa?$AAt?$AAe?$AAF?$AAa?$AAl?$AAl?$AAB?$AAa?$AAc?$AAk?$AAR?$AAe?$AAt?$AAr?$AAy?$AAL?$AAi?$AAm?$AAi?$AAt?$AA?$AA@ 100097d0     oscommon:osRgstry.obj
 0001:00008808       ??_C@_1DA@OFKIBIHI@?$AAd?$AAo?$AAt?$AA1?$AA1?$AAM?$AAa?$AAx?$AAR?$AAe?$AAc?$AAe?$AAi?$AAv?$AAe?$AAL?$AAi?$AAf?$AAe?$AAt?$AAi?$AAm?$AAe?$AA?$AA@ 10009808     oscommon:osRgstry.obj
 0001:00008838       ??_C@_1DK@DIHIAAFJ@?$AAd?$AAo?$AAt?$AA1?$AA1?$AAM?$AAa?$AAx?$AAT?$AAr?$AAa?$AAn?$AAs?$AAm?$AAi?$AAt?$AAM?$AAS?$AAD?$AAU?$AAL?$AAi?$AAf?$AAe?$AAt?$AAi?$AAm?$AAe?$AA?$AA@ 10009838     oscommon:osRgstry.obj
 0001:00008874       ??_C@_1DI@ICDLLHJA@?$AAd?$AAo?$AAt?$AA1?$AA1?$AAF?$AAr?$AAa?$AAg?$AAm?$AAe?$AAn?$AAt?$AAa?$AAt?$AAi?$AAo?$AAn?$AAT?$AAh?$AAr?$AAe?$AAs?$AAh?$AAo?$AAl?$AAd?$AA?$AA@ 10009874     oscommon:osRgstry.obj
 0001:000088ac       ??_C@_1CO@BCNBIKDH@?$AAT?$AAx?$AAA?$AAg?$AAg?$AAr?$AAe?$AAg?$AAa?$AAt?$AAi?$AAo?$AAn?$AAP?$AAk?$AAt?$AAs?$AAL?$AAi?$AAm?$AAi?$AAt?$AA?$AA@ 100098ac     oscommon:osRgstry.obj
 0001:000088dc       ??_C@_1CO@MJBFNFBM@?$AAR?$AAx?$AAA?$AAg?$AAg?$AAr?$AAe?$AAg?$AAa?$AAt?$AAi?$AAo?$AAn?$AAP?$AAk?$AAt?$AAs?$AAL?$AAi?$AAm?$AAi?$AAt?$AA?$AA@ 100098dc     oscommon:osRgstry.obj
 0001:0000890c       ??_C@_1CG@LAFBDMGH@?$AAR?$AAx?$AAI?$AAn?$AAt?$AAe?$AAr?$AAr?$AAu?$AAp?$AAt?$AAT?$AAi?$AAm?$AAe?$AAo?$AAu?$AAt?$AA?$AA@ 1000990c     oscommon:osRgstry.obj
 0001:00008934       ??_C@_1CK@FFDPMLLP@?$AAR?$AAx?$AAI?$AAn?$AAt?$AAe?$AAr?$AAr?$AAu?$AAp?$AAt?$AAT?$AAh?$AAr?$AAe?$AAs?$AAh?$AAo?$AAl?$AAd?$AA?$AA@ 10009934     oscommon:osRgstry.obj
 0001:00008960       ??_C@_1CE@OBFHIEKF@?$AAT?$AAx?$AAC?$AAo?$AAm?$AAp?$AAl?$AAe?$AAt?$AAe?$AAT?$AAi?$AAm?$AAe?$AAo?$AAu?$AAt?$AA?$AA@ 10009960     oscommon:osRgstry.obj
 0001:00008984       ??_C@_1CI@IAAIEHO@?$AAT?$AAx?$AAC?$AAo?$AAm?$AAp?$AAl?$AAe?$AAt?$AAe?$AAT?$AAh?$AAr?$AAe?$AAs?$AAh?$AAo?$AAl?$AAd?$AA?$AA@ 10009984     oscommon:osRgstry.obj
 0001:000089ac       ??_C@_1BO@DKAILNCJ@?$AAd?$AAo?$AAt?$AA1?$AA1?$AAR?$AAx?$AAA?$AAn?$AAt?$AAe?$AAn?$AAn?$AAa?$AA?$AA@ 100099ac     oscommon:osRgstry.obj
 0001:000089cc       ??_C@_1BO@LOCLCAPM@?$AAd?$AAo?$AAt?$AA1?$AA1?$AAT?$AAx?$AAA?$AAn?$AAt?$AAe?$AAn?$AAn?$AAa?$AA?$AA@ 100099cc     oscommon:osRgstry.obj
 0001:000089ec       ??_C@_1BO@LJFGPACN@?$AAR?$AAe?$AAc?$AAo?$AAv?$AAe?$AAr?$AAy?$AAE?$AAn?$AAa?$AAb?$AAl?$AAe?$AA?$AA@ 100099ec     oscommon:osRgstry.obj
 0001:00008a0c       ??_C@_1CG@BJFBBDPN@?$AAR?$AAx?$AAD?$AAi?$AAs?$AAa?$AAb?$AAl?$AAe?$AAB?$AAr?$AAo?$AAa?$AAd?$AAc?$AAa?$AAs?$AAt?$AA?$AA@ 10009a0c     oscommon:osRgstry.obj
 0001:00008a34       ??_C@_1CE@IBEOFGBG@?$AAd?$AAo?$AAt?$AA1?$AA1?$AAR?$AAT?$AAS?$AAT?$AAh?$AAr?$AAe?$AAs?$AAh?$AAo?$AAl?$AAd?$AA?$AA@ 10009a34     oscommon:osRgstry.obj
 0001:00008a58       ??_C@_1CI@KKKFOOLN@?$AAC?$AAa?$AAl?$AAi?$AAb?$AAr?$AAa?$AAt?$AAi?$AAo?$AAn?$AAC?$AAh?$AAa?$AAn?$AAn?$AAe?$AAl?$AA5?$AA?$AA@ 10009a58     oscommon:osRgstry.obj
 0001:00008a80       ??_C@_1CK@HEJFOKGB@?$AAC?$AAa?$AAl?$AAi?$AAb?$AAr?$AAa?$AAt?$AAi?$AAo?$AAn?$AAC?$AAh?$AAa?$AAn?$AAn?$AAe?$AAl?$AA2?$AA4?$AA?$AA@ 10009a80     oscommon:osRgstry.obj
 0001:00008aac       ??_C@_1DC@PICOOMGD@?$AAA?$AAC?$AAX?$AAU?$AAs?$AAe?$AAI?$AAn?$AAt?$AAe?$AAr?$AAr?$AAu?$AAp?$AAt?$AAT?$AAh?$AAr?$AAe?$AAs?$AAh?$AAo?$AAl?$AAd?$AA?$AA@ 10009aac     oscommon:osRgstry.obj
 0001:00008ae0       ??_C@_1CM@KKJLOMKB@?$AAA?$AAC?$AAX?$AAU?$AAs?$AAe?$AAT?$AAx?$AAD?$AAa?$AAt?$AAa?$AAI?$AAn?$AAt?$AAe?$AAr?$AAr?$AAu?$AAp?$AAt?$AA?$AA@ 10009ae0     oscommon:osRgstry.obj
 0001:00008b0c       ??_C@_1CG@OFONOLML@?$AAA?$AAC?$AAX?$AAM?$AAe?$AAm?$AAo?$AAr?$AAy?$AAB?$AAl?$AAo?$AAc?$AAk?$AAS?$AAi?$AAz?$AAe?$AA?$AA@ 10009b0c     oscommon:osRgstry.obj
 0001:00008b34       ??_C@_1CK@JNICILED@?$AAN?$AAu?$AAm?$AAH?$AAo?$AAs?$AAt?$AAT?$AAx?$AAD?$AAe?$AAs?$AAc?$AAr?$AAi?$AAp?$AAt?$AAo?$AAr?$AAs?$AA?$AA@ 10009b34     oscommon:osRgstry.obj
 0001:00008b60       ??_C@_1CK@JIDOIFAN@?$AAN?$AAu?$AAm?$AAH?$AAo?$AAs?$AAt?$AAR?$AAx?$AAD?$AAe?$AAs?$AAc?$AAr?$AAi?$AAp?$AAt?$AAo?$AAr?$AAs?$AA?$AA@ 10009b60     oscommon:osRgstry.obj
 0001:00008b8c       ??_C@_1CI@EKLNMFPF@?$AAB?$AAe?$AAt?$AAD?$AAi?$AAs?$AAa?$AAb?$AAl?$AAe?$AAT?$AAh?$AAr?$AAe?$AAs?$AAh?$AAo?$AAl?$AAd?$AA?$AA@ 10009b8c     oscommon:osRgstry.obj
 0001:00008bb4       ??_C@_1CG@EKNMHNFO@?$AAB?$AAe?$AAt?$AAE?$AAn?$AAa?$AAb?$AAl?$AAe?$AAT?$AAh?$AAr?$AAe?$AAs?$AAh?$AAo?$AAl?$AAd?$AA?$AA@ 10009bb4     oscommon:osRgstry.obj
 0001:00008be0       ??_C@_1EA@FIDEEACB@?$AAM?$AAa?$AAx?$AAl?$AAF?$AAu?$AAl?$AAl?$AAB?$AAe?$AAa?$AAc?$AAo?$AAn?$AAR?$AAe?$AAc?$AAe?$AAp?$AAt?$AAi?$AAo?$AAn?$AAI?$AAn?$AAt?$AAe?$AAr?$AAv?$AAa?$AAl?$AA?$AA@ 10009be0     oscommon:osRgstry.obj
 0001:00008c20       ??_C@_1CE@HADHJHI@?$AAB?$AAe?$AAt?$AAM?$AAa?$AAx?$AAC?$AAo?$AAn?$AAs?$AAe?$AAc?$AAu?$AAt?$AAi?$AAv?$AAe?$AA?$AA@ 10009c20     oscommon:osRgstry.obj
 0001:00008c44       ??_C@_1BE@NMCGMCND@?$AAB?$AAe?$AAt?$AAE?$AAn?$AAa?$AAb?$AAl?$AAe?$AA?$AA@ 10009c44     oscommon:osRgstry.obj
 0001:00008c58       ??_C@_1BM@HCFNFBOO@?$AAT?$AAx?$AAF?$AAl?$AAa?$AAs?$AAh?$AAE?$AAn?$AAa?$AAb?$AAl?$AAe?$AA?$AA@ 10009c58     oscommon:osRgstry.obj
 0001:00008c74       ??_C@_1CI@CJJOHNCC@?$AAM?$AAa?$AAx?$AAS?$AAi?$AAt?$AAe?$AAs?$AAF?$AAr?$AAa?$AAg?$AAC?$AAo?$AAl?$AAl?$AAe?$AAc?$AAt?$AA?$AA@ 10009c74     oscommon:osRgstry.obj
 0001:00008c9c       ??_C@_1CE@IMJPFAGL@?$AAH?$AAw?$AAA?$AAC?$AAX?$AAA?$AAc?$AAc?$AAe?$AAs?$AAs?$AAM?$AAe?$AAt?$AAh?$AAo?$AAd?$AA?$AA@ 10009c9c     oscommon:osRgstry.obj
 0001:00008cc0       ??_C@_1BG@JHLDHDNE@?$AAP?$AAr?$AAi?$AAn?$AAt?$AAT?$AAr?$AAa?$AAc?$AAe?$AA?$AA@ 10009cc0     oscommon:osRgstry.obj
 0001:00008cd8       ??_C@_1CA@KFILGNPO@?$AAT?$AAr?$AAa?$AAc?$AAe?$AAB?$AAu?$AAf?$AAf?$AAe?$AAr?$AAS?$AAi?$AAz?$AAe?$AA?$AA@ 10009cd8     oscommon:osRgstry.obj
 0001:00008cf8       ??_C@_1BM@DNOKAJAJ@?$AAF?$AAi?$AAr?$AAm?$AAw?$AAa?$AAr?$AAe?$AAD?$AAe?$AAb?$AAu?$AAg?$AA?$AA@ 10009cf8     oscommon:osRgstry.obj
 0001:00008d14       ??_C@_1DE@IBMCKOFI@?$AAC?$AAo?$AAe?$AAx?$AA_?$AAA?$AAc?$AAt?$AAi?$AAv?$AAi?$AAt?$AAy?$AA_?$AAN?$AAu?$AAm?$AA_?$AAO?$AAf?$AA_?$AAE?$AAl?$AAe?$AAm?$AA?$AA@ 10009d14     oscommon:osRgstry.obj
 0001:00008d48       ??_C@_1CI@GCGNEHDG@?$AAC?$AAo?$AAe?$AAx?$AA_?$AAA?$AAc?$AAt?$AAi?$AAv?$AAi?$AAt?$AAy?$AA_?$AAT?$AAa?$AAb?$AAl?$AAe?$AA?$AA@ 10009d48     oscommon:osRgstry.obj
 0001:00008d70       ??_C@_1CM@IMLJAAEP@?$AAB?$AAe?$AAa?$AAc?$AAo?$AAn?$AA_?$AAI?$AAE?$AA_?$AAN?$AAu?$AAm?$AA_?$AAO?$AAf?$AA_?$AAE?$AAl?$AAe?$AAm?$AA?$AA@ 10009d70     oscommon:osRgstry.obj
 0001:00008d9c       ??_C@_1CA@OADBDKGA@?$AAB?$AAe?$AAa?$AAc?$AAo?$AAn?$AA_?$AAI?$AAE?$AA_?$AAT?$AAa?$AAb?$AAl?$AAe?$AA?$AA@ 10009d9c     oscommon:osRgstry.obj
 0001:00008dbc       ??_C@_1CK@FFBGNBPI@?$AAB?$AAe?$AAa?$AAc?$AAo?$AAn?$AA_?$AAI?$AAE?$AA_?$AAT?$AAa?$AAb?$AAl?$AAe?$AA_?$AAS?$AAi?$AAz?$AAe?$AA?$AA@ 10009dbc     oscommon:osRgstry.obj
 0001:00008de8       ??_C@_1CK@GGOPNFHI@?$AAB?$AAe?$AAa?$AAc?$AAo?$AAn?$AA_?$AAF?$AAi?$AAl?$AAt?$AAe?$AAr?$AA_?$AAS?$AAt?$AAo?$AAr?$AAe?$AAd?$AA?$AA@ 10009de8     oscommon:osRgstry.obj
 0001:00008e14       ??_C@_1DI@BGFOEPLE@?$AAB?$AAe?$AAa?$AAc?$AAo?$AAn?$AA_?$AAF?$AAi?$AAl?$AAt?$AAe?$AAr?$AA_?$AAD?$AAe?$AAs?$AAi?$AAr?$AAe?$AAd?$AA_?$AAS?$AAt?$AAa?$AAt?$AAe?$AA?$AA@ 10009e14     oscommon:osRgstry.obj
 0001:00008e4c       ??_C@_1CC@OLONBKKH@?$AAA?$AAr?$AAp?$AAI?$AAp?$AA_?$AAF?$AAi?$AAl?$AAt?$AAe?$AAr?$AA_?$AAe?$AAn?$AAa?$AA?$AA@ 10009e4c     oscommon:osRgstry.obj
 0001:00008e70       ??_C@_1BG@GGNLNJHM@?$AAA?$AAr?$AAp?$AAI?$AAp?$AA_?$AAA?$AAd?$AAd?$AAr?$AA?$AA@ 10009e70     oscommon:osRgstry.obj
 0001:00008e88       ??_C@_1BI@ELPGOMHD@?$AAE?$AAa?$AAr?$AAl?$AAy?$AAW?$AAa?$AAk?$AAe?$AAu?$AAp?$AA?$AA@ 10009e88     oscommon:osRgstry.obj
 0001:00008ea0       ??_C@_1BI@EKDADFMH@?$AAG?$AAr?$AAo?$AAu?$AAp?$AA_?$AAa?$AAd?$AAd?$AAr?$AA7?$AA?$AA@ 10009ea0     oscommon:osRgstry.obj
 0001:00008eb8       ??_C@_1BI@PCIMFCKC@?$AAG?$AAr?$AAo?$AAu?$AAp?$AA_?$AAa?$AAd?$AAd?$AAr?$AA6?$AA?$AA@ 10009eb8     oscommon:osRgstry.obj
 0001:00008ed0       ??_C@_1BI@OADJPNEM@?$AAG?$AAr?$AAo?$AAu?$AAp?$AA_?$AAa?$AAd?$AAd?$AAr?$AA5?$AA?$AA@ 10009ed0     oscommon:osRgstry.obj
 0001:00008ee8       ??_C@_1BI@FIIFJKCJ@?$AAG?$AAr?$AAo?$AAu?$AAp?$AA_?$AAa?$AAd?$AAd?$AAr?$AA4?$AA?$AA@ 10009ee8     oscommon:osRgstry.obj
 0001:00008f00       ??_C@_1BI@MFFCKCJA@?$AAG?$AAr?$AAo?$AAu?$AAp?$AA_?$AAa?$AAd?$AAd?$AAr?$AA3?$AA?$AA@ 10009f00     oscommon:osRgstry.obj
 0001:00008f18       ??_C@_1BI@HNOOMFPF@?$AAG?$AAr?$AAo?$AAu?$AAp?$AA_?$AAa?$AAd?$AAd?$AAr?$AA2?$AA?$AA@ 10009f18     oscommon:osRgstry.obj
 0001:00008f30       ??_C@_1BI@GPFLGKBL@?$AAG?$AAr?$AAo?$AAu?$AAp?$AA_?$AAa?$AAd?$AAd?$AAr?$AA1?$AA?$AA@ 10009f30     oscommon:osRgstry.obj
 0001:00008f48       ??_C@_1BI@NHOHANHO@?$AAG?$AAr?$AAo?$AAu?$AAp?$AA_?$AAa?$AAd?$AAd?$AAr?$AA0?$AA?$AA@ 10009f48     oscommon:osRgstry.obj
 0001:00008f60       ??_C@_1BM@ONICGNH@?$AAn?$AAu?$AAm?$AAG?$AAr?$AAo?$AAu?$AAp?$AAA?$AAd?$AAd?$AAr?$AAs?$AA?$AA@ 10009f60     oscommon:osRgstry.obj
 0001:00008f7c       ??_C@_1CG@MNNIPGPB@?$AAM?$AAa?$AAc?$AA_?$AAF?$AAi?$AAl?$AAt?$AAe?$AAr?$AA_?$AAE?$AAn?$AAa?$AAb?$AAl?$AAe?$AAd?$AA?$AA@ 10009f7c     oscommon:osRgstry.obj
 0001:00008fa4       ??_C@_1CE@MLDJAFCC@?$AAR?$AAe?$AAp?$AAo?$AAr?$AAt?$AAM?$AAo?$AAd?$AAu?$AAl?$AAe?$AAT?$AAa?$AAb?$AAl?$AAe?$AA?$AA@ 10009fa4     oscommon:osRgstry.obj
 0001:00008fc8       ??_C@_1CI@ICLIICDI@?$AAR?$AAe?$AAp?$AAo?$AAr?$AAt?$AAS?$AAe?$AAv?$AAe?$AAr?$AAi?$AAt?$AAy?$AAT?$AAa?$AAb?$AAl?$AAe?$AA?$AA@ 10009fc8     oscommon:osRgstry.obj
 0001:00008ff0       ??_C@_0DG@CGAIKEPA@Read?5String?5Registry?3?5?5?$CFc?$CFc?$CFc?$CFc?$CF@ 10009ff0     oscommon:osRgstry.obj
 0001:00009028       ??_C@_0CG@FOHMFKLK@First?55?5bytes?5of?5WEP?3?5?$CFx?9?$CFx?9?$CFx?9?$CF@ 1000a028     oscommon:osRgstry.obj
 0001:00009050       ??_C@_0BH@LIHONPLH@TIWL?3?5New?5Flag?5?9?50x?$CFX?6?$AA@ 1000a050     oscommon:osRgstry.obj
 0001:00009068       ??_C@_1BG@PDPAAMNM@?$AAO?$AAs?$AAD?$AAb?$AAg?$AAS?$AAt?$AAa?$AAt?$AAe?$AA?$AA@ 1000a068     oscommon:osRgstry.obj
 0001:00009080       ??_C@_0CJ@EDMLDKCK@?$CFs?$CI?$CFd?$CJ?5Error?5?9?5unexpected?5parame@ 1000a080     oscommon:osRgstry.obj
 0001:000090b0       ??_C@_0FM@IOAEEGHI@C?3?2WINCE600?23rdParty?2AdeneoEmbed@ 1000a0b0     oscommon:osRgstry.obj
 0001:0000910c       ??_C@_0DB@PCMPDKFA@?$CFs?$CI?$CFd?$CJ?5Error?5?9?5Illegal?5Registry?5@ 1000a10c     oscommon:osRgstry.obj
 0001:00009140       ??_C@_0HJ@FJOOAKGK@Error?5in?5read?5parameter?5?$CFc?5in?5li@ 1000a140     oscommon:osRgstry.obj
 0001:000091c0       ??_C@_0GA@HCDFMCPO@Error?5in?5end?5of?5number?5delimiter@ 1000a1c0     oscommon:osRgstry.obj
 0001:00009220       ??_C@_0CH@IAODNCJE@TIWL?3?5Illegal?5Registry?5parameter@ 1000a220     oscommon:osRgstry.obj
 0001:00009248       ??_C@_0BM@NJADEBC@NdisReadConfiguration?5fail?6?$AA@ 1000a248     oscommon:osRgstry.obj
 0001:00009264       ??_C@_01FJMABOPO@x?$AA@    1000a264     oscommon:osRgstry.obj
 0001:00009268       ??_C@_0CM@PMHPPPJN@Error?3?5minimum?5WEP?5key?5size?5is?55@ 1000a268     oscommon:osRgstry.obj
 0001:00009294       ??_C@_0BC@BCOJLJI@Reading?5WEP?5keys?6?$AA@ 1000a294     oscommon:osRgstry.obj
 0001:000092a8       ??_C@_1CI@NGFMGIBB@?$AAd?$AAo?$AAt?$AA1?$AA1?$AAW?$AAE?$AAP?$AAD?$AAe?$AAf?$AAa?$AAu?$AAl?$AAt?$AAK?$AAe?$AAy?$AA1?$AA?$AA@ 1000a2a8     oscommon:osRgstry.obj
 0001:000092d0       ??_C@_1CI@MEOJMHPP@?$AAd?$AAo?$AAt?$AA1?$AA1?$AAW?$AAE?$AAP?$AAD?$AAe?$AAf?$AAa?$AAu?$AAl?$AAt?$AAK?$AAe?$AAy?$AA2?$AA?$AA@ 1000a2d0     oscommon:osRgstry.obj
 0001:000092f8       ??_C@_1CI@HMFFKAJK@?$AAd?$AAo?$AAt?$AA1?$AA1?$AAW?$AAE?$AAP?$AAD?$AAe?$AAf?$AAa?$AAu?$AAl?$AAt?$AAK?$AAe?$AAy?$AA3?$AA?$AA@ 1000a2f8     oscommon:osRgstry.obj
 0001:00009320       ??_C@_1CI@OBICJICD@?$AAd?$AAo?$AAt?$AA1?$AA1?$AAW?$AAE?$AAP?$AAD?$AAe?$AAf?$AAa?$AAu?$AAl?$AAt?$AAK?$AAe?$AAy?$AA4?$AA?$AA@ 1000a320     oscommon:osRgstry.obj
 0001:00009348       ??_C@_0BB@HCOHLABA@AutoDetect?5?$DN?5?$CFd?6?$AA@ 1000a348     oscommon:osRgstry.obj
 0001:0000935c       ??_C@_0BC@OHDBEOOE@16?01d?01e?020?024?025?$AA@ 1000a35c     oscommon:osRgstry.obj
 0001:00009370       ??_C@_0BF@DGPACOGN@80?080?080?080?080?080?080?$AA@ 1000a370     oscommon:osRgstry.obj
 0001:00009388       ??_C@_0BC@BBEFFHNK@1d?01f?022?026?028?029?$AA@ 1000a388     oscommon:osRgstry.obj
 0001:0000939c       ??_C@_0BC@BOFDDAL@1a?01f?022?024?026?028?$AA@ 1000a39c     oscommon:osRgstry.obj
 0001:000093b0       ??_C@_0BC@BEFFMGH@50?050?050?050?050?050?$AA@ 1000a3b0     oscommon:osRgstry.obj
 0001:000093c4       ??_C@_0CK@GHGHBIMJ@50?050?050?050?050?050?050?050?050?050?050@ 1000a3c4     oscommon:osRgstry.obj
 0001:000093f0       ??_C@_0GJ@IBIMIAAM@50?050?050?050?050?050?050?050?050?050?050@ 1000a3f0     oscommon:osRgstry.obj
 0001:0000945c       ??_C@_0CN@MLAFHPEF@00?000?000?000?000?000?000?000?000?000?000@ 1000a45c     oscommon:osRgstry.obj
 0001:0000948c       ??_C@_0BC@FEELAADO@01?002?002?002?002?000?$AA@ 1000a48c     oscommon:osRgstry.obj
 0001:000094a0       ??_C@_0BC@FCAKOCAM@00?000?000?000?000?000?$AA@ 1000a4a0     oscommon:osRgstry.obj
 0001:000094b4       ??_C@_0BC@MAHEPHMH@11?011?015?011?015?00f?$AA@ 1000a4b4     oscommon:osRgstry.obj
 0001:000094c8       ??_C@_0BC@ECODGOLL@10?010?010?010?010?010?$AA@ 1000a4c8     oscommon:osRgstry.obj
 0001:000094dc       ??_C@_0BM@BFOELBDM@173?0188?0187?018b?018a?0186?018c?$AA@ 1000a4dc     oscommon:osRgstry.obj
 0001:000094f8       ??_C@_0BF@BLHNENIK@10?010?010?010?010?010?010?$AA@ 1000a4f8     oscommon:osRgstry.obj
 0001:00009510       ??_C@_0BF@JEEOECKD@00?000?000?000?000?000?000?$AA@ 1000a510     oscommon:osRgstry.obj
 0001:00009528       ??_C@_0DG@IKHAFLHD@00?000?000?000?000?000?000?000?000?000?000@ 1000a528     oscommon:osRgstry.obj
 0001:00009560       ??_C@_0BK@FNDBIJOE@0?00?00?00?00?00?00?00?00?00?00?00?00?$AA@ 1000a560     oscommon:osRgstry.obj
 0001:0000957c       ??_C@_0M@NINGCJAK@0a?503?501?5c9?$AA@ 1000a57c     oscommon:osRgstry.obj
 0001:00009588       ??_C@_0BI@OPBAHLBH@07?003?018?010?005?0fb?0f0?0e8?$AA@ 1000a588     oscommon:osRgstry.obj
 0001:000095a0       ??_C@_0BI@DOHMIGCL@07?003?018?010?005?0f6?0f0?0e8?$AA@ 1000a5a0     oscommon:osRgstry.obj
 0001:000095b8       ??_C@_0CL@PMMBNCCH@07?003?018?010?005?0fb?0f0?0e8?0?50?00?00?00@ 1000a5b8     oscommon:osRgstry.obj
 0001:000095e4       ??_C@_0BI@FPLONJP@36?040?044?048?052?056?060?064?$AA@ 1000a5e4     oscommon:osRgstry.obj
 0001:000095fc       ??_C@_0CB@DLHIEEND@1?02?03?04?05?06?07?08?09?010?011?012?013?014@ 1000a5fc     oscommon:osRgstry.obj
 0001:00009620       ??_C@_0FO@MMOJDOJF@0?01000?02000?03000?04000?08000?016000@ 1000a620     oscommon:osRgstry.obj
 0001:00009680       ??_C@_01GBGANLPD@0?$AA@    1000a680     oscommon:osRgstry.obj
 0001:00009684       ??_C@_03DHFOCJCL@?997?$AA@ 1000a684     oscommon:osRgstry.obj
 0001:00009688       ??_C@_0CE@HJBGJMBI@TIWL?3?5Reading?5InitTable?5paramete@ 1000a688     oscommon:osRgstry.obj
 0001:000096ac       ??_C@_0BC@NEJBAGEN@10?501?502?503?504?505?$AA@ 1000a6ac     oscommon:osRgstry.obj
 0001:000096c0       ??_C@_0BC@KMIMPHFI@11?511?512?513?514?515?$AA@ 1000a6c0     oscommon:osRgstry.obj
 0001:000096d4       ??_C@_0BC@CEKKOEGH@12?521?522?523?524?525?$AA@ 1000a6d4     oscommon:osRgstry.obj
 0001:000096e8       ??_C@_0BC@FMLHBFHC@13?531?532?533?534?535?$AA@ 1000a6e8     oscommon:osRgstry.obj
 0001:000096fc       ??_C@_0BC@OPJHMEFI@14?541?542?543?544?545?$AA@ 1000a6fc     oscommon:osRgstry.obj
 0001:00009710       ??_C@_0BC@JHIKDFEN@15?551?552?553?554?555?$AA@ 1000a710     oscommon:osRgstry.obj
 0001:00009724       ??_C@_0BC@BPKMCGHC@16?561?562?563?564?565?$AA@ 1000a724     oscommon:osRgstry.obj
 0001:00009738       ??_C@_0BC@GHLBNHGH@17?571?572?573?574?575?$AA@ 1000a738     oscommon:osRgstry.obj
 0001:0000974c       ??_C@_0M@LDCOKBOG@0a?502?50a?5b7?$AA@ 1000a74c     oscommon:osRgstry.obj
 0001:00009758       ??_C@_0HC@NEPIMDFB@00?501?501?501?532?501?52a?501?503?501?506@ 1000a758     oscommon:osRgstry.obj
 0001:000097cc       ??_C@_0CN@ONBDJNOF@ec?0f6?000?00c?018?0f8?0fc?000?008?010?0f0@ 1000a7cc     oscommon:osRgstry.obj
 0001:000097fc       ??_C@_0BM@BCFHHHEL@FFFFFFFFFFFFFFFFFFFFFFFFFFFF@ 1000a7fc     oscommon:osRgstry.obj
 0001:00009820       ??_C@_0BCD@CFGPGKFF@FF000000FF000000FF000000FF000000@ 1000a820     oscommon:osRgstry.obj
 0001:00009944       ??_C@_07IFOJDNME@0001101?$AA@ 1000a944     oscommon:osRgstry.obj
 0001:0000994c       ??_C@_0N@IHOEPNHD@Trace?5Dump?3?6?$AA@ 1000a94c     oscommon:tracebuf.obj
 0001:0000995c       ??_C@_0O@JKCGIHCA@?$DN?$DN?$DN?$DN?$DN?$DN?$DN?$DN?$DN?$DN?$DN?6?6?$AA@ 1000a95c     oscommon:tracebuf.obj
 0001:0000996c       ??_C@_0BC@FIICLEOD@?$CF4i?5id?$DN0x?$CF8x?5?$CFs?5?6?$AA@ 1000a96c     oscommon:tracebuf.obj
 0001:00009980       ??_C@_0CL@NICGHLED@cmdPerform?3?5Failed?5to?5enqueue?5ne@ 1000a980     Ctrl_Interface:CmdHndlr.obj
 0001:000099ac       ??_C@_0DA@ONJFBFFM@cmdPerform?3?5Failed?5to?5create?5sig@ 1000a9ac     Ctrl_Interface:CmdHndlr.obj
 0001:000099dc       ??_C@_07FBJAHANB@COMMAND?$AA@ 1000a9dc     Ctrl_Interface:CmdHndlr.obj
 0001:000099e4       ??_C@_0CL@LPIJCNCJ@Error?5allocating?5the?5CmdDispatch@ 1000a9e4     Ctrl_Interface:CmdDispatcher.obj
 0001:00009a10       ??_C@_0EC@HMBDFDEF@cmdDispatch_SetParam?$CI?$CJ?3?5NULL?5poi@ 1000aa10     Ctrl_Interface:CmdDispatcher.obj
 0001:00009a58       ??_C@_0EC@GANPGOPN@cmdDispatch_GetParam?$CI?$CJ?3?5NULL?5poi@ 1000aa58     Ctrl_Interface:CmdDispatcher.obj
 0001:00009a9c       ??_C@_0DJ@HGELNGFF@EvHandler_Create?$CI?$CJ?5?9?5Allocation?5@ 1000aa9c     Ctrl_Interface:EvHandler.obj
 0001:00009ad8       ??_C@_0BA@NJLKJGCN@?5EvHandlerInit?6?$AA@ 1000aad8     Ctrl_Interface:EvHandler.obj
 0001:00009ae8       ??_C@_0BE@PFCMHLOK@?5ev_handler_unLoad?6?$AA@ 1000aae8     Ctrl_Interface:EvHandler.obj
 0001:00009afc       ??_C@_0DF@MJPNPDOA@EvHandler?3EvHandlerRegisterEvent@ 1000aafc     Ctrl_Interface:EvHandler.obj
 0001:00009b34       ??_C@_0BO@POLLPDP@?5EvHandlerRegisterEvent?5Out?5?6?$AA@ 1000ab34     Ctrl_Interface:EvHandler.obj
 0001:00009b58       ??_C@_0FA@DOHOPGEE@?5EvHandlerRegisterEvent?5?$CFdRegist@ 1000ab58     Ctrl_Interface:EvHandler.obj
 0001:00009ba8       ??_C@_0DK@HHLDGEPM@?5EvHandlerRegisterEvent?5Error?5?9?5@ 1000aba8     Ctrl_Interface:EvHandler.obj
 0001:00009be8       ??_C@_0EM@MHNBGGM@?5EvHandlerRegisterEvent?5Error?5si@ 1000abe8     Ctrl_Interface:EvHandler.obj
 0001:00009c34       ??_C@_0CJ@JLGHBOHD@?5EvHandlerRegisterEvent?5EventTyp@ 1000ac34     Ctrl_Interface:EvHandler.obj
 0001:00009c60       ??_C@_0EJ@DJAFFDFF@?5EvHandlerUnRegisterEvent?5?$CFdRegi@ 1000ac60     Ctrl_Interface:EvHandler.obj
 0001:00009cac       ??_C@_0DA@ELIHADOJ@?5EvHandlerRegisterEvent?5Error?5Ev@ 1000acac     Ctrl_Interface:EvHandler.obj
 0001:00009cdc       ??_C@_0CL@LBIHKIAL@?5EvHandlerUnRegisterEvent?5EventT@ 1000acdc     Ctrl_Interface:EvHandler.obj
 0001:00009d08       ??_C@_0CJ@IFBBAFOL@?5EvHandlerSendEvent?5Array?5Full?5u@ 1000ad08     Ctrl_Interface:EvHandler.obj
 0001:00009d38       ??_C@_0GA@DCAFAPGG@EvHandlerSendEvent?5Matching?5User@ 1000ad38     Ctrl_Interface:EvHandler.obj
 0001:00009d98       ??_C@_0CG@BLPBEDGB@?5EvHandlerSendEvent?5?$CFd?5to?5User?5M@ 1000ad98     Ctrl_Interface:EvHandler.obj
 0001:00009dc0       ??_C@_0FJ@DHNDHPBI@EvHandlerSendEvent?5Matching?5OS?5R@ 1000adc0     Ctrl_Interface:EvHandler.obj
 0001:00009e1c       ??_C@_0BP@JENLCBCA@?5EvHandlerSendEvent?5?$CFd?5to?5OS?5?6?$AA@ 1000ae1c     Ctrl_Interface:EvHandler.obj
 0001:00009e3c       ??_C@_0CH@CKBAKGII@EvHandlerSendEvent?5Bad?5Handle?5pa@ 1000ae3c     Ctrl_Interface:EvHandler.obj
 0001:00009e64       ??_C@_0BK@COAANGOC@?5EvHandlerSendEvent?5?$CFd?5?5?6?$AA@ 1000ae64     Ctrl_Interface:EvHandler.obj
 0001:00009e80       ??_C@_0BK@PGMBJEAC@WiLink_Driver_6?41?40?41?4149?$AA@ 1000ae80     Ctrl_Interface:DrvMain.obj
 0001:00009e9c       ??_C@_0BG@EAPGGJGB@Driver?5Version?5?5?3?5?$CFs?6?$AA@ 1000ae9c     Ctrl_Interface:DrvMain.obj
 0001:00009eb4       ??_C@_0BG@IIGFBLII@Firmware?5Version?3?5?$CFs?6?$AA@ 1000aeb4     Ctrl_Interface:DrvMain.obj
 0001:00009ecc       ??_C@_0DB@NLJNHAPA@Station?5ID?5?5?5?5?5?5?3?5?$CF02X?9?$CF02X?9?$CF02X@ 1000aecc     Ctrl_Interface:DrvMain.obj
 0001:00009f00       ??_C@_0EG@CFEMLEBO@?9?9?9?9?9?9?9?9?9?9?9?9?9?9?9?9?9?9?9?9?9?9?9?9?9?9?9?9?9?9?9?9@ 1000af00     Ctrl_Interface:DrvMain.obj
 0001:00009f48       ??_C@_01EEMJAFIK@?6?$AA@   1000af48     Ctrl_Interface:DrvMain.obj
 0001:00009f4c       ??_C@_0DF@KKFGNFBJ@?4?4?4?4?4drvMain_RecoveryNotify?3?5End@ 1000af4c     Ctrl_Interface:DrvMain.obj
 0001:00009f84       ??_C@_0CM@MMCNOGIH@SDBus?5Connect?5Failed?0?5Set?5Object@ 1000af84     Ctrl_Interface:DrvMain.obj
 0001:00009fb0       ??_C@_0BP@LNLBDDPJ@Try?5to?5SDBus?5Connect?5again?4?4?4?6?$AA@ 1000afb0     Ctrl_Interface:DrvMain.obj
 0001:00009fd0       ??_C@_0CI@PMGEOFD@Failed?5to?5set?5suspend?5mode?5RX?5fi@ 1000afd0     Ctrl_Interface:DrvMain.obj
 0001:00009ff8       ??_C@_0CH@NCKEJCID@Failed?5to?5set?5active?5mode?5RX?5fil@ 1000aff8     Ctrl_Interface:DrvMain.obj
 0001:0000a020       ??_C@_06DHJAPAEE@ACTION?$AA@ 1000b020     Ctrl_Interface:DrvMain.obj
 0001:0000a028       ??_C@_0BO@JFGPBAEM@?4?4?4?4?4drvMain_Recovery?0?5ts?$DN?$CFd?6?$AA@ 1000b028     Ctrl_Interface:DrvMain.obj
 0001:0000a0c0       ??_C@_0CJ@PAOKNBNL@Error?5allocating?5the?5TxDataQueue@ 1000b0c0     Data_link:txDataQueue.obj
 0001:0000a0f0       ??_C@_0EK@LFMCMIEE@FATAL?5ERROR?3?5txDataQ_SetDefaults@ 1000b0f0     Data_link:txDataQueue.obj
 0001:0000a13c       ??_C@_0DF@IOPNECLP@?9?9?9?9?9?9?9?9?9?9?9?9?9?9?9?9?9?9?9?9?9?9?9?9?9?9?9?9?9?9?9?9@ 1000b13c     Data_link:txDataQueue.obj
 0001:0000a174       ??_C@_08CIDLAPAI@Que?5?$CFd?3?6?$AA@ 1000b174     Data_link:txDataQueue.obj
 0001:0000a180       ??_C@_0DE@CGPLCIKK@?9?9?9?9?9?9?9?9?9?9?9?9?9?9?5Queues?5Info?5?9?9?9?9?9@ 1000b180     Data_link:txDataQueue.obj
 0001:0000a1b4       ??_C@_0CA@BFMABLKP@aNetStackQueueStopped?$FL?$CFd?$FN?5?$DN?5?$CFd?6?$AA@ 1000b1b4     Data_link:txDataQueue.obj
 0001:0000a1d4       ??_C@_0CA@MHPPDHIH@aTxSendPaceThresh?$FL?$CFd?$FN?5?5?5?5?5?$DN?5?$CFd?6?$AA@ 1000b1d4     Data_link:txDataQueue.obj
 0001:0000a1f4       ??_C@_0CA@IBDDBNJE@aQueueMaxSize?$FL?$CFd?$FN?5?5?5?5?5?5?5?5?5?$DN?5?$CFd?6?$AA@ 1000b1f4     Data_link:txDataQueue.obj
 0001:0000a214       ??_C@_0CA@NCKBAMKC@aQueueBusy?$FL?$CFd?$FN?5?5?5?5?5?5?5?5?5?5?5?5?$DN?5?$CFd?6?$AA@ 1000b214     Data_link:txDataQueue.obj
 0001:0000a234       ??_C@_0DF@IPJKKICI@?9?9?9?9?9?9?9?9?9?5txDataQueue_printModul@ 1000b234     Data_link:txDataQueue.obj
 0001:0000a26c       ??_C@_0BG@PKONCKMB@bStopNetStackTx?5?$DN?5?$CFd?6?$AA@ 1000b26c     Data_link:txDataQueue.obj
 0001:0000a284       ??_C@_0BG@DNCGCNFN@bDataPortEnable?5?$DN?5?$CFd?6?$AA@ 1000b284     Data_link:txDataQueue.obj
 0001:0000a29c       ??_C@_0BG@MEGPJOLK@uNumQueues?5?5?5?5?5?5?$DN?5?$CFd?6?$AA@ 1000b29c     Data_link:txDataQueue.obj
 0001:0000a2b4       ??_C@_0BG@GBAINGGD@uLastQueId?5?5?5?5?5?5?$DN?5?$CFd?6?$AA@ 1000b2b4     Data_link:txDataQueue.obj
 0001:0000a2cc       ??_C@_0BG@KOKFDDKJ@uContextId?5?5?5?5?5?5?$DN?5?$CFd?6?$AA@ 1000b2cc     Data_link:txDataQueue.obj
 0001:0000a2e4       ??_C@_0DE@KAIJKBBI@?9?9?9?9?9?9?9?9?9?9?9?9?9?9?5Dropped?5?9?5Queue?5F@ 1000b2e4     Data_link:txDataQueue.obj
 0001:0000a318       ??_C@_0DE@BMEMCMDD@?9?9?9?9?9?9?9?9?9?9?9?9?9?9?5Sent?5to?5TxCtrl?5?9?9@ 1000b318     Data_link:txDataQueue.obj
 0001:0000a34c       ??_C@_0DE@JLIMFOCK@?9?9?9?9?9?9?9?9?9?9?9?9?9?9?5Requeue?5to?5queues@ 1000b34c     Data_link:txDataQueue.obj
 0001:0000a380       ??_C@_0DE@BIOFENI@?9?9?9?9?9?9?9?9?9?9?9?9?9?9?5Dequeue?5from?5queu@ 1000b380     Data_link:txDataQueue.obj
 0001:0000a3b4       ??_C@_0P@DCFDBDP@Que?$FL?$CFd?$FN?3?5?$DN?5?$CFd?6?$AA@ 1000b3b4     Data_link:txDataQueue.obj
 0001:0000a3c4       ??_C@_0DF@EPHKCFJC@?9?9?9?9?9?9?9?9?9?9?9?9?9?9?5txDataQueue_print@ 1000b3c4     Data_link:txDataQueue.obj
 0001:0000a3fc       ??_C@_0BP@BMDKMLBI@uClsfrMismatchCount?5?5?5?5?5?5?$DN?5?$CFd?6?$AA@ 1000b3fc     Data_link:txDataQueue.obj
 0001:0000a41c       ??_C@_0BP@MHANBDBL@uTxSendPaceTimeoutsCount?5?$DN?5?$CFd?6?$AA@ 1000b41c     Data_link:txDataQueue.obj
 0001:0000a43c       ??_C@_0DE@NJMCKBJI@?9?9?9?9?9?9?9?9?9?9?9?9?9?9?5Enqueue?5to?5queues@ 1000b43c     Data_link:txDataQueue.obj
 0001:0000a470       ??_C@_07KKFPPJKB@TX_DATA?$AA@ 1000b470     Data_link:txDataQueue.obj
 0001:0000a478       ??_C@_0BI@KOEKHKKI@Failed?5to?5create?5queue?6?$AA@ 1000b478     Data_link:txDataQueue.obj
 0001:0000a540       ??_C@_0DK@EIIGDFLP@?9?9?9?9?9?9?9?9?9?9?9?9?9?9?5Tx?9Ctrl?5Module?5In@ 1000b540     Data_link:txCtrlParams.obj
 0001:0000a57c       ??_C@_0DK@CBOGDFAB@?$DN?$DN?$DN?$DN?$DN?$DN?$DN?$DN?$DN?$DN?$DN?$DN?$DN?$DN?$DN?$DN?$DN?$DN?$DN?$DN?$DN?$DN?$DN?$DN?$DN?$DN?$DN?$DN?$DN?$DN?$DN?$DN@ 1000b57c     Data_link:txCtrlParams.obj
 0001:0000a5b8       ??_C@_0O@DLICDJIN@ACs?5Mapping?3?6?$AA@ 1000b5b8     Data_link:txCtrlParams.obj
 0001:0000a5c8       ??_C@_0O@HEFLMIDO@?9?9?9?9?9?9?9?9?9?9?9?9?6?$AA@ 1000b5c8     Data_link:txCtrlParams.obj
 0001:0000a5d8       ??_C@_0DG@KEKGEPJG@admissionRequired?$FL3?02?01?00?$FN?5?5?5?$DN?5?5@ 1000b5d8     Data_link:txCtrlParams.obj
 0001:0000a610       ??_C@_0DG@EOCHCLEM@admissionState?$FL3?02?01?00?$FN?5?5?5?5?5?5?$DN?5?5@ 1000b610     Data_link:txCtrlParams.obj
 0001:0000a648       ??_C@_0DG@GAMKKPBL@highestAdmittedAc?$FL3?02?01?00?$FN?5?5?5?$DN?5?5@ 1000b648     Data_link:txCtrlParams.obj
 0001:0000a680       ??_C@_0DI@PFFEGOAC@admittedAcToTidMap?$FL3?02?01?00?$FN?5?5?$DN?5?5@ 1000b680     Data_link:txCtrlParams.obj
 0001:0000a6b8       ??_C@_0CF@NGKDCGIP@busyAcBitmap?5?5?5?5?5?5?5?5?5?5?5?5?5?5?5?5?5?$DN?50@ 1000b6b8     Data_link:txCtrlParams.obj
 0001:0000a6e0       ??_C@_0CF@IDNMCJBJ@busyTidBitmap?5?5?5?5?5?5?5?5?5?5?5?5?5?5?5?5?$DN?50@ 1000b6e0     Data_link:txCtrlParams.obj
 0001:0000a708       ??_C@_0BA@EHCLIHCK@Tx?5Attributes?3?6?$AA@ 1000b708     Data_link:txCtrlParams.obj
 0001:0000a718       ??_C@_0BA@CDOFIPBK@?9?9?9?9?9?9?9?9?9?9?9?9?9?9?6?$AA@ 1000b718     Data_link:txCtrlParams.obj
 0001:0000a728       ??_C@_0DG@KHDKHGJF@mgmtRatePolicy?$FL3?02?01?00?$FN?5?5?5?5?5?5?$DN?5?5@ 1000b728     Data_link:txCtrlParams.obj
 0001:0000a760       ??_C@_0DG@IMPAMKIA@dataRatePolicy?$FL3?02?01?00?$FN?5?5?5?5?5?5?$DN?5?5@ 1000b760     Data_link:txCtrlParams.obj
 0001:0000a798       ??_C@_0CF@OJDHEAOM@dataPktDescAttrib?5?5?5?5?5?5?5?5?5?5?5?5?$DN?50@ 1000b798     Data_link:txCtrlParams.obj
 0001:0000a7c0       ??_C@_0DK@FIHOIBOP@?9?9?9?9?9?9?9?9?9?9?9?9?9?9?9?9?9?9?9?9?9?9?9?9?9?9?9?9?9?9?9?9@ 1000b7c0     Data_link:txCtrlParams.obj
 0001:0000a7fc       ??_C@_0N@IOCPLMPL@Parameters?3?6?$AA@ 1000b7fc     Data_link:txCtrlParams.obj
 0001:0000a80c       ??_C@_0M@FAPJFEJO@?9?9?9?9?9?9?9?9?9?9?6?$AA@ 1000b80c     Data_link:txCtrlParams.obj
 0001:0000a818       ??_C@_0CD@LKBHAINB@headerConverMode?5?5?5?5?5?5?5?5?5?5?5?5?5?$DN?5?$CF@ 1000b818     Data_link:txCtrlParams.obj
 0001:0000a83c       ??_C@_0CD@NIDPJFEJ@currentPrivacyInvokedMode?5?5?5?5?$DN?5?$CF@ 1000b83c     Data_link:txCtrlParams.obj
 0001:0000a860       ??_C@_0CD@PHFPELCF@eapolEncryptionStatus?5?5?5?5?5?5?5?5?$DN?5?$CF@ 1000b860     Data_link:txCtrlParams.obj
 0001:0000a884       ??_C@_0CD@PJNEBLIK@encryptionFieldSize?5?5?5?5?5?5?5?5?5?5?$DN?5?$CF@ 1000b884     Data_link:txCtrlParams.obj
 0001:0000a8a8       ??_C@_0CD@CIOLEKFI@currBssType?5?5?5?5?5?5?5?5?5?5?5?5?5?5?5?5?5?5?$DN?5?$CF@ 1000b8a8     Data_link:txCtrlParams.obj
 0001:0000a8cc       ??_C@_0DL@INMJDOCJ@?$DN?$DN?$DN?$DN?$DN?$DN?$DN?$DN?$DN?$DN?$DN?$DN?$DN?$DN?$DN?$DN?$DN?$DN?$DN?$DN?$DN?$DN?$DN?$DN?$DN?$DN?$DN?$DN?$DN?$DN?$DN?$DN@ 1000b8cc     Data_link:txCtrlParams.obj
 0001:0000a908       ??_C@_0CL@KIDKBNHO@Total?5Number?5of?5Xfer?9Complete?5Ev@ 1000b908     Data_link:txCtrlParams.obj
 0001:0000a934       ??_C@_0CL@MLODLDDB@Total?5Number?5of?5Xfer?9Pending?5?5Ev@ 1000b934     Data_link:txCtrlParams.obj
 0001:0000a960       ??_C@_0DN@OKMFLDNP@?9?9?9?9?9?9?9?9?9?9?9?5Number?5of?5Tx?9Complet@ 1000b960     Data_link:txCtrlParams.obj
 0001:0000a9a0       ??_C@_0DK@DJEGDKIF@?9?9?9?9?9?9?9?9?9?9?9?5Number?5of?5Tx?9Complet@ 1000b9a0     Data_link:txCtrlParams.obj
 0001:0000a9dc       ??_C@_0DN@DINFMPNB@?9?9?9?9?9?9?9?9?9?9?9?5Number?5of?5Tx?9Complet@ 1000b9dc     Data_link:txCtrlParams.obj
 0001:0000aa1c       ??_C@_0DK@PDACLKPH@?9?9?9?9?9?9?9?9?9?9?9?5Number?5of?5Tx?9Complet@ 1000ba1c     Data_link:txCtrlParams.obj
 0001:0000aa58       ??_C@_0DK@BHGBLLCI@?9?9?9?9?9?9?9?9?9?9?9?5Xfer?5rc?5?$DN?5Error?5?9?9?9?9@ 1000ba58     Data_link:txCtrlParams.obj
 0001:0000aa94       ??_C@_0DK@MDHLJAGB@?9?9?9?9?9?9?9?9?9?9?9?5Xfer?5rc?5?$DN?5Pending?5?9?9@ 1000ba94     Data_link:txCtrlParams.obj
 0001:0000aad0       ??_C@_0DK@JOJMNJED@?9?9?9?9?9?9?9?9?9?9?9?5Xfer?5rc?5?$DN?5Success?5?9?9@ 1000bad0     Data_link:txCtrlParams.obj
 0001:0000ab0c       ??_C@_0DK@IMKLBBJO@?9?9?9?9?9?9?9?9?9?9?5Packets?5Sent?5to?5Xfer?5@ 1000bb0c     Data_link:txCtrlParams.obj
 0001:0000ab48       ??_C@_0DK@HLLMOOAF@?9?9?9?9?9?9?9?9?9?9?5Number?5of?5AC?5Busy?5?$CIRe@ 1000bb48     Data_link:txCtrlParams.obj
 0001:0000ab84       ??_C@_0DK@PCPMGCLK@?9?9?9?9?9?9?9?9?9?9?5Number?5of?5Queue?9Stop?5@ 1000bb84     Data_link:txCtrlParams.obj
 0001:0000abc0       ??_C@_0M@CHJJABAN@AC?5?$CFd?5?$DN?5?$CFd?6?$AA@ 1000bbc0     Data_link:txCtrlParams.obj
 0001:0000abcc       ??_C@_0DK@OOJAIDIH@?9?9?9?9?9?9?9?9?9?9?9?9?9?9?5Tx?9Ctrl?5Statistic@ 1000bbcc     Data_link:txCtrlParams.obj
 0001:0000ac08       ??_C@_0DK@OEPLBGMK@?9?9?9?9?9?9?9?9?9?9?5Packets?5Sent?5To?5Tx?9Ct@ 1000bc08     Data_link:txCtrlParams.obj
 0001:0000ac48       ??_C@_0ED@NGDMDOOL@FATAL?5ERROR?3?5rxData_create?$CI?$CJ?3?5Er@ 1000bc48     Data_link:rx.obj
 0001:0000ac8c       ??_C@_0DK@NDLPDGBM@FATAL?5ERROR?3?5rxData_create?$CI?$CJ?3?5OS@ 1000bc8c     Data_link:rx.obj
 0001:0000acc8       ??_C@_0N@DCCIDBD@RecvOk?5?$DN?5?$CFd?6?$AA@ 1000bcc8     Data_link:rx.obj
 0001:0000acd8       ??_C@_0BI@FABJLIKI@DirectedBytesRecv?5?$DN?5?$CFd?6?$AA@ 1000bcd8     Data_link:rx.obj
 0001:0000acf0       ??_C@_0BJ@LBLKGOBG@DirectedFramesRecv?5?$DN?5?$CFd?6?$AA@ 1000bcf0     Data_link:rx.obj
 0001:0000ad0c       ??_C@_0BJ@BHAMJJIG@MulticastBytesRecv?5?$DN?5?$CFd?6?$AA@ 1000bd0c     Data_link:rx.obj
 0001:0000ad28       ??_C@_0BK@GNCLHGPI@MulticastFramesRecv?5?$DN?5?$CFd?6?$AA@ 1000bd28     Data_link:rx.obj
 0001:0000ad44       ??_C@_0BJ@PIAFMLAB@BroadcastBytesRecv?5?$DN?5?$CFd?6?$AA@ 1000bd44     Data_link:rx.obj
 0001:0000ad60       ??_C@_0BK@BOBIGJCJ@BroadcastFramesRecv?5?$DN?5?$CFd?6?$AA@ 1000bd60     Data_link:rx.obj
 0001:0000ad7c       ??_C@_0BL@IBJHMNPD@excludedFrameCounter?5?$DN?5?$CFd?6?$AA@ 1000bd7c     Data_link:rx.obj
 0001:0000ad98       ??_C@_0CE@IADOPGDB@rxDroppedDueToVLANIncludedCnt?5?$DN?5@ 1000bd98     Data_link:rx.obj
 0001:0000adbc       ??_C@_0BM@JLEOEDAP@rxWrongBssTypeCounter?5?$DN?5?$CFd?6?$AA@ 1000bdbc     Data_link:rx.obj
 0001:0000add8       ??_C@_0BK@JHNPFHFL@rxWrongBssIdCounter?5?$DN?5?$CFd?6?$AA@ 1000bdd8     Data_link:rx.obj
 0001:0000adf4       ??_C@_0CC@BLGHEGJM@rcvUnicastFrameInOpenNotify?5?$DN?5?$CFd@ 1000bdf4     Data_link:rx.obj
 0001:0000ae18       ??_C@_0BC@EKOKOOOC@hCtrlData?5?$DN?50x?$CFX?6?$AA@ 1000be18     Data_link:rx.obj
 0001:0000ae2c       ??_C@_0O@HLEHEKMO@hMlme?5?$DN?50x?$CFX?6?$AA@ 1000be2c     Data_link:rx.obj
 0001:0000ae3c       ??_C@_0M@GDEKGJGK@hOs?5?$DN?50x?$CFX?6?$AA@ 1000be3c     Data_link:rx.obj
 0001:0000ae48       ??_C@_0BA@FPFJMKBG@hReport?5?$DN?50x?$CFX?6?$AA@ 1000be48     Data_link:rx.obj
 0001:0000ae58       ??_C@_0N@ENCFONFC@hRsn?5?$DN?50x?$CFX?6?$AA@ 1000be58     Data_link:rx.obj
 0001:0000ae68       ??_C@_0BB@CCEIJEGF@hSiteMgr?5?$DN?50x?$CFX?6?$AA@ 1000be68     Data_link:rx.obj
 0001:0000ae7c       ??_C@_0BH@FAEKBMIG@rxDataPortStatus?5?$DN?5?$CFd?6?$AA@ 1000be7c     Data_link:rx.obj
 0001:0000ae94       ??_C@_0BP@BHDPKNMA@rxDataExcludeUnencrypted?5?$DN?5?$CFd?6?$AA@ 1000be94     Data_link:rx.obj
 0001:0000aeb4       ??_C@_0BN@GEAKGDEK@rxDataEapolDestination?5?$DN?5?$CFd?6?$AA@ 1000beb4     Data_link:rx.obj
 0001:0000aed4       ??_C@_0DJ@LFJBNHOC@?9?9?9?9?9?9?9?9?9?9?9?9?9?9?5Rx?5Throughput?5Sta@ 1000bed4     Data_link:rx.obj
 0001:0000af10       ??_C@_0BL@HGEFAPEF@Throughput?5?$DN?5?$CFd?5KBits?1sec?6?$AA@ 1000bf10     Data_link:rx.obj
 0001:0000af2c       ??_C@_0BN@CBOCMDEP@index?$DN?$CFd?0?5No?5Filter?5defined?6?$AA@ 1000bf2c     Data_link:rx.obj
 0001:0000af50       ??_C@_0EA@EFMAOMMC@index?$DN?$CFd?0?5Suspend?5filter?9?5offset@ 1000bf50     Data_link:rx.obj
 0001:0000af90       ??_C@_0EA@PINBOAOD@index?$DN?$CFd?0?5Active?5filter?5?9?5offset@ 1000bf90     Data_link:rx.obj
 0001:0000afd0       ??_C@_0DL@KGPJNFPE@rxData_SetDefaults?$CI?$CJ?3?5Failed?5to?5@ 1000bfd0     Data_link:rx.obj
 0001:0000b00c       ??_C@_0DM@FCCKONBB@FATAL?5ERROR?3?5ctrlData_create?$CI?$CJ?3?5@ 1000c00c     Data_link:Ctrl.obj
 0001:0000b048       ??_C@_0CH@OJIJPMMD@?5?5?5?5?5?5?5?5?5?5?5?5Tx?5Parameters?5?5?5?5?5?5?5@ 1000c048     Data_link:Ctrl.obj
 0001:0000b070       ??_C@_0CH@GPCMCKNF@?9?9?9?9?9?9?9?9?9?9?9?9?9?9?9?9?9?9?9?9?9?9?9?9?9?9?9?9?9?9?9?9@ 1000c070     Data_link:Ctrl.obj
 0001:0000b098       ??_C@_0CL@HAFMBJFB@currentPreamble?5?5?5?5?5?5?5?5?5?5?5?5?5?5?5?5?5@ 1000c098     Data_link:Ctrl.obj
 0001:0000b0c4       ??_C@_0CM@HCOIGAGM@ctrlDataCurrentRateMask?5?5?5?5?5?5?5?5?5@ 1000c0c4     Data_link:Ctrl.obj
 0001:0000b0f0       ??_C@_0CB@DOBEGLKP@Rate?5Enable?1Disable?5Mask?5?$DN?50x?$CFx?6@ 1000c0f0     Data_link:Ctrl.obj
 0001:0000b114       ??_C@_0CD@PKCAFNPF@Long?5retry?5?$DN?5?$CFd?0?5Short?5retry?5?$DN?5?$CF@ 1000c114     Data_link:Ctrl.obj
 0001:0000b138       ??_C@_0CP@DLGHOIGJ@Traffic?5Intensity?5threshold?5even@ 1000c138     Data_link:Ctrl.obj
 0001:0000b168       ??_C@_0DD@CGGINDLA@Traffic?5Intensity?5high?5threshold@ 1000c168     Data_link:Ctrl.obj
 0001:0000b19c       ??_C@_0DC@FJIBJDPH@Traffic?5Intensity?5low?5threshold?3@ 1000c19c     Data_link:Ctrl.obj
 0001:0000b1d0       ??_C@_0CI@LMMDHMJG@Traffic?5Intensity?5test?5interval?3@ 1000c1d0     Data_link:Ctrl.obj
 0001:0000b1f8       ??_C@_08JGILNPHN@Disabled?$AA@ 1000c1f8     Data_link:Ctrl.obj
 0001:0000b204       ??_C@_07DOAOMMKG@Enabled?$AA@ 1000c204     Data_link:Ctrl.obj
 0001:0000b20c       ??_C@_0BI@FNKBKMOF@?5?5?5?5CtrlData?5BLock?5?5?5?5?6?$AA@ 1000c20c     Data_link:Ctrl.obj
 0001:0000b224       ??_C@_0BI@FLKKINBM@?9?9?9?9?9?9?9?9?9?9?9?9?9?9?9?9?9?9?9?9?9?9?6?$AA@ 1000c224     Data_link:Ctrl.obj
 0001:0000b23c       ??_C@_0N@MMCCCHPO@hTWD?5?$DN?50x?$CFX?6?$AA@ 1000c23c     Data_link:Ctrl.obj
 0001:0000b24c       ??_C@_0DM@MALIGODP@ctrlDataDeviceMacAddress?5?$DN?50x?$CFX?4@ 1000c24c     Data_link:Ctrl.obj
 0001:0000b288       ??_C@_0DI@DALHBDOL@ctrlDataCurrentBSSID?5?$DN?50x?$CFX?40x?$CFX@ 1000c288     Data_link:Ctrl.obj
 0001:0000b2c0       ??_C@_0CC@JHGFBHME@ctrlDataCurrentBssType?5?5?5?5?5?5?$DN?5?$CFd@ 1000c2c0     Data_link:Ctrl.obj
 0001:0000b2e4       ??_C@_0CE@GHJGHDII@ctrlDataCurrentRateMask?5?5?5?5?5?$DN?50x@ 1000c2e4     Data_link:Ctrl.obj
 0001:0000b308       ??_C@_0CC@FKKHODLH@ctrlDataCurrentPreambleType?5?$DN?5?$CFd@ 1000c308     Data_link:Ctrl.obj
 0001:0000b32c       ??_C@_0CJ@ODGEGPLK@Error?5allocating?5the?5TxMgmtQueue@ 1000c32c     Data_link:txMgmtQueue.obj
 0001:0000b358       ??_C@_0DN@MKCMGFL@?$DN?$DN?$DN?$DN?$DN?$DN?$DN?$DN?$DN?$DN?$DN?$DN?$DN?$DN?$DN?$DN?$DN?$DN?$DN?$DN?$DN?$DN?$DN?$DN?$DN?$DN?$DN?$DN?$DN?$DN?$DN?$DN@ 1000c358     Data_link:txMgmtQueue.obj
 0001:0000b398       ??_C@_0DM@POGMFKMA@?9?9?9?9?9?9?9?9?9?9?9?9?9?9?5Queues?5Info?5?9?9?9?9?9@ 1000c398     Data_link:txMgmtQueue.obj
 0001:0000b3d4       ??_C@_0DM@HOHJHIOL@?9?9?9?9?9?9?9?9?9?9?9?9?9?9?5Queues?5Enabled?5By@ 1000c3d4     Data_link:txMgmtQueue.obj
 0001:0000b410       ??_C@_0O@FGIONIED@Que?$FL?$CFd?$FN?3?5?5?$CFd?6?$AA@ 1000c410     Data_link:txMgmtQueue.obj
 0001:0000b420       ??_C@_0DM@CCLKFNDN@?9?9?9?9?9?9?9?9?9?9?9?9?9?9?5txMgmtQueue?5Modul@ 1000c420     Data_link:txMgmtQueue.obj
 0001:0000b45c       ??_C@_0DM@PEAIIKNF@?$DN?$DN?$DN?$DN?$DN?$DN?$DN?$DN?$DN?$DN?$DN?$DN?$DN?$DN?$DN?$DN?$DN?$DN?$DN?$DN?$DN?$DN?$DN?$DN?$DN?$DN?$DN?$DN?$DN?$DN?$DN?$DN@ 1000c45c     Data_link:txMgmtQueue.obj
 0001:0000b498       ??_C@_0BG@PCJJPLFN@eSmState?5?5?5?5?5?5?5?5?$DN?5?$CFd?6?$AA@ 1000c498     Data_link:txMgmtQueue.obj
 0001:0000b4b0       ??_C@_0BG@EHFKBEI@bMgmtPortEnable?5?$DN?5?$CFd?6?$AA@ 1000c4b0     Data_link:txMgmtQueue.obj
 0001:0000b4c8       ??_C@_0BG@GMJBAIHB@eTxConnState?5?5?5?5?$DN?5?$CFd?6?$AA@ 1000c4c8     Data_link:txMgmtQueue.obj
 0001:0000b4e0       ??_C@_0DM@MKCHEOG@?9?9?9?9?9?9?9?9?9?9?9?9?9?9?5Queues?5Busy?5?$CIin?5H@ 1000c4e0     Data_link:txMgmtQueue.obj
 0001:0000b51c       ??_C@_0DM@MKJLHFAI@?9?9?9?9?9?9?9?9?9?9?9?9?9?9?5Dropped?5Packets?5?$CI@ 1000c51c     Data_link:txMgmtQueue.obj
 0001:0000b558       ??_C@_0DM@GMFCJKJG@?9?9?9?9?9?9?9?9?9?9?9?9?9?9?5Xmitted?5Packets?5?9@ 1000c558     Data_link:txMgmtQueue.obj
 0001:0000b594       ??_C@_0DM@DAHNLLJE@?9?9?9?9?9?9?9?9?9?9?9?9?9?9?5Requeue?5Packets?5?9@ 1000c594     Data_link:txMgmtQueue.obj
 0001:0000b5d0       ??_C@_0DM@HGCHOFPA@?9?9?9?9?9?9?9?9?9?9?9?9?9?9?5Dequeue?5Packets?5?9@ 1000c5d0     Data_link:txMgmtQueue.obj
 0001:0000b60c       ??_C@_0DM@INOOKCLB@?9?9?9?9?9?9?9?9?9?9?9?9?9?9?5Mgmt?5Queues?5Stati@ 1000c60c     Data_link:txMgmtQueue.obj
 0001:0000b648       ??_C@_0DM@CBPJEAEL@?9?9?9?9?9?9?9?9?9?9?9?9?9?9?5Enqueue?5Packets?5?9@ 1000c648     Data_link:txMgmtQueue.obj
 0001:0000b684       ??_C@_07KGGGLKOH@TX_MGMT?$AA@ 1000c684     Data_link:txMgmtQueue.obj
 0001:0000b68c       ??_C@_0DA@LFOLHIKB@TrafficMonitor_SetMask?5?9?5unknown@ 1000c68c     Data_link:TrafficMonitor.obj
 0001:0000b6dc       ??_C@_0BC@IODEBDBF@?$HM?5Code?5?$HM?5D?9Tag?5?$HM?6?$AA@ 1000c6dc     Data_link:TxDataClsfr.obj
 0001:0000b6f0       ??_C@_0BC@NIPBOHEF@?$CL?9?9?9?9?9?9?$CL?9?9?9?9?9?9?9?$CL?6?$AA@ 1000c6f0     Data_link:TxDataClsfr.obj
 0001:0000b704       ??_C@_0P@GGDNHNKP@?$HM?5?$CF5d?5?$HM?5?$CF5d?5?$HM?6?$AA@ 1000c704     Data_link:TxDataClsfr.obj
 0001:0000b714       ??_C@_0BD@IJCCGEEF@?$HM?5Port?5?5?$HM?5D?9Tag?5?$HM?6?$AA@ 1000c714     Data_link:TxDataClsfr.obj
 0001:0000b728       ??_C@_0BD@OHONLANK@?$CL?9?9?9?9?9?9?9?$CL?9?9?9?9?9?9?9?$CL?6?$AA@ 1000c728     Data_link:TxDataClsfr.obj
 0001:0000b73c       ??_C@_0CF@DLNLGHB@?$HM?5?$CF02x?4?$CF02x?4?$CF02x?4?$CF02x?5?$HM?5?$CF5d?5?$HM?5?$CF5@ 1000c73c     Data_link:TxDataClsfr.obj
 0001:0000b764       ??_C@_0CB@KCPHAHGD@?$HM?5IP?5Address?5?5?$HM?5Port?5?5?$HM?5D?9Tag?5?$HM?6@ 1000c764     Data_link:TxDataClsfr.obj
 0001:0000b788       ??_C@_0CB@HAHBGFCO@?$CL?9?9?9?9?9?9?9?9?9?9?9?9?9?$CL?9?9?9?9?9?9?9?$CL?9?9?9?9?9?9?9?$CL?6@ 1000c788     Data_link:TxDataClsfr.obj
 0001:0000b7ac       ??_C@_0DD@EJDOHAME@Number?5of?5active?5entries?5in?5clas@ 1000c7ac     Data_link:TxDataClsfr.obj
 0001:0000b7e0       ??_C@_0DG@BDKFOKHI@D_TAG?5classifier?5type?5selected?4?4@ 1000c7e0     Data_link:TxDataClsfr.obj
 0001:0000b818       ??_C@_0DH@MHIFJALJ@FATAL?5ERROR?3List_create?$CI?$CJ?3?5OS?5ha@ 1000c818     Data_link:GeneralUtil.obj
 0001:0000b854       ??_C@_0DP@JNJLNNNM@FATAL?5ERROR?3?5currBSS_create?$CI?$CJ?3?5E@ 1000c854     Sta_Management:currBss.obj
 0001:0000b894       ??_C@_0BA@PBMPHAEF@RX_XFER_FAILURE?$AA@ 1000c894     Sta_Management:healthMonitor.obj
 0001:0000b8a4       ??_C@_0N@CKMHAGCM@HW_WD_EXPIRE?$AA@ 1000c8a4     Sta_Management:healthMonitor.obj
 0001:0000b8b4       ??_C@_0M@IGMDHDA@BUS_FAILURE?$AA@ 1000c8b4     Sta_Management:healthMonitor.obj
 0001:0000b8c0       ??_C@_0BE@HACCFFJG@MEASUREMENT_FAILURE?$AA@ 1000c8c0     Sta_Management:healthMonitor.obj
 0001:0000b8d4       ??_C@_0BD@KCKHKEBN@POWER_SAVE_FAILURE?$AA@ 1000c8d4     Sta_Management:healthMonitor.obj
 0001:0000b8e8       ??_C@_0BD@CAJLPFLO@DISCONNECT_TIMEOUT?$AA@ 1000c8e8     Sta_Management:healthMonitor.obj
 0001:0000b8fc       ??_C@_08LPBNMDJD@TX_STUCK?$AA@ 1000c8fc     Sta_Management:healthMonitor.obj
 0001:0000b908       ??_C@_0BB@OHFANGAK@HW_AWAKE_FAILURE?$AA@ 1000c908     Sta_Management:healthMonitor.obj
 0001:0000b91c       ??_C@_0N@DCNFCBLA@MBOX_FAILURE?$AA@ 1000c91c     Sta_Management:healthMonitor.obj
 0001:0000b92c       ??_C@_0BJ@OIFIEOHG@NO_SCAN_COMPLETE_FAILURE?$AA@ 1000c92c     Sta_Management:healthMonitor.obj
 0001:0000b948       ??_C@_0GA@IGNKNFNF@healthMonitor_proccessFailureEve@ 1000c948     Sta_Management:healthMonitor.obj
 0001:0000b9a8       ??_C@_0CJ@JNDNJCHB@?$CK?$CK?$CK?$CK?$CK?5recovery?5trigger?3?5?$CFs?5?$CK?$CK?$CK?$CK?$CK@ 1000c9a8     Sta_Management:healthMonitor.obj
 0001:0000b9d4       ??_C@_0DC@BPPCIENB@Maximum?5number?5of?5commands?5in?5ma@ 1000c9d4     Sta_Management:healthMonitor.obj
 0001:0000ba08       ??_C@_0CC@OGOEFDO@Health?5Test?5Performed?5?5?5?5?5?5?5?$DN?5?$CFd@ 1000ca08     Sta_Management:healthMonitor.obj
 0001:0000ba2c       ??_C@_09LMLGMIJG@?$CF27s?$DN?5?$CFd?6?$AA@ 1000ca2c     Sta_Management:healthMonitor.obj
 0001:0000ba38       ??_C@_0DO@MABEKEIB@?9?9?9?9?9?9?9?9?9?9?9?9?9?9?5STA?5Health?5Failur@ 1000ca38     Sta_Management:healthMonitor.obj
 0001:0000ba78       ??_C@_0CB@PDGLEPOK@FULL?5RECOVERY?5PERFORMED?5?5?5?5?$DN?5?$CFd?6@ 1000ca78     Sta_Management:healthMonitor.obj
 0001:0000ba9c       ??_C@_0CM@FMGJLNAA@PowerMgr_create?5?9?5Memory?5Allocat@ 1000ca9c     Sta_Management:PowerMgr.obj
 0001:0000bac8       WMEQosAcToTid              1000cac8     Sta_Management:qosMngr.obj
 0001:0000bacc       WMEQosMateTid              1000cacc     Sta_Management:qosMngr.obj
 0001:0000baec       ??_C@_0DJ@IJCJMMKK@Scan?5was?5not?5started?4?5Verify?5sca@ 1000caec     Sta_Management:ScanCncnApp.obj
 0001:0000bb28       ??_C@_0BA@HGPJMKAK@?9?9?5SSID?5?5?$DN?5?$CFs?5?6?$AA@ 1000cb28     Sta_Management:siteMgr.obj
 0001:0000bb38       ??_C@_0BO@CDDDCIGE@?9?9?5BSSID?5?$DN?5?$CFx?9?$CFx?9?$CFx?9?$CFx?9?$CFx?9?$CFx?6?$AA@ 1000cb38     Sta_Management:siteMgr.obj
 0001:0000bb58       ??_C@_0EG@KFKGNMCM@?6ERROR?5?$CB?$CB?$CB?4?4?4?4?4The?5radio?5doesn?8t@ 1000cb58     Sta_Management:siteMgr.obj
 0001:0000bba0       ??_C@_0DN@CJIMPKJE@?6?5ERROR?5?$CB?$CB?$CB?5?3?5siteMgr_config?5?9?5E@ 1000cba0     Sta_Management:siteMgr.obj
 0001:0000bbe0       ??_C@_0BC@FIJDNPNH@Immediate?5scan?5SM?$AA@ 1000cbe0     Sta_Management:ScanCncn.obj
 0001:0000bbf4       ??_C@_0BD@ILFCENCK@Continuous?5scan?5SM?$AA@ 1000cbf4     Sta_Management:ScanCncn.obj
 0001:0000bc08       ??_C@_0P@IGEBFHHH@Driver?5scan?5SM?$AA@ 1000cc08     Sta_Management:ScanCncn.obj
 0001:0000bc18       ??_C@_0BN@BIFPLBIL@Periodic?5application?5scan?5SM?$AA@ 1000cc18     Sta_Management:ScanCncn.obj
 0001:0000bc38       ??_C@_0BN@LKPNFJMI@One?9shot?5application?5scan?5SM?$AA@ 1000cc38     Sta_Management:ScanCncn.obj
 0001:0000bc58       ??_C@_0EB@EFJOKOCM@scanCncn_Create?3?5Unable?5to?5creat@ 1000cc58     Sta_Management:ScanCncn.obj
 0001:0000bc9c       ??_C@_0CO@JDBIICIE@scanCncn_Create?3?5Unable?5to?5creat@ 1000cc9c     Sta_Management:ScanCncn.obj
 0001:0000bccc       ??_C@_0DE@GCGCCDGB@scanCncn_Create?3?5Unable?5to?5creat@ 1000cccc     Sta_Management:ScanCncn.obj
 0001:0000bd00       ??_C@_0EJ@NKEAHLGD@scanCncn_Create?3?5Unable?5to?5alloc@ 1000cd00     Sta_Management:ScanCncn.obj
 0001:0000bd4c       ??_C@_0CD@GELIGKBK@ERROR?3?5Failed?5to?5create?5SCR?5modu@ 1000cd4c     Sta_Management:scr.obj
 0001:0000bd70       ??_C@_0CH@NJKGCHOK@StaCap_Create?$CI?$CJ?3?5?5Allocation?5fai@ 1000cd70     Sta_Management:StaCap.obj
 0001:0000bd98       ??_C@_0CI@DFDGDNJG@mlmeParser_recv?3?5hMlme?5?$DN?$DN?5?$CFx?0?5bu@ 1000cd98     Sta_Management:mlmeParser.obj
 0001:0000bdc0       ??_C@_0FE@EKIDDEPF@scanResultTable_Create?3?5Unable?5t@ 1000cdc0     Sta_Management:scanResultTable.obj
 0001:0000be14       ??_C@_06JLMOAAOO@REJECT?$AA@ 1000ce14     Sta_Management:ScanCncnSm.obj
 0001:0000be1c       ??_C@_08LABKBHNC@RECOVERY?$AA@ 1000ce1c     Sta_Management:ScanCncnSm.obj
 0001:0000be28       ??_C@_05NKJCKGFJ@ABORT?$AA@ 1000ce28     Sta_Management:ScanCncnSm.obj
 0001:0000be30       ??_C@_04MDHMLCKF@STOP?$AA@ 1000ce30     Sta_Management:ScanCncnSm.obj
 0001:0000be38       ??_C@_0O@PLAMFCAO@SCAN_COMPLETE?$AA@ 1000ce38     Sta_Management:ScanCncnSm.obj
 0001:0000be48       ??_C@_03LLDCGJBK@RUN?$AA@  1000ce48     Sta_Management:ScanCncnSm.obj
 0001:0000be4c       ??_C@_05JLPDBANI@START?$AA@ 1000ce4c     Sta_Management:ScanCncnSm.obj
 0001:0000be54       ??_C@_08CGLLMHMN@STOPPING?$AA@ 1000ce54     Sta_Management:ScanCncnSm.obj
 0001:0000be60       ??_C@_08OGPGMOKK@SCANNING?$AA@ 1000ce60     Sta_Management:ScanCncnSm.obj
 0001:0000be6c       ??_C@_08LEKOBDMM@SCR_WAIT?$AA@ 1000ce6c     Sta_Management:ScanCncnSm.obj
 0001:0000be78       ??_C@_04IMMGDCFE@IDLE?$AA@ 1000ce78     Sta_Management:ScanCncnSm.obj
 0001:0000be80       ??_C@_0FA@JPGHIAJE@scanCncnSm_Cretae?3?5not?5enough?5sp@ 1000ce80     Sta_Management:ScanCncnSm.obj
 0001:0000bed0       ??_C@_0EJ@COPFANLA@scanCncnSm_Cretae?3?5not?5enough?5sp@ 1000ced0     Sta_Management:ScanCncnSm.obj
 0001:0000bf1c       ??_C@_09IKHIBECK@SCAN_ON_A?$AA@ 1000cf1c     Sta_Management:ScanCncnOsSm.obj
 0001:0000bf28       ??_C@_09NMCCLDKM@SCAN_ON_G?$AA@ 1000cf28     Sta_Management:ScanCncnOsSm.obj
 0001:0000bf34       ??_C@_0L@PHCOMHJF@OS?5scan?5SM?$AA@ 1000cf34     Sta_Management:ScanCncnOsSm.obj
 0001:0000bf40       ??_C@_0EF@DKHBLIDN@FATAL?5ERROR?3?5cmdQueue_Create?$CI?$CJ?3?5@ 1000cf40     Ctrl:CmdQueue.obj
 0001:0000bf88       ??_C@_0EG@MJBOEOMD@cmdQueue_SM?3?5?$CK?$CK?5ERROR?5?$CK?$CK?5?5Mbox?5s@ 1000cf88     Ctrl:CmdQueue.obj
 0001:0000bfd0       ??_C@_0BN@LLKLGPIA@?5?$CK?$CK?$CK?5Error?5No?5Such?5CMD?5?$CK?$CK?$CK?$CK?5?$AA@ 1000cfd0     Ctrl:CmdQueue.obj
 0001:0000bff0       ??_C@_0P@FDHKGACM@CMD_SET_STATUS?$AA@ 1000cff0     Ctrl:CmdQueue.obj
 0001:0000c000       ??_C@_0BH@CDCBOHLI@CMD_STOP_PERIODIC_SCAN?$AA@ 1000d000     Ctrl:CmdQueue.obj
 0001:0000c018       ??_C@_0BI@FIBNENBD@CMD_START_PERIODIC_SCAN?$AA@ 1000d018     Ctrl:CmdQueue.obj
 0001:0000c030       ??_C@_0BN@IKFBFNPK@CMD_CONNECTION_SCAN_SSID_CFG?$AA@ 1000d030     Ctrl:CmdQueue.obj
 0001:0000c050       ??_C@_0BI@DELNHHMD@CMD_CONNECTION_SCAN_CFG?$AA@ 1000d050     Ctrl:CmdQueue.obj
 0001:0000c068       ??_C@_0BB@NOGBHAKN@CMD_HEALTH_CHECK?$AA@ 1000d068     Ctrl:CmdQueue.obj
 0001:0000c07c       ??_C@_0BC@FPOKFNIM@CMD_STOP_SPS_SCAN?$AA@ 1000d07c     Ctrl:CmdQueue.obj
 0001:0000c090       ??_C@_0N@GICCEFGH@CMD_SPS_SCAN?$AA@ 1000d090     Ctrl:CmdQueue.obj
 0001:0000c0a0       ??_C@_0BG@JLOPKNMF@CMD_STOP_AP_DISCOVERY?$AA@ 1000d0a0     Ctrl:CmdQueue.obj
 0001:0000c0b8       ??_C@_0BB@DDDKGBHN@CMD_AP_DISCOVERY?$AA@ 1000d0b8     Ctrl:CmdQueue.obj
 0001:0000c0cc       ??_C@_0BI@IAHPHCJJ@CMD_STOP_CHANNEL_SWICTH?$AA@ 1000d0cc     Ctrl:CmdQueue.obj
 0001:0000c0e4       ??_C@_0BD@OKBGKKLE@CMD_CHANNEL_SWITCH?$AA@ 1000d0e4     Ctrl:CmdQueue.obj
 0001:0000c0f8       ??_C@_0BA@IGEMAALI@CMD_SET_PS_MODE?$AA@ 1000d0f8     Ctrl:CmdQueue.obj
 0001:0000c108       ??_C@_0P@LONCCBCO@CMD_DISCONNECT?$AA@ 1000d108     Ctrl:CmdQueue.obj
 0001:0000c118       ??_C@_0BF@ILOMAIMA@CMD_STOP_MEASUREMENT?$AA@ 1000d118     Ctrl:CmdQueue.obj
 0001:0000c130       ??_C@_0BA@DJPPOFGN@CMD_MEASUREMENT?$AA@ 1000d130     Ctrl:CmdQueue.obj
 0001:0000c140       ??_C@_0BB@JFALBNJO@CMD_SET_BCN_MODE?$AA@ 1000d140     Ctrl:CmdQueue.obj
 0001:0000c154       ??_C@_0BA@JCLCIAII@CMD_LNA_CONTROL?$AA@ 1000d154     Ctrl:CmdQueue.obj
 0001:0000c164       ??_C@_0N@NPBPFEIB@CMD_RX_RESET?$AA@ 1000d164     Ctrl:CmdQueue.obj
 0001:0000c174       ??_C@_0P@KBHMJHDB@CMD_NOISE_HIST?$AA@ 1000d174     Ctrl:CmdQueue.obj
 0001:0000c184       ??_C@_0BD@JOAKJLOJ@CMD_ENABLE_RX_PATH?$AA@ 1000d184     Ctrl:CmdQueue.obj
 0001:0000c198       ??_C@_08NAJJCBFK@CMD_TEST?$AA@ 1000d198     Ctrl:CmdQueue.obj
 0001:0000c1a4       ??_C@_0BB@INJJHKFJ@CMD_SET_TEMPLATE?$AA@ 1000d1a4     Ctrl:CmdQueue.obj
 0001:0000c1b8       ??_C@_0BB@JCLMPBBC@CMD_WRITE_MEMORY?$AA@ 1000d1b8     Ctrl:CmdQueue.obj
 0001:0000c1cc       ??_C@_0BA@EAKLIMIK@CMD_READ_MEMORY?$AA@ 1000d1cc     Ctrl:CmdQueue.obj
 0001:0000c1dc       ??_C@_0N@BHMFJON@CMD_SET_KEYS?$AA@ 1000d1dc     Ctrl:CmdQueue.obj
 0001:0000c1ec       ??_C@_0P@FDLMIBNP@CMD_START_JOIN?$AA@ 1000d1ec     Ctrl:CmdQueue.obj
 0001:0000c1fc       ??_C@_07OODGNJNJ@CMD_VBM?$AA@ 1000d1fc     Ctrl:CmdQueue.obj
 0001:0000c204       ??_C@_0O@ILIDGJPL@CMD_STOP_SCAN?$AA@ 1000d204     Ctrl:CmdQueue.obj
 0001:0000c214       ??_C@_08OIFNCPFD@CMD_SCAN?$AA@ 1000d214     Ctrl:CmdQueue.obj
 0001:0000c220       ??_C@_0P@CNEAJKIL@CMD_DISABLE_TX?$AA@ 1000d220     Ctrl:CmdQueue.obj
 0001:0000c230       ??_C@_0P@CJMNOGDJ@CMD_DISABLE_RX?$AA@ 1000d230     Ctrl:CmdQueue.obj
 0001:0000c240       ??_C@_0O@LEOOBBC@CMD_ENABLE_TX?$AA@ 1000d240     Ctrl:CmdQueue.obj
 0001:0000c250       ??_C@_0O@PMDJNKA@CMD_ENABLE_RX?$AA@ 1000d250     Ctrl:CmdQueue.obj
 0001:0000c260       ??_C@_0O@ICBFIBLA@CMD_CONFIGURE?$AA@ 1000d260     Ctrl:CmdQueue.obj
 0001:0000c270       ??_C@_0BA@CLGBIIDO@CMD_INTERROGATE?$AA@ 1000d270     Ctrl:CmdQueue.obj
 0001:0000c280       ??_C@_09JOAEJDMB@CMD_RESET?$AA@ 1000d280     Ctrl:CmdQueue.obj
 0001:0000c28c       ??_C@_0BM@OGCHJDBN@?5?$CIDOT11_RX_MSDU_LIFE_TIME?$CJ?5?$AA@ 1000d28c     Ctrl:CmdQueue.obj
 0001:0000c2a8       ??_C@_0BF@NBDJCLHH@?5?$CIDOT11_CUR_TX_PWR?$CJ?5?$AA@ 1000d2a8     Ctrl:CmdQueue.obj
 0001:0000c2c0       ??_C@_0BI@NKMKPLGH@?5?$CIDOT11_RTS_THRESHOLD?$CJ?5?$AA@ 1000d2c0     Ctrl:CmdQueue.obj
 0001:0000c2d8       ??_C@_0BM@LKJMGDMH@?5?$CIDOT11_GROUP_ADDRESS_TBL?$CJ?5?$AA@ 1000d2d8     Ctrl:CmdQueue.obj
 0001:0000c2f4       ??_C@_0BM@PJAAJBEM@?5?$CK?$CK?$CK?5Error?5No?5Such?5IE?5?$CK?$CK?$CK?$CK?5?$AA@ 1000d2f4     Ctrl:CmdQueue.obj
 0001:0000c310       ??_C@_0BN@GHKIHILI@?5?$CIACX_SET_DCO_ITRIM_PARAMS?$CJ?5?$AA@ 1000d310     Ctrl:CmdQueue.obj
 0001:0000c330       ??_C@_0BO@GBAABDKE@?5?$CIACX_SET_KEEP_ALIVE_CONFIG?$CJ?5?$AA@ 1000d330     Ctrl:CmdQueue.obj
 0001:0000c350       ??_C@_0BI@MOIDMNPD@?5?$CIACX_KEEP_ALIVE_MODE?$CJ?5?$AA@ 1000d350     Ctrl:CmdQueue.obj
 0001:0000c368       ??_C@_0BJ@LKFPLKNC@?5?$CIACX_RSSI_SNR_WEIGHTS?$CJ?5?$AA@ 1000d368     Ctrl:CmdQueue.obj
 0001:0000c384       ??_C@_0BJ@INKDEFOL@?5?$CIACX_RSSI_SNR_TRIGGER?$CJ?5?$AA@ 1000d384     Ctrl:CmdQueue.obj
 0001:0000c3a0       ??_C@_0BD@MKPLHNAN@?5?$CIACX_BET_ENABLE?$CJ?5?$AA@ 1000d3a0     Ctrl:CmdQueue.obj
 0001:0000c3b4       ??_C@_0BB@GJLFKHAB@?5?$CIACX_FRAG_CFG?$CJ?5?$AA@ 1000d3b4     Ctrl:CmdQueue.obj
 0001:0000c3c8       ??_C@_0BG@FCJKDHAE@?5?$CIACX_RX_CONFIG_OPT?$CJ?5?$AA@ 1000d3c8     Ctrl:CmdQueue.obj
 0001:0000c3e0       ??_C@_0CD@IKBOFCB@?5?$CIACX_GET_DATA_FILTER_STATISTICS@ 1000d3e0     Ctrl:CmdQueue.obj
 0001:0000c404       ??_C@_0BL@CMPHIFNH@?5?$CIACX_SET_RX_DATA_FILTER?$CJ?5?$AA@ 1000d404     Ctrl:CmdQueue.obj
 0001:0000c420       ??_C@_0BO@EGABCBPL@?5?$CIACX_ENABLE_RX_DATA_FILTER?$CJ?5?$AA@ 1000d420     Ctrl:CmdQueue.obj
 0001:0000c440       ??_C@_0BG@MOJJFHDL@?5?$CIACX_CONFIG_PS_WMM?$CJ?5?$AA@ 1000d440     Ctrl:CmdQueue.obj
 0001:0000c458       ??_C@_0BB@MGPGGEKH@?5?$CIACX_TSF_INFO?$CJ?5?$AA@ 1000d458     Ctrl:CmdQueue.obj
 0001:0000c46c       ??_C@_0BP@NBAAMJFL@?5?$CIACX_SERVICE_PERIOD_TIMEOUT?$CJ?5?$AA@ 1000d46c     Ctrl:CmdQueue.obj
 0001:0000c48c       ??_C@_0BE@PDNCKKKK@?5?$CIACX_IBSS_FILTER?$CJ?5?$AA@ 1000d48c     Ctrl:CmdQueue.obj
 0001:0000c4a0       ??_C@_0BC@BCBHLIPH@?5?$CIACX_ERROR_CNT?$CJ?5?$AA@ 1000d4a0     Ctrl:CmdQueue.obj
 0001:0000c4b4       ??_C@_0BG@OBKIPMFA@?5?$CIACX_PREAMBLE_TYPE?$CJ?5?$AA@ 1000d4b4     Ctrl:CmdQueue.obj
 0001:0000c4cc       ??_C@_0BD@ILFIDCNP@?5?$CIACX_SLEEP_AUTH?$CJ?5?$AA@ 1000d4cc     Ctrl:CmdQueue.obj
 0001:0000c4e0       ??_C@_0BH@GFFGNNLD@?5?$CIACX_CTS_PROTECTION?$CJ?5?$AA@ 1000d4e0     Ctrl:CmdQueue.obj
 0001:0000c4f8       ??_C@_0BE@KLPFHHHK@?5?$CIACX_RATE_POLICY?$CJ?5?$AA@ 1000d4f8     Ctrl:CmdQueue.obj
 0001:0000c50c       ??_C@_0BP@EEFIGAEN@?5?$CIACX_ROAMING_STATISTICS_TBL?$CJ?5?$AA@ 1000d50c     Ctrl:CmdQueue.obj
 0001:0000c52c       ??_C@_0BG@DCCKGFGA@?5?$CIACX_ARP_IP_FILTER?$CJ?5?$AA@ 1000d52c     Ctrl:CmdQueue.obj
 0001:0000c544       ??_C@_0BM@BMIAGCEC@?5?$CIACX_BEACON_FILTER_TABLE?$CJ?5?$AA@ 1000d544     Ctrl:CmdQueue.obj
 0001:0000c560       ??_C@_0BE@OPHKKHLG@?5?$CIACX_FM_COEX_CFG?$CJ?5?$AA@ 1000d560     Ctrl:CmdQueue.obj
 0001:0000c574       ??_C@_0P@LEOOKLJJ@?5?$CIACX_SG_CFG?$CJ?5?$AA@ 1000d574     Ctrl:CmdQueue.obj
 0001:0000c584       ??_C@_0BC@LIPOKIE@?5?$CIACX_SG_ENABLE?$CJ?5?$AA@ 1000d584     Ctrl:CmdQueue.obj
 0001:0000c598       ??_C@_0BJ@JJLJHBGP@?5?$CIACX_BCN_DTIM_OPTIONS?$CJ?5?$AA@ 1000d598     Ctrl:CmdQueue.obj
 0001:0000c5b4       ??_C@_0BI@GLCBJAID@?5?$CIACX_CONS_TX_FAILURE?$CJ?5?$AA@ 1000d5b4     Ctrl:CmdQueue.obj
 0001:0000c5cc       ??_C@_0BK@KEIBCFJG@?5?$CIACX_CONN_MONIT_PARAMS?$CJ?5?$AA@ 1000d5cc     Ctrl:CmdQueue.obj
 0001:0000c5e8       ??_C@_0BI@NAIJCMA@?5?$CIACX_EVENT_MBOX_MASK?$CJ?5?$AA@ 1000d5e8     Ctrl:CmdQueue.obj
 0001:0000c600       ??_C@_0BF@PHLKKPBJ@?5?$CIACX_CCA_THRESHOLD?$CJ?$AA@ 1000d600     Ctrl:CmdQueue.obj
 0001:0000c618       ??_C@_0BG@BALFOOA@?5?$CIACX_TX_CONFIG_OPT?$CJ?5?$AA@ 1000d618     Ctrl:CmdQueue.obj
 0001:0000c630       ??_C@_0BF@HFALOHDL@?5?$CIACX_PD_THRESHOLD?$CJ?5?$AA@ 1000d630     Ctrl:CmdQueue.obj
 0001:0000c648       ??_C@_0BC@CNPIDCFN@?5?$CIACX_NOISE_HIST?$CJ?$AA@ 1000d648     Ctrl:CmdQueue.obj
 0001:0000c65c       ??_C@_0BK@DFBFDNIN@?5?$CIACX_BEACON_FILTER_OPT?$CJ?5?$AA@ 1000d65c     Ctrl:CmdQueue.obj
 0001:0000c678       ??_C@_0BA@ONHPJHJ@?5?$CIACX_TID_CFG?$CJ?5?$AA@ 1000d678     Ctrl:CmdQueue.obj
 0001:0000c688       ??_C@_0BE@MIAOIBBC@?5?$CIACX_FEATURE_CFG?$CJ?5?$AA@ 1000d688     Ctrl:CmdQueue.obj
 0001:0000c69c       ??_C@_0BD@LKBPDLGJ@?5?$CIACX_STATISTICS?$CJ?5?$AA@ 1000d69c     Ctrl:CmdQueue.obj
 0001:0000c6b0       ??_C@_0P@GAOJMFN@?5?$CIACX_RX_CFG?$CJ?5?$AA@ 1000d6b0     Ctrl:CmdQueue.obj
 0001:0000c6c0       ??_C@_0BF@ENOIHDJE@?5?$CIACX_MEDIUM_USAGE?$CJ?5?$AA@ 1000d6c0     Ctrl:CmdQueue.obj
 0001:0000c6d8       ??_C@_0L@HNCNJBOB@?5?$CIACX_AID?$CJ?$AA@ 1000d6d8     Ctrl:CmdQueue.obj
 0001:0000c6e4       ??_C@_0P@MOMFPMFL@?5?$CIACX_MEM_MAP?$CJ?$AA@ 1000d6e4     Ctrl:CmdQueue.obj
 0001:0000c6f4       ??_C@_0P@LCJCMPJE@?5?$CIACX_AC_CFG?$CJ?5?$AA@ 1000d6f4     Ctrl:CmdQueue.obj
 0001:0000c704       ??_C@_0N@CMHMBAJL@?5?$CIACX_SLOT?$CJ?5?$AA@ 1000d704     Ctrl:CmdQueue.obj
 0001:0000c714       ??_C@_0P@PFELMPHG@?5?$CIACX_MEM_CFG?$CJ?$AA@ 1000d714     Ctrl:CmdQueue.obj
 0001:0000c724       ??_C@_0BK@EPCKNGMG@?5?$CIACX_WAKE_UP_CONDITIONS?$CJ?$AA@ 1000d724     Ctrl:CmdQueue.obj
 0001:0000c740       ??_C@_0DO@FGCBCKGD@Cmd?5index?5?$CFd?5CmdType?5?$DN?5?$CFs?5?$CFs?0?5Le@ 1000d740     Ctrl:CmdQueue.obj
 0001:0000c780       ??_C@_0EJ@CLIFBJG@?9?9?9?9?9?9?9?9?9?9?9?9?9?9?9?9?9?9?9?9?9?9?9?9?9?9?9?9?9?9?9?9@ 1000d780     Ctrl:CmdQueue.obj
 0001:0000c7d0       ??_C@_0EB@GNHIHJID@?9?9?9?9?9?9?9?9?9?9?9?9?9?9?9?5cmdQueue_PrintHi@ 1000d7d0     Ctrl:CmdQueue.obj
 0001:0000c818       ??_C@_0OI@EOPBFMMM@cmdQueue_Error?3?5?$CK?$CKERROR?$CK?$CK?5?5Comma@ 1000d818     Ctrl:CmdQueue.obj
 0001:0000c900       ??_C@_0DL@ECENNCAE@cmdQueue_Error?3?5Unknown?5IE?0?5cmdT@ 1000d900     Ctrl:CmdQueue.obj
 0001:0000c93c       ??_C@_0DD@NBAGCEOE@?9?9?9?9?9?9?9?9?9?9?9?9?9?5aCmdQueue?5Queue?5?9?9@ 1000d93c     Ctrl:CmdQueue.obj
 0001:0000c970       ??_C@_0M@GCBMODM@state?5?$DN?5?$CFd?6?$AA@ 1000d970     Ctrl:CmdQueue.obj
 0001:0000c97c       ??_C@_0DD@KHIDFIDG@cmdQueue_Print?3The?5Max?5NumOfCmd?5@ 1000d97c     Ctrl:CmdQueue.obj
 0001:0000c9b0       ??_C@_0DD@DBCLAMPA@cmdQueue_Print?3The?5Current?5NumOf@ 1000d9b0     Ctrl:CmdQueue.obj
 0001:0000c9e4       ??_C@_0DM@MBOPIKNB@cmdQueue_Print?3The?5Total?5number?5@ 1000d9e4     Ctrl:CmdQueue.obj
 0001:0000ca20       ??_C@_0EA@LKDALPEI@cmdQueue_Print?3The?5Total?5number?5@ 1000da20     Ctrl:CmdQueue.obj
 0001:0000ca60       WMEQosTagToACTable         1000da60     Data_Service:txHwQueue.obj
 0001:0000ca80       ??_C@_0EH@KCOOKFLA@Queue?$DN?$CFd?3?5HostAllocCount?$DN0x?$CFx?0?5F@ 1000da80     Data_Service:txHwQueue.obj
 0001:0000cac8       ??_C@_0CJ@JGGDDPPE@Q?$DN?$CFd?3?5Used?$DN?$CFd?0?5Reserve?$DN?$CFd?0?5Thres@ 1000dac8     Data_Service:txHwQueue.obj
 0001:0000caf4       ??_C@_0BI@JPEBCIBH@Hw?9Queues?5Information?3?6?$AA@ 1000daf4     Data_Service:txHwQueue.obj
 0001:0000cb0c       ??_C@_0BI@GAMKGEFA@?$DN?$DN?$DN?$DN?$DN?$DN?$DN?$DN?$DN?$DN?$DN?$DN?$DN?$DN?$DN?$DN?$DN?$DN?$DN?$DN?$DN?$DN?6?$AA@ 1000db0c     Data_Service:txHwQueue.obj
 0001:0000cb24       ??_C@_0BM@HBIBMNIJ@Total?5Blocks?3?5?5?5?5?5?5?5?5?5?5?5?$CFd?6?$AA@ 1000db24     Data_Service:txHwQueue.obj
 0001:0000cb40       ??_C@_0BM@ODFHHJMD@Total?5Free?5Blocks?3?5?5?5?5?5?5?$CFd?6?$AA@ 1000db40     Data_Service:txHwQueue.obj
 0001:0000cb5c       ??_C@_0BM@MHHDOHFF@Total?5Reserved?5Blocks?3?5?5?$CFd?6?$AA@ 1000db5c     Data_Service:txHwQueue.obj
 0001:0000cb78       ??_C@_0BM@LHMFDGDF@Total?5Used?5Descriptors?3?5?$CFd?6?$AA@ 1000db78     Data_Service:txHwQueue.obj
 0001:0000cb94       ??_C@_0BM@LHIAPICE@FwTxResultsCntr?3?5?5?5?5?5?5?5?5?$CFd?6?$AA@ 1000db94     Data_Service:txHwQueue.obj
 0001:0000cbb0       ??_C@_0BM@CIEECOFF@DrvTxPacketsCntr?3?5?5?5?5?5?5?5?$CFd?6?$AA@ 1000dbb0     Data_Service:txHwQueue.obj
 0001:0000cbd0       ??_C@_0EC@JLDJMBEM@FATAL?5ERROR?3?5cmdMbox_Create?$CI?$CJ?3?5E@ 1000dbd0     FW_Transfer:CmdMBox.obj
 0001:0000cc14       ??_C@_0BL@KFEEFNBC@Print?5cmdMbox?5module?5info?6?$AA@ 1000dc14     FW_Transfer:CmdMBox.obj
 0001:0000cc30       ??_C@_0BL@NBIAHBHO@?$DN?$DN?$DN?$DN?$DN?$DN?$DN?$DN?$DN?$DN?$DN?$DN?$DN?$DN?$DN?$DN?$DN?$DN?$DN?$DN?$DN?$DN?$DN?$DN?$DN?6?$AA@ 1000dc30     FW_Transfer:CmdMBox.obj
 0001:0000cc4c       ??_C@_0BF@CIFFLDGO@bCmdInProgress?5?$DN?5?$CFd?6?$AA@ 1000dc4c     FW_Transfer:CmdMBox.obj
 0001:0000cc64       ??_C@_0DM@LMMJLMBK@?9?9?9?9?9?9?9?9?9?9?9?9?9?9?5TwIf?5Module?5Info?9@ 1000dc64     TwIf:TwIf.obj
 0001:0000cca0       ??_C@_0BL@PHLLBDNH@eSmState?5?5?5?5?5?5?5?5?5?5?5?5?5?$DN?5?$CFd?6?$AA@ 1000dca0     TwIf:TwIf.obj
 0001:0000ccbc       ??_C@_0BL@MCIJCNAP@uContextId?5?5?5?5?5?5?5?5?5?5?5?$DN?5?$CFd?6?$AA@ 1000dcbc     TwIf:TwIf.obj
 0001:0000ccd8       ??_C@_0BL@OLMEPPGE@fErrCb?5?5?5?5?5?5?5?5?5?5?5?5?5?5?5?$DN?5?$CFd?6?$AA@ 1000dcd8     TwIf:TwIf.obj
 0001:0000ccf4       ??_C@_0BL@JFBPHECJ@hErrCb?5?5?5?5?5?5?5?5?5?5?5?5?5?5?5?$DN?5?$CFd?6?$AA@ 1000dcf4     TwIf:TwIf.obj
 0001:0000cd10       ??_C@_0BL@FEADLPBG@uAwakeReqCount?5?5?5?5?5?5?5?$DN?5?$CFd?6?$AA@ 1000dd10     TwIf:TwIf.obj
 0001:0000cd2c       ??_C@_0BL@GPNCCHKE@uPendingTxnCount?5?5?5?5?5?$DN?5?$CFd?6?$AA@ 1000dd2c     TwIf:TwIf.obj
 0001:0000cd48       ??_C@_0BN@GPJGKPFD@uMemAddr?5?5?5?5?5?5?5?5?5?5?5?5?5?$DN?50x?$CFx?6?$AA@ 1000dd48     TwIf:TwIf.obj
 0001:0000cd68       ??_C@_0BN@LNOGKKLH@uMemSize?5?5?5?5?5?5?5?5?5?5?5?5?5?$DN?50x?$CFx?6?$AA@ 1000dd68     TwIf:TwIf.obj
 0001:0000cd88       ??_C@_0BN@DNAMADOL@uRegAddr?5?5?5?5?5?5?5?5?5?5?5?5?5?$DN?50x?$CFx?6?$AA@ 1000dd88     TwIf:TwIf.obj
 0001:0000cda8       ??_C@_0BN@OPHMAGAP@uRegSize?5?5?5?5?5?5?5?5?5?5?5?5?5?$DN?50x?$CFx?6?$AA@ 1000dda8     TwIf:TwIf.obj
 0001:0000cdc8       ??_C@_0BL@EGLHJJAA@uDbgCountAwake?5?5?5?5?5?5?5?$DN?5?$CFd?6?$AA@ 1000ddc8     TwIf:TwIf.obj
 0001:0000cde4       ??_C@_0BL@BEEICFAP@uDbgCountSleep?5?5?5?5?5?5?5?$DN?5?$CFd?6?$AA@ 1000dde4     TwIf:TwIf.obj
 0001:0000ce00       ??_C@_0BL@BFJDLEAP@uDbgCountTxn?5?5?5?5?5?5?5?5?5?$DN?5?$CFd?6?$AA@ 1000de00     TwIf:TwIf.obj
 0001:0000ce1c       ??_C@_0BL@DFFOJIBM@uDbgCountTxnPending?5?5?$DN?5?$CFd?6?$AA@ 1000de1c     TwIf:TwIf.obj
 0001:0000ce38       ??_C@_0BL@HNCFOIHE@uDbgCountTxnComplete?5?$DN?5?$CFd?6?$AA@ 1000de38     TwIf:TwIf.obj
 0001:0000ce54       ??_C@_0BL@CFFHIKHD@uDbgCountTxnDone?5?5?5?5?5?$DN?5?$CFd?6?$AA@ 1000de54     TwIf:TwIf.obj
 0001:0000ce70       ??_C@_0BI@HGJJBFAH@wake_lock?5counter?5?$DN?5?$CFd?6?$AA@ 1000de70     TwIf:TwIf.obj
 0001:0000ce88       ??_C@_04HLPMAIDO@TWIF?$AA@ 1000de88     TwIf:TwIf.obj
 0001:0000ce90       ??_C@_0BC@FPALKFNO@Print?5TXN?5queues?6?$AA@ 1000de90     Txn:TxnQueue.obj
 0001:0000cea4       ??_C@_0BC@GOFLDFIO@?$DN?$DN?$DN?$DN?$DN?$DN?$DN?$DN?$DN?$DN?$DN?$DN?$DN?$DN?$DN?$DN?6?$AA@ 1000dea4     Txn:TxnQueue.obj
 0001:0000ceb8       ??_C@_0M@GLLFEECK@txnQ_Create?$AA@ 1000deb8     Txn:TxnQueue.obj
 0001:0000cec4       ??_C@_0CF@OMFONGGD@?$CFs?3?5Error?5?9?5failed?5to?5create?5Bus@ 1000dec4     Txn:TxnQueue.obj
 0001:0000ceec       ??_C@_0CP@JNLPCOGC@TWD_readMem?5Error?3?5fwDbg_handleC@ 1000deec     TWDriver:TWDriver.obj
 0001:0000cf1c       ??_C@_0DA@OJKKFJEJ@TWD_writeMem?5Error?3?5fwDbg_handle@ 1000df1c     TWDriver:TWDriver.obj
 0001:0000cf4c       ??_C@_0BG@BFLFPGCJ@wInit_Create?5failed?$CB?6?$AA@ 1000df4c     TWDriver:TWDriver.obj
 0001:0000cf64       ??_C@_0CA@NGKONCJ@TWD?5txHwQueue_Create?5failed?$CB?$CB?$CB?6?$AA@ 1000df64     TWDriver:TWDriver.obj
 0001:0000cf84       ??_C@_0CA@KGPLJMDC@TWD?5txCtrlBlk_Create?5failed?$CB?$CB?$CB?6?$AA@ 1000df84     TWDriver:TWDriver.obj
 0001:0000cfa4       ??_C@_0BO@HLMPAKJL@TWD?5RxQueue_Create?5failed?$CB?$CB?$CB?6?$AA@ 1000dfa4     TWDriver:TWDriver.obj
 0001:0000cfc4       ??_C@_0BO@GMFIIALM@TWD?5cmdMbox_Create?5failed?$CB?$CB?$CB?6?$AA@ 1000dfc4     TWDriver:TWDriver.obj
 0001:0000cfe4       ??_C@_0BM@JJEKKGHE@TWD?5fwDbg_Create?5failed?$CB?$CB?$CB?6?$AA@ 1000dfe4     TWDriver:TWDriver.obj
 0001:0000d000       ??_C@_0CA@DPOIGOF@TWD?5eventMbox_Create?5failed?$CB?$CB?$CB?6?$AA@ 1000e000     TWDriver:TWDriver.obj
 0001:0000d020       ??_C@_0BO@GGKGMJNG@TWD?5fwEvent_Create?5failed?$CB?$CB?$CB?6?$AA@ 1000e020     TWDriver:TWDriver.obj
 0001:0000d040       ??_C@_0BN@CFFKPPGN@TWD?5rxXfer_Create?5failed?$CB?$CB?$CB?6?$AA@ 1000e040     TWDriver:TWDriver.obj
 0001:0000d060       ??_C@_0BP@HEMFDEPI@TWD?5txResult_Create?5failed?$CB?$CB?$CB?6?$AA@ 1000e060     TWDriver:TWDriver.obj
 0001:0000d080       ??_C@_0BN@EOIBJDML@TWD?5txXfer_Create?5failed?$CB?$CB?$CB?6?$AA@ 1000e080     TWDriver:TWDriver.obj
 0001:0000d0a0       ??_C@_0BP@MELGJIEK@TWD?5cmdQueue_Create?5failed?$CB?$CB?$CB?6?$AA@ 1000e0a0     TWDriver:TWDriver.obj
 0001:0000d0c0       ??_C@_0CC@GLAPMIGG@TWD?5MacServices_create?5failed?$CB?$CB?$CB@ 1000e0c0     TWDriver:TWDriver.obj
 0001:0000d0e4       ??_C@_0BG@HIGDMOKN@cmdBld_Create?5failed?6?$AA@ 1000e0e4     TWDriver:TWDriver.obj
 0001:0000d0fc       ??_C@_0BE@OJMEDMGP@twIf_Create?5failed?6?$AA@ 1000e0fc     TWDriver:TWDriver.obj
 0001:0000d110       ??_C@_0BO@GNPPFIFA@?5?5?5Debug?5main?5menu?5?$CIp?5?$DMnum?$DO?$CJ?6?$AA@ 1000e110     test:debug.obj
 0001:0000d130       ??_C@_0BP@BEADIJBO@?9?9?9?9?9?9?9?9?9?9?9?9?9?9?9?9?9?9?9?9?9?9?9?9?9?9?9?9?9?6?$AA@ 1000e130     test:debug.obj
 0001:0000d150       ??_C@_0BN@DPOCEBHL@Association?5?5?5?5?5?5?5?5?5?5?5?5?5100?6?$AA@ 1000e150     test:debug.obj
 0001:0000d170       ??_C@_0BN@EMMNOBDJ@Utils?5?5?5?5?5?5?5?5?5?5?5?5?5?5?5?5?5?5?5200?6?$AA@ 1000e170     test:debug.obj
 0001:0000d190       ??_C@_0BN@HKMPLNGK@Tx?5?5?5?5?5?5?5?5?5?5?5?5?5?5?5?5?5?5?5?5?5?5300?6?$AA@ 1000e190     test:debug.obj
 0001:0000d1b0       ??_C@_0BN@NMHAJNMB@Rx?5?5?5?5?5?5?5?5?5?5?5?5?5?5?5?5?5?5?5?5?5?5350?6?$AA@ 1000e1b0     test:debug.obj
 0001:0000d1d0       ??_C@_0BN@CNJBBDNN@Ctrl?5?5?5?5?5?5?5?5?5?5?5?5?5?5?5?5?5?5?5?5400?6?$AA@ 1000e1d0     test:debug.obj
 0001:0000d1f0       ??_C@_0BN@OBCEMOF@SiteMgr?5?5?5?5?5?5?5?5?5?5?5?5?5?5?5?5?5500?6?$AA@ 1000e1f0     test:debug.obj
 0001:0000d210       ??_C@_0BN@MEGOEHIA@Connection?5?5?5?5?5?5?5?5?5?5?5?5?5?5600?6?$AA@ 1000e210     test:debug.obj
 0001:0000d230       ??_C@_0BN@MNCHAEKE@Rsn?5?5?5?5?5?5?5?5?5?5?5?5?5?5?5?5?5?5?5?5?5700?6?$AA@ 1000e230     test:debug.obj
 0001:0000d250       ??_C@_0BN@KMJNNGAB@Hal?5Ctrl?5?5?5?5?5?5?5?5?5?5?5?5?5?5?5?5800?6?$AA@ 1000e250     test:debug.obj
 0001:0000d270       ??_C@_0BN@BLMPFHHL@QOS?5?5?5?5?5?5?5?5?5?5?5?5?5?5?5?5?5?5?5?51000?6?$AA@ 1000e270     test:debug.obj
 0001:0000d290       ??_C@_0BN@LLPFILOB@Measurement?5?5?5?5?5?5?5?5?5?5?5?51100?6?$AA@ 1000e290     test:debug.obj
 0001:0000d2b0       ??_C@_0BN@EPKOGMEB@PowerMgr?5?5?5?5?5?5?5?5?5?5?5?5?5?5?51200?6?$AA@ 1000e2b0     test:debug.obj
 0001:0000d2d0       ??_C@_0BN@CACAHPHL@HAL?5Ctrl?5Buffer?5?5?5?5?5?5?5?51300?6?$AA@ 1000e2d0     test:debug.obj
 0001:0000d2f0       ??_C@_0BN@DLIGJLGM@Scan?5concentrator?5?5?5?5?5?51400?6?$AA@ 1000e2f0     test:debug.obj
 0001:0000d310       ??_C@_0BN@JJNBAIAF@Scan?5Manager?5?5?5?5?5?5?5?5?5?5?51500?6?$AA@ 1000e310     test:debug.obj
 0001:0000d330       ??_C@_0BN@HJNEHANM@Roaming?5Manager?5?5?5?5?5?5?5?51600?6?$AA@ 1000e330     test:debug.obj
 0001:0000d350       ??_C@_0BN@KBEDOPO@SCR?5?5?5?5?5?5?5?5?5?5?5?5?5?5?5?5?5?5?5?51700?6?$AA@ 1000e350     test:debug.obj
 0001:0000d370       ??_C@_0BN@MMLCOEHJ@Soft?5Gemini?5?5?5?5?5?5?5?5?5?5?5?51800?6?$AA@ 1000e370     test:debug.obj
 0001:0000d390       ??_C@_0BN@DBJGILOK@SME?5?5?5?5?5?5?5?5?5?5?5?5?5?5?5?5?5?5?5?51900?6?$AA@ 1000e390     test:debug.obj
 0001:0000d3b0       ??_C@_0BN@HKJIFKLI@Health?5Monitor?5?5?5?5?5?5?5?5?52000?6?$AA@ 1000e3b0     test:debug.obj
 0001:0000d3d0       ??_C@_0BN@OKAFJIEJ@MIB?5?5?5?5?5?5?5?5?5?5?5?5?5?5?5?5?5?5?5?52100?6?$AA@ 1000e3d0     test:debug.obj
 0001:0000d3f0       ??_C@_0BN@DNAIEPFK@FW?5Debug?5?5?5?5?5?5?5?5?5?5?5?5?5?5?52200?6?$AA@ 1000e3f0     test:debug.obj
 0001:0000d410       ??_C@_0BN@HEDHIPKH@TwIf?5?5?5?5?5?5?5?5?5?5?5?5?5?5?5?5?5?5?52300?6?$AA@ 1000e410     test:debug.obj
 0001:0000d430       ??_C@_0BN@JPJCNCFH@?5?5?5Utils?5Debug?5Functions?5?5?5?6?$AA@ 1000e430     test:debug.obj
 0001:0000d450       ??_C@_0BN@CHNIPINJ@?9?9?9?9?9?9?9?9?9?9?9?9?9?9?9?9?9?9?9?9?9?9?9?9?9?9?9?6?$AA@ 1000e450     test:debug.obj
 0001:0000d470       ??_C@_0CC@CPABEPOM@200?5?9?5Print?5the?5Utils?5Debug?5Help@ 1000e470     test:debug.obj
 0001:0000d494       ??_C@_0CB@JHALMCNP@201?5?9?5Print?5Context?5module?5info?6@ 1000e494     test:debug.obj
 0001:0000d4b8       ??_C@_0BP@EMGICCEH@202?5?9?5Print?5Timer?5module?5info?6?$AA@ 1000e4b8     test:debug.obj
 0001:0000d4d8       ??_C@_0BO@EHPLODG@203?5?9?5Print?5the?5trace?5buffer?6?$AA@ 1000e4d8     test:debug.obj
 0001:0000d4f8       ??_C@_0DB@NEINHIPK@utilsDebugFunction?$CI?$CJ?3?5Invalid?5fu@ 1000e4f8     test:debug.obj
 0001:0000d52c       ??_C@_0CL@BFOEBAJO@Invalid?5debug?5function?5module?5nu@ 1000e52c     test:debug.obj
 0001:0000d558       ??_C@_0BM@DIEDGFCB@?5?5?5TwIf?5Debug?5Functions?5?5?5?6?$AA@ 1000e558     test:TwIfDebug.obj
 0001:0000d574       ??_C@_0BM@OAKJCIAK@?9?9?9?9?9?9?9?9?9?9?9?9?9?9?9?9?9?9?9?9?9?9?9?9?9?9?6?$AA@ 1000e574     test:TwIfDebug.obj
 0001:0000d590       ??_C@_0CC@HNAAKAJE@2300?5?9?5Print?5the?5TwIf?5Debug?5Help@ 1000e590     test:TwIfDebug.obj
 0001:0000d5b4       ??_C@_0CD@DOFMKDI@2301?5?9?5Print?5the?5TwIf?5Informatio@ 1000e5b4     test:TwIfDebug.obj
 0001:0000d5d8       ??_C@_0CD@LBMIMBGO@2302?5?9?5Print?5the?5wake_lock?5count@ 1000e5d8     test:TwIfDebug.obj
 0001:0000d5fc       ??_C@_0DC@BKKHGHLN@Invalid?5function?5type?5in?5TWIF?5de@ 1000e5fc     test:TwIfDebug.obj
 0001:0000d688       ??_C@_0CJ@FMBHMKPC@?5?5?5?5FW?5Debug?5Functions?5?5?5?5?5?7?5?5?5?5@ 1000e688     test:fwdriverdebug.obj
 0001:0000d6b4       ??_C@_0DF@LDPPBCNK@?9?9?9?9?9?9?9?9?9?9?9?9?9?9?9?9?9?9?9?9?9?9?9?9?9?9?9?9?9?9?9?9@ 1000e6b4     test:fwdriverdebug.obj
 0001:0000d6ec       ??_C@_0CE@PCILJCM@2200?5?7?7?9?5Print?5the?5FW?5Debug?5Help@ 1000e6ec     test:fwdriverdebug.obj
 0001:0000d710       ??_C@_0CG@JAJOFMOF@2201?5?7?7?9?5Send?5General?5Test?5Comma@ 1000e710     test:fwdriverdebug.obj
 0001:0000d738       ??_C@_0CH@LGKPCOG@2202?5?7?7?9?5create?5IBSS?5connection?5@ 1000e738     test:fwdriverdebug.obj
 0001:0000d760       ??_C@_0CL@IEEPLNB@2203?$FLn?$FN?5?7?9?5Send?5n?$DM?$DN999?5Packets?5?5@ 1000e760     test:fwdriverdebug.obj
 0001:0000d78c       ??_C@_0CG@NOLCGODO@2205?5?7?7?9?5Start?5LoopBack?5?5?5?5?5?5?5?5?5@ 1000e78c     test:fwdriverdebug.obj
 0001:0000d7b4       ??_C@_0CG@BEMAOMGF@2206?5?7?7?9?5Stop?5LoopBack?5?5?5?5?5?5?5?5?5?5@ 1000e7b4     test:fwdriverdebug.obj
 0001:0000d7dc       ??_C@_0M@LKFDIPIK@?6?5res?5?$DN?5?$CFd?6?$AA@ 1000e7dc     test:fwdriverdebug.obj
 0001:0000d7e8       ??_C@_0CC@HIGOCLLD@?6?5failed?5to?5make?5IBSS?5connection@ 1000e7e8     test:fwdriverdebug.obj
 0001:0000d80c       ??_C@_05MEBJNOGH@ronit?$AA@ 1000e80c     test:fwdriverdebug.obj
 0001:0000d814       ??_C@_0CO@KDKFJKHO@?6?5?$CK?$CK?$CK?$CK?$CK?$CK?$CK?$CK?$CK?$CK?$CK?5Last?5Packet?5was?5se@ 1000e814     test:fwdriverdebug.obj
 0001:0000d844       ??_C@_0DJ@NDLAHEFP@?6FW_DebugSendPacket?3?5packetsNum?5@ 1000e844     test:fwdriverdebug.obj
 0001:0000d880       ??_C@_0DE@FJPJEFJC@?6FW_DebugSendPacket?5Error?3?5recei@ 1000e880     test:fwdriverdebug.obj
 0001:0000d8b4       ??_C@_0BO@CLNGIOI@?6?5send?5loopback?5start?5command?$AA@ 1000e8b4     test:fwdriverdebug.obj
 0001:0000d8d4       ??_C@_0BN@HFAGLCLN@?6?5send?5loopback?5stop?5command?$AA@ 1000e8d4     test:fwdriverdebug.obj
 0001:0000d8f4       ??_C@_0BK@JOPJCCCC@FilteringEnable?3?5?$CFs?5?$CI?$CFd?$CJ?6?$AA@ 1000e8f4     test:MibDbg.obj
 0001:0000d910       ??_C@_0BL@NPHMGNMM@ArpIpAddress?3?5?$CFd?4?$CFd?4?$CFd?4?$CFd?6?$AA@ 1000e910     test:MibDbg.obj
 0001:0000d92c       ??_C@_07MIKIFGAL@Disable?$AA@ 1000e92c     test:MibDbg.obj
 0001:0000d934       ??_C@_06CKGENIKG@Enable?$AA@ 1000e934     test:MibDbg.obj
 0001:0000d93c       ??_C@_0P@CAKKJNDI@ARP?5IP?5Table?3?6?$AA@ 1000e93c     test:MibDbg.obj
 0001:0000d94c       ??_C@_0BG@NGHHMIC@Get?5ARP?5Table?5failed?6?$AA@ 1000e94c     test:MibDbg.obj
 0001:0000d964       ??_C@_0BD@CDBIOAIN@?$CFx?3?$CFx?3?$CFx?3?$CFx?3?$CFx?3?$CFx?6?$AA@ 1000e964     test:MibDbg.obj
 0001:0000d978       ??_C@_0BI@POGBAONK@nNumberOfAddresses?3?5?$CFd?6?$AA@ 1000e978     test:MibDbg.obj
 0001:0000d990       ??_C@_0BD@INEJMIFM@Group?5addresses?3?5?6?$AA@ 1000e990     test:MibDbg.obj
 0001:0000d9a4       ??_C@_0BI@OBCMEABA@Group?5addresses?5Table?3?6?$AA@ 1000e9a4     test:MibDbg.obj
 0001:0000d9bc       ??_C@_0CA@JONCIMKD@Get?5Group?5Address?5Table?5failed?6?$AA@ 1000e9bc     test:MibDbg.obj
 0001:0000d9e0       ??_C@_0EC@FGDBJGGA@FCS?5error?5count?$DN?5?$CFd?5?6PLCP?5?5error@ 1000e9e0     test:MibDbg.obj
 0001:0000da24       ??_C@_0BK@LAGJNPFO@Get?5Counter?5Table?5failed?6?$AA@ 1000ea24     test:MibDbg.obj
 0001:0000da40       ??_C@_0BF@NDDLAFOK@CtsToSelf?5?$DN?5?$CFs?5?$CI?$CFd?$CJ?6?$AA@ 1000ea40     test:MibDbg.obj
 0001:0000da58       ??_C@_0CI@DLFBLPGL@CTS?5to?5self?3?5?$FL0?5?9?5Disable?0?51?5?9?5E@ 1000ea58     test:MibDbg.obj
 0001:0000da80       ??_C@_0BH@FPAKKPGM@Modify?5CTS?5To?5Self?5OK?6?$AA@ 1000ea80     test:MibDbg.obj
 0001:0000da98       ??_C@_0BL@EEHAICFJ@Modify?5CTS?5To?5Self?5failed?6?$AA@ 1000ea98     test:MibDbg.obj
 0001:0000dab4       ??_C@_0DC@GHCPKNFF@Modify?5CTS?5To?5Self?5failed?3?5No?5Pa@ 1000eab4     test:MibDbg.obj
 0001:0000dae8       ??_C@_0BI@LMLFHBOO@Get?5CTS?5To?5Self?5failed?6?$AA@ 1000eae8     test:MibDbg.obj
 0001:0000db00       ??_C@_0CB@CEGDELGP@Set?5Maximum?5Rx?5Life?5Time?5failed?6@ 1000eb00     test:MibDbg.obj
 0001:0000db24       ??_C@_0DI@LNEEBFCB@Set?5Maximum?5Rx?5Life?5Time?5failed?3@ 1000eb24     test:MibDbg.obj
 0001:0000db5c       ??_C@_0CB@NHFHHNBF@?6?5?5?5?5?5?5?5?5?5?5MIB?5Dbg?5Functions?5?5?5?6@ 1000eb5c     test:MibDbg.obj
 0001:0000db80       ??_C@_0CI@DBDLLCJO@?9?9?9?9?9?9?9?9?9?9?9?9?9?9?9?9?9?9?9?9?9?9?9?9?9?9?9?9?9?9?9?9@ 1000eb80     test:MibDbg.obj
 0001:0000dba8       ??_C@_0BI@LILAHKGF@2101?5?9?5Print?5ARP?5Table?6?$AA@ 1000eba8     test:MibDbg.obj
 0001:0000dbc0       ??_C@_0CC@NIKBLIMF@2102?5?9?5Print?5Group?5Address?5Table@ 1000ebc0     test:MibDbg.obj
 0001:0000dbe4       ??_C@_0BM@DAHNCGEM@2103?5?9?5Print?5Counter?5Table?6?$AA@ 1000ebe4     test:MibDbg.obj
 0001:0000dc00       ??_C@_0CB@NIBBECLF@2104?5?9?5Print?5Modify?5CTS?5to?5Self?6@ 1000ec00     test:MibDbg.obj
 0001:0000dc24       ??_C@_0BP@EOJCEDN@2105?5?9?5Print?5Max?5RX?5Life?5Time?6?$AA@ 1000ec24     test:MibDbg.obj
 0001:0000dc44       ??_C@_0DM@CDDJBNBC@MIB?5Debug?3?5Invalid?5function?5type@ 1000ec44     test:MibDbg.obj
 0001:0000dc80       ??_C@_0CJ@OGKEHHHH@?5?5?5HealthMonitor?5Debug?5Functions@ 1000ec80     test:HealthMonitorDbg.obj
 0001:0000dcac       ??_C@_0CJ@NAGLDNBO@?9?9?9?9?9?9?9?9?9?9?9?9?9?9?9?9?9?9?9?9?9?9?9?9?9?9?9?9?9?9?9?9@ 1000ecac     test:HealthMonitorDbg.obj
 0001:0000dcd8       ??_C@_0CJ@OEELNLIA@2000?5?9?5Print?5HealthMonitor?5Debug@ 1000ecd8     test:HealthMonitorDbg.obj
 0001:0000dd04       ??_C@_0CJ@HOCBHMCM@2001?5?9?5Trigger?5NO_SCAN_COMPLETE?5@ 1000ed04     test:HealthMonitorDbg.obj
 0001:0000dd30       ??_C@_0CJ@BCHGIJGC@2002?5?9?5Trigger?5MBOX_FAILURE?5?5?5?5?5@ 1000ed30     test:HealthMonitorDbg.obj
 0001:0000dd5c       ??_C@_0CJ@DEAIGNFJ@2003?5?9?5Trigger?5HW_AWAKE_FAILURE?5@ 1000ed5c     test:HealthMonitorDbg.obj
 0001:0000dd88       ??_C@_0CJ@DAGBFLNI@2004?5?9?5Trigger?5TX_STUCK?5?5?5?5?5?5?5?5?5@ 1000ed88     test:HealthMonitorDbg.obj
 0001:0000ddb4       ??_C@_0CJ@CMENNOAE@2005?5?9?5Trigger?5DISCONNECT_TIMEOU@ 1000edb4     test:HealthMonitorDbg.obj
 0001:0000dde0       ??_C@_0CJ@PDLFOHPF@2006?5?9?5Trigger?5POWER_SAVE_FAILUR@ 1000ede0     test:HealthMonitorDbg.obj
 0001:0000de0c       ??_C@_0CJ@EDKMPOLP@2007?5?9?5Trigger?5MEASUREMENT_FAILU@ 1000ee0c     test:HealthMonitorDbg.obj
 0001:0000de38       ??_C@_0CJ@JNHMJGLD@2008?5?9?5Trigger?5BUS_FAILURE?5?5?5?5?5?5@ 1000ee38     test:HealthMonitorDbg.obj
 0001:0000de64       ??_C@_0CJ@KBEKOBAH@2009?5?9?5Start?5RECOVERY_FROM_CLI?5?5@ 1000ee64     test:HealthMonitorDbg.obj
 0001:0000de90       ??_C@_0CJ@LMACMLBJ@2010?5?9?5Trigger?5HW_WD_EXPIRE?5?5?5?5?5@ 1000ee90     test:HealthMonitorDbg.obj
 0001:0000debc       ??_C@_0CJ@KIAKEION@2011?5?9?5Trigger?5RX_XFER_FAILURE?5?5@ 1000eebc     test:HealthMonitorDbg.obj
 0001:0000dee8       ??_C@_0DM@NNDKPFFI@Invalid?5function?5type?5in?5health?5@ 1000eee8     test:HealthMonitorDbg.obj
 0001:0000df28       ??_C@_0EK@MHLPGNFI@Scan?5isn?8t?5running?5at?5the?5moment@ 1000ef28     test:HealthMonitorDbg.obj
 0001:0000df74       ??_C@_0BL@BKDEKFFO@?5?5?5SME?5Debug?5Functions?5?5?5?6?$AA@ 1000ef74     test:smeDebug.obj
 0001:0000df90       ??_C@_0BL@EGNBEPHB@?9?9?9?9?9?9?9?9?9?9?9?9?9?9?9?9?9?9?9?9?9?9?9?9?9?6?$AA@ 1000ef90     test:smeDebug.obj
 0001:0000dfac       ??_C@_0CB@JPPKBDEM@1900?5?9?5Print?5the?5SME?5Debug?5Help?6@ 1000efac     test:smeDebug.obj
 0001:0000dfd0       ??_C@_0BN@CHLACJIP@1901?5?9?5Print?5the?5SME?5object?6?$AA@ 1000efd0     test:smeDebug.obj
 0001:0000dff0       ??_C@_0CB@PPGENLFM@1902?5?9?5Print?5the?5SME?5statistics?6@ 1000eff0     test:smeDebug.obj
 0001:0000e014       ??_C@_0CB@ECAIFNGK@1903?5?9?5Reset?5the?5SME?5statistics?6@ 1000f014     test:smeDebug.obj
 0001:0000e038       ??_C@_0BJ@IBDBNNDJ@1904?5?9?5Print?5BSSID?5list?6?$AA@ 1000f038     test:smeDebug.obj
 0001:0000e054       ??_C@_0BG@FKAFNJNE@?5?5?5BeaconInterval?5?$CFd?6?$AA@ 1000f054     test:smeDebug.obj
 0001:0000e06c       ??_C@_0BI@EGLCOJAA@?5?5?5Capabilities?5?5?50x?$CFx?6?$AA@ 1000f06c     test:smeDebug.obj
 0001:0000e084       ??_C@_0DP@OFHNCABI@?$CFs?$CF02x?4?$CF02x?4?$CF02x?4?$CF02x?4?$CF02x?4?$CF02x?5@ 1000f084     test:smeDebug.obj
 0001:0000e0c4       ??_C@_01CLKCMJKC@?5?$AA@   1000f0c4     test:smeDebug.obj
 0001:0000e0c8       ??_C@_01NBENCBCI@?$CK?$AA@ 1000f0c8     test:smeDebug.obj
 0001:0000e0cc       ??_C@_04CHJCHPAD@?$CK?$CK?$CK?$CK?$AA@ 1000f0cc     test:smeDebug.obj
 0001:0000e0d4       ??_C@_05BFECDNIN@Adhoc?$AA@ 1000f0d4     test:smeDebug.obj
 0001:0000e0dc       ??_C@_05HFLGICND@Infra?$AA@ 1000f0dc     test:smeDebug.obj
 0001:0000e0e4       ??_C@_04LBDCJOFB@Auto?$AA@ 1000f0e4     test:smeDebug.obj
 0001:0000e0ec       ??_C@_05IHIJDGCN@?5?9?9?9?5?$AA@ 1000f0ec     test:smeDebug.obj
 0001:0000e0f4       ??_C@_0BE@PMKPMEHK@BssId?5List?3?5Num?$DN?$CFu?6?$AA@ 1000f0f4     test:smeDebug.obj
 0001:0000e108       ??_C@_0DL@JMCJICIC@?5?5?5?5?5?5?5?5?5MAC?5?5?5?5?5?5?5?5Privacy?5Rssi@ 1000f108     test:smeDebug.obj
 0001:0000e148       ??_C@_0ED@LDENENIN@ERROR?4?5sme_printBssidList?$CI?$CJ?3?5Can@ 1000f148     test:smeDebug.obj
 0001:0000e18c       ??_C@_0BG@JBPKKKAM@Not?5yet?5implemented?$CB?6?$AA@ 1000f18c     test:smeDebug.obj
 0001:0000e1a4       ??_C@_0DB@IEEIEAMC@Invalid?5function?5type?5in?5SME?5deb@ 1000f1a4     test:smeDebug.obj
 0001:0000e1d8       ??_C@_0CJ@KIEHEOEG@?5?5?5Scan?5Concentrator?5Debug?5Funct@ 1000f1d8     test:SoftGeminiDbg.obj
 0001:0000e204       ??_C@_0CJ@FOGMMMFD@1800?5?9?5Print?5the?5soft?5gemini?5Deb@ 1000f204     test:SoftGeminiDbg.obj
 0001:0000e230       ??_C@_0CJ@KMELBLHK@1801?5?9?5Print?5soft?5gemini?5paramet@ 1000f230     test:SoftGeminiDbg.obj
 0001:0000e25c       ??_C@_0CJ@CBBMFOII@1802?5?9?5Trigger?5Sense?5Mode?5?$CIenabl@ 1000f25c     test:SoftGeminiDbg.obj
 0001:0000e288       ??_C@_0CJ@IFCOAIJJ@1803?5?9?5Trigger?5Protective?5Mode?7?$CI@ 1000f288     test:SoftGeminiDbg.obj
 0001:0000e2b4       ??_C@_0DJ@EGIKLNGH@Invalid?5function?5type?5in?5soft?5ge@ 1000f2b4     test:SoftGeminiDbg.obj
 0001:0000e2f0       ??_C@_0BL@DLGJOAAD@?5?5?5SCR?5Debug?5Functions?5?5?5?6?$AA@ 1000f2f0     test:scrDbg.obj
 0001:0000e30c       ??_C@_0CB@NLKNLOPO@1700?5?9?5Print?5the?5SCR?5Debug?5Help?6@ 1000f30c     test:scrDbg.obj
 0001:0000e330       ??_C@_0EA@NEMAADEK@1701?5?$DMclient?$DO?5?9?5Request?5SCR?5as?5o@ 1000f330     test:scrDbg.obj
 0001:0000e370       ??_C@_0EA@PDJJPIPN@1702?5?$DMclient?$DO?5?9?5Release?5SCR?5as?5o@ 1000f370     test:scrDbg.obj
 0001:0000e3b0       ??_C@_0EA@FAHGICHJ@1703?5?$DMclient?$DO?5?9?5Request?5SCR?5as?5p@ 1000f3b0     test:scrDbg.obj
 0001:0000e3f0       ??_C@_0EA@FLGLELHD@1704?5?$DMclient?$DO?5?9?5Release?5SCR?5as?5p@ 1000f3f0     test:scrDbg.obj
 0001:0000e430       ??_C@_0BJ@FALCJPCH@1705?5?9?5Change?5SCR?5group?6?$AA@ 1000f430     test:scrDbg.obj
 0001:0000e44c       ??_C@_0BJ@NPCAAABN@1706?5?9?5Print?5SCR?5object?6?$AA@ 1000f44c     test:scrDbg.obj
 0001:0000e468       ??_C@_0BI@JEODDGEL@1707?5?9?5Change?5SCR?5mode?6?$AA@ 1000f468     test:scrDbg.obj
 0001:0000e480       ??_C@_0ED@OODMLHPG@Resource?5?$CFs?5was?5requested?5as?5cli@ 1000f480     test:scrDbg.obj
 0001:0000e4c4       ??_C@_0CH@KGDBBEAL@Resource?5?$CFs?5was?5released?5as?5clie@ 1000f4c4     test:scrDbg.obj
 0001:0000e4ec       ??_C@_0BN@HBEIBDCL@SCR?5group?5was?5changed?5to?5?$CFs?6?$AA@ 1000f4ec     test:scrDbg.obj
 0001:0000e50c       ??_C@_0BM@OBLGHHPG@SCR?5mode?5was?5changed?5to?5?$CFs?6?$AA@ 1000f50c     test:scrDbg.obj
 0001:0000e528       ??_C@_0CA@DMJOENKK@?$CF?922s?5?$CF?915s?5?$CF?915s?5?$CF?915s?5?$CF?915s?5?6?$AA@ 1000f528     test:scrDbg.obj
 0001:0000e548       ??_C@_0GF@MKFNHKLO@SCR?5current?5group?3?$CFs?0?5mode?3?5?$CFs?0?5@ 1000f548     test:scrDbg.obj
 0001:0000e5b0       ??_C@_0BB@HFHLDOEA@Pend?5Reason?5?$CIPS?$CJ?$AA@ 1000f5b0     test:scrDbg.obj
 0001:0000e5c4       ??_C@_0BB@HLOIDCNO@Pend?5Reason?5?$CISC?$CJ?$AA@ 1000f5c4     test:scrDbg.obj
 0001:0000e5d8       ??_C@_0L@CHKGNIEI@State?5?$CIPS?$CJ?$AA@ 1000f5d8     test:scrDbg.obj
 0001:0000e5e4       ??_C@_0L@CJDFNENG@State?5?$CISC?$CJ?$AA@ 1000f5e4     test:scrDbg.obj
 0001:0000e5f0       ??_C@_06PJIGMIJB@Client?$AA@ 1000f5f0     test:scrDbg.obj
 0001:0000e5f8       ??_C@_0BP@BCBHFOBC@?$CF?922s?5?$CF?915s?5?$CF?915s?5?$CF?915s?5?$CF?915s?6?$AA@ 1000f5f8     test:scrDbg.obj
 0001:0000e618       ??_C@_0EI@OPNCMHLI@?9?9?9?9?9?9?9?9?9?9?9?9?9?9?9?9?9?9?9?9?9?9?9?9?9?9?9?9?9?9?9?9@ 1000f618     test:scrDbg.obj
 0001:0000e660       ??_C@_02JINPPBEP@No?$AA@   1000f660     test:scrDbg.obj
 0001:0000e664       ??_C@_03CCLAEDDF@Yes?$AA@  1000f664     test:scrDbg.obj
 0001:0000e668       ??_C@_0DB@KFBFAFJP@Invalid?5function?5type?5in?5SCR?5deb@ 1000f668     test:scrDbg.obj
 0001:0000e69c       ??_C@_0CE@LNDGIIEA@?6?6?5?5?5Roaming?5Manager?5Debug?5Menu?5@ 1000f69c     test:roamingMgrDebug.obj
 0001:0000e6c0       ??_C@_0BK@ICOBFDNE@?9?9?9?9?9?9?9?9?9?9?9?9?9?9?9?9?9?9?9?9?9?9?9?9?6?$AA@ 1000f6c0     test:roamingMgrDebug.obj
 0001:0000e6dc       ??_C@_0CN@PGGEMHLI@?5?5?5?5?5?5?5?5?$CF02d?5?9?5ROAMING_MGR_DEBUG@ 1000f6dc     test:roamingMgrDebug.obj
 0001:0000e70c       ??_C@_0CK@DDPDDPDA@?5?5?5?5?5?5?5?5?$CF02d?5?9?5PRINT_ROAMING_STA@ 1000f70c     test:roamingMgrDebug.obj
 0001:0000e738       ??_C@_0CK@PCBDCOPO@?5?5?5?5?5?5?5?5?$CF02d?5?9?5RESET_ROAMING_STA@ 1000f738     test:roamingMgrDebug.obj
 0001:0000e764       ??_C@_0CO@DPKNLAGN@?5?5?5?5?5?5?5?5?$CF02d?5?9?5PRINT_ROAMING_CUR@ 1000f764     test:roamingMgrDebug.obj
 0001:0000e794       ??_C@_0CP@EBDOLPAG@?5?5?5?5?5?5?5?5?$CF02d?5?9?5PRINT_ROAMING_CAN@ 1000f794     test:roamingMgrDebug.obj
 0001:0000e7c4       ??_C@_0DD@CKKKEDOO@?5?5?5?5?5?5?5?5?$CF02d?5?9?5TRIGGER_ROAMING_L@ 1000f7c4     test:roamingMgrDebug.obj
 0001:0000e7f8       ??_C@_0DA@KDLOOPBE@?5?5?5?5?5?5?5?5?$CF02d?5?9?5TRIGGER_ROAMING_B@ 1000f7f8     test:roamingMgrDebug.obj
 0001:0000e828       ??_C@_0DG@FEOGLNHO@?5?5?5?5?5?5?5?5?$CF02d?5?9?5TRIGGER_ROAMING_S@ 1000f828     test:roamingMgrDebug.obj
 0001:0000e860       ??_C@_0DF@IHALAIPC@?5?5?5?5?5?5?5?5?$CF02d?5?9?5TRIGGER_ROAMING_A@ 1000f860     test:roamingMgrDebug.obj
 0001:0000e898       ??_C@_0CP@CMKPAMNO@?5?5?5?5?5?5?5?5?$CF02d?5?9?5TRIGGER_ROAMING_C@ 1000f898     test:roamingMgrDebug.obj
 0001:0000e8c8       ??_C@_0DF@KHGIKKJH@?5?5?5?5?5?5?5?5?$CF02d?5?9?5TRIGGER_ROAMING_N@ 1000f8c8     test:roamingMgrDebug.obj
 0001:0000e900       ??_C@_0DI@KNLCIOLB@?5?5?5?5?5?5?5?5?$CF02d?5?9?5TRIGGER_ROAMING_H@ 1000f900     test:roamingMgrDebug.obj
 0001:0000e938       ??_C@_0DI@ONLDFLCI@?5?5?5?5?5?5?5?5?$CF02d?5?9?5TRIGGER_ROAMING_H@ 1000f938     test:roamingMgrDebug.obj
 0001:0000e970       ??_C@_0BL@CIONFPFN@?6?9?9?9?9?9?9?9?9?9?9?9?9?9?9?9?9?9?9?9?9?9?9?9?9?6?$AA@ 1000f970     test:roamingMgrDebug.obj
 0001:0000e98c       ??_C@_0DA@IALHLPBP@BSSID?3?5?$CF02x?3?$CF02x?3?$CF02x?3?$CF02x?3?$CF02x?3@ 1000f98c     test:roamingMgrDebug.obj
 0001:0000e9bc       ??_C@_0DI@BLIIPLGH@channel?3?5?$CFd?0?5beacon?5interval?3?5?$CFd@ 1000f9bc     test:roamingMgrDebug.obj
 0001:0000e9f8       ??_C@_0EI@GELMGBII@?9?9?9?9?9?9?5PRINTING?5BSS?5FOUND?5AFTER?5@ 1000f9f8     test:roamingMgrDebug.obj
 0001:0000ea40       ??_C@_0EB@CHMNKPOB@Invalid?5function?5type?5in?5Debug?5?5@ 1000fa40     test:roamingMgrDebug.obj
 0001:0000ea84       ??_C@_0BP@EGIHEHND@?6?5ROAMING?5MANUAL?5MODE?5IS?3?5?$CFd?5?6?$AA@ 1000fa84     test:roamingMgrDebug.obj
 0001:0000eaa4       ??_C@_0CO@DNKIPHAD@Roaming?5connect?3?5BSS?5LIST?5num?5of@ 1000faa4     test:roamingMgrDebug.obj
 0001:0000ead4       ??_C@_0CE@FPLHNEFI@?5?5?5Scan?5Manager?5Debug?5Functions?5@ 1000fad4     test:ScanMngrDbg.obj
 0001:0000eaf8       ??_C@_0CK@IJHNLEPD@1500?5?9?5Print?5the?5scan?5manager?5De@ 1000faf8     test:ScanMngrDbg.obj
 0001:0000eb24       ??_C@_0BO@MHECABNF@1501?5?9?5Start?5continuous?5scan?6?$AA@ 1000fb24     test:ScanMngrDbg.obj
 0001:0000eb44       ??_C@_0BN@EMALIANL@1502?5?9?5Stop?5continuous?5scan?6?$AA@ 1000fb44     test:ScanMngrDbg.obj
 0001:0000eb64       ??_C@_0BN@LKAPHFKP@1503?5?9?5Start?5immediate?5scan?6?$AA@ 1000fb64     test:ScanMngrDbg.obj
 0001:0000eb84       ??_C@_0BM@DDKHLGDM@1504?5?9?5Stop?5immediate?5scan?6?$AA@ 1000fb84     test:ScanMngrDbg.obj
 0001:0000eba0       ??_C@_0BM@NMKPPLLN@1505?5?9?5Print?5tracking?5list?6?$AA@ 1000fba0     test:ScanMngrDbg.obj
 0001:0000ebbc       ??_C@_0BJ@ENKEGGKG@1506?5?9?5Print?5statistics?6?$AA@ 1000fbbc     test:ScanMngrDbg.obj
 0001:0000ebd8       ??_C@_0BJ@KEPLKOJP@1507?5?9?5Reset?5statistics?6?$AA@ 1000fbd8     test:ScanMngrDbg.obj
 0001:0000ebf4       ??_C@_0CA@JLOMMAFM@1508?5?9?5Print?5neighbor?5APs?5list?6?$AA@ 1000fbf4     test:ScanMngrDbg.obj
 0001:0000ec14       ??_C@_0BK@DEKHNPEH@1509?5?9?5Print?5Scan?5Policy?6?$AA@ 1000fc14     test:ScanMngrDbg.obj
 0001:0000ec30       ??_C@_0CC@DCLDGAOB@1510?5?9?5Print?5scan?5manager?5object@ 1000fc30     test:ScanMngrDbg.obj
 0001:0000ec54       ??_C@_0DK@BDJOMEJK@Invalid?5function?5type?5in?5scan?5ma@ 1000fc54     test:ScanMngrDbg.obj
 0001:0000ec90       ??_C@_0CP@LKBNJMEP@1400?5?9?5Print?5the?5scan?5concentrat@ 1000fc90     test:scanCncnDbg.obj
 0001:0000ecc0       ??_C@_0CC@ILJNFLCD@1401?5?9?5Print?5the?5scan?5SRV?5status@ 1000fcc0     test:scanCncnDbg.obj
 0001:0000ece4       ??_C@_0DP@GDLGOPKH@Invalid?5function?5type?5in?5scan?5co@ 1000fce4     test:scanCncnDbg.obj
 0001:0000ed24       ??_C@_0CC@DHKBFGAF@POWER?5MGR?5DEBUG?5module?5commands?3@ 1000fd24     test:PowerMgrDebug.obj
 0001:0000ed48       ??_C@_0CC@PLEDOCCI@?$DN?$DN?$DN?$DN?$DN?$DN?$DN?$DN?$DN?$DN?$DN?$DN?$DN?$DN?$DN?$DN?$DN?$DN?$DN?$DN?$DN?$DN?$DN?$DN?$DN?$DN?$DN?$DN?$DN?$DN?$DN?$DN@ 1000fd48     test:PowerMgrDebug.obj
 0001:0000ed6c       ??_C@_0BM@EHADKHH@syntax?5?5?5?5?5?5?5?5?5description?6?$AA@ 1000fd6c     test:PowerMgrDebug.obj
 0001:0000ed88       ??_C@_0CK@FFIHCPEK@?$CFd?5?9?5?5POWER_MGR_DEBUG_PRINT_ALL_@ 1000fd88     test:PowerMgrDebug.obj
 0001:0000edb4       ??_C@_0CA@OICCNMEE@?$CFd?5?9?5?5POWER_MGR_DEBUG_START_PS?6?$AA@ 1000fdb4     test:PowerMgrDebug.obj
 0001:0000edd4       ??_C@_0BP@CBKGDNAM@?$CFd?5?9?5?5POWER_MGR_DEBUG_STOP_PS?6?$AA@ 1000fdd4     test:PowerMgrDebug.obj
 0001:0000edf4       ??_C@_0BP@JKOBNNIF@?$CFd?5?9?5?5POWER_MGR_PRINT_OBJECTS?6?$AA@ 1000fdf4     test:PowerMgrDebug.obj
 0001:0000ee14       ??_C@_02PHMGELLB@?6?6?$AA@ 1000fe14     test:PowerMgrDebug.obj
 0001:0000ee18       ??_C@_0FC@BCLKEHG@?$CI?$CFd?$CJ?5?9?5ERROR?5?9?5Invalid?5function?5@ 1000fe18     test:PowerMgrDebug.obj
 0001:0000ee6c       ??_C@_0CD@NFNJJGD@?5?5?5Measurement?5Debug?5Functions?5?5@ 1000fe6c     test:measurementDbg.obj
 0001:0000ee90       ??_C@_0CB@JHDIJFKL@?$CFd?5?9?5DBG_MEASUREMENT_PRINT_HELP?6@ 1000fe90     test:measurementDbg.obj
 0001:0000eeb4       ??_C@_0CD@GDILPNFP@?$CFd?5?9?5DBG_MEASUREMENT_PRINT_STATU@ 1000feb4     test:measurementDbg.obj
 0001:0000eed8       ??_C@_0CJ@BFHPIDNG@?$CFd?5?9?5DBG_MEASUREMENT_CHANNEL_LOA@ 1000fed8     test:measurementDbg.obj
 0001:0000ef04       ??_C@_0CI@ICBIKFME@?$CFd?5?9?5DBG_MEASUREMENT_CHANNEL_LOA@ 1000ff04     test:measurementDbg.obj
 0001:0000ef2c       ??_C@_0CJ@NPAIHFIM@?$CFd?5?9?5DBG_MEASUREMENT_SEND_FRAME_@ 1000ff2c     test:measurementDbg.obj
 0001:0000ef58       ??_C@_0CH@JBNEMLJB@?$CFd?5?9?5DBG_MEASUREMENT_START_NOISE@ 1000ff58     test:measurementDbg.obj
 0001:0000ef80       ??_C@_0CG@JNHPHLML@?$CFd?5?9?5DBG_MEASUREMENT_STOP_NOISE_@ 1000ff80     test:measurementDbg.obj
 0001:0000efa8       ??_C@_0CN@NPJGFAOP@?$CFd?5?9?5DBG_MEASUREMENT_GET_NOISE_H@ 1000ffa8     test:measurementDbg.obj
 0001:0000efd8       ??_C@_0CO@GMLEENME@?$CFd?5?9?5DBG_MEASUREMENT_SEND_CHANNE@ 1000ffd8     test:measurementDbg.obj
 0001:0000f008       ??_C@_0CO@BGHOAHMO@?$CFd?5?9?5DBG_MEASUREMENT_SEND_BEACON@ 10010008     test:measurementDbg.obj
 0001:0000f038       ??_C@_0CO@IGJFGNHK@?$CFd?5?9?5DBG_MEASUREMENT_SEND_NOISE_@ 10010038     test:measurementDbg.obj
 0001:0000f068       ??_C@_0CO@LPBIFBLP@?$CFd?5?9?5DBG_MEASUREMENT_SEND_NOISE_@ 10010068     test:measurementDbg.obj
 0001:0000f098       ??_C@_0CJ@KBGLEBHB@?$CFd?5?9?5DBG_MEASUREMENT_SET_TRAFFIC@ 10010098     test:measurementDbg.obj
 0001:0000f0c4       ??_C@_0BK@KCPHNEKI@?$CFd?5?9?5DBG_SC_PRINT_STATUS?6?$AA@ 100100c4     test:measurementDbg.obj
 0001:0000f0e0       ??_C@_0CE@JJOCPDPE@?$CFd?5?9?5DBG_SC_SET_SWITCH_CHANNEL_N@ 100100e0     test:measurementDbg.obj
 0001:0000f104       ??_C@_0CF@HLBIENLM@?$CFd?5?9?5DBG_SC_SET_SWITCH_CHANNEL_T@ 10010104     test:measurementDbg.obj
 0001:0000f12c       ??_C@_0CF@OKKMEEIG@?$CFd?5?9?5DBG_SC_SET_SWITCH_CHANNEL_M@ 1001012c     test:measurementDbg.obj
 0001:0000f154       ??_C@_0CC@GAPDNPFI@?$CFd?5?9?5DBG_SC_SET_CHANNEL_AS_VALID@ 10010154     test:measurementDbg.obj
 0001:0000f178       ??_C@_0CE@NFAHNHIP@?$CFd?5?9?5DBG_SC_SET_CHANNEL_AS_INVAL@ 10010178     test:measurementDbg.obj
 0001:0000f19c       ??_C@_0CA@GOEDJLOP@?$CFd?5?9?5DBG_SC_SWITCH_CHANNEL_CMD?6?$AA@ 1001019c     test:measurementDbg.obj
 0001:0000f1bc       ??_C@_0CH@PEMFMAJL@?$CFd?5?9?5DBG_SC_CANCEL_SWITCH_CHANNE@ 100101bc     test:measurementDbg.obj
 0001:0000f1e4       ??_C@_0CK@JOANHOFJ@?$CFd?5?9?5DBG_REG_DOMAIN_PRINT_VALID_@ 100101e4     test:measurementDbg.obj
 0001:0000f210       ??_C@_0DL@BDLENHNO@Invalid?5function?5type?5in?5MEASURE@ 10010210     test:measurementDbg.obj
 0001:0000f250       ??_C@_0EB@DCNHIPPP@?5?5?5Measurement?5Debug?5Function?3?5S@ 10010250     test:measurementDbg.obj
 0001:0000f298       ??_C@_0EB@IFGMHMNC@?5?5?5Measurement?5Debug?5Function?3?5S@ 10010298     test:measurementDbg.obj
 0001:0000f2e0       ??_C@_0EB@BCDGD@?5?5?5Measurement?5Debug?5Function?3?5S@ 100102e0     test:measurementDbg.obj
 0001:0000f328       ??_C@_0EB@KCIJAHIC@?5?5?5Measurement?5Debug?5Function?3?5E@ 10010328     test:measurementDbg.obj
 0001:0000f370       ??_C@_0EB@FIJHBPFG@?9?9?9?9?9?9?9?9?9?9?9?9?9?9?9?9?9?9?9?9?9?9?9?9?9?9?9?9?9?9?9?9@ 10010370     test:measurementDbg.obj
 0001:0000f3b4       ??_C@_0DF@IDNBOFLF@Measurement?5Debug?5Functions?5?9?5St@ 100103b4     test:measurementDbg.obj
 0001:0000f3ec       ??_C@_0DH@BNELGDAB@Measurement?5Debug?5Functions?5?9?5St@ 100103ec     test:measurementDbg.obj
 0001:0000f424       ??_C@_0DG@BNPKFEGK@Measurement?5Debug?5Functions?5?9?5St@ 10010424     test:measurementDbg.obj
 0001:0000f45c       ??_C@_0DI@KHINKHOA@Measurement?5Debug?5Functions?5?9?5St@ 1001045c     test:measurementDbg.obj
 0001:0000f494       ??_C@_0DH@NCADBFLH@?5?5?5Measurement?5Debug?5Function?3?5S@ 10010494     test:measurementDbg.obj
 0001:0000f4cc       ??_C@_0BF@BEGMDAFN@beaconInterval?5?$DN?5?$CFd?6?$AA@ 100104cc     test:measurementDbg.obj
 0001:0000f4e4       ??_C@_0BB@EDDIPCKH@dtimPeriod?5?$DN?5?$CFd?6?$AA@ 100104e4     test:measurementDbg.obj
 0001:0000f4f8       ??_C@_0DH@PHGDLBOO@?5?5?5Measurement?5Debug?5Function?3?5E@ 100104f8     test:measurementDbg.obj
 0001:0000f530       ??_C@_0DH@HPPBEFJM@?9?9?9?9?9?9?9?9?9?9?9?9?9?9?9?9?9?9?9?9?9?9?9?9?9?9?9?9?9?9?9?9@ 10010530     test:measurementDbg.obj
 0001:0000f568       ??_C@_0CA@PEPGGBML@?6?5?5?5qosMngr?5Debug?5Functions?5?5?5?6?$AA@ 10010568     test:qosMngrDbg.obj
 0001:0000f588       ??_C@_0CG@GGMHFNMJ@1000?5?9?5Print?5the?5QOS?5MNGR?5Debug?5@ 10010588     test:qosMngrDbg.obj
 0001:0000f5b0       ??_C@_0BN@HNNINACO@1001?5?9?5print?5QOS?5parameters?6?$AA@ 100105b0     test:qosMngrDbg.obj
 0001:0000f5d0       ??_C@_0BA@KFDPNAJE@VO?5Parameters?3?6?$AA@ 100105d0     test:qosMngrDbg.obj
 0001:0000f5e0       ??_C@_0BA@IHMFAEGG@VI?5Parameters?3?6?$AA@ 100105e0     test:qosMngrDbg.obj
 0001:0000f5f0       ??_C@_0BA@PACGNPJL@BE?5Parameters?3?6?$AA@ 100105f0     test:qosMngrDbg.obj
 0001:0000f600       ??_C@_0BE@BABOJEGE@Desired?5PsMode?5?3?$CFd?6?$AA@ 10010600     test:qosMngrDbg.obj
 0001:0000f614       ??_C@_0BE@MAJGOAC@Current?5PsMode?5?3?$CFd?6?$AA@ 10010614     test:qosMngrDbg.obj
 0001:0000f628       ??_C@_0BA@BNFFMHOO@BK?5Parameters?3?6?$AA@ 10010628     test:qosMngrDbg.obj
 0001:0000f638       ??_C@_0L@DABPAANP@aifsn?5?3?$CFd?6?$AA@ 10010638     test:qosMngrDbg.obj
 0001:0000f644       ??_C@_0L@LMMLDJNI@cwMin?5?3?$CFd?6?$AA@ 10010644     test:qosMngrDbg.obj
 0001:0000f650       ??_C@_0L@GLCAILJJ@cwMax?5?3?$CFd?6?$AA@ 10010650     test:qosMngrDbg.obj
 0001:0000f65c       ??_C@_0P@DFBMJMJJ@txopLimit?5?3?$CFd?6?$AA@ 1001065c     test:qosMngrDbg.obj
 0001:0000f66c       ??_C@_0CC@NDHJHFCK@Current?5Power?5Save?5Mode?5?$DN?5Legacy@ 1001066c     test:qosMngrDbg.obj
 0001:0000f690       ??_C@_0CA@BKPLLNIN@Current?5Power?5Save?5Mode?5?$DN?5UPSD?6?$AA@ 10010690     test:qosMngrDbg.obj
 0001:0000f6b0       ??_C@_0CC@FLMLNMHP@Desired?5Power?5Save?5Mode?5?$DN?5Legacy@ 100106b0     test:qosMngrDbg.obj
 0001:0000f6d4       ??_C@_0CA@DJHOGAHJ@Desired?5Power?5Save?5Mode?5?$DN?5UPSD?6?$AA@ 100106d4     test:qosMngrDbg.obj
 0001:0000f6f4       ??_C@_0BI@PECHDECF@QOS?5protocol?5?$DN?5QOS_WME?6?$AA@ 100106f4     test:qosMngrDbg.obj
 0001:0000f70c       ??_C@_0BA@LPINKCPH@PS?5POLL?5Modes?3?6?$AA@ 1001070c     test:qosMngrDbg.obj
 0001:0000f71c       ??_C@_0M@CANBKDOG@PS_POLL?3?70?6?$AA@ 1001071c     test:qosMngrDbg.obj
 0001:0000f728       ??_C@_09DECHOHPE@UPSD?7?3?71?6?$AA@ 10010728     test:qosMngrDbg.obj
 0001:0000f734       ??_C@_0M@JKEEEBAA@Ps?5None?3?52?6?$AA@ 10010734     test:qosMngrDbg.obj
 0001:0000f740       ??_C@_0BF@JLKGNLHJ@QOS?5protocol?5?$DN?5NONE?6?$AA@ 10010740     test:qosMngrDbg.obj
 0001:0000f758       ??_C@_0BC@PEINIGPD@QOS?5Parameters?5?3?6?$AA@ 10010758     test:qosMngrDbg.obj
 0001:0000f76c       ??_C@_0DJ@DOACLHCO@?6Invalid?5function?5type?5in?5QOS?5MN@ 1001076c     test:qosMngrDbg.obj
 0001:0000f7a8       ??_C@_0CB@GFHNCFHJ@MAC?5REGS?5?$CIBase?$DN0x?$CF08x?$CJ?5?$DN?50x?$CF08x?6@ 100107a8     test:TWD_Debug.obj
 0001:0000f7cc       ??_C@_0CB@KLCLFPOJ@PHY?5REGS?5?$CIBase?$DN0x?$CF08x?$CJ?5?$DN?50x?$CF08x?6@ 100107cc     test:TWD_Debug.obj
 0001:0000f7f0       ??_C@_0ID@FACLKMAJ@PrintBuf?3?50x?$CF08x?3?50x?$CF02x?50x?$CF02x?5@ 100107f0     test:TWD_Debug.obj
 0001:0000f874       ??_C@_0BK@IPLOLMFE@Command?5complete?5error?5?6?6?$AA@ 10010874     test:TWD_Debug.obj
 0001:0000f890       ??_C@_0BH@GHDMEEKC@Wrong?5memory?5type?5?$CFd?6?6?$AA@ 10010890     test:TWD_Debug.obj
 0001:0000f8a8       ??_C@_0BF@OKGLHALH@TWD_PrintMemoryMap?3?6?$AA@ 100108a8     test:TWD_Debug.obj
 0001:0000f8c0       ??_C@_0JN@HDFIKMEG@?7Code?5?5?$CI0x?$CF08x?0?50x?$CF08x?$CJ?6?7Wep?5?5?$CI0@ 100108c0     test:TWD_Debug.obj
 0001:0000f960       ??_C@_0BI@GGABFJLO@RcvdBeaconsCnt?5?5?5?5?$DN?5?$CFd?6?$AA@ 10010960     test:TWD_Debug.obj
 0001:0000f978       ??_C@_0BO@NCMFDPGO@ConnectionOutOfSync?5?5?5?5?$DN?5?$CFd?6?6?$AA@ 10010978     test:TWD_Debug.obj
 0001:0000f998       ??_C@_0CF@OFPKOIKJ@Single?5Missed?5Beacon?5?5?5?5?5?5?5?5?5?5?5?$DN@ 10010998     test:TWD_Debug.obj
 0001:0000f9c0       ??_C@_0CF@ONMOILCJ@2?5Continuous?5Missed?5Beacons?5?5?5?5?$DN@ 100109c0     test:TWD_Debug.obj
 0001:0000f9e8       ??_C@_0CF@GNDOJMDG@3?5Continuous?5Missed?5Beacons?5?5?5?5?$DN@ 100109e8     test:TWD_Debug.obj
 0001:0000fa10       ??_C@_0CF@FJAMPFOJ@4?5Continuous?5Missed?5Beacons?5?5?5?5?$DN@ 10010a10     test:TWD_Debug.obj
 0001:0000fa38       ??_C@_0CF@NJPMOCPG@5?5Continuous?5Missed?5Beacons?5?5?5?5?$DN@ 10010a38     test:TWD_Debug.obj
 0001:0000fa60       ??_C@_0CF@IDJNNNJG@6?5Continuous?5Missed?5Beacons?5?5?5?5?$DN@ 10010a60     test:TWD_Debug.obj
 0001:0000fa88       ??_C@_0CF@DGNMKIJ@7?5Continuous?5Missed?5Beacons?5?5?5?5?$DN@ 10010a88     test:TWD_Debug.obj
 0001:0000fab0       ??_C@_0CF@OLPJAOCI@8?5Continuous?5Missed?5Beacons?5?5?5?5?$DN@ 10010ab0     test:TWD_Debug.obj
 0001:0000fad8       ??_C@_0CF@GLAJBJDH@9?5Continuous?5Missed?5Beacons?5?5?5?5?$DN@ 10010ad8     test:TWD_Debug.obj
 0001:0000fb00       ??_C@_0CG@MEGFANNE@?$DO?$DN10?5Continuous?5Missed?5Beacons?5?$DN@ 10010b00     test:TWD_Debug.obj
 0001:0000fb28       ??_C@_0BN@BNCCDLIH@RcvdAwakeBeaconsCnt?5?5?5?5?$DN?5?$CFd?6?$AA@ 10010b28     test:TWD_Debug.obj
 0001:0000fb48       ??_C@_0CK@KLKMCMFF@Single?5Missed?5Beacon?5?5?5?5?5?5?5?5?$FLAwa@ 10010b48     test:TWD_Debug.obj
 0001:0000fb74       ??_C@_0CK@NIGCADGO@2?5Continuous?5Missed?5Beacons?5?$FLAwa@ 10010b74     test:TWD_Debug.obj
 0001:0000fba0       ??_C@_0CK@HJFLIHIA@3?5Continuous?5Missed?5Beacons?5?$FLAwa@ 10010ba0     test:TWD_Debug.obj
 0001:0000fbcc       ??_C@_0CK@KIBFBFII@4?5Continuous?5Missed?5Beacons?5?$FLAwa@ 10010bcc     test:TWD_Debug.obj
 0001:0000fbf8       ??_C@_0CK@JCMJBGG@5?5Continuous?5Missed?5Beacons?5?$FLAwa@ 10010bf8     test:TWD_Debug.obj
 0001:0000fc24       ??_C@_0CK@DBBHBKBF@6?5Continuous?5Missed?5Beacons?5?$FLAwa@ 10010c24     test:TWD_Debug.obj
 0001:0000fc50       ??_C@_0CK@JACOJOPL@7?5Continuous?5Missed?5Beacons?5?$FLAwa@ 10010c50     test:TWD_Debug.obj
 0001:0000fc7c       ??_C@_0CK@EIPLDIEE@8?5Continuous?5Missed?5Beacons?5?$FLAwa@ 10010c7c     test:TWD_Debug.obj
 0001:0000fca8       ??_C@_0CK@OJMCLMKK@9?5Continuous?5Missed?5Beacons?5?$FLAwa@ 10010ca8     test:TWD_Debug.obj
 0001:0000fcd4       ??_C@_0CN@KKBLALMM@?$DO?$DN10?5Continuous?5Missed?5Beacons?5?$FL@ 10010cd4     test:TWD_Debug.obj
 0001:0000fd04       ??_C@_0CK@ELEDDKFK@MissingBcnsCnt?5?5?5?5?$DN?5?$CFd?5?$CIpercenta@ 10010d04     test:TWD_Debug.obj
 0001:0000fd30       ??_C@_0CM@LLNHBLBA@MissingBcnsCnt?5?5?5?5?$DN?5?$CFd?5?$CIpercenta@ 10010d30     test:TWD_Debug.obj
 0001:0000fd5c       ??_C@_0CO@CFEJNMHC@?9?9?9?9?9?9?5?5Ring?5statistics?5?5?9?9?9?9?9?9?9@ 10010d5c     test:TWD_Debug.obj
 0001:0000fd8c       ??_C@_0BJ@DLGIEHKN@numOfTxProcs?5?5?5?5?5?5?5?$DN?5?$CFd?6?$AA@ 10010d8c     test:TWD_Debug.obj
 0001:0000fda8       ??_C@_0BJ@JHDCIIBF@numOfPreparedDescs?5?$DN?5?$CFd?6?$AA@ 10010da8     test:TWD_Debug.obj
 0001:0000fdc4       ??_C@_0BJ@CHOBNEJG@numOfTxXfr?5?5?5?5?5?5?5?5?5?$DN?5?$CFd?6?$AA@ 10010dc4     test:TWD_Debug.obj
 0001:0000fde0       ??_C@_0BJ@GPNOGPPC@numOfTxDma?5?5?5?5?5?5?5?5?5?$DN?5?$CFd?6?$AA@ 10010de0     test:TWD_Debug.obj
 0001:0000fdfc       ??_C@_0BJ@HHBGFMIG@numOfTxCmplt?5?5?5?5?5?5?5?$DN?5?$CFd?6?$AA@ 10010dfc     test:TWD_Debug.obj
 0001:0000fe18       ??_C@_0BJ@LPELNKHI@numOfRxProcs?5?5?5?5?5?5?5?$DN?5?$CFd?6?$AA@ 10010e18     test:TWD_Debug.obj
 0001:0000fe34       ??_C@_0BJ@JBJLNJGL@numOfRxData?5?5?5?5?5?5?5?5?$DN?5?$CFd?6?$AA@ 10010e34     test:TWD_Debug.obj
 0001:0000fe50       ??_C@_0CP@JAGLAGKO@?9?9?9?9?9?9?5?5Debug?5statistics?5?5?9?9?9?9?9?9@ 10010e50     test:TWD_Debug.obj
 0001:0000fe80       ??_C@_0N@HDMIBKJH@debug1?5?$DN?5?$CFd?6?$AA@ 10010e80     test:TWD_Debug.obj
 0001:0000fe90       ??_C@_0N@PNEHBNHE@debug2?5?$DN?5?$CFd?6?$AA@ 10010e90     test:TWD_Debug.obj
 0001:0000fea0       ??_C@_0N@DBONBNOK@debug3?5?$DN?5?$CFd?6?$AA@ 10010ea0     test:TWD_Debug.obj
 0001:0000feb0       ??_C@_0N@DLCIBEPD@debug4?5?$DN?5?$CFd?6?$AA@ 10010eb0     test:TWD_Debug.obj
 0001:0000fec0       ??_C@_0N@PHICBEGN@debug5?5?$DN?5?$CFd?6?$AA@ 10010ec0     test:TWD_Debug.obj
 0001:0000fed0       ??_C@_0N@HJANBDIO@debug6?5?$DN?5?$CFd?6?$AA@ 10010ed0     test:TWD_Debug.obj
 0001:0000fee0       ??_C@_0CN@IBCDLJNI@?9?9?9?9?9?9?5?5Isr?5statistics?5?5?9?9?9?9?9?9?9?9@ 10010ee0     test:TWD_Debug.obj
 0001:0000ff10       ??_C@_0L@FHCPCKNL@IRQs?5?$DN?5?$CFd?6?$AA@ 10010f10     test:TWD_Debug.obj
 0001:0000ff1c       ??_C@_0CN@JOLHMHFM@?9?9?9?9?9?9?5?5Rx?5?5statistics?5?5?9?9?9?9?9?9?9?9@ 10010f1c     test:TWD_Debug.obj
 0001:0000ff4c       ??_C@_0BN@FDCAEPAP@RxOutOfMem?5?5?5?5?5?5?5?5?5?5?5?5?5?$DN?5?$CFd?6?$AA@ 10010f4c     test:TWD_Debug.obj
 0001:0000ff6c       ??_C@_0BN@MAIANAG@RxHdrOverflow?5?5?5?5?5?5?5?5?5?5?$DN?5?$CFd?6?$AA@ 10010f6c     test:TWD_Debug.obj
 0001:0000ff8c       ??_C@_0BN@KGGKPML@RxHWStuck?5?5?5?5?5?5?5?5?5?5?5?5?5?5?$DN?5?$CFd?6?$AA@ 10010f8c     test:TWD_Debug.obj
 0001:0000ffac       ??_C@_0BN@NHGCLFCE@RxDroppedFrame?5?5?5?5?5?5?5?5?5?$DN?5?$CFd?6?$AA@ 10010fac     test:TWD_Debug.obj
 0001:0000ffcc       ??_C@_0BN@JCKKCDEH@RxCompleteDroppedFrame?5?$DN?5?$CFd?6?$AA@ 10010fcc     test:TWD_Debug.obj
 0001:0000ffec       ??_C@_0BN@HBCCFKHK@RxAllocFrame?5?5?5?5?5?5?5?5?5?5?5?$DN?5?$CFd?6?$AA@ 10010fec     test:TWD_Debug.obj
 0001:0001000c       ??_C@_0BN@DKAHOFFP@RxDoneQueue?5?5?5?5?5?5?5?5?5?5?5?5?$DN?5?$CFd?6?$AA@ 1001100c     test:TWD_Debug.obj
 0001:0001002c       ??_C@_0BN@HLONHCED@RxDone?5?5?5?5?5?5?5?5?5?5?5?5?5?5?5?5?5?$DN?5?$CFd?6?$AA@ 1001102c     test:TWD_Debug.obj
 0001:0001004c       ??_C@_0BN@GINICBAO@RxDefrag?5?5?5?5?5?5?5?5?5?5?5?5?5?5?5?$DN?5?$CFd?6?$AA@ 1001104c     test:TWD_Debug.obj
 0001:0001006c       ??_C@_0BN@OLCMELJ@RxDefragEnd?5?5?5?5?5?5?5?5?5?5?5?5?$DN?5?$CFd?6?$AA@ 1001106c     test:TWD_Debug.obj
 0001:0001008c       ??_C@_0BN@FEPPCKLG@RxMic?5?5?5?5?5?5?5?5?5?5?5?5?5?5?5?5?5?5?$DN?5?$CFd?6?$AA@ 1001108c     test:TWD_Debug.obj
 0001:000100ac       ??_C@_0BN@BKIAENKK@RxMicEnd?5?5?5?5?5?5?5?5?5?5?5?5?5?5?5?$DN?5?$CFd?6?$AA@ 100110ac     test:TWD_Debug.obj
 0001:000100cc       ??_C@_0BN@HFDABABN@RxXfr?5?5?5?5?5?5?5?5?5?5?5?5?5?5?5?5?5?5?$DN?5?$CFd?6?$AA@ 100110cc     test:TWD_Debug.obj
 0001:000100ec       ??_C@_0BN@DLEPHHAB@RxXfrEnd?5?5?5?5?5?5?5?5?5?5?5?5?5?5?5?$DN?5?$CFd?6?$AA@ 100110ec     test:TWD_Debug.obj
 0001:0001010c       ??_C@_0BN@PEHJMAKD@RxCmplt?5?5?5?5?5?5?5?5?5?5?5?5?5?5?5?5?$DN?5?$CFd?6?$AA@ 1001110c     test:TWD_Debug.obj
 0001:0001012c       ??_C@_0BN@IEPLKFJB@RxPreCmplt?5?5?5?5?5?5?5?5?5?5?5?5?5?$DN?5?$CFd?6?$AA@ 1001112c     test:TWD_Debug.obj
 0001:0001014c       ??_C@_0BN@LFKNFHHE@RxCmpltTask?5?5?5?5?5?5?5?5?5?5?5?5?$DN?5?$CFd?6?$AA@ 1001114c     test:TWD_Debug.obj
 0001:0001016c       ??_C@_0BN@IGNLDDKK@RxPhyHdr?5?5?5?5?5?5?5?5?5?5?5?5?5?5?5?$DN?5?$CFd?6?$AA@ 1001116c     test:TWD_Debug.obj
 0001:0001018c       ??_C@_0BN@NJKMLFKM@RxTimeout?5?5?5?5?5?5?5?5?5?5?5?5?5?5?$DN?5?$CFd?6?$AA@ 1001118c     test:TWD_Debug.obj
 0001:000101ac       ??_C@_0CO@NHPKBOAD@?9?9?9?9?9?9?5?5RxFilters?5statistics?5?5?9?9@ 100111ac     test:TWD_Debug.obj
 0001:000101dc       ??_C@_0BD@BCHHBNFG@arpFilter?5?5?5?5?$DN?5?$CFd?6?$AA@ 100111dc     test:TWD_Debug.obj
 0001:000101f0       ??_C@_0BD@ONPPEHGA@beaconFilter?5?$DN?5?$CFd?6?$AA@ 100111f0     test:TWD_Debug.obj
 0001:00010204       ??_C@_0BD@GKGNHFCG@dataFilter?5?5?5?$DN?5?$CFd?6?$AA@ 10011204     test:TWD_Debug.obj
 0001:00010218       ??_C@_0BD@MNNDJKII@dupFilter?5?5?5?5?$DN?5?$CFd?6?$AA@ 10011218     test:TWD_Debug.obj
 0001:0001022c       ??_C@_0BD@BIDBKKDM@MCFilter?5?5?5?5?5?$DN?5?$CFd?6?$AA@ 1001122c     test:TWD_Debug.obj
 0001:00010240       ??_C@_0BD@PGNFFPMN@ibssFilter?5?5?5?$DN?5?$CFd?6?$AA@ 10011240     test:TWD_Debug.obj
 0001:00010254       ??_C@_0CN@CKHFLJJM@?9?9?9?9?9?9?5?5Tx?5?5statistics?5?5?9?9?9?9?9?9?9?9@ 10011254     test:TWD_Debug.obj
 0001:00010284       ??_C@_0CB@IMBGDCF@numOfTxTemplatePrepared?5?5?5?5?$DN?5?$CFd?6@ 10011284     test:TWD_Debug.obj
 0001:000102a8       ??_C@_0CB@JKONHFBB@numOfTxDataPrepared?5?5?5?5?5?5?5?5?$DN?5?$CFd?6@ 100112a8     test:TWD_Debug.obj
 0001:000102cc       ??_C@_0CB@LGKDEMGL@numOfTxTemplateProgrammed?5?5?$DN?5?$CFd?6@ 100112cc     test:TWD_Debug.obj
 0001:000102f0       ??_C@_0CB@KJCFMMGM@numOfTxDataProgrammed?5?5?5?5?5?5?$DN?5?$CFd?6@ 100112f0     test:TWD_Debug.obj
 0001:00010314       ??_C@_0CB@GFJGIJCE@numOfTxBurstProgrammed?5?5?5?5?5?$DN?5?$CFd?6@ 10011314     test:TWD_Debug.obj
 0001:00010338       ??_C@_0CB@NKAKCJKL@numOfTxStarts?5?5?5?5?5?5?5?5?5?5?5?5?5?5?$DN?5?$CFd?6@ 10011338     test:TWD_Debug.obj
 0001:0001035c       ??_C@_0CB@DDKDLLBM@numOfTxImmResp?5?5?5?5?5?5?5?5?5?5?5?5?5?$DN?5?$CFd?6@ 1001135c     test:TWD_Debug.obj
 0001:00010380       ??_C@_0CB@PCFJGCLK@numOfTxStartTempaltes?5?5?5?5?5?5?$DN?5?$CFd?6@ 10011380     test:TWD_Debug.obj
 0001:000103a4       ??_C@_0CB@NICEHKO@numOfTxStartIntTemplate?5?5?5?5?$DN?5?$CFd?6@ 100113a4     test:TWD_Debug.obj
 0001:000103c8       ??_C@_0CB@NMNIKJII@numOfTxStartFwGen?5?5?5?5?5?5?5?5?5?5?$DN?5?$CFd?6@ 100113c8     test:TWD_Debug.obj
 0001:000103ec       ??_C@_0CB@NNKDBPNG@numOfTxStartData?5?5?5?5?5?5?5?5?5?5?5?$DN?5?$CFd?6@ 100113ec     test:TWD_Debug.obj
 0001:00010410       ??_C@_0CB@OFDPLGED@numOfTxStartNullFrame?5?5?5?5?5?5?$DN?5?$CFd?6@ 10011410     test:TWD_Debug.obj
 0001:00010434       ??_C@_0CB@FGFFILNK@numOfTxExch?5?5?5?5?5?5?5?5?5?5?5?5?5?5?5?5?$DN?5?$CFd?6@ 10011434     test:TWD_Debug.obj
 0001:00010458       ??_C@_0CB@CCOOJMDM@numOfTxRetryTemplate?5?5?5?5?5?5?5?$DN?5?$CFd?6@ 10011458     test:TWD_Debug.obj
 0001:0001047c       ??_C@_0CB@KCKAFLKE@numOfTxRetryData?5?5?5?5?5?5?5?5?5?5?5?$DN?5?$CFd?6@ 1001147c     test:TWD_Debug.obj
 0001:000104a0       ??_C@_0CB@MBLKELJA@numOfTxExchPending?5?5?5?5?5?5?5?5?5?$DN?5?$CFd?6@ 100114a0     test:TWD_Debug.obj
 0001:000104c4       ??_C@_0CB@DJNENOBM@numOfTxExchExpiry?5?5?5?5?5?5?5?5?5?5?$DN?5?$CFd?6@ 100114c4     test:TWD_Debug.obj
 0001:000104e8       ??_C@_0CB@MGDHPONM@numOfTxExchMismatch?5?5?5?5?5?5?5?5?$DN?5?$CFd?6@ 100114e8     test:TWD_Debug.obj
 0001:0001050c       ??_C@_0CB@MJBAMOM@numOfTxDoneTemplate?5?5?5?5?5?5?5?5?$DN?5?$CFd?6@ 1001150c     test:TWD_Debug.obj
 0001:00010530       ??_C@_0CB@PCMFFJFN@numOfTxDoneData?5?5?5?5?5?5?5?5?5?5?5?5?$DN?5?$CFd?6@ 10011530     test:TWD_Debug.obj
 0001:00010554       ??_C@_0CB@KMMLIBAL@numOfTxDoneIntTemplate?5?5?5?5?5?$DN?5?$CFd?6@ 10011554     test:TWD_Debug.obj
 0001:00010578       ??_C@_0CB@NNDHKKKC@numOfTxPreXfr?5?5?5?5?5?5?5?5?5?5?5?5?5?5?$DN?5?$CFd?6@ 10011578     test:TWD_Debug.obj
 0001:0001059c       ??_C@_0CB@IAFNFFCE@numOfTxXfr?5?5?5?5?5?5?5?5?5?5?5?5?5?5?5?5?5?$DN?5?$CFd?6@ 1001159c     test:TWD_Debug.obj
 0001:000105c0       ??_C@_0CB@GNENADID@numOfTxXfrOutOfMem?5?5?5?5?5?5?5?5?5?$DN?5?$CFd?6@ 100115c0     test:TWD_Debug.obj
 0001:000105e4       ??_C@_0CB@PKFJGJHM@numOfTxDmaProgrammed?5?5?5?5?5?5?5?$DN?5?$CFd?6@ 100115e4     test:TWD_Debug.obj
 0001:00010608       ??_C@_0CB@EDNKPIDL@numOfTxDmaDone?5?5?5?5?5?5?5?5?5?5?5?5?5?$DN?5?$CFd?6@ 10011608     test:TWD_Debug.obj
 0001:0001062c       ??_C@_0CO@KOLJJBPP@?9?9?9?9?9?9?5?5Dma?5?5statistics?5?5?9?9?9?9?9?9?9@ 1001162c     test:TWD_Debug.obj
 0001:0001065c       ??_C@_0BD@OJAELILO@RxDMAErrors?5?5?$DN?5?$CFd?6?$AA@ 1001165c     test:TWD_Debug.obj
 0001:00010670       ??_C@_0BD@HENILDKN@TxDMAErrors?5?5?$DN?5?$CFd?6?$AA@ 10011670     test:TWD_Debug.obj
 0001:00010684       ??_C@_0CN@OHLHIKKK@?9?9?9?9?9?9?5?5Wep?5statistics?5?5?9?9?9?9?9?9?9?9@ 10011684     test:TWD_Debug.obj
 0001:000106b4       ??_C@_0BI@GGLHPGBF@WepAddrKeyCount?5?5?5?$DN?5?$CFd?6?$AA@ 100116b4     test:TWD_Debug.obj
 0001:000106cc       ??_C@_0BI@CKMDHGCC@WepDefaultKeyCount?$DN?5?$CFd?6?$AA@ 100116cc     test:TWD_Debug.obj
 0001:000106e4       ??_C@_0BI@ECELDFHE@WepKeyNotFound?5?5?5?5?$DN?5?$CFd?6?$AA@ 100116e4     test:TWD_Debug.obj
 0001:000106fc       ??_C@_0BI@NGLHDGKK@WepDecryptFail?5?5?5?5?$DN?5?$CFd?6?$AA@ 100116fc     test:TWD_Debug.obj
 0001:00010714       ??_C@_0CN@ECGOHBDF@?9?9?9?9?9?9?9?9?9?9?9?9?5?5AES?5Statistics?5?9?9?9@ 10011714     test:TWD_Debug.obj
 0001:00010744       ??_C@_0BK@KFKADHKD@AesEncryptFail?5?5?5?5?5?5?$DN?5?$CFd?6?$AA@ 10011744     test:TWD_Debug.obj
 0001:00010760       ??_C@_0BK@LOOIFGDH@AesDecryptFail?5?5?5?5?5?5?$DN?5?$CFd?6?$AA@ 10011760     test:TWD_Debug.obj
 0001:0001077c       ??_C@_0BK@INNGOPBH@AesEncryptPackets?5?5?5?$DN?5?$CFd?6?$AA@ 1001177c     test:TWD_Debug.obj
 0001:00010798       ??_C@_0BK@JGJOIOID@AesDecryptPackets?5?5?5?$DN?5?$CFd?6?$AA@ 10011798     test:TWD_Debug.obj
 0001:000107b4       ??_C@_0BK@CFIOIEOL@AesEncryptInterrupt?5?$DN?5?$CFd?6?$AA@ 100117b4     test:TWD_Debug.obj
 0001:000107d0       ??_C@_0BK@DOMGOFHP@AesDecryptInterrupt?5?$DN?5?$CFd?6?$AA@ 100117d0     test:TWD_Debug.obj
 0001:000107ec       ??_C@_0CF@GFOLAJCG@?9?9?9?9?9?9?5?5Events?5?5?9?9?9?9?9?9?9?9?9?9?9?9?9?9?9?9@ 100117ec     test:TWD_Debug.obj
 0001:00010814       ??_C@_0BE@BCOLHMBH@Calibration?5?5?5?$DN?5?$CFd?6?$AA@ 10011814     test:TWD_Debug.obj
 0001:00010828       ??_C@_0BE@OJHJCNFF@rxMismatch?5?5?5?5?$DN?5?$CFd?6?$AA@ 10011828     test:TWD_Debug.obj
 0001:0001083c       ??_C@_0BE@DMJLOL@rxMemEmpty?5?5?5?5?$DN?5?$CFd?6?$AA@ 1001183c     test:TWD_Debug.obj
 0001:00010850       ??_C@_0CH@EBPCOBIP@?9?9?9?9?9?9?9?9?9?9?9?5PsPoll?5?1?5Upsd?5?9?9?9?9?9?9@ 10011850     test:TWD_Debug.obj
 0001:00010878       ??_C@_0BJ@PNDEHLIG@psPollTimeOuts?5?5?5?5?5?$DN?5?$CFd?6?$AA@ 10011878     test:TWD_Debug.obj
 0001:00010894       ??_C@_0BJ@FOPAPEAL@upsdTimeOuts?5?5?5?5?5?5?5?$DN?5?$CFd?6?$AA@ 10011894     test:TWD_Debug.obj
 0001:000108b0       ??_C@_0BJ@FFOFPPIH@upsdMaxAPturn?5?5?5?5?5?5?$DN?5?$CFd?6?$AA@ 100118b0     test:TWD_Debug.obj
 0001:000108cc       ??_C@_0BJ@EIHNCLPB@psPollMaxAPturn?5?5?5?5?$DN?5?$CFd?6?$AA@ 100118cc     test:TWD_Debug.obj
 0001:000108e8       ??_C@_0BJ@KMFCEADC@psPollUtilization?5?5?$DN?5?$CFd?6?$AA@ 100118e8     test:TWD_Debug.obj
 0001:00010904       ??_C@_0BJ@GPFCCHPF@upsdUtilization?5?5?5?5?$DN?5?$CFd?6?$AA@ 10011904     test:TWD_Debug.obj
 0001:00010920       ??_C@_0CI@BHEBHEIL@?9?9?9?9?9?9?9?9?9?9?9?5Calibrations?5?9?9?9?9?9?9?9@ 10011920     test:TWD_Debug.obj
 0001:00010948       ??_C@_0BM@MOPDNFNM@calStateFail?5?5?5?5?5?5?5?5?5?7?$DN?5?$CFd?6?$AA@ 10011948     test:TWD_Debug.obj
 0001:00010964       ??_C@_0BH@FNPCHAGK@initCalTotal?5?5?5?7?7?$DN?5?$CFd?6?$AA@ 10011964     test:TWD_Debug.obj
 0001:0001097c       ??_C@_0BM@BHEIPDNO@initRadioBandsFail?5?5?5?7?$DN?5?$CFd?6?$AA@ 1001197c     test:TWD_Debug.obj
 0001:00010998       ??_C@_0BJ@BEDJPOC@initRxIqMmFail?5?5?5?7?7?$DN?5?$CFd?6?$AA@ 10011998     test:TWD_Debug.obj
 0001:000109b4       ??_C@_0BI@OELNGAHO@initSetParams?5?5?5?7?7?$DN?5?$CFd?6?$AA@ 100119b4     test:TWD_Debug.obj
 0001:000109cc       ??_C@_0BJ@FMKNOMJN@initTxClpcFail?5?5?5?7?7?$DN?5?$CFd?6?$AA@ 100119cc     test:TWD_Debug.obj
 0001:000109e8       ??_C@_0BH@CJMCJHN@tuneCalTotal?5?5?5?7?7?$DN?5?$CFd?6?$AA@ 100119e8     test:TWD_Debug.obj
 0001:00010a00       ??_C@_0BI@EFFIENGD@tuneDrpwChanTune?7?7?$DN?5?$CFd?6?$AA@ 10011a00     test:TWD_Debug.obj
 0001:00010a18       ??_C@_0BH@MEFDIDOD@tuneDrpwLnaTank?7?7?$DN?5?$CFd?6?$AA@ 10011a18     test:TWD_Debug.obj
 0001:00010a30       ??_C@_0BJ@KMANGIEH@tuneDrpwPdBufFail?7?7?$DN?5?$CFd?6?$AA@ 10011a30     test:TWD_Debug.obj
 0001:00010a4c       ??_C@_0BJ@OOAAAOFA@tuneDrpwRTrimFail?7?7?$DN?5?$CFd?6?$AA@ 10011a4c     test:TWD_Debug.obj
 0001:00010a68       ??_C@_0BG@KGCCDFEI@tuneDrpwRxDac?7?7?7?$DN?5?$CFd?6?$AA@ 10011a68     test:TWD_Debug.obj
 0001:00010a80       ??_C@_0BJ@IBHDJDJB@tuneDrpwRxIf2Gain?7?7?$DN?5?$CFd?6?$AA@ 10011a80     test:TWD_Debug.obj
 0001:00010a9c       ??_C@_0BH@HBHPCPJK@tuneDrpwRxTxLpf?7?7?$DN?5?$CFd?6?$AA@ 10011a9c     test:TWD_Debug.obj
 0001:00010ab4       ??_C@_0BG@OIOBGAMO@tuneDrpwTaCal?7?7?7?$DN?5?$CFd?6?$AA@ 10011ab4     test:TWD_Debug.obj
 0001:00010acc       ??_C@_0BM@OHFHJAJN@tuneDrpwTxMixFreqFail?7?$DN?5?$CFd?6?$AA@ 10011acc     test:TWD_Debug.obj
 0001:00010ae8       ??_C@_0BK@KONGAJIH@tuneRxAnaDcFail?5?5?5?7?7?$DN?5?$CFd?6?$AA@ 10011ae8     test:TWD_Debug.obj
 0001:00010b04       ??_C@_0BJ@BGHHKNEK@tuneRxIqMmFail?5?5?5?7?7?$DN?5?$CFd?6?$AA@ 10011b04     test:TWD_Debug.obj
 0001:00010b20       ??_C@_0BJ@ELJJNODF@tuneTxClpcFail?5?5?5?7?7?$DN?5?$CFd?6?$AA@ 10011b20     test:TWD_Debug.obj
 0001:00010b3c       ??_C@_0BJ@OAEKKIIM@tuneTxIqMmFail?5?5?5?7?7?$DN?5?$CFd?6?$AA@ 10011b3c     test:TWD_Debug.obj
 0001:00010b58       ??_C@_0BK@DPPBMAEF@tuneTxLOLeakFail?5?5?5?7?$DN?5?$CFd?6?$AA@ 10011b58     test:TWD_Debug.obj
 0001:00010b74       ??_C@_0BJ@BEPNHOIA@tuneTxPdetFail?5?5?5?7?7?$DN?5?$CFd?6?$AA@ 10011b74     test:TWD_Debug.obj
 0001:00010b90       ??_C@_0BI@BLCDEOKE@tuneTxPPAFail?5?5?5?7?7?$DN?5?$CFd?6?$AA@ 10011b90     test:TWD_Debug.obj
 0001:00010ba8       ??_C@_0CG@PJDBBJLH@?9?9?9?9?9?9?5?5Power?5management?5?5?9?9?9?9?9?9@ 10011ba8     test:TWD_Debug.obj
 0001:00010bd0       ??_C@_0BL@DGLEDCJI@Invalid?5function?5type?$DN?$CFd?6?6?$AA@ 10011bd0     test:TWD_Debug.obj
 0001:00010bec       ??_C@_0BN@LAOMMFLA@PrintMailBoxHistory?5called?5?6?$AA@ 10011bec     test:TWD_Debug.obj
 0001:00010c0c       ??_C@_0BD@ONDLLDNN@CheckHwStatus?$DN?$CFd?5?6?$AA@ 10011c0c     test:TWD_Debug.obj
 0001:00010c20       ??_C@_0N@OAKHAPBM@Registers?3?5?6?$AA@ 10011c20     test:TWD_Debug.obj
 0001:00010c30       ??_C@_0CF@BEHGDDN@?5?5?5?5?5?5?5?5?$CF02d?5?9?5TWD_PRINT_SYS_INF@ 10011c30     test:TWD_Debug.obj
 0001:00010c58       ??_C@_0CG@KOOOLNKK@?5?5?5?5?5?5?5?5?$CF02d?5?9?5TWD_SET_GENERIC_A@ 10011c58     test:TWD_Debug.obj
 0001:00010c80       ??_C@_0FJ@MJKNCAOC@?5?5?5?5?5?5?5?5?$CF02d?5?9?5TWD_READ_REG_OR_4@ 10011c80     test:TWD_Debug.obj
 0001:00010ce0       ??_C@_0GL@IALPKDKP@?5?5?5?5?5?5?5?5?$CF02d?5?9?5TWD_WRITE_REG_OR_@ 10011ce0     test:TWD_Debug.obj
 0001:00010d4c       ??_C@_0L@MECGPLDC@Control?3?5?6?$AA@ 10011d4c     test:TWD_Debug.obj
 0001:00010d58       ??_C@_0CL@IECCDOKM@?5?5?5?5?5?5?5?5?$CF02d?5?9?5TWD_PRINT_MBOX_QU@ 10011d58     test:TWD_Debug.obj
 0001:00010d84       ??_C@_0DA@LEKECACL@?5?5?5?5?5?5?5?5?$CF02d?5?9?5TWD_PRINT_MBOX_QU@ 10011d84     test:TWD_Debug.obj
 0001:00010db4       ??_C@_0CL@IJDLCBBG@?5?5?5?5?5?5?5?5?$CF02d?5?9?5TWD_MAILBOX_HISTO@ 10011db4     test:TWD_Debug.obj
 0001:00010de0       ??_C@_0BN@EBPCNCBD@?5?5?5?5?5?5?5?5?$CF02d?5?9?5TWD_MAC_REG?5?6?$AA@ 10011de0     test:TWD_Debug.obj
 0001:00010e00       ??_C@_0CD@HKAGABBJ@?5?5?5?5?5?5?5?5?$CF02d?5?9?5TWD_SET_ARM_CLOCK@ 10011e00     test:TWD_Debug.obj
 0001:00010e24       ??_C@_0CD@FGNBNOOB@?5?5?5?5?5?5?5?5?$CF02d?5?9?5TWD_SET_MAC_CLOCK@ 10011e24     test:TWD_Debug.obj
 0001:00010e48       ??_C@_05JLONOKAB@Rx?3?5?6?$AA@ 10011e48     test:TWD_Debug.obj
 0001:00010e50       ??_C@_0CD@CMGNLGNA@?5?5?5?5?5?5?5?5?$CF02d?5?9?5TWD_PRINT_RX_INFO@ 10011e50     test:TWD_Debug.obj
 0001:00010e74       ??_C@_0CD@KICLFKHO@?5?5?5?5?5?5?5?5?$CF02d?5?9?5TWD_CLEAR_RX_INFO@ 10011e74     test:TWD_Debug.obj
 0001:00010e98       ??_C@_06FMHEBECL@ACX?3?5?6?$AA@ 10011e98     test:TWD_Debug.obj
 0001:00010ea0       ??_C@_0CD@PMGEBJAN@?5?5?5?5?5?5?5?5?$CF02d?5?9?5TWD_PRINT_ACX_MAP@ 10011ea0     test:TWD_Debug.obj
 0001:00010ec4       ??_C@_0CE@GMFPMOFK@?5?5?5?5?5?5?5?5?$CF02d?5?9?5TWD_PRINT_ACX_STA@ 10011ec4     test:TWD_Debug.obj
 0001:00010ee8       ??_C@_0L@OJMGEILM@General?3?5?6?$AA@ 10011ee8     test:TWD_Debug.obj
 0001:00010ef4       ??_C@_0DA@KGCFCLOC@?5?5?5?5?5?5?5?5?$CF02d?5?9?5TWD_PRINT_LIST_RE@ 10011ef4     test:TWD_Debug.obj
 0001:00010f24       ??_C@_0CP@IABEEKAC@?5?5?5?5?5?5?5?5?$CF02d?5?9?5TWD_PRINT_LIST_ME@ 10011f24     test:TWD_Debug.obj
 0001:00010f54       ??_C@_0M@JAEOFFPB@Recovery?3?5?6?$AA@ 10011f54     test:TWD_Debug.obj
 0001:00010f60       ??_C@_0BO@JJBEDCIG@?5?5?5?5?5?5?5?5?$CF02d?5?9?5TWD_CHECK_HW?5?6?$AA@ 10011f60     test:TWD_Debug.obj
 0001:00010f80       ??_C@_0CF@OLFLKGLH@?5?5?5?5?5?5?5?5?$CF02d?5?9?5TWD_PRINT_HW_STAT@ 10011f80     test:TWD_Debug.obj
 0001:00010fa8       ??_C@_0BC@EGBOCGCG@Event?5Mail?5Box?3?5?6?$AA@ 10011fa8     test:TWD_Debug.obj
 0001:00010fbc       ??_C@_0CH@MOJFIFFB@?5?5?5?5?5?5?5?5?$CF02d?5?9?5PRINT?5EVENT?5MBOX?5@ 10011fbc     test:TWD_Debug.obj
 0001:00010fe4       ??_C@_0CH@OMOOJMDC@?5?5?5?5?5?5?5?5?$CF02d?5?9?5PRINT?5EVENT?5MBOX?5@ 10011fe4     test:TWD_Debug.obj
 0001:0001100c       ??_C@_0CJ@BDPDFKON@?5?5?5?5?5?5?5?5?$CF02d?5?9?5PRINT?5EVENT?5MBOX?5@ 1001200c     test:TWD_Debug.obj
 0001:00011038       ??_C@_08OIBCBIG@Other?3?5?6?$AA@ 10012038     test:TWD_Debug.obj
 0001:00011044       ??_C@_0CJ@HHJMJAKG@?5?5?5?5?5?5?5?5?$CF02d?5?9?5TWD_PRINT_FW_EVEN@ 10012044     test:TWD_Debug.obj
 0001:00011070       ??_C@_0CG@MLLAOBCK@?5?5?5?5?5?5?5?5?$CF02d?5?9?5TWD_PRINT_TW_IF_I@ 10012070     test:TWD_Debug.obj
 0001:00011098       ??_C@_0CF@PIOFNAKC@?5?5?5?5?5?5?5?5?$CF02d?5?9?5TWD_PRINT_MBOX_IN@ 10012098     test:TWD_Debug.obj
 0001:000110c0       ??_C@_0CL@DNHODAJB@?5?5?5?5?5?5?5?5?$CF02d?5?9?5TWD_FORCE_TEMPLAT@ 100120c0     test:TWD_Debug.obj
 0001:000110ec       ??_C@_0DA@MCMEMGNG@PrintListRegsThroughMbox?5?9?9?9?9?9?9?9@ 100120ec     test:TWD_Debug.obj
 0001:0001111c       ??_C@_0BK@MAIAMBFJ@?$CF4d?3?5?$CF08d?5?$CF08d?5?$CF08d?5?$CF08d?6?$AA@ 1001211c     test:TWD_Debug.obj
 0001:00011138       ??_C@_0EJ@LGDIEOGA@TWD_Debug?0?5TWD_PRINT_EVENT_MBOX_@ 10012138     test:TWD_Debug.obj
 0001:00011188       ??_C@_0EF@OEOFFMAA@TWD_Debug?0?5TWD_PRINT_EVENT_MBOX_@ 10012188     test:TWD_Debug.obj
 0001:000111d0       ??_C@_0CP@MIMDLHLI@TWD_Debug?0?5TWD_WRITE_MEM?5Address@ 100121d0     test:TWD_Debug.obj
 0001:00011200       ??_C@_0DK@CPFFMFKJ@TWD_Debug?0?5TWD_WRITE_MEM?3?5Writin@ 10012200     test:TWD_Debug.obj
 0001:0001123c       ??_C@_0DI@BIHBGFKO@TWD_Debug?0?5TWD_WRITE_MEM?3?7Writin@ 1001223c     test:TWD_Debug.obj
 0001:00011274       ??_C@_0CG@KCOFIJMJ@TWD_Debug?0?5TWD_WRITE_MEM?0?5Addr?3?7@ 10012274     test:TWD_Debug.obj
 0001:0001129c       ??_C@_0CO@BILHEIBC@TWD_Debug?0?5TWD_READ_MEM?5Address?5@ 1001229c     test:TWD_Debug.obj
 0001:000112cc       ??_C@_0CP@HAJPNLFA@Read?5from?5MEM?5Addr?50x?$CFx?5the?5foll@ 100122cc     test:TWD_Debug.obj
 0001:000112fc       ??_C@_05KHGEGJLC@0x?$CFX?7?$AA@ 100122fc     test:TWD_Debug.obj
 0001:00011304       ??_C@_0CB@HBBLPFHF@TWD_Debug?0?5read?5register?5failed?6@ 10012304     test:TWD_Debug.obj
 0001:00011328       ??_C@_0DJ@IOLFIPBH@TWD_Debug?0?5TWD_READ_MEM?3?5Reading@ 10012328     test:TWD_Debug.obj
 0001:00011364       ??_C@_0BP@OAHJJNBJ@TWD_Debug?0?5read?5memory?5failed?6?$AA@ 10012364     test:TWD_Debug.obj
 0001:00011384       ??_C@_0DH@NBGLJJDI@TWD_Debug?0?5TWD_READ_MEM?3?5Reading@ 10012384     test:TWD_Debug.obj
 0001:000113bc       ??_C@_0CF@BDKHMAGJ@TWD_Debug?0?5TWD_READ_MEM?0?5Addr?3?70@ 100123bc     test:TWD_Debug.obj
 0001:000113e4       ??_C@_0BG@ELDBGFBB@PLATFORM?5?$DN?5TNETW125x?6?$AA@ 100123e4     test:TWD_Debug.obj
 0001:000113fc       ??_C@_0BF@HDBMIEMK@ACCESS?5MODE?5?$DN?5SLAVE?6?$AA@ 100123fc     test:TWD_Debug.obj
 0001:00011414       ??_C@_0CD@IDFFDGNG@TWD_Debug?3?5Error?5?9?5pParam?5is?5NUL@ 10012414     test:TWD_Debug.obj
 0001:00011438       ??_C@_0BL@HNFBGCHC@?5?5?5Rsn?5Debug?5Functions?5?5?5?6?$AA@ 10012438     test:rsnDbg.obj
 0001:00011454       ??_C@_0BL@IDJNKIA@702?5?9?5Set?5default?5key?5id?5?6?$AA@ 10012454     test:rsnDbg.obj
 0001:00011470       ??_C@_0CJ@FEDFNND@703?5?9?5Set?5desired?5Authentication@ 10012470     test:rsnDbg.obj
 0001:0001149c       ??_C@_0CB@BCHFJPCA@704?5?9?5Set?5desired?5cipher?5suite?5?6@ 1001249c     test:rsnDbg.obj
 0001:000114c0       ??_C@_0FG@LEAAOLIN@706?5?9?5Generate?5MIC?5FAILURE?5repor@ 100124c0     test:rsnDbg.obj
 0001:00011518       ??_C@_0DH@HONHLOG@707?5?9?5Get?5802?411?5authentication?1@ 10012518     test:rsnDbg.obj
 0001:00011550       ??_C@_0BI@ILJPNBNK@708?5?9?5Get?5PMKID?5cache?5?6?$AA@ 10012550     test:rsnDbg.obj
 0001:00011568       ??_C@_0BL@GNKEHNAG@709?5?9?5ReSet?5PMKID?5cache?5?5?6?$AA@ 10012568     test:rsnDbg.obj
 0001:00011584       ??_C@_0BM@MEJCHCBF@710?5?9?5Print?5Rogue?5AP?5table?6?$AA@ 10012584     test:rsnDbg.obj
 0001:000115a0       ??_C@_0DD@KOJKJCJM@Invalid?5function?5type?5in?5RSN?5Fun@ 100125a0     test:rsnDbg.obj
 0001:000115d4       ??_C@_0BB@KOLKFIDG@?6?6PORT?5is?5?$CFs?5?$CB?$CB?6?$AA@ 100125d4     test:rsnDbg.obj
 0001:000115e8       ??_C@_05HKHBPABE@CLOSE?$AA@ 100125e8     test:rsnDbg.obj
 0001:000115f0       ??_C@_04DANIOFHI@OPEN?$AA@ 100125f0     test:rsnDbg.obj
 0001:000115f8       ??_C@_0BN@JOPIHCLN@Setting?5PORT?5STATUS?5to?5open?6?$AA@ 100125f8     test:rsnDbg.obj
 0001:00011618       ??_C@_0CF@BMKJJNDB@RSN?5DBG?5?9?5Set?5desired?5cipher?5sui@ 10012618     test:rsnDbg.obj
 0001:00011640       ??_C@_0CN@MKMPCLGE@RSN?5DBG?5?9?5Set?5desired?5Authentica@ 10012640     test:rsnDbg.obj
 0001:00011670       ??_C@_0BI@EECKDFI@?5?5Conn?5Dbg?5Functions?5?5?6?$AA@ 10012670     test:connDebug.obj
 0001:00011688       ??_C@_0BO@BDKKAKCG@601?5?9?5Connection?5Print?5Test?4?6?$AA@ 10012688     test:connDebug.obj
 0001:000116a8       ??_C@_0DE@GKHJMMDF@Connection?5Print?5Test?0?5param?5?$DN?5?$CF@ 100126a8     test:connDebug.obj
 0001:000116e0       ??_C@_0EB@HJPKNCGK@Invalid?5function?5type?5in?5Debug?5C@ 100126e0     test:connDebug.obj
 0001:00011724       ??_C@_0BF@MGNDNADO@Beacon?5interval?7?7?$CFd?6?$AA@ 10012724     test:siteMgrDebug.obj
 0001:0001173c       ??_C@_0BF@GLHEJKPN@Local?5Time?5Stamp?7?$CFd?6?$AA@ 1001273c     test:siteMgrDebug.obj
 0001:00011754       ??_C@_0L@LEJIHNCK@rssi?7?7?7?$CFd?6?$AA@ 10012754     test:siteMgrDebug.obj
 0001:00011760       ??_C@_0BB@MFOGPKLG@Fail?5status?7?7?$CFd?6?$AA@ 10012760     test:siteMgrDebug.obj
 0001:00011778       ??_C@_0ED@BGGEDDLK@?6?9?9?9?9?9?9?9?9?9?9?9?9?9?9?9?9?9?9?9?9?9?9?9?9?9?9?9?9?9?9?9@ 10012778     test:siteMgrDebug.obj
 0001:000117bc       ??_C@_0BM@MEEIDCNG@Slot?5time?5type?7?7?7?7?7?5?5?5Long?6?$AA@ 100127bc     test:siteMgrDebug.obj
 0001:000117d8       ??_C@_0BN@BNMAMAIB@Slot?5time?5type?7?7?7?7?7?5?5?5Short?6?$AA@ 100127d8     test:siteMgrDebug.obj
 0001:000117f8       ??_C@_0BM@LIIHKGGA@Barker_Preamble?5Type?7?7Long?6?$AA@ 100127f8     test:siteMgrDebug.obj
 0001:00011814       ??_C@_0BN@DPLOBJKM@Barker_Preamble?5Type?7?7Short?6?$AA@ 10012814     test:siteMgrDebug.obj
 0001:00011834       ??_C@_0CD@OLJOBCOA@Barker?5preamble?5Type?7?7Unspecifie@ 10012834     test:siteMgrDebug.obj
 0001:00011858       ??_C@_0BG@JNMIDOIK@Preamble?7INVALID?0?5?$CFd?6?$AA@ 10012858     test:siteMgrDebug.obj
 0001:00011870       ??_C@_0BM@KDDDPPKF@Cap?5Preamble?5Type?5?5?5?5?5Long?6?$AA@ 10012870     test:siteMgrDebug.obj
 0001:0001188c       ??_C@_0BN@NEKLJLMK@Cap?5Preamble?5Type?5?5?5?5?5Short?6?$AA@ 1001288c     test:siteMgrDebug.obj
 0001:000118ac       ??_C@_0BM@IMCHHFGO@Privacy?7?7?7?7?7?7?7?5?5?5?5?5?5?5?5Off?6?6?$AA@ 100128ac     test:siteMgrDebug.obj
 0001:000118c8       ??_C@_0BL@JAKFGOOL@Privacy?7?7?7?7?7?7?7?5?5?5?5?5?5?5?5On?6?6?$AA@ 100128c8     test:siteMgrDebug.obj
 0001:000118e4       ??_C@_0BP@GKBPKGMO@Beacon?5Modulation?7INVALID?0?5?$CFd?6?$AA@ 100128e4     test:siteMgrDebug.obj
 0001:00011904       ??_C@_0BI@PFBENPNE@Beacon?5Modulation?7OFDM?6?$AA@ 10012904     test:siteMgrDebug.obj
 0001:0001191c       ??_C@_0BI@GFFNNMOJ@Beacon?5Modulation?7PBCC?6?$AA@ 1001291c     test:siteMgrDebug.obj
 0001:00011934       ??_C@_0BH@LNIEOJIF@Beacon?5Modulation?7CCK?6?$AA@ 10012934     test:siteMgrDebug.obj
 0001:0001194c       ??_C@_0BI@OKCLMNIJ@Beacon?5Modulation?7QPSK?6?$AA@ 1001294c     test:siteMgrDebug.obj
 0001:00011964       ??_C@_0BO@PJLGKLK@Probe?5Modulation?7INVALID?0?5?$CFd?6?$AA@ 10012964     test:siteMgrDebug.obj
 0001:00011984       ??_C@_0BH@PIAILBNE@Probe?5Modulation?7OFDM?6?$AA@ 10012984     test:siteMgrDebug.obj
 0001:0001199c       ??_C@_0BH@GIEBLCOJ@Probe?5Modulation?7PBCC?6?$AA@ 1001299c     test:siteMgrDebug.obj
 0001:000119b4       ??_C@_0BG@MMIANHAP@Probe?5Modulation?7CCK?6?$AA@ 100129b4     test:siteMgrDebug.obj
 0001:000119cc       ??_C@_0BH@OHDHKDIJ@Probe?5Modulation?7QPSK?6?$AA@ 100129cc     test:siteMgrDebug.obj
 0001:000119e4       ??_C@_0CB@INOBHOAD@Max?5Active?5Rate?7?7INVALID?0?5?50x?$CFX?6@ 100129e4     test:siteMgrDebug.obj
 0001:00011a08       ??_C@_0BP@FAJOODEO@Max?5Active?5Rate?7?7RATE_54M_BIT?6?$AA@ 10012a08     test:siteMgrDebug.obj
 0001:00011a28       ??_C@_0BP@BAEKOCEC@Max?5Active?5Rate?7?7RATE_48M_BIT?6?$AA@ 10012a28     test:siteMgrDebug.obj
 0001:00011a48       ??_C@_0BP@GBKBJNLJ@Max?5Active?5Rate?7?7RATE_36M_BIT?6?$AA@ 10012a48     test:siteMgrDebug.obj
 0001:00011a68       ??_C@_0BP@DEPPIOIH@Max?5Active?5Rate?7?7RATE_24M_BIT?6?$AA@ 10012a68     test:siteMgrDebug.obj
 0001:00011a88       ??_C@_0BP@FKNNKHAN@Max?5Active?5Rate?7?7RATE_18M_BIT?6?$AA@ 10012a88     test:siteMgrDebug.obj
 0001:00011aa8       ??_C@_0BP@MLBNLLMF@Max?5Active?5Rate?7?7RATE_12M_BIT?6?$AA@ 10012aa8     test:siteMgrDebug.obj
 0001:00011ac8       ??_C@_0BO@GELBCMIC@Max?5Active?5Rate?7?7RATE_9M_BIT?6?$AA@ 10012ac8     test:siteMgrDebug.obj
 0001:00011ae8       ??_C@_0BO@LNJBDOCO@Max?5Active?5Rate?7?7RATE_6M_BIT?6?$AA@ 10012ae8     test:siteMgrDebug.obj
 0001:00011b08       ??_C@_0BP@PCJAIHAA@Max?5Active?5Rate?7?7RATE_22M_BIT?6?$AA@ 10012b08     test:siteMgrDebug.obj
 0001:00011b28       ??_C@_0BP@EFJCLMCG@Max?5Active?5Rate?7?7RATE_11M_BIT?6?$AA@ 10012b28     test:siteMgrDebug.obj
 0001:00011b48       ??_C@_0CA@DGNAKOOJ@Max?5Active?5Rate?7?7RATE_5_5M_BIT?6?$AA@ 10012b48     test:siteMgrDebug.obj
 0001:00011b68       ??_C@_0BO@DJNLDANE@Max?5Active?5Rate?7?7RATE_2M_BIT?6?$AA@ 10012b68     test:siteMgrDebug.obj
 0001:00011b88       ??_C@_0BO@LHFEDHDH@Max?5Active?5Rate?7?7RATE_1M_BIT?6?$AA@ 10012b88     test:siteMgrDebug.obj
 0001:00011ba8       ??_C@_0CA@JEPABMPO@Max?5Basic?5Rate?7?7INVALID?0?5?50x?$CFX?6?$AA@ 10012ba8     test:siteMgrDebug.obj
 0001:00011bc8       ??_C@_0BO@DIMMEMB@Max?5Basic?5Rate?7?7RATE_54M_BIT?6?$AA@ 10012bc8     test:siteMgrDebug.obj
 0001:00011be8       ??_C@_0BO@EDFIMFMN@Max?5Basic?5Rate?7?7RATE_48M_BIT?6?$AA@ 10012be8     test:siteMgrDebug.obj
 0001:00011c08       ??_C@_0BO@DCLDLKDG@Max?5Basic?5Rate?7?7RATE_36M_BIT?6?$AA@ 10012c08     test:siteMgrDebug.obj
 0001:00011c28       ??_C@_0BO@GHONKJAI@Max?5Basic?5Rate?7?7RATE_24M_BIT?6?$AA@ 10012c28     test:siteMgrDebug.obj
 0001:00011c48       ??_C@_0BO@JMPIAIC@Max?5Basic?5Rate?7?7RATE_18M_BIT?6?$AA@ 10012c48     test:siteMgrDebug.obj
 0001:00011c68       ??_C@_0BO@JIAPJMEK@Max?5Basic?5Rate?7?7RATE_12M_BIT?6?$AA@ 10012c68     test:siteMgrDebug.obj
 0001:00011c88       ??_C@_0BN@MFAFJDHA@Max?5Basic?5Rate?7?7RATE_9M_BIT?6?$AA@ 10012c88     test:siteMgrDebug.obj
 0001:00011ca8       ??_C@_0BN@BMCFIBNM@Max?5Basic?5Rate?7?7RATE_6M_BIT?6?$AA@ 10012ca8     test:siteMgrDebug.obj
 0001:00011cc8       ??_C@_0BO@BGIAJLKJ@Max?5Basic?5Rate?7?7RATE_11M_BIT?6?$AA@ 10012cc8     test:siteMgrDebug.obj
 0001:00011ce8       ??_C@_0BP@ELIECCHP@Max?5Basic?5Rate?7?7RATE_5_5M_BIT?6?$AA@ 10012ce8     test:siteMgrDebug.obj
 0001:00011d08       ??_C@_0BN@JIGPIPCG@Max?5Basic?5Rate?7?7RATE_2M_BIT?6?$AA@ 10012d08     test:siteMgrDebug.obj
 0001:00011d28       ??_C@_0BN@BGOAIIMF@Max?5Basic?5Rate?7?7RATE_1M_BIT?6?$AA@ 10012d28     test:siteMgrDebug.obj
 0001:00011d48       ??_C@_0O@DFPNCHLE@Channel?7?7?7?$CFd?6?$AA@ 10012d48     test:siteMgrDebug.obj
 0001:00011d58       ??_C@_0BE@BKKHJFNF@BSS?5Type?7?7INVALID?6?6?$AA@ 10012d58     test:siteMgrDebug.obj
 0001:00011d6c       ??_C@_0BA@HPKIEMNA@BSS?5Type?7?7ANY?6?6?$AA@ 10012d6c     test:siteMgrDebug.obj
 0001:00011d7c       ??_C@_0BB@MENLEEIH@BSS?5Type?7?7IBSS?6?6?$AA@ 10012d7c     test:siteMgrDebug.obj
 0001:00011d90       ??_C@_0BL@CKDFPILC@BSS?5Type?7?7INFRASTRUCTURE?6?6?$AA@ 10012d90     test:siteMgrDebug.obj
 0001:00011dac       ??_C@_0M@OFEJLJEC@SSID?7?7?7?$CFs?6?6?$AA@ 10012dac     test:siteMgrDebug.obj
 0001:00011db8       ??_C@_0EA@HIJLOOCP@printPrimarySite?4?5pSiteEntry?9?$DOss@ 10012db8     test:siteMgrDebug.obj
 0001:00011df8       ??_C@_0EI@MIDMNHGB@?6?6?$CK?$CK?$CK?$CK?$CK?$CK?$CK?$CK?$CK?$CK?$CK?$CK?$CK?$CK?$CK?$CK?$CK?$CK?$CK?$CK?$CK?$CK?$CK?$CK?7PRIMA@ 10012df8     test:siteMgrDebug.obj
 0001:00011e40       ??_C@_0CB@KDHAGLLC@BSSID?7?7?7?$CF2X?9?$CF2X?9?$CF2X?9?$CF2X?9?$CF2X?9?$CF2X?7@ 10012e40     test:siteMgrDebug.obj
 0001:00011e68       ??_C@_0FA@IDJBDAEG@?6?6?$CK?$CK?$CK?$CK?$CK?$CK?$CK?$CK?$CK?$CK?$CK?$CK?$CK?$CK?$CK?$CK?$CK?$CK?$CK?$CK?$CK?$CK?$CK?$CK?7PRIMA@ 10012e68     test:siteMgrDebug.obj
 0001:00011eb8       ??_C@_0BJ@KFPMHMLF@?6?7?7dot11BG_sitesTables?7?6?$AA@ 10012eb8     test:siteMgrDebug.obj
 0001:00011ed4       ??_C@_0BI@CAPPOCFF@?6?7?7dot11A_sitesTables?7?6?$AA@ 10012ed4     test:siteMgrDebug.obj
 0001:00011eec       ??_C@_0BI@EHHDDDBP@?6?7?7Number?5Of?5Sites?3?7?$CFd?6?$AA@ 10012eec     test:siteMgrDebug.obj
 0001:00011f08       ??_C@_0EC@OICJBGMB@?6?9?9?9?9?9?9?9?9?9?9?9?9?9?9?9?9?9?9?9?9?9?9?9?9?9?9?9?9?9?9?9@ 10012f08     test:siteMgrDebug.obj
 0001:00011f4c       ??_C@_0BA@KOHKJJGN@ATIM?5Window?5?$CFd?6?$AA@ 10012f4c     test:siteMgrDebug.obj
 0001:00011f5c       ??_C@_0BF@OFBCLGLO@Preamble?5Type?7?7Long?6?$AA@ 10012f5c     test:siteMgrDebug.obj
 0001:00011f74       ??_C@_0BG@FOIIHDGP@Preamble?5Type?7?7Short?6?$AA@ 10012f74     test:siteMgrDebug.obj
 0001:00011f8c       ??_C@_0P@MHKMCPAK@Privacy?7?7?7Off?6?$AA@ 10012f8c     test:siteMgrDebug.obj
 0001:00011f9c       ??_C@_0O@FMAJCCHG@Privacy?7?7?7On?6?$AA@ 10012f9c     test:siteMgrDebug.obj
 0001:00011fac       ??_C@_0CC@NPCDEKEB@BSSID?7?7?7?$CF2X?9?$CF2X?9?$CF2X?9?$CF2X?9?$CF2X?9?$CF2X?7@ 10012fac     test:siteMgrDebug.obj
 0001:00011fd0       ??_C@_0L@CMENMDAE@?7ENTRY?5?$CFd?6?$AA@ 10012fd0     test:siteMgrDebug.obj
 0001:00011fdc       ??_C@_0BF@ICCDCCFH@?7?5ENTRY?5PRIMARY?5?$CFd?5?6?$AA@ 10012fdc     test:siteMgrDebug.obj
 0001:00011ff4       ??_C@_09CDMDMMEP@SSID?7?$CFs?6?6?$AA@ 10012ff4     test:siteMgrDebug.obj
 0001:00012000       ??_C@_0FD@IJDFKKCC@printSiteTable?4?5pCurrentSiteTabl@ 10013000     test:siteMgrDebug.obj
 0001:00012058       ??_C@_0EK@IMKBPJLJ@printSiteTable?4?5pCurrentSiteTabl@ 10013058     test:siteMgrDebug.obj
 0001:000120a8       ??_C@_0EG@JDMILODD@?6?6?$CK?$CK?$CK?$CK?$CK?$CK?$CK?$CK?$CK?$CK?$CK?$CK?$CK?$CK?$CK?$CK?$CK?$CK?$CK?$CK?$CK?$CK?$CK?$CK?7SITE?5@ 100130a8     test:siteMgrDebug.obj
 0001:000120f0       ??_C@_0CL@OKAFFIKJ@?6?$CK?$CK?$CK?$CK?$CK?$CK?$CK?$CK?$CK?$CK?$CK?$CK?$CK?$CK?$CK?$CK?$CK?$CK?$CK?$CK?$CK?$CK?$CK?$CK?$CK?$CK?$CK?$CK?$CK?$CK?$CK@ 100130f0     test:siteMgrDebug.obj
 0001:0001211c       ??_C@_0BN@JODBGNFO@Invalid?5Desired?5Preamble?7?$CFd?6?$AA@ 1001311c     test:siteMgrDebug.obj
 0001:0001213c       ??_C@_0BH@MODABGHF@Desired?5Preamble?7Long?6?$AA@ 1001313c     test:siteMgrDebug.obj
 0001:00012154       ??_C@_0BJ@EJJHPNNE@Desired?5Preamble?7?7Short?6?$AA@ 10013154     test:siteMgrDebug.obj
 0001:00012170       ??_C@_0BM@OJELPJPG@Desired?5slot?5time?7?7INVALID?6?$AA@ 10013170     test:siteMgrDebug.obj
 0001:0001218c       ??_C@_0BJ@KONNFFKG@Desired?5slot?5time?7?7long?6?$AA@ 1001318c     test:siteMgrDebug.obj
 0001:000121a8       ??_C@_0BK@ENKPCENK@Desired?5slot?5time?7?7short?6?$AA@ 100131a8     test:siteMgrDebug.obj
 0001:000121c4       ??_C@_0BM@DEALLCJG@Desired?5dot11mode?7?7INVALID?6?$AA@ 100131c4     test:siteMgrDebug.obj
 0001:000121e0       ??_C@_0BP@GOBDEAOO@Desired?5dot11mode?7?7dual?511a?1g?6?$AA@ 100131e0     test:siteMgrDebug.obj
 0001:00012200       ??_C@_0BI@LMIEDAKA@Desired?5dot11mode?7?711a?6?$AA@ 10013200     test:siteMgrDebug.obj
 0001:00012218       ??_C@_0BI@LIAJEMBC@Desired?5dot11mode?7?711g?6?$AA@ 10013218     test:siteMgrDebug.obj
 0001:00012230       ??_C@_0BI@LOMCIOPJ@Desired?5dot11mode?7?711b?6?$AA@ 10013230     test:siteMgrDebug.obj
 0001:00012248       ??_C@_0BD@HFMGLJGN@WEP?5?7?7Invalid?3?5?$CFd?6?$AA@ 10013248     test:siteMgrDebug.obj
 0001:0001225c       ??_C@_0M@ILCKBANP@WEP?5?7?7?7?7On?6?$AA@ 1001325c     test:siteMgrDebug.obj
 0001:00012268       ??_C@_0N@GIHBBHHE@WEP?5?7?7?7?7Off?6?$AA@ 10013268     test:siteMgrDebug.obj
 0001:00012278       ??_C@_0CB@ENJGCDL@Authentication?5Type?7Invalid?3?5?$CFd?6@ 10013278     test:siteMgrDebug.obj
 0001:0001229c       ??_C@_0CA@KAMFCOHP@Authentication?5Type?7Shared?5Key?6?$AA@ 1001329c     test:siteMgrDebug.obj
 0001:000122bc       ??_C@_0CB@NMKJGJPG@Authentication?5Type?7Open?5System?6@ 100132bc     test:siteMgrDebug.obj
 0001:000122e0       ??_C@_0BM@KAOIDBFK@Invalid?5Modulation?5Type?7?$CFd?6?$AA@ 100132e0     test:siteMgrDebug.obj
 0001:000122fc       ??_C@_0BH@OFBKDDJL@Modulation?5Type?7?7OFDM?6?$AA@ 100132fc     test:siteMgrDebug.obj
 0001:00012314       ??_C@_0BH@HFFDDAKG@Modulation?5Type?7?7PBCC?6?$AA@ 10013314     test:siteMgrDebug.obj
 0001:0001232c       ??_C@_0BG@GJBCPMBP@Modulation?5Type?7?7CCK?6?$AA@ 1001332c     test:siteMgrDebug.obj
 0001:00012344       ??_C@_0BH@PKCFCBMG@Modulation?5Type?7?7QPSK?6?$AA@ 10013344     test:siteMgrDebug.obj
 0001:0001235c       ??_C@_0BP@FFFPIBKC@Invalid?5basic?5rate?5value?70x?$CFX?6?$AA@ 1001335c     test:siteMgrDebug.obj
 0001:0001237c       ??_C@_0BO@KBICKAIP@Max?5Basic?5Rate?7?7RATE_22M_BIT?6?$AA@ 1001337c     test:siteMgrDebug.obj
 0001:0001239c       ??_C@_0CM@EPMICABB@?6?6?$CK?$CK?$CK?$CK?$CK?$CK?$CK?$CK?$CK?$CK?$CK?$CK?$CK?$CK?$CK?$CK?$CK?$CK?$CK?$CK?$CK?$CK?$CK?$CK?$CK?$CK?$CK?$CK?$CK?$CK@ 1001339c     test:siteMgrDebug.obj
 0001:000123c8       ??_C@_0CM@CIBCKPPJ@?$CK?$CK?$CK?$CK?$CK?$CK?$CK?$CK?$CK?$CK?$CK?$CK?$CK?$CK?$CK?$CK?$CK?$CK?$CK?$CK?$CK?$CK?$CK?$CK?$CK?$CK?$CK?$CK?$CK?$CK?$CK?$CK@ 100133c8     test:siteMgrDebug.obj
 0001:000123f4       ??_C@_0CN@ONANFJDP@?6?$CK?$CK?$CK?$CK?$CK?$CK?$CK?$CK?$CK?$CK?$CK?$CK?$CK?$CK?$CK?$CK?$CK?$CK?$CK?$CK?$CK?$CK?$CK?$CK?$CK?$CK?$CK?$CK?$CK?$CK?$CK@ 100133f4     test:siteMgrDebug.obj
 0001:00012424       ??_C@_0P@LGAFFDCP@Rate?7?7?7?7?70x?$CFX?6?$AA@ 10013424     test:siteMgrDebug.obj
 0001:00012434       ??_C@_0BM@CFPLAMLM@BSS?5Type?7?7?7?7INFRASTRUCTURE?6?$AA@ 10013434     test:siteMgrDebug.obj
 0001:00012450       ??_C@_0BC@MMMDAMPL@BSS?5Type?7?7?7?7IBSS?6?$AA@ 10013450     test:siteMgrDebug.obj
 0001:00012464       ??_C@_0N@HPPNCLJE@RSSI?7?7?7?7?7?$CFd?6?$AA@ 10013464     test:siteMgrDebug.obj
 0001:00012474       ??_C@_0BA@NGJPNCCF@Privacy?7?7?7?7OFF?6?$AA@ 10013474     test:siteMgrDebug.obj
 0001:00012484       ??_C@_0P@PLHLHFAP@Privacy?7?7?7?7ON?6?$AA@ 10013484     test:siteMgrDebug.obj
 0001:00012498       ??_C@_0EA@MPDNIDDA@?6?$FO?$FO?$FO?$FO?$FO?$FO?$FO?$FO?$FO?$FO?$FO?$FO?$FO?$FO?$FO?7PRIMARY?5SITE?5DE@ 10013498     test:siteMgrDebug.obj
 0001:000124d8       ??_C@_0CI@OJABDDIK@BSSID?7?7?7?70x?$CFX?90x?$CFX?90x?$CFX?90x?$CFX?90x?$CF@ 100134d8     test:siteMgrDebug.obj
 0001:00012500       ??_C@_0BE@PEELLHNC@Capabilities?7?70x?$CFX?6?$AA@ 10013500     test:siteMgrDebug.obj
 0001:00012514       ??_C@_0M@FEDOHIOG@SSID?7?7?7?7?$CFs?6?$AA@ 10013514     test:siteMgrDebug.obj
 0001:00012520       ??_C@_0CD@IMHILKPH@Set?5Rate?5Set?0?5invalid?5max?5rate?5?$CF@ 10013520     test:siteMgrDebug.obj
 0001:00012544       ??_C@_0CB@EFIOLBPE@?6?6?5?5?5Site?5Manager?5Debug?5Menu?5?5?5?6@ 10013544     test:siteMgrDebug.obj
 0001:00012568       ??_C@_0N@MDBHICGM@500?5?9?5Help?4?6?$AA@ 10013568     test:siteMgrDebug.obj
 0001:00012578       ??_C@_0CA@NPACKOON@501?5?9?5Primary?5Site?5Parameters?4?6?$AA@ 10013578     test:siteMgrDebug.obj
 0001:00012598       ??_C@_0BD@GIJFHHGF@502?5?9?5Sites?5List?4?6?$AA@ 10013598     test:siteMgrDebug.obj
 0001:000125ac       ??_C@_0BL@KKEHLKOC@503?5?9?5Desired?5Parameters?4?6?$AA@ 100135ac     test:siteMgrDebug.obj
 0001:000125c8       ??_C@_0BM@EHMEHJJG@507?5?9?5Set?5Power?5save?5Mode?4?6?$AA@ 100135c8     test:siteMgrDebug.obj
 0001:000125e4       ??_C@_0BM@DPHIPGEN@508?5?9?5Get?5Power?5save?5Mode?4?6?$AA@ 100135e4     test:siteMgrDebug.obj
 0001:00012600       ??_C@_0BL@GANMEOJB@511?5?9?5Set?5Default?5Key?5Id?4?6?$AA@ 10013600     test:siteMgrDebug.obj
 0001:0001261c       ??_C@_0BL@MCMOOJF@512?5?9?5Get?5Default?5Key?5Id?4?6?$AA@ 1001361c     test:siteMgrDebug.obj
 0001:00012638       ??_C@_0BA@MAKEBIIP@513?5?9?5Set?5Key?4?6?$AA@ 10013638     test:siteMgrDebug.obj
 0001:00012648       ??_C@_0BA@ILCMJDNN@514?5?9?5Get?5Key?4?6?$AA@ 10013648     test:siteMgrDebug.obj
 0001:00012658       ??_C@_0BJ@LDIECFBA@515?5?9?5Set?5Cypher?5Suite?4?6?$AA@ 10013658     test:siteMgrDebug.obj
 0001:00012674       ??_C@_0BJ@DPELCKMF@516?5?9?5Get?5Cypher?5Suite?4?6?$AA@ 10013674     test:siteMgrDebug.obj
 0001:00012690       ??_C@_0BG@KCDENGOG@517?5?9?5Set?5Auth?5Mode?4?6?$AA@ 10013690     test:siteMgrDebug.obj
 0001:000126a8       ??_C@_0BG@OMLNNENO@518?5?9?5Get?5Auth?5Mode?4?6?$AA@ 100136a8     test:siteMgrDebug.obj
 0001:000126c0       ??_C@_0CF@CALKALIP@519?5?9?5Get?5Primary?5Site?5Descripti@ 100136c0     test:siteMgrDebug.obj
 0001:000126e8       ??_C@_0BO@PFEDJDHJ@520?5?9?5Get?5Connection?5Status?4?6?$AA@ 100136e8     test:siteMgrDebug.obj
 0001:00012708       ??_C@_0BM@BMHAGEAI@522?5?9?5Get?5Current?5Tx?5Rate?4?6?$AA@ 10013708     test:siteMgrDebug.obj
 0001:00012724       ??_C@_0BP@FKLCALLH@525?5?9?5Set?5Supported?5Rate?5Set?4?6?$AA@ 10013724     test:siteMgrDebug.obj
 0001:00012744       ??_C@_0BP@FMBAANEO@526?5?9?5Get?5Supported?5Rate?5Set?4?6?$AA@ 10013744     test:siteMgrDebug.obj
 0001:00012764       ??_C@_0BG@KEDOGEEA@527?5?9?5Set?5Auth?5type?4?6?$AA@ 10013764     test:siteMgrDebug.obj
 0001:0001277c       ??_C@_0BG@OKLHGGHI@528?5?9?5Get?5Auth?5type?4?6?$AA@ 1001377c     test:siteMgrDebug.obj
 0001:00012794       ??_C@_0CN@DEEBJFFK@?5?5?5?5?5?5?5?5?$CF03d?5?9?5RADIO_STAND_BY_CH@ 10013794     test:siteMgrDebug.obj
 0001:000127c4       ??_C@_0CC@ENEFCKBG@?5?5?5?5?5?5?5?5?$CF03d?5?9?5CONNECT_TO_BSSID?5@ 100137c4     test:siteMgrDebug.obj
 0001:000127e8       ??_C@_0CK@JGEPBFIL@?5?5?5?5?5?5?5?5?$CF03d?5?9?5SET_START_CLI_SCA@ 100137e8     test:siteMgrDebug.obj
 0001:00012814       ??_C@_0CJ@MMOAFOMA@?5?5?5?5?5?5?5?5?$CF03d?5?9?5SET_STOP_CLI_SCAN@ 10013814     test:siteMgrDebug.obj
 0001:00012840       ??_C@_0DF@OCIIBMGI@?5?5?5?5?5?5?5?5?$CF03d?5?9?5SET_BROADCAST_BAC@ 10013840     test:siteMgrDebug.obj
 0001:00012878       ??_C@_0EC@LPHAOPJI@?5?5?5?5?5?5?5?5?$CF03d?5?9?5ENABLE_PERIODIC_B@ 10013878     test:siteMgrDebug.obj
 0001:000128c0       ??_C@_0EC@POOIDLAB@?5?5?5?5?5?5?5?5?$CF03d?5?9?5DISABLE_PERIODIC_@ 100138c0     test:siteMgrDebug.obj
 0001:00012904       ??_C@_0DD@OKKMKINM@?5?5?5?5?5?5?5?5?$CF03d?5?9?5SET_UNICAST_BACKG@ 10013904     test:siteMgrDebug.obj
 0001:00012938       ??_C@_0DP@HKGKOKPJ@?5?5?5?5?5?5?5?5?$CF03d?5?9?5ENABLE_PERIODIC_U@ 10013938     test:siteMgrDebug.obj
 0001:00012978       ??_C@_0EA@BKLMMBBH@?5?5?5?5?5?5?5?5?$CF03d?5?9?5DISABLE_PERIODIC_@ 10013978     test:siteMgrDebug.obj
 0001:000129b8       ??_C@_0CL@LCLJLLN@?5?5?5?5?5?5?5?5?$CF03d?5?9?5SET_FOREGROUND_SC@ 100139b8     test:siteMgrDebug.obj
 0001:000129e4       ??_C@_0DH@OJFNHHOO@?5?5?5?5?5?5?5?5?$CF03d?5?9?5ENABLE_PERIODIC_F@ 100139e4     test:siteMgrDebug.obj
 0001:00012a1c       ??_C@_0DI@NKKLMHCH@?5?5?5?5?5?5?5?5?$CF03d?5?9?5DISABLE_PERIODIC_@ 10013a1c     test:siteMgrDebug.obj
 0001:00012a54       ??_C@_0CE@KANHLDMA@?5?5?5?5?5?5?5?5?$CF03d?5?9?5SET_CHANNEL_NUMBE@ 10013a54     test:siteMgrDebug.obj
 0001:00012a78       ??_C@_0CE@EMDLCJMA@?5?5?5?5?5?5?5?5?$CF03d?5?9?5SET_RSSI_GAP_THRS@ 10013a78     test:siteMgrDebug.obj
 0001:00012a9c       ??_C@_0CH@IEGAOMDL@?5?5?5?5?5?5?5?5?$CF03d?5?9?5SET_FAST_SCAN_TIM@ 10013a9c     test:siteMgrDebug.obj
 0001:00012ac4       ??_C@_0CN@DBMKNNBE@?5?5?5?5?5?5?5?5?$CF03d?5?9?5SET_INTERNAL_ROAM@ 10013ac4     test:siteMgrDebug.obj
 0001:00012af4       ??_C@_0CF@JIEDNNPA@?5?5?5?5?5?5?5?5?$CF03d?5?9?5PERFORM_HEALTH_TE@ 10013af4     test:siteMgrDebug.obj
 0001:00012b1c       ??_C@_0CG@JOOFJEGM@?5?5?5?5?5?5?5?5?$CF03d?5?9?5PRINT_FAILURE_EVE@ 10013b1c     test:siteMgrDebug.obj
 0001:00012b44       ??_C@_0CJ@ECGDIIHD@?5?5?5?5?5?5?5?5?$CF03d?5?9?5FORCE_HW_RESET_RE@ 10013b44     test:siteMgrDebug.obj
 0001:00012b70       ??_C@_0CF@OLLBCHPD@?5?5?5?5?5?5?5?5?$CF03d?5?9?5FORCE_SOFT_RECOVE@ 10013b70     test:siteMgrDebug.obj
 0001:00012b98       ??_C@_0CG@GOGDNBGO@?5?5?5?5?5?5?5?5?$CF03d?5?9?5RESET_ROAMING_EVE@ 10013b98     test:siteMgrDebug.obj
 0001:00012bc0       ??_C@_0DB@PHLNHGGK@?5?5?5?5?5?5?5?5?$CF03d?5?9?5SET_DESIRED_CONS_@ 10013bc0     test:siteMgrDebug.obj
 0001:00012bf4       ??_C@_0CM@PPMEMFPF@?5?5?5?5?5?5?5?5?$CF03d?5?9?5GET_CURRENT_ROAMI@ 10013bf4     test:siteMgrDebug.obj
 0001:00012c20       ??_C@_0BP@PBKNBCIA@?5?5?5?5?5?5?5?5?$CF03d?5?9?5TOGGLE_LNA_ON?5?6?$AA@ 10013c20     test:siteMgrDebug.obj
 0001:00012c40       ??_C@_0CA@MEBOGJA@?5?5?5?5?5?5?5?5?$CF03d?5?9?5TOGGLE_LNA_OFF?5?6?$AA@ 10013c40     test:siteMgrDebug.obj
 0001:00012c60       ??_C@_0CK@NJOFFGKM@?5?5?5?5?5?5?5?5?$CF03d?5?9?5PRINT_SITE_TABLE_@ 10013c60     test:siteMgrDebug.obj
 0001:00012c8c       ??_C@_0CE@MJBIPCHJ@?5?5?5?5?5?5?5?5?$CF03d?5?9?5SET_DESIRED_CHANN@ 10013c8c     test:siteMgrDebug.obj
 0001:00012cb0       ??_C@_0BP@BEALHCHG@?5?5?5?5?5?5?5?5?$CF03d?5?9?5START_PRE_AUTH?6?$AA@ 10013cb0     test:siteMgrDebug.obj
 0001:00012cd0       ??_C@_0BM@JOHKDODE@?6?5Currently?5not?5supported?$CB?6?$AA@ 10013cd0     test:siteMgrDebug.obj
 0001:00012cec       ??_C@_0BO@JDIJBLGL@?6?5FORCE?5Full?5Recovery?5?$CISoft?$CJ?6?$AA@ 10013cec     test:siteMgrDebug.obj
 0001:00012d10       ??_C@_0ED@COBLGPKP@Invalid?5function?5type?5in?5Debug?5S@ 10013d10     test:siteMgrDebug.obj
 0001:00012d54       ??_C@_0BK@BLDDBEEK@?5CONN?5state?5is?5DISASSOCC?6?$AA@ 10013d54     test:siteMgrDebug.obj
 0001:00012d70       ??_C@_0BK@ILHFICKB@?5CONN?5state?5is?5CONNECTED?6?$AA@ 10013d70     test:siteMgrDebug.obj
 0001:00012d8c       ??_C@_0BK@JPHLEFJD@?5CONN?5state?5is?5CONFIG_HW?6?$AA@ 10013d8c     test:siteMgrDebug.obj
 0001:00012da8       ??_C@_0BJ@INGNLKPD@?5CONN?5state?5is?5RSN_WAIT?6?$AA@ 10013da8     test:siteMgrDebug.obj
 0001:00012dc4       ??_C@_0BK@PDMKLFAA@?5CONN?5state?5is?5MLME_WAIT?6?$AA@ 10013dc4     test:siteMgrDebug.obj
 0001:00012de0       ??_C@_0CA@HBOEDKCM@?5CONN?5state?5is?5WAIT_JOIN_CMPLT?6?$AA@ 10013de0     test:siteMgrDebug.obj
 0001:00012e00       ??_C@_0BJ@OFHLLHNI@?5CONN?5state?5is?5SCR_WAIT?6?$AA@ 10013e00     test:siteMgrDebug.obj
 0001:00012e1c       ??_C@_0BF@KOOHHNAI@?5CONN?5state?5is?5IDLE?6?$AA@ 10013e1c     test:siteMgrDebug.obj
 0001:00012e34       ??_C@_0BM@JENJNNJK@?6?5PRINT?5HEALTH?5MONITOR?5LOG?6?$AA@ 10013e34     test:siteMgrDebug.obj
 0001:00012e50       ??_C@_0BC@EEFHCGKE@?6Rate?5?$CFd?5is?50x?$CFX?6?$AA@ 10013e50     test:siteMgrDebug.obj
 0001:00012e68       ??_C@_0GA@INKPGBPI@siteMgrDebugFunction?4?5param?4cont@ 10013e68     test:siteMgrDebug.obj
 0001:00012ec8       ??_C@_0BD@MFOBHDLA@?6No?5rates?5defined?6?$AA@ 10013ec8     test:siteMgrDebug.obj
 0001:00012edc       ??_C@_0DE@NHACDDFK@?6Getting?5SITE_MGR_DESIRED_SUPPOR@ 10013edc     test:siteMgrDebug.obj
 0001:00012f10       ??_C@_0CO@BALGPMFN@?6Setting?5MLME_LEGACY_TYPE_PARAM?3@ 10013f10     test:siteMgrDebug.obj
 0001:00012f40       ??_C@_0DK@KLFCMCPB@?6Setting?5MLME_LEGACY_TYPE_PARAM?3@ 10013f40     test:siteMgrDebug.obj
 0001:00012f7c       ??_C@_0DJ@JIKJDBGB@?6Setting?5MLME_LEGACY_TYPE_PARAM?3@ 10013f7c     test:siteMgrDebug.obj
 0001:00012fb8       ??_C@_0DK@JIHPAOPD@?6Setting?5MLME_LEGACY_TYPE_PARAM?3@ 10013fb8     test:siteMgrDebug.obj
 0001:00012ff4       ??_C@_0CO@MKLBPEOA@?6Getting?5MLME_LEGACY_TYPE_PARAM?3@ 10013ff4     test:siteMgrDebug.obj
 0001:00013024       ??_C@_0DD@PCNEIADL@?6Getting?5MLME_LEGACY_TYPE_PARAM?3@ 10014024     test:siteMgrDebug.obj
 0001:00013058       ??_C@_0DJ@OMNNEFAM@?6Getting?5MLME_LEGACY_TYPE_PARAM?3@ 10014058     test:siteMgrDebug.obj
 0001:00013094       ??_C@_0DK@KLAIGHGC@?6Getting?5MLME_LEGACY_TYPE_PARAM?3@ 10014094     test:siteMgrDebug.obj
 0001:000130d0       ??_C@_0BK@MFMHIGHH@?6Change?5GPIO?913?5State?4?4?4?6?$AA@ 100140d0     test:siteMgrDebug.obj
 0001:000130ec       ??_C@_0BI@CCFKNDBK@?6?5PERFORM_HEALTH_TEST?5?6?$AA@ 100140ec     test:siteMgrDebug.obj
 0001:00013104       ??_C@_0CF@NGFMPDFC@?6Setting?5SET_SUPPORTED_RATE_SET_@ 10014104     test:siteMgrDebug.obj
 0001:0001312c       ??_C@_0DD@FNPFHNHF@?6Setting?5RSN_DESIRED_AUTH_TYPE_P@ 1001412c     test:siteMgrDebug.obj
 0001:00013160       ??_C@_0DM@NOOKDAH@?6Setting?5RSN_DESIRED_AUTH_TYPE_P@ 10014160     test:siteMgrDebug.obj
 0001:0001319c       ??_C@_0DL@JIJPKAME@?6Setting?5RSN_DESIRED_AUTH_TYPE_P@ 1001419c     test:siteMgrDebug.obj
 0001:000131d8       ??_C@_0DF@BNFGPAL@?6Setting?5RSN_DESIRED_AUTH_TYPE_P@ 100141d8     test:siteMgrDebug.obj
 0001:00013210       ??_C@_0DD@OIOKCCP@?6Getting?5RSN_DESIRED_AUTH_TYPE_P@ 10014210     test:siteMgrDebug.obj
 0001:00013244       ??_C@_0DM@FBNKPCNH@?6Getting?5RSN_DESIRED_AUTH_TYPE_P@ 10014244     test:siteMgrDebug.obj
 0001:00013280       ??_C@_0DL@BPKEHEHP@?6Getting?5RSN_DESIRED_AUTH_TYPE_P@ 10014280     test:siteMgrDebug.obj
 0001:000132bc       ??_C@_0DF@FHONEGOL@?6Getting?5RSN_DESIRED_AUTH_TYPE_P@ 100142bc     test:siteMgrDebug.obj
 0001:000132f4       ??_C@_0DJ@CIFAEFED@?6Getting?5SITE_MGR_CONNECTION_STA@ 100142f4     test:siteMgrDebug.obj
 0001:00013330       ??_C@_0EC@IHNCHINB@?6Getting?5SITE_MGR_CONNECTION_STA@ 10014330     test:siteMgrDebug.obj
 0001:00013378       ??_C@_0EC@CGGDHPOE@?6Getting?5SITE_MGR_CONNECTION_STA@ 10014378     test:siteMgrDebug.obj
 0001:000133bc       ??_C@_0DO@ECOBAOAH@?6Getting?5SITE_MGR_CONNECTION_STA@ 100143bc     test:siteMgrDebug.obj
 0001:000133fc       ??_C@_0DO@LDCOHHAF@?6Getting?5SITE_MGR_CONNECTION_STA@ 100143fc     test:siteMgrDebug.obj
 0001:0001343c       ??_C@_0DM@MOEHPPFM@?6Getting?5SITE_MGR_CONNECTION_STA@ 1001443c     test:siteMgrDebug.obj
 0001:00013478       ??_C@_0DI@OFHJOEFJ@?6Getting?5SITE_MGR_CONNECTION_STA@ 10014478     test:siteMgrDebug.obj
 0001:000134b0       ??_C@_0CN@LKDJEEMH@?6Getting?5RSN_DESIRED_CIPHER_SUIT@ 100144b0     test:siteMgrDebug.obj
 0001:000134e0       ??_C@_0CO@ONLADKBP@?6Setting?5RSN_DESIRED_CIPHER_SUIT@ 100144e0     test:siteMgrDebug.obj
 0001:00013510       ??_C@_05DPEILJDD@yaeli?$AA@ 10014510     test:siteMgrDebug.obj
 0001:00013518       ??_C@_0BK@PMJKBIHJ@?5?5?5Ctrl?5Dbg?5Functions?5?5?5?6?$AA@ 10014518     test:ctrlDbg.obj
 0001:00013534       ??_C@_0BI@HEIBHAHH@400?5?9?5Print?5this?5menu?4?6?$AA@ 10014534     test:ctrlDbg.obj
 0001:0001354c       ??_C@_0BJ@IFFPHHMM@401?5?9?5Print?5Ctrl?5Block?4?6?$AA@ 1001454c     test:ctrlDbg.obj
 0001:00013568       ??_C@_0BM@FFGNHFLF@402?5?9?5Print?5Tx?5parameters?4?6?$AA@ 10014568     test:ctrlDbg.obj
 0001:00013584       ??_C@_0BG@CHEFEDJK@403?5?9?5Set?5CtsToSelf?4?6?$AA@ 10014584     test:ctrlDbg.obj
 0001:0001359c       ??_C@_0BP@BCPHGGLP@CTRL?5DBG?5?9?5Print?5Ctrl?5Block?5?6?6?$AA@ 1001459c     test:ctrlDbg.obj
 0001:000135bc       ??_C@_0CB@JFNGDJBA@CTRL?5DBG?5?9?5Print?5tx?5paramters?5?6?6@ 100145bc     test:ctrlDbg.obj
 0001:000135e0       ??_C@_0BP@HILLNKFE@CTRL?5DBG?5?9?5Set?5CtsToSelf?5?$DN?5?$CFs?6?$AA@ 100145e0     test:ctrlDbg.obj
 0001:00013600       ??_C@_08FLKDOPBH@TI_FALSE?$AA@ 10014600     test:ctrlDbg.obj
 0001:0001360c       ??_C@_07CMBEKOBL@TI_TRUE?$AA@ 1001460c     test:ctrlDbg.obj
 0001:00013614       ??_C@_0DL@MBEIPEKO@Invalid?5function?5type?5in?5Debug?5C@ 10014614     test:ctrlDbg.obj
 0001:000136a8       ??_C@_0CA@KKEDPBPC@?6?5?5?5?5?5?5?5?5?5?5Tx?5Dbg?5Functions?5?5?5?6?$AA@ 100146a8     test:TxDbg.obj
 0001:000136c8       ??_C@_0BK@NFNJCF@301?5?9?5Print?5TxCtrl?5info?4?6?$AA@ 100146c8     test:TxDbg.obj
 0001:000136e4       ??_C@_0CA@PKMHMLEG@302?5?9?5Print?5TxCtrl?5Statistics?4?6?$AA@ 100146e4     test:TxDbg.obj
 0001:00013704       ??_C@_0BP@CBLNGGL@303?5?9?5Print?5TxDataQueue?5info?4?6?$AA@ 10014704     test:TxDbg.obj
 0001:00013724       ??_C@_0CF@JPDLDCHD@304?5?9?5Print?5TxDataQueue?5Statisti@ 10014724     test:TxDbg.obj
 0001:0001374c       ??_C@_0BP@HBFMDBOK@305?5?9?5Print?5TxMgmtQueue?5info?4?6?$AA@ 1001474c     test:TxDbg.obj
 0001:0001376c       ??_C@_0CF@IMNALOO@306?5?9?5Print?5TxMgmtQueue?5Statisti@ 1001476c     test:TxDbg.obj
 0001:00013794       ??_C@_0BO@PNOLDKHM@307?5?9?5Print?5TxCtrlBlk?5table?4?6?$AA@ 10014794     test:TxDbg.obj
 0001:000137b4       ??_C@_0BN@GFECCCON@308?5?9?5Print?5TxHwQueue?5info?4?6?$AA@ 100147b4     test:TxDbg.obj
 0001:000137d4       ??_C@_0BK@PILINCBB@309?5?9?5Print?5TxXfer?5info?4?6?$AA@ 100147d4     test:TxDbg.obj
 0001:000137f0       ??_C@_0BM@DGBCLFLC@310?5?9?5Print?5TxResult?5info?4?6?$AA@ 100147f0     test:TxDbg.obj
 0001:0001380c       ??_C@_0CL@IJLOKEOL@311?5?9?5Print?5TxDataClsfr?5Classifi@ 1001480c     test:TxDbg.obj
 0001:00013838       ??_C@_0CA@BOMFLJMK@320?5?9?5Reset?5TxCtrl?5Statistics?4?6?$AA@ 10014838     test:TxDbg.obj
 0001:00013858       ??_C@_0CF@BAMEIIMK@321?5?9?5Reset?5TxDataQueue?5Statisti@ 10014858     test:TxDbg.obj
 0001:00013880       ??_C@_0CL@GGLLEBEE@322?5?9?5Reset?5TxDataClsfr?5Classifi@ 10014880     test:TxDbg.obj
 0001:000138ac       ??_C@_0CF@IHDCLBFH@323?5?9?5Reset?5TxMgmtQueue?5Statisti@ 100148ac     test:TxDbg.obj
 0001:000138d4       ??_C@_0CC@HPDLLJON@324?5?9?5Reset?5TxResult?5Statistics?4@ 100148d4     test:TxDbg.obj
 0001:000138f8       ??_C@_0CA@HBPALBPP@325?5?9?5Reset?5TxXfer?5Statistics?4?6?$AA@ 100148f8     test:TxDbg.obj
 0001:00013918       ??_C@_0CA@FMHOPEDE@?6?5?5?5?5?5?5?5?5?5?5Rx?5Dbg?5Functions?5?5?5?6?$AA@ 10014918     test:TxDbg.obj
 0001:00013938       ??_C@_0BH@IBBMLAAF@350?5?9?5Print?5Rx?5block?4?6?$AA@ 10014938     test:TxDbg.obj
 0001:00013950       ??_C@_0BK@HDGFNNND@351?5?9?5Print?5Rx?5counters?4?6?$AA@ 10014950     test:TxDbg.obj
 0001:0001396c       ??_C@_0BK@DBGFDPLL@352?5?9?5Reset?5Rx?5counters?4?6?$AA@ 1001496c     test:TxDbg.obj
 0001:00013988       ??_C@_0CC@IEJEDNCL@353?5?9?5Start?5Rx?5throughput?5timer?4@ 10014988     test:TxDbg.obj
 0001:000139ac       ??_C@_0CC@PGCBOCDJ@354?5?9?5Stop?5?5Rx?5throughput?5timer?4@ 100149ac     test:TxDbg.obj
 0001:000139d0       ??_C@_0DJ@GLAONLC@Invalid?5function?5type?5in?5Debug?5T@ 100149d0     test:TxDbg.obj
 0001:00013a0c       ??_C@_0BO@ICGNOKBB@RX?5DBG?5?9?5Reset?5Rx?5counters?5?6?6?$AA@ 10014a0c     test:TxDbg.obj
 0001:00013a2c       ??_C@_0BO@PEKLLFMK@RX?5DBG?5?9?5Print?5Rx?5counters?5?6?6?$AA@ 10014a2c     test:TxDbg.obj
 0001:00013a4c       ??_C@_0BL@JDLDIGIF@RX?5DBG?5?9?5Print?5Rx?5Block?5?6?6?$AA@ 10014a4c     test:TxDbg.obj
 0001:00013a68       ??_C@_0CI@CHKHLIFI@context_Create?$CI?$CJ?3?5?5Allocation?5fa@ 10014a68     utils:context.obj
 0001:00013a90       ??_C@_0FL@DEJJFAPF@Client?5?$CFd?5?9?5?$CFs?3?5CbFunc?$DN0x?$CFx?0?5CbH@ 10014a90     utils:context.obj
 0001:00013aec       ??_C@_0CK@MKKIJADL@context_Print?$CI?$CJ?3?5?5?$CFd?5Clients?5Reg@ 10014aec     utils:context.obj
 0001:00013b18       ??_C@_0CJ@EBIOIHBJ@?$DN?$DN?$DN?$DN?$DN?$DN?$DN?$DN?$DN?$DN?$DN?$DN?$DN?$DN?$DN?$DN?$DN?$DN?$DN?$DN?$DN?$DN?$DN?$DN?$DN?$DN?$DN?$DN?$DN?$DN?$DN?$DN@ 10014b18     utils:context.obj
 0001:00013b44       ??_C@_0BN@PGDCIDFP@bContextSwitchRequired?5?$DN?5?$CFd?6?$AA@ 10014b44     utils:context.obj
 0001:00013b64       ??_C@_0CD@HJFFCJGL@Error?5allocating?5the?5Queue?5Modul@ 10014b64     utils:queue.obj
 0001:00013b88       ??_C@_0FO@BHHAFAAP@que_Print?3?5Count?$DN?$CFu?5MaxCount?$DN?$CFu?5@ 10014b88     utils:queue.obj
 0001:00013bf8       ??_C@_04LGGJDDML@INIT?$AA@ 10014bf8     utils:report.obj
 0001:00013c00       ??_C@_0M@PHDJNCCI@INFORMATION?$AA@ 10014c00     utils:report.obj
 0001:00013c0c       ??_C@_07KCOHIFOP@WARNING?$AA@ 10014c0c     utils:report.obj
 0001:00013c14       ??_C@_05MBDEGLCK@ERROR?$AA@ 10014c14     utils:report.obj
 0001:00013c1c       ??_C@_0M@BBACKHFD@FATAL_ERROR?$AA@ 10014c1c     utils:report.obj
 0001:00013c28       ??_C@_02CLJDIHEM@SM?$AA@   10014c28     utils:report.obj
 0001:00013c2c       ??_C@_07PCJELJIA@CONSOLE?$AA@ 10014c2c     utils:report.obj
 0001:00013c34       ??_C@_0M@CECACNGB@?$CF04?44x?5?5?$CFs?6?$AA@ 10014c34     utils:report.obj
 0001:00013c40       ??_C@_0CE@EAIKEOLH@tmr_Create?$CI?$CJ?3?5?5Allocation?5failed@ 10014c40     utils:timer.obj
 0001:00013c68       ??_C@_0FF@EGNOGAIC@tmr_Destroy?$CI?$CJ?3?5?5ERROR?5?9?5Destroyi@ 10014c68     utils:timer.obj
 0001:00013cc0       ??_C@_0FE@LCFJJBNO@tmr_PrintModule?$CI?$CJ?3?5uContextId?$DN?$CFd@ 10014cc0     utils:timer.obj
 0001:00013d14       ??_C@_0CA@PGFOJBAG@tmr_PrintModule?$CI?$CJ?3?5Init?9Queue?3?6?$AA@ 10014d14     utils:timer.obj
 0001:00013d34       ??_C@_0CH@GDOGIJGM@tmr_PrintModule?$CI?$CJ?3?5Operational?9Q@ 10014d34     utils:timer.obj
 0001:00013d5c       ??_C@_05BLGDNOJI@TIMER?$AA@ 10014d5c     utils:timer.obj
 0001:00013d64       ??_C@_0DG@BNNOFFBH@tmr_CreateTimer?$CI?$CJ?3?5?5OS?9API?5Timer@ 10014d64     utils:timer.obj
 0001:00013d9c       ??_C@_0CP@OOFFPKDD@tmr_CreateTimer?$CI?$CJ?3?5?5Timer?5alloca@ 10014d9c     utils:timer.obj
 0001:00013dcc       ??_C@_0BP@FBEIKBGE@genSM_Event?3?5Handle?5is?5NULL?$CB?$CB?6?$AA@ 10014dcc     utils:GenSM.obj
 0001:00013dec       ??_C@_0CJ@FDDCCOGA@genSM_GetCurrentState?3?5Handle?5is@ 10014dec     utils:GenSM.obj
 0001:00013ea8       ??_C@_1II@IPMOENAK@?$AAh?$AAP?$AAl?$AAa?$AAt?$AAf?$AAo?$AAr?$AAm?$AA_?$AAW?$AAl?$AAa?$AAn?$AA_?$AAH?$AAa?$AAr?$AAd?$AAw?$AAa?$AAr?$AAe?$AA_?$AAI?$AAn?$AAi?$AAt?$AA?3?$AA?5?$AAG?$AAP@ 10014ea8     host_platform_Z2170P:host_platform.obj
 0001:00013f30       ??_C@_0CI@JANMLEHC@OMAP3530_TNETW_Power?$CI?$CJ?5GPIOOpen?5@ 10014f30     host_platform_Z2170P:host_platform.obj
 0001:00013f58       ??_C@_1DC@GDOGPFME@?$AA?6?$AA?$AN?$AAO?$AAM?$AAA?$AAP?$AA3?$AA5?$AA3?$AA0?$AA_?$AAT?$AAN?$AAE?$AAT?$AAW?$AA_?$AAP?$AAo?$AAw?$AAe?$AAr?$AA?6?$AA?$AN?$AA?$AA@ 10014f58     host_platform_Z2170P:host_platform.obj
 0001:00013f90       ??_C@_0FI@LMICIPMO@TI_STATUS?5InitializeInterrupt?$CI?$CJ?5@ 10014f90     host_platform_Z2170P:host_platform.obj
 0001:00013fe8       ??_C@_1EC@PCPMAPKH@?$AA?6?$AA?$AN?$AAh?$AAP?$AAl?$AAa?$AAt?$AAf?$AAo?$AAr?$AAm?$AA_?$AAW?$AAl?$AAa?$AAn?$AA_?$AAH?$AAa?$AAr?$AAd?$AAw?$AAa?$AAr?$AAe?$AA_?$AAI?$AAn?$AAi?$AAt?$AA?6?$AA?$AN@ 10014fe8     host_platform_Z2170P:host_platform.obj
 0001:0001402c       ??_C@_0BJ@HIPLENFJ@Error?5open?5GPIO?5handle?4?6?$AA@ 1001502c     host_platform_Z2170P:host_platform.obj
 0001:00014048       ??_C@_1FI@GEAPHFOK@?$AAh?$AAP?$AAl?$AAa?$AAt?$AAf?$AAo?$AAr?$AAm?$AA_?$AAW?$AAl?$AAa?$AAn?$AA_?$AAI?$AAn?$AAt?$AAr?$AA_?$AAE?$AAn?$AAa?$AAb?$AAl?$AAe?$AA?3?$AA?5?$AAI?$AAR?$AAQ?$AA_@ 10015048     host_platform_Z2170P:host_platform.obj
 0001:000140a0       ??_C@_1GA@MHMPAELF@?$AAh?$AAP?$AAl?$AAa?$AAt?$AAf?$AAo?$AAr?$AAm?$AA_?$AAW?$AAl?$AAa?$AAn?$AA_?$AAI?$AAn?$AAt?$AAr?$AA_?$AAE?$AAn?$AAa?$AAb?$AAl?$AAe?$AA?3?$AA?5?$AAG?$AAP?$AAI?$AAO@ 100150a0     host_platform_Z2170P:host_platform.obj
 0001:00014100       ??_C@_1BA@CBILMDFI@?$AAI?$AAr?$AAq?$AAL?$AAi?$AAn?$AAe?$AA?$AA@ 10015100     host_platform_Z2170P:host_platform.obj
 0001:00014110       ??_C@_1BK@HOKDLNBP@?$AAW?$AAl?$AAa?$AAn?$AA_?$AAP?$AAw?$AAr?$AAL?$AAi?$AAn?$AAe?$AA?$AA@ 10015110     host_platform_Z2170P:host_platform.obj
 0001:0001412c       ??_C@_1DO@GEGJOIAH@?$AA?6?$AA?$AN?$AAh?$AAP?$AAl?$AAa?$AAt?$AAf?$AAo?$AAr?$AAm?$AA_?$AAW?$AAl?$AAa?$AAn?$AA_?$AAI?$AAn?$AAt?$AAr?$AA_?$AAE?$AAn?$AAa?$AAb?$AAl?$AAe?$AA?6?$AA?$AN?$AA?$AA@ 1001512c     host_platform_Z2170P:host_platform.obj
 0001:0001416c       ??_C@_0BF@DICNKDHE@sdioAdapt_ConnectBus?$AA@ 1001516c     host_platform_Z2170P:SdioAdapter.obj
 0001:00014188       ??_C@_0EI@BHPJCOO@?$CFs?$CI?$CJ?3?5Block?9Size?5?$CI?$CFd?$CJ?5should?5be?5@ 10015188     host_platform_Z2170P:SdioAdapter.obj
 0001:000141d0       ??_C@_0DE@OLKAONNO@11h?5PowerConstraint?5?$DN?5?$CFd?0?5XCC?5TP@ 100151d0     AirLink_Managment:regulatoryDomain.obj
 0001:00014204       ??_C@_0CD@ELOHBDBH@channel?5?$DN?$CFd?5is?5valid?5for?5passive@ 10015204     AirLink_Managment:regulatoryDomain.obj
 0001:00014228       ??_C@_0CN@EJDHGPPF@channel?5?$DN?$CFd?5is?5valid?5for?5active?5@ 10015228     AirLink_Managment:regulatoryDomain.obj
 0001:00014258       ??_C@_0CH@JDBBIID@channel?5num?5?$DN?$CFd?5is?5valid?5for?5pas@ 10015258     AirLink_Managment:regulatoryDomain.obj
 0001:00014280       ??_C@_0L@PCPHMPAH@SG_DISABLE?$AA@ 10015280     AirLink_Managment:SoftGemini.obj
 0001:0001428c       ??_C@_0O@LPGIDFKJ@SG_PROTECTIVE?$AA@ 1001528c     AirLink_Managment:SoftGemini.obj
 0001:0001429c       ??_C@_0BB@GNFOCKHG@SG_OPPORTUNISTIC?$AA@ 1001529c     AirLink_Managment:SoftGemini.obj
 0001:000142b0       ??_C@_0DF@OKNJEAMB@?5?5SoftGemini_SetPSmode?$CI?$CJ?5?9?5Error@ 100152b0     AirLink_Managment:SoftGemini.obj
 0001:000142e8       ??_C@_0DF@LNHCFDFE@SoftGemini_unSetPSmode?$CI?$CJ?5?9?5Error@ 100152e8     AirLink_Managment:SoftGemini.obj
 0001:00014320       ??_C@_0BM@BADBPDLA@PsPoll?5failure?5active?5?3?5?$CFs?6?$AA@ 10015320     AirLink_Managment:SoftGemini.obj
 0001:0001433c       ??_C@_0BG@INEPJLMJ@Protective?5mode?5?3?5?$CFs?6?$AA@ 1001533c     AirLink_Managment:SoftGemini.obj
 0001:00014354       ??_C@_03MPPIHBHJ@OFF?$AA@  10015354     AirLink_Managment:SoftGemini.obj
 0001:00014358       ??_C@_02BFICIOJL@ON?$AA@   10015358     AirLink_Managment:SoftGemini.obj
 0001:0001435c       ??_C@_0BF@OLJLPPKE@Driver?5Enabled?5?3?5?$CFs?6?$AA@ 1001535c     AirLink_Managment:SoftGemini.obj
 0001:00014374       ??_C@_02NFLNFON@NO?$AA@    10015374     AirLink_Managment:SoftGemini.obj
 0001:00014378       ??_C@_03IPHJCBHH@YES?$AA@  10015378     AirLink_Managment:SoftGemini.obj
 0001:0001437c       ??_C@_0BC@JGAHGDBB@Enable?5mode?5?3?5?$CFs?6?$AA@ 1001537c     AirLink_Managment:SoftGemini.obj
 0001:00014390       ??_C@_0CA@CICNMNIO@?$FL25?$FN?3?5coexAdaptiveRxtTxt?5?$DN?5?$CFs?5?6?$AA@ 10015390     AirLink_Managment:SoftGemini.obj
 0001:000143b0       ??_C@_0CF@FBKEDNFJ@?$FL26?$FN?3?5coexPsPollTimeout?5?$DN?5?$CFd?5?$CIms@ 100153b0     AirLink_Managment:SoftGemini.obj
 0001:000143d8       ??_C@_0CE@CNBBKMFO@?$FL27?$FN?3?5coexUpsdTimeout?5?$DN?5?$CFd?5?$CImsec@ 100153d8     AirLink_Managment:SoftGemini.obj
 0001:000143fc       ??_C@_0DD@HKAIPFGE@?$FL28?$FN?3?5coexWlanActiveBtAclMasterM@ 100153fc     AirLink_Managment:SoftGemini.obj
 0001:00014430       ??_C@_0DD@NMCOCHGP@?$FL29?$FN?3?5coexWlanActiveBtAclMasterM@ 10015430     AirLink_Managment:SoftGemini.obj
 0001:00014464       ??_C@_0DD@HDMAFJGI@?$FL30?$FN?3?5coexWlanActiveMaxBtAclMast@ 10015464     AirLink_Managment:SoftGemini.obj
 0001:00014498       ??_C@_0DC@GCHKMLG@?$FL31?$FN?3?5coexWlanActiveBtAclSlaveMi@ 10015498     AirLink_Managment:SoftGemini.obj
 0001:000144cc       ??_C@_0DC@GJILGEMK@?$FL32?$FN?3?5coexWlanActiveBtAclSlaveMa@ 100154cc     AirLink_Managment:SoftGemini.obj
 0001:00014500       ??_C@_0DC@ODFJPGFH@?$FL33?$FN?3?5coexWlanActiveMaxBtAclSlav@ 10015500     AirLink_Managment:SoftGemini.obj
 0001:00014534       ??_C@_0CM@PJBJDHFB@?$FL34?$FN?3?5coexWlanActiveBtAclMinBR?5?$DN@ 10015534     AirLink_Managment:SoftGemini.obj
 0001:00014560       ??_C@_0CM@NAOFINCB@?$FL35?$FN?3?5coexWlanActiveBtAclMinBr?5?$DN@ 10015560     AirLink_Managment:SoftGemini.obj
 0001:0001458c       ??_C@_0CM@ENOKMECM@?$FL36?$FN?3?5coexWlanActiveMaxBtAclBr?5?$DN@ 1001558c     AirLink_Managment:SoftGemini.obj
 0001:000145b8       ??_C@_0DL@NCFIGDJ@?$FL37?$FN?3?5coexHv3AutoEnlargePassiveS@ 100155b8     AirLink_Managment:SoftGemini.obj
 0001:000145f4       ??_C@_0DN@NIPNPGNF@?$FL38?$FN?3?5coexA2DPAutoEnlargePassive@ 100155f4     AirLink_Managment:SoftGemini.obj
 0001:00014634       ??_C@_0CO@LGFCCEPG@?$FL39?$FN?3?5coexPassiveScanA2dpBtTime?5@ 10015634     AirLink_Managment:SoftGemini.obj
 0001:00014664       ??_C@_0CP@CBNEPCMG@?$FL40?$FN?3?5coexPassiveScanA2dpWlanTim@ 10015664     AirLink_Managment:SoftGemini.obj
 0001:00014694       ??_C@_0BO@CCEHKMM@?$FL41?$FN?3?5CoexHv3MaxServed?5?$DN?5?$CFd?5?6?$AA@ 10015694     AirLink_Managment:SoftGemini.obj
 0001:000146b4       ??_C@_0CA@CIOGEDMM@?$FL42?$FN?3?5coexDhcpTime?5?$DN?5?$CFd?5?$CImsec?$CJ?6?$AA@ 100156b4     AirLink_Managment:SoftGemini.obj
 0001:000146d4       ??_C@_0DL@LMAGCIKM@?$FL43?$FN?3?5coexA2dpAutoScanEnlargedSc@ 100156d4     AirLink_Managment:SoftGemini.obj
 0001:00014710       ??_C@_0BM@GECJKIBP@?$FL44?$FN?3?5coexTempParam1?5?$DN?5?$CFd?5?6?$AA@ 10015710     AirLink_Managment:SoftGemini.obj
 0001:0001472c       ??_C@_0BM@LKLJDCEN@?$FL45?$FN?3?5coexTempParam2?5?$DN?5?$CFd?5?6?$AA@ 1001572c     AirLink_Managment:SoftGemini.obj
 0001:00014748       ??_C@_0BM@FPJFMLPG@?$FL46?$FN?3?5coexTempParam3?5?$DN?5?$CFd?5?6?$AA@ 10015748     AirLink_Managment:SoftGemini.obj
 0001:00014764       ??_C@_0BM@NMOJAAKI@?$FL47?$FN?3?5coexTempParam4?5?$DN?5?$CFd?5?6?$AA@ 10015764     AirLink_Managment:SoftGemini.obj
 0001:00014780       ??_C@_0BM@EGHIECHB@?$FL48?$FN?3?5coexTempParam5?5?$DN?5?$CFd?5?6?$AA@ 10015780     AirLink_Managment:SoftGemini.obj
 0001:0001479c       ??_C@_0DN@OHJOCPCL@?$FL7?$FN?3?5?5coexAntennaConfiguration?5?$DN@ 1001579c     AirLink_Managment:SoftGemini.obj
 0001:000147dc       ??_C@_0DE@KHBEHFKF@?$FL8?$FN?3?5?5coexMaxConsecutiveBeaconMi@ 100157dc     AirLink_Managment:SoftGemini.obj
 0001:00014810       ??_C@_0CD@KEBCNLOB@?$FL9?$FN?3?5?5coexAPRateAdapationThr?5?$DN?5?$CF@ 10015810     AirLink_Managment:SoftGemini.obj
 0001:00014834       ??_C@_0CD@IBIPAJLD@?$FL10?$FN?3?5coexAPRateAdapationSnr?5?$DN?5?$CF@ 10015834     AirLink_Managment:SoftGemini.obj
 0001:00014858       ??_C@_0CO@JFDDOBDD@?$FL11?$FN?3?5coexWlanPsBtAclMasterMinBR@ 10015858     AirLink_Managment:SoftGemini.obj
 0001:00014888       ??_C@_0CO@EMHPCJOM@?$FL12?$FN?3?5coexWlanPsBtAclMasterMaxBR@ 10015888     AirLink_Managment:SoftGemini.obj
 0001:000148b8       ??_C@_0CO@GCFPJEJ@?$FL13?$FN?3?5coexWlanPsMaxBtAclMasterBR@ 100158b8     AirLink_Managment:SoftGemini.obj
 0001:000148e8       ??_C@_0CN@OBAOLIFJ@?$FL14?$FN?3?5coexWlanPsBtAclSlaveMinBR?5@ 100158e8     AirLink_Managment:SoftGemini.obj
 0001:00014918       ??_C@_0CN@BCJMONL@?$FL15?$FN?3?5coexWlanPsBtAclSlaveMaxBR?5@ 10015918     AirLink_Managment:SoftGemini.obj
 0001:00014948       ??_C@_0CN@BGDPKPKI@?$FL16?$FN?3?5coexWlanPsMaxBtAclSlaveBR?5@ 10015948     AirLink_Managment:SoftGemini.obj
 0001:00014978       ??_C@_0CP@ECLMEGOJ@?$FL17?$FN?3?5coexWlanPsBtAclMasterMinED@ 10015978     AirLink_Managment:SoftGemini.obj
 0001:000149a8       ??_C@_0CP@KLCEDPDA@?$FL18?$FN?3?5coexWlanPsBtAclMasterMaxED@ 100159a8     AirLink_Managment:SoftGemini.obj
 0001:000149d8       ??_C@_0CP@NNCDCIH@?$FL19?$FN?3?5coexWlanPsMaxBtAclMasterED@ 100159d8     AirLink_Managment:SoftGemini.obj
 0001:00014a08       ??_C@_0CO@HFCJBMB@?$FL20?$FN?3?5coexWlanPsBtAclSlaveMinEDR@ 10015a08     AirLink_Managment:SoftGemini.obj
 0001:00014a38       ??_C@_0CO@EAEFELL@?$FL21?$FN?3?5coexWlanPsBtAclSlaveMaxEDR@ 10015a38     AirLink_Managment:SoftGemini.obj
 0001:00014a68       ??_C@_0CO@MNBPGCFM@?$FL22?$FN?3?5coexWlanPsMaxBtAclSlaveEDR@ 10015a68     AirLink_Managment:SoftGemini.obj
 0001:00014a98       ??_C@_0BL@GKHPLMAP@?$FL23?$FN?3?5coexRxt?5?$DN?5?$CFd?5?$CIusec?$CJ?6?$AA@ 10015a98     AirLink_Managment:SoftGemini.obj
 0001:00014ab4       ??_C@_0BL@DBLPHKP@?$FL24?$FN?3?5coexTxt?5?$DN?5?$CFd?5?$CIusec?$CJ?6?$AA@ 10015ab4     AirLink_Managment:SoftGemini.obj
 0001:00014ad0       ??_C@_06IGOBCGAJ@Single?$AA@ 10015ad0     AirLink_Managment:SoftGemini.obj
 0001:00014ad8       ??_C@_04EIBCCDHJ@Dual?$AA@ 10015ad8     AirLink_Managment:SoftGemini.obj
 0001:00014ae0       ??_C@_0BM@CEFHFPMD@?$FL4?$FN?3?5?5coexAutoPsMode?5?$DN?5?$CFs?5?6?$AA@ 10015ae0     AirLink_Managment:SoftGemini.obj
 0001:00014afc       ??_C@_0DJ@OOMPBCDK@?$FL5?$FN?3?5?5coexAutoScanEnlargedNumOfP@ 10015afc     AirLink_Managment:SoftGemini.obj
 0001:00014b38       ??_C@_0DK@KIDFGJBO@?$FL6?$FN?3?5?5coexHv3AutoScanEnlargedSca@ 10015b38     AirLink_Managment:SoftGemini.obj
 0001:00014b74       ??_C@_0BP@CFJEMHIM@?$FL0?$FN?3?5?5coexBtPerThreshold?5?$DN?5?$CFd?6?$AA@ 10015b74     AirLink_Managment:SoftGemini.obj
 0001:00014b94       ??_C@_0CA@DBCCNPEM@?$FL1?$FN?3?5?5coexHv3MaxOverride?5?$DN?5?$CFd?5?6?$AA@ 10015b94     AirLink_Managment:SoftGemini.obj
 0001:00014bb4       ??_C@_0CL@GJDEAJPG@?$FL2?$FN?3?5?5coexBtNfsSampleInterval?5?$DN?5@ 10015bb4     AirLink_Managment:SoftGemini.obj
 0001:00014be0       ??_C@_0CA@GAJBCAOG@?$FL3?$FN?3?5?5coexBtLoadRatio?5?$DN?5?$CFd?5?$CI?$CF?$CJ?6?$AA@ 10015be0     AirLink_Managment:SoftGemini.obj
 0001:00014c00       ??_C@_0BI@LBEGLLAG@measurementMgr_getParam?$AA@ 10015c00     AirLink_Managment:measurementMgr.obj
 0001:00014c18       ??_C@_06MOHLCLJA@?$CFs?3?5?6?6?$AA@ 10015c18     AirLink_Managment:measurementMgr.obj
 0001:00014c20       ??_C@_0CA@DAKPKLCI@MeasurementMgr?5Status?5Report?3?6?6?$AA@ 10015c20     AirLink_Managment:measurementMgr.obj
 0001:00014c40       ??_C@_0BE@LDDONGGC@Current?5State?3?5?$CFd?6?6?$AA@ 10015c40     AirLink_Managment:measurementMgr.obj
 0001:00014c54       ??_C@_0P@LIGLBHH@Connected?3?5?$CFd?6?$AA@ 10015c54     AirLink_Managment:measurementMgr.obj
 0001:00014c64       ??_C@_0O@GMCIBKNG@Enabled?3?5?$CFd?6?6?$AA@ 10015c64     AirLink_Managment:measurementMgr.obj
 0001:00014c74       ??_C@_09DPDJEHFK@Mode?3?5?$CFd?6?$AA@ 10015c74     AirLink_Managment:measurementMgr.obj
 0001:00014c80       ??_C@_0BD@MPKMEPOH@Capabilities?3?5?$CFd?6?6?$AA@ 10015c80     AirLink_Managment:measurementMgr.obj
 0001:00014c94       ??_C@_0BI@DNLCBOLC@current?5Frame?5Type?3?5?$CFd?6?$AA@ 10015c94     AirLink_Managment:measurementMgr.obj
 0001:00014cac       ??_C@_0BG@LNKLILGH@Measured?5Channel?3?5?$CFd?6?$AA@ 10015cac     AirLink_Managment:measurementMgr.obj
 0001:00014cc4       ??_C@_0BF@NMOHEFDJ@Serving?5Channel?3?5?$CFd?6?$AA@ 10015cc4     AirLink_Managment:measurementMgr.obj
 0001:00014cdc       ??_C@_0CB@HFONJGPG@Traffic?5Intensity?5Threshold?3?5?$CFd?6@ 10015cdc     AirLink_Managment:measurementMgr.obj
 0001:00014d00       ??_C@_0CI@EDBDCMGD@Max?5Duration?5on?5Nonserving?5Chann@ 10015d00     AirLink_Managment:measurementMgr.obj
 0001:00014d28       ??_C@_0DP@ODPFICNI@SwitchChannelDebug_setSwitchChan@ 10015d28     AirLink_Managment:SwitchChannel.obj
 0001:00014d68       ??_C@_0EH@PFJIAGMI@SwitchChannelDebug_setSwitchChan@ 10015d68     AirLink_Managment:SwitchChannel.obj
 0001:00014db0       ??_C@_0EG@NEJNPCM@SwitchChannelDebug_setSwitchChan@ 10015db0     AirLink_Managment:SwitchChannel.obj
 0001:00014df8       ??_C@_0FH@DDDAMOGA@ERROR?3?5SwitchChannelDebug_setSwi@ 10015df8     AirLink_Managment:SwitchChannel.obj
 0001:00014e50       ??_C@_0IH@MNFFNFLE@SwitchChannelDebug_SwitchChannel@ 10015e50     AirLink_Managment:SwitchChannel.obj
 0001:00014ed8       ??_C@_0DL@KLHLFHLH@SwitchChannelDebug_SwitchChannel@ 10015ed8     AirLink_Managment:SwitchChannel.obj
 0001:00014f18       ??_C@_0GB@FEAMLMMJ@SwitchChannel?5debug?5params?5are?3?5@ 10015f18     AirLink_Managment:SwitchChannel.obj
 0001:00014f7c       ??_C@_0CM@IFHCBPFO@SwitchChannel?5state?$DN?$CFd?0?5currentC@ 10015f7c     AirLink_Managment:SwitchChannel.obj
 0001:00014fa8       ??_C@_0FB@NLFNIIBD@FATAL?5ERROR?3?5switchChannel_creat@ 10015fa8     AirLink_Managment:SwitchChannel.obj
 0001:00014ffc       ??_C@_0P@HAIMJMAO@EVENT_FW_RESET?$AA@ 10015ffc     AirLink_Managment:measurementMgrSM.obj
 0001:0001500c       ??_C@_0P@BOJDFPFG@EVENT_COMPLETE?$AA@ 1001600c     AirLink_Managment:measurementMgrSM.obj
 0001:0001501c       ??_C@_0M@ECHMGGAB@EVENT_ABORT?$AA@ 1001601c     AirLink_Managment:measurementMgrSM.obj
 0001:00015028       ??_C@_0O@EDBNIOEK@EVENT_SCR_RUN?$AA@ 10016028     AirLink_Managment:measurementMgrSM.obj
 0001:00015038       ??_C@_0P@FKEJHEGN@EVENT_SCR_WAIT?$AA@ 10016038     AirLink_Managment:measurementMgrSM.obj
 0001:00015048       ??_C@_0BC@CMPLJNLI@EVENT_REQUEST_SCR?$AA@ 10016048     AirLink_Managment:measurementMgrSM.obj
 0001:0001505c       ??_C@_0BC@IKOHLLNO@EVENT_SEND_REPORT?$AA@ 1001605c     AirLink_Managment:measurementMgrSM.obj
 0001:00015070       ??_C@_0BB@JDBAIBBF@EVENT_FRAME_RECV?$AA@ 10016070     AirLink_Managment:measurementMgrSM.obj
 0001:00015084       ??_C@_0O@CFIFAFNL@EVENT_DISABLE?$AA@ 10016084     AirLink_Managment:measurementMgrSM.obj
 0001:00015094       ??_C@_0N@IENKAIOO@EVENT_ENABLE?$AA@ 10016094     AirLink_Managment:measurementMgrSM.obj
 0001:000150a4       ??_C@_0BD@JFIDDHIC@EVENT_DISCONNECTED?$AA@ 100160a4     AirLink_Managment:measurementMgrSM.obj
 0001:000150b8       ??_C@_0BA@HCCKJIH@EVENT_CONNECTED?$AA@ 100160b8     AirLink_Managment:measurementMgrSM.obj
 0001:000150c8       ??_C@_0BA@JFMIHLFO@STATE_MEASURING?$AA@ 100160c8     AirLink_Managment:measurementMgrSM.obj
 0001:000150d8       ??_C@_0BG@IIOMDFAP@STATE_WAITING_FOR_SCR?$AA@ 100160d8     AirLink_Managment:measurementMgrSM.obj
 0001:000150f0       ??_C@_0BJ@BGIPBEPE@STATE_PROCESSING_REQUEST?$AA@ 100160f0     AirLink_Managment:measurementMgrSM.obj
 0001:0001510c       ??_C@_0L@IDKOODDG@STATE_IDLE?$AA@ 1001610c     AirLink_Managment:measurementMgrSM.obj
 0001:00015118       ??_C@_0DG@KMALMOGB@?9?5Succesful?5average?5succesful?5ha@ 10016118     Application:roamingMngr.obj
 0001:00015150       ??_C@_0CL@HBPGGAEL@?9?5Succesful?5average?5roaming?5dura@ 10016150     Application:roamingMngr.obj
 0001:0001517c       ??_C@_0CG@JNMJPBAJ@?$CK?$CK?$CK?$CK?$CK?$CK?$CK?$CK?5ROAMING?5STATISTICS?5?$CK?$CK?$CK?$CK@ 1001617c     Application:roamingMngr.obj
 0001:000151a4       ??_C@_0CD@GFDFFONK@?9?5Num?5of?5succesful?5handovers?5?$DN?5?$CF@ 100161a4     Application:roamingMngr.obj
 0001:000151c8       ??_C@_0CA@JAKHCNPO@?9?5Num?5of?5failed?5handovers?5?$DN?5?$CFd?6?$AA@ 100161c8     Application:roamingMngr.obj
 0001:000151e8       ??_C@_0BB@GLKKLAEO@?9?5Low?5Snre?5?$DN?5?$CFd?6?$AA@ 100161e8     Application:roamingMngr.obj
 0001:000151fc       ??_C@_0CK@HJPAADHK@?$CK?$CK?$CK?$CK?$CK?$CK?$CK?$CK?5Succ?5ROAMING_HANDOVERS?5@ 100161fc     Application:roamingMngr.obj
 0001:00015228       ??_C@_0BD@MKILKNME@?9?5SEC?5attack?5?$DN?5?$CFd?6?$AA@ 10016228     Application:roamingMngr.obj
 0001:0001523c       ??_C@_0BG@MAAMDBCO@?9?5AP?5Disconnect?5?$DN?5?$CFd?6?$AA@ 1001623c     Application:roamingMngr.obj
 0001:00015254       ??_C@_0BH@PBGPNMKK@?9?5Switch?5Channel?5?$DN?5?$CFd?6?$AA@ 10016254     Application:roamingMngr.obj
 0001:0001526c       ??_C@_0BE@LBDNJJCP@?9?5BSS?5Loss?5TX?5?$DN?5?$CFd?6?$AA@ 1001626c     Application:roamingMngr.obj
 0001:00015280       ??_C@_0BH@IEGCDBLI@?9?5MAX?5TX?5retries?5?$DN?5?$CFd?6?$AA@ 10016280     Application:roamingMngr.obj
 0001:00015298       ??_C@_0BE@JAELHMCO@?9?5Low?5Quality?5?$DN?5?$CFd?6?$AA@ 10016298     Application:roamingMngr.obj
 0001:000152ac       ??_C@_0BA@KNMHBKAK@?9?5Low?5Snr?5?$DN?5?$CFd?6?$AA@ 100162ac     Application:roamingMngr.obj
 0001:000152bc       ??_C@_0BE@IPDPEJAK@?9?5Low?5TX?5rate?5?$DN?5?$CFd?6?$AA@ 100162bc     Application:roamingMngr.obj
 0001:000152d0       ??_C@_0CE@HEFBKLBE@?$CK?$CK?$CK?$CK?$CK?$CK?$CK?$CK?5ROAMING_TRIGGERS?5?$CK?$CK?$CK?$CK?$CK?$CK@ 100162d0     Application:roamingMngr.obj
 0001:000152f4       ??_C@_0BP@GBCMHBLM@Resetting?5all?5ROAMING_EVENTS?5?6?$AA@ 100162f4     Application:roamingMngr.obj
 0001:00015318       ??_C@_0EJ@MAKKPHLK@FATAL?5ERROR?3?5roamingMngr_create?$CI@ 10016318     Application:roamingMngr.obj
 0001:00015368       ??_C@_0LI@MFCAALJH@Roaming?5Current?5State?5?$DN?5?$CFd?0?5enab@ 10016368     Application:roamingMngr.obj
 0001:00015420       ??_C@_0EF@OJIPMPKD@?6?5roamingMngr_setBssLossThreshol@ 10016420     Application:roamingMngr.obj
 0001:00015468       ??_C@_0BA@EPDMOBIK@Roaming?5Auto?5SM?$AA@ 10016468     Application:roamingMngr.obj
 0001:00015478       ??_C@_0BC@NGLAIIGC@Roaming?5Manual?5SM?$AA@ 10016478     Application:roamingMngr.obj
 0001:0001548c       ??_C@_0DI@PPADKDA@Max?5channel?5dwell?5time?3?5?$CFd?0?5min?5@ 1001648c     Application:scanMngr.obj
 0001:000154c8       ??_C@_0EJ@GPLJEMCL@Early?5termination?5condition?3?5?$CFs?0@ 100164c8     Application:scanMngr.obj
 0001:00015518       ??_C@_0EE@MMLJAIGN@Number?5of?5probe?5requests?3?5?$CFd?0?5TX@ 10016518     Application:scanMngr.obj
 0001:0001555c       ??_C@_0BE@DCJFNCDH@Triggering?5Tid?3?5?$CFd?6?$AA@ 1001655c     Application:scanMngr.obj
 0001:00015570       ??_C@_0BD@EALPHKOH@Scan?5duration?3?5?$CFd?6?$AA@ 10016570     Application:scanMngr.obj
 0001:00015584       ??_C@_0CH@LLMJAAGH@Neighbor?5AP?3?5?$CFs?0?5track?5fail?5coun@ 10016584     Application:scanMngr.obj
 0001:000155ac       ??_C@_0CF@JFNOLMPL@local?5TSF?3?5?$CFd?9?$CFd?0?5remote?5TSF?3?5?$CFx@ 100165ac     Application:scanMngr.obj
 0001:000155d4       ??_C@_0CN@BJELPAFB@Host?5Time?5Stamp?3?5?$CFd?0?5last?5receiv@ 100165d4     Application:scanMngr.obj
 0001:00015608       ??_C@_0EF@DGFIMGOM@scanMngr_create?3?5Failed?5allocati@ 10016608     Application:scanMngr.obj
 0001:00015650       ??_C@_0EB@IMHAOOPI@scanMngr_create?3?5Failed?5allocati@ 10016650     Application:scanMngr.obj
 0001:00015698       ??_C@_0EH@MHPHABDH@Complete?5TI_OK?5?5?5failed?5?5?5?5stopp@ 10016698     Application:scanMngr.obj
 0001:000156e0       ??_C@_0DL@EJPKNHDH@?$CF?96d?5?5?5?5?5?5?5?5?$CF?95d?5?5?5?5?5?$CF?95d?5?5?5?5?5?5?$CF@ 100166e0     Application:scanMngr.obj
 0001:0001571c       ??_C@_0CJ@NMDFKDEA@Attempts?3?50?5?5?5?5?5?51?5?5?5?5?5?52?5?5?5?5?5?53@ 1001671c     Application:scanMngr.obj
 0001:00015748       ??_C@_0DB@BIPANNEO@Attempts?3?55?5?5?5?5?5?56?5?5?5?5?5?57?5?5?5?5?5?58@ 10016748     Application:scanMngr.obj
 0001:0001577c       ??_C@_0CF@FIMDGPCI@?5?5?5?5?5?5?5?5?5?5?$CF?96d?5?$CF?96d?5?$CF?96d?5?$CF?96d?5?$CF?9@ 1001677c     Application:scanMngr.obj
 0001:000157a4       ??_C@_0CH@ODGLFAAH@Channel?5index?3?50?5?5?5?5?5?51?5?5?5?5?5?52?5?5@ 100167a4     Application:scanMngr.obj
 0001:000157cc       ??_C@_0CH@PHIHOBDB@Channel?5index?3?54?5?5?5?5?5?55?5?5?5?5?5?56?5?5@ 100167cc     Application:scanMngr.obj
 0001:000157f4       ??_C@_0CI@GDEJAONB@Channel?5index?3?58?5?5?5?5?5?59?5?5?5?5?5?510?5@ 100167f4     Application:scanMngr.obj
 0001:0001581c       ??_C@_0CI@BBOBNKAJ@Channel?5index?3?512?5?5?5?5?513?5?5?5?5?514?5@ 1001681c     Application:scanMngr.obj
 0001:00015844       ??_C@_0CF@LDLICNPL@?5?5?5?5?5?5?5?5?5?5?5?5?5?5?5?$CF?96d?5?$CF?96d?5?$CF?96d?5?$CF?9@ 10016844     Application:scanMngr.obj
 0001:0001586c       ??_C@_0CP@KHNIMBAL@?$CF02x?3?$CF02x?3?$CF02x?3?$CF02x?3?$CF02x?3?$CF02x?5?$CF?9@ 1001686c     Application:scanMngr.obj
 0001:000158a0       ??_C@_0EB@EINCKNPN@?$CF?94d?5?$CF02x?3?$CF02x?3?$CF02x?3?$CF02x?3?$CF02x?3?$CF0@ 100168a0     Application:scanMngr.obj
 0001:000158e4       ??_C@_0DM@BMLLNNLB@?$CF?94d?5?$CF02x?3?$CF02x?3?$CF02x?3?$CF02x?3?$CF02x?3?$CF0@ 100168e4     Application:scanMngr.obj
 0001:00015920       ??_C@_0BI@IMPCECEI@No?5scan?5method?5defined?6?$AA@ 10016920     Application:scanMngr.obj
 0001:00015938       ??_C@_0P@FKAGCDEF@Scan?5type?3?5?$CFs?6?$AA@ 10016938     Application:scanMngr.obj
 0001:00015948       ??_C@_0EM@HEEHCKCF@?9?9?9?9?9?9?9?9?9?9?9?9?9?9?9?9?9?9?9?9?9?9?9?9?9?9?9?9?9?9?9?9@ 10016948     Application:scanMngr.obj
 0001:00015994       ??_C@_0BC@BLADMKND@Entry?5number?3?5?$CFd?6?$AA@ 10016994     Application:scanMngr.obj
 0001:000159a8       ??_C@_0EL@IANGNBOM@?9?9?9?9?9?9?9?9?9?9?9?9?9?9?9?9?9?9?9?9?9?9?9?9?9?9?9?9?9?9?9?9@ 100169a8     Application:scanMngr.obj
 0001:000159f4       ??_C@_0BE@ODFBMHPD@BSS?5list?5is?5empty?4?6?$AA@ 100169f4     Application:scanMngr.obj
 0001:00015a08       ??_C@_0DI@EBCJFHNC@?9?9?9?9?9?9?9?9?9?9?9?9?9?9?5Scan?5Manager?5Stat@ 10016a08     Application:scanMngr.obj
 0001:00015a40       ??_C@_0CI@ODDLHDOF@Discovery?5scans?5on?5G?5result?5hist@ 10016a40     Application:scanMngr.obj
 0001:00015a68       ??_C@_0CJ@LEEBHADH@?6Discovery?5scans?5on?5A?5result?5his@ 10016a68     Application:scanMngr.obj
 0001:00015a94       ??_C@_0CI@CCENMPIB@?6Tracking?5scans?5on?5G?5result?5hist@ 10016a94     Application:scanMngr.obj
 0001:00015abc       ??_C@_0CI@NEHAMKEH@?6Tracking?5scans?5on?5A?5result?5hist@ 10016abc     Application:scanMngr.obj
 0001:00015ae4       ??_C@_0CJ@LCAJFOMG@?6Immediate?5scans?5on?5G?5result?5his@ 10016ae4     Application:scanMngr.obj
 0001:00015b10       ??_C@_0CJ@EEDEFLAA@?6Immediate?5scans?5on?5A?5result?5his@ 10016b10     Application:scanMngr.obj
 0001:00015b3c       ??_C@_0BO@DKIHIAMD@?6Track?5fail?5count?5histogram?3?6?$AA@ 10016b3c     Application:scanMngr.obj
 0001:00015b60       ??_C@_0EN@KAKCAMAO@Frames?5received?3?$CFd?0?5frames?5disca@ 10016b60     Application:scanMngr.obj
 0001:00015bb0       ??_C@_0CG@COELLICK@?6SPS?5channels?5not?5attened?5histog@ 10016bb0     Application:scanMngr.obj
 0001:00015bd8       ??_C@_0FF@HJDHPPJK@?6SPS?5attempts?5changed?5due?5to?5DTI@ 10016bd8     Application:scanMngr.obj
 0001:00015c30       ??_C@_0CI@PKMCDONE@APs?5removed?5due?5to?5invalid?5chann@ 10016c30     Application:scanMngr.obj
 0001:00015c58       ??_C@_0BA@GIBEHGLE@Discovery?5state?$AA@ 10016c58     Application:scanMngr.obj
 0001:00015c68       ??_C@_07DMJBFPJJ@Channel?$AA@ 10016c68     Application:scanMngr.obj
 0001:00015c70       ??_C@_04NLKMNLCE@Band?$AA@ 10016c70     Application:scanMngr.obj
 0001:00015c78       ??_C@_05EBPINMCC@BSSID?$AA@ 10016c78     Application:scanMngr.obj
 0001:00015c80       ??_C@_0BH@PMONDJMM@?$CF?917s?5?$CF?94s?5?$CF?97s?5?$CF?930s?6?$AA@ 10016c80     Application:scanMngr.obj
 0001:00015c98       ??_C@_0DI@DOCLJGMF@?9?9?9?9?9?9?9?9?9?9?9?9?9?9?9?9?9?9?9?9?9?9?9?9?9?9?9?9?9?9?9?9@ 10016c98     Application:scanMngr.obj
 0001:00015cd0       ??_C@_0BM@PODBDIDK@Neighbor?5AP?5list?5is?5empty?4?6?$AA@ 10016cd0     Application:scanMngr.obj
 0001:00015cec       ??_C@_0BO@LAMGGMGC@Neighbor?5AP?5list?5for?5band?3?$CFd?6?$AA@ 10016cec     Application:scanMngr.obj
 0001:00015d0c       ??_C@_0DP@IMGJGFPL@?9?9?9?9?9?9?9?9?9?9?9?9?9?9?5Scan?5Manager?5Neig@ 10016d0c     Application:scanMngr.obj
 0001:00015d4c       ??_C@_09NMILDFJN@SSID?3?5?$CFs?6?$AA@ 10016d4c     Application:scanMngr.obj
 0001:00015d58       ??_C@_0P@OMBNJIOC@Min?5dwell?5time?$AA@ 10016d58     Application:scanMngr.obj
 0001:00015d68       ??_C@_0ED@OMFHANJL@Total?5scan?5duration?5?$CIfor?5scan?5ti@ 10016d68     Application:scanMngr.obj
 0001:00015dac       ??_C@_08DEOOAPOB@Duration?$AA@ 10016dac     Application:scanMngr.obj
 0001:00015db8       ??_C@_0BB@OAGEKNCG@Start?5time?5?$CITSF?$CJ?$AA@ 10016db8     Application:scanMngr.obj
 0001:00015dcc       ??_C@_0CD@CJIDFLAI@?$CF?94s?5?$CF?917s?5?$CF?917s?5?$CF?97s?5?$CF?916s?5?$CF?920@ 10016dcc     Application:scanMngr.obj
 0001:00015df0       ??_C@_0FJ@BFFNJNHD@?9?9?9?9?9?9?9?9?9?9?9?9?9?9?9?9?9?9?9?9?9?9?9?9?9?9?9?9?9?9?9?9@ 10016df0     Application:scanMngr.obj
 0001:00015e4c       ??_C@_0BD@OBHAMAMB@SSID?3?5?$CFs?0?5Tid?3?5?$CFd?6?$AA@ 10016e4c     Application:scanMngr.obj
 0001:00015e60       ??_C@_0BA@MAEKKLCN@?5Min?5dwell?5time?$AA@ 10016e60     Application:scanMngr.obj
 0001:00015e70       ??_C@_0P@MLKGPPND@Max?5dwell?5time?$AA@ 10016e70     Application:scanMngr.obj
 0001:00015e80       ??_C@_08JINCMPPI@TX?5level?$AA@ 10016e80     Application:scanMngr.obj
 0001:00015e8c       ??_C@_0BF@HFKBJACI@Early?5ter?4?5frame?5num?$AA@ 10016e8c     Application:scanMngr.obj
 0001:00015ea4       ??_C@_0BB@IKBLNJAA@Early?5ter?4?5event?$AA@ 10016ea4     Application:scanMngr.obj
 0001:00015eb8       ??_C@_04FDBNDHBG@Chnl?$AA@ 10016eb8     Application:scanMngr.obj
 0001:00015ec0       ??_C@_0CJ@MPEJDKGC@?$CF?94s?5?$CF?917s?5?$CF?917s?5?$CF?920s?5?$CF?98s?5?$CF?914@ 10016ec0     Application:scanMngr.obj
 0001:00015ef0       ??_C@_0GI@KBJHKLOC@?9?9?9?9?9?9?9?9?9?9?9?9?9?9?9?9?9?9?9?9?9?9?9?9?9?9?9?9?9?9?9?9@ 10016ef0     Application:scanMngr.obj
 0001:00015f58       ??_C@_0CP@DAKKBLMM@Probe?5request?5number?3?$CFd?0?5rate?3?$CFx@ 10016f58     Application:scanMngr.obj
 0001:00015f88       ??_C@_0BH@GOHGBHMJ@Invalid?5scan?5type?3?5?$CFd?6?$AA@ 10016f88     Application:scanMngr.obj
 0001:00015fa0       ??_C@_0BJ@JBNKHIFD@Scan?5type?3?5?$CFs?0?5band?3?5?$CFd?6?$AA@ 10016fa0     Application:scanMngr.obj
 0001:00015fc0       ??_C@_0FD@BIABNKFI@scanMngrDebugPrintScanCommand?4?5p@ 10016fc0     Application:scanMngr.obj
 0001:00016014       ??_C@_0BH@HPKAPFGM@Invalid?5scan?5command?4?6?$AA@ 10017014     Application:scanMngr.obj
 0001:0001602c       ??_C@_03JDANDILB@?$CFd?5?$AA@ 1001702c     Application:scanMngr.obj
 0001:00016030       ??_C@_0L@INBLCKJM@Channels?3?5?$AA@ 10017030     Application:scanMngr.obj
 0001:00016040       ??_C@_0FF@LEBLBPOD@scanMngrTracePrintBandScanPolicy@ 10017040     Application:scanMngr.obj
 0001:00016098       ??_C@_0BP@EEJPGFJ@Band?5scan?5policy?5for?5band?3?5?$CFs?6?$AA@ 10017098     Application:scanMngr.obj
 0001:000160b8       ??_C@_0ED@CINIFIEH@Maximal?5number?5of?5channels?5to?5sc@ 100170b8     Application:scanMngr.obj
 0001:000160fc       ??_C@_0BE@OPDNNCF@RSSI?5Threshold?3?5?$CFd?6?$AA@ 100170fc     Application:scanMngr.obj
 0001:00016110       ??_C@_0BC@HLEAEENM@Tracking?5method?3?6?$AA@ 10017110     Application:scanMngr.obj
 0001:00016124       ??_C@_0BD@BJOOHFEP@Discovery?5method?3?6?$AA@ 10017124     Application:scanMngr.obj
 0001:00016138       ??_C@_0BI@IFBBOGPF@Immediate?5scan?5method?3?6?$AA@ 10017138     Application:scanMngr.obj
 0001:00016150       ??_C@_0M@GBFJJEKK@5?40?5GHz?5?$CIa?$CJ?$AA@ 10017150     Application:scanMngr.obj
 0001:0001615c       ??_C@_0O@KOFEJEJK@2?44?5GHz?5?$CIb?1g?$CJ?$AA@ 1001715c     Application:scanMngr.obj
 0001:00016170       ??_C@_0EO@PKKOPCEL@scanMngrTracePrintScanPolicy?4?5sc@ 10017170     Application:scanMngr.obj
 0001:000161c0       ??_C@_0BL@ILCGHHCL@Global?5policy?5parameters?3?6?$AA@ 100171c0     Application:scanMngr.obj
 0001:000161dc       ??_C@_0DL@CNNGLLCO@Normal?5scan?5interval?3?5?$CFd?0?5deteri@ 100171dc     Application:scanMngr.obj
 0001:00016218       ??_C@_0FK@DCKGLJFG@BSS?5list?5size?3?5?$CFd?0?5numnber?5of?5tr@ 10017218     Application:scanMngr.obj
 0001:00016274       ??_C@_0DJ@OIHDMBNO@?9?9?9?9?9?9?9?9?9?9?9?9?9?9?5Scan?5Manager?5Obje@ 10017274     Application:scanMngr.obj
 0001:000162b0       ??_C@_0DP@OPKEDKMA@Continuous?5scan?5timer?5running?3?5?$CF@ 100172b0     Application:scanMngr.obj
 0001:000162f0       ??_C@_0DF@DECKGNBA@Current?5BSS?5in?5quality?3?5?$CFs?0?5AP?5T@ 100172f0     Application:scanMngr.obj
 0001:00016328       ??_C@_0DF@GELFJAJL@Continuous?5scan?5state?3?5?$CFs?0?5Immed@ 10017328     Application:scanMngr.obj
 0001:00016360       ??_C@_0FE@LPOIOHLB@Discovery?5part?3?5?$CFs?0?5G?5channels?5d@ 10017360     Application:scanMngr.obj
 0001:000163b8       ??_C@_0EI@HGNGLHBC@G?5neighbor?5APs?5discovery?5index?3?5@ 100173b8     Application:scanMngr.obj
 0001:00016400       ??_C@_0EG@KOMNIDCE@Current?5BSS?5MAC?3?5?$CF02x?3?$CF02x?3?$CF02x?3@ 10017400     Application:scanMngr.obj
 0001:00016448       ??_C@_0CG@PAKHEDEL@Last?5beacon?5DTIM?5count?3?$CFd?0?5TSF?3?$CF@ 10017448     Application:scanMngr.obj
 0001:00016470       ??_C@_0DE@GCOPIKFD@?9?9?9?9?9?9?9?9?9?9?9?9?9?9?5Scan?5Manager?5Poli@ 10017470     Application:scanMngr.obj
 0001:000164a4       ??_C@_0DG@BIPGNNP@?9?9?9?9?9?9?9?9?9?9?9?9?9?9?5Scan?5Manager?5BSS?5@ 100174a4     Application:scanMngr.obj
 0001:000164e0       ??_C@_0GE@LFHCBOLJ@New?5BSS?5found?5during?5last?5discov@ 100174e0     Application:scanMngr.obj
 0001:00016544       ??_C@_0DH@HPMNGHCM@Scan?5for?5neighbor?5APs?5only?5at?5la@ 10017544     Application:scanMngr.obj
 0001:0001657c       ??_C@_0DJ@GJJKFAIM@?9?9?9?9?9?9?9?9?9?9?9?9?9?9?5Last?5issued?5scan?5@ 1001757c     Application:scanMngr.obj
 0001:000165b8       ??_C@_0CI@IMPHAPHB@?9?9?9?9?9?9?9?9?9?9?9?9?9?9?5Handles?5?9?9?9?9?9?9?9?9?9@ 100175b8     Application:scanMngr.obj
 0001:000165e0       ??_C@_0DE@DBDPBKDE@Continuous?5scan?5timer?3?5?$CFx?0?5OS?3?$CF?5@ 100175e0     Application:scanMngr.obj
 0001:00016614       ??_C@_0DI@LANGKBPF@Report?3?5?$CFx?0?5Roaming?5manager?3?5?$CFx?0@ 10017614     Application:scanMngr.obj
 0001:0001664c       ??_C@_0CO@NGFJMEIO@pInitParams?9?$DORoamingScanning_2_4@ 1001764c     Application:scanMngr.obj
 0001:0001667c       ??_C@_07DMOCMFND@FAILURE?$AA@ 1001767c     Application:roamingMngr_autoSM.obj
 0001:00016684       ??_C@_0N@GFLOIJEB@ROAM_SUCCESS?$AA@ 10017684     Application:roamingMngr_autoSM.obj
 0001:00016694       ??_C@_0N@KCLOOKP@REQ_HANDOVER?$AA@ 10017694     Application:roamingMngr_autoSM.obj
 0001:000166a4       ??_C@_06LCPJPOPK@SELECT?$AA@ 100176a4     Application:roamingMngr_autoSM.obj
 0001:000166ac       ??_C@_04NAGNMPFG@SCAN?$AA@ 100176ac     Application:roamingMngr_autoSM.obj
 0001:000166b4       ??_C@_0N@FFHOBNHI@ROAM_TRIGGER?$AA@ 100176b4     Application:roamingMngr_autoSM.obj
 0001:000166c4       ??_C@_0L@OPGIEADC@CONNECTING?$AA@ 100176c4     Application:roamingMngr_autoSM.obj
 0001:000166d0       ??_C@_09NFCNBOIA@SELECTING?$AA@ 100176d0     Application:roamingMngr_autoSM.obj
 0001:000166dc       ??_C@_0L@ICBLEFPE@WAIT_4_CMD?$AA@ 100176dc     Application:roamingMngr_autoSM.obj
 0001:000166e8       ??_C@_0P@JMGPLEKG@WAIT_4_TRIGGER?$AA@ 100176e8     Application:roamingMngr_autoSM.obj
 0001:000166f8       ??_C@_08PAHEDIPH@COMPLETE?$AA@ 100176f8     Application:roamingMngr_manualSM.obj
 0001:00016704       ??_C@_04OOEBCMBF@FAIL?$AA@ 10017704     Application:roamingMngr_manualSM.obj
 0001:0001670c       ??_C@_07PFKAHOIJ@SUCCESS?$AA@ 1001770c     Application:roamingMngr_manualSM.obj
 0001:00016714       ??_C@_07FNNMGOPK@CONNECT?$AA@ 10017714     Application:roamingMngr_manualSM.obj
 0001:0001671c       ??_C@_08NDGPCBHI@HANDOVER?$AA@ 1001771c     Application:roamingMngr_manualSM.obj
 0001:00016728       ??_C@_09KGBNNNJO@CONNECTED?$AA@ 10017728     Application:roamingMngr_manualSM.obj
 0001:00016738       ??_C@_0EF@PNGKKOGH@sme_Create?3?5unable?5to?5create?5sca@ 10017738     Connection_Managment:sme.obj
 0001:00016780       ??_C@_0EC@EFJHEEBP@sme_Create?3?5unable?5to?5create?5SME@ 10017780     Connection_Managment:sme.obj
 0001:000167c8       ??_C@_0EL@EOKMLEBE@sme_Create?3?5unable?5to?5allocate?5m@ 100177c8     Connection_Managment:sme.obj
 0001:00016818       ??_C@_0FK@KCKOAOEF@?$CF?$CF?$CF?$CF?$CF?$CF?$CF?$CF?$CF?$CF?$CF?$CF?$CF?$CF?7SELF?5SELECT?5SUCCE@ 10017818     Connection_Managment:sme.obj
 0001:00016874       ??_C@_06NIGEBDLP@SME?5SM?$AA@ 10017874     Connection_Managment:sme.obj
 0001:0001687c       ??_C@_0CH@JEDDKGEH@?5?5?5?5?5?5?5?5?5?5?5?5?5?5?5CONN?5LOST?5?5?5?5?5?5?5?5@ 1001787c     Connection_Managment:conn.obj
 0001:000168a4       ??_C@_0BI@BNDKGPJK@?9?5IBSS?5Disconnect?5?$DN?5?$CFd?6?$AA@ 100178a4     Connection_Managment:conn.obj
 0001:000168bc       ??_C@_0DO@KEFCFBGH@FATAL?5ERROR?3?5apConn_create?$CI?$CJ?3?5Er@ 100178bc     Connection_Managment:apConn.obj
 0001:00016900       ??_C@_0FE@GDEBBBDG@FATAL?5ERROR?3?5apConn_create?$CI?$CJ?3?5Er@ 10017900     Connection_Managment:apConn.obj
 0001:00016954       ??_C@_0DF@DMMBLOAG@FATAL?5ERROR?3?5AP?5Connection?5conte@ 10017954     Connection_Managment:apConn.obj
 0001:0001698c       ??_C@_0BB@ELFNBHFD@AP?5Connection?5SM?$AA@ 1001798c     Connection_Managment:apConn.obj
 0001:000169a0       ??_C@_0DE@CGBDGAOD@?9?9?9?9?9?9?9?9?9?9?9?9?9?9?5Roaming?5Statistic@ 100179a0     Connection_Managment:apConn.obj
 0001:000169d4       ??_C@_0BA@NGEAPKPP@?9?5Low?5SNR?5?$DN?5?$CFd?6?$AA@ 100179d4     Connection_Managment:apConn.obj
 0001:000169e4       ??_C@_0BL@EPPPDGLI@?9?5Successful?5roaming?5?$DN?5?$CFd?6?$AA@ 100179e4     Connection_Managment:apConn.obj
 0001:00016a00       ??_C@_0BN@IKKHHNP@?9?5UnSuccessful?5roaming?5?$DN?5?$CFd?6?$AA@ 10017a00     Connection_Managment:apConn.obj
 0001:00016a20       ??_C@_0BK@EMADKEOI@?9?5Giving?5up?5roaming?5?$DN?5?$CFd?6?$AA@ 10017a20     Connection_Managment:apConn.obj
 0001:00016a3c       ??_C@_0CM@BAFMHPIK@?9?5Disconnect?5cmd?5from?5roaming?5ma@ 10017a3c     Connection_Managment:apConn.obj
 0001:00016a68       ??_C@_0CA@BFDMJDNM@?9?5Disconnect?5cmd?5from?5SME?5?$DN?5?$CFd?6?$AA@ 10017a68     Connection_Managment:apConn.obj
 0001:00016a88       ??_C@_0L@BMJIDLML@DISCONNECT?$AA@ 10017a88     Connection_Managment:smeSm.obj
 0001:00016a94       ??_C@_0BA@BLIJIDPG@CONNECT_FAILURE?$AA@ 10017a94     Connection_Managment:smeSm.obj
 0001:00016aa4       ??_C@_0BA@NCMLDIKM@CONNECT_SUCCESS?$AA@ 10017aa4     Connection_Managment:smeSm.obj
 0001:00016ab4       ??_C@_0O@HMLMODEM@DISCONNECTING?$AA@ 10017ab4     Connection_Managment:smeSm.obj
 0001:00016ac4       ??_C@_0N@FIKELCFI@WAIT_CONNECT?$AA@ 10017ac4     Connection_Managment:smeSm.obj
 0001:00016b2c       ??_C@_0CK@LIEMKPCM@?$CK?$CK?$CK?$CK?$CK?$CK?$CK?$CK?$CK?$CK?$CK?$CK?$CK?$CK?$CK?$CK?$CK?$CK?$CK?$CK?$CK?$CK?$CK?$CK?$CK?$CK?$CK?$CK?$CK?$CK?$CK?$CK@ 10017b2c     Connection_Managment:connInfra.obj
 0001:00016b58       ??_C@_0CK@CPFHLOGA@?$CK?$CK?$CK?$CK?$CK?$CK?$CK?$CK?$CK?$CK?$CK?$CK?5NEW?5CONNECTION?5?$CK?$CK?$CK?$CK@ 10017b58     Connection_Managment:connInfra.obj
 0001:00016b84       ??_C@_0CB@NEKCJLMB@IBSS?5selfw_merge_rsnw?$CB?$CB?$CB?$CB?$CB?$CB?$CB?$CB?$CB?$CB?6@ 10017b84     Connection_Managment:connIbss.obj
 0001:00016ba8       ??_C@_0CA@IGOCJIGP@IBSS?5rsnw_merge_rsnw?$CB?$CB?$CB?$CB?$CB?$CB?$CB?$CB?$CB?$CB?6?$AA@ 10017ba8     Connection_Managment:connIbss.obj
 0001:00016bc8       ??_C@_0CA@DFPMNLFD@IBSS?5conn_merge_conn?$CB?$CB?$CB?$CB?$CB?$CB?$CB?$CB?$CB?$CB?6?$AA@ 10017bc8     Connection_Managment:connIbss.obj
 0001:00016be8       ??_C@_0DA@HGCIPAJA@BCAST_KEY_SM?3?5Error?5in?5unloading@ 10017be8     Connection_Managment:broadcastKeySM.obj
 0001:00016c18       ??_C@_0DI@BCFNC@BCAST_KEY_SM?3?5Error?5in?5unloading@ 10017c18     Connection_Managment:broadcastKeySM.obj
 0001:00016ca8       ??_C@_0CO@GLHJHLGI@Priority?3?5?$CF?915s?0?5enabled?3?5?$CFs?0?5po@ 10017ca8     Sta_Management:PowerMgrDbgPrint.obj
 0001:00016cd8       ??_C@_0DB@NMKAOMNL@?9?9?9?9?9?9?9?9?9?9?9?9?5Power?5Manager?5Objec@ 10017cd8     Sta_Management:PowerMgrDbgPrint.obj
 0001:00016d10       ??_C@_0EN@PHDDCOJA@PS?5enabled?3?5?$CFs?0?5desired?5power?5mo@ 10017d10     Sta_Management:PowerMgrDbgPrint.obj
 0001:00016d60       ??_C@_0DA@BIDPMOGG@Default?5power?5policy?3?5?$CFss?0?5PS?5po@ 10017d60     Sta_Management:PowerMgrDbgPrint.obj
 0001:00016d90       ??_C@_0BG@PAAIDMEB@Current?5priority?3?5?$CFs?6?$AA@ 10017d90     Sta_Management:PowerMgrDbgPrint.obj
 0001:00016da8       ??_C@_0DB@FAHHGFKO@?6?9?9?9?9?9?9?9?9?9?9?9?9?5auto?5mode?5paramete@ 10017da8     Sta_Management:PowerMgrDbgPrint.obj
 0001:00016de0       ??_C@_0EI@NFILMCMB@Interval?3?5?$CFd?0?5active?5threshold?3?5@ 10017de0     Sta_Management:PowerMgrDbgPrint.obj
 0001:00016e28       ??_C@_0EJ@MLLLALAI@Beacon?5listen?5interval?3?$CFd?0?5DTIM?5@ 10017e28     Sta_Management:PowerMgrDbgPrint.obj
 0001:00016e74       ??_C@_0CD@HGGNCBGE@?9?9?9?9?9?9?9?9?9?9?9?9?5Handles?5?9?9?9?9?9?9?9?9?9?9?9@ 10017e74     Sta_Management:PowerMgrDbgPrint.obj
 0001:00016e98       ??_C@_03MKHJDLGF@hOS?$AA@  10017e98     Sta_Management:PowerMgrDbgPrint.obj
 0001:00016e9c       ??_C@_0BA@GBOAGEMM@hTrafficMonitor?$AA@ 10017e9c     Sta_Management:PowerMgrDbgPrint.obj
 0001:00016eac       ??_C@_07PDBBPKLJ@hReport?$AA@ 10017eac     Sta_Management:PowerMgrDbgPrint.obj
 0001:00016eb4       ??_C@_04CJBGBOKP@hTWD?$AA@ 10017eb4     Sta_Management:PowerMgrDbgPrint.obj
 0001:00016ebc       ??_C@_08MDEEMECF@hSiteMgr?$AA@ 10017ebc     Sta_Management:PowerMgrDbgPrint.obj
 0001:00016ec8       ??_C@_0P@PDDHMMLF@hActiveTMEvent?$AA@ 10017ec8     Sta_Management:PowerMgrDbgPrint.obj
 0001:00016ed8       ??_C@_0O@LJGCNEJD@hRetryPsTimer?$AA@ 10017ed8     Sta_Management:PowerMgrDbgPrint.obj
 0001:00016ee8       ??_C@_0BJ@ONEIPNAB@?$CF?915s?3?50x?$CFx?0?5?$CF?915s?30x?$CFx?6?$AA@ 10017ee8     Sta_Management:PowerMgrDbgPrint.obj
 0001:00016f04       ??_C@_0N@HLPILFFJ@hDozeTMEvent?$AA@ 10017f04     Sta_Management:PowerMgrDbgPrint.obj
 0001:00016f14       ??_C@_0N@FHNNONNJ@?$CF?915s?3?50x?$CFx?6?$AA@ 10017f14     Sta_Management:PowerMgrDbgPrint.obj
 0001:00017090       ??_C@_0BO@CJIHNKG@Interrogate?5TX?1RX?5parameters?6?$AA@ 10018090     Ctrl:CmdBld.obj
 0001:000170b0       ??_C@_0CI@CNADEEJO@cmdBld_Create?3?5Error?5memory?5allo@ 100180b0     Ctrl:CmdBld.obj
 0001:000170d8       ??_C@_0BC@GNAFAEJL@cmdBld_CfgIePsWmm?$AA@ 100180d8     Ctrl:CmdBldCfgIE.obj
 0001:000170ec       ??_C@_0BG@CFCCAJMB@?$CFs?5PS?5is?5on?5WMM?5mode?6?$AA@ 100180ec     Ctrl:CmdBldCfgIE.obj
 0001:00017108       ??_C@_0GG@KAKOMBGM@Entry?5?$CFd?3?5DescID?$DN?$CFd?0?5Next?$DN0x?$CFx?0?5@ 10018108     Data_Service:txCtrlBlk.obj
 0001:00017170       ??_C@_0DA@MPOPNILO@?5Tx?9Control?9Block?5Information?0?5?5@ 10018170     Data_Service:txCtrlBlk.obj
 0001:000171a0       ??_C@_0DA@HEOJDFIC@?$DN?$DN?$DN?$DN?$DN?$DN?$DN?$DN?$DN?$DN?$DN?$DN?$DN?$DN?$DN?$DN?$DN?$DN?$DN?$DN?$DN?$DN?$DN?$DN?$DN?$DN?$DN?$DN?$DN?$DN?$DN?$DN@ 100181a0     Data_Service:txCtrlBlk.obj
 0001:000171d0       ??_C@_0CI@OHNJBNPN@RxQueue_Create?$CI?$CJ?3?5?5Allocation?5fa@ 100181d0     Data_Service:RxQueue.obj
 0001:000171f8       ??_C@_0CE@JCKCPGIP@Error?5allocating?5the?5HwInit?5Modu@ 100181f8     FW_Transfer:HwInit.obj
 0001:0001721c       ??_C@_0BD@DLHGPLPP@Firmware?5running?4?6?$AA@ 1001821c     FW_Transfer:HwInit.obj
 0001:00017230       ??_C@_0CA@EAFNLBDJ@Finished?5downloading?5firmware?4?6?$AA@ 10018230     FW_Transfer:HwInit.obj
 0001:00017250       ??_C@_0BD@CHKFOGKI@FW?5download?5OK?4?4?4?6?$AA@ 10018250     FW_Transfer:HwInit.obj
 0001:00017264       ??_C@_0CD@JFFJOLIF@Firmware?5successfully?5downloaded@ 10018264     FW_Transfer:HwInit.obj
 0001:00017288       ??_C@_0CC@PCOGHMBG@Starting?5to?5download?5firmware?4?4?4@ 10018288     FW_Transfer:HwInit.obj
 0001:000172ac       ??_C@_0BN@BEDJHLHH@Cannot?5read?5ChipID?5stopping?6?$AA@ 100182ac     FW_Transfer:HwInit.obj
 0001:000172cc       ??_C@_0BC@GAOFKAEN@Chip?5ID?5is?50x?$CFX?4?6?$AA@ 100182cc     FW_Transfer:HwInit.obj
 0001:000172e0       ??_C@_0CF@DJGBHPKC@No?5Nvs?0?5Setting?5default?5MAC?5addr@ 100182e0     FW_Transfer:HwInit.obj
 0001:00017308       ??_C@_0BM@LJEBLDGO@pHwInit?9?$DOuEEPROMCurLen?3?5?$CFx?6?$AA@ 10018308     FW_Transfer:HwInit.obj
 0001:00017328       ??_C@_0EL@MAHGCJND@ERROR?3?5If?5you?5are?5not?5calibating@ 10018328     FW_Transfer:HwInit.obj
 0001:00017374       ??_C@_0DG@LOBCCPLP@NVS?5found?0?5EEPROM?5Image?5addr?$DN0x?$CF@ 10018374     FW_Transfer:HwInit.obj
 0001:000173ac       ??_C@_0BM@HAFGCDLI@Starting?5to?5process?5NVS?4?4?4?6?$AA@ 100183ac     FW_Transfer:HwInit.obj
 0001:000173c8       ??_C@_0CG@KFBHJHGL@Error?$CB?$CB?5Found?5unknown?5Chip?5Id?5?$DN?5@ 100183c8     FW_Transfer:HwInit.obj
 0001:000173f0       ??_C@_0CB@LEGLKHNG@Working?5on?5a?51273?5PG?52?40?5board?4?6@ 100183f0     FW_Transfer:HwInit.obj
 0001:00017414       ??_C@_0DC@JKNHAIDG@Error?$CB?$CB?5?51273?5PG?51?40?5is?5not?5supp@ 10018414     FW_Transfer:HwInit.obj
 0001:00017448       ??_C@_0CN@PDDEFKIA@CHIP?5VERSION?4?4?4?5set?51273?5chip?5to@ 10018448     FW_Transfer:HwInit.obj
 0001:00017478       ??_C@_0BM@HENJHFJH@Print?5FW?5event?5module?5info?6?$AA@ 10018478     FW_Transfer:FwEvent.obj
 0001:00017494       ??_C@_0BM@GMKHMHNF@?$DN?$DN?$DN?$DN?$DN?$DN?$DN?$DN?$DN?$DN?$DN?$DN?$DN?$DN?$DN?$DN?$DN?$DN?$DN?$DN?$DN?$DN?$DN?$DN?$DN?$DN?6?$AA@ 10018494     FW_Transfer:FwEvent.obj
 0001:000174b0       ??_C@_0BH@PJJAAMHH@uEventVector?5?5?5?$DN?50x?$CFx?6?$AA@ 100184b0     FW_Transfer:FwEvent.obj
 0001:000174c8       ??_C@_0BH@LBIDFKEP@uEventMask?5?5?5?5?5?$DN?50x?$CFx?6?$AA@ 100184c8     FW_Transfer:FwEvent.obj
 0001:000174e0       ??_C@_0BF@IBOOOJNH@eSmState?5?5?5?5?5?5?5?$DN?5?$CFd?6?$AA@ 100184e0     FW_Transfer:FwEvent.obj
 0001:000174f8       ??_C@_0BF@CCKHBEDF@bIntrPending?5?5?5?$DN?5?$CFd?6?$AA@ 100184f8     FW_Transfer:FwEvent.obj
 0001:00017510       ??_C@_0BF@DDPGKBEL@uNumPendHndlrs?5?$DN?5?$CFd?6?$AA@ 10018510     FW_Transfer:FwEvent.obj
 0001:00017528       ??_C@_0BF@LKHPJOIF@uFwTimeOffset?5?5?$DN?5?$CFd?6?$AA@ 10018528     FW_Transfer:FwEvent.obj
 0001:00017540       ??_C@_08NONPMDHM@FW_EVENT?$AA@ 10018540     FW_Transfer:FwEvent.obj
 0001:00017550       ??_C@_0EB@NNCGOIOI@FATAL?5ERROR?3?5fwDbg_Create?$CI?$CJ?3?5Err@ 10018550     FW_Transfer:fwDebug.obj
 0001:00017594       ??_C@_0DP@JDEBJFMF@fwDbg_SdioValidationSM?$CI?$CJ?5?9?5Read?5@ 10018594     FW_Transfer:fwDebug.obj
 0001:000175d8       ??_C@_0EA@NFDABMCN@fwDbg_SdioValidationSM?$CI?$CJ?5?9?5Write@ 100185d8     FW_Transfer:fwDebug.obj
 0001:00017618       ??_C@_0DG@BIFIGJOH@?9?9?9?9?9?5SDIO?5Validation?5Test?5Compl@ 10018618     FW_Transfer:fwDebug.obj
 0001:00017650       ??_C@_0DG@MCGOIMAH@?9?9?9?9?9?5SDIO?5Validation?5Test?5Compl@ 10018650     FW_Transfer:fwDebug.obj
 0001:00017688       ??_C@_0DP@JBNOFMAG@fwDbg_SdioValidationSM?$CI?$CJ?5?9?5eSdio@ 10018688     FW_Transfer:fwDebug.obj
 0001:000176c8       ??_C@_0DP@FODADFNI@?5fwDbg_SdioValidationSM?$CI?$CJ?5?9?5Foun@ 100186c8     FW_Transfer:fwDebug.obj
 0001:00017708       ??_C@_0DM@IPGNCFI@fwDbg_ValidateSdio?$CI?$CJ?5?9?5Allocatio@ 10018708     FW_Transfer:fwDebug.obj
 0001:00017744       ??_C@_0DN@DAGIIPNP@fwDbg_ValidateSdio?$CI?$CJ?5?9?5Allocatio@ 10018744     FW_Transfer:fwDebug.obj
 0001:00017788       ??_C@_0EG@FKNBMJAK@fwDbg_ValidateSdio?$CI?$CJ?5?9?5uNumOfLoo@ 10018788     FW_Transfer:fwDebug.obj
 0001:000177d0       ??_C@_0ED@EGIIHOPB@fwDbg_ValidateSdio?$CI?$CJ?5?9?5uTxnSize?5@ 100187d0     FW_Transfer:fwDebug.obj
 0001:00017818       ??_C@_0GD@MHOIFGKO@?9?9?9?9?9?5SDIO?5Validation?5Test?5?9?9?9?9?$DO@ 10018818     FW_Transfer:fwDebug.obj
 0001:0001787c       ??_C@_0M@NDPGGNOH@ALL?5EVENTS?5?$AA@ 1001887c     FW_Transfer:eventMbox.obj
 0001:00017888       ??_C@_0BO@BDAHHOKJ@BA_SESSION_TEAR_DOWN_EVENT_ID?$AA@ 10018888     FW_Transfer:eventMbox.obj
 0001:000178a8       ??_C@_0BG@OIJMKHAB@PERIODIC?5SCAN?5REPORT?5?$AA@ 100188a8     FW_Transfer:eventMbox.obj
 0001:000178c0       ??_C@_0BI@BJBHMGJI@PERIODIC?5SCAN?5COMPLETE?5?$AA@ 100188c0     FW_Transfer:eventMbox.obj
 0001:000178d8       ??_C@_0BM@NICCBMBO@HEALTH_CHECK_REPLY_EVENT_ID?$AA@ 100188d8     FW_Transfer:eventMbox.obj
 0001:000178f4       ??_C@_0O@CBPIJPOI@DBG_EVENT_ID?5?$AA@ 100188f4     FW_Transfer:eventMbox.obj
 0001:00017904       ??_C@_0BJ@HKHNJAAE@PLT?5RX?5CALIBR?4?5COMPLETE?5?$AA@ 10018904     FW_Transfer:eventMbox.obj
 0001:00017920       ??_C@_0BH@PGLPINOG@SOFT?5GEMINI?5AVALANCHE?5?$AA@ 10018920     FW_Transfer:eventMbox.obj
 0001:00017938       ??_C@_0BI@PFDJGLLJ@SOFT?5GEMINI?5PREDICTION?5?$AA@ 10018938     FW_Transfer:eventMbox.obj
 0001:00017950       ??_C@_0BD@OGOLJAGO@SOFT?5GEMINI?5SENSE?5?$AA@ 10018950     FW_Transfer:eventMbox.obj
 0001:00017964       ??_C@_08CHHGCPCC@RESERVED?$AA@ 10018964     FW_Transfer:eventMbox.obj
 0001:00017970       ??_C@_0O@LJCBEAOE@REGAINED?5BSS?5?$AA@ 10018970     FW_Transfer:eventMbox.obj
 0001:00017980       ??_C@_09FMEBPHBD@BSS?5LOST?5?$AA@ 10018980     FW_Transfer:eventMbox.obj
 0001:0001798c       ??_C@_0BG@KBGGHMDG@SWITCH?5CHANNEL?5CMPLT?5?$AA@ 1001898c     FW_Transfer:eventMbox.obj
 0001:000179a4       ??_C@_0M@EHICOBFH@JOIN?5CMPLT?5?$AA@ 100189a4     FW_Transfer:eventMbox.obj
 0001:000179b0       ??_C@_0BF@FMGENNNM@DISCONNECT?5COMPLETE?5?$AA@ 100189b0     FW_Transfer:eventMbox.obj
 0001:000179c8       ??_C@_0BJ@PKOOCCFH@PS?9POLL?5DELIVERY?5FAILURE?$AA@ 100189c8     FW_Transfer:eventMbox.obj
 0001:000179e4       ??_C@_0L@FLCGCMDG@PS_REPORT?5?$AA@ 100189e4     FW_Transfer:eventMbox.obj
 0001:000179f0       ??_C@_0O@DFFFLBGN@MAX?5TX?5RETRY?5?$AA@ 100189f0     FW_Transfer:eventMbox.obj
 0001:00017a00       ??_C@_0BA@NPIMFECE@SPS?5SCAN?5CMPLT?5?$AA@ 10018a00     FW_Transfer:eventMbox.obj
 0001:00017a10       ??_C@_0M@MPPOOEAJ@SCAN?5CMPLT?5?$AA@ 10018a10     FW_Transfer:eventMbox.obj
 0001:00017a1c       ??_C@_09EBKFDOFE@BSS?5LOSE?5?$AA@ 10018a1c     FW_Transfer:eventMbox.obj
 0001:00017a28       ??_C@_0BD@MBOHBFEJ@MEASUREMENT?5START?5?$AA@ 10018a28     FW_Transfer:eventMbox.obj
 0001:00017a3c       ??_C@_0BE@IPBHOEIB@RSSI?5SNR?5TRIGGER?57?5?$AA@ 10018a3c     FW_Transfer:eventMbox.obj
 0001:00017a50       ??_C@_0BE@IONFIOLG@RSSI?5SNR?5TRIGGER?56?5?$AA@ 10018a50     FW_Transfer:eventMbox.obj
 0001:00017a64       ??_C@_0BE@IMJDDAOP@RSSI?5SNR?5TRIGGER?55?5?$AA@ 10018a64     FW_Transfer:eventMbox.obj
 0001:00017a78       ??_C@_0BE@INFBFKNI@RSSI?5SNR?5TRIGGER?54?5?$AA@ 10018a78     FW_Transfer:eventMbox.obj
 0001:00017a8c       ??_C@_0BE@IIBOEMFN@RSSI?5SNR?5TRIGGER?53?5?$AA@ 10018a8c     FW_Transfer:eventMbox.obj
 0001:00017aa0       ??_C@_0BE@IJNMCGGK@RSSI?5SNR?5TRIGGER?52?5?$AA@ 10018aa0     FW_Transfer:eventMbox.obj
 0001:00017ab4       ??_C@_0BE@ILJKJIDD@RSSI?5SNR?5TRIGGER?51?5?$AA@ 10018ab4     FW_Transfer:eventMbox.obj
 0001:00017ac8       ??_C@_0BE@IKFIPCAE@RSSI?5SNR?5TRIGGER?50?5?$AA@ 10018ac8     FW_Transfer:eventMbox.obj
 0001:00017c60       ??_C@_0DD@MHJGEPMM@eventMbox_Create?3?5Error?5creating@ 10018c60     FW_Transfer:eventMbox.obj
 0001:00017c94       ??_C@_0BL@LJIPPOEJ@Print?5RX?5Xfer?5module?5info?6?$AA@ 10018c94     FW_Transfer:RxXfer.obj
 0001:00017cb0       ??_C@_0BJ@IALJNBCK@uMaxAggregPkts?5?5?5?5?5?$DN?5?$CFd?6?$AA@ 10018cb0     FW_Transfer:RxXfer.obj
 0001:00017ccc       ??_C@_0BJ@IPAIPKAB@uMaxAggregLen?5?5?5?5?5?5?$DN?5?$CFd?6?$AA@ 10018ccc     FW_Transfer:RxXfer.obj
 0001:00017ce8       ??_C@_0BJ@DGAAEGBI@FW?5counter?5?5?5?5?5?5?5?5?5?$DN?5?$CFd?6?$AA@ 10018ce8     FW_Transfer:RxXfer.obj
 0001:00017d04       ??_C@_0BJ@CKKPINH@Drv?5counter?5?5?5?5?5?5?5?5?$DN?5?$CFd?6?$AA@ 10018d04     FW_Transfer:RxXfer.obj
 0001:00017d20       ??_C@_0BJ@NJLIFDI@AvailableTxn?5?5?5?5?5?5?5?$DN?5?$CFd?6?$AA@ 10018d20     FW_Transfer:RxXfer.obj
 0001:00017d3c       ??_C@_0BJ@GBHBGICI@uCountFwEvents?5?5?5?5?5?$DN?5?$CFd?6?$AA@ 10018d3c     FW_Transfer:RxXfer.obj
 0001:00017d58       ??_C@_0BJ@JHLFFDJD@uCountPktsForward?5?5?$DN?5?$CFd?6?$AA@ 10018d58     FW_Transfer:RxXfer.obj
 0001:00017d74       ??_C@_0BJ@ELLIFLII@uCountBufPend?5?5?5?5?5?5?$DN?5?$CFd?6?$AA@ 10018d74     FW_Transfer:RxXfer.obj
 0001:00017d90       ??_C@_0BJ@CIENNMDD@uCountBufNoMem?5?5?5?5?5?$DN?5?$CFd?6?$AA@ 10018d90     FW_Transfer:RxXfer.obj
 0001:00017dac       ??_C@_0BJ@JLCGKIIP@uCountPktAggreg?91?5?5?$DN?5?$CFd?6?$AA@ 10018dac     FW_Transfer:RxXfer.obj
 0001:00017dc8       ??_C@_0BJ@KCKLJEEK@uCountPktAggreg?92?5?5?$DN?5?$CFd?6?$AA@ 10018dc8     FW_Transfer:RxXfer.obj
 0001:00017de4       ??_C@_0BJ@LFNAIAAJ@uCountPktAggreg?93?5?5?$DN?5?$CFd?6?$AA@ 10018de4     FW_Transfer:RxXfer.obj
 0001:00017e00       ??_C@_0BJ@NBLBONMA@uCountPktAggreg?94?5?5?$DN?5?$CFd?6?$AA@ 10018e00     FW_Transfer:RxXfer.obj
 0001:00017e1c       ??_C@_0BP@NDGDPBOD@Tx?9Result?5Module?5Information?3?6?$AA@ 10018e1c     FW_Transfer:txResult.obj
 0001:00017e3c       ??_C@_0BM@PBDNDKEM@uInterruptsCounter?3?5?5?5?5?5?$CFd?6?$AA@ 10018e3c     FW_Transfer:txResult.obj
 0001:00017e58       ??_C@_0BM@JKADJPF@uHostResultsCounter?3?5?5?5?5?$CFd?6?$AA@ 10018e58     FW_Transfer:txResult.obj
 0001:00017e74       ??_C@_0BP@IAFHFKNG@?$DN?$DN?$DN?$DN?$DN?$DN?$DN?$DN?$DN?$DN?$DN?$DN?$DN?$DN?$DN?$DN?$DN?$DN?$DN?$DN?$DN?$DN?$DN?$DN?$DN?$DN?$DN?$DN?$DN?6?$AA@ 10018e74     FW_Transfer:txResult.obj
 0001:00017e94       ??_C@_0BK@JGJHGNKI@uCountPktAggreg?9?$CF2d?5?$DN?5?$CFd?6?$AA@ 10018e94     FW_Transfer:txXfer.obj
 0001:00017eb0       ??_C@_0BL@FFEOKLIE@Print?5Tx?5Xfer?5module?5info?6?$AA@ 10018eb0     FW_Transfer:txXfer.obj
 0001:00017ecc       ??_C@_0BJ@FALGKOMA@uAggregMaxPkts?5?5?5?5?5?$DN?5?$CFd?6?$AA@ 10018ecc     FW_Transfer:txXfer.obj
 0001:00017ee8       ??_C@_0BJ@FPAHIFOL@uAggregMaxLen?5?5?5?5?5?5?$DN?5?$CFd?6?$AA@ 10018ee8     FW_Transfer:txXfer.obj
 0001:00017f04       ??_C@_0BJ@PAHAJEJH@uAggregPktsNum?5?5?5?5?5?$DN?5?$CFd?6?$AA@ 10018f04     FW_Transfer:txXfer.obj
 0001:00017f20       ??_C@_0BJ@NCIHCEBA@uAggregPktsLen?5?5?5?5?5?$DN?5?$CFd?6?$AA@ 10018f20     FW_Transfer:txXfer.obj
 0001:00017f3c       ??_C@_0BJ@BPLIMIEP@uPktsCntr?5?5?5?5?5?5?5?5?5?5?$DN?5?$CFd?6?$AA@ 10018f3c     FW_Transfer:txXfer.obj
 0001:00017f58       ??_C@_0BJ@FIGBEMKK@uPktsCntrTxnIndex?5?5?$DN?5?$CFd?6?$AA@ 10018f58     FW_Transfer:txXfer.obj
 0001:00017f74       ??_C@_0CM@JKFEAHGE@?6?4?4?4?4?4PowerSRV_init?5configuratio@ 10018f74     MacServices:MacServices.obj
 0001:00017fa0       ??_C@_0CA@BFJALJJ@?6?4?4?4?4?4PowerSRV_config?5failure?5?6?$AA@ 10018fa0     MacServices:MacServices.obj
 0001:00017fc0       ??_C@_0CH@NHDLAPCK@ERROR?3?5Failed?5to?5create?5Mac?5SRV?5@ 10018fc0     MacServices:MacServices.obj
 0001:00017fe8       ??_C@_0DB@IJIBBOGI@ERROR?3?5Failed?5to?5allocate?5scan?5S@ 10018fe8     MacServices:ScanSrv.obj
 0001:0001801c       ??_C@_0CI@DEHHALML@ERROR?3?5Failed?5to?5create?5scan?5SRV@ 1001901c     MacServices:ScanSrv.obj
 0001:00018048       ??_C@_0NN@MCEBOPGM@scanSrv?5bExitFromDriverMode?$DN?$CFd?0?5@ 10019048     MacServices:ScanSrv.obj
 0001:00018128       ??_C@_06HFHGPMBE@?5IDLE?6?$AA@ 10019128     MacServices:ScanSrv.obj
 0001:00018130       ??_C@_09CMBAIILD@?5PS_WAIT?6?$AA@ 10019130     MacServices:ScanSrv.obj
 0001:0001813c       ??_C@_0L@MCJLACPP@?5SCANNING?6?$AA@ 1001913c     MacServices:ScanSrv.obj
 0001:00018148       ??_C@_0L@BBINLLAN@?5STOPPING?6?$AA@ 10019148     MacServices:ScanSrv.obj
 0001:00018154       ??_C@_09PPONONA@?5PS_EXIT?6?$AA@ 10019154     MacServices:ScanSrv.obj
 0001:00018160       ??_C@_0BD@FONHBIFO@?5Invalid?5State?$DN?$CFd?6?$AA@ 10019160     MacServices:ScanSrv.obj
 0001:00018174       ??_C@_0P@FCONPIMF@scanSrv?5State?$DN?$AA@ 10019174     MacServices:ScanSrv.obj
 0001:00018184       ??_C@_0DB@GDKCKBJN@Failed?5to?5create?5measurement?5SRV@ 10019184     MacServices:MeasurementSrv.obj
 0001:000181b8       ??_C@_0DA@GEHKBNCH@ERROR?3?5Failed?5to?5create?5measurem@ 100191b8     MacServices:MeasurementSrv.obj
 0001:000181e8       ??_C@_0DG@GNLPLJH@powerSrv_create?5?9?5Error?5in?5creat@ 100191e8     MacServices:PowerSrv.obj
 0001:00018220       ??_C@_0CM@ECMKMANG@powerSrv_create?5?9?5Memory?5Allocat@ 10019220     MacServices:PowerSrv.obj
 0001:0001824c       ??_C@_0BP@ICAIDCAJ@?$CFs?$CI?$CFd?$CJ?5?9?5Error?5in?5create?5FSM?$CB?6?$AA@ 1001924c     MacServices:PowerSrvSM.obj
 0001:0001826c       ??_C@_0BC@ECBMCOFP@powerSrvSM_create?$AA@ 1001926c     MacServices:PowerSrvSM.obj
 0001:00018280       ??_C@_0CD@CEAIEJMA@?$CFs?$CI?$CFd?$CJ?5?9?5Memory?5Allocation?5Error@ 10019280     MacServices:PowerSrvSM.obj
 0001:000182cc       IPC_EventSend              100192cc f   ipc_k.obj
 0001:000183b4       os_setDebugMode            100193b4 f   osapi.obj
 0001:000183c4       os_setDebugOutputToLogger  100193c4 f   osapi.obj
 0001:00018410       os_timerCreate             10019410 f   osapi.obj
 0001:00018460       os_timerStart              10019460 f   osapi.obj
 0001:0001847c       os_timerStop               1001947c f   osapi.obj
 0001:000184a0       os_timeStampMs             100194a0 f   osapi.obj
 0001:000184c0       os_timeStampUs             100194c0 f   osapi.obj
 0001:000184e0       os_protectCreate           100194e0 f   osapi.obj
 0001:00018508       os_protectDestroy          10019508 f   osapi.obj
 0001:00018534       os_protectLock             10019534 f   osapi.obj
 0001:00018548       os_protectUnlock           10019548 f   osapi.obj
 0001:0001855c       os_StalluSec               1001955c f   osapi.obj
 0001:00018570       os_receivePacket           10019570 f   osapi.obj
 0001:00018590       os_SignalObjectCreate      10019590 f   osapi.obj
 0001:000185b0       os_SignalObjectWait        100195b0 f   osapi.obj
 0001:000185d8       os_SignalObjectSet         100195d8 f   osapi.obj
 0001:00018600       os_SignalObjectFree        10019600 f   osapi.obj
 0001:00018624       os_RequestSchedule         10019624 f   osapi.obj
 0001:0001864c       os_WakeLockTimeoutEnable   1001964c f   osapi.obj
 0001:00018654       os_WakeLock                10019654 f   osapi.obj
 0001:0001865c       os_WakeUnlock              1001965c f   osapi.obj
 0001:00018664       os_getWakeLockCounter      10019664 f   osapi.obj
 0001:00018674       os_Trace                   10019674 f   osapi.obj
 0001:000187dc       os_SetDrvThreadPriority    100197dc f   osapi.obj
 0001:000187f8       os_printf                  100197f8 f   osapi.obj
 0001:00018a5c       os_timerDestroy            10019a5c f   osapi.obj
 0001:00018a94       os_IndicateEvent           10019a94 f   osapi.obj
 0001:00018c18       os_initPrintRedirectSocket 10019c18 f   osapi.obj
 0001:00018cd8       os_setDebugOutputToTicon   10019cd8 f   osapi.obj
 0001:00018d3c       os_memoryAlloc             10019d3c f   osmemapi.obj
 0001:00018d6c       os_memoryCAlloc            10019d6c f   osmemapi.obj
 0001:00018dcc       os_memoryFree              10019dcc f   osmemapi.obj
 0001:00018dec       os_memorySet               10019dec f   osmemapi.obj
 0001:00018e10       os_memoryZero              10019e10 f   osmemapi.obj
 0001:00018e28       os_memoryCopy              10019e28 f   osmemapi.obj
 0001:00018e4c       os_memoryCompare           10019e4c f   osmemapi.obj
 0001:00018e70       os_memoryCopyFromUser      10019e70 f   osmemapi.obj
 0001:00018e98       os_memoryCopyToUser        10019e98 f   osmemapi.obj
 0001:00018ec0       DllEntry                   10019ec0 f   osentry.obj
 0001:00018f34       MiniportUnInitialize       10019f34 f   osentry.obj
 0001:00018fe8       MiniportInitialize         10019fe8 f   osentry.obj
 0001:00019380       DriverEntry                1001a380 f   osentry.obj
 0001:000194e0       MiniportHalt               1001a4e0 f   osndis.obj
 0001:00019558       MiniportReset              1001a558 f   osndis.obj
 0001:0001958c       MiniportShutdown           1001a58c f   osndis.obj
 0001:00019590       MiniportISR                1001a590 f   osndis.obj
 0001:00019700       MiniportQueryInformation   1001a700 f   osoid.obj
 0001:0001996c       MiniportSetInformation     1001a96c f   osoid.obj
 0001:00019b18       recvProcessPacketFilter    1001ab18 f   osrecv.obj
 0001:00019d44       MiniportReturnPacket       1001ad44 f   osrecv.obj
 0001:00019dd8       recvNewPacket              1001add8 f   osrecv.obj
 0001:0001a008       cmdInterpret_Create        1001b008 f   cmdinterpretoid.obj
 0001:0001a0c4       cmdInterpret_ServiceCompleteCB 1001b0c4 f   cmdinterpretoid.obj
 0001:0001a138       cmdProcessProprietaryOid   1001b138 f   cmdinterpretoid.obj
 0001:0001a5ec       cmdInterpret_CapabilityGet 1001b5ec f   cmdinterpretoid.obj
 0001:0001a758       cmdInterpret_AssociationInfoGet 1001b758 f   cmdinterpretoid.obj
 0001:0001a950       SendLoggerData             1001b950 f   cmdinterpretoid.obj
 0001:0001aa94       cmdSendAppEvent            1001ba94 f   cmdinterpretoid.obj
 0001:0001abf4       cmdInterpret_Destroy       1001bbf4 f   cmdinterpretoid.obj
 0001:0001ac58       cmdInterpret_convertAndExecute 1001bc58 f   cmdinterpretoid.obj
 0001:0001e56c       cmdInterpret_Init          1001f56c f   cmdinterpretoid.obj
 0001:0001e624       wlanDrvIf_UpdateDriverState 1001f624 f   wlandrvif.obj
 0001:0001e660       wlanDrvIf_loadFile         1001f660 f   wlandrvif.obj
 0001:0001e760       wlanDrvIf_GetFile          1001f760 f   wlandrvif.obj
 0001:0001e9ac       wlanDrvIf_SetMacAddress    1001f9ac f   wlandrvif.obj
 0001:0001e9e0       osInitTable_IniFile        1001f9e0 f   wlandrvif.obj
 0001:0001e9f4       wlanDrvIf_DriverTask       1001f9f4 f   wlandrvif.obj
 0001:0001ea60       wlanDrvIf_Start            1001fa60 f   wlandrvif.obj
 0001:0001ead8       wlanDrvIf_Stop             1001fad8 f   wlandrvif.obj
 0001:0001eb18       wlanDrvIf_Create           1001fb18 f   wlandrvif.obj
 0001:0001eb98       wlanDrvIf_Destroy          1001fb98 f   wlandrvif.obj
 0001:0001ebc0       wlanDrvIf_FreeTxPacket     1001fbc0 f   wlandrvif.obj
 0001:0001f054       MiniportMultipleSend       10020054 f   wlandrvif.obj
 0001:0001f178       wlanDrvIf_CommandDone      10020178 f   wlandrvif.obj
 0001:0001f188       wlanDrvIf_StopTx           10020188 f   wlandrvif.obj
 0001:0001f19c       wlanDrvIf_ResumeTx         1002019c f   wlandrvif.obj
 0001:0001f1b0       RxBufAlloc                 100201b0 f   RxBuf.obj
 0001:0001f1c4       RxBufFree                  100201c4 f   RxBuf.obj
 0001:0001f69c       regReadLastDbgState        1002069c f   oscommon:osRgstry.obj
 0001:0001fdd0       regReadIntegerParameter    10020dd0 f   oscommon:osRgstry.obj
 0001:00020448       regFillInitTable           10021448 f   oscommon:osRgstry.obj
 0001:000270cc       tb_trace                   100280cc f   oscommon:tracebuf.obj
 0001:00027138       tb_init                    10028138 f   oscommon:tracebuf.obj
 0001:000271e8       tb_printf                  100281e8 f   oscommon:tracebuf.obj
 0001:000272ac       cmdHndlr_Destroy           100282ac f   Ctrl_Interface:CmdHndlr.obj
 0001:000272f0       cmdHndlr_ClearQueue        100282f0 f   Ctrl_Interface:CmdHndlr.obj
 0001:00027334       cmdHndlr_InsertCommand     10028334 f   Ctrl_Interface:CmdHndlr.obj
 0001:000274ac       cmdHndlr_HandleCommands    100284ac f   Ctrl_Interface:CmdHndlr.obj
 0001:00027538       cmdHndlr_Complete          10028538 f   Ctrl_Interface:CmdHndlr.obj
 0001:000275d4       cmdHndlr_Enable            100285d4 f   Ctrl_Interface:CmdHndlr.obj
 0001:000275ec       cmdHndlr_Disable           100285ec f   Ctrl_Interface:CmdHndlr.obj
 0001:00027604       cmdHndlr_Create            10028604 f   Ctrl_Interface:CmdHndlr.obj
 0001:00027664       cmdHndlr_Init              10028664 f   Ctrl_Interface:CmdHndlr.obj
 0001:000276f8       cmdDispatch_Create         100286f8 f   Ctrl_Interface:CmdDispatcher.obj
 0001:00027744       cmdDispatch_Destroy        10028744 f   Ctrl_Interface:CmdDispatcher.obj
 0001:00027764       cmdDispatch_SetParam       10028764 f   Ctrl_Interface:CmdDispatcher.obj
 0001:00027834       cmdDispatch_GetParam       10028834 f   Ctrl_Interface:CmdDispatcher.obj
 0001:00027cf8       cmdDispatch_Init           10028cf8 f   Ctrl_Interface:CmdDispatcher.obj
 0001:00027dc8       EvHandler_Create           10028dc8 f   Ctrl_Interface:EvHandler.obj
 0001:00027e54       EvHandlerUnload            10028e54 f   Ctrl_Interface:EvHandler.obj
 0001:00027ea0       EvHandlerRegisterEvent     10028ea0 f   Ctrl_Interface:EvHandler.obj
 0001:00028048       EvHandlerUnRegisterEvent   10029048 f   Ctrl_Interface:EvHandler.obj
 0001:0002814c       EvHandlerSendEvent         1002914c f   Ctrl_Interface:EvHandler.obj
 0001:000286a8       drvMain_InsertAction       100296a8 f   Ctrl_Interface:DrvMain.obj
 0001:00028ecc       drvMain_Destroy            10029ecc f   Ctrl_Interface:DrvMain.obj
 0001:0002926c       drvMain_SmeStop            1002a26c f   Ctrl_Interface:DrvMain.obj
 0001:00029604       drvMain_Recovery           1002a604 f   Ctrl_Interface:DrvMain.obj
 0001:00029928       drvMain_Create             1002a928 f   Ctrl_Interface:DrvMain.obj
 0001:00029cd4       txDataQ_Create             1002acd4 f   Data_link:txDataQueue.obj
 0001:00029d1c       txDataQ_SetDefaults        1002ad1c f   Data_link:txDataQueue.obj
 0001:00029df8       txDataQ_Destroy            1002adf8 f   Data_link:txDataQueue.obj
 0001:00029eb0       txDataQ_ClearQueues        1002aeb0 f   Data_link:txDataQueue.obj
 0001:00029f20       txDataQ_StopAll            1002af20 f   Data_link:txDataQueue.obj
 0001:00029f2c       txDataQ_PrintModuleParams  1002af2c f   Data_link:txDataQueue.obj
 0001:0002a0cc       txDataQ_PrintQueueStatistics 1002b0cc f   Data_link:txDataQueue.obj
 0001:0002a218       txDataQ_ResetQueueStatistics 1002b218 f   Data_link:txDataQueue.obj
 0001:0002a3a0       txDataQ_Init               1002b3a0 f   Data_link:txDataQueue.obj
 0001:0002a540       txDataQ_InsertPacket       1002b540 f   Data_link:txDataQueue.obj
 0001:0002a748       txDataQ_StopQueue          1002b748 f   Data_link:txDataQueue.obj
 0001:0002a78c       txDataQ_UpdateBusyMap      1002b78c f   Data_link:txDataQueue.obj
 0001:0002a7d4       txDataQ_WakeAll            1002b7d4 f   Data_link:txDataQueue.obj
 0001:0002a7ec       txCtrl_Create              1002b7ec f   Data_link:txCtrl.obj
 0001:0002a838       txCtrl_Unload              1002b838 f   Data_link:txCtrl.obj
 0001:0002a880       txCtrl_AllocPacketBuffer   1002b880 f   Data_link:txCtrl.obj
 0001:0002a964       txCtrl_FreePacket          1002b964 f   Data_link:txCtrl.obj
 0001:0002aa1c       txCtrl_BuildDataPktHdr     1002ba1c f   Data_link:txCtrl.obj
 0001:0002b38c       txCtrl_NotifyFwReset       1002c38c f   Data_link:txCtrl.obj
 0001:0002b3f0       txCtrl_XmitData            1002c3f0 f   Data_link:txCtrl.obj
 0001:0002b648       txCtrl_XmitMgmt            1002c648 f   Data_link:txCtrl.obj
 0001:0002b830       txCtrl_UpdateQueuesMapping 1002c830 f   Data_link:txCtrl.obj
 0001:0002ba60       txCtrl_Init                1002ca60 f   Data_link:txCtrl.obj
 0001:0002bbe0       txCtrl_SetDefaults         1002cbe0 f   Data_link:txCtrl.obj
 0001:0002bf04       txCtrlParams_resetCounters 1002cf04 f   Data_link:txCtrlParams.obj
 0001:0002bf40       txCtrlParams_RegNotif      1002cf40 f   Data_link:txCtrlParams.obj
 0001:0002bf74       txCtrlParams_AddToNotifMask 1002cf74 f   Data_link:txCtrlParams.obj
 0001:0002bf98       txCtrlParams_UnRegNotif    1002cf98 f   Data_link:txCtrlParams.obj
 0001:0002bfbc       txCtrlParams_setAdmissionCtrlParams 1002cfbc f   Data_link:txCtrlParams.obj
 0001:0002c0ac       txCtrlParams_getParam      1002d0ac f   Data_link:txCtrlParams.obj
 0001:0002c21c       txCtrlParams_setParam      1002d21c f   Data_link:txCtrlParams.obj
 0001:0002c404       txCtrlParams_setBssId      1002d404 f   Data_link:txCtrlParams.obj
 0001:0002c438       txCtrlParams_setBssType    1002d438 f   Data_link:txCtrlParams.obj
 0001:0002c440       txCtrlParams_setQosHeaderConverMode 1002d440 f   Data_link:txCtrlParams.obj
 0001:0002c454       txCtrlParams_SetHtControl  1002d454 f   Data_link:txCtrlParams.obj
 0001:0002c468       txCtrlParams_setCurrentPrivacyInvokedMode 1002d468 f   Data_link:txCtrlParams.obj
 0001:0002c470       txCtrlParams_setEapolEncryptionStatus 1002d470 f   Data_link:txCtrlParams.obj
 0001:0002c478       txCtrlParams_setEncryptionFieldSizes 1002d478 f   Data_link:txCtrlParams.obj
 0001:0002c480       txCtrlParams_getCurrentEncryptionInfo 1002d480 f   Data_link:txCtrlParams.obj
 0001:0002c494       txCtrlParams_GetTxRate     1002d494 f   Data_link:txCtrlParams.obj
 0001:0002c49c       txCtrlParams_setAcAdmissionStatus 1002d49c f   Data_link:txCtrlParams.obj
 0001:0002c4b8       txCtrlParams_setAcMsduLifeTime 1002d4b8 f   Data_link:txCtrlParams.obj
 0001:0002c4c4       txCtrlParams_setAcAckPolicy 1002d4c4 f   Data_link:txCtrlParams.obj
 0001:0002c4d0       txCtrlParams_updateMgmtRateAttributes 1002d4d0 f   Data_link:txCtrlParams.obj
 0001:0002c4dc       txCtrlParams_updateDataRateAttributes 1002d4dc f   Data_link:txCtrlParams.obj
 0001:0002c4e8       txCtrlParams_updateTxSessionCount 1002d4e8 f   Data_link:txCtrlParams.obj
 0001:0002c4f8       txCtrlParams_printInfo     1002d4f8 f   Data_link:txCtrlParams.obj
 0001:0002c6d0       txCtrlParams_printDebugCounters 1002d6d0 f   Data_link:txCtrlParams.obj
 0001:0002c988       txCtrlParams_resetDbgCounters 1002d988 f   Data_link:txCtrlParams.obj
 0001:0002c9a8       rxData_create              1002d9a8 f   Data_link:rx.obj
 0001:0002ca14       rxData_unLoad              1002da14 f   Data_link:rx.obj
 0001:0002ca6c       rxData_stop                1002da6c f   Data_link:rx.obj
 0001:0002d3d4       rxData_RegNotif            1002e3d4 f   Data_link:rx.obj
 0001:0002d408       rxData_AddToNotifMask      1002e408 f   Data_link:rx.obj
 0001:0002d42c       rxData_UnRegNotif          1002e42c f   Data_link:rx.obj
 0001:0002dc80       rxData_resetCounters       1002ec80 f   Data_link:rx.obj
 0001:0002dca0       rxData_resetDbgCounters    1002eca0 f   Data_link:rx.obj
 0001:0002dcc0       rxData_printRxCounters     1002ecc0 f   Data_link:rx.obj
 0001:0002dd94       rxData_printRxBlock        1002ed94 f   Data_link:rx.obj
 0001:0002de7c       rxData_stopRxThroughputTimer 1002ee7c f   Data_link:rx.obj
 0001:0002def8       rxData_printRxDataFilter   1002eef8 f   Data_link:rx.obj
 0001:0002dfc8       rxData_SetReAuthInProgress 1002efc8 f   Data_link:rx.obj
 0001:0002e030       rxData_IsReAuthInProgress  1002f030 f   Data_link:rx.obj
 0001:0002e038       rxData_StopReAuthActiveTimer 1002f038 f   Data_link:rx.obj
 0001:0002e09c       rxData_ReauthDisablePriority 1002f09c f   Data_link:rx.obj
 0001:0002e0e8       rxData_DisableFilter       1002f0e8 f   Data_link:rx.obj
 0001:0002e1c8       rxData_EnableFilter        1002f1c8 f   Data_link:rx.obj
 0001:0002e31c       rxData_SetSuspendFilter    1002f31c f   Data_link:rx.obj
 0001:0002e3e0       rxData_SetActiveFilter     1002f3e0 f   Data_link:rx.obj
 0001:0002e4a8       rxData_SetDefaults         1002f4a8 f   Data_link:rx.obj
 0001:0002e730       rxData_getParam            1002f730 f   Data_link:rx.obj
 0001:0002e878       rxData_setParam            1002f878 f   Data_link:rx.obj
 0001:0002ee60       rxData_startRxThroughputTimer 1002fe60 f   Data_link:rx.obj
 0001:0002f254       rxData_receivePacketFromWlan 10030254 f   Data_link:rx.obj
 0001:0002f900       rxData_init                10030900 f   Data_link:rx.obj
 0001:0002fa80       ctrlData_create            10030a80 f   Data_link:Ctrl.obj
 0001:0002fad4       ctrlData_init              10030ad4 f   Data_link:Ctrl.obj
 0001:0002fb84       ctrlData_unLoad            10030b84 f   Data_link:Ctrl.obj
 0001:0002fbb0       ctrlData_getParamProtType  10030bb0 f   Data_link:Ctrl.obj
 0001:0002fbc0       ctrlData_getParamPreamble  10030bc0 f   Data_link:Ctrl.obj
 0001:0002fbd0       ctrlData_getParamBssid     10030bd0 f   Data_link:Ctrl.obj
 0001:0002fc78       ctrlData_getParamMacAddr   10030c78 f   Data_link:Ctrl.obj
 0001:0002fcc8       ctrlData_getParam          10030cc8 f   Data_link:Ctrl.obj
 0001:0003025c       ctrlData_stop              1003125c f   Data_link:Ctrl.obj
 0001:000302c8       ctrlData_updateTxRateAttributes 100312c8 f   Data_link:Ctrl.obj
 0001:00030324       ctrlData_getCurrBssTypeAndCurrBssId 10031324 f   Data_link:Ctrl.obj
 0001:00030360       ctrlData_ToggleTrafficIntensityNotification 10031360 f   Data_link:Ctrl.obj
 0001:00030518       ctrlData_printTxParameters 10031518 f   Data_link:Ctrl.obj
 0001:00030560       ctrlData_printCtrlBlock    10031560 f   Data_link:Ctrl.obj
 0001:00030a28       ctrlData_SetDefaults       10031a28 f   Data_link:Ctrl.obj
 0001:00030b7c       ctrlData_setParam          10031b7c f   Data_link:Ctrl.obj
 0001:0003104c       txPort_create              1003204c f   Data_link:txPort.obj
 0001:00031088       txPort_unLoad              10032088 f   Data_link:txPort.obj
 0001:000310a8       txPort_init                100320a8 f   Data_link:txPort.obj
 0001:0003123c       txPort_enableData          1003223c f   Data_link:txPort.obj
 0001:00031254       txPort_enableMgmt          10032254 f   Data_link:txPort.obj
 0001:0003126c       txPort_suspendTx           1003226c f   Data_link:txPort.obj
 0001:00031284       txPort_resumeTx            10032284 f   Data_link:txPort.obj
 0001:0003129c       txMgmtQ_GetConnState       1003229c f   Data_link:txMgmtQueue.obj
 0001:000312a4       txMgmtQ_Create             100322a4 f   Data_link:txMgmtQueue.obj
 0001:000312ec       txMgmtQ_Destroy            100322ec f   Data_link:txMgmtQueue.obj
 0001:00031384       txMgmtQ_ClearQueues        10032384 f   Data_link:txMgmtQueue.obj
 0001:000313e0       txMgmtQ_StopAll            100323e0 f   Data_link:txMgmtQueue.obj
 0001:000314b8       txMgmtQ_PrintModuleParams  100324b8 f   Data_link:txMgmtQueue.obj
 0001:000315d0       txMgmtQ_PrintQueueStatistics 100325d0 f   Data_link:txMgmtQueue.obj
 0001:00031708       txMgmtQ_ResetQueueStatistics 10032708 f   Data_link:txMgmtQueue.obj
 0001:00031728       txMgmtQ_StopQueue          10032728 f   Data_link:txMgmtQueue.obj
 0001:00031aa8       txMgmtQ_Xmit               10032aa8 f   Data_link:txMgmtQueue.obj
 0001:00031b6c       txMgmtQ_QueuesNotEmpty     10032b6c f   Data_link:txMgmtQueue.obj
 0001:00031b80       txMgmtQ_UpdateBusyMap      10032b80 f   Data_link:txMgmtQueue.obj
 0001:00031bf4       txMgmtQ_WakeAll            10032bf4 f   Data_link:txMgmtQueue.obj
 0001:00031c5c       txMgmtQ_SetConnState       10032c5c f   Data_link:txMgmtQueue.obj
 0001:00031d00       txMgmtQ_Init               10032d00 f   Data_link:txMgmtQueue.obj
 0001:00031e60       TrafficMonitor_Stop        10032e60 f   Data_link:TrafficMonitor.obj
 0001:00031ec4       TrafficMonitor_Destroy     10032ec4 f   Data_link:TrafficMonitor.obj
 0001:00031f30       TrafficMonitor_SetRstCondition 10032f30 f   Data_link:TrafficMonitor.obj
 0001:0003205c       TrafficMonitor_CleanRelatedRef 1003305c f   Data_link:TrafficMonitor.obj
 0001:000323ac       TrafficMonitor_create      100333ac f   Data_link:TrafficMonitor.obj
 0001:00032534       TrafficMonitor_GetFrameBandwidth 10033534 f   Data_link:TrafficMonitor.obj
 0001:0003260c       TrafficMonitor_Event       1003360c f   Data_link:TrafficMonitor.obj
 0001:0003283c       TrafficMonitor_Init        1003383c f   Data_link:TrafficMonitor.obj
 0001:00032904       TrafficMonitor_Start       10033904 f   Data_link:TrafficMonitor.obj
 0001:00032988       TrafficMonitor_RegEvent    10033988 f   Data_link:TrafficMonitor.obj
 0001:00032ad8       TrafficMonitor_StopEventNotif 10033ad8 f   Data_link:TrafficMonitor.obj
 0001:00032af8       TrafficMonitor_StartEventNotif 10033af8 f   Data_link:TrafficMonitor.obj
 0001:00032b18       TrafficMonitor_UnregEvent  10033b18 f   Data_link:TrafficMonitor.obj
 0001:00032b6c       txDataClsfr_Config         10033b6c f   Data_link:TxDataClsfr.obj
 0001:00032f38       txDataClsfr_ClassifyTxPacket 10033f38 f   Data_link:TxDataClsfr.obj
 0001:000333d4       txDataClsfr_InsertClsfrEntry 100343d4 f   Data_link:TxDataClsfr.obj
 0001:000338a0       txDataClsfr_RemoveClsfrEntry 100348a0 f   Data_link:TxDataClsfr.obj
 0001:00033ce8       txDataClsfr_SetClsfrType   10034ce8 f   Data_link:TxDataClsfr.obj
 0001:00033db0       txDataClsfr_GetClsfrType   10034db0 f   Data_link:TxDataClsfr.obj
 0001:00033dc0       txDataClsfr_PrintClsfrTable 10034dc0 f   Data_link:TxDataClsfr.obj
 0001:00033fa8       List_create                10034fa8 f   Data_link:GeneralUtil.obj
 0001:000340a4       List_Destroy               100350a4 f   Data_link:GeneralUtil.obj
 0001:00034120       List_AllocElement          10035120 f   Data_link:GeneralUtil.obj
 0001:0003419c       List_FreeElement           1003519c f   Data_link:GeneralUtil.obj
 0001:00034210       List_GetFirst              10035210 f   Data_link:GeneralUtil.obj
 0001:00034270       List_GetNext               10035270 f   Data_link:GeneralUtil.obj
 0001:000342d4       DistributorMgr_Create      100352d4 f   Data_link:GeneralUtil.obj
 0001:00034330       DistributorMgr_Destroy     10035330 f   Data_link:GeneralUtil.obj
 0001:00034368       DistributorMgr_Reg         10035368 f   Data_link:GeneralUtil.obj
 0001:000343c0       DistributorMgr_AddToMask   100353c0 f   Data_link:GeneralUtil.obj
 0001:000343ec       DistributorMgr_UnReg       100353ec f   Data_link:GeneralUtil.obj
 0001:00034410       DistributorMgr_EventCall   10035410 f   Data_link:GeneralUtil.obj
 0001:00034478       currBSS_create             10035478 f   Sta_Management:currBss.obj
 0001:000344b0       currBSS_unload             100354b0 f   Sta_Management:currBss.obj
 0001:000344d0       currBSS_init               100354d0 f   Sta_Management:currBss.obj
 0001:0003455c       currBSS_getRoamingParams   1003555c f   Sta_Management:currBss.obj
 0001:0003476c       currBSS_restartRssiCounting 1003576c f   Sta_Management:currBss.obj
 0001:00034778       currBSS_getBssInfo         10035778 f   Sta_Management:currBss.obj
 0001:00034780       currBSS_probRespReceivedCallb 10035780 f   Sta_Management:currBss.obj
 0001:00034894       currBSS_beaconReceivedCallb 10035894 f   Sta_Management:currBss.obj
 0001:00034bd8       currBSS_updateConnectedState 10035bd8 f   Sta_Management:currBss.obj
 0001:00035048       currBSS_RegisterTriggerEvent 10036048 f   Sta_Management:currBss.obj
 0001:000353b0       currBss_registerBssLossEvent 100363b0 f   Sta_Management:currBss.obj
 0001:00035468       currBSS_setParam           10036468 f   Sta_Management:currBss.obj
 0001:000356d8       currBSS_getParam           100366d8 f   Sta_Management:currBss.obj
 0001:000356e8       currBSS_updateRoamingTriggers 100366e8 f   Sta_Management:currBss.obj
 0001:000358d0       currBSS_SGconfigureBSSLoss 100368d0 f   Sta_Management:currBss.obj
 0001:000359ac       currBSS_SetDefaults        100369ac f   Sta_Management:currBss.obj
 0001:00035d0c       healthMonitor_create       10036d0c f   Sta_Management:healthMonitor.obj
 0001:00035d48       healthMonitor_SetDefaults  10036d48 f   Sta_Management:healthMonitor.obj
 0001:00035de0       healthMonitor_unload       10036de0 f   Sta_Management:healthMonitor.obj
 0001:00035e18       healthMonitor_setState     10036e18 f   Sta_Management:healthMonitor.obj
 0001:00035e20       healthMonitor_PerformTest  10036e20 f   Sta_Management:healthMonitor.obj
 0001:00035fb4       healthMonitor_printFailureEvents 10036fb4 f   Sta_Management:healthMonitor.obj
 0001:00036044       healthMonitor_SetParam     10037044 f   Sta_Management:healthMonitor.obj
 0001:00036128       healthMonitor_GetParam     10037128 f   Sta_Management:healthMonitor.obj
 0001:00036130       healthMonitor_sendFailureEvent 10037130 f   Sta_Management:healthMonitor.obj
 0001:00036214       healthMonitor_init         10037214 f   Sta_Management:healthMonitor.obj
 0001:000362ac       PowerMgr_create            100372ac f   Sta_Management:PowerMgr.obj
 0001:00036304       PowerMgr_destroy           10037304 f   Sta_Management:PowerMgr.obj
 0001:00036350       PowerMgr_init              10037350 f   Sta_Management:PowerMgr.obj
 0001:000363b0       powerMgr_getParam          100373b0 f   Sta_Management:PowerMgr.obj
 0001:000368e8       PowerMgr_getReAuthActivePriority 100378e8 f   Sta_Management:PowerMgr.obj
 0001:00036dc8       PowerMgr_notifyFWReset     10037dc8 f   Sta_Management:PowerMgr.obj
 0001:000370bc       PowerMgr_startPS           100380bc f   Sta_Management:PowerMgr.obj
 0001:0003729c       PowerMgr_setPowerMode      1003829c f   Sta_Management:PowerMgr.obj
 0001:00037424       powerMgr_setParam          10038424 f   Sta_Management:PowerMgr.obj
 0001:00037648       PowerMgr_stopPS            10038648 f   Sta_Management:PowerMgr.obj
 0001:000378e8       PowerMgr_SetDefaults       100388e8 f   Sta_Management:PowerMgr.obj
 0001:00037d04       qosMngr_init               10038d04 f   Sta_Management:qosMngr.obj
 0001:00037e34       qosMngr_connect            10038e34 f   Sta_Management:qosMngr.obj
 0001:00038034       qosMngr_SetBaPolicies      10039034 f   Sta_Management:qosMngr.obj
 0001:00038118       qosMngr_getParamsActiveProtocol 10039118 f   Sta_Management:qosMngr.obj
 0001:0003852c       qosMngr_GetWmeEnableFlag   1003952c f   Sta_Management:qosMngr.obj
 0001:0003853c       qosMngr_selectActiveProtocol 1003953c f   Sta_Management:qosMngr.obj
 0001:000385bc       qosMngr_setAcPsDeliveryMode 100395bc f   Sta_Management:qosMngr.obj
 0001:000389d0       qosMngr_UpdatePsTraffic    100399d0 f   Sta_Management:qosMngr.obj
 0001:00038cf4       qosMngr_sendUnexpectedTSPECResponseEvent 10039cf4 f   Sta_Management:qosMngr.obj
 0001:00038d7c       qosMngr_setAdmissionInfo   10039d7c f   Sta_Management:qosMngr.obj
 0001:00039274       QosMngr_receiveActionFrames 1003a274 f   Sta_Management:qosMngr.obj
 0001:00039690       qosMngr_destroy            1003a690 f   Sta_Management:qosMngr.obj
 0001:000396c4       qosMngr_SetDefaults        1003a6c4 f   Sta_Management:qosMngr.obj
 0001:00039a6c       qosMngr_disconnect         1003aa6c f   Sta_Management:qosMngr.obj
 0001:00039ccc       qosMngr_getParams          1003accc f   Sta_Management:qosMngr.obj
 0001:0003a4ac       qosMngr_assocReqBuild      1003b4ac f   Sta_Management:qosMngr.obj
 0001:0003a504       qosMngr_checkTspecRenegResults 1003b504 f   Sta_Management:qosMngr.obj
 0001:0003a6b4       qosMngr_updateIEinfo       1003b6b4 f   Sta_Management:qosMngr.obj
 0001:0003ab98       qosMngr_requestAdmission   1003bb98 f   Sta_Management:qosMngr.obj
 0001:0003b018       qosMngr_deleteAdmission    1003c018 f   Sta_Management:qosMngr.obj
 0001:0003b258       qosMngr_create             1003c258 f   Sta_Management:qosMngr.obj
 0001:0003b2c0       qosMngr_setParams          1003c2c0 f   Sta_Management:qosMngr.obj
 0001:0003bc18       qosMngr_setSite            1003cc18 f   Sta_Management:qosMngr.obj
 0001:0003be48       mlme_create                1003ce48 f   Sta_Management:mlmeSm.obj
 0001:0003beb4       mlme_unload                1003ceb4 f   Sta_Management:mlmeSm.obj
 0001:0003bee8       mlme_SetDefaults           1003cee8 f   Sta_Management:mlmeSm.obj
 0001:0003bef4       mlme_setParam              1003cef4 f   Sta_Management:mlmeSm.obj
 0001:0003c01c       mlme_getParam              1003d01c f   Sta_Management:mlmeSm.obj
 0001:0003c0d0       mlme_smEvent               1003d0d0 f   Sta_Management:mlmeSm.obj
 0001:0003c1b4       mlme_smStartIdle           1003d1b4 f   Sta_Management:mlmeSm.obj
 0001:0003c1c8       mlme_smAuthSuccessAuthWait 1003d1c8 f   Sta_Management:mlmeSm.obj
 0001:0003c1f4       mlme_smNOP                 1003d1f4 f   Sta_Management:mlmeSm.obj
 0001:0003c1fc       mlme_smActionUnexpected    1003d1fc f   Sta_Management:mlmeSm.obj
 0001:0003c204       mlme_start                 1003d204 f   Sta_Management:mlmeSm.obj
 0001:0003c290       mlme_stop                  1003d290 f   Sta_Management:mlmeSm.obj
 0001:0003c2dc       mlme_reportAuthStatus      1003d2dc f   Sta_Management:mlmeSm.obj
 0001:0003c3ac       mlme_reportAssocStatus     1003d3ac f   Sta_Management:mlmeSm.obj
 0001:0003c400       mlme_smAuthFailAuthWait    1003d400 f   Sta_Management:mlmeSm.obj
 0001:0003c42c       mlme_smStopAssocWait       1003d42c f   Sta_Management:mlmeSm.obj
 0001:0003c4a8       mlme_smAssocSuccessAssocWait 1003d4a8 f   Sta_Management:mlmeSm.obj
 0001:0003c4d4       mlme_smAssocFailAssocWait  1003d4d4 f   Sta_Management:mlmeSm.obj
 0001:0003c500       mlme_smStopAssoc           1003d500 f   Sta_Management:mlmeSm.obj
 0001:0003c57c       mlme_init                  1003d57c f   Sta_Management:mlmeSm.obj
 0001:0003c818       scanCncnApp_SetParam       1003d818 f   Sta_Management:ScanCncnApp.obj
 0001:0003cc88       scanCncnApp_GetParam       1003dc88 f   Sta_Management:ScanCncnApp.obj
 0001:0003cdc4       scanCncn_AppScanResultCB   1003ddc4 f   Sta_Management:ScanCncnApp.obj
 0001:0003d008       siteMgr_setTemporaryTxPower 1003e008 f   Sta_Management:siteMgr.obj
 0001:0003d090       siteMgr_init               1003e090 f   Sta_Management:siteMgr.obj
 0001:0003d158       siteMgr_getParamWSC        1003e158 f   Sta_Management:siteMgr.obj
 0001:0003d170       siteMgr_removeSelfSite     1003e170 f   Sta_Management:siteMgr.obj
 0001:0003d260       siteMgr_start              1003e260 f   Sta_Management:siteMgr.obj
 0001:0003d2a0       siteMgr_stop               1003e2a0 f   Sta_Management:siteMgr.obj
 0001:0003d2a8       siteMgr_isCurrentBand24    1003e2a8 f   Sta_Management:siteMgr.obj
 0001:0003d2bc       removeEldestSite           1003e2bc f   Sta_Management:siteMgr.obj
 0001:0003d57c       siteMgr_UpdatHtParams      1003e57c f   Sta_Management:siteMgr.obj
 0001:0003dfd8       siteMgr_printPrimarySiteDesc 1003efd8 f   Sta_Management:siteMgr.obj
 0001:0003ea9c       pbccAlgorithm              1003fa9c f   Sta_Management:siteMgr.obj
 0001:0003eb4c       siteMgr_assocReport        1003fb4c f   Sta_Management:siteMgr.obj
 0001:0003ebec       siteMgr_setWMEParamsSite   1003fbec f   Sta_Management:siteMgr.obj
 0001:0003ec98       siteMgr_getWMEParamsSite   1003fc98 f   Sta_Management:siteMgr.obj
 0001:0003ecc8       siteMgr_updateRates        1003fcc8 f   Sta_Management:siteMgr.obj
 0001:0003edf8       siteMgr_SelectRateMatch    1003fdf8 f   Sta_Management:siteMgr.obj
 0001:0003f098       siteMgr_saveProbeRespBuffer 10040098 f   Sta_Management:siteMgr.obj
 0001:0003f230       siteMgr_saveBeaconBuffer   10040230 f   Sta_Management:siteMgr.obj
 0001:0003f2f8       siteMgr_IsERP_Needed       100402f8 f   Sta_Management:siteMgr.obj
 0001:0003f400       siteMgr_disSelectSite      10040400 f   Sta_Management:siteMgr.obj
 0001:0003f4e4       siteMgr_create             100404e4 f   Sta_Management:siteMgr.obj
 0001:0003f574       siteMgr_unLoad             10040574 f   Sta_Management:siteMgr.obj
 0001:0003f59c       siteMgr_getParam           1004059c f   Sta_Management:siteMgr.obj
 0001:000400fc       siteMgr_join               100410fc f   Sta_Management:siteMgr.obj
 0001:0004048c       siteMgr_bandParamsConfig   1004148c f   Sta_Management:siteMgr.obj
 0001:000404d0       siteMgr_ConfigRate         100414d0 f   Sta_Management:siteMgr.obj
 0001:00040644       siteMgr_SetDefaults        10041644 f   Sta_Management:siteMgr.obj
 0001:00040b90       siteMgr_setParam           10041b90 f   Sta_Management:siteMgr.obj
 0001:00041fe8       siteMgr_changeBandParams   10042fe8 f   Sta_Management:siteMgr.obj
 0001:00042090       siteMgr_IbssMerge          10043090 f   Sta_Management:siteMgr.obj
 0001:0004222c       siteMgr_updateSite         1004322c f   Sta_Management:siteMgr.obj
 0001:00042700       siteMgr_overwritePrimarySite 10043700 f   Sta_Management:siteMgr.obj
 0001:00042a8c       siteMgr_CopyToPrimarySite  10043a8c f   Sta_Management:siteMgr.obj
 0001:00042c48       assoc_create               10043c48 f   Sta_Management:assocSM.obj
 0001:00042cb4       assoc_unload               10043cb4 f   Sta_Management:assocSM.obj
 0001:00042d40       assoc_SetDefaults          10043d40 f   Sta_Management:assocSM.obj
 0001:00042dc4       assoc_setDisAssocFlag      10043dc4 f   Sta_Management:assocSM.obj
 0001:00042dd0       assoc_getParam             10043dd0 f   Sta_Management:assocSM.obj
 0001:00043084       assoc_setParam             10044084 f   Sta_Management:assocSM.obj
 0001:000430d4       assoc_smEvent              100440d4 f   Sta_Management:assocSM.obj
 0001:000431bc       assoc_smActionUnexpected   100441bc f   Sta_Management:assocSM.obj
 0001:000431c4       assoc_smIncRetry           100441c4 f   Sta_Management:assocSM.obj
 0001:0004321c       assoc_smCapBuild           1004421c f   Sta_Management:assocSM.obj
 0001:00043474       assoc_smSSIDBuild          10044474 f   Sta_Management:assocSM.obj
 0001:00043544       assoc_smRatesBuild         10044544 f   Sta_Management:assocSM.obj
 0001:00043790       assoc_powerCapabilityBuild 10044790 f   Sta_Management:assocSM.obj
 0001:0004381c       assoc_smRequestBuild       1004481c f   Sta_Management:assocSM.obj
 0001:00043c04       assoc_saveAssocRespMessage 10044c04 f   Sta_Management:assocSM.obj
 0001:00043ca8       assoc_saveAssocReqMessage  10044ca8 f   Sta_Management:assocSM.obj
 0001:00043d4c       assoc_start                10044d4c f   Sta_Management:assocSM.obj
 0001:00043d84       reassoc_start              10044d84 f   Sta_Management:assocSM.obj
 0001:00043db4       assoc_stop                 10044db4 f   Sta_Management:assocSM.obj
 0001:00043de4       assoc_recv                 10044de4 f   Sta_Management:assocSM.obj
 0001:00044298       assoc_smTimeout            10045298 f   Sta_Management:assocSM.obj
 0001:000442c0       assoc_smStopWait           100452c0 f   Sta_Management:assocSM.obj
 0001:000442e8       assoc_smSuccessWait        100452e8 f   Sta_Management:assocSM.obj
 0001:0004431c       assoc_smFailureWait        1004531c f   Sta_Management:assocSM.obj
 0001:000443a0       assoc_smMaxRetryWait       100453a0 f   Sta_Management:assocSM.obj
 0001:000443d8       assoc_smSendAssocReq       100453d8 f   Sta_Management:assocSM.obj
 0001:000444b4       assoc_smStopAssoc          100454b4 f   Sta_Management:assocSM.obj
 0001:000444fc       assoc_smStartTimer         100454fc f   Sta_Management:assocSM.obj
 0001:0004453c       assoc_smStartIdle          1004553c f   Sta_Management:assocSM.obj
 0001:0004456c       assoc_smTimeoutWait        1004556c f   Sta_Management:assocSM.obj
 0001:00044590       assoc_init                 10045590 f   Sta_Management:assocSM.obj
 0001:00044798       auth_create                10045798 f   Sta_Management:authSm.obj
 0001:00044800       auth_unload                10045800 f   Sta_Management:authSm.obj
 0001:00044888       auth_init                  10045888 f   Sta_Management:authSm.obj
 0001:000448b8       auth_SetDefaults           100458b8 f   Sta_Management:authSm.obj
 0001:0004494c       auth_start                 1004594c f   Sta_Management:authSm.obj
 0001:00044a4c       auth_stop                  10045a4c f   Sta_Management:authSm.obj
 0001:00044ae4       auth_recv                  10045ae4 f   Sta_Management:authSm.obj
 0001:00044b64       auth_getParam              10045b64 f   Sta_Management:authSm.obj
 0001:00044bd8       auth_setParam              10045bd8 f   Sta_Management:authSm.obj
 0001:00044c88       auth_smTimeout             10045c88 f   Sta_Management:authSm.obj
 0001:00044ce4       auth_smMsgBuild            10045ce4 f   Sta_Management:authSm.obj
 0001:00044d80       scanCncn_Destroy           10045d80 f   Sta_Management:ScanCncn.obj
 0001:00044dcc       scanCncn_Init              10045dcc f   Sta_Management:ScanCncn.obj
 0001:000450a8       scanCncn_SwitchToConnected 100460a8 f   Sta_Management:ScanCncn.obj
 0001:000450fc       scanCncn_SwitchToNotConnected 100460fc f   Sta_Management:ScanCncn.obj
 0001:00045158       scanCncn_StopScan          10046158 f   Sta_Management:ScanCncn.obj
 0001:000451e4       scanCncn_StopPeriodicScan  100461e4 f   Sta_Management:ScanCncn.obj
 0001:00045270       scanCncn_RegisterScanResultCB 10046270 f   Sta_Management:ScanCncn.obj
 0001:00045288       scanCncn_ScanCompleteNotificationCB 10046288 f   Sta_Management:ScanCncn.obj
 0001:0004544c       scanCncn_PeriodicScanReportCB 1004644c f   Sta_Management:ScanCncn.obj
 0001:000454d8       scanCncn_PeriodicScanCompleteCB 100464d8 f   Sta_Management:ScanCncn.obj
 0001:00045640       scanCncn_MlmeResultCB      10046640 f   Sta_Management:ScanCncn.obj
 0001:00045b3c       scanCncn_ScrRoamingImmedCB 10046b3c f   Sta_Management:ScanCncn.obj
 0001:00045c58       scanCncn_ScrRoamingContCB  10046c58 f   Sta_Management:ScanCncn.obj
 0001:00045da8       scanCncn_ScrAppCB          10046da8 f   Sta_Management:ScanCncn.obj
 0001:00045ef8       scanCncn_ScrDriverCB       10046ef8 f   Sta_Management:ScanCncn.obj
 0001:00046290       scanCncn_SGconfigureScanParams 10047290 f   Sta_Management:ScanCncn.obj
 0001:00046318       scanCncn_SGupdateScanParams 10047318 f   Sta_Management:ScanCncn.obj
 0001:000466a4       scanCncn_Create            100476a4 f   Sta_Management:ScanCncn.obj
 0001:00046784       scanCncn_SetDefaults       10047784 f   Sta_Management:ScanCncn.obj
 0001:000468ac       scanCncn_Start1ShotScan    100478ac f   Sta_Management:ScanCncn.obj
 0001:00046a80       scanCncn_StartPeriodicScan 10047a80 f   Sta_Management:ScanCncn.obj
 0001:00046bd8       scr_create                 10047bd8 f   Sta_Management:scr.obj
 0001:00046c14       scr_release                10047c14 f   Sta_Management:scr.obj
 0001:00046c30       scr_init                   10047c30 f   Sta_Management:scr.obj
 0001:00046ce8       scr_registerClientCB       10047ce8 f   Sta_Management:scr.obj
 0001:00046d64       scr_notifyFWReset          10047d64 f   Sta_Management:scr.obj
 0001:00046eb4       scr_setMode                10047eb4 f   Sta_Management:scr.obj
 0001:00046f60       scrFindHighest             10047f60 f   Sta_Management:scr.obj
 0001:00046fe0       scr_setGroup               10047fe0 f   Sta_Management:scr.obj
 0001:00047268       scr_clientRequest          10048268 f   Sta_Management:scr.obj
 0001:000477f8       scr_clientComplete         100487f8 f   Sta_Management:scr.obj
 0001:000479fc       StaCap_Create              100489fc f   Sta_Management:StaCap.obj
 0001:00047a44       StaCap_Destroy             10048a44 f   Sta_Management:StaCap.obj
 0001:00047a64       StaCap_Init                10048a64 f   Sta_Management:StaCap.obj
 0001:00047aa4       StaCap_IsHtEnable          10048aa4 f   Sta_Management:StaCap.obj
 0001:00047b24       StaCap_GetHtCapabilitiesIe 10048b24 f   Sta_Management:StaCap.obj
 0001:00047e3c       mlmeParser_getFrameType    10048e3c f   Sta_Management:mlmeParser.obj
 0001:00047f24       mlmeParser_readERP         10048f24 f   Sta_Management:mlmeParser.obj
 0001:00047f90       mlmeParser_readRates       10048f90 f   Sta_Management:mlmeParser.obj
 0001:00047ff4       mlmeParser_readSsid        10048ff4 f   Sta_Management:mlmeParser.obj
 0001:0004805c       mlmeParser_readFhParams    1004905c f   Sta_Management:mlmeParser.obj
 0001:000480d8       mlmeParser_readDsParams    100490d8 f   Sta_Management:mlmeParser.obj
 0001:00048128       mlmeParser_readCfParams    10049128 f   Sta_Management:mlmeParser.obj
 0001:000481ac       mlmeParser_readIbssParams  100491ac f   Sta_Management:mlmeParser.obj
 0001:00048208       mlmeParser_readTim         10049208 f   Sta_Management:mlmeParser.obj
 0001:0004829c       mlmeParser_readCountry     1004929c f   Sta_Management:mlmeParser.obj
 0001:000483c0       mlmeParser_readWMEParams   100493c0 f   Sta_Management:mlmeParser.obj
 0001:000488a0       mlmeParser_readQosCapabilityIE 100498a0 f   Sta_Management:mlmeParser.obj
 0001:00048954       mlmeParser_readHtCapabilitiesIE 10049954 f   Sta_Management:mlmeParser.obj
 0001:00048a14       mlmeParser_readHtInformationIE 10049a14 f   Sta_Management:mlmeParser.obj
 0001:00048b30       mlmeParser_readChallange   10049b30 f   Sta_Management:mlmeParser.obj
 0001:00048ba4       mlmeParser_readRsnIe       10049ba4 f   Sta_Management:mlmeParser.obj
 0001:00048c08       mlmeParser_readPowerConstraint 10049c08 f   Sta_Management:mlmeParser.obj
 0001:00048c74       mlmeParser_readChannelSwitch 10049c74 f   Sta_Management:mlmeParser.obj
 0001:00048cfc       mlmeParser_readQuiet       10049cfc f   Sta_Management:mlmeParser.obj
 0001:00048d84       mlmeParser_readTPCReport   10049d84 f   Sta_Management:mlmeParser.obj
 0001:00048de0       mlmeParser_parseIEs        10049de0 f   Sta_Management:mlmeParser.obj
 0001:00049548       mlmeParser_getParseIEsBuffer 1004a548 f   Sta_Management:mlmeParser.obj
 0001:00049550       mlmeParser_ParseIeBuffer   1004a550 f   Sta_Management:mlmeParser.obj
 0001:00049610       mlmeParser_recv            1004a610 f   Sta_Management:mlmeParser.obj
 0001:0004ae38       powerMgrKL_create          1004be38 f   Sta_Management:PowerMgrKeepAlive.obj
 0001:0004ae60       powerMgrKL_destroy         1004be60 f   Sta_Management:PowerMgrKeepAlive.obj
 0001:0004ae7c       powerMgrKL_init            1004be7c f   Sta_Management:PowerMgrKeepAlive.obj
 0001:0004ae98       powerMgrKL_setDefaults     1004be98 f   Sta_Management:PowerMgrKeepAlive.obj
 0001:0004aec4       powerMgrKL_stop            1004bec4 f   Sta_Management:PowerMgrKeepAlive.obj
 0001:0004aeec       powerMgrKL_getParam        1004beec f   Sta_Management:PowerMgrKeepAlive.obj
 0001:0004afc0       powerMgrKLConfigureMessage 1004bfc0 f   Sta_Management:PowerMgrKeepAlive.obj
 0001:0004b174       powerMgrKL_start           1004c174 f   Sta_Management:PowerMgrKeepAlive.obj
 0001:0004b1c8       powerMgrKL_setParam        1004c1c8 f   Sta_Management:PowerMgrKeepAlive.obj
 0001:0004b378       trafficAdmCtrl_create      1004c378 f   Sta_Management:trafficAdmControl.obj
 0001:0004b3e0       trafficAdmCtrl_unload      1004c3e0 f   Sta_Management:trafficAdmControl.obj
 0001:0004b43c       trafficAdmCtrl_smEvent     1004c43c f   Sta_Management:trafficAdmControl.obj
 0001:0004b594       trafficAdmCtrl_smWaitAccept 1004c594 f   Sta_Management:trafficAdmControl.obj
 0001:0004b5c0       trafficAdmCtrl_smWaitReject 1004c5c0 f   Sta_Management:trafficAdmControl.obj
 0001:0004b5ec       trafficAdmCtrl_smWaitTimeout 1004c5ec f   Sta_Management:trafficAdmControl.obj
 0001:0004b614       trafficAdmCtrl_smActionUnexpected 1004c614 f   Sta_Management:trafficAdmControl.obj
 0001:0004b67c       trafficAdmCtrl_smActionUnexpectedTspecResponse 1004c67c f   Sta_Management:trafficAdmControl.obj
 0001:0004b6f0       trafficAdmCtrl_smActionNop 1004c6f0 f   Sta_Management:trafficAdmControl.obj
 0001:0004b75c       trafficAdmCtrl_startAdmRequest 1004c75c f   Sta_Management:trafficAdmControl.obj
 0001:0004b79c       trafficAdmCtrl_stop        1004c79c f   Sta_Management:trafficAdmControl.obj
 0001:0004b804       trafficAdmCtrl_timeoutAcBE 1004c804 f   Sta_Management:trafficAdmControl.obj
 0001:0004b83c       trafficAdmCtrl_timeoutAcBK 1004c83c f   Sta_Management:trafficAdmControl.obj
 0001:0004b874       trafficAdmCtrl_timeoutAcVI 1004c874 f   Sta_Management:trafficAdmControl.obj
 0001:0004b8ac       trafficAdmCtrl_timeoutAcVO 1004c8ac f   Sta_Management:trafficAdmControl.obj
 0001:0004b8ec       trafficAdmCtrl_buildFrameHeader 1004c8ec f   Sta_Management:trafficAdmControl.obj
 0001:0004ba68       trafficAdmCtrl_buildTSPec  1004ca68 f   Sta_Management:trafficAdmControl.obj
 0001:0004bc34       trafficAdmCtrl_parseTspecIE 1004cc34 f   Sta_Management:trafficAdmControl.obj
 0001:0004bd48       trafficAdmCtrl_smWaitStop  1004cd48 f   Sta_Management:trafficAdmControl.obj
 0001:0004bdc8       trafficAdmCtrl_recv        1004cdc8 f   Sta_Management:trafficAdmControl.obj
 0001:0004c160       trafficAdmCtrl_sendDeltsFrame 1004d160 f   Sta_Management:trafficAdmControl.obj
 0001:0004c2fc       trafficAdmCtrl_startTimer  1004d2fc f   Sta_Management:trafficAdmControl.obj
 0001:0004c390       trafficAdmCtrl_sendAdmissionReq 1004d390 f   Sta_Management:trafficAdmControl.obj
 0001:0004c510       trafficAdmCtrl_smStart     1004d510 f   Sta_Management:trafficAdmControl.obj
 0001:0004c54c       trafficAdmCtrl_config      1004d54c f   Sta_Management:trafficAdmControl.obj
 0001:0004c7c8       buildNullTemplate          1004d7c8 f   Sta_Management:templates.obj
 0001:0004c8e8       buildDisconnTemplate       1004d8e8 f   Sta_Management:templates.obj
 0001:0004ca0c       buildProbeReqTemplate      1004da0c f   Sta_Management:templates.obj
 0001:0004ced0       buildProbeRspTemplate      1004ded0 f   Sta_Management:templates.obj
 0001:0004d3bc       buildPsPollTemplate        1004e3bc f   Sta_Management:templates.obj
 0001:0004d4cc       buildQosNullDataTemplate   1004e4cc f   Sta_Management:templates.obj
 0001:0004d648       buildArpRspTemplate        1004e648 f   Sta_Management:templates.obj
 0001:0004d8c4       setDefaultProbeReqTemplate 1004e8c4 f   Sta_Management:templates.obj
 0001:0004d988       scanResultTable_Create     1004e988 f   Sta_Management:scanResultTable.obj
 0001:0004da64       scanResultTable_Init       1004ea64 f   Sta_Management:scanResultTable.obj
 0001:0004daa0       scanResultTable_Destroy    1004eaa0 f   Sta_Management:scanResultTable.obj
 0001:0004dae0       scanResultTable_SetSraThreshold 1004eae0 f   Sta_Management:scanResultTable.obj
 0001:0004dae8       scanResultTable_SetStableState 1004eae8 f   Sta_Management:scanResultTable.obj
 0001:0004db98       scanResultTable_GetNext    1004eb98 f   Sta_Management:scanResultTable.obj
 0001:0004dbd4       scanResultTable_GetBySsidBssidPair 1004ebd4 f   Sta_Management:scanResultTable.obj
 0001:0004e378       scanResultTable_GetNumOfBSSIDInTheList 1004f378 f   Sta_Management:scanResultTable.obj
 0001:0004e380       scanResultTable_CalculateBssidListSize 1004f380 f   Sta_Management:scanResultTable.obj
 0001:0004e4c0       scanResultTable_GetBssidList 1004f4c0 f   Sta_Management:scanResultTable.obj
 0001:0004ecec       scanResultTable_GetBssidSupportedRatesList 1004fcec f   Sta_Management:scanResultTable.obj
 0001:0004ee18       scanResultTable_GetFirst   1004fe18 f   Sta_Management:scanResultTable.obj
 0001:0004ee30       scanResultTable_PerformAging 1004fe30 f   Sta_Management:scanResultTable.obj
 0001:0004f67c       scanResultTable_UpdateEntry 1005067c f   Sta_Management:scanResultTable.obj
 0001:0004fa34       siteMgr_resetSiteTable     10050a34 f   Sta_Management:siteHash.obj
 0001:0004fb28       findSiteEntry              10050b28 f   Sta_Management:siteHash.obj
 0001:0004fd68       removeSiteEntry            10050d68 f   Sta_Management:siteHash.obj
 0001:0004ff98       findAndInsertSiteEntry     10050f98 f   Sta_Management:siteHash.obj
 0001:00050734       systemConfig               10051734 f   Sta_Management:systemConfig.obj
 0001:00050e78       addSelfSite                10051e78 f   Sta_Management:systemConfig.obj
 0001:00051054       mlmeBuilder_buildFrameCtrl 10052054 f   Sta_Management:mlmeBuilder.obj
 0001:00051128       mlmeBuilder_sendFrame      10052128 f   Sta_Management:mlmeBuilder.obj
 0001:0005133c       auth_osSMEvent             1005233c f   Sta_Management:openAuthSm.obj
 0001:0005141c       openAuth_Recv              1005241c f   Sta_Management:openAuthSm.obj
 0001:00051534       openAuth_smStopAuth        10052534 f   Sta_Management:openAuthSm.obj
 0001:0005153c       openAuth_smActionUnexpected 1005253c f   Sta_Management:openAuthSm.obj
 0001:00051544       openAuth_smStartTimer      10052544 f   Sta_Management:openAuthSm.obj
 0001:00051584       openAuth_Timeout           10052584 f   Sta_Management:openAuthSm.obj
 0001:000515bc       openAuth_smStartIdle       100525bc f   Sta_Management:openAuthSm.obj
 0001:000516e8       openAuth_smStopWait        100526e8 f   Sta_Management:openAuthSm.obj
 0001:00051710       openAuth_smSuccessWait     10052710 f   Sta_Management:openAuthSm.obj
 0001:00051744       openAuth_smFailureWait     10052744 f   Sta_Management:openAuthSm.obj
 0001:00051778       openAuth_smTimeoutWait     10052778 f   Sta_Management:openAuthSm.obj
 0001:000517c8       openAuth_smMaxRetryWait    100527c8 f   Sta_Management:openAuthSm.obj
 0001:000517f0       openAuth_Config            100527f0 f   Sta_Management:openAuthSm.obj
 0001:00051990       auth_skSMEvent             10052990 f   Sta_Management:sharedKeyAuthSm.obj
 0001:00051a70       sharedKeyAuth_Recv         10052a70 f   Sta_Management:sharedKeyAuthSm.obj
 0001:00051c70       sharedKeyAuth_smStopAuth   10052c70 f   Sta_Management:sharedKeyAuthSm.obj
 0001:00051c78       sharedKeyAuth_smActionUnexpected 10052c78 f   Sta_Management:sharedKeyAuthSm.obj
 0001:00051c80       sharedKeyAuth_smStartTimer 10052c80 f   Sta_Management:sharedKeyAuthSm.obj
 0001:00051cc0       sharedKey_Timeout          10052cc0 f   Sta_Management:sharedKeyAuthSm.obj
 0001:00051cf8       sharedKeyAuth_smStartIdle  10052cf8 f   Sta_Management:sharedKeyAuthSm.obj
 0001:00051d50       sharedKeyAuth_smStopWait   10052d50 f   Sta_Management:sharedKeyAuthSm.obj
 0001:00051d78       sharedKeyAuth_smSuccess1Wait1 10052d78 f   Sta_Management:sharedKeyAuthSm.obj
 0001:00051df0       sharedKeyAuth_smFailure1Wait1 10052df0 f   Sta_Management:sharedKeyAuthSm.obj
 0001:00051e24       sharedKeyAuth_smTimeoutWait1 10052e24 f   Sta_Management:sharedKeyAuthSm.obj
 0001:00051e74       sharedKeyAuth_smMaxRetryWait 10052e74 f   Sta_Management:sharedKeyAuthSm.obj
 0001:00051e9c       sharedKeyAuth_smSuccess2Wait2 10052e9c f   Sta_Management:sharedKeyAuthSm.obj
 0001:00051ed0       sharedKeyAuth_smFailure2Wait2 10052ed0 f   Sta_Management:sharedKeyAuthSm.obj
 0001:00051f04       sharedKeyAuth_smTimeoutWait2 10052f04 f   Sta_Management:sharedKeyAuthSm.obj
 0001:00051f4c       sharedKeyAuth_Config       10052f4c f   Sta_Management:sharedKeyAuthSm.obj
 0001:000521c8       scanCncnSm_Create          100531c8 f   Sta_Management:ScanCncnSm.obj
 0001:0005221c       scanCncnSm_Init            1005321c f   Sta_Management:ScanCncnSm.obj
 0001:000522e0       scanCncnSm_Destroy         100532e0 f   Sta_Management:ScanCncnSm.obj
 0001:00052644       scanCncnOsSm_Create        10053644 f   Sta_Management:ScanCncnOsSm.obj
 0001:00052658       scanCncnOsSm_Init          10053658 f   Sta_Management:ScanCncnOsSm.obj
 0001:000526c0       scanCncnOsSm_Destroy       100536c0 f   Sta_Management:ScanCncnOsSm.obj
 0001:00052724       scanCncnOsSm_FillAllAvailableChannels 10053724 f   Sta_Management:ScanCncnOsSm.obj
 0001:00052d6c       scanCncnSmApp1Shot_ScrRequest 10053d6c f   Sta_Management:ScanCncnSmSpecific.obj
 0001:00052e80       scanCncnSmApp1Shot_ScrRelease 10053e80 f   Sta_Management:ScanCncnSmSpecific.obj
 0001:00052e9c       scanCncnSmApp1Shot_StartScan 10053e9c f   Sta_Management:ScanCncnSmSpecific.obj
 0001:00052f54       scanCncnSmApp1Shot_StopScan 10053f54 f   Sta_Management:ScanCncnSmSpecific.obj
 0001:00053000       scanCncnSmApp1Shot_Recovery 10054000 f   Sta_Management:ScanCncnSmSpecific.obj
 0001:00053014       scanCncnSmAppP_ScrRequest  10054014 f   Sta_Management:ScanCncnSmSpecific.obj
 0001:00053128       scanCncnSmAppP_ScrRelease  10054128 f   Sta_Management:ScanCncnSmSpecific.obj
 0001:00053144       scanCncnSmAppP_StartScan   10054144 f   Sta_Management:ScanCncnSmSpecific.obj
 0001:000531e8       scanCncnSmAppP_StopScan    100541e8 f   Sta_Management:ScanCncnSmSpecific.obj
 0001:00053274       scanCncnSmAppP_Recovery    10054274 f   Sta_Management:ScanCncnSmSpecific.obj
 0001:00053278       scanCncnSmDrvP_ScrRequest  10054278 f   Sta_Management:ScanCncnSmSpecific.obj
 0001:000533a8       scanCncnSmDrvP_ScrRelease  100543a8 f   Sta_Management:ScanCncnSmSpecific.obj
 0001:000533c4       scanCncnSmDrvP_StartScan   100543c4 f   Sta_Management:ScanCncnSmSpecific.obj
 0001:00053468       scanCncnSmDrvP_StopScan    10054468 f   Sta_Management:ScanCncnSmSpecific.obj
 0001:000534f4       scanCncnSmDrvP_Recovery    100544f4 f   Sta_Management:ScanCncnSmSpecific.obj
 0001:000534f8       scanCncnSmCont1Shot_ScrRequest 100544f8 f   Sta_Management:ScanCncnSmSpecific.obj
 0001:00053628       scanCncnSmCont1Shot_ScrRelease 10054628 f   Sta_Management:ScanCncnSmSpecific.obj
 0001:00053644       scanCncnSmCont1Shot_StartScan 10054644 f   Sta_Management:ScanCncnSmSpecific.obj
 0001:000536e8       scanCncnSmCont1Shot_StopScan 100546e8 f   Sta_Management:ScanCncnSmSpecific.obj
 0001:0005377c       scanCncnSmCont1Shot_Recovery 1005477c f   Sta_Management:ScanCncnSmSpecific.obj
 0001:00053790       scanCncnSmImmed1Shot_ScrRequest 10054790 f   Sta_Management:ScanCncnSmSpecific.obj
 0001:000538c4       scanCncnSmImmed1Shot_ScrRelease 100548c4 f   Sta_Management:ScanCncnSmSpecific.obj
 0001:000538e0       scanCncnSmImmed1Shot_StartScan 100548e0 f   Sta_Management:ScanCncnSmSpecific.obj
 0001:000539b8       scanCncnSmImmed1Shot_StopScan 100549b8 f   Sta_Management:ScanCncnSmSpecific.obj
 0001:00053a4c       scanCncnSmImmed1Shot_Recovery 10054a4c f   Sta_Management:ScanCncnSmSpecific.obj
 0001:00053a60       cmdBld_ItrMemoryMap        10054a60 f   Ctrl:CmdBldItr.obj
 0001:00053a70       cmdBld_ItrRoamimgStatisitics 10054a70 f   Ctrl:CmdBldItr.obj
 0001:00053a80       cmdBld_ItrErrorCnt         10054a80 f   Ctrl:CmdBldItr.obj
 0001:00053a90       cmdBld_ItrRSSI             10054a90 f   Ctrl:CmdBldItr.obj
 0001:00053aa0       cmdBld_ItrSg               10054aa0 f   Ctrl:CmdBldItr.obj
 0001:00053ab0       cmdBld_ItrRateParams       10054ab0 f   Ctrl:CmdBldItr.obj
 0001:00053ac4       cmdBld_ItrStatistics       10054ac4 f   Ctrl:CmdBldItr.obj
 0001:00053ad4       cmdBld_ItrPowerConsumptionstat 10054ad4 f   Ctrl:CmdBldItr.obj
 0001:00053ae8       cmdBld_ItrDataFilterStatistics 10054ae8 f   Ctrl:CmdBldItr.obj
 0001:00053af8       cmdBld_ItrIeMemoryMap      10054af8 f   Ctrl:CmdBldItrIE.obj
 0001:00053b48       cmdBld_ItrIeRoamimgStatisitics 10054b48 f   Ctrl:CmdBldItrIE.obj
 0001:00053b98       cmdBld_ItrIeErrorCnt       10054b98 f   Ctrl:CmdBldItrIE.obj
 0001:00053be8       cmdBld_ItrIeRSSI           10054be8 f   Ctrl:CmdBldItrIE.obj
 0001:00053c40       cmdBld_ItrIeSg             10054c40 f   Ctrl:CmdBldItrIE.obj
 0001:00053cf4       cmdBld_ItrIeRateParams     10054cf4 f   Ctrl:CmdBldItrIE.obj
 0001:00053da0       cmdBld_ItrIePowerConsumptionstat 10054da0 f   Ctrl:CmdBldItrIE.obj
 0001:00053e2c       cmdBld_ItrIeStatistics     10054e2c f   Ctrl:CmdBldItrIE.obj
 0001:00053e7c       cmdBld_ItrIeMediumOccupancy 10054e7c f   Ctrl:CmdBldItrIE.obj
 0001:00053ed4       cmdBld_ItrIeTfsDtim        10054ed4 f   Ctrl:CmdBldItrIE.obj
 0001:00053f4c       cmdBld_ItrIeNoiseHistogramResults 10054f4c f   Ctrl:CmdBldItrIE.obj
 0001:00053f9c       cmdBld_ItrIeDataFilterStatistics 10054f9c f   Ctrl:CmdBldItrIE.obj
 0001:00054018       cmdQueue_Create            10055018 f   Ctrl:CmdQueue.obj
 0001:00054068       cmdQueue_Destroy           10055068 f   Ctrl:CmdQueue.obj
 0001:000544ec       cmdQueue_ResultReceived    100554ec f   Ctrl:CmdQueue.obj
 0001:00054500       cmdQueue_Restart           10055500 f   Ctrl:CmdQueue.obj
 0001:00054600       cmdQueue_EndReconfig       10055600 f   Ctrl:CmdQueue.obj
 0001:00054680       cmdQueue_RegisterCmdCompleteGenericCb 10055680 f   Ctrl:CmdQueue.obj
 0001:000546e8       cmdQueue_RegisterForErrorCb 100556e8 f   Ctrl:CmdQueue.obj
 0001:00054754       cmdQueue_EnableMbox        10055754 f   Ctrl:CmdQueue.obj
 0001:00054768       cmdQueue_DisableMbox       10055768 f   Ctrl:CmdQueue.obj
 0001:0005477c       cmdQueue_GetMaxNumberOfCommands 1005577c f   Ctrl:CmdQueue.obj
 0001:00054d70       cmdQueue_SendCommand       10055d70 f   Ctrl:CmdQueue.obj
 0001:00054df4       cmdQueue_PrintHistory      10055df4 f   Ctrl:CmdQueue.obj
 0001:00054eb0       cmdQueue_Error             10055eb0 f   Ctrl:CmdQueue.obj
 0001:000550c0       cmdQueue_Print             100560c0 f   Ctrl:CmdQueue.obj
 0001:000551c0       cmdQueue_Init              100561c0 f   Ctrl:CmdQueue.obj
 0001:00055248       txHwQueue_Create           10056248 f   Data_Service:txHwQueue.obj
 0001:00055284       txHwQueue_Destroy          10056284 f   Data_Service:txHwQueue.obj
 0001:000552a4       txHwQueue_Init             100562a4 f   Data_Service:txHwQueue.obj
 0001:000552b0       txHwQueue_Config           100562b0 f   Data_Service:txHwQueue.obj
 0001:000552d8       txHwQueue_Restart          100562d8 f   Data_Service:txHwQueue.obj
 0001:00055478       txHwQueue_RegisterCb       10056478 f   Data_Service:txHwQueue.obj
 0001:000554ec       txHwQueue_PrintInfo        100564ec f   Data_Service:txHwQueue.obj
 0001:000555fc       txHwQueue_SetHwInfo        100565fc f   Data_Service:txHwQueue.obj
 0001:00055620       txHwQueue_AllocResources   10056620 f   Data_Service:txHwQueue.obj
 0001:0005587c       txHwQueue_UpdateFreeResources 1005687c f   Data_Service:txHwQueue.obj
 0001:00055a2c       cmdMbox_Create             10056a2c f   FW_Transfer:CmdMBox.obj
 0001:00055a7c       cmdMbox_Destroy            10056a7c f   FW_Transfer:CmdMBox.obj
 0001:00055ab4       cmdMbox_Init               10056ab4 f   FW_Transfer:CmdMBox.obj
 0001:00055b48       cmdMbox_TransferComplete   10056b48 f   FW_Transfer:CmdMBox.obj
 0001:00055c10       cmdMbox_Restart            10056c10 f   FW_Transfer:CmdMBox.obj
 0001:00055c3c       cmdMbox_GetStatus          10056c3c f   FW_Transfer:CmdMBox.obj
 0001:00055cbc       cmdMbox_GetMboxAddress     10056cbc f   FW_Transfer:CmdMBox.obj
 0001:00055cc4       cmdMbox_GetCmdParams       10056cc4 f   FW_Transfer:CmdMBox.obj
 0001:00055ce8       cmdMbox_PrintInfo          10056ce8 f   FW_Transfer:CmdMBox.obj
 0001:00055d20       cmdMbox_SendCommand        10056d20 f   FW_Transfer:CmdMBox.obj
 0001:00055ed0       cmdMbox_CommandComplete    10056ed0 f   FW_Transfer:CmdMBox.obj
 0001:00055f4c       cmdMbox_ConfigHw           10056f4c f   FW_Transfer:CmdMBox.obj
 0001:00055fc8       twIf_Create                10056fc8 f   TwIf:TwIf.obj
 0001:00056004       twIf_Destroy               10057004 f   TwIf:TwIf.obj
 0001:00056058       twIf_RegisterErrCb         10057058 f   TwIf:TwIf.obj
 0001:0005611c       twIf_Awake                 1005711c f   TwIf:TwIf.obj
 0001:000566c4       twIf_isValidMemoryAddr     100576c4 f   TwIf:TwIf.obj
 0001:000566fc       twIf_isValidRegAddr        100576fc f   TwIf:TwIf.obj
 0001:00056724       twIf_PrintModuleInfo       10057724 f   TwIf:TwIf.obj
 0001:00056858       twIf_PrintQueues           10057858 f   TwIf:TwIf.obj
 0001:0005686c       twIf_PrintWakeLockCounter  1005786c f   TwIf:TwIf.obj
 0001:00056890       twIf_Restart               10057890 f   TwIf:TwIf.obj
 0001:00056940       twIf_Sleep                 10057940 f   TwIf:TwIf.obj
 0001:000569d8       twIf_HwAvailable           100579d8 f   TwIf:TwIf.obj
 0001:00056cac       twIf_Init                  10057cac f   TwIf:TwIf.obj
 0001:00056e5c       twIf_SetPartition          10057e5c f   TwIf:TwIf.obj
 0001:000570e0       twIf_Transact              100580e0 f   TwIf:TwIf.obj
 0001:00057140       twIf_TransactReadFWStatus  10058140 f   TwIf:TwIf.obj
 0001:00057164       txnQ_Destroy               10058164 f   Txn:TxnQueue.obj
 0001:000571ac       txnQ_Init                  100581ac f   Txn:TxnQueue.obj
 0001:00057240       txnQ_DisconnectBus         10058240 f   Txn:TxnQueue.obj
 0001:00057254       txnQ_Open                  10058254 f   Txn:TxnQueue.obj
 0001:000573fc       txnQ_Close                 100583fc f   Txn:TxnQueue.obj
 0001:00057504       txnQ_Stop                  10058504 f   Txn:TxnQueue.obj
 0001:00057784       txnQ_ClearQueues           10058784 f   Txn:TxnQueue.obj
 0001:000577fc       txnQ_PrintQueues           100587fc f   Txn:TxnQueue.obj
 0001:00057834       txnQ_Create                10058834 f   Txn:TxnQueue.obj
 0001:000578e0       txnQ_Restart               100588e0 f   Txn:TxnQueue.obj
 0001:00057d98       txnQ_Run                   10058d98 f   Txn:TxnQueue.obj
 0001:00057e5c       txnQ_Transact              10058e5c f   Txn:TxnQueue.obj
 0001:00058184       txnQ_ConnectBus            10059184 f   Txn:TxnQueue.obj
 0001:0005821c       busDrv_Create              1005921c f   Txn:SdioBusDrv.obj
 0001:00058258       busDrv_Destroy             10059258 f   Txn:SdioBusDrv.obj
 0001:00058278       busDrv_Init                10059278 f   Txn:SdioBusDrv.obj
 0001:00058280       busDrv_DisconnectBus       10059280 f   Txn:SdioBusDrv.obj
 0001:00058914       busDrv_ConnectBus          10059914 f   Txn:SdioBusDrv.obj
 0001:00058a64       busDrv_Transact            10059a64 f   Txn:SdioBusDrv.obj
 0001:00058b54       TWD_Destroy                10059b54 f   TWDriver:TWDriver.obj
 0001:00058d50       TWD_InitHw                 10059d50 f   TWDriver:TWDriver.obj
 0001:00058e3c       TWD_InitFw                 10059e3c f   TWDriver:TWDriver.obj
 0001:00058fb8       TWD_SetDefaults            10059fb8 f   TWDriver:TWDriver.obj
 0001:00059548       TWD_ConfigFw               1005a548 f   TWDriver:TWDriver.obj
 0001:000595b8       TWD_FinalizeDownload       1005a5b8 f   TWDriver:TWDriver.obj
 0001:000596a8       TWD_FinalizeOnFailure      1005a6a8 f   TWDriver:TWDriver.obj
 0001:00059754       TWD_CheckMailboxCb         1005a754 f   TWDriver:TWDriver.obj
 0001:00059978       TWD_RegisterCb             1005a978 f   TWDriver:TWDriver.obj
 0001:00059d34       TWD_ExitFromInitMode       1005ad34 f   TWDriver:TWDriver.obj
 0001:00059d9c       TWD_PrintTxInfo            1005ad9c f   TWDriver:TWDriver.obj
 0001:00059eb8       TWD_InterruptRequest       1005aeb8 f   TWDriver:TWDriver.obj
 0001:00059f18       TWD_RegisterEvent          1005af18 f   TWDriver:TWDriver.obj
 0001:00059f8c       TWD_EnableEvent            1005af8c f   TWDriver:TWDriver.obj
 0001:00059ff8       TWD_StopComplete           1005aff8 f   TWDriver:TWDriver.obj
 0001:0005a0ac       TWD_Stop                   1005b0ac f   TWDriver:TWDriver.obj
 0001:0005a14c       TWD_EnableExternalEvents   1005b14c f   TWDriver:TWDriver.obj
 0001:0005a1b0       TWD_RecoveryEnabled        1005b1b0 f   TWDriver:TWDriver.obj
 0001:0005a208       TWD_GetMaxNumberOfCommandsInQueue 1005b208 f   TWDriver:TWDriver.obj
 0001:0005a264       TWD_SetPsMode              1005b264 f   TWDriver:TWDriver.obj
 0001:0005a2e8       TWD_SetNullRateModulation  1005b2e8 f   TWDriver:TWDriver.obj
 0001:0005a350       TWD_UpdateDtimTbtt         1005b350 f   TWDriver:TWDriver.obj
 0001:0005a3bc       TWD_StartMeasurement       1005b3bc f   TWDriver:TWDriver.obj
 0001:0005a448       TWD_StopMeasurement        1005b448 f   TWDriver:TWDriver.obj
 0001:0005a4bc       TWD_RegisterScanCompleteCb 1005b4bc f   TWDriver:TWDriver.obj
 0001:0005a52c       TWD_PrintMacServDebugStatus 1005b52c f   TWDriver:TWDriver.obj
 0001:0005a58c       TWD_Scan                   1005b58c f   TWDriver:TWDriver.obj
 0001:0005a630       TWD_StopScan               1005b630 f   TWDriver:TWDriver.obj
 0001:0005a6ac       TWD_StopScanOnFWReset      1005b6ac f   TWDriver:TWDriver.obj
 0001:0005a708       TWD_StartConnectionScan    1005b708 f   TWDriver:TWDriver.obj
 0001:0005a78c       TWD_StopPeriodicScan       1005b78c f   TWDriver:TWDriver.obj
 0001:0005a800       TWD_readMem                1005b800 f   TWDriver:TWDriver.obj
 0001:0005a8e0       TWD_writeMem               1005b8e0 f   TWDriver:TWDriver.obj
 0001:0005a9c0       TWD_isValidMemoryAddr      1005b9c0 f   TWDriver:TWDriver.obj
 0001:0005aa3c       TWD_isValidRegAddr         1005ba3c f   TWDriver:TWDriver.obj
 0001:0005aca4       TWD_WriteMib               1005bca4 f   TWDriver:TWDriver.obj
 0001:0005b0e0       TWD_ReadMib                1005c0e0 f   TWDriver:TWDriver.obj
 0001:0005b154       TWD_DisableInterrupts      1005c154 f   TWDriver:TWDriver.obj
 0001:0005b1b0       TWD_EnableInterrupts       1005c1b0 f   TWDriver:TWDriver.obj
 0001:0005b20c       TWD_TranslateToFwTime      1005c20c f   TWDriver:TWDriver.obj
 0001:0005b270       TWD_GetTwdHtCapabilities   1005c270 f   TWDriver:TWDriver.obj
 0001:0005b2d4       TWD_FinalizePolarityRead   1005c2d4 f   TWDriver:TWDriver.obj
 0001:0005b2f8       TWD_Create                 1005c2f8 f   TWDriver:TWDriver.obj
 0001:0005b870       TWD_Init                   1005c870 f   TWDriver:TWDriver.obj
 0001:0005ba7c       TWD_txCtrlBlk_Alloc        1005ca7c f   TWDriver:TWDriverTx.obj
 0001:0005ba90       TWD_txCtrlBlk_Free         1005ca90 f   TWDriver:TWDriverTx.obj
 0001:0005baa4       TWD_txCtrlBlk_GetPointer   1005caa4 f   TWDriver:TWDriverTx.obj
 0001:0005bab8       TWD_txHwQueue_AllocResources 1005cab8 f   TWDriver:TWDriverTx.obj
 0001:0005bacc       TWD_txXfer_SendPacket      1005cacc f   TWDriver:TWDriverTx.obj
 0001:0005bae0       TWD_txXfer_EndOfBurst      1005cae0 f   TWDriver:TWDriverTx.obj
 0001:0005baf4       TWD_SetParam               1005caf4 f   TWDriver:TWDriverCtrl.obj
 0001:0005c0e0       TWD_GetParam               1005d0e0 f   TWDriver:TWDriverCtrl.obj
 0001:0005c140       TWD_CfgRx                  1005d140 f   TWDriver:TWDriverCtrl.obj
 0001:0005c1b4       TWD_CfgArpIpAddrTable      1005d1b4 f   TWDriver:TWDriverCtrl.obj
 0001:0005c230       TWD_CmdSetSplitScanTimeOut 1005d230 f   TWDriver:TWDriverCtrl.obj
 0001:0005c294       TWD_CmdJoinBss             1005d294 f   TWDriver:TWDriverCtrl.obj
 0001:0005c2fc       TWD_CfgKeepAlive           1005d2fc f   TWDriver:TWDriverCtrl.obj
 0001:0005c368       TWD_CfgKeepAliveEnaDis     1005d368 f   TWDriver:TWDriverCtrl.obj
 0001:0005c3d4       TWD_CmdTemplate            1005d3d4 f   TWDriver:TWDriverCtrl.obj
 0001:0005c448       TWD_CfgSlotTime            1005d448 f   TWDriver:TWDriverCtrl.obj
 0001:0005c4b0       TWD_CfgPreamble            1005d4b0 f   TWDriver:TWDriverCtrl.obj
 0001:0005c51c       TWD_CmdSetStaState         1005d51c f   TWDriver:TWDriverCtrl.obj
 0001:0005c59c       TWD_CmdNoiseHistogram      1005d59c f   TWDriver:TWDriverCtrl.obj
 0001:0005c608       TWD_CfgBeaconFilterOpt     1005d608 f   TWDriver:TWDriverCtrl.obj
 0001:0005c67c       TWD_SetRateMngDebug        1005d67c f   TWDriver:TWDriverCtrl.obj
 0001:0005c6e4       TWD_CfgBeaconFilterTable   1005d6e4 f   TWDriver:TWDriverCtrl.obj
 0001:0005c760       TWD_CfgWakeUpCondition     1005d760 f   TWDriver:TWDriverCtrl.obj
 0001:0005c7cc       TWD_GetFWInfo              1005d7cc f   TWDriver:TWDriverCtrl.obj
 0001:0005c824       TWD_CmdSwitchChannel       1005d824 f   TWDriver:TWDriverCtrl.obj
 0001:0005c890       TWD_CmdSwitchChannelCancel 1005d890 f   TWDriver:TWDriverCtrl.obj
 0001:0005c8fc       TWD_CfgMaxTxRetry          1005d8fc f   TWDriver:TWDriverCtrl.obj
 0001:0005c968       TWD_CfgConnMonitParams     1005d968 f   TWDriver:TWDriverCtrl.obj
 0001:0005c9d0       TWD_CmdFwDisconnect        1005d9d0 f   TWDriver:TWDriverCtrl.obj
 0001:0005ca0c       TWD_CfgGroupAddressTable   1005da0c f   TWDriver:TWDriverCtrl.obj
 0001:0005ca88       TWD_SetRadioBand           1005da88 f   TWDriver:TWDriverCtrl.obj
 0001:0005caec       TWD_CfgSleepAuth           1005daec f   TWDriver:TWDriverCtrl.obj
 0001:0005cb58       TWD_CfgBurstMode           1005db58 f   TWDriver:TWDriverCtrl.obj
 0001:0005cbc4       TWD_CmdHealthCheck         1005dbc4 f   TWDriver:TWDriverCtrl.obj
 0001:0005cc28       TWD_CfgMacClock            1005dc28 f   TWDriver:TWDriverCtrl.obj
 0001:0005cc94       TWD_ItrMemoryMap           1005dc94 f   TWDriver:TWDriverCtrl.obj
 0001:0005cd08       TWD_ItrStatistics          1005dd08 f   TWDriver:TWDriverCtrl.obj
 0001:0005cd7c       TWD_ItrDataFilterStatistics 1005dd7c f   TWDriver:TWDriverCtrl.obj
 0001:0005cdf0       TWD_CfgEnableRxDataFilter  1005ddf0 f   TWDriver:TWDriverCtrl.obj
 0001:0005ce60       TWD_CfgRxDataFilter        1005de60 f   TWDriver:TWDriverCtrl.obj
 0001:0005cef4       TWD_CfgRssiSnrTrigger      1005def4 f   TWDriver:TWDriverCtrl.obj
 0001:0005cf5c       TWD_CfgAcParams            1005df5c f   TWDriver:TWDriverCtrl.obj
 0001:0005cfd0       TWD_CfgPsRxStreaming       1005dfd0 f   TWDriver:TWDriverCtrl.obj
 0001:0005d044       TWD_CfgBet                 1005e044 f   TWDriver:TWDriverCtrl.obj
 0001:0005d0b8       TWD_SetSecuritySeqNum      1005e0b8 f   TWDriver:TWDriverCtrl.obj
 0001:0005d120       TWD_CfgSetFwHtCapabilities 1005e120 f   TWDriver:TWDriverCtrl.obj
 0001:0005d274       TWD_CfgSetFwHtInformation  1005e274 f   TWDriver:TWDriverCtrl.obj
 0001:0005d308       TWD_CfgSetBaInitiator      1005e308 f   TWDriver:TWDriverCtrl.obj
 0001:0005d394       TWD_CfgSetBaReceiver       1005e394 f   TWDriver:TWDriverCtrl.obj
 0001:0005d420       TWD_CloseAllBaSessions     1005e420 f   TWDriver:TWDriverCtrl.obj
 0001:0005d490       TWD_WdExpireEvent          1005e490 f   TWDriver:TWDriverCtrl.obj
 0001:0005d5f8       debugFunction              1005e5f8 f   test:debug.obj
 0001:0005d990       twifDebugFunction          1005e990 f   test:TwIfDebug.obj
 0001:0005da20       printFWDbgFunctions        1005ea20 f   test:fwdriverdebug.obj
 0001:0005da8c       FW_debugSendGeneralTestCmd 1005ea8c f   test:fwdriverdebug.obj
 0001:0005dafc       FW_DebugSendJoinCommand    1005eafc f   test:fwdriverdebug.obj
 0001:0005dc58       sendDataPacket             1005ec58 f   test:fwdriverdebug.obj
 0001:0005ddbc       sendMgmtPacket             1005edbc f   test:fwdriverdebug.obj
 0001:0005dea0       FW_DebugSendPacket         1005eea0 f   test:fwdriverdebug.obj
 0001:0005df78       FW_DebugInfinitSendPacket  1005ef78 f   test:fwdriverdebug.obj
 0001:0005dfd8       FW_DebugStartLoopBack      1005efd8 f   test:fwdriverdebug.obj
 0001:0005e048       FW_DebugStopLoopBack       1005f048 f   test:fwdriverdebug.obj
 0001:0005e0b0       FW_DebugGeneral            1005f0b0 f   test:fwdriverdebug.obj
 0001:0005e0ec       FWDebugFunction            1005f0ec f   test:fwdriverdebug.obj
 0001:0005e3bc       mibDbgPrintFunctions       1005f3bc f   test:MibDbg.obj
 0001:0005e424       MibDebugFunction           1005f424 f   test:MibDbg.obj
 0001:0005e620       printHealthMonitorDbgFunctions 1005f620 f   test:HealthMonitorDbg.obj
 0001:0005e6d4       healthMonitorDebugFunction 1005f6d4 f   test:HealthMonitorDbg.obj
 0001:0005e800       sme_memcmp                 1005f800 f   test:smeDebug.obj
 0001:0005e84c       printSmeDbgFunctions       1005f84c f   test:smeDebug.obj
 0001:0005eb38       sme_printBssidList         1005fb38 f   test:smeDebug.obj
 0001:0005ec04       smeDebugFunction           1005fc04 f   test:smeDebug.obj
 0001:0005ec70       printSoftGeminiDbgFunctions 1005fc70 f   test:SoftGeminiDbg.obj
 0001:0005ecc4       SoftGeminiDebugFunction    1005fcc4 f   test:SoftGeminiDbg.obj
 0001:0005ed40       printScrDbgFunctions       1005fd40 f   test:scrDbg.obj
 0001:0005edc4       requestAsClient            1005fdc4 f   test:scrDbg.obj
 0001:0005ee38       releaseAsClient            1005fe38 f   test:scrDbg.obj
 0001:0005ee7c       printSCRObject             1005fe7c f   test:scrDbg.obj
 0001:0005efb8       scrDebugFunction           1005ffb8 f   test:scrDbg.obj
 0001:0005f08c       printRoamingMgrHelpMenu    1006008c f   test:roamingMgrDebug.obj
 0001:0005f18c       PrintBssListGotAfterImemediateScan 1006018c f   test:roamingMgrDebug.obj
 0001:0005f248       roamingMgrDebugFunction    10060248 f   test:roamingMgrDebug.obj
 0001:0005f694       printScanMngrDbgFunctions  10060694 f   test:ScanMngrDbg.obj
 0001:0005f744       startContScan              10060744 f   test:ScanMngrDbg.obj
 0001:0005f7bc       scanMngrDebugFunction      100607bc f   test:ScanMngrDbg.obj
 0001:0005f8a4       printScanConcentratorDbgFunctions 100608a4 f   test:scanCncnDbg.obj
 0001:0005f8e0       scanConcentratorDebugFunction 100608e0 f   test:scanCncnDbg.obj
 0001:0005f928       powerMgrDebugFunction      10060928 f   test:PowerMgrDebug.obj
 0001:0005fa10       printMeasurementDbgFunctions 10060a10 f   test:measurementDbg.obj
 0001:0005fb9c       measurementDebugFunction   10060b9c f   test:measurementDbg.obj
 0001:0005ff28       printQosDbgFunction        10060f28 f   test:qosMngrDbg.obj
 0001:0005ff64       printQosMngrParams         10060f64 f   test:qosMngrDbg.obj
 0001:000601ac       qosMngrDebugFunction       100611ac f   test:qosMngrDbg.obj
 0001:00060e58       TWD_Debug                  10061e58 f   test:TWD_Debug.obj
 0001:00061488       printRsnDbgFunctions       10062488 f   test:rsnDbg.obj
 0001:00061514       rsnDebugFunction           10062514 f   test:rsnDbg.obj
 0001:00061698       printConnDbgFunctions      10062698 f   test:connDebug.obj
 0001:000616c8       connDebugFunction          100626c8 f   test:connDebug.obj
 0001:00061c64       printSiteTable             10062c64 f   test:siteMgrDebug.obj
 0001:00062a2c       printSiteMgrHelpMenu       10063a2c f   test:siteMgrDebug.obj
 0001:00062d30       siteMgrDebugFunction       10063d30 f   test:siteMgrDebug.obj
 0001:00063324       printCtrlDbgFunctions      10064324 f   test:ctrlDbg.obj
 0001:00063380       ctrlDebugFunction          10064380 f   test:ctrlDbg.obj
 0001:0006346c       printTxRxDbgFunctions      1006446c f   test:TxDbg.obj
 0001:000635ac       rxTxDebugFunction          100645ac f   test:TxDbg.obj
 0001:00063794       context_Create             10064794 f   utils:context.obj
 0001:000637dc       context_Destroy            100647dc f   utils:context.obj
 0001:0006380c       context_Init               1006480c f   utils:context.obj
 0001:0006382c       context_SetDefaults        1006482c f   utils:context.obj
 0001:00063840       context_RegisterClient     10064840 f   utils:context.obj
 0001:0006397c       context_DriverTask         1006497c f   utils:context.obj
 0001:00063a6c       context_EnableClient       10064a6c f   utils:context.obj
 0001:00063b80       context_DisableClient      10064b80 f   utils:context.obj
 0001:00063c44       context_EnterCriticalSection 10064c44 f   utils:context.obj
 0001:00063ca4       context_LeaveCriticalSection 10064ca4 f   utils:context.obj
 0001:00063d04       context_Print              10064d04 f   utils:context.obj
 0001:00063db8       context_RequestSchedule    10064db8 f   utils:context.obj
 0001:00063e7c       que_Create                 10064e7c f   utils:queue.obj
 0001:00063ee8       que_Destroy                10064ee8 f   utils:queue.obj
 0001:00063f58       que_Enqueue                10064f58 f   utils:queue.obj
 0001:00064088       que_Dequeue                10065088 f   utils:queue.obj
 0001:00064120       que_Requeue                10065120 f   utils:queue.obj
 0001:00064250       que_Size                   10065250 f   utils:queue.obj
 0001:00064258       que_Print                  10065258 f   utils:queue.obj
 0001:000642a4       report_Create              100652a4 f   utils:report.obj
 0001:00064398       report_Unload              10065398 f   utils:report.obj
 0001:000643c4       report_GetReportFilesTable 100653c4 f   utils:report.obj
 0001:00064430       report_SetReportFilesTable 10065430 f   utils:report.obj
 0001:0006449c       report_GetReportSeverityTable 1006549c f   utils:report.obj
 0001:00064508       report_SetReportSeverityTable 10065508 f   utils:report.obj
 0001:00064574       report_SetParam            10065574 f   utils:report.obj
 0001:000646c4       report_GetParam            100656c4 f   utils:report.obj
 0001:00064774       report_Dump                10065774 f   utils:report.obj
 0001:00064808       report_PrintDump           10065808 f   utils:report.obj
 0001:00064900       handleRunProblem           10065900 f   utils:report.obj
 0001:00064904       report_SetDefaults         10065904 f   utils:report.obj
 0001:0006494c       tmr_Create                 1006594c f   utils:timer.obj
 0001:00064994       tmr_Destroy                10065994 f   utils:timer.obj
 0001:000649ec       tmr_ClearOperQueue         100659ec f   utils:timer.obj
 0001:00064a1c       tmr_UpdateDriverState      10065a1c f   utils:timer.obj
 0001:00064ad8       tmr_DestroyTimer           10065ad8 f   utils:timer.obj
 0001:00064b18       tmr_StartTimer             10065b18 f   utils:timer.obj
 0001:00064b54       tmr_StopTimer              10065b54 f   utils:timer.obj
 0001:00064b7c       tmr_GetExpiry              10065b7c f   utils:timer.obj
 0001:00064bd4       tmr_HandleExpiry           10065bd4 f   utils:timer.obj
 0001:00064c6c       tmr_PrintModule            10065c6c f   utils:timer.obj
 0001:00064ccc       tmr_Init                   10065ccc f   utils:timer.obj
 0001:00064d74       tmr_CreateTimer            10065d74 f   utils:timer.obj
 0001:00064e50       rate_NetToDrv              10065e50 f   utils:rate.obj
 0001:00065074       rate_DrvToNet              10066074 f   utils:rate.obj
 0001:00065150       rate_GetMaxFromDrvBitmap   10066150 f   utils:rate.obj
 0001:0006533c       rate_GetMaxBasicFromStr    1006633c f   utils:rate.obj
 0001:00065390       rate_GetMaxActiveFromStr   10066390 f   utils:rate.obj
 0001:000653e4       rate_DrvBitmapToNetStr     100663e4 f   utils:rate.obj
 0001:00065574       rate_DrvBitmapToNetStrIncluding11n 10066574 f   utils:rate.obj
 0001:000656a0       rate_NetStrToDrvBitmap     100666a0 f   utils:rate.obj
 0001:00065944       rate_NetBasicStrToDrvBitmap 10066944 f   utils:rate.obj
 0001:00065b28       rate_McsNetStrToDrvBitmap  10066b28 f   utils:rate.obj
 0001:00065b40       rate_DrvBitmapToHwBitmap   10066b40 f   utils:rate.obj
 0001:00065bf8       rate_PolicyToDrv           10066bf8 f   utils:rate.obj
 0001:00065ce4       rate_BasicToDrvBitmap      10066ce4 f   utils:rate.obj
 0001:00065de4       rate_SupportedToDrvBitmap  10066de4 f   utils:rate.obj
 0001:00065ed0       rate_ValidateVsBand        10066ed0 f   utils:rate.obj
 0001:00065f0c       rate_NumberToDrv           10066f0c f   utils:rate.obj
 0001:00066020       rate_GetDrvBitmapForDefaultBasicSet 10067020 f   utils:rate.obj
 0001:00066028       rate_GetDrvBitmapForDefaultSupporteSet 10067028 f   utils:rate.obj
 0001:00066030       fsm_Create                 10067030 f   utils:fsm.obj
 0001:000660c4       fsm_Unload                 100670c4 f   utils:fsm.obj
 0001:00066118       fsm_Config                 10067118 f   utils:fsm.obj
 0001:0006618c       fsm_Event                  1006718c f   utils:fsm.obj
 0001:00066224       fsm_GetNextState           10067224 f   utils:fsm.obj
 0001:00066268       genSM_Create               10067268 f   utils:GenSM.obj
 0001:00066288       genSM_Unload               10067288 f   utils:GenSM.obj
 0001:000662a4       genSM_Init                 100672a4 f   utils:GenSM.obj
 0001:000662ac       genSM_SetDefaults          100672ac f   utils:GenSM.obj
 0001:000662f0       genSM_Event                100672f0 f   utils:GenSM.obj
 0001:000664e4       genSM_GetCurrentState      100674e4 f   utils:GenSM.obj
 0001:00066514       Freq2Chan                  10067514 f   utils:freq.obj
 0001:0006655c       Chan2Freq                  1006755c f   utils:freq.obj
 0001:00066640       hPlatform_DevicePowerOff   10067640 f   host_platform_Z2170P:host_platform.obj
 0001:00066664       hPlatform_DevicePowerOffSetLongerDelay 10067664 f   host_platform_Z2170P:host_platform.obj
 0001:00066688       hPlatform_DevicePowerOn    10067688 f   host_platform_Z2170P:host_platform.obj
 0001:000666ac       hPlatform_Wlan_Hardware_Init 100676ac f   host_platform_Z2170P:host_platform.obj
 0001:00066720       hPlatform_Wlan_Hardware_DeInit 10067720 f   host_platform_Z2170P:host_platform.obj
 0001:00066724       hPlatform_Wlan_Intr_Enable 10067724 f   host_platform_Z2170P:host_platform.obj
 0001:000668a8       sdioAdapt_ConnectBus       100678a8 f   host_platform_Z2170P:SdioAdapter.obj
 0001:00066ba8       sdioAdapt_DisconnectBus    10067ba8 f   host_platform_Z2170P:SdioAdapter.obj
 0001:00066bb8       sdioAdapt_Transact         10067bb8 f   host_platform_Z2170P:SdioAdapter.obj
 0001:00066c98       sdioAdapt_TransactBytes    10067c98 f   host_platform_Z2170P:SdioAdapter.obj
 0001:00066d10       GPIOClose                  10067d10 f   ceddk:CEDDK.dll
 0001:00066d20       GPIOClrBit                 10067d20 f   ceddk:CEDDK.dll
 0001:00066d30       GPIOSetBit                 10067d30 f   ceddk:CEDDK.dll
 0001:00066d40       GPIOSetMode                10067d40 f   ceddk:CEDDK.dll
 0001:00066d50       GPIOOpen                   10067d50 f   ceddk:CEDDK.dll
 0001:00066d60       MmUnmapIoSpace             10067d60 f   ceddk:CEDDK.dll
 0001:00066d70       MmMapIoSpace               10067d70 f   ceddk:CEDDK.dll
 0001:00066d80       GPIOGetSystemIrq           10067d80 f   ceddk:CEDDK.dll
 0001:00066d90       EventModify                10067d90 f   coredll:COREDLL.dll
 0001:00066da0       NKDbgPrintfW               10067da0 f   coredll:COREDLL.dll
 0001:00066db0       GetLastError               10067db0 f   coredll:COREDLL.dll
 0001:00066dc0       CreateEventW               10067dc0 f   coredll:COREDLL.dll
 0001:00066dd0       InitializeCriticalSection  10067dd0 f   coredll:COREDLL.dll
 0001:00066de0       DeleteCriticalSection      10067de0 f   coredll:COREDLL.dll
 0001:00066df0       EnterCriticalSection       10067df0 f   coredll:COREDLL.dll
 0001:00066e00       LeaveCriticalSection       10067e00 f   coredll:COREDLL.dll
 0001:00066e10       WaitForSingleObject        10067e10 f   coredll:COREDLL.dll
 0001:00066e20       CloseHandle                10067e20 f   coredll:COREDLL.dll
 0001:00066e30       CeSetThreadPriority        10067e30 f   coredll:COREDLL.dll
 0001:00066e40       MultiByteToWideChar        10067e40 f   coredll:COREDLL.dll
 0001:00066e50       DisableThreadLibraryCalls  10067e50 f   coredll:COREDLL.dll
 0001:00066e60       CreateThread               10067e60 f   coredll:COREDLL.dll
 0001:00066e70       GetTickCount               10067e70 f   coredll:COREDLL.dll
 0001:00066e80       SetProcPermissions         10067e80 f   coredll:COREDLL.dll
 0001:00066e90       Sleep                      10067e90 f   coredll:COREDLL.dll
 0001:00066ea0       NdisMInitializeTimer       10067ea0 f   ndis:NDIS.dll
 0001:00066eb0       NdisSetTimer               10067eb0 f   ndis:NDIS.dll
 0001:00066ec0       NdisMCancelTimer           10067ec0 f   ndis:NDIS.dll
 0001:00066ed0       NdisGetSystemUpTime        10067ed0 f   ndis:NDIS.dll
 0001:00066ee0       NdisMSleep                 10067ee0 f   ndis:NDIS.dll
 0001:00066ef0       NdisAllocateMemoryWithTag  10067ef0 f   ndis:NDIS.dll
 0001:00066f00       NdisFreeMemory             10067f00 f   ndis:NDIS.dll
 0001:00066f10       NdisFreeBufferPool         10067f10 f   ndis:NDIS.dll
 0001:00066f20       NdisFreePacketPool         10067f20 f   ndis:NDIS.dll
 0001:00066f30       NdisCloseConfiguration     10067f30 f   ndis:NDIS.dll
 0001:00066f40       NdisCloseFile              10067f40 f   ndis:NDIS.dll
 0001:00066f50       NdisMRegisterInterrupt     10067f50 f   ndis:NDIS.dll
 0001:00066f60       NdisAllocateBufferPool     10067f60 f   ndis:NDIS.dll
 0001:00066f70       NdisAllocatePacketPool     10067f70 f   ndis:NDIS.dll
 0001:00066f80       NdisMSetAttributesEx       10067f80 f   ndis:NDIS.dll
 0001:00066f90       NdisOpenConfiguration      10067f90 f   ndis:NDIS.dll
 0001:00066fa0       NdisTerminateWrapper       10067fa0 f   ndis:NDIS.dll
 0001:00066fb0       NdisWriteErrorLogEntry     10067fb0 f   ndis:NDIS.dll
 0001:00066fc0       NdisMRegisterMiniport      10067fc0 f   ndis:NDIS.dll
 0001:00066fd0       NdisInitializeWrapper      10067fd0 f   ndis:NDIS.dll
 0001:00066fe0       NdisFreePacket             10067fe0 f   ndis:NDIS.dll
 0001:00066ff0       NdisFreeBuffer             10067ff0 f   ndis:NDIS.dll
 0001:00067000       NdisQueryPacket            10068000 f   ndis:NDIS.dll
 0001:00067010       NdisAllocateBuffer         10068010 f   ndis:NDIS.dll
 0001:00067020       NdisAllocatePacket         10068020 f   ndis:NDIS.dll
 0001:00067030       NdisMapFile                10068030 f   ndis:NDIS.dll
 0001:00067040       NdisOpenFile               10068040 f   ndis:NDIS.dll
 0001:00067050       NdisInitializeString       10068050 f   ndis:NDIS.dll
 0001:00067060       NdisUnicodeStringToAnsiString 10068060 f   ndis:NDIS.dll
 0001:00067070       NdisReadConfiguration      10068070 f   ndis:NDIS.dll
 0001:00067080       closesocket                10068080 f   ws2:WS2.dll
 0001:00067090       sendto                     10068090 f   ws2:WS2.dll
 0001:000670a0       htons                      100680a0 f   ws2:WS2.dll
 0001:000670b0       htonl                      100680b0 f   ws2:WS2.dll
 0001:000670c0       WSACleanup                 100680c0 f   ws2:WS2.dll
 0001:000670d0       socket                     100680d0 f   ws2:WS2.dll
 0001:000670e0       WSAStartup                 100680e0 f   ws2:WS2.dll
 0001:000670f0       inet_addr                  100680f0 f   ws2:WS2.dll
 0001:00067100       sdioDrv_ExecuteCmd         10068100 f   sdi_Z2170P:SDI.dll
 0001:00067110       sdioDrv_ReadSync           10068110 f   sdi_Z2170P:SDI.dll
 0001:00067120       sdioDrv_WriteSync          10068120 f   sdi_Z2170P:SDI.dll
 0001:00067130       sdioDrv_ReadSyncBytes      10068130 f   sdi_Z2170P:SDI.dll
 0001:00067140       sdioDrv_WriteSyncBytes     10068140 f   sdi_Z2170P:SDI.dll
 0001:00067150       sdioDrv_ConnectBus         10068150 f   sdi_Z2170P:SDI.dll
 0001:00067160       sdioDrv_DisconnectBus      10068160 f   sdi_Z2170P:SDI.dll
 0001:00067170       sdioDrv_WriteAsync         10068170 f   sdi_Z2170P:SDI.dll
 0001:00067180       sdioDrv_ReadAsync          10068180 f   sdi_Z2170P:SDI.dll
 0001:00067190       sdiodrv_clkstop            10068190 f   sdi_Z2170P:SDI.dll
 0001:000671a0       sdiodrv_clkset             100681a0 f   sdi_Z2170P:SDI.dll
 0001:000671b0       __GSHandlerCheckCommon     100681b0 f   corelib0:gshandler.obj
 0001:000671ec       __GSHandlerCheck           100681ec f   corelib0:gshandler.obj
 0001:00067210       __security_check_cookie    10068210 f   corelib0:armsecgs.obj
 0001:00067224       __gsfailure                10068224 f   corelib0:armsecgs.obj
 0001:00067268       __GSHandlerCheck_SEH       10068268 f   corelib0:gshandlerseh.obj
 0001:000672b8       memset                     100682b8 f   corelib1:COREDLL.dll
 0001:000672c8       vsprintf                   100682c8 f   corelib1:COREDLL.dll
 0001:000672d8       strlen                     100682d8 f   corelib1:COREDLL.dll
 0001:000672e8       memcpy                     100682e8 f   corelib1:COREDLL.dll
 0001:000672f8       memcmp                     100682f8 f   corelib1:COREDLL.dll
 0001:00067308       __rt_sdiv                  10068308 f   corelib1:COREDLL.dll
 0001:00067318       printf                     10068318 f   corelib1:COREDLL.dll
 0001:00067328       malloc                     10068328 f   corelib1:COREDLL.dll
 0001:00067338       __rt_udiv                  10068338 f   corelib1:COREDLL.dll
 0001:00067348       __report_gsfailure         10068348 f   corelib1:COREDLL.dll
 0001:00067358       __C_specific_handler       10068358 f   corelib1:COREDLL.dll
 0001:00067368       regulatoryDomain_create    10068368 f   AirLink_Managment:regulatoryDomain.obj
 0001:00067380       regulatoryDomain_init      10068380 f   AirLink_Managment:regulatoryDomain.obj
 0001:000673c8       regulatoryDomain_destroy   100683c8 f   AirLink_Managment:regulatoryDomain.obj
 0001:00067e0c       regDomainPrintValidTables  10068e0c f   AirLink_Managment:regulatoryDomain.obj
 0001:00067eec       regulatoryDomain_SetDefaults 10068eec f   AirLink_Managment:regulatoryDomain.obj
 0001:00068984       regulatoryDomain_setParam  10069984 f   AirLink_Managment:regulatoryDomain.obj
 0001:00069070       regulatoryDomain_getParam  1006a070 f   AirLink_Managment:regulatoryDomain.obj
 0001:0006954c       SoftGemini_create          1006a54c f   AirLink_Managment:SoftGemini.obj
 0001:00069574       SoftGemini_init            1006a574 f   AirLink_Managment:SoftGemini.obj
 0001:000695c4       SoftGemini_destroy         1006a5c4 f   AirLink_Managment:SoftGemini.obj
 0001:000699d0       SoftGemini_SetPSmode       1006a9d0 f   AirLink_Managment:SoftGemini.obj
 0001:00069a24       SoftGemini_unSetPSmode     1006aa24 f   AirLink_Managment:SoftGemini.obj
 0001:00069a78       SoftGemini_printParams     1006aa78 f   AirLink_Managment:SoftGemini.obj
 0001:00069e8c       SoftGemini_ProtectiveIndicationCB 1006ae8c f   AirLink_Managment:SoftGemini.obj
 0001:00069ffc       SoftGemini_getParam        1006affc f   AirLink_Managment:SoftGemini.obj
 0001:0006a0e4       SoftGemini_SenseIndicationCB 1006b0e4 f   AirLink_Managment:SoftGemini.obj
 0001:0006a408       SoftGemini_SetDefaults     1006b408 f   AirLink_Managment:SoftGemini.obj
 0001:0006a578       SoftGemini_setParam        1006b578 f   AirLink_Managment:SoftGemini.obj
 0001:0006a6b8       measurementMgr_SetDefaults 1006b6b8 f   AirLink_Managment:measurementMgr.obj
 0001:0006a738       measurementMgr_getParam    1006b738 f   AirLink_Managment:measurementMgr.obj
 0001:0006a870       measurementMgr_connected   1006b870 f   AirLink_Managment:measurementMgr.obj
 0001:0006a8e4       measurementMgr_disconnected 1006b8e4 f   AirLink_Managment:measurementMgr.obj
 0001:0006a944       measurementMgr_enable      1006b944 f   AirLink_Managment:measurementMgr.obj
 0001:0006a9a8       measurementMgr_disable     1006b9a8 f   AirLink_Managment:measurementMgr.obj
 0001:0006aa0c       measurementMgr_setMeasurementMode 1006ba0c f   AirLink_Managment:measurementMgr.obj
 0001:0006aa68       measurementMgr_rejectPendingRequests 1006ba68 f   AirLink_Managment:measurementMgr.obj
 0001:0006ab38       measurementMgr_MeasurementCompleteCB 1006bb38 f   AirLink_Managment:measurementMgr.obj
 0001:0006ac14       measurementMgr_scrResponseCB 1006bc14 f   AirLink_Managment:measurementMgr.obj
 0001:0006b3ac       measurementMgr_create      1006c3ac f   AirLink_Managment:measurementMgr.obj
 0001:0006b428       measurementMgr_init        1006c428 f   AirLink_Managment:measurementMgr.obj
 0001:0006b598       measurementMgr_setParam    1006c598 f   AirLink_Managment:measurementMgr.obj
 0001:0006b798       measurementMgr_destroy     1006c798 f   AirLink_Managment:measurementMgr.obj
 0001:0006b7fc       measurementMgr_activateNextRequest 1006c7fc f   AirLink_Managment:measurementMgr.obj
 0001:0006bc6c       measurementMgr_mlmeResultCB 1006cc6c f   AirLink_Managment:measurementMgr.obj
 0001:0006c0ac       switchChannel_scrStatusCB  1006d0ac f   AirLink_Managment:SwitchChannel.obj
 0001:0006c530       switchChannelDebug_setCmdParams 1006d530 f   AirLink_Managment:SwitchChannel.obj
 0001:0006c5c0       switchChannelDebug_SwitchChannelCmdTest 1006d5c0 f   AirLink_Managment:SwitchChannel.obj
 0001:0006c618       switchChannelDebug_CancelSwitchChannelCmdTest 1006d618 f   AirLink_Managment:SwitchChannel.obj
 0001:0006c658       switchChannelDebug_printStatus 1006d658 f   AirLink_Managment:SwitchChannel.obj
 0001:0006c6a0       switchChannelDebug_setChannelValidity 1006d6a0 f   AirLink_Managment:SwitchChannel.obj
 0001:0006c6f4       switchChannel_create       1006d6f4 f   AirLink_Managment:SwitchChannel.obj
 0001:0006c768       switchChannel_stop         1006d768 f   AirLink_Managment:SwitchChannel.obj
 0001:0006c78c       switchChannel_start        1006d78c f   AirLink_Managment:SwitchChannel.obj
 0001:0006c7b0       switchChannel_unload       1006d7b0 f   AirLink_Managment:SwitchChannel.obj
 0001:0006c7ec       switchChannel_recvCmd      1006d7ec f   AirLink_Managment:SwitchChannel.obj
 0001:0006c9e4       switchChannel_SwitchChannelCmdCompleteReturn 1006d9e4 f   AirLink_Managment:SwitchChannel.obj
 0001:0006ca4c       switchChannel_enableDisableSpectrumMngmt 1006da4c f   AirLink_Managment:SwitchChannel.obj
 0001:0006cfa8       switchChannel_init         1006dfa8 f   AirLink_Managment:SwitchChannel.obj
 0001:0006d208       switchChannel_SetDefaults  1006e208 f   AirLink_Managment:SwitchChannel.obj
 0001:0006d2c4       measurementMgrSM_event     1006e2c4 f   AirLink_Managment:measurementMgrSM.obj
 0001:0006e5f8       measurementMgrSM_config    1006f5f8 f   AirLink_Managment:measurementMgrSM.obj
 0001:0006e9b4       requestHandler_create      1006f9b4 f   AirLink_Managment:requestHandler.obj
 0001:0006e9c8       RequestHandler_config      1006f9c8 f   AirLink_Managment:requestHandler.obj
 0001:0006ea4c       requestHandler_getNextReq  1006fa4c f   AirLink_Managment:requestHandler.obj
 0001:0006ebc4       requestHandler_clearRequests 1006fbc4 f   AirLink_Managment:requestHandler.obj
 0001:0006ec58       requestHandler_setRequestParserFunction 1006fc58 f   AirLink_Managment:requestHandler.obj
 0001:0006ec64       requestHandler_destroy     1006fc64 f   AirLink_Managment:requestHandler.obj
 0001:0006ec84       requestHandler_insertRequests 1006fc84 f   AirLink_Managment:requestHandler.obj
 0001:0006ee1c       measurementMgr_dot11hParseFrameReq 1006fe1c f   AirLink_Managment:spectrumMngmntMgr.obj
 0001:0006ee60       measurementMgr_dot11hParseRequestIEHdr 1006fe60 f   AirLink_Managment:spectrumMngmntMgr.obj
 0001:0006eea4       measurementMgr_dot11hIsTypeValid 1006fea4 f   AirLink_Managment:spectrumMngmntMgr.obj
 0001:0006eebc       measurementMgr_dot11hBuildRejectReport 1006febc f   AirLink_Managment:spectrumMngmntMgr.obj
 0001:0006eff8       measurementMgr_dot11hBuildReport 1006fff8 f   AirLink_Managment:spectrumMngmntMgr.obj
 0001:0006f028       measurementMgr_dot11hSendReportAndCleanObject 10070028 f   AirLink_Managment:spectrumMngmntMgr.obj
 0001:0006f098       roamingMngr_updateNeighborApListCb 10070098 f   Application:roamingMngr.obj
 0001:0006f148       roamingMngr_smEvent        10070148 f   Application:roamingMngr.obj
 0001:0006f3f4       roamingMngr_create         100703f4 f   Application:roamingMngr.obj
 0001:0006f450       roamingMngr_unload         10070450 f   Application:roamingMngr.obj
 0001:0006f480       roamingMngr_init           10070480 f   Application:roamingMngr.obj
 0001:0006f4d0       roamingMngr_getParam       100704d0 f   Application:roamingMngr.obj
 0001:0006fa88       roamingMngr_immediateScanComplete 10070a88 f   Application:roamingMngr.obj
 0001:0006fc3c       roamingMngr_updateNewBssList 10070c3c f   Application:roamingMngr.obj
 0001:0006fd64       roamingMngr_smNop          10070d64 f   Application:roamingMngr.obj
 0001:0006fdb4       roamingMngr_smUnexpected   10070db4 f   Application:roamingMngr.obj
 0001:0006fe18       roamingMngr_smStop         10070e18 f   Application:roamingMngr.obj
 0001:0006fe44       roamingMngr_smStopWhileScanning 10070e44 f   Application:roamingMngr.obj
 0001:0006feb8       roamingMngr_setBssLossThreshold 10070eb8 f   Application:roamingMngr.obj
 0001:0006ff7c       roamingMngr_connect        10070f7c f   Application:roamingMngr.obj
 0001:0007019c       roamingMngr_startImmediateScan 1007119c f   Application:roamingMngr.obj
 0001:00070208       roamingMngr_immediateScanByAppComplete 10071208 f   Application:roamingMngr.obj
 0001:00070220       roamingMngr_triggerRoamingCb 10071220 f   Application:roamingMngr.obj
 0001:0007048c       roamingMngr_connStatusCb   1007148c f   Application:roamingMngr.obj
 0001:0007069c       roamingMngr_setParam       1007169c f   Application:roamingMngr.obj
 0001:00070a0c       roamingMngr_setDefaults    10071a0c f   Application:roamingMngr.obj
 0001:00070cd0       scanMngrFreeMem            10071cd0 f   Application:scanMngr.obj
 0001:00070d40       scanMngrUpdateBSSInfo      10071d40 f   Application:scanMngr.obj
 0001:00070f38       scanMngrGetTrackIndexByBssid 10071f38 f   Application:scanMngr.obj
 0001:00070fd8       scanMngrGetPolicyByBand    10071fd8 f   Application:scanMngr.obj
 0001:0007102c       scanMngrNeighborAPsAvailableForDiscovery 1007202c f   Application:scanMngr.obj
 0001:00071070       scanMngrBuildScanCommandHeader 10072070 f   Application:scanMngr.obj
 0001:00071160       scanMngrCalculateNextEventTSF 10072160 f   Application:scanMngr.obj
 0001:000712a4       scanMngrDTIMInRange        100722a4 f   Application:scanMngr.obj
 0001:00071400       scanMngrAddNormalChannel   10072400 f   Application:scanMngr.obj
 0001:00071504       scanMngrRemoveBSSListEntry 10072504 f   Application:scanMngr.obj
 0001:00071620       scanMngrGetNeighborAPIndex 10072620 f   Application:scanMngr.obj
 0001:000716cc       scanMngrIsPolicyChannel    100726cc f   Application:scanMngr.obj
 0001:00071724       scanMngrConvertResultStatus 10072724 f   Application:scanMngr.obj
 0001:0007178c       scanMngrTracePrintNeighborAP 1007278c f   Application:scanMngr.obj
 0001:0007181c       scanMngrTracePrintNormalScanMethod 1007281c f   Application:scanMngr.obj
 0001:00071880       scanMngrTracePrintSPSScanMethod 10072880 f   Application:scanMngr.obj
 0001:000718c4       scanMngrDebugPrintBSSEntry 100728c4 f   Application:scanMngr.obj
 0001:000719a0       scanMngr_create            100729a0 f   Application:scanMngr.obj
 0001:00071a68       scanMngr_unload            10072a68 f   Application:scanMngr.obj
 0001:00071a78       scanMngr_stopImmediateScan 10072a78 f   Application:scanMngr.obj
 0001:00071b74       scanMngr_stopContScan      10072b74 f   Application:scanMngr.obj
 0001:00071d50       scanMngr_getBSSList        10072d50 f   Application:scanMngr.obj
 0001:00071eac       scanMngr_qualityChangeTrigger 10072eac f   Application:scanMngr.obj
 0001:00071f88       scanMngr_handoverDone      10072f88 f   Application:scanMngr.obj
 0001:00072290       scanMngr_getParam          10073290 f   Application:scanMngr.obj
 0001:00072370       scanMngr_startManual       10073370 f   Application:scanMngr.obj
 0001:000723e4       scanMngr_stopManual        100733e4 f   Application:scanMngr.obj
 0001:000723f0       scanMngr_setManualScanChannelList 100733f0 f   Application:scanMngr.obj
 0001:00072430       scanMngr_Start1ShotScan    10073430 f   Application:scanMngr.obj
 0001:000724bc       scanMngr_reportImmediateScanResults 100734bc f   Application:scanMngr.obj
 0001:00072584       scanMngrStatsPrintScanResultHistogram 10073584 f   Application:scanMngr.obj
 0001:000725d8       scanMngrStatsPrintTrackFailHistogrsm 100735d8 f   Application:scanMngr.obj
 0001:00072654       scanMngrStatsPrintSPSChannelsHistogram 10073654 f   Application:scanMngr.obj
 0001:00072710       scanMngr_statsReset        10073710 f   Application:scanMngr.obj
 0001:00072734       scanMngrDebugPrintNeighborAP 10073734 f   Application:scanMngr.obj
 0001:0007279c       scanMngrDebugPrintNormalChannelParam 1007379c f   Application:scanMngr.obj
 0001:00072824       scanMngrDebugPrintSPSChannelParam 10073824 f   Application:scanMngr.obj
 0001:00072934       scanMngrPerformAging       10073934 f   Application:scanMngr.obj
 0001:000729f8       scanMngrInsertNewBSSToTrackingList 100739f8 f   Application:scanMngr.obj
 0001:00072c6c       scanMngrIsDiscoveryValid   10073c6c f   Application:scanMngr.obj
 0001:00072db0       scanMngrBuildImmediateScanCommand 10073db0 f   Application:scanMngr.obj
 0001:00073080       scanMngrAddNeighborAPsForDiscovery 10074080 f   Application:scanMngr.obj
 0001:0007325c       scanMngrAddChannelListForDiscovery 1007425c f   Application:scanMngr.obj
 0001:0007344c       scanMngrAddSPSChannels     1007444c f   Application:scanMngr.obj
 0001:00073bfc       scanMngrUpdateBSSList      10074bfc f   Application:scanMngr.obj
 0001:00073d14       scanMngrTracePrintNeighborAPsList 10074d14 f   Application:scanMngr.obj
 0001:00073e04       scanMngrTracePrintScanMethod 10074e04 f   Application:scanMngr.obj
 0001:00073e98       scanMngrDebugPrintBSSList  10074e98 f   Application:scanMngr.obj
 0001:00073f7c       scanMngr_startImmediateScan 10074f7c f   Application:scanMngr.obj
 0001:00074334       scanMngr_notifyChangeTrigger 10075334 f   Application:scanMngr.obj
 0001:000743b8       scanMngr_immediateScanComplete 100753b8 f   Application:scanMngr.obj
 0001:00074400       scanMngr_stopContinuousScanByApp 10075400 f   Application:scanMngr.obj
 0001:0007448c       scanMngr_statsPrint        1007548c f   Application:scanMngr.obj
 0001:00074590       scanMngrDebugPrintNeighborAPList 10075590 f   Application:scanMngr.obj
 0001:0007466c       scanMngrDebugPrintScanCommand 1007566c f   Application:scanMngr.obj
 0001:000749c8       scanMngrSetNextDiscoveryPart 100759c8 f   Application:scanMngr.obj
 0001:00074a58       scanMngrBuildTrackScanCommand 10075a58 f   Application:scanMngr.obj
 0001:00074d30       scanMngrBuildDiscoveryScanCommand 10075d30 f   Application:scanMngr.obj
 0001:00074f78       scanMngrTracePrintBandScanPolicy 10075f78 f   Application:scanMngr.obj
 0001:00075080       scanMngr_setNeighborAPs    10076080 f   Application:scanMngr.obj
 0001:00075364       scanMngrPerformContinuousScan 10076364 f   Application:scanMngr.obj
 0001:0007571c       scanMngrUpdateReceivedFrame 1007671c f   Application:scanMngr.obj
 0001:00075a44       scanMngrTracePrintScanPolicy 10076a44 f   Application:scanMngr.obj
 0001:00075ae8       scanMngrDebugPrintObject   10076ae8 f   Application:scanMngr.obj
 0001:00075cd8       scanMngr_immedScanCB       10076cd8 f   Application:scanMngr.obj
 0001:00075f20       scanMngr_contScanCB        10076f20 f   Application:scanMngr.obj
 0001:000764dc       scanMngrGetCurrentTsfDtimMibCB 100774dc f   Application:scanMngr.obj
 0001:000765a4       scanMngr_GetUpdatedTsfDtimMibForScan 100775a4 f   Application:scanMngr.obj
 0001:00076694       scanMngr_init              10077694 f   Application:scanMngr.obj
 0001:0007681c       scanMngr_startScanTimer    1007781c f   Application:scanMngr.obj
 0001:0007686c       scanMngr_setScanPolicy     1007786c f   Application:scanMngr.obj
 0001:00076968       scanMngr_startContScan     10077968 f   Application:scanMngr.obj
 0001:00076bcc       scanMngr_setParam          10077bcc f   Application:scanMngr.obj
 0001:00076cb8       scanMngr_SetDefaults       10077cb8 f   Application:scanMngr.obj
 0001:00076e94       scanMngr_startContinuousScanByApp 10077e94 f   Application:scanMngr.obj
 0001:00077b38       sme_Init                   10078b38 f   Connection_Managment:sme.obj
 0001:00077bc0       sme_SetScanResultTable     10078bc0 f   Connection_Managment:sme.obj
 0001:00077bd4       sme_Destroy                10078bd4 f   Connection_Managment:sme.obj
 0001:00077c14       sme_GetParam               10078c14 f   Connection_Managment:sme.obj
 0001:00077df8       sme_MeansurementScanResult 10078df8 f   Connection_Managment:sme.obj
 0001:00077fd4       sme_SmEvent                10078fd4 f   Connection_Managment:sme.obj
 0001:00078050       sme_Create                 10079050 f   Connection_Managment:sme.obj
 0001:000780e4       sme_Start                  100790e4 f   Connection_Managment:sme.obj
 0001:0007816c       sme_Stop                   1007916c f   Connection_Managment:sme.obj
 0001:000781d0       sme_Restart                100791d0 f   Connection_Managment:sme.obj
 0001:00078238       sme_SetParam               10079238 f   Connection_Managment:sme.obj
 0001:000785e4       sme_ScanResultCB           100795e4 f   Connection_Managment:sme.obj
 0001:00078bac       sme_ReportConnStatus       10079bac f   Connection_Managment:sme.obj
 0001:00078cd8       sme_ReportApConnStatus     10079cd8 f   Connection_Managment:sme.obj
 0001:00078e14       sme_SetDefaults            10079e14 f   Connection_Managment:sme.obj
 0001:00078fd4       rsn_create                 10079fd4 f   Connection_Managment:rsn.obj
 0001:00079068       rsn_unload                 1007a068 f   Connection_Managment:rsn.obj
 0001:000790dc       rsn_SetDefaults            1007a0dc f   Connection_Managment:rsn.obj
 0001:000792ec       rsn_setDefaultKeys         1007a2ec f   Connection_Managment:rsn.obj
 0001:00079444       rsn_sendKeysNotSet         1007a444 f   Connection_Managment:rsn.obj
 0001:00079564       rsn_removedDefKeys         1007a564 f   Connection_Managment:rsn.obj
 0001:00079674       rsn_getParamEncryptionStatus 1007a674 f   Connection_Managment:rsn.obj
 0001:000796ac       rsn_getParam               1007a6ac f   Connection_Managment:rsn.obj
 0001:00079bd4       rsn_reportStatus           1007abd4 f   Connection_Managment:rsn.obj
 0001:00079d70       rsn_setPaeConfig           1007ad70 f   Connection_Managment:rsn.obj
 0001:00079e54       rsn_getNetworkMode         1007ae54 f   Connection_Managment:rsn.obj
 0001:00079ecc       rsn_setSite                1007aecc f   Connection_Managment:rsn.obj
 0001:00079f74       rsn_removeKey              1007af74 f   Connection_Managment:rsn.obj
 0001:0007a148       rsn_setDefaultKeyId        1007b148 f   Connection_Managment:rsn.obj
 0001:0007a220       rsn_groupReKeyTimeout      1007b220 f   Connection_Managment:rsn.obj
 0001:0007a230       rsn_pairwiseReKeyTimeout   1007b230 f   Connection_Managment:rsn.obj
 0001:0007a240       rsn_micFailureReportTimeout 1007b240 f   Connection_Managment:rsn.obj
 0001:0007a2a8       rsn_resetPMKIDList         1007b2a8 f   Connection_Managment:rsn.obj
 0001:0007a2d4       rsn_startPreAuth           1007b2d4 f   Connection_Managment:rsn.obj
 0001:0007a35c       rsn_setPortStatus          1007b35c f   Connection_Managment:rsn.obj
 0001:0007a5c0       rsn_getPortStatus          1007b5c0 f   Connection_Managment:rsn.obj
 0001:0007a5d0       rsn_getGenInfoElement      1007b5d0 f   Connection_Managment:rsn.obj
 0001:0007a628       rsn_clearGenInfoElement    1007b628 f   Connection_Managment:rsn.obj
 0001:0007a68c       rsn_reAuth                 1007b68c f   Connection_Managment:rsn.obj
 0001:0007a6e8       rsn_start                  1007b6e8 f   Connection_Managment:rsn.obj
 0001:0007a840       rsn_stop                   1007b840 f   Connection_Managment:rsn.obj
 0001:0007a9ec       rsn_getInfoElement         1007b9ec f   Connection_Managment:rsn.obj
 0001:0007ab0c       rsn_setKey                 1007bb0c f   Connection_Managment:rsn.obj
 0001:0007b08c       rsn_isSiteBanned           1007c08c f   Connection_Managment:rsn.obj
 0001:0007b144       rsn_banSite                1007c144 f   Connection_Managment:rsn.obj
 0001:0007b31c       rsn_init                   1007c31c f   Connection_Managment:rsn.obj
 0001:0007b440       rsn_setParam               1007c440 f   Connection_Managment:rsn.obj
 0001:0007c138       rsn_evalSite               1007d138 f   Connection_Managment:rsn.obj
 0001:0007c260       rsn_reportAuthFailure      1007d260 f   Connection_Managment:rsn.obj
 0001:0007c37c       rsn_reportMicFailure       1007d37c f   Connection_Managment:rsn.obj
 0001:0007c614       conn_init                  1007d614 f   Connection_Managment:conn.obj
 0001:0007c744       conn_setParam              1007d744 f   Connection_Managment:conn.obj
 0001:0007c860       conn_getParam              1007d860 f   Connection_Managment:conn.obj
 0001:0007c8fc       conn_start                 1007d8fc f   Connection_Managment:conn.obj
 0001:0007ca14       conn_stop                  1007da14 f   Connection_Managment:conn.obj
 0001:0007cb40       conn_reportMlmeStatus      1007db40 f   Connection_Managment:conn.obj
 0001:0007ccb8       conn_ReportApConnStatus    1007dcb8 f   Connection_Managment:conn.obj
 0001:0007ce08       conn_reportRsnStatus       1007de08 f   Connection_Managment:conn.obj
 0001:0007cef8       conn_timeout               1007def8 f   Connection_Managment:conn.obj
 0001:0007cf58       conn_ibssStaJoined         1007df58 f   Connection_Managment:conn.obj
 0001:0007cf74       conn_ibssMerge             1007df74 f   Connection_Managment:conn.obj
 0001:0007d070       conn_ibssPrintStatistics   1007e070 f   Connection_Managment:conn.obj
 0001:0007d098       conn_create                1007e098 f   Connection_Managment:conn.obj
 0001:0007d134       conn_SetDefaults           1007e134 f   Connection_Managment:conn.obj
 0001:0007d204       conn_unLoad                1007e204 f   Connection_Managment:conn.obj
 0001:0007d21c       apConn_create              1007e21c f   Connection_Managment:apConn.obj
 0001:0007d288       apConn_unload              1007e288 f   Connection_Managment:apConn.obj
 0001:0007d2d0       apConn_init                1007e2d0 f   Connection_Managment:apConn.obj
 0001:0007d384       apConn_SetDefaults         1007e384 f   Connection_Managment:apConn.obj
 0001:0007d470       apConn_isPsRequiredBeforeScan 1007e470 f   Connection_Managment:apConn.obj
 0001:0007d484       apConn_getRoamThresholds   1007e484 f   Connection_Managment:apConn.obj
 0001:0007d4cc       apConn_setRoamThresholds   1007e4cc f   Connection_Managment:apConn.obj
 0001:0007d580       apConn_registerRoamMngrCallb 1007e580 f   Connection_Managment:apConn.obj
 0001:0007d648       apConn_getStaCapabilities  1007e648 f   Connection_Managment:apConn.obj
 0001:0007d8a8       apConn_getBSSParams        1007e8a8 f   Connection_Managment:apConn.obj
 0001:0007d8dc       apConn_isSiteBanned        1007e8dc f   Connection_Managment:apConn.obj
 0001:0007d8f8       apConn_getPreAuthAPStatus  1007e8f8 f   Connection_Managment:apConn.obj
 0001:0007d9a0       apConn_preAuthenticate     1007e9a0 f   Connection_Managment:apConn.obj
 0001:0007dc88       apConn_printStatistics     1007ec88 f   Connection_Managment:apConn.obj
 0001:0007dd88       apConn_getVendorSpecificIE 1007ed88 f   Connection_Managment:apConn.obj
 0001:0007e3b8       apConn_setDeauthPacketReasonCode 1007f3b8 f   Connection_Managment:apConn.obj
 0001:0007e3c8       apConn_ConnCompleteInd     1007f3c8 f   Connection_Managment:apConn.obj
 0001:0007e3e8       apConn_unregisterRoamMngrCallb 1007f3e8 f   Connection_Managment:apConn.obj
 0001:0007e440       apConn_disconnect          1007f440 f   Connection_Managment:apConn.obj
 0001:0007e4c0       apConn_connectToAP         1007f4c0 f   Connection_Managment:apConn.obj
 0001:0007e578       apConn_prepareToRoaming    1007f578 f   Connection_Managment:apConn.obj
 0001:0007e5c0       apConn_indicateSwitchChannelInProgress 1007f5c0 f   Connection_Managment:apConn.obj
 0001:0007e5fc       apConn_indicateSwitchChannelFinished 1007f5fc f   Connection_Managment:apConn.obj
 0001:0007e638       apConn_start               1007f638 f   Connection_Managment:apConn.obj
 0001:0007e680       apConn_stop                1007f680 f   Connection_Managment:apConn.obj
 0001:0007e6dc       apConn_reportRoamingEvent  1007f6dc f   Connection_Managment:apConn.obj
 0001:0007eb84       apConn_RoamHandoffFinished 1007fb84 f   Connection_Managment:apConn.obj
 0001:0007ebb8       apConn_DisconnCompleteInd  1007fbb8 f   Connection_Managment:apConn.obj
 0001:0007f298       sme_Select                 10080298 f   Connection_Managment:smeSelect.obj
 0001:00080a50       admCtrl_create             10081a50 f   Connection_Managment:admCtrl.obj
 0001:00080a90       admCtrl_unload             10081a90 f   Connection_Managment:admCtrl.obj
 0001:00080ad4       admCtrl_subConfig          10081ad4 f   Connection_Managment:admCtrl.obj
 0001:00080b30       admCtrl_setNetworkMode     10081b30 f   Connection_Managment:admCtrl.obj
 0001:00080b3c       admCtrl_setAuthSuite       10081b3c f   Connection_Managment:admCtrl.obj
 0001:00080b88       admCtrl_getAuthSuite       10081b88 f   Connection_Managment:admCtrl.obj
 0001:00080ba0       admCtrl_setExtAuthMode     10081ba0 f   Connection_Managment:admCtrl.obj
 0001:00080be8       admCtrl_getExtAuthMode     10081be8 f   Connection_Managment:admCtrl.obj
 0001:00080bf8       admCtrl_checkSetSuite      10081bf8 f   Connection_Managment:admCtrl.obj
 0001:00080c5c       admCtrl_setUcastSuite      10081c5c f   Connection_Managment:admCtrl.obj
 0001:00080ca4       admCtrl_setBcastSuite      10081ca4 f   Connection_Managment:admCtrl.obj
 0001:00080cec       admCtrl_getCipherSuite     10081cec f   Connection_Managment:admCtrl.obj
 0001:00080d14       admCtrl_setKeyMngSuite     10081d14 f   Connection_Managment:admCtrl.obj
 0001:00080d20       admCtrl_parseIe            10081d20 f   Connection_Managment:admCtrl.obj
 0001:00080e0c       admCtrl_setMixedMode       10081e0c f   Connection_Managment:admCtrl.obj
 0001:00080e20       admCtrl_getMixedMode       10081e20 f   Connection_Managment:admCtrl.obj
 0001:00080e30       admCtrl_getAuthEncrCapability 10081e30 f   Connection_Managment:admCtrl.obj
 0001:00080f38       admCtrl_nullSetPMKIDlist   10081f38 f   Connection_Managment:admCtrl.obj
 0001:00080f40       admCtrl_nullGetPMKIDlist   10081f40 f   Connection_Managment:admCtrl.obj
 0001:00080f48       admCtrl_resetPMKIDlist     10081f48 f   Connection_Managment:admCtrl.obj
 0001:00080f6c       admCtrl_getWPAMixedModeSupport 10081f6c f   Connection_Managment:admCtrl.obj
 0001:00080f88       admCtrl_getPromoteFlags    10081f88 f   Connection_Managment:admCtrl.obj
 0001:00080f98       admCtrl_setPromoteFlags    10081f98 f   Connection_Managment:admCtrl.obj
 0001:00080fc0       admCtrl_nullGetPreAuthStatus 10081fc0 f   Connection_Managment:admCtrl.obj
 0001:00080fc8       admCtrl_nullStartPreAuth   10081fc8 f   Connection_Managment:admCtrl.obj
 0001:00080fd0       admCtrl_nullGet802_1x_AkmExists 10081fd0 f   Connection_Managment:admCtrl.obj
 0001:00080fe0       admCtrl_notifyPreAuthStatus 10081fe0 f   Connection_Managment:admCtrl.obj
 0001:00081010       admCtrl_config             10082010 f   Connection_Managment:admCtrl.obj
 0001:00081260       mainSec_create             10082260 f   Connection_Managment:mainSecSm.obj
 0001:0008131c       mainSec_unload             1008231c f   Connection_Managment:mainSecSm.obj
 0001:0008142c       mainSec_setKey             1008242c f   Connection_Managment:mainSecSm.obj
 0001:000814f4       mainSec_removeKey          100824f4 f   Connection_Managment:mainSecSm.obj
 0001:00081594       mainSec_setDefaultKeyId    10082594 f   Connection_Managment:mainSecSm.obj
 0001:000815c0       mainSec_config             100825c0 f   Connection_Managment:mainSecSm.obj
 0001:00081778       externalSec_create         10082778 f   Connection_Managment:externalSec.obj
 0001:000817dc       externalSec_Destroy        100827dc f   Connection_Managment:externalSec.obj
 0001:0008185c       externalSec_event          1008285c f   Connection_Managment:externalSec.obj
 0001:0008193c       externalSecSM_setPort      1008293c f   Connection_Managment:externalSec.obj
 0001:00081968       externalSec_rsnComplete    10082968 f   Connection_Managment:externalSec.obj
 0001:00081980       externalSecSM_Nop          10082980 f   Connection_Managment:externalSec.obj
 0001:00081988       externalSecSM_Unexpected   10082988 f   Connection_Managment:externalSec.obj
 0001:000819dc       externalSecSM_start        100829dc f   Connection_Managment:externalSec.obj
 0001:000819f8       externalSecSM_stop         100829f8 f   Connection_Managment:externalSec.obj
 0001:00081a14       externalSec_config         10082a14 f   Connection_Managment:externalSec.obj
 0001:00081aec       conn_infraSMEvent          10082aec f   Connection_Managment:connInfra.obj
 0001:00081f38       conn_ConfigHwFinishCb      10082f38 f   Connection_Managment:connInfra.obj
 0001:0008260c       connInfra_JoinCmpltNotification 1008360c f   Connection_Managment:connInfra.obj
 0001:0008267c       connInfra_DisconnectComplete 1008367c f   Connection_Managment:connInfra.obj
 0001:00082ac8       InfraConnSM_ScrCB          10083ac8 f   Connection_Managment:connInfra.obj
 0001:00082c58       conn_infraConfig           10083c58 f   Connection_Managment:connInfra.obj
 0001:00082cb4       conn_ibssSMEvent           10083cb4 f   Connection_Managment:connIbss.obj
 0001:00082d94       connIbss_DisconnectComplete 10083d94 f   Connection_Managment:connIbss.obj
 0001:00083280       conn_ibssConfig            10084280 f   Connection_Managment:connIbss.obj
 0001:00083508       admCtrlWep_getInfoElement  10084508 f   Connection_Managment:admCtrlWep.obj
 0001:00083524       admCtrlWep_evalSite        10084524 f   Connection_Managment:admCtrlWep.obj
 0001:0008357c       admCtrlWep_config          1008457c f   Connection_Managment:admCtrlWep.obj
 0001:00083644       admCtrlWep_setSite         10084644 f   Connection_Managment:admCtrlWep.obj
 0001:000837b0       admCtrlNone_getInfoElement 100847b0 f   Connection_Managment:admCtrlNone.obj
 0001:000837c0       admCtrlNone_evalSite       100847c0 f   Connection_Managment:admCtrlNone.obj
 0001:00083854       admCtrlNone_config         10084854 f   Connection_Managment:admCtrlNone.obj
 0001:00083944       admCtrlNone_setSite        10084944 f   Connection_Managment:admCtrlNone.obj
 0001:00083a64       admCtrlWpa_buildCapabilities 10084a64 f   Connection_Managment:admCtrlWpa.obj
 0001:00083ab4       admCtrlWpa_parseSuiteVal   10084ab4 f   Connection_Managment:admCtrlWpa.obj
 0001:00083b1c       admCtrlWpa_getInfoElement  10084b1c f   Connection_Managment:admCtrlWpa.obj
 0001:00083d30       admCtrlWpa_parseIe         10084d30 f   Connection_Managment:admCtrlWpa.obj
 0001:000842e4       admCtrlWpa_dynamicConfig   100852e4 f   Connection_Managment:admCtrlWpa.obj
 0001:0008436c       admCtrlWpa_setSite         1008536c f   Connection_Managment:admCtrlWpa.obj
 0001:000846a0       admCtrlWpa_evalSite        100856a0 f   Connection_Managment:admCtrlWpa.obj
 0001:00084ad4       admCtrlWpa_config          10085ad4 f   Connection_Managment:admCtrlWpa.obj
 0001:00084bd8       admCtrlWpa2_buildCapabilities 10085bd8 f   Connection_Managment:admCtrlWpa2.obj
 0001:00084c2c       admCtrlWpa2_parseSuiteVal  10085c2c f   Connection_Managment:admCtrlWpa2.obj
 0001:00084c8c       admCtrlWpa2_getCipherSuiteMetric 10085c8c f   Connection_Managment:admCtrlWpa2.obj
 0001:00084eec       admCtrlWpa2_findPMKID      10085eec f   Connection_Managment:admCtrlWpa2.obj
 0001:00084fd8       admCtrlWpa2_getPMKIDList   10085fd8 f   Connection_Managment:admCtrlWpa2.obj
 0001:00085264       admCtrlWpa2_addPMKID       10086264 f   Connection_Managment:admCtrlWpa2.obj
 0001:00085508       admCtrlWpa2_resetPMKIDCache 10086508 f   Connection_Managment:admCtrlWpa2.obj
 0001:000855e8       admCtrlWpa2_preAuthTimerExpire 100865e8 f   Connection_Managment:admCtrlWpa2.obj
 0001:00085654       admCtrlWpa2_getInfoElement 10086654 f   Connection_Managment:admCtrlWpa2.obj
 0001:00085aa4       admCtrlWpa2_parseIe        10086aa4 f   Connection_Managment:admCtrlWpa2.obj
 0001:00085fd0       admCtrlWpa2_setPMKIDList   10086fd0 f   Connection_Managment:admCtrlWpa2.obj
 0001:000869dc       admCtrlWpa2_evalSite       100879dc f   Connection_Managment:admCtrlWpa2.obj
 0001:00086dc4       admCtrlWpa2_DynamicConfig  10087dc4 f   Connection_Managment:admCtrlWpa2.obj
 0001:00086e84       admCtrlWpa2_setSite        10087e84 f   Connection_Managment:admCtrlWpa2.obj
 0001:00087114       admCtrlWpa2_config         10088114 f   Connection_Managment:admCtrlWpa2.obj
 0001:00087218       mainKeys_create            10088218 f   Connection_Managment:mainKeysSm.obj
 0001:000872f8       mainKeys_unload            100882f8 f   Connection_Managment:mainKeysSm.obj
 0001:00087460       mainKeys_setKey            10088460 f   Connection_Managment:mainKeysSm.obj
 0001:0008747c       mainKeys_removeKey         1008847c f   Connection_Managment:mainKeysSm.obj
 0001:00087498       mainKeys_setDefaultKeyId   10088498 f   Connection_Managment:mainKeysSm.obj
 0001:000874b4       mainKeys_getSessionKey     100884b4 f   Connection_Managment:mainKeysSm.obj
 0001:000875b8       mainKeys_stopStart         100885b8 f   Connection_Managment:mainKeysSm.obj
 0001:00087610       mainKeys_stopUcastComplete 10088610 f   Connection_Managment:mainKeysSm.obj
 0001:00087668       mainKeys_bcastCompleteUcastComplete 10088668 f   Connection_Managment:mainKeysSm.obj
 0001:000876d4       mainKeys_stopBcastComplete 100886d4 f   Connection_Managment:mainKeysSm.obj
 0001:0008772c       mainKeys_ucastCompleteBcastComplete 1008872c f   Connection_Managment:mainKeysSm.obj
 0001:000877a0       mainKeys_stopComplete      100887a0 f   Connection_Managment:mainKeysSm.obj
 0001:000877f0       mainKeySmUnexpected        100887f0 f   Connection_Managment:mainKeysSm.obj
 0001:00087840       mainKeySmNop               10088840 f   Connection_Managment:mainKeysSm.obj
 0001:00087848       mainKeys_reAuth            10088848 f   Connection_Managment:mainKeysSm.obj
 0001:0008785c       mainKeys_start             1008885c f   Connection_Managment:mainKeysSm.obj
 0001:00087874       mainKeys_stop              10088874 f   Connection_Managment:mainKeysSm.obj
 0001:0008788c       mainKeys_reportUcastStatus 1008888c f   Connection_Managment:mainKeysSm.obj
 0001:00087908       mainKeys_reportBcastStatus 10088908 f   Connection_Managment:mainKeysSm.obj
 0001:00087930       mainKeys_sessionTimeout    10088930 f   Connection_Managment:mainKeysSm.obj
 0001:00087948       mainKeys_startIdle         10088948 f   Connection_Managment:mainKeysSm.obj
 0001:000879d0       mainKeys_smTimeOut         100889d0 f   Connection_Managment:mainKeysSm.obj
 0001:00087bc4       mainKeys_config            10088bc4 f   Connection_Managment:mainKeysSm.obj
 0001:00088068       mainSecSmNull_start        10089068 f   Connection_Managment:mainSecNull.obj
 0001:00088080       mainSecSmNull_stop         10089080 f   Connection_Managment:mainSecNull.obj
 0001:00088088       mainSecNull_reportKeysStatus 10089088 f   Connection_Managment:mainSecNull.obj
 0001:00088090       mainSecNull_getAuthState   10089090 f   Connection_Managment:mainSecNull.obj
 0001:000880a0       mainSecNull_reportAuthFailure 100890a0 f   Connection_Managment:mainSecNull.obj
 0001:000880a8       mainSecNull_setAuthIdentity 100890a8 f   Connection_Managment:mainSecNull.obj
 0001:000880b0       mainSecSmNull_config       100890b0 f   Connection_Managment:mainSecNull.obj
 0001:00088118       mainSecKeysOnly_start      10089118 f   Connection_Managment:mainSecKeysOnly.obj
 0001:00088138       mainSecKeysOnly_stop       10089138 f   Connection_Managment:mainSecKeysOnly.obj
 0001:00088158       mainSecKeysOnly_reportKeysStatus 10089158 f   Connection_Managment:mainSecKeysOnly.obj
 0001:000881d0       mainSecKeysOnly_startIdle  100891d0 f   Connection_Managment:mainSecKeysOnly.obj
 0001:00088234       mainSecKeysOnly_stopStart  10089234 f   Connection_Managment:mainSecKeysOnly.obj
 0001:00088298       mainSecKeysOnly_keysCompleteStart 10089298 f   Connection_Managment:mainSecKeysOnly.obj
 0001:00088300       mainSecKeysOnly_keysTOStart 10089300 f   Connection_Managment:mainSecKeysOnly.obj
 0001:00088308       mainSecKeysOnly_stopAuthorized 10089308 f   Connection_Managment:mainSecKeysOnly.obj
 0001:0008836c       mainSecKeysOnly_stopNonAuthorized 1008936c f   Connection_Managment:mainSecKeysOnly.obj
 0001:000883cc       mainSecKeysOnly_Nop        100893cc f   Connection_Managment:mainSecKeysOnly.obj
 0001:000883d4       mainSecKeysOnly_unexpected 100893d4 f   Connection_Managment:mainSecKeysOnly.obj
 0001:000883dc       mainSecKeysOnly_getAuthState 100893dc f   Connection_Managment:mainSecKeysOnly.obj
 0001:0008841c       mainSecKeysOnly_reportAuthFailure 1008941c f   Connection_Managment:mainSecKeysOnly.obj
 0001:00088424       mainSecKeysOnly_setAuthIdentity 10089424 f   Connection_Managment:mainSecKeysOnly.obj
 0001:0008842c       mainSecKeysOnly_config     1008942c f   Connection_Managment:mainSecKeysOnly.obj
 0001:00088684       broadcastKey_create        10089684 f   Connection_Managment:broadcastKeySM.obj
 0001:00088718       broadcastKey_unload        10089718 f   Connection_Managment:broadcastKeySM.obj
 0001:000887ec       broadcastKey_config        100897ec f   Connection_Managment:broadcastKeySM.obj
 0001:00088868       broadcastKeySmUnexpected   10089868 f   Connection_Managment:broadcastKeySM.obj
 0001:000888b8       broadcastKeySmNop          100898b8 f   Connection_Managment:broadcastKeySM.obj
 0001:000888c0       unicastKey_create          100898c0 f   Connection_Managment:unicastKeySM.obj
 0001:00088954       unicastKey_unload          10089954 f   Connection_Managment:unicastKeySM.obj
 0001:00088a28       unicastKey_config          10089a28 f   Connection_Managment:unicastKeySM.obj
 0001:00088aa4       unicastKeySmUnexpected     10089aa4 f   Connection_Managment:unicastKeySM.obj
 0001:00088af4       unicastKeySmNop            10089af4 f   Connection_Managment:unicastKeySM.obj
 0001:00088afc       keyParser_create           10089afc f   Connection_Managment:keyParser.obj
 0001:00088b28       keyParser_unload           10089b28 f   Connection_Managment:keyParser.obj
 0001:00088b48       keyParser_config           10089b48 f   Connection_Managment:keyParser.obj
 0001:00088b84       keyParser_nop              10089b84 f   Connection_Managment:keyParser.obj
 0001:00088bd4       keyDerive_create           10089bd4 f   Connection_Managment:keyDerive.obj
 0001:00088c10       keyDerive_unload           10089c10 f   Connection_Managment:keyDerive.obj
 0001:00088c30       keyDerive_config           10089c30 f   Connection_Managment:keyDerive.obj
 0001:00088ca4       broadcastKeyNone_start     10089ca4 f   Connection_Managment:broadcastKeyNone.obj
 0001:00088cd8       broadcastKeyNone_distribute 10089cd8 f   Connection_Managment:broadcastKeyNone.obj
 0001:00088d40       broadcastKeyNone_config    10089d40 f   Connection_Managment:broadcastKeyNone.obj
 0001:00088d84       broadcastKey802_1x_event   10089d84 f   Connection_Managment:broadcastKey802_1x.obj
 0001:00088e64       broadcastKey802_1x_start   10089e64 f   Connection_Managment:broadcastKey802_1x.obj
 0001:00088e7c       broadcastKey802_1x_stop    10089e7c f   Connection_Managment:broadcastKey802_1x.obj
 0001:00088e94       broadcastKey802_1x_recvSuccess 10089e94 f   Connection_Managment:broadcastKey802_1x.obj
 0001:00088eb8       broadcastKey802_1x_recvFailure 10089eb8 f   Connection_Managment:broadcastKey802_1x.obj
 0001:00088ed0       broadcastKey802_1x_distribute 10089ed0 f   Connection_Managment:broadcastKey802_1x.obj
 0001:00088f48       broadcastKey802_1x_config  10089f48 f   Connection_Managment:broadcastKey802_1x.obj
 0001:00089088       unicastKeyNone_start       1008a088 f   Connection_Managment:unicastKeyNone.obj
 0001:000890bc       unicastKeyNone_distribute  1008a0bc f   Connection_Managment:unicastKeyNone.obj
 0001:00089164       unicastKeyNone_config      1008a164 f   Connection_Managment:unicastKeyNone.obj
 0001:000891a8       unicastKey802_1x_event     1008a1a8 f   Connection_Managment:unicastKey802_1x.obj
 0001:00089288       unicastKey802_1x_start     1008a288 f   Connection_Managment:unicastKey802_1x.obj
 0001:000892a0       unicastKey802_1x_stop      1008a2a0 f   Connection_Managment:unicastKey802_1x.obj
 0001:000892b8       unicastKey802_1x_recvSuccess 1008a2b8 f   Connection_Managment:unicastKey802_1x.obj
 0001:000892dc       unicastKey802_1x_recvFailure 1008a2dc f   Connection_Managment:unicastKey802_1x.obj
 0001:000892f4       unicastKey802_1x_distribute 1008a2f4 f   Connection_Managment:unicastKey802_1x.obj
 0001:00089394       unicastKey802_1x_config    1008a394 f   Connection_Managment:unicastKey802_1x.obj
 0001:000894dc       keyParserExternal_recv     1008a4dc f   Connection_Managment:keyParserExternal.obj
 0001:00089c40       keyParserExternal_remove   1008ac40 f   Connection_Managment:keyParserExternal.obj
 0001:00089f0c       keyParserExternal_config   1008af0c f   Connection_Managment:keyParserExternal.obj
 0001:00089f40       keyDeriveWep_derive        1008af40 f   Connection_Managment:keyDeriveWep.obj
 0001:0008a054       keyDeriveWep_remove        1008b054 f   Connection_Managment:keyDeriveWep.obj
 0001:0008a11c       keyDeriveNone_derive       1008b11c f   Connection_Managment:keyDeriveWep.obj
 0001:0008a1c8       keyDeriveNone_remove       1008b1c8 f   Connection_Managment:keyDeriveWep.obj
 0001:0008a1d0       keyDeriveWep_config        1008b1d0 f   Connection_Managment:keyDeriveWep.obj
 0001:0008a1f4       keyDeriveNone_config       1008b1f4 f   Connection_Managment:keyDeriveWep.obj
 0001:0008a220       keyDeriveTkip_derive       1008b220 f   Connection_Managment:keyDeriveTkip.obj
 0001:0008a3ac       keyDeriveTkip_remove       1008b3ac f   Connection_Managment:keyDeriveTkip.obj
 0001:0008a46c       keyDeriveTkip_config       1008b46c f   Connection_Managment:keyDeriveTkip.obj
 0001:0008a498       keyDeriveAes_derive        1008b498 f   Connection_Managment:keyDeriveAes.obj
 0001:0008a5f0       keyDeriveAes_remove        1008b5f0 f   Connection_Managment:keyDeriveAes.obj
 0001:0008a6cc       keyDeriveAes_config        1008b6cc f   Connection_Managment:keyDeriveAes.obj
 0001:0008a6f0       txCtrlServ_buildNullFrame  1008b6f0 f   Data_link:txCtrlServ.obj
 0001:0008a7c0       txCtrlServ_buildWlanHeader 1008b7c0 f   Data_link:txCtrlServ.obj
 0001:0008a9b8       powerMgrPrintPriorities    1008b9b8 f   Sta_Management:PowerMgrDbgPrint.obj
 0001:0008aa0c       PowerMgr_printObject       1008ba0c f   Sta_Management:PowerMgrDbgPrint.obj
 0001:0008abb4       cmdBld_Destroy             1008bbb4 f   Ctrl:CmdBld.obj
 0001:0008ac04       cmdBld_Restart             1008bc04 f   Ctrl:CmdBld.obj
 0001:0008ac30       cmdBld_Config              1008bc30 f   Ctrl:CmdBld.obj
 0001:0008ad10       __itr_memory_map           1008bd10 f   Ctrl:CmdBld.obj
 0001:0008adc0       cmdBld_FinalizeDownload    1008bdc0 f   Ctrl:CmdBld.obj
 0001:0008ae90       cmdBld_GetGroupAddressTable 1008be90 f   Ctrl:CmdBld.obj
 0001:0008af84       cmdBld_GetFWInfo           1008bf84 f   Ctrl:CmdBld.obj
 0001:0008af90       cmdBld_SetRadioBand        1008bf90 f   Ctrl:CmdBld.obj
 0001:0008afa0       cmdBld_ConvertAppRatesBitmap 1008bfa0 f   Ctrl:CmdBld.obj
 0001:0008b058       rateNumberToBitmap         1008c058 f   Ctrl:CmdBld.obj
 0001:0008b13c       cmdBld_SetRxFilter         1008c13c f   Ctrl:CmdBld.obj
 0001:0008b160       cmdBld_SetSecuritySeqNum   1008c160 f   Ctrl:CmdBld.obj
 0001:0008b218       cmdBld_DbgForceTemplatesRates 1008c218 f   Ctrl:CmdBld.obj
 0001:0008b224       cmdBld_Create              1008c224 f   Ctrl:CmdBld.obj
 0001:0008b36c       cmdBld_ConfigFw            1008c36c f   Ctrl:CmdBld.obj
 0001:0008d4b8       cmdBld_GetParam            1008e4b8 f   Ctrl:CmdBld.obj
 0001:0008d788       cmdBld_ReadMib             1008e788 f   Ctrl:CmdBld.obj
 0001:0008daec       cmdBld_CmdStartScan        1008eaec f   Ctrl:CmdBldCmd.obj
 0001:0008de84       cmdBld_CmdStartSPSScan     1008ee84 f   Ctrl:CmdBldCmd.obj
 0001:0008e0e4       cmdBld_CmdStopScan         1008f0e4 f   Ctrl:CmdBldCmd.obj
 0001:0008e0fc       cmdBld_CmdStopSPSScan      1008f0fc f   Ctrl:CmdBldCmd.obj
 0001:0008e114       cmdBld_CmdSetSplitScanTimeOut 1008f114 f   Ctrl:CmdBldCmd.obj
 0001:0008e144       cmdBld_debugPrintPeriodicScanChannles 1008f144 f   Ctrl:CmdBldCmd.obj
 0001:0008e264       cmdBld_debugPrintPeriodicScanParams 1008f264 f   Ctrl:CmdBldCmd.obj
 0001:0008e774       cmdBld_debugPrintPeriodicScanSsidList 1008f774 f   Ctrl:CmdBldCmd.obj
 0001:0008e8c8       cmdBld_BuildPeriodicScanChannles 1008f8c8 f   Ctrl:CmdBldCmd.obj
 0001:0008e974       cmdBld_StartPeriodicScan   1008f974 f   Ctrl:CmdBldCmd.obj
 0001:0008ed40       cmdBld_StopPeriodicScan    1008fd40 f   Ctrl:CmdBldCmd.obj
 0001:0008ed64       cmdBld_CmdStartJoin        1008fd64 f   Ctrl:CmdBldCmd.obj
 0001:0008ef70       cmdBld_CmdJoinBss          1008ff70 f   Ctrl:CmdBldCmd.obj
 0001:0008f1d4       cmdBld_CmdTemplate         100901d4 f   Ctrl:CmdBldCmd.obj
 0001:0008f418       cmdBld_CmdEnableTx         10090418 f   Ctrl:CmdBldCmd.obj
 0001:0008f428       cmdBld_CmdSwitchChannel    10090428 f   Ctrl:CmdBldCmd.obj
 0001:0008f4cc       cmdBld_CmdSwitchChannelCancel 100904cc f   Ctrl:CmdBldCmd.obj
 0001:0008f540       cmdBld_CmdFwDisconnect     10090540 f   Ctrl:CmdBldCmd.obj
 0001:0008f5f0       cmdBld_CmdMeasurement      100905f0 f   Ctrl:CmdBldCmd.obj
 0001:0008f600       cmdBld_CmdMeasurementStop  10090600 f   Ctrl:CmdBldCmd.obj
 0001:0008f668       cmdBld_CmdApDiscovery      10090668 f   Ctrl:CmdBldCmd.obj
 0001:0008f6dc       cmdBld_CmdApDiscoveryStop  100906dc f   Ctrl:CmdBldCmd.obj
 0001:0008f748       cmdBld_CmdNoiseHistogram   10090748 f   Ctrl:CmdBldCmd.obj
 0001:0008f758       cmdBld_CmdSetPsMode        10090758 f   Ctrl:CmdBldCmd.obj
 0001:0008f80c       cmdBld_CmdEnableRx         1009080c f   Ctrl:CmdBldCmd.obj
 0001:0008f824       cmdBld_CmdAddWepDefaultKey 10090824 f   Ctrl:CmdBldCmd.obj
 0001:0008f8f0       cmdBld_CmdSetWepDefaultKeyId 100908f0 f   Ctrl:CmdBldCmd.obj
 0001:0008f9b0       cmdBld_CmdRemoveWepDefaultKey 100909b0 f   Ctrl:CmdBldCmd.obj
 0001:0008fa7c       cmdBld_CmdAddTkipMicMappingKey 10090a7c f   Ctrl:CmdBldCmd.obj
 0001:0008fb48       cmdBld_CmdRemoveTkipMicMappingKey 10090b48 f   Ctrl:CmdBldCmd.obj
 0001:0008fbf0       cmdBld_CmdAddAesMappingKey 10090bf0 f   Ctrl:CmdBldCmd.obj
 0001:0008fcb8       cmdBld_CmdRemoveAesMappingKey 10090cb8 f   Ctrl:CmdBldCmd.obj
 0001:0008fd60       cmdBld_CmdSetStaState      10090d60 f   Ctrl:CmdBldCmd.obj
 0001:0008fde4       cmdBld_CmdHealthCheck      10090de4 f   Ctrl:CmdBldCmd.obj
 0001:0008fe50       cmdBld_CmdTest             10090e50 f   Ctrl:CmdBldCmd.obj
 0001:0008fe60       cmdBld_CmdAddWpaKey        10090e60 f   Ctrl:CmdBldCmd.obj
 0001:0008ff28       cmdBld_CmdRemoveWpaKey     10090f28 f   Ctrl:CmdBldCmd.obj
 0001:0008ff80       cmdBld_CmdRemoveKey        10090f80 f   Ctrl:CmdBldCmd.obj
 0001:0008ffe4       cmdBld_CmdAddKey           10090fe4 f   Ctrl:CmdBldCmd.obj
 0001:0009015c       cmdBld_CfgRx               1009115c f   Ctrl:CmdBldCfg.obj
 0001:0009019c       cmdBld_CfgArpIpAddrTable   1009119c f   Ctrl:CmdBldCfg.obj
 0001:000901e4       cmdBld_CfgGroupAddressTable 100911e4 f   Ctrl:CmdBldCfg.obj
 0001:00090324       cmdBld_CfgRtsThreshold     10091324 f   Ctrl:CmdBldCfg.obj
 0001:00090334       cmdBld_CfgDcoItrimParams   10091334 f   Ctrl:CmdBldCfg.obj
 0001:00090368       cmdBld_CfgFragmentThreshold 10091368 f   Ctrl:CmdBldCfg.obj
 0001:00090380       cmdBld_CfgPreamble         10091380 f   Ctrl:CmdBldCfg.obj
 0001:000903ac       cmdBld_CfgWakeUpCondition  100913ac f   Ctrl:CmdBldCfg.obj
 0001:000903bc       cmdBld_CfgSleepAuth        100913bc f   Ctrl:CmdBldCfg.obj
 0001:000903e8       cmdBld_CfgMacClock         100913e8 f   Ctrl:CmdBldCfg.obj
 0001:0009047c       cmdBld_CfgAid              1009147c f   Ctrl:CmdBldCfg.obj
 0001:00090498       cmdBld_CfgClkRun           10091498 f   Ctrl:CmdBldCfg.obj
 0001:000904e4       cmdBld_CfgTid              100914e4 f   Ctrl:CmdBldCfg.obj
 0001:0009054c       cmdBld_CfgAcParams         1009154c f   Ctrl:CmdBldCfg.obj
 0001:000905b0       cmdBld_CfgPsRxStreaming    100915b0 f   Ctrl:CmdBldCfg.obj
 0001:000905fc       cmdBld_CfgBeaconFilterOpt  100915fc f   Ctrl:CmdBldCfg.obj
 0001:00090630       cmdBld_CfgRateMngDbg       10091630 f   Ctrl:CmdBldCfg.obj
 0001:00090754       cmdBld_CfgBeaconFilterTable 10091754 f   Ctrl:CmdBldCfg.obj
 0001:00090828       cmdBld_CfgRssiSnrTrigger   10091828 f   Ctrl:CmdBldCfg.obj
 0001:000908fc       cmdBld_CfgMaxTxRetry       100918fc f   Ctrl:CmdBldCfg.obj
 0001:00090920       cmdBld_CfgSgEnable         10091920 f   Ctrl:CmdBldCfg.obj
 0001:0009094c       cmdBld_CfgSg               1009194c f   Ctrl:CmdBldCfg.obj
 0001:0009099c       cmdBld_CfgCoexActivity     1009199c f   Ctrl:CmdBldCfg.obj
 0001:00090ac0       cmdBld_CfgFmCoex           10091ac0 f   Ctrl:CmdBldCfg.obj
 0001:00090b04       cmdBld_CfgTxRatePolicy     10091b04 f   Ctrl:CmdBldCfg.obj
 0001:00090c3c       cmdBld_CfgSlotTime         10091c3c f   Ctrl:CmdBldCfg.obj
 0001:00090cc4       cmdBld_CfgEventMask        10091cc4 f   Ctrl:CmdBldCfg.obj
 0001:00090cd4       cmdBld_CfgHwEncEnable      10091cd4 f   Ctrl:CmdBldCfg.obj
 0001:00090d44       cmdBld_CfgHwEncDecEnable   10091d44 f   Ctrl:CmdBldCfg.obj
 0001:00090d78       cmdBld_CfgSecureMode       10091d78 f   Ctrl:CmdBldCfg.obj
 0001:00090e5c       cmdBld_CfgConnMonitParams  10091e5c f   Ctrl:CmdBldCfg.obj
 0001:00090f08       cmdBld_CfgEnableRxDataFilter 10091f08 f   Ctrl:CmdBldCfg.obj
 0001:00090f44       cmdBld_CfgRxDataFilter     10091f44 f   Ctrl:CmdBldCfg.obj
 0001:00090fd8       cmdBld_CfgCtsProtection    10091fd8 f   Ctrl:CmdBldCfg.obj
 0001:00091004       cmdBld_CfgServicePeriodTimeout 10092004 f   Ctrl:CmdBldCfg.obj
 0001:00091014       cmdBld_CfgRxMsduLifeTime   10092014 f   Ctrl:CmdBldCfg.obj
 0001:00091030       cmdBld_CfgStatisitics      10092030 f   Ctrl:CmdBldCfg.obj
 0001:00091040       cmdBld_CfgTxPowerDbm       10092040 f   Ctrl:CmdBldCfg.obj
 0001:0009105c       cmdBld_CfgBet              1009205c f   Ctrl:CmdBldCfg.obj
 0001:0009109c       cmdBld_CfgKeepAlive        1009209c f   Ctrl:CmdBldCfg.obj
 0001:00091170       cmdBld_CfgKeepAliveEnaDis  10092170 f   Ctrl:CmdBldCfg.obj
 0001:000911f8       cmdBld_CfgSetFwHtCapabilities 100921f8 f   Ctrl:CmdBldCfg.obj
 0001:00091284       cmdBld_CfgSetFwHtInformation 10092284 f   Ctrl:CmdBldCfg.obj
 0001:000912f0       cmdBld_CfgSetBaSession     100922f0 f   Ctrl:CmdBldCfg.obj
 0001:0009140c       cmdBld_CfgBurstMode        1009240c f   Ctrl:CmdBldCfg.obj
 0001:00091438       cmdBld_CfgIeConfigMemory   10092438 f   Ctrl:CmdBldCfgIE.obj
 0001:000914d0       cmdBld_CfgIeSlotTime       100924d0 f   Ctrl:CmdBldCfgIE.obj
 0001:00091598       cmdBld_CfgIePreamble       10092598 f   Ctrl:CmdBldCfgIE.obj
 0001:00091660       cmdBld_CfgIeRx             10092660 f   Ctrl:CmdBldCfgIE.obj
 0001:000916c8       cmdBld_CfgIeEnableRxDataFilter 100926c8 f   Ctrl:CmdBldCfgIE.obj
 0001:00091810       cmdBld_CfgIeRxDataFilter   10092810 f   Ctrl:CmdBldCfgIE.obj
 0001:00091a0c       cmdBld_CfgIeArpIpFilter    10092a0c f   Ctrl:CmdBldCfgIE.obj
 0001:00091ae8       cmdBld_CfgIeGroupAdressTable 10092ae8 f   Ctrl:CmdBldCfgIE.obj
 0001:00091c78       cmdBld_CfgIeSgEnable       10092c78 f   Ctrl:CmdBldCfgIE.obj
 0001:00091d38       cmdBld_CfgIeSg             10092d38 f   Ctrl:CmdBldCfgIE.obj
 0001:00091e64       cmdBld_CfgIeFmCoex         10092e64 f   Ctrl:CmdBldCfgIE.obj
 0001:00091f54       cmdBld_CfgIeAid            10092f54 f   Ctrl:CmdBldCfgIE.obj
 0001:00091fd4       cmdBld_CfgIeWakeUpCondition 10092fd4 f   Ctrl:CmdBldCfgIE.obj
 0001:00092134       cmdBld_CfgIeSleepAuth      10093134 f   Ctrl:CmdBldCfgIE.obj
 0001:000922c8       cmdBld_CfgIeBcnBrcOptions  100932c8 f   Ctrl:CmdBldCfgIE.obj
 0001:000923ac       cmdBld_CfgIeFeatureConfig  100933ac f   Ctrl:CmdBldCfgIE.obj
 0001:00092468       cmdBld_CfgIeTxPowerDbm     10093468 f   Ctrl:CmdBldCfgIE.obj
 0001:00092530       cmdBld_CfgIeStatisitics    10093530 f   Ctrl:CmdBldCfgIE.obj
 0001:000925bc       cmdBld_CfgIeTid            100935bc f   Ctrl:CmdBldCfgIE.obj
 0001:000926e0       cmdBld_CfgIeAcParams       100936e0 f   Ctrl:CmdBldCfgIE.obj
 0001:000927d0       cmdBld_CfgIePsRxStreaming  100937d0 f   Ctrl:CmdBldCfgIE.obj
 0001:000928c4       cmdBld_CfgIePacketDetectionThreshold 100938c4 f   Ctrl:CmdBldCfgIE.obj
 0001:00092978       cmdBld_CfgIeBeaconFilterOpt 10093978 f   Ctrl:CmdBldCfgIE.obj
 0001:00092a58       cmdBld_CfgIeRateMngDbg     10093a58 f   Ctrl:CmdBldCfgIE.obj
 0001:00092be8       cmdBld_CfgIeBeaconFilterTable 10093be8 f   Ctrl:CmdBldCfgIE.obj
 0001:00092dc8       cmdBld_CfgIeCoexActivity   10093dc8 f   Ctrl:CmdBldCfgIE.obj
 0001:00092f00       cmdBld_CfgIeCcaThreshold   10093f00 f   Ctrl:CmdBldCfgIE.obj
 0001:00092f58       cmdBld_CfgIeEventMask      10093f58 f   Ctrl:CmdBldCfgIE.obj
 0001:00092ff8       cmdBld_CfgIeMaxTxRetry     10093ff8 f   Ctrl:CmdBldCfgIE.obj
 0001:00093070       cmdBld_CfgIeConnMonitParams 10094070 f   Ctrl:CmdBldCfgIE.obj
 0001:000930d0       cmdBld_CfgIeTxRatePolicy   100940d0 f   Ctrl:CmdBldCfgIE.obj
 0001:0009318c       cmdBld_CfgIeRtsThreshold   1009418c f   Ctrl:CmdBldCfgIE.obj
 0001:00093210       cmdBld_CfgIeFragmentThreshold 10094210 f   Ctrl:CmdBldCfgIE.obj
 0001:00093290       cmdBld_CfgIePmConfig       10094290 f   Ctrl:CmdBldCfgIE.obj
 0001:00093314       cmdBld_CfgIeTxCmpltPacing  10094314 f   Ctrl:CmdBldCfgIE.obj
 0001:00093374       cmdBld_CfgIeRxIntrPacing   10094374 f   Ctrl:CmdBldCfgIE.obj
 0001:000933f0       cmdBld_CfgIeCtsProtection  100943f0 f   Ctrl:CmdBldCfgIE.obj
 0001:00093468       cmdBld_CfgIeRxMsduLifeTime 10094468 f   Ctrl:CmdBldCfgIE.obj
 0001:00093518       cmdBld_CfgIeServicePeriodTimeout 10094518 f   Ctrl:CmdBldCfgIE.obj
 0001:00093578       cmdBld_CfgIePsWmm          10094578 f   Ctrl:CmdBldCfgIE.obj
 0001:0009362c       cmdBld_CfgIeRssiSnrTrigger 1009462c f   Ctrl:CmdBldCfgIE.obj
 0001:0009375c       cmdBld_CfgIeRssiSnrWeights 1009475c f   Ctrl:CmdBldCfgIE.obj
 0001:0009382c       cmdBld_CfgIeBet            1009482c f   Ctrl:CmdBldCfgIE.obj
 0001:000938fc       cmdBld_CmdIeConfigureKeepAliveParams 100948fc f   Ctrl:CmdBldCfgIE.obj
 0001:000939cc       cmdBld_CmdIeConfigureKeepAliveEnaDis 100949cc f   Ctrl:CmdBldCfgIE.obj
 0001:00093a98       cmdBld_CfgIeSetFwHtCapabilities 10094a98 f   Ctrl:CmdBldCfgIE.obj
 0001:00093be4       cmdBld_CfgIeSetFwHtInformation 10094be4 f   Ctrl:CmdBldCfgIE.obj
 0001:00093ce0       cmdBld_CfgIeSetBaSession   10094ce0 f   Ctrl:CmdBldCfgIE.obj
 0001:00093ea4       cmdBld_CfgIeRadioParams    10094ea4 f   Ctrl:CmdBldCfgIE.obj
 0001:00093f8c       cmdBld_CfgIeExtendedRadioParams 10094f8c f   Ctrl:CmdBldCfgIE.obj
 0001:000940b4       cmdBld_CfgPlatformGenParams 100950b4 f   Ctrl:CmdBldCfgIE.obj
 0001:00094218       cmdBld_CfgIeBurstMode      10095218 f   Ctrl:CmdBldCfgIE.obj
 0001:00094290       cmdBld_CfgIeDcoItrimParams 10095290 f   Ctrl:CmdBldCfgIE.obj
 0001:00094350       cmdBld_CmdIeStartBss       10095350 f   Ctrl:CmdBldCmdIE.obj
 0001:00094480       cmdBld_CmdIeEnableRx       10095480 f   Ctrl:CmdBldCmdIE.obj
 0001:000944ec       cmdBld_CmdIeEnableTx       100954ec f   Ctrl:CmdBldCmdIE.obj
 0001:00094554       cmdBld_CmdIeConfigureTemplateFrame 10095554 f   Ctrl:CmdBldCmdIE.obj
 0001:0009468c       cmdBld_CmdIeSetKey         1009568c f   Ctrl:CmdBldCmdIE.obj
 0001:000948f0       cmdBld_CmdIeStartScan      100958f0 f   Ctrl:CmdBldCmdIE.obj
 0001:00094930       cmdBld_CmdIeStartSPSScan   10095930 f   Ctrl:CmdBldCmdIE.obj
 0001:00094970       cmdBld_CmdIeStopScan       10095970 f   Ctrl:CmdBldCmdIE.obj
 0001:000949e8       cmdBld_CmdIeStopSPSScan    100959e8 f   Ctrl:CmdBldCmdIE.obj
 0001:00094a64       cmdBld_CmdIeSetSplitScanTimeOut 10095a64 f   Ctrl:CmdBldCmdIE.obj
 0001:00094af8       cmdBld_CmdIeScanSsidList   10095af8 f   Ctrl:CmdBldCmdIE.obj
 0001:00094b3c       cmdBld_CmdIePeriodicScanParams 10095b3c f   Ctrl:CmdBldCmdIE.obj
 0001:00094b7c       cmdBld_CmdIeStartPeriodicScan 10095b7c f   Ctrl:CmdBldCmdIE.obj
 0001:00094bbc       cmdBld_CmdIeStopPeriodicScan 10095bbc f   Ctrl:CmdBldCmdIE.obj
 0001:00094c04       cmdBld_CmdIeNoiseHistogram 10095c04 f   Ctrl:CmdBldCmdIE.obj
 0001:00094ca0       cmdBld_CmdIeSetPsMode      10095ca0 f   Ctrl:CmdBldCmdIE.obj
 0001:00094d2c       cmdBld_CmdIeSwitchChannel  10095d2c f   Ctrl:CmdBldCmdIE.obj
 0001:00094da4       cmdBld_CmdIeSwitchChannelCancel 10095da4 f   Ctrl:CmdBldCmdIE.obj
 0001:00094dec       cmdBld_CmdIeFwDisconnect   10095dec f   Ctrl:CmdBldCmdIE.obj
 0001:00094e74       cmdBld_CmdIeMeasurement    10095e74 f   Ctrl:CmdBldCmdIE.obj
 0001:00094f1c       cmdBld_CmdIeMeasurementStop 10095f1c f   Ctrl:CmdBldCmdIE.obj
 0001:00094f5c       cmdBld_CmdIeApDiscovery    10095f5c f   Ctrl:CmdBldCmdIE.obj
 0001:00094ff0       cmdBld_CmdIeApDiscoveryStop 10095ff0 f   Ctrl:CmdBldCmdIE.obj
 0001:00095030       cmdBld_CmdIeHealthCheck    10096030 f   Ctrl:CmdBldCmdIE.obj
 0001:00095070       cmdBld_CmdIeSetStaState    10096070 f   Ctrl:CmdBldCmdIE.obj
 0001:000950b8       cmdBld_CmdIeTest           100960b8 f   Ctrl:CmdBldCmdIE.obj
 0001:00095244       txCtrlBlk_Create           10096244 f   Data_Service:txCtrlBlk.obj
 0001:00095284       txCtrlBlk_Destroy          10096284 f   Data_Service:txCtrlBlk.obj
 0001:000952a8       txCtrlBlk_Init             100962a8 f   Data_Service:txCtrlBlk.obj
 0001:0009531c       txCtrlBlk_Alloc            1009631c f   Data_Service:txCtrlBlk.obj
 0001:000953dc       txCtrlBlk_Free             100963dc f   Data_Service:txCtrlBlk.obj
 0001:00095488       txCtrlBlk_GetPointer       10096488 f   Data_Service:txCtrlBlk.obj
 0001:00095498       txCtrlBlk_PrintTable       10096498 f   Data_Service:txCtrlBlk.obj
 0001:0009553c       RxQueue_Create             1009653c f   Data_Service:RxQueue.obj
 0001:00095588       RxQueue_Destroy            10096588 f   Data_Service:RxQueue.obj
 0001:000955d8       RxQueue_Init               100965d8 f   Data_Service:RxQueue.obj
 0001:000955fc       RxQueue_Register_CB        100965fc f   Data_Service:RxQueue.obj
 0001:0009586c       RxQueue_CloseBaSession     1009686c f   Data_Service:RxQueue.obj
 0001:00095984       RxQueue_ReceivePacket      10096984 f   Data_Service:RxQueue.obj
 0001:00096cb4       hwInit_Create              10097cb4 f   FW_Transfer:HwInit.obj
 0001:00096d00       hwInit_Destroy             10097d00 f   FW_Transfer:HwInit.obj
 0001:00096d20       hwInit_Init                10097d20 f   FW_Transfer:HwInit.obj
 0001:00096e74       hwInit_SetNvsImage         10097e74 f   FW_Transfer:HwInit.obj
 0001:00096e84       hwInit_SetFwImage          10097e84 f   FW_Transfer:HwInit.obj
 0001:00097fe8       hwInit_WriteIRQPolarity    10098fe8 f   FW_Transfer:HwInit.obj
 0001:000986b4       hwInit_LoadFw              100996b4 f   FW_Transfer:HwInit.obj
 0001:00098828       hwInit_InitPolarity        10099828 f   FW_Transfer:HwInit.obj
 0001:00099878       hwInit_Boot                1009a878 f   FW_Transfer:HwInit.obj
 0001:000998e0       fwEvent_Create             1009a8e0 f   FW_Transfer:FwEvent.obj
 0001:0009991c       fwEvent_Destroy            1009a91c f   FW_Transfer:FwEvent.obj
 0001:0009993c       fwEvent_InterruptRequest   1009a93c f   FW_Transfer:FwEvent.obj
 0001:00099b08       fwEvent_TranslateToFwTime  1009ab08 f   FW_Transfer:FwEvent.obj
 0001:00099b1c       fwEvent_SetInitMask        1009ab1c f   FW_Transfer:FwEvent.obj
 0001:00099b54       fwEvent_Stop               1009ab54 f   FW_Transfer:FwEvent.obj
 0001:00099b74       fwEvent_MaskAllFwInterrupts 1009ab74 f   FW_Transfer:FwEvent.obj
 0001:00099bac       fwEvent_EnableExternalEvents 1009abac f   FW_Transfer:FwEvent.obj
 0001:00099be4       fwEvent_DisableInterrupts  1009abe4 f   FW_Transfer:FwEvent.obj
 0001:00099bfc       fwEvent_EnableInterrupts   1009abfc f   FW_Transfer:FwEvent.obj
 0001:00099c14       fwEvent_PrintStat          1009ac14 f   FW_Transfer:FwEvent.obj
 0001:00099fbc       fwEvent_Init               1009afbc f   FW_Transfer:FwEvent.obj
 0001:0009a0f4       fwDbg_Create               1009b0f4 f   FW_Transfer:fwDebug.obj
 0001:0009a140       fwDbg_Init                 1009b140 f   FW_Transfer:fwDebug.obj
 0001:0009a17c       fwDbg_Destroy              1009b17c f   FW_Transfer:fwDebug.obj
 0001:0009a3ec       fwDbg_isValidMemoryAddr    1009b3ec f   FW_Transfer:fwDebug.obj
 0001:0009a400       fwDbg_isValidRegAddr       1009b400 f   FW_Transfer:fwDebug.obj
 0001:0009a41c       fwDbg_ValidateSdio         1009b41c f   FW_Transfer:fwDebug.obj
 0001:0009a600       fwDbg_WriteAddr            1009b600 f   FW_Transfer:fwDebug.obj
 0001:0009a6e4       fwDbg_ReadAddr             1009b6e4 f   FW_Transfer:fwDebug.obj
 0001:0009a7d0       eventMbox_Create           1009b7d0 f   FW_Transfer:eventMbox.obj
 0001:0009a824       eventMbox_Destroy          1009b824 f   FW_Transfer:eventMbox.obj
 0001:0009a840       eventMbox_Stop             1009b840 f   FW_Transfer:eventMbox.obj
 0001:0009a92c       eventMbox_InitComplete     1009b92c f   FW_Transfer:eventMbox.obj
 0001:0009a9a4       eventMbox_RegisterEvent    1009b9a4 f   FW_Transfer:eventMbox.obj
 0001:0009aa6c       eventMbox_ReplaceEvent     1009ba6c f   FW_Transfer:eventMbox.obj
 0001:0009ab98       eventMbox_UnMaskEvent      1009bb98 f   FW_Transfer:eventMbox.obj
 0001:0009ac78       eventMbox_MaskEvent        1009bc78 f   FW_Transfer:eventMbox.obj
 0001:0009aecc       eventMbox_Print            1009becc f   FW_Transfer:eventMbox.obj
 0001:0009b0fc       eventMbox_InitMboxAddr     1009c0fc f   FW_Transfer:eventMbox.obj
 0001:0009b1e4       eventMbox_Handle           1009c1e4 f   FW_Transfer:eventMbox.obj
 0001:0009b3ac       eventMbox_Config           1009c3ac f   FW_Transfer:eventMbox.obj
 0001:0009b4b4       rxXfer_Create              1009c4b4 f   FW_Transfer:RxXfer.obj
 0001:0009b4f4       rxXfer_Destroy             1009c4f4 f   FW_Transfer:RxXfer.obj
 0001:0009b514       rxXfer_SetDefaults         1009c514 f   FW_Transfer:RxXfer.obj
 0001:0009b520       rxXfer_SetBusParams        1009c520 f   FW_Transfer:RxXfer.obj
 0001:0009b528       rxXfer_Register_CB         1009c528 f   FW_Transfer:RxXfer.obj
 0001:0009b87c       rxXfer_SetRxDirectAccessParams 1009c87c f   FW_Transfer:RxXfer.obj
 0001:0009b8a8       rxXfer_RegisterErrCb       1009c8a8 f   FW_Transfer:RxXfer.obj
 0001:0009b8b8       rxXfer_ClearStats          1009c8b8 f   FW_Transfer:RxXfer.obj
 0001:0009b8dc       rxXfer_PrintStats          1009c8dc f   FW_Transfer:RxXfer.obj
 0001:0009be58       rxXfer_Restart             1009ce58 f   FW_Transfer:RxXfer.obj
 0001:0009bfc8       rxXfer_Init                1009cfc8 f   FW_Transfer:RxXfer.obj
 0001:0009c004       rxXfer_RxEvent             1009d004 f   FW_Transfer:RxXfer.obj
 0001:0009c0dc       txResult_Create            1009d0dc f   FW_Transfer:txResult.obj
 0001:0009c118       txResult_Destroy           1009d118 f   FW_Transfer:txResult.obj
 0001:0009c138       txResult_setHwInfo         1009d138 f   FW_Transfer:txResult.obj
 0001:0009c2d0       txResult_RegisterCb        1009d2d0 f   FW_Transfer:txResult.obj
 0001:0009c33c       txResult_PrintInfo         1009d33c f   FW_Transfer:txResult.obj
 0001:0009c38c       txResult_ClearInfo         1009d38c f   FW_Transfer:txResult.obj
 0001:0009c4f0       txResult_Init              1009d4f0 f   FW_Transfer:txResult.obj
 0001:0009c57c       txResult_TxCmpltIntrCb     1009d57c f   FW_Transfer:txResult.obj
 0001:0009c65c       txXfer_Create              1009d65c f   FW_Transfer:txXfer.obj
 0001:0009c69c       txXfer_Destroy             1009d69c f   FW_Transfer:txXfer.obj
 0001:0009c6c0       txXfer_Restart             1009d6c0 f   FW_Transfer:txXfer.obj
 0001:0009c6d8       txXfer_SetDefaults         1009d6d8 f   FW_Transfer:txXfer.obj
 0001:0009c6e4       txXfer_SetBusParams        1009d6e4 f   FW_Transfer:txXfer.obj
 0001:0009c9d0       txXfer_ClearStats          1009d9d0 f   FW_Transfer:txXfer.obj
 0001:0009c9f4       txXfer_PrintStats          1009d9f4 f   FW_Transfer:txXfer.obj
 0001:0009caac       txXfer_Init                1009daac f   FW_Transfer:txXfer.obj
 0001:0009cb34       txXfer_RegisterCb          1009db34 f   FW_Transfer:txXfer.obj
 0001:0009cc04       txXfer_SendPacket          1009dc04 f   FW_Transfer:txXfer.obj
 0001:0009cccc       txXfer_EndOfBurst          1009dccc f   FW_Transfer:txXfer.obj
 0001:0009ccf8       MacServices_destroy        1009dcf8 f   MacServices:MacServices.obj
 0001:0009cd48       MacServices_init           1009dd48 f   MacServices:MacServices.obj
 0001:0009cdc8       MacServices_config         1009ddc8 f   MacServices:MacServices.obj
 0001:0009ce04       MacServices_restart        1009de04 f   MacServices:MacServices.obj
 0001:0009ce2c       MacServices_registerFailureEventCB 1009de2c f   MacServices:MacServices.obj
 0001:0009ce6c       MacServices_powerSrv_SetPsMode 1009de6c f   MacServices:MacServices.obj
 0001:0009ce98       MacServices_powerSrv_SetRateModulation 1009de98 f   MacServices:MacServices.obj
 0001:0009ceac       MacServices_create         1009deac f   MacServices:MacServices.obj
 0001:0009cf40       MacServices_scanSRV_create 1009df40 f   MacServices:ScanSrv.obj
 0001:0009cfd0       MacServices_scanSRV_destroy 1009dfd0 f   MacServices:ScanSrv.obj
 0001:0009d00c       scanSRV_restart            1009e00c f   MacServices:ScanSrv.obj
 0001:0009d03c       MacServices_scanSrv_config 1009e03c f   MacServices:ScanSrv.obj
 0001:0009d068       MacServices_scanSRV_registerScanCompleteCB 1009e068 f   MacServices:ScanSrv.obj
 0001:0009d078       scanSRV_registerFailureEventCB 1009e078 f   MacServices:ScanSrv.obj
 0001:0009d084       MacServices_scanSRVCommandMailBoxCB 1009e084 f   MacServices:ScanSrv.obj
 0001:0009d160       MacServices_scanSRV_scan   1009e160 f   MacServices:ScanSrv.obj
 0001:0009d298       MacServices_scanSRV_stopScan 1009e298 f   MacServices:ScanSrv.obj
 0001:0009d344       MacServices_scanSRV_stopOnFWReset 1009e344 f   MacServices:ScanSrv.obj
 0001:0009d3ac       MacServices_scanSRV_powerSaveCB 1009e3ac f   MacServices:ScanSrv.obj
 0001:0009d510       MacServices_scanSRV_scanCompleteCB 1009e510 f   MacServices:ScanSrv.obj
 0001:0009d640       MacServices_scanSRV_scanTimerExpired 1009e640 f   MacServices:ScanSrv.obj
 0001:0009d660       MacServices_scanSrv_UpdateDtimTbtt 1009e660 f   MacServices:ScanSrv.obj
 0001:0009d670       MacServices_scanSrv_printDebugStatus 1009e670 f   MacServices:ScanSrv.obj
 0001:0009d764       MacServices_scanSRV_init   1009e764 f   MacServices:ScanSrv.obj
 0001:0009d868       MacServices_scanSRVcalculateScanTimeout 1009e868 f   MacServices:ScanSrv.obj
 0001:0009d9d4       measurementSRV_restart     1009e9d4 f   MacServices:MeasurementSrv.obj
 0001:0009da4c       MacServices_measurementSRV_destroy 1009ea4c f   MacServices:MeasurementSrv.obj
 0001:0009dab8       MacServices_measurementSRV_startMeasurement 1009eab8 f   MacServices:MeasurementSrv.obj
 0001:0009dc64       MacServices_measurementSRV_stopMeasurement 1009ec64 f   MacServices:MeasurementSrv.obj
 0001:0009dd40       MacServices_measurementSRV_powerSaveCB 1009ed40 f   MacServices:MeasurementSrv.obj
 0001:0009de4c       MacServices_measurementSRV_measureStartCB 1009ee4c f   MacServices:MeasurementSrv.obj
 0001:0009dec4       MacServices_measurementSRV_measureCompleteCB 1009eec4 f   MacServices:MeasurementSrv.obj
 0001:0009df34       MacServices_measurementSRV_apDiscoveryCompleteCB 1009ef34 f   MacServices:MeasurementSrv.obj
 0001:0009df84       MacServices_measurementSRV_startStopTimerExpired 1009ef84 f   MacServices:MeasurementSrv.obj
 0001:0009e020       measurementSRVIsBeaconMeasureIncluded 1009f020 f   MacServices:MeasurementSrv.obj
 0001:0009e050       measurementSRVFindMinDuration 1009f050 f   MacServices:MeasurementSrv.obj
 0001:0009e0c4       measurementSRVHandleBeaconMsrComplete 1009f0c4 f   MacServices:MeasurementSrv.obj
 0001:0009e16c       MacServices_measurementSRV_dummyChannelLoadParamCB 1009f16c f   MacServices:MeasurementSrv.obj
 0001:0009e1cc       measurementSRVIsMeasurementComplete 1009f1cc f   MacServices:MeasurementSrv.obj
 0001:0009e220       measurementSRVFindIndexByType 1009f220 f   MacServices:MeasurementSrv.obj
 0001:0009e260       measurementSRVRegisterFailureEventCB 1009f260 f   MacServices:MeasurementSrv.obj
 0001:0009e26c       MacServices_measurementSRV_create 1009f26c f   MacServices:MeasurementSrv.obj
 0001:0009e2f0       MacServices_measurementSRV_init 1009f2f0 f   MacServices:MeasurementSrv.obj
 0001:0009e4ac       MacServices_measurementSRV_channelLoadParamCB 1009f4ac f   MacServices:MeasurementSrv.obj
 0001:0009e6f8       MacServices_measurementSRV_noiseHistCallBack 1009f6f8 f   MacServices:MeasurementSrv.obj
 0001:0009ea8c       measurementSRVHandleChannelLoadComplete 1009fa8c f   MacServices:MeasurementSrv.obj
 0001:0009eb50       measurementSRVHandleNoiseHistogramComplete 1009fb50 f   MacServices:MeasurementSrv.obj
 0001:0009ecd4       MacServices_measurementSRV_requestTimerExpired 1009fcd4 f   MacServices:MeasurementSrv.obj
 0001:0009ee3c       powerSrv_destroy           1009fe3c f   MacServices:PowerSrv.obj
 0001:0009ee70       powerSrv_config            1009fe70 f   MacServices:PowerSrv.obj
 0001:0009ee88       powerSrv_getPsStatus       1009fe88 f   MacServices:PowerSrv.obj
 0001:0009eeac       powerSrv_SetRateModulation 1009feac f   MacServices:PowerSrv.obj
 0001:0009eec0       powerSrvProcessRequest     1009fec0 f   MacServices:PowerSrv.obj
 0001:0009ef4c       powerSrvRegisterFailureEventCB 1009ff4c f   MacServices:PowerSrv.obj
 0001:0009ef74       powerSrv_create            1009ff74 f   MacServices:PowerSrv.obj
 0001:0009efe8       powerSrv_SetPsMode         1009ffe8 f   MacServices:PowerSrv.obj
 0001:0009f03c       powerSrv_ReservePS         100a003c f   MacServices:PowerSrv.obj
 0001:0009f084       powerSrv_ReleasePS         100a0084 f   MacServices:PowerSrv.obj
 0001:0009f328       powerSrv_init              100a0328 f   MacServices:PowerSrv.obj
 0001:0009f41c       powerSrv_restart           100a041c f   MacServices:PowerSrv.obj
 0001:0009f4bc       scanSRVSM_SMEvent          100a04bc f   MacServices:ScanSrvSM.obj
 0001:0009f5b4       scanSRVSM_requestPS        100a05b4 f   MacServices:ScanSrvSM.obj
 0001:0009f758       scanSRVSM_releasePS        100a0758 f   MacServices:ScanSrvSM.obj
 0001:0009f8c0       scanSRVSM_startActualScan  100a08c0 f   MacServices:ScanSrvSM.obj
 0001:0009fa0c       scanSRVSM_notifyScanComplete 100a0a0c f   MacServices:ScanSrvSM.obj
 0001:0009fb24       scanSRVSM_handleTimerExpiry 100a0b24 f   MacServices:ScanSrvSM.obj
 0001:0009fcac       scanSRVSM_handleRecovery   100a0cac f   MacServices:ScanSrvSM.obj
 0001:0009fe00       scanSRVSM_init             100a0e00 f   MacServices:ScanSrvSM.obj
 0001:000a00d0       measurementSRVSM_SMEvent   100a10d0 f   MacServices:MeasurementSrvSM.obj
 0001:000a01b8       measurementSRVSM_requestDriverMode 100a11b8 f   MacServices:MeasurementSrvSM.obj
 0001:000a034c       measurementSRVSM_startMeasureTypes 100a134c f   MacServices:MeasurementSrvSM.obj
 0001:000a0930       measurementSRVSM_requestMeasureStop 100a1930 f   MacServices:MeasurementSrvSM.obj
 0001:000a0a30       measurementSRVSM_completeMeasure 100a1a30 f   MacServices:MeasurementSrvSM.obj
 0001:000a0a88       measurementSRVSM_stopFromWaitForDriverMode 100a1a88 f   MacServices:MeasurementSrvSM.obj
 0001:000a0c7c       measurementSRVSM_stopFromWaitForMeasureStart 100a1c7c f   MacServices:MeasurementSrvSM.obj
 0001:000a0cc8       measurementSRVSM_stopFromMeasureInProgress 100a1cc8 f   MacServices:MeasurementSrvSM.obj
 0001:000a0f3c       measurementSRVSM_DriverModeFailure 100a1f3c f   MacServices:MeasurementSrvSM.obj
 0001:000a0ff8       measurementSRVSM_measureStartFailure 100a1ff8 f   MacServices:MeasurementSrvSM.obj
 0001:000a1294       measurementSRVSRVSM_dummyStop 100a2294 f   MacServices:MeasurementSrvSM.obj
 0001:000a1304       actionUnexpected           100a2304 f   MacServices:MeasurementSrvSM.obj
 0001:000a13b8       measurementSRVSM_requestMeasureStart 100a23b8 f   MacServices:MeasurementSrvSM.obj
 0001:000a1638       measurementSRVSM_init      100a2638 f   MacServices:MeasurementSrvSM.obj
 0001:000a1900       measurementSRVPrintTypeRequest 100a2900 f   MacServices:measurementSrvDbgPrint.obj
 0001:000a1974       measurementSRVPrintRequest 100a2974 f   MacServices:measurementSrvDbgPrint.obj
 0001:000a1a64       powerSrvSM_destroy         100a2a64 f   MacServices:PowerSrvSM.obj
 0001:000a1ab0       powerSrvSM_config          100a2ab0 f   MacServices:PowerSrvSM.obj
 0001:000a1acc       powerSrvSm_setSmRequest    100a2acc f   MacServices:PowerSrvSM.obj
 0001:000a1ad8       powerSrvSM_getCurrentState 100a2ad8 f   MacServices:PowerSrvSM.obj
 0001:000a1ae0       powerSrvSM_setRateModulation 100a2ae0 f   MacServices:PowerSrvSM.obj
 0001:000a1cf4       powerSrvSM_RegisterFailureEventCB 100a2cf4 f   MacServices:PowerSrvSM.obj
 0001:000a1d00       powerSrvSM_create          100a2d00 f   MacServices:PowerSrvSM.obj
 0001:000a1db0       powerSrvSM_SMApi           100a2db0 f   MacServices:PowerSrvSM.obj
 0001:000a1f78       powerSrvSM_init            100a2f78 f   MacServices:PowerSrvSM.obj
 0001:000a25c8       __IMPORT_DESCRIPTOR_CEDDK  100a35c8     ceddk:CEDDK.dll
 0001:000a25dc       __IMPORT_DESCRIPTOR_COREDLL 100a35dc     coredll:COREDLL.dll
 0001:000a25f0       __IMPORT_DESCRIPTOR_NDIS   100a35f0     ndis:NDIS.dll
 0001:000a2604       __IMPORT_DESCRIPTOR_WS2    100a3604     ws2:WS2.dll
 0001:000a2618       __IMPORT_DESCRIPTOR_SDI    100a3618     sdi_Z2170P:SDI.dll
 0001:000a262c       __NULL_IMPORT_DESCRIPTOR   100a362c     ceddk:CEDDK.dll
 0002:00000000       __imp_GPIOClose            100a4000     ceddk:CEDDK.dll
 0002:00000004       __imp_GPIOClrBit           100a4004     ceddk:CEDDK.dll
 0002:00000008       __imp_GPIOSetBit           100a4008     ceddk:CEDDK.dll
 0002:0000000c       __imp_GPIOSetMode          100a400c     ceddk:CEDDK.dll
 0002:00000010       __imp_GPIOOpen             100a4010     ceddk:CEDDK.dll
 0002:00000014       __imp_MmUnmapIoSpace       100a4014     ceddk:CEDDK.dll
 0002:00000018       __imp_MmMapIoSpace         100a4018     ceddk:CEDDK.dll
 0002:0000001c       __imp_GPIOGetSystemIrq     100a401c     ceddk:CEDDK.dll
 0002:00000020       \177CEDDK_NULL_THUNK_DATA  100a4020     ceddk:CEDDK.dll
 0002:00000024       __imp_EventModify          100a4024     coredll:COREDLL.dll
 0002:00000028       __imp_NKDbgPrintfW         100a4028     coredll:COREDLL.dll
 0002:0000002c       __imp_GetLastError         100a402c     coredll:COREDLL.dll
 0002:00000030       __imp_CreateEventW         100a4030     coredll:COREDLL.dll
 0002:00000034       __imp_InitializeCriticalSection 100a4034     coredll:COREDLL.dll
 0002:00000038       __imp_DeleteCriticalSection 100a4038     coredll:COREDLL.dll
 0002:0000003c       __imp_EnterCriticalSection 100a403c     coredll:COREDLL.dll
 0002:00000040       __imp_LeaveCriticalSection 100a4040     coredll:COREDLL.dll
 0002:00000044       __imp_WaitForSingleObject  100a4044     coredll:COREDLL.dll
 0002:00000048       __imp_CloseHandle          100a4048     coredll:COREDLL.dll
 0002:0000004c       __imp_CeSetThreadPriority  100a404c     coredll:COREDLL.dll
 0002:00000050       __imp_MultiByteToWideChar  100a4050     coredll:COREDLL.dll
 0002:00000054       __imp_DisableThreadLibraryCalls 100a4054     coredll:COREDLL.dll
 0002:00000058       __imp_CreateThread         100a4058     coredll:COREDLL.dll
 0002:0000005c       __imp_GetTickCount         100a405c     coredll:COREDLL.dll
 0002:00000060       __imp_SetProcPermissions   100a4060     coredll:COREDLL.dll
 0002:00000064       __imp_Sleep                100a4064     coredll:COREDLL.dll
 0002:00000068       __imp___report_gsfailure   100a4068     corelib1:COREDLL.dll
 0002:0000006c       __imp___rt_udiv            100a406c     corelib1:COREDLL.dll
 0002:00000070       __imp_malloc               100a4070     corelib1:COREDLL.dll
 0002:00000074       __imp_printf               100a4074     corelib1:COREDLL.dll
 0002:00000078       __imp___rt_sdiv            100a4078     corelib1:COREDLL.dll
 0002:0000007c       __imp_memcmp               100a407c     corelib1:COREDLL.dll
 0002:00000080       __imp_memcpy               100a4080     corelib1:COREDLL.dll
 0002:00000084       __imp_strlen               100a4084     corelib1:COREDLL.dll
 0002:00000088       __imp_vsprintf             100a4088     corelib1:COREDLL.dll
 0002:0000008c       __imp_memset               100a408c     corelib1:COREDLL.dll
 0002:00000090       __imp___C_specific_handler 100a4090     corelib1:COREDLL.dll
 0002:00000094       \177COREDLL_NULL_THUNK_DATA 100a4094     coredll:COREDLL.dll
 0002:00000098       __imp_NdisAllocatePacketPool 100a4098     ndis:NDIS.dll
 0002:0000009c       __imp_NdisMSetAttributesEx 100a409c     ndis:NDIS.dll
 0002:000000a0       __imp_NdisOpenConfiguration 100a40a0     ndis:NDIS.dll
 0002:000000a4       __imp_NdisTerminateWrapper 100a40a4     ndis:NDIS.dll
 0002:000000a8       __imp_NdisWriteErrorLogEntry 100a40a8     ndis:NDIS.dll
 0002:000000ac       __imp_NdisMRegisterMiniport 100a40ac     ndis:NDIS.dll
 0002:000000b0       __imp_NdisAllocateBufferPool 100a40b0     ndis:NDIS.dll
 0002:000000b4       __imp_NdisFreePacket       100a40b4     ndis:NDIS.dll
 0002:000000b8       __imp_NdisFreeBuffer       100a40b8     ndis:NDIS.dll
 0002:000000bc       __imp_NdisQueryPacket      100a40bc     ndis:NDIS.dll
 0002:000000c0       __imp_NdisAllocateBuffer   100a40c0     ndis:NDIS.dll
 0002:000000c4       __imp_NdisAllocatePacket   100a40c4     ndis:NDIS.dll
 0002:000000c8       __imp_NdisMapFile          100a40c8     ndis:NDIS.dll
 0002:000000cc       __imp_NdisOpenFile         100a40cc     ndis:NDIS.dll
 0002:000000d0       __imp_NdisInitializeString 100a40d0     ndis:NDIS.dll
 0002:000000d4       __imp_NdisUnicodeStringToAnsiString 100a40d4     ndis:NDIS.dll
 0002:000000d8       __imp_NdisReadConfiguration 100a40d8     ndis:NDIS.dll
 0002:000000dc       __imp_NdisMInitializeTimer 100a40dc     ndis:NDIS.dll
 0002:000000e0       __imp_NdisSetTimer         100a40e0     ndis:NDIS.dll
 0002:000000e4       __imp_NdisMCancelTimer     100a40e4     ndis:NDIS.dll
 0002:000000e8       __imp_NdisGetSystemUpTime  100a40e8     ndis:NDIS.dll
 0002:000000ec       __imp_NdisMSleep           100a40ec     ndis:NDIS.dll
 0002:000000f0       __imp_NdisAllocateMemoryWithTag 100a40f0     ndis:NDIS.dll
 0002:000000f4       __imp_NdisFreeMemory       100a40f4     ndis:NDIS.dll
 0002:000000f8       __imp_NdisFreeBufferPool   100a40f8     ndis:NDIS.dll
 0002:000000fc       __imp_NdisInitializeWrapper 100a40fc     ndis:NDIS.dll
 0002:00000100       __imp_NdisFreePacketPool   100a4100     ndis:NDIS.dll
 0002:00000104       __imp_NdisCloseConfiguration 100a4104     ndis:NDIS.dll
 0002:00000108       __imp_NdisCloseFile        100a4108     ndis:NDIS.dll
 0002:0000010c       __imp_NdisMRegisterInterrupt 100a410c     ndis:NDIS.dll
 0002:00000110       \177NDIS_NULL_THUNK_DATA   100a4110     ndis:NDIS.dll
 0002:00000114       __imp_sdioDrv_ReadSyncBytes 100a4114     sdi_Z2170P:SDI.dll
 0002:00000118       __imp_sdioDrv_WriteSyncBytes 100a4118     sdi_Z2170P:SDI.dll
 0002:0000011c       __imp_sdioDrv_ConnectBus   100a411c     sdi_Z2170P:SDI.dll
 0002:00000120       __imp_sdioDrv_DisconnectBus 100a4120     sdi_Z2170P:SDI.dll
 0002:00000124       __imp_sdioDrv_WriteAsync   100a4124     sdi_Z2170P:SDI.dll
 0002:00000128       __imp_sdioDrv_ReadAsync    100a4128     sdi_Z2170P:SDI.dll
 0002:0000012c       __imp_sdiodrv_clkstop      100a412c     sdi_Z2170P:SDI.dll
 0002:00000130       __imp_sdiodrv_clkset       100a4130     sdi_Z2170P:SDI.dll
 0002:00000134       __imp_sdioDrv_WriteSync    100a4134     sdi_Z2170P:SDI.dll
 0002:00000138       __imp_sdioDrv_ReadSync     100a4138     sdi_Z2170P:SDI.dll
 0002:0000013c       __imp_sdioDrv_ExecuteCmd   100a413c     sdi_Z2170P:SDI.dll
 0002:00000140       \177SDI_NULL_THUNK_DATA    100a4140     sdi_Z2170P:SDI.dll
 0002:00000144       __imp_inet_addr            100a4144     ws2:WS2.dll
 0002:00000148       __imp_WSAStartup           100a4148     ws2:WS2.dll
 0002:0000014c       __imp_socket               100a414c     ws2:WS2.dll
 0002:00000150       __imp_WSACleanup           100a4150     ws2:WS2.dll
 0002:00000154       __imp_htonl                100a4154     ws2:WS2.dll
 0002:00000158       __imp_htons                100a4158     ws2:WS2.dll
 0002:0000015c       __imp_sendto               100a415c     ws2:WS2.dll
 0002:00000160       __imp_closesocket          100a4160     ws2:WS2.dll
 0002:00000164       \177WS2_NULL_THUNK_DATA    100a4164     ws2:WS2.dll
 0002:00000174       TiDebugFlag                100a4174     osentry.obj
 0002:000004e0       STR_ReportSeverityTable    100a44e0     oscommon:osRgstry.obj
 0002:000004e8       STR_ReportModuleTable      100a44e8     oscommon:osRgstry.obj
 0002:000004f0       STRFilterEnabled           100a44f0     oscommon:osRgstry.obj
 0002:000004f8       STRnumGroupAddrs           100a44f8     oscommon:osRgstry.obj
 0002:00000500       STRGroup_addr0             100a4500     oscommon:osRgstry.obj
 0002:00000508       STRGroup_addr1             100a4508     oscommon:osRgstry.obj
 0002:00000510       STRGroup_addr2             100a4510     oscommon:osRgstry.obj
 0002:00000518       STRGroup_addr3             100a4518     oscommon:osRgstry.obj
 0002:00000520       STRGroup_addr4             100a4520     oscommon:osRgstry.obj
 0002:00000528       STRGroup_addr5             100a4528     oscommon:osRgstry.obj
 0002:00000530       STRGroup_addr6             100a4530     oscommon:osRgstry.obj
 0002:00000538       STRGroup_addr7             100a4538     oscommon:osRgstry.obj
 0002:00000540       STREarlyWakeup             100a4540     oscommon:osRgstry.obj
 0002:00000548       STRArp_Ip_Addr             100a4548     oscommon:osRgstry.obj
 0002:00000550       STRArp_Ip_Filter_Ena       100a4550     oscommon:osRgstry.obj
 0002:00000558       STRBeaconFilterDesiredState 100a4558     oscommon:osRgstry.obj
 0002:00000560       STRBeaconFilterStored      100a4560     oscommon:osRgstry.obj
 0002:00000568       STRBeaconIETableSize       100a4568     oscommon:osRgstry.obj
 0002:00000570       STRBeaconIETable           100a4570     oscommon:osRgstry.obj
 0002:00000578       STRBeaconIETableNumOfElem  100a4578     oscommon:osRgstry.obj
 0002:00000580       STRCoexActivityTable       100a4580     oscommon:osRgstry.obj
 0002:00000588       STRCoexActivityNumOfElem   100a4588     oscommon:osRgstry.obj
 0002:00000590       STRFirmwareDebug           100a4590     oscommon:osRgstry.obj
 0002:00000598       STRTraceBufferSize         100a4598     oscommon:osRgstry.obj
 0002:000005a0       STRPrintTrace              100a45a0     oscommon:osRgstry.obj
 0002:000005a8       STRHwACXAccessMethod       100a45a8     oscommon:osRgstry.obj
 0002:000005b0       STRMaxSitesFragCollect     100a45b0     oscommon:osRgstry.obj
 0002:000005b8       STRTxFlashEnable           100a45b8     oscommon:osRgstry.obj
 0002:000005c0       STRBetEnable               100a45c0     oscommon:osRgstry.obj
 0002:000005c8       STRBetMaxConsecutive       100a45c8     oscommon:osRgstry.obj
 0002:000005d0       STRMaxFullBeaconInterval   100a45d0     oscommon:osRgstry.obj
 0002:000005d8       STRBetEnableThreshold      100a45d8     oscommon:osRgstry.obj
 0002:000005e0       STRBetDisableThreshold     100a45e0     oscommon:osRgstry.obj
 0002:000005e8       STRNumHostRxDescriptors    100a45e8     oscommon:osRgstry.obj
 0002:000005f0       STRNumHostTxDescriptors    100a45f0     oscommon:osRgstry.obj
 0002:000005f8       STRACXMemoryBlockSize      100a45f8     oscommon:osRgstry.obj
 0002:00000600       STRACXRxMemoryBlockSize    100a4600     oscommon:osRgstry.obj
 0002:00000608       STRACXTxMemoryBlockSize    100a4608     oscommon:osRgstry.obj
 0002:00000610       STRACXUseTxDataInterrupt   100a4610     oscommon:osRgstry.obj
 0002:00000618       STRACXUseInterruptThreshold 100a4618     oscommon:osRgstry.obj
 0002:00000620       STRCalibrationChannel2_4   100a4620     oscommon:osRgstry.obj
 0002:00000628       STRCalibrationChannel5_0   100a4628     oscommon:osRgstry.obj
 0002:00000630       STRdot11RTSThreshold       100a4630     oscommon:osRgstry.obj
 0002:00000638       STRRxDisableBroadcast      100a4638     oscommon:osRgstry.obj
 0002:00000640       STRRecoveryEnable          100a4640     oscommon:osRgstry.obj
 0002:00000648       STRdot11TxAntenna          100a4648     oscommon:osRgstry.obj
 0002:00000650       STRdot11RxAntenna          100a4650     oscommon:osRgstry.obj
 0002:00000658       STRTxCompleteThreshold     100a4658     oscommon:osRgstry.obj
 0002:00000660       STRTxCompleteTimeout       100a4660     oscommon:osRgstry.obj
 0002:00000668       STRRxInterruptThreshold    100a4668     oscommon:osRgstry.obj
 0002:00000670       STRRxInterruptTimeout      100a4670     oscommon:osRgstry.obj
 0002:00000678       STRRxAggregationPktsLimit  100a4678     oscommon:osRgstry.obj
 0002:00000680       STRTxAggregationPktsLimit  100a4680     oscommon:osRgstry.obj
 0002:00000688       STRdot11FragThreshold      100a4688     oscommon:osRgstry.obj
 0002:00000690       STRdot11MaxTxMSDULifetime  100a4690     oscommon:osRgstry.obj
 0002:00000698       STRdot11MaxReceiveLifetime 100a4698     oscommon:osRgstry.obj
 0002:000006a0       STRdot11RateFallBackRetryLimit 100a46a0     oscommon:osRgstry.obj
 0002:000006a8       STRReAuthActivePriority    100a46a8     oscommon:osRgstry.obj
 0002:000006b0       STRListenInterval          100a46b0     oscommon:osRgstry.obj
 0002:000006b8       STRExternalMode            100a46b8     oscommon:osRgstry.obj
 0002:000006c0       STRWiFiAdHoc               100a46c0     oscommon:osRgstry.obj
 0002:000006c8       STRWiFiWmmPS               100a46c8     oscommon:osRgstry.obj
 0002:000006d0       STRWiFiMode                100a46d0     oscommon:osRgstry.obj
 0002:000006d8       STRStopNetStackTx          100a46d8     oscommon:osRgstry.obj
 0002:000006e0       STRTxSendPaceThresh        100a46e0     oscommon:osRgstry.obj
 0002:000006e8       STRdot11DesiredChannel     100a46e8     oscommon:osRgstry.obj
 0002:000006f0       STRdot11DesiredSSID        100a46f0     oscommon:osRgstry.obj
 0002:000006f8       STRdot11DesiredBSSType     100a46f8     oscommon:osRgstry.obj
 0002:00000700       STRdot11BasicRateMask_B    100a4700     oscommon:osRgstry.obj
 0002:00000708       STRdot11SupportedRateMask_B 100a4708     oscommon:osRgstry.obj
 0002:00000710       STRdot11BasicRateMask_G    100a4710     oscommon:osRgstry.obj
 0002:00000718       STRdot11SupportedRateMask_G 100a4718     oscommon:osRgstry.obj
 0002:00000720       STRdot11BasicRateMask_A    100a4720     oscommon:osRgstry.obj
 0002:00000728       STRdot11SupportedRateMask_A 100a4728     oscommon:osRgstry.obj
 0002:00000730       STRdot11BasicRateMask_AG   100a4730     oscommon:osRgstry.obj
 0002:00000738       STRdot11SupportedRateMask_AG 100a4738     oscommon:osRgstry.obj
 0002:00000740       STRdot11BasicRateMask_N    100a4740     oscommon:osRgstry.obj
 0002:00000748       STRdot11SupportedRateMask_N 100a4748     oscommon:osRgstry.obj
 0002:00000750       STRRadio11_RxLevel         100a4750     oscommon:osRgstry.obj
 0002:00000758       STRRadio11_LNA             100a4758     oscommon:osRgstry.obj
 0002:00000760       STRRadio11_RSSI            100a4760     oscommon:osRgstry.obj
 0002:00000768       STRRadio0D_RxLevel         100a4768     oscommon:osRgstry.obj
 0002:00000770       STRRadio0D_LNA             100a4770     oscommon:osRgstry.obj
 0002:00000778       STRRadio0D_RSSI            100a4778     oscommon:osRgstry.obj
 0002:00000780       STRdot11DesiredNetworkType 100a4780     oscommon:osRgstry.obj
 0002:00000788       STRdot11DefaultNetworkType 100a4788     oscommon:osRgstry.obj
 0002:00000790       STRdot11SlotTime           100a4790     oscommon:osRgstry.obj
 0002:00000798       STRdot11IbssProtection     100a4798     oscommon:osRgstry.obj
 0002:000007a0       STRdot11RtsCtsProtection   100a47a0     oscommon:osRgstry.obj
 0002:000007a8       STRRxEnergyDetection       100a47a8     oscommon:osRgstry.obj
 0002:000007b0       STRCh14TelecCca            100a47b0     oscommon:osRgstry.obj
 0002:000007b8       STRCrtCalibrationInterval  100a47b8     oscommon:osRgstry.obj
 0002:000007c0       STRTddCalibrationInterval  100a47c0     oscommon:osRgstry.obj
 0002:000007c8       STRMacClockRate            100a47c8     oscommon:osRgstry.obj
 0002:000007d0       STRArmClockRate            100a47d0     oscommon:osRgstry.obj
 0002:000007d8       STRg80211DraftNumber       100a47d8     oscommon:osRgstry.obj
 0002:000007e0       STRdot11ShortPreambleInvoked 100a47e0     oscommon:osRgstry.obj
 0002:000007e8       STRdot11BeaconPeriod       100a47e8     oscommon:osRgstry.obj
 0002:000007f0       STRdot11MaxScanTime        100a47f0     oscommon:osRgstry.obj
 0002:000007f8       STRdot11MinScanTime        100a47f8     oscommon:osRgstry.obj
 0002:00000800       STRdot11MaxSiteLifetime    100a4800     oscommon:osRgstry.obj
 0002:00000808       STRdot11MaxAuthRetry       100a4808     oscommon:osRgstry.obj
 0002:00000810       STRdot11MaxAssocRetry      100a4810     oscommon:osRgstry.obj
 0002:00000818       STRdot11AuthRespTimeout    100a4818     oscommon:osRgstry.obj
 0002:00000820       STRdot11AssocRespTimeout   100a4820     oscommon:osRgstry.obj
 0002:00000828       STRConnSelfTimeout         100a4828     oscommon:osRgstry.obj
 0002:00000830       STRCreditCalcTimout        100a4830     oscommon:osRgstry.obj
 0002:00000838       STRCreditCalcTimerEnabled  100a4838     oscommon:osRgstry.obj
 0002:00000840       STRTrafficAdmControlTimeout 100a4840     oscommon:osRgstry.obj
 0002:00000848       STRTrafficAdmControlUseFixedMsduSize 100a4848     oscommon:osRgstry.obj
 0002:00000850       STRDesiredMaxSpLen         100a4850     oscommon:osRgstry.obj
 0002:00000858       STRCwFromUserEnable        100a4858     oscommon:osRgstry.obj
 0002:00000860       STRDesireCwMin             100a4860     oscommon:osRgstry.obj
 0002:00000868       STRDesireCwMax             100a4868     oscommon:osRgstry.obj
 0002:00000870       STRRatePolicyUserShortRetryLimit 100a4870     oscommon:osRgstry.obj
 0002:00000878       STRRatePolicyUserLongRetryLimit 100a4878     oscommon:osRgstry.obj
 0002:00000880       STRRatePolicyUserEnabledRatesMaskCck 100a4880     oscommon:osRgstry.obj
 0002:00000888       STRRatePolicyUserEnabledRatesMaskOfdm 100a4888     oscommon:osRgstry.obj
 0002:00000890       STRRatePolicyUserEnabledRatesMaskOfdmA 100a4890     oscommon:osRgstry.obj
 0002:00000898       STRRatePolicyUserEnabledRatesMaskOfdmN 100a4898     oscommon:osRgstry.obj
 0002:000008a0       STRdot11AuthenticationMode 100a48a0     oscommon:osRgstry.obj
 0002:000008a8       STRdot11WEPStatus          100a48a8     oscommon:osRgstry.obj
 0002:000008b0       STRdot11ExcludeUnencrypted 100a48b0     oscommon:osRgstry.obj
 0002:000008b8       STRdot11WEPKeymappingLength 100a48b8     oscommon:osRgstry.obj
 0002:000008c0       STRdot11WEPDefaultKeyID    100a48c0     oscommon:osRgstry.obj
 0002:000008c8       STRMixedMode               100a48c8     oscommon:osRgstry.obj
 0002:000008d0       STRWPAMixedMode            100a48d0     oscommon:osRgstry.obj
 0002:000008d8       STRRSNPreAuth              100a48d8     oscommon:osRgstry.obj
 0002:000008e0       STRRSNPreAuthTimeout       100a48e0     oscommon:osRgstry.obj
 0002:000008e8       STRPairwiseMicFailureFilter 100a48e8     oscommon:osRgstry.obj
 0002:000008f0       STRTimeToResetCountryMs    100a48f0     oscommon:osRgstry.obj
 0002:000008f8       STRMultiRegulatoryDomainEnabled 100a48f8     oscommon:osRgstry.obj
 0002:00000900       STRSpectrumManagementEnabled 100a4900     oscommon:osRgstry.obj
 0002:00000908       STRScanControlTable24      100a4908     oscommon:osRgstry.obj
 0002:00000910       STRScanControlTable5       100a4910     oscommon:osRgstry.obj
 0002:00000918       STRBurstModeEnable         100a4918     oscommon:osRgstry.obj
 0002:00000920       STRSRState                 100a4920     oscommon:osRgstry.obj
 0002:00000928       STRSRConfigParam1          100a4928     oscommon:osRgstry.obj
 0002:00000930       STRSRConfigParam2          100a4930     oscommon:osRgstry.obj
 0002:00000938       STRSRConfigParam3          100a4938     oscommon:osRgstry.obj
 0002:00000940       STRPowerMode               100a4940     oscommon:osRgstry.obj
 0002:00000948       STRBeaconReceiveTime       100a4948     oscommon:osRgstry.obj
 0002:00000950       STRBaseBandWakeUpTime      100a4950     oscommon:osRgstry.obj
 0002:00000958       STRHangoverPeriod          100a4958     oscommon:osRgstry.obj
 0002:00000960       STRBeaconListenInterval    100a4960     oscommon:osRgstry.obj
 0002:00000968       STRDtimListenInterval      100a4968     oscommon:osRgstry.obj
 0002:00000970       STRNConsecutiveBeaconsMissed 100a4970     oscommon:osRgstry.obj
 0002:00000978       STREnterTo802_11PsRetries  100a4978     oscommon:osRgstry.obj
 0002:00000980       STRAutoPowerModeInterval   100a4980     oscommon:osRgstry.obj
 0002:00000988       STRAutoPowerModeActiveTh   100a4988     oscommon:osRgstry.obj
 0002:00000990       STRAutoPowerModeDozeTh     100a4990     oscommon:osRgstry.obj
 0002:00000998       STRAutoPowerModeDozeMode   100a4998     oscommon:osRgstry.obj
 0002:000009a0       STRDefaultPowerLevel       100a49a0     oscommon:osRgstry.obj
 0002:000009a8       STRPowerSavePowerLevel     100a49a8     oscommon:osRgstry.obj
 0002:000009b0       STRHostClkSettlingTime     100a49b0     oscommon:osRgstry.obj
 0002:000009b8       STRHostFastWakeupSupport   100a49b8     oscommon:osRgstry.obj
 0002:000009c0       STRDcoItrimEnabled         100a49c0     oscommon:osRgstry.obj
 0002:000009c8       STRDcoItrimModerationTimeout 100a49c8     oscommon:osRgstry.obj
 0002:000009d0       STRPsPollDeliveryFailureRecoveryPeriod 100a49d0     oscommon:osRgstry.obj
 0002:000009d8       STRPowerMgmtHangOverPeriod 100a49d8     oscommon:osRgstry.obj
 0002:000009e0       STRPowerMgmtMode           100a49e0     oscommon:osRgstry.obj
 0002:000009e8       STRPowerMgmtNeedToSendNullData 100a49e8     oscommon:osRgstry.obj
 0002:000009f0       STRPowerMgmtNullPktRateModulation 100a49f0     oscommon:osRgstry.obj
 0002:000009f8       STRPowerMgmtNumNullPktRetries 100a49f8     oscommon:osRgstry.obj
 0002:00000a00       STRPowerMgmtPllLockTime    100a4a00     oscommon:osRgstry.obj
 0002:00000a08       STRBeaconRxTimeout         100a4a08     oscommon:osRgstry.obj
 0002:00000a10       STRBroadcastRxTimeout      100a4a10     oscommon:osRgstry.obj
 0002:00000a18       STRRxBroadcastInPs         100a4a18     oscommon:osRgstry.obj
 0002:00000a20       STRConsecutivePsPollDeliveryFailureThreshold 100a4a20     oscommon:osRgstry.obj
 0002:00000a28       STRTxPower                 100a4a28     oscommon:osRgstry.obj
 0002:00000a30       STRNumberOfNoScanCompleteToRecovery 100a4a30     oscommon:osRgstry.obj
 0002:00000a38       STRTriggeredScanTimeOut    100a4a38     oscommon:osRgstry.obj
 0002:00000a40       STRBThWlanCoexistEnable    100a4a40     oscommon:osRgstry.obj
 0002:00000a48       STRBThWlanCoexistPerThreshold 100a4a48     oscommon:osRgstry.obj
 0002:00000a50       STRBThWlanCoexistHv3MaxOverride 100a4a50     oscommon:osRgstry.obj
 0002:00000a58       STRBThWlanCoexistParamsBtLoadRatio 100a4a58     oscommon:osRgstry.obj
 0002:00000a60       STRBThWlanCoexistParamsAutoPsMode 100a4a60     oscommon:osRgstry.obj
 0002:00000a68       STRBThWlanCoexHv3AutoScanEnlargedNumOfProbeReqPercent 100a4a68     oscommon:osRgstry.obj
 0002:00000a70       STRBThWlanCoexHv3AutoScanEnlargedScanWinodowPercent 100a4a70     oscommon:osRgstry.obj
 0002:00000a78       STRBThWlanCoexistcoexAntennaConfiguration 100a4a78     oscommon:osRgstry.obj
 0002:00000a80       STRBThWlanCoexistNfsSampleInterval 100a4a80     oscommon:osRgstry.obj
 0002:00000a88       STRBThWlanCoexistcoexMaxConsecutiveBeaconMissPrecent 100a4a88     oscommon:osRgstry.obj
 0002:00000a90       STRBThWlanCoexistcoexAPRateAdapationThr 100a4a90     oscommon:osRgstry.obj
 0002:00000a98       STRBThWlanCoexistcoexAPRateAdapationSnr 100a4a98     oscommon:osRgstry.obj
 0002:00000aa0       STRBThWlanCoexistUpsdAclMasterMinBR 100a4aa0     oscommon:osRgstry.obj
 0002:00000aa8       STRBThWlanCoexistUpsdAclSlaveMinBR 100a4aa8     oscommon:osRgstry.obj
 0002:00000ab0       STRBThWlanCoexistUpsdAclMasterMaxBR 100a4ab0     oscommon:osRgstry.obj
 0002:00000ab8       STRBThWlanCoexistUpsdAclSlaveMaxBR 100a4ab8     oscommon:osRgstry.obj
 0002:00000ac0       STRBThWlanPsMaxBtAclMasterBR 100a4ac0     oscommon:osRgstry.obj
 0002:00000ac8       STRBThWlanPsMaxBtAclSlaveBR 100a4ac8     oscommon:osRgstry.obj
 0002:00000ad0       STRBThWlanCoexistUpsdAclMasterMinEDR 100a4ad0     oscommon:osRgstry.obj
 0002:00000ad8       STRBThWlanCoexistUpsdAclSlaveMinEDR 100a4ad8     oscommon:osRgstry.obj
 0002:00000ae0       STRBThWlanCoexistUpsdAclMasterMaxEDR 100a4ae0     oscommon:osRgstry.obj
 0002:00000ae8       STRBThWlanCoexistUpsdAclSlaveMaxEDR 100a4ae8     oscommon:osRgstry.obj
 0002:00000af0       STRBThWlanPsMaxBtAclMasterEDR 100a4af0     oscommon:osRgstry.obj
 0002:00000af8       STRBThWlanPsMaxBtAclSlaveEDR 100a4af8     oscommon:osRgstry.obj
 0002:00000b00       STRBThWlanCoexistRxt       100a4b00     oscommon:osRgstry.obj
 0002:00000b08       STRBThWlanCoexistTxt       100a4b08     oscommon:osRgstry.obj
 0002:00000b10       STRBThWlanCoexistAdaptiveRxtTxt 100a4b10     oscommon:osRgstry.obj
 0002:00000b18       STRBThWlanCoexistPsPollTimeout 100a4b18     oscommon:osRgstry.obj
 0002:00000b20       STRBThWlanCoexistUpsdTimeout 100a4b20     oscommon:osRgstry.obj
 0002:00000b28       STRBThWlanCoexistWlanActiveBtAclMasterMinEDR 100a4b28     oscommon:osRgstry.obj
 0002:00000b30       STRBThWlanCoexistWlanActiveBtAclMasterMaxEDR 100a4b30     oscommon:osRgstry.obj
 0002:00000b38       STRBThWlanCoexistWlanActiveMaxBtAclMasterEDR 100a4b38     oscommon:osRgstry.obj
 0002:00000b40       STRBThWlanCoexistWlanActiveBtAclSlaveMinEDR 100a4b40     oscommon:osRgstry.obj
 0002:00000b48       STRBThWlanCoexistWlanActiveBtAclSlaveMaxEDR 100a4b48     oscommon:osRgstry.obj
 0002:00000b50       STRBThWlanCoexistWlanActiveMaxBtAclSlaveEDR 100a4b50     oscommon:osRgstry.obj
 0002:00000b58       STRBThWlanCoexistWlanActiveBtAclMinBR 100a4b58     oscommon:osRgstry.obj
 0002:00000b60       STRBThWlanCoexistWlanActiveBtAclMaxBR 100a4b60     oscommon:osRgstry.obj
 0002:00000b68       STRBThWlanCoexistWlanActiveMaxBtAclBR 100a4b68     oscommon:osRgstry.obj
 0002:00000b70       STRBThWlanCoexHv3AutoEnlargePassiveScanWindowPercent 100a4b70     oscommon:osRgstry.obj
 0002:00000b78       STRBThWlanCoexA2DPAutoEnlargePassiveScanWindowPercent 100a4b78     oscommon:osRgstry.obj
 0002:00000b80       STRBThWlanCoexPassiveScanA2dpBtTime 100a4b80     oscommon:osRgstry.obj
 0002:00000b88       STRBThWlanCoexPassiveScanA2dpWlanTime 100a4b88     oscommon:osRgstry.obj
 0002:00000b90       STRBThWlancoexDhcpTime     100a4b90     oscommon:osRgstry.obj
 0002:00000b98       STRBThWlanCoexHv3MaxServed 100a4b98     oscommon:osRgstry.obj
 0002:00000ba0       STRBThWlanCoexA2dpAutoScanEnlargedScanWinodowPercent 100a4ba0     oscommon:osRgstry.obj
 0002:00000ba8       STRBThWlanCoexTemp1        100a4ba8     oscommon:osRgstry.obj
 0002:00000bb0       STRBThWlanCoexTemp2        100a4bb0     oscommon:osRgstry.obj
 0002:00000bb8       STRBThWlanCoexTemp3        100a4bb8     oscommon:osRgstry.obj
 0002:00000bc0       STRBThWlanCoexTemp4        100a4bc0     oscommon:osRgstry.obj
 0002:00000bc8       STRBThWlanCoexTemp5        100a4bc8     oscommon:osRgstry.obj
 0002:00000bd0       STRDisableSsidPending      100a4bd0     oscommon:osRgstry.obj
 0002:00000bd8       STRSmeRadioOn              100a4bd8     oscommon:osRgstry.obj
 0002:00000be0       STRSmeConnectMode          100a4be0     oscommon:osRgstry.obj
 0002:00000be8       STRSmeScanRssiThreshold    100a4be8     oscommon:osRgstry.obj
 0002:00000bf0       STRSmeScanSnrThreshold     100a4bf0     oscommon:osRgstry.obj
 0002:00000bf8       STRSmeScanCycleNumber      100a4bf8     oscommon:osRgstry.obj
 0002:00000c00       STRSmeScanMaxDwellTime     100a4c00     oscommon:osRgstry.obj
 0002:00000c08       STRSmeScanMinDwellTime     100a4c08     oscommon:osRgstry.obj
 0002:00000c10       STRSmeScanProbeRequestNumber 100a4c10     oscommon:osRgstry.obj
 0002:00000c18       STRSmeScanIntervals        100a4c18     oscommon:osRgstry.obj
 0002:00000c20       STRSmeScanGChannels        100a4c20     oscommon:osRgstry.obj
 0002:00000c28       STRSmeScanAChannels        100a4c28     oscommon:osRgstry.obj
 0002:00000c30       STRRoamScanEnable          100a4c30     oscommon:osRgstry.obj
 0002:00000c38       STRRecoveryEnabledNoScanComplete 100a4c38     oscommon:osRgstry.obj
 0002:00000c40       STRRecoveryEnabledMboxFailure 100a4c40     oscommon:osRgstry.obj
 0002:00000c48       STRRecoveryEnabledHwAwakeFailure 100a4c48     oscommon:osRgstry.obj
 0002:00000c50       STRRecoveryEnabledTxStuck  100a4c50     oscommon:osRgstry.obj
 0002:00000c58       STRRecoveryEnabledDisconnectTimeout 100a4c58     oscommon:osRgstry.obj
 0002:00000c60       STRRecoveryEnabledPowerSaveFailure 100a4c60     oscommon:osRgstry.obj
 0002:00000c68       STRRecoveryEnabledMeasurementFailure 100a4c68     oscommon:osRgstry.obj
 0002:00000c70       STRRecoveryEnabledBusFailure 100a4c70     oscommon:osRgstry.obj
 0002:00000c78       STRRecoveryEnabledHwWdExpire 100a4c78     oscommon:osRgstry.obj
 0002:00000c80       STRRecoveryEnabledRxXferFailure 100a4c80     oscommon:osRgstry.obj
 0002:00000c88       STRTxPowerCheckTime        100a4c88     oscommon:osRgstry.obj
 0002:00000c90       STRTxPowerControlOn        100a4c90     oscommon:osRgstry.obj
 0002:00000c98       STRTxPowerRssiThresh       100a4c98     oscommon:osRgstry.obj
 0002:00000ca0       STRTxPowerRssiRestoreThresh 100a4ca0     oscommon:osRgstry.obj
 0002:00000ca8       STRTxPowerTempRecover      100a4ca8     oscommon:osRgstry.obj
 0002:00000cb0       STRWMEEnable               100a4cb0     oscommon:osRgstry.obj
 0002:00000cb8       STRTrafficAdmCtrlEnable    100a4cb8     oscommon:osRgstry.obj
 0002:00000cc0       STRdesiredPsMode           100a4cc0     oscommon:osRgstry.obj
 0002:00000cc8       STRQOSmsduLifeTimeBE       100a4cc8     oscommon:osRgstry.obj
 0002:00000cd0       STRQOSmsduLifeTimeBK       100a4cd0     oscommon:osRgstry.obj
 0002:00000cd8       STRQOSmsduLifeTimeVI       100a4cd8     oscommon:osRgstry.obj
 0002:00000ce0       STRQOSmsduLifeTimeVO       100a4ce0     oscommon:osRgstry.obj
 0002:00000ce8       STRQOSrxTimeOutPsPoll      100a4ce8     oscommon:osRgstry.obj
 0002:00000cf0       STRQOSrxTimeOutUPSD        100a4cf0     oscommon:osRgstry.obj
 0002:00000cf8       STRQOSwmePsModeBE          100a4cf8     oscommon:osRgstry.obj
 0002:00000d00       STRQOSwmePsModeBK          100a4d00     oscommon:osRgstry.obj
 0002:00000d08       STRQOSwmePsModeVI          100a4d08     oscommon:osRgstry.obj
 0002:00000d10       STRQOSwmePsModeVO          100a4d10     oscommon:osRgstry.obj
 0002:00000d18       STRQOSShortRetryLimitBE    100a4d18     oscommon:osRgstry.obj
 0002:00000d20       STRQOSShortRetryLimitBK    100a4d20     oscommon:osRgstry.obj
 0002:00000d28       STRQOSShortRetryLimitVI    100a4d28     oscommon:osRgstry.obj
 0002:00000d30       STRQOSShortRetryLimitVO    100a4d30     oscommon:osRgstry.obj
 0002:00000d38       STRQOSLongRetryLimitBE     100a4d38     oscommon:osRgstry.obj
 0002:00000d40       STRQOSLongRetryLimitBK     100a4d40     oscommon:osRgstry.obj
 0002:00000d48       STRQOSLongRetryLimitVI     100a4d48     oscommon:osRgstry.obj
 0002:00000d50       STRQOSLongRetryLimitVO     100a4d50     oscommon:osRgstry.obj
 0002:00000d58       STRQOSAckPolicyBE          100a4d58     oscommon:osRgstry.obj
 0002:00000d60       STRQOSAckPolicyBK          100a4d60     oscommon:osRgstry.obj
 0002:00000d68       STRQOSAckPolicyVI          100a4d68     oscommon:osRgstry.obj
 0002:00000d70       STRQOSAckPolicyVO          100a4d70     oscommon:osRgstry.obj
 0002:00000d78       STRQoSqueue0OverFlowPolicy 100a4d78     oscommon:osRgstry.obj
 0002:00000d80       STRQoSqueue1OverFlowPolicy 100a4d80     oscommon:osRgstry.obj
 0002:00000d88       STRQoSqueue2OverFlowPolicy 100a4d88     oscommon:osRgstry.obj
 0002:00000d90       STRQoSqueue3OverFlowPolicy 100a4d90     oscommon:osRgstry.obj
 0002:00000d98       STR11nEnable               100a4d98     oscommon:osRgstry.obj
 0002:00000da0       STRBaPolicyTid_0           100a4da0     oscommon:osRgstry.obj
 0002:00000da8       STRBaPolicyTid_1           100a4da8     oscommon:osRgstry.obj
 0002:00000db0       STRBaPolicyTid_2           100a4db0     oscommon:osRgstry.obj
 0002:00000db8       STRBaPolicyTid_3           100a4db8     oscommon:osRgstry.obj
 0002:00000dc0       STRBaPolicyTid_4           100a4dc0     oscommon:osRgstry.obj
 0002:00000dc8       STRBaPolicyTid_5           100a4dc8     oscommon:osRgstry.obj
 0002:00000dd0       STRBaPolicyTid_6           100a4dd0     oscommon:osRgstry.obj
 0002:00000dd8       STRBaPolicyTid_7           100a4dd8     oscommon:osRgstry.obj
 0002:00000de0       STRBaInactivityTimeoutTid_0 100a4de0     oscommon:osRgstry.obj
 0002:00000de8       STRBaInactivityTimeoutTid_1 100a4de8     oscommon:osRgstry.obj
 0002:00000df0       STRBaInactivityTimeoutTid_2 100a4df0     oscommon:osRgstry.obj
 0002:00000df8       STRBaInactivityTimeoutTid_3 100a4df8     oscommon:osRgstry.obj
 0002:00000e00       STRBaInactivityTimeoutTid_4 100a4e00     oscommon:osRgstry.obj
 0002:00000e08       STRBaInactivityTimeoutTid_5 100a4e08     oscommon:osRgstry.obj
 0002:00000e10       STRBaInactivityTimeoutTid_6 100a4e10     oscommon:osRgstry.obj
 0002:00000e18       STRBaInactivityTimeoutTid_7 100a4e18     oscommon:osRgstry.obj
 0002:00000e20       STRPsTrafficPeriod         100a4e20     oscommon:osRgstry.obj
 0002:00000e28       STRQOStxBlksThresholdBE    100a4e28     oscommon:osRgstry.obj
 0002:00000e30       STRQOStxBlksThresholdBK    100a4e30     oscommon:osRgstry.obj
 0002:00000e38       STRQOStxBlksThresholdVI    100a4e38     oscommon:osRgstry.obj
 0002:00000e40       STRQOStxBlksThresholdVO    100a4e40     oscommon:osRgstry.obj
 0002:00000e48       STRRxMemBlksNum            100a4e48     oscommon:osRgstry.obj
 0002:00000e50       STRTrafficIntensityThresHigh 100a4e50     oscommon:osRgstry.obj
 0002:00000e58       STRTrafficIntensityThresLow 100a4e58     oscommon:osRgstry.obj
 0002:00000e60       STRTrafficIntensityTestInterval 100a4e60     oscommon:osRgstry.obj
 0002:00000e68       STRTrafficIntensityThresholdEnabled 100a4e68     oscommon:osRgstry.obj
 0002:00000e70       STRTrafficMonitorMinIntervalPercentage 100a4e70     oscommon:osRgstry.obj
 0002:00000e78       STRQOSPacketBurstEnable    100a4e78     oscommon:osRgstry.obj
 0002:00000e80       STRQOSPacketBurstTxOpLimit 100a4e80     oscommon:osRgstry.obj
 0002:00000e88       STRPerformanceBoost        100a4e88     oscommon:osRgstry.obj
 0002:00000e90       STRMaxAMPDU                100a4e90     oscommon:osRgstry.obj
 0002:00000e98       STRClsfr_Type              100a4e98     oscommon:osRgstry.obj
 0002:00000ea0       STRNumOfCodePoints         100a4ea0     oscommon:osRgstry.obj
 0002:00000ea8       STRNumOfDstPortClassifiers 100a4ea8     oscommon:osRgstry.obj
 0002:00000eb0       STRNumOfDstIPPortClassifiers 100a4eb0     oscommon:osRgstry.obj
 0002:00000eb8       STRDSCPClassifier00_CodePoint 100a4eb8     oscommon:osRgstry.obj
 0002:00000ec0       STRDSCPClassifier01_CodePoint 100a4ec0     oscommon:osRgstry.obj
 0002:00000ec8       STRDSCPClassifier02_CodePoint 100a4ec8     oscommon:osRgstry.obj
 0002:00000ed0       STRDSCPClassifier03_CodePoint 100a4ed0     oscommon:osRgstry.obj
 0002:00000ed8       STRDSCPClassifier04_CodePoint 100a4ed8     oscommon:osRgstry.obj
 0002:00000ee0       STRDSCPClassifier05_CodePoint 100a4ee0     oscommon:osRgstry.obj
 0002:00000ee8       STRDSCPClassifier06_CodePoint 100a4ee8     oscommon:osRgstry.obj
 0002:00000ef0       STRDSCPClassifier07_CodePoint 100a4ef0     oscommon:osRgstry.obj
 0002:00000ef8       STRDSCPClassifier08_CodePoint 100a4ef8     oscommon:osRgstry.obj
 0002:00000f00       STRDSCPClassifier09_CodePoint 100a4f00     oscommon:osRgstry.obj
 0002:00000f08       STRDSCPClassifier10_CodePoint 100a4f08     oscommon:osRgstry.obj
 0002:00000f10       STRDSCPClassifier11_CodePoint 100a4f10     oscommon:osRgstry.obj
 0002:00000f18       STRDSCPClassifier12_CodePoint 100a4f18     oscommon:osRgstry.obj
 0002:00000f20       STRDSCPClassifier13_CodePoint 100a4f20     oscommon:osRgstry.obj
 0002:00000f28       STRDSCPClassifier14_CodePoint 100a4f28     oscommon:osRgstry.obj
 0002:00000f30       STRDSCPClassifier15_CodePoint 100a4f30     oscommon:osRgstry.obj
 0002:00000f38       STRDSCPClassifier00_DTag   100a4f38     oscommon:osRgstry.obj
 0002:00000f40       STRDSCPClassifier01_DTag   100a4f40     oscommon:osRgstry.obj
 0002:00000f48       STRDSCPClassifier02_DTag   100a4f48     oscommon:osRgstry.obj
 0002:00000f50       STRDSCPClassifier03_DTag   100a4f50     oscommon:osRgstry.obj
 0002:00000f58       STRDSCPClassifier04_DTag   100a4f58     oscommon:osRgstry.obj
 0002:00000f60       STRDSCPClassifier05_DTag   100a4f60     oscommon:osRgstry.obj
 0002:00000f68       STRDSCPClassifier06_DTag   100a4f68     oscommon:osRgstry.obj
 0002:00000f70       STRDSCPClassifier07_DTag   100a4f70     oscommon:osRgstry.obj
 0002:00000f78       STRDSCPClassifier08_DTag   100a4f78     oscommon:osRgstry.obj
 0002:00000f80       STRDSCPClassifier09_DTag   100a4f80     oscommon:osRgstry.obj
 0002:00000f88       STRDSCPClassifier10_DTag   100a4f88     oscommon:osRgstry.obj
 0002:00000f90       STRDSCPClassifier11_DTag   100a4f90     oscommon:osRgstry.obj
 0002:00000f98       STRDSCPClassifier12_DTag   100a4f98     oscommon:osRgstry.obj
 0002:00000fa0       STRDSCPClassifier13_DTag   100a4fa0     oscommon:osRgstry.obj
 0002:00000fa8       STRDSCPClassifier14_DTag   100a4fa8     oscommon:osRgstry.obj
 0002:00000fb0       STRDSCPClassifier15_DTag   100a4fb0     oscommon:osRgstry.obj
 0002:00000fb8       STRPortClassifier00_Port   100a4fb8     oscommon:osRgstry.obj
 0002:00000fc0       STRPortClassifier01_Port   100a4fc0     oscommon:osRgstry.obj
 0002:00000fc8       STRPortClassifier02_Port   100a4fc8     oscommon:osRgstry.obj
 0002:00000fd0       STRPortClassifier03_Port   100a4fd0     oscommon:osRgstry.obj
 0002:00000fd8       STRPortClassifier04_Port   100a4fd8     oscommon:osRgstry.obj
 0002:00000fe0       STRPortClassifier05_Port   100a4fe0     oscommon:osRgstry.obj
 0002:00000fe8       STRPortClassifier06_Port   100a4fe8     oscommon:osRgstry.obj
 0002:00000ff0       STRPortClassifier07_Port   100a4ff0     oscommon:osRgstry.obj
 0002:00000ff8       STRPortClassifier08_Port   100a4ff8     oscommon:osRgstry.obj
 0002:00001000       STRPortClassifier09_Port   100a5000     oscommon:osRgstry.obj
 0002:00001008       STRPortClassifier10_Port   100a5008     oscommon:osRgstry.obj
 0002:00001010       STRPortClassifier11_Port   100a5010     oscommon:osRgstry.obj
 0002:00001018       STRPortClassifier12_Port   100a5018     oscommon:osRgstry.obj
 0002:00001020       STRPortClassifier13_Port   100a5020     oscommon:osRgstry.obj
 0002:00001028       STRPortClassifier14_Port   100a5028     oscommon:osRgstry.obj
 0002:00001030       STRPortClassifier15_Port   100a5030     oscommon:osRgstry.obj
 0002:00001038       STRPortClassifier00_DTag   100a5038     oscommon:osRgstry.obj
 0002:00001040       STRPortClassifier01_DTag   100a5040     oscommon:osRgstry.obj
 0002:00001048       STRPortClassifier02_DTag   100a5048     oscommon:osRgstry.obj
 0002:00001050       STRPortClassifier03_DTag   100a5050     oscommon:osRgstry.obj
 0002:00001058       STRPortClassifier04_DTag   100a5058     oscommon:osRgstry.obj
 0002:00001060       STRPortClassifier05_DTag   100a5060     oscommon:osRgstry.obj
 0002:00001068       STRPortClassifier06_DTag   100a5068     oscommon:osRgstry.obj
 0002:00001070       STRPortClassifier07_DTag   100a5070     oscommon:osRgstry.obj
 0002:00001078       STRPortClassifier08_DTag   100a5078     oscommon:osRgstry.obj
 0002:00001080       STRPortClassifier09_DTag   100a5080     oscommon:osRgstry.obj
 0002:00001088       STRPortClassifier10_DTag   100a5088     oscommon:osRgstry.obj
 0002:00001090       STRPortClassifier11_DTag   100a5090     oscommon:osRgstry.obj
 0002:00001098       STRPortClassifier12_DTag   100a5098     oscommon:osRgstry.obj
 0002:000010a0       STRPortClassifier13_DTag   100a50a0     oscommon:osRgstry.obj
 0002:000010a8       STRPortClassifier14_DTag   100a50a8     oscommon:osRgstry.obj
 0002:000010b0       STRPortClassifier15_DTag   100a50b0     oscommon:osRgstry.obj
 0002:000010b8       STRIPPortClassifier00_IPAddress 100a50b8     oscommon:osRgstry.obj
 0002:000010c0       STRIPPortClassifier01_IPAddress 100a50c0     oscommon:osRgstry.obj
 0002:000010c8       STRIPPortClassifier02_IPAddress 100a50c8     oscommon:osRgstry.obj
 0002:000010d0       STRIPPortClassifier03_IPAddress 100a50d0     oscommon:osRgstry.obj
 0002:000010d8       STRIPPortClassifier04_IPAddress 100a50d8     oscommon:osRgstry.obj
 0002:000010e0       STRIPPortClassifier05_IPAddress 100a50e0     oscommon:osRgstry.obj
 0002:000010e8       STRIPPortClassifier06_IPAddress 100a50e8     oscommon:osRgstry.obj
 0002:000010f0       STRIPPortClassifier07_IPAddress 100a50f0     oscommon:osRgstry.obj
 0002:000010f8       STRIPPortClassifier08_IPAddress 100a50f8     oscommon:osRgstry.obj
 0002:00001100       STRIPPortClassifier09_IPAddress 100a5100     oscommon:osRgstry.obj
 0002:00001108       STRIPPortClassifier10_IPAddress 100a5108     oscommon:osRgstry.obj
 0002:00001110       STRIPPortClassifier11_IPAddress 100a5110     oscommon:osRgstry.obj
 0002:00001118       STRIPPortClassifier12_IPAddress 100a5118     oscommon:osRgstry.obj
 0002:00001120       STRIPPortClassifier13_IPAddress 100a5120     oscommon:osRgstry.obj
 0002:00001128       STRIPPortClassifier14_IPAddress 100a5128     oscommon:osRgstry.obj
 0002:00001130       STRIPPortClassifier15_IPAddress 100a5130     oscommon:osRgstry.obj
 0002:00001138       STRIPPortClassifier00_Port 100a5138     oscommon:osRgstry.obj
 0002:00001140       STRIPPortClassifier01_Port 100a5140     oscommon:osRgstry.obj
 0002:00001148       STRIPPortClassifier02_Port 100a5148     oscommon:osRgstry.obj
 0002:00001150       STRIPPortClassifier03_Port 100a5150     oscommon:osRgstry.obj
 0002:00001158       STRIPPortClassifier04_Port 100a5158     oscommon:osRgstry.obj
 0002:00001160       STRIPPortClassifier05_Port 100a5160     oscommon:osRgstry.obj
 0002:00001168       STRIPPortClassifier06_Port 100a5168     oscommon:osRgstry.obj
 0002:00001170       STRIPPortClassifier07_Port 100a5170     oscommon:osRgstry.obj
 0002:00001178       STRIPPortClassifier08_Port 100a5178     oscommon:osRgstry.obj
 0002:00001180       STRIPPortClassifier09_Port 100a5180     oscommon:osRgstry.obj
 0002:00001188       STRIPPortClassifier10_Port 100a5188     oscommon:osRgstry.obj
 0002:00001190       STRIPPortClassifier11_Port 100a5190     oscommon:osRgstry.obj
 0002:00001198       STRIPPortClassifier12_Port 100a5198     oscommon:osRgstry.obj
 0002:000011a0       STRIPPortClassifier13_Port 100a51a0     oscommon:osRgstry.obj
 0002:000011a8       STRIPPortClassifier14_Port 100a51a8     oscommon:osRgstry.obj
 0002:000011b0       STRIPPortClassifier15_Port 100a51b0     oscommon:osRgstry.obj
 0002:000011b8       STRIPPortClassifier00_DTag 100a51b8     oscommon:osRgstry.obj
 0002:000011c0       STRIPPortClassifier01_DTag 100a51c0     oscommon:osRgstry.obj
 0002:000011c8       STRIPPortClassifier02_DTag 100a51c8     oscommon:osRgstry.obj
 0002:000011d0       STRIPPortClassifier03_DTag 100a51d0     oscommon:osRgstry.obj
 0002:000011d8       STRIPPortClassifier04_DTag 100a51d8     oscommon:osRgstry.obj
 0002:000011e0       STRIPPortClassifier05_DTag 100a51e0     oscommon:osRgstry.obj
 0002:000011e8       STRIPPortClassifier06_DTag 100a51e8     oscommon:osRgstry.obj
 0002:000011f0       STRIPPortClassifier07_DTag 100a51f0     oscommon:osRgstry.obj
 0002:000011f8       STRIPPortClassifier08_DTag 100a51f8     oscommon:osRgstry.obj
 0002:00001200       STRIPPortClassifier09_DTag 100a5200     oscommon:osRgstry.obj
 0002:00001208       STRIPPortClassifier10_DTag 100a5208     oscommon:osRgstry.obj
 0002:00001210       STRIPPortClassifier11_DTag 100a5210     oscommon:osRgstry.obj
 0002:00001218       STRIPPortClassifier12_DTag 100a5218     oscommon:osRgstry.obj
 0002:00001220       STRIPPortClassifier13_DTag 100a5220     oscommon:osRgstry.obj
 0002:00001228       STRIPPortClassifier14_DTag 100a5228     oscommon:osRgstry.obj
 0002:00001230       STRIPPortClassifier15_DTag 100a5230     oscommon:osRgstry.obj
 0002:00001238       STRRxDataFiltersEnabled    100a5238     oscommon:osRgstry.obj
 0002:00001240       STRRxDataFiltersDefaultAction 100a5240     oscommon:osRgstry.obj
 0002:00001248       STRRxDataFiltersFilter1Offset 100a5248     oscommon:osRgstry.obj
 0002:00001250       STRRxDataFiltersFilter1Mask 100a5250     oscommon:osRgstry.obj
 0002:00001258       STRRxDataFiltersFilter1Pattern 100a5258     oscommon:osRgstry.obj
 0002:00001260       STRRxDataFiltersFilter2Offset 100a5260     oscommon:osRgstry.obj
 0002:00001268       STRRxDataFiltersFilter2Mask 100a5268     oscommon:osRgstry.obj
 0002:00001270       STRRxDataFiltersFilter2Pattern 100a5270     oscommon:osRgstry.obj
 0002:00001278       STRRxDataFiltersFilter3Offset 100a5278     oscommon:osRgstry.obj
 0002:00001280       STRRxDataFiltersFilter3Mask 100a5280     oscommon:osRgstry.obj
 0002:00001288       STRRxDataFiltersFilter3Pattern 100a5288     oscommon:osRgstry.obj
 0002:00001290       STRRxDataFiltersFilter4Offset 100a5290     oscommon:osRgstry.obj
 0002:00001298       STRRxDataFiltersFilter4Mask 100a5298     oscommon:osRgstry.obj
 0002:000012a0       STRRxDataFiltersFilter4Pattern 100a52a0     oscommon:osRgstry.obj
 0002:000012a8       STRReAuthActiveTimeout     100a52a8     oscommon:osRgstry.obj
 0002:000012b0       STRMeasurTrafficThreshold  100a52b0     oscommon:osRgstry.obj
 0002:000012b8       STRMeasurMaxDurationOnNonServingChannel 100a52b8     oscommon:osRgstry.obj
 0002:000012c0       STRXCCTestIgnoreDeAuth0    100a52c0     oscommon:osRgstry.obj
 0002:000012c8       STREEPROMlessModeSupported 100a52c8     oscommon:osRgstry.obj
 0002:000012d0       STRstationMacAddress       100a52d0     oscommon:osRgstry.obj
 0002:000012d8       SendINIBufferToUser        100a52d8     oscommon:osRgstry.obj
 0002:000012e0       STRRssiBeaconAverageWeight 100a52e0     oscommon:osRgstry.obj
 0002:000012e8       STRRssiPacketAverageWeight 100a52e8     oscommon:osRgstry.obj
 0002:000012f0       STRSnrBeaconAverageWeight  100a52f0     oscommon:osRgstry.obj
 0002:000012f8       STRSnrPacketAverageWeight  100a52f8     oscommon:osRgstry.obj
 0002:00001300       STRMinimumDurationBetweenOsScans 100a5300     oscommon:osRgstry.obj
 0002:00001308       STRDfsPassiveDwellTimeMs   100a5308     oscommon:osRgstry.obj
 0002:00001310       STRScanPushMode            100a5310     oscommon:osRgstry.obj
 0002:00001318       STRScanResultAging         100a5318     oscommon:osRgstry.obj
 0002:00001320       STRScanCncnRssiThreshold   100a5320     oscommon:osRgstry.obj
 0002:00001328       STRParseWSCInBeacons       100a5328     oscommon:osRgstry.obj
 0002:00001330       STRNullDataKeepAliveDefaultPeriod 100a5330     oscommon:osRgstry.obj
 0002:00001338       STRContextSwitchRequired   100a5338     oscommon:osRgstry.obj
 0002:00001340       STRFRefClock               100a5340     oscommon:osRgstry.obj
 0002:00001348       STRFRefClockSettingTime    100a5348     oscommon:osRgstry.obj
 0002:00001350       STRFRefClockStatus         100a5350     oscommon:osRgstry.obj
 0002:00001358       STRTXBiPFEMAutoDetect      100a5358     oscommon:osRgstry.obj
 0002:00001360       STRTXBiPFEMManufacturer    100a5360     oscommon:osRgstry.obj
 0002:00001368       STRClockValidOnWakeup      100a5368     oscommon:osRgstry.obj
 0002:00001370       STRDC2DCMode               100a5370     oscommon:osRgstry.obj
 0002:00001378       STRSingle_Dual_Band_Solution 100a5378     oscommon:osRgstry.obj
 0002:00001380       STRSettings                100a5380     oscommon:osRgstry.obj
 0002:00001388       STRFem1_TXBiPReferencePDvoltage_2_4G 100a5388     oscommon:osRgstry.obj
 0002:00001390       STRFem1_TxBiPReferencePower_2_4G 100a5390     oscommon:osRgstry.obj
 0002:00001398       STRFem1_TxBiPOffsetdB_2_4G 100a5398     oscommon:osRgstry.obj
 0002:000013a0       STRFem1_TxPerRatePowerLimits_2_4G_Normal 100a53a0     oscommon:osRgstry.obj
 0002:000013a8       STRFem1_TxPerRatePowerLimits_2_4G_Degraded 100a53a8     oscommon:osRgstry.obj
 0002:000013b0       STRFem1_TxPerRatePowerLimits_2_4G_Extreme 100a53b0     oscommon:osRgstry.obj
 0002:000013b8       STRFem1_TxPerChannelPowerLimits_2_4G_11b 100a53b8     oscommon:osRgstry.obj
 0002:000013c0       STRFem1_TxPerChannelPowerLimits_2_4G_OFDM 100a53c0     oscommon:osRgstry.obj
 0002:000013c8       STRFem1_TxPDVsRateOffsets_2_4G 100a53c8     oscommon:osRgstry.obj
 0002:000013d0       STRFem1_TxIbiasTable_2_4G  100a53d0     oscommon:osRgstry.obj
 0002:000013d8       STRFem1_RxFemInsertionLoss_2_4G 100a53d8     oscommon:osRgstry.obj
 0002:000013e0       STRFem1_DegradedLowToNormalThr_2_4G 100a53e0     oscommon:osRgstry.obj
 0002:000013e8       STRFem1_NormalToDegradedHighThr_2_4G 100a53e8     oscommon:osRgstry.obj
 0002:000013f0       STRFem1_DegradedLowToNormalThr_5G 100a53f0     oscommon:osRgstry.obj
 0002:000013f8       STRFem1_NormalToDegradedHighThr_5G 100a53f8     oscommon:osRgstry.obj
 0002:00001400       STRFem1_RxTraceInsertionLoss_2_4G 100a5400     oscommon:osRgstry.obj
 0002:00001408       STRFem1_TXTraceLoss_2_4G   100a5408     oscommon:osRgstry.obj
 0002:00001410       STRFem1_RxRssiAndProcessCompensation_2_4G 100a5410     oscommon:osRgstry.obj
 0002:00001418       STRFem1_TXBiPReferencePDvoltage_5G 100a5418     oscommon:osRgstry.obj
 0002:00001420       STRFem1_TxBiPReferencePower_5G 100a5420     oscommon:osRgstry.obj
 0002:00001428       STRFem1_TxBiPOffsetdB_5G   100a5428     oscommon:osRgstry.obj
 0002:00001430       STRFem1_TxPerRatePowerLimits_5G_Normal 100a5430     oscommon:osRgstry.obj
 0002:00001438       STRFem1_TxPerRatePowerLimits_5G_Degraded 100a5438     oscommon:osRgstry.obj
 0002:00001440       STRFem1_TxPerRatePowerLimits_5G_Extreme 100a5440     oscommon:osRgstry.obj
 0002:00001448       STRFem1_TxPerChannelPowerLimits_5G_OFDM 100a5448     oscommon:osRgstry.obj
 0002:00001450       STRFem1_TxPDVsRateOffsets_5G 100a5450     oscommon:osRgstry.obj
 0002:00001458       STRFem1_TxIbiasTable_5G    100a5458     oscommon:osRgstry.obj
 0002:00001460       STRFem1_RxFemInsertionLoss_5G 100a5460     oscommon:osRgstry.obj
 0002:00001468       STRFem1_RxTraceInsertionLoss_5G 100a5468     oscommon:osRgstry.obj
 0002:00001470       STRFem1_TXTraceLoss_5G     100a5470     oscommon:osRgstry.obj
 0002:00001478       STRFem1_RxRssiAndProcessCompensation_5G 100a5478     oscommon:osRgstry.obj
 0002:00001480       STRFem1_TxPerChannelPowerCompensation_2_4G 100a5480     oscommon:osRgstry.obj
 0002:00001488       STRFem1_TxPerChannelPowerCompensation_5G_OFDM 100a5488     oscommon:osRgstry.obj
 0002:00001490       STRFem0_TXBiPReferencePDvoltage_2_4G 100a5490     oscommon:osRgstry.obj
 0002:00001498       STRFem0_TxBiPReferencePower_2_4G 100a5498     oscommon:osRgstry.obj
 0002:000014a0       STRFem0_TxBiPOffsetdB_2_4G 100a54a0     oscommon:osRgstry.obj
 0002:000014a8       STRFem0_TxPerRatePowerLimits_2_4G_Normal 100a54a8     oscommon:osRgstry.obj
 0002:000014b0       STRFem0_TxPerRatePowerLimits_2_4G_Degraded 100a54b0     oscommon:osRgstry.obj
 0002:000014b8       STRFem0_TxPerRatePowerLimits_2_4G_Extreme 100a54b8     oscommon:osRgstry.obj
 0002:000014c0       STRFem0_TxPerChannelPowerLimits_2_4G_11b 100a54c0     oscommon:osRgstry.obj
 0002:000014c8       STRFem0_TxPerChannelPowerLimits_2_4G_OFDM 100a54c8     oscommon:osRgstry.obj
 0002:000014d0       STRFem0_TxPDVsRateOffsets_2_4G 100a54d0     oscommon:osRgstry.obj
 0002:000014d8       STRFem0_TxIbiasTable_2_4G  100a54d8     oscommon:osRgstry.obj
 0002:000014e0       STRFem0_RxFemInsertionLoss_2_4G 100a54e0     oscommon:osRgstry.obj
 0002:000014e8       STRFem0_DegradedLowToNormalThr_2_4G 100a54e8     oscommon:osRgstry.obj
 0002:000014f0       STRFem0_NormalToDegradedHighThr_2_4G 100a54f0     oscommon:osRgstry.obj
 0002:000014f8       STRFem0_DegradedLowToNormalThr_5G 100a54f8     oscommon:osRgstry.obj
 0002:00001500       STRFem0_NormalToDegradedHighThr_5G 100a5500     oscommon:osRgstry.obj
 0002:00001508       STRFem0_RxTraceInsertionLoss_2_4G 100a5508     oscommon:osRgstry.obj
 0002:00001510       STRFem0_TXTraceLoss_2_4G   100a5510     oscommon:osRgstry.obj
 0002:00001518       STRFem0_RxRssiAndProcessCompensation_2_4G 100a5518     oscommon:osRgstry.obj
 0002:00001520       STRFem0_TXBiPReferencePDvoltage_5G 100a5520     oscommon:osRgstry.obj
 0002:00001528       STRFem0_TxBiPReferencePower_5G 100a5528     oscommon:osRgstry.obj
 0002:00001530       STRFem0_TxBiPOffsetdB_5G   100a5530     oscommon:osRgstry.obj
 0002:00001538       STRFem0_TxPerRatePowerLimits_5G_Normal 100a5538     oscommon:osRgstry.obj
 0002:00001540       STRFem0_TxPerRatePowerLimits_5G_Degraded 100a5540     oscommon:osRgstry.obj
 0002:00001548       STRFem0_TxPerRatePowerLimits_5G_Extreme 100a5548     oscommon:osRgstry.obj
 0002:00001550       STRFem0_TxPerChannelPowerLimits_5G_OFDM 100a5550     oscommon:osRgstry.obj
 0002:00001558       STRFem0_TxPDVsRateOffsets_5G 100a5558     oscommon:osRgstry.obj
 0002:00001560       STRFem0_TxIbiasTable_5G    100a5560     oscommon:osRgstry.obj
 0002:00001568       STRFem0_RxFemInsertionLoss_5G 100a5568     oscommon:osRgstry.obj
 0002:00001570       STRFem0_RxTraceInsertionLoss_5G 100a5570     oscommon:osRgstry.obj
 0002:00001578       STRFem0_TXTraceLoss_5G     100a5578     oscommon:osRgstry.obj
 0002:00001580       STRFem0_RxRssiAndProcessCompensation_5G 100a5580     oscommon:osRgstry.obj
 0002:00001588       STRFem0_TxPerChannelPowerCompensation_2_4G 100a5588     oscommon:osRgstry.obj
 0002:00001590       STRFem0_TxPerChannelPowerCompensation_5G_OFDM 100a5590     oscommon:osRgstry.obj
 0002:00001598       STRWlanDrvThreadPriority   100a5598     oscommon:osRgstry.obj
 0002:000015a0       STRBusDrvThreadPriority    100a55a0     oscommon:osRgstry.obj
 0002:000015a8       STRSdioBlkSizeShift        100a55a8     oscommon:osRgstry.obj
 0002:000015b0       STRSuspendAction           100a55b0     oscommon:osRgstry.obj
 0002:000015b8       STRRoamingOperationalMode  100a55b8     oscommon:osRgstry.obj
 0002:000015c0       STRSendTspecInReassPkt     100a55c0     oscommon:osRgstry.obj
 0002:000015c8       STRFmCoexEnable            100a55c8     oscommon:osRgstry.obj
 0002:000015d0       STRFmCoexSwallowPeriod     100a55d0     oscommon:osRgstry.obj
 0002:000015d8       STRFmCoexNDividerFrefSet1  100a55d8     oscommon:osRgstry.obj
 0002:000015e0       STRFmCoexNDividerFrefSet2  100a55e0     oscommon:osRgstry.obj
 0002:000015e8       STRFmCoexMDividerFrefSet1  100a55e8     oscommon:osRgstry.obj
 0002:000015f0       STRFmCoexMDividerFrefSet2  100a55f0     oscommon:osRgstry.obj
 0002:000015f8       STRFmCoexPllStabilizationTime 100a55f8     oscommon:osRgstry.obj
 0002:00001600       STRFmCoexLdoStabilizationTime 100a5600     oscommon:osRgstry.obj
 0002:00001608       STRFmCoexDisturbedBandMargin 100a5608     oscommon:osRgstry.obj
 0002:00001610       STRFmCoexSwallowClkDif     100a5610     oscommon:osRgstry.obj
 0002:00001618       STRRateMngRateRetryScore   100a5618     oscommon:osRgstry.obj
 0002:00001620       STRRateMngPerAdd           100a5620     oscommon:osRgstry.obj
 0002:00001628       STRRateMngPerTh1           100a5628     oscommon:osRgstry.obj
 0002:00001630       STRRateMngPerTh2           100a5630     oscommon:osRgstry.obj
 0002:00001638       STRRateMngMaxPer           100a5638     oscommon:osRgstry.obj
 0002:00001640       STRRateMngInverseCuriosityFactor 100a5640     oscommon:osRgstry.obj
 0002:00001648       STRRateMngTxFailLowTh      100a5648     oscommon:osRgstry.obj
 0002:00001650       STRRateMngTxFailHighTh     100a5650     oscommon:osRgstry.obj
 0002:00001658       STRRateMngPerAlphaShift    100a5658     oscommon:osRgstry.obj
 0002:00001660       STRRateMngPerAddShift      100a5660     oscommon:osRgstry.obj
 0002:00001668       STRRateMngPerBeta1Shift    100a5668     oscommon:osRgstry.obj
 0002:00001670       STRRateMngPerBeta2Shift    100a5670     oscommon:osRgstry.obj
 0002:00001678       STRRateMngRateCheckUp      100a5678     oscommon:osRgstry.obj
 0002:00001680       STRRateMngRateCheckDown    100a5680     oscommon:osRgstry.obj
 0002:00001688       STRRateMngRateRetryPolicy  100a5688     oscommon:osRgstry.obj
 0002:00001690       STRincludeWSCinProbeReq    100a5690     oscommon:osRgstry.obj
 0002:00001b90       ChanFreq                   100a5b90     test:smeDebug.obj
 0002:00001cb8       clientDesc                 100a5cb8     test:scrDbg.obj
 0002:00001eb0       requestStatusDesc          100a5eb0     test:scrDbg.obj
 0002:00001f78       pendReasonDesc             100a5f78     test:scrDbg.obj
 0002:00002040       groupDesc                  100a6040     test:scrDbg.obj
 0002:00002170       stateDesc                  100a6170     test:scrDbg.obj
 0002:00002238       modeDesc                   100a6238     test:scrDbg.obj
 0002:000022a0       resourceDesc               100a62a0     test:scrDbg.obj
 0002:00002450       g_ssd_debug_level          100a6450     host_platform_Z2170P:SdioAdapter.obj
 0002:00002454       __security_cookie          100a6454     corelib0:seccinit.obj
 0002:00002458       __security_cookie_complement 100a6458     corelib0:seccinit.obj
 0002:0000245c       measurementMgr_stateDesc   100a645c     AirLink_Managment:measurementMgrSM.obj
 0002:0000246c       measurementMgr_eventDesc   100a646c     AirLink_Managment:measurementMgrSM.obj
 0002:00002bc0       roamingMngrAuto_matrix     100a6bc0     Application:roamingMngr_autoSM.obj
 0002:00002d40       AutoRoamStateDescription   100a6d40     Application:roamingMngr_autoSM.obj
 0002:00002d58       AutoRoamEventDescription   100a6d58     Application:roamingMngr_autoSM.obj
 0002:00002d78       roamingMngrManual_matrix   100a6d78     Application:roamingMngr_manualSM.obj
 0002:00002e78       ManualRoamStateDescription 100a6e78     Application:roamingMngr_manualSM.obj
 0002:00002e88       ManualRoamEventDescription 100a6e88     Application:roamingMngr_manualSM.obj
 0002:00003168       tSmMatrix                  100a7168     Connection_Managment:smeSm.obj
 0002:00003288       uStateDescription          100a7288     Connection_Managment:smeSm.obj
 0002:000032a0       uEventDescription          100a72a0     Connection_Managment:smeSm.obj
 0002:00005b08       bRedirectOutputToTicon     100a9b08     osapi.obj
 0002:00005b0c       bRedirectOutputToLogger    100a9b0c     osapi.obj
 0002:00005b10       g_redirectSocketId         100a9b10     osapi.obj
 0002:00005b14       use_debug_module           100a9b14     osapi.obj
 0002:00005b20       g_oidPrint                 100a9b20     cmdinterpretoid.obj

 entry point at        0001:00018ec0

 Static symbols

 0001:000183f0       GeneralTimerRoutine        100193f0 f   osapi.obj
 0001:000195f8       InsertCommand              1001a5f8 f   osoid.obj
 0001:0001a06c       cmdGetAppIndexByPort       1001b06c f   cmdinterpretoid.obj
 0001:0001a87c       AddWepKey                  1001b87c f   cmdinterpretoid.obj
 0001:0001ab78       cmdInterpret_Event         1001bb78 f   cmdinterpretoid.obj
 0001:0001ec5c       wlanDrvIf_SendPacket       1001fc5c f   wlandrvif.obj
 0001:0001f1e4       tiwlnstrtoi                100201e4 f   oscommon:osRgstry.obj
 0001:0001f244       tiwlnstrtoi_hex            10020244 f   oscommon:osRgstry.obj
 0001:0001f2c4       regReadStringParameter     100202c4 f   oscommon:osRgstry.obj
 0001:0001f408       _btoi                      10020408 f   oscommon:osRgstry.obj
 0001:0001f550       decryptWEP                 10020550 f   oscommon:osRgstry.obj
 0001:0001f648       initValusFromRgstryString  10020648 f   oscommon:osRgstry.obj
 0001:0001f73c       decryptScanControlTable    1002073c f   oscommon:osRgstry.obj
 0001:0001f854       regReadIntegerTable        10020854 f   oscommon:osRgstry.obj
 0001:0001fc08       parseTwoDigitsSequenceHex  10020c08 f   oscommon:osRgstry.obj
 0001:0001fc50       parse_hex_string           10020c50 f   oscommon:osRgstry.obj
 0001:0001fd20       parse_filter_request       10020d20 f   oscommon:osRgstry.obj
 0001:0001ff68       regReadIntegerParameterHex 10020f68 f   oscommon:osRgstry.obj
 0001:00020054       regReadWepKeyParameter     10021054 f   oscommon:osRgstry.obj
 0001:0002027c       readRates                  1002127c f   oscommon:osRgstry.obj
 0001:00027030       tb_next                    10028030 f   oscommon:tracebuf.obj
 0001:00027904       cmdDispatch_SetTwdParam    10028904 f   Ctrl_Interface:CmdDispatcher.obj
 0001:00027930       cmdDispatch_GetTwdParam    10028930 f   Ctrl_Interface:CmdDispatcher.obj
 0001:0002795c       cmdDispatch_DebugFuncSet   1002895c f   Ctrl_Interface:CmdDispatcher.obj
 0001:00027a04       cmdDispatch_DebugFuncGet   10028a04 f   Ctrl_Interface:CmdDispatcher.obj
 0001:00027a18       cmdDispatch_ConfigParamsAccessTable 10028a18 f   Ctrl_Interface:CmdDispatcher.obj
 0001:00028350       drvMain_SetDefaults        10029350 f   Ctrl_Interface:DrvMain.obj
 0001:000285ac       drvMain_ConfigFw           100295ac f   Ctrl_Interface:DrvMain.obj
 0001:0002882c       drvMain_Sm                 1002982c f   Ctrl_Interface:DrvMain.obj
 0001:000291b0       drvMain_SmEvent            1002a1b0 f   Ctrl_Interface:DrvMain.obj
 0001:00029280       drvMain_InitHwCb           1002a280 f   Ctrl_Interface:DrvMain.obj
 0001:0002929c       drvMain_InitFwCb           1002a29c f   Ctrl_Interface:DrvMain.obj
 0001:000292b8       drvMain_ConfigFwCb         1002a2b8 f   Ctrl_Interface:DrvMain.obj
 0001:000292d4       drvMain_TwdStopCb          1002a2d4 f   Ctrl_Interface:DrvMain.obj
 0001:00029350       drvMain_InitFailCb         1002a350 f   Ctrl_Interface:DrvMain.obj
 0001:00029364       drvMain_InvokeAction       1002a364 f   Ctrl_Interface:DrvMain.obj
 0001:00029568       drvMain_GetFileCb          1002a568 f   Ctrl_Interface:DrvMain.obj
 0001:000296fc       drvMain_Init               1002a6fc f   Ctrl_Interface:DrvMain.obj
 0001:0002a240       txDataQ_RunScheduler       1002b240 f   Data_link:txDataQueue.obj
 0001:0002a380       txDataQ_TxSendPaceTimeout  1002b380 f   Data_link:txDataQueue.obj
 0001:0002ad6c       txCtrl_BuildDataPkt        1002bd6c f   Data_link:txCtrl.obj
 0001:0002ae9c       txCtrl_BuildMgmtPkt        1002be9c f   Data_link:txCtrl.obj
 0001:0002b020       txCtrl_UpdateBackpressure  1002c020 f   Data_link:txCtrl.obj
 0001:0002b0f4       txCtrl_UpdateTxCounters    1002c0f4 f   Data_link:txCtrl.obj
 0001:0002b90c       txCtrl_TxCompleteCb        1002c90c f   Data_link:txCtrl.obj
 0001:0002bc68       calcCreditFromTimer        1002cc68 f   Data_link:txCtrlParams.obj
 0001:0002caf4       findFilterRequest          1002daf4 f   Data_link:rx.obj
 0001:0002cba8       closeFieldPattern          1002dba8 f   Data_link:rx.obj
 0001:0002ccf0       parseRxDataFilterRequest   1002dcf0 f   Data_link:rx.obj
 0001:0002d0e0       rxData_addRxDataFilter     1002e0e0 f   Data_link:rx.obj
 0001:0002d2d8       rxData_removeRxDataFilter  1002e2d8 f   Data_link:rx.obj
 0001:0002d450       rxData_discardPacket       1002e450 f   Data_link:rx.obj
 0001:0002d4d8       rxData_discardPacketVlan   1002e4d8 f   Data_link:rx.obj
 0001:0002d548       rxData_rcvPacketInOpenNotify 1002e548 f   Data_link:rx.obj
 0001:0002d5f0       rxData_rcvPacketEapol      1002e5f0 f   Data_link:rx.obj
 0001:0002d6b8       rxData_rcvPacketData       1002e6b8 f   Data_link:rx.obj
 0001:0002d9b0       rxData_convertWlanToEthHeader 1002e9b0 f   Data_link:rx.obj
 0001:0002dbf8       rxData_RequestForBuffer    1002ebf8 f   Data_link:rx.obj
 0001:0002dea8       rxData_printRxThroughput   1002eea8 f   Data_link:rx.obj
 0001:0002ea2c       rxData_ConvertAmsduToEthPackets 1002fa2c f   Data_link:rx.obj
 0001:0002eeb0       reAuthTimeout              1002feb0 f   Data_link:rx.obj
 0001:0002ef34       rxData_dataPacketDisptcher 1002ff34 f   Data_link:rx.obj
 0001:0002f4c8       rxData_ReceivePacket       100304c8 f   Data_link:rx.obj
 0001:0002fedc       ctrlData_setTxRatePolicies 10030edc f   Data_link:Ctrl.obj
 0001:00030054       selectRateTable            10031054 f   Data_link:Ctrl.obj
 0001:00030458       ctrlData_TrafficThresholdCrossed 10031458 f   Data_link:Ctrl.obj
 0001:00030700       ctrlData_RegisterTrafficIntensityEvents 10031700 f   Data_link:Ctrl.obj
 0001:000310e8       updateQueuesStates         100320e8 f   Data_link:txPort.obj
 0001:000313ec       runScheduler               100323ec f   Data_link:txMgmtQueue.obj
 0001:00031740       mgmtQueuesSM               10032740 f   Data_link:txMgmtQueue.obj
 0001:000320b0       isThresholdUp              100330b0 f   Data_link:TrafficMonitor.obj
 0001:00032188       TimerMonitor_TimeOut       10033188 f   Data_link:TrafficMonitor.obj
 0001:000322fc       SimpleByteAggregation      100332fc f   Data_link:TrafficMonitor.obj
 0001:00032310       SimpleFrameAggregation     10033310 f   Data_link:TrafficMonitor.obj
 0001:00032328       TrafficMonitor_ChangeDownTimerStatus 10033328 f   Data_link:TrafficMonitor.obj
 0001:00032424       TrafficMonitor_SetMask     10033424 f   Data_link:TrafficMonitor.obj
 0001:000327b8       TrafficMonitor_UpdateDownTrafficTimerState 100337b8 f   Data_link:TrafficMonitor.obj
 0001:00032e94       getIpAndUdpHeader          10033e94 f   Data_link:TxDataClsfr.obj
 0001:00034588       currBSS_updateBSSLoss      10035588 f   Sta_Management:currBss.obj
 0001:00034ed0       currBSS_reportRoamingEvent 10035ed0 f   Sta_Management:currBss.obj
 0001:00034f70       currBSS_BackgroundScanQuality 10035f70 f   Sta_Management:currBss.obj
 0001:00035204       currBss_HandleTriggerEvent 10036204 f   Sta_Management:currBss.obj
 0001:000352d8       currBSS_RssiSnrTrigger0    100362d8 f   Sta_Management:currBss.obj
 0001:000352ec       currBSS_RssiSnrTrigger1    100362ec f   Sta_Management:currBss.obj
 0001:00035300       currBSS_RssiSnrTrigger2    10036300 f   Sta_Management:currBss.obj
 0001:00035314       currBSS_RssiSnrTrigger3    10036314 f   Sta_Management:currBss.obj
 0001:00035328       currBSS_RssiSnrTrigger4    10036328 f   Sta_Management:currBss.obj
 0001:0003533c       currBSS_RssiSnrTrigger5    1003633c f   Sta_Management:currBss.obj
 0001:00035350       currBSS_RssiSnrTrigger6    10036350 f   Sta_Management:currBss.obj
 0001:00035364       currBSS_RssiSnrTrigger7    10036364 f   Sta_Management:currBss.obj
 0001:00035378       currBSS_BssLossThresholdCrossed 10036378 f   Sta_Management:currBss.obj
 0001:00035944       currBSS_BssLost            10036944 f   Sta_Management:currBss.obj
 0001:0003595c       currBSS_consecTxErrors     1003695c f   Sta_Management:currBss.obj
 0001:00035974       currBSS_lowRssiThrCrossed  10036974 f   Sta_Management:currBss.obj
 0001:0003598c       currBSS_lowSnrThrCrossed   1003698c f   Sta_Management:currBss.obj
 0001:00035e44       healthMonitor_proccessFailureEvent 10036e44 f   Sta_Management:healthMonitor.obj
 0001:000364c0       powerMgrRetryPsTimeout     100374c0 f   Sta_Management:PowerMgr.obj
 0001:0003655c       powerMgrSendMBXWakeUpConditions 1003755c f   Sta_Management:PowerMgr.obj
 0001:00036624       powerMgrGetHighestPriority 10037624 f   Sta_Management:PowerMgr.obj
 0001:000366b0       PowerMgrConfigBetToFw      100376b0 f   Sta_Management:PowerMgr.obj
 0001:00036818       powerMgr_SGSetUserDesiredwakeUpCond 10037818 f   Sta_Management:PowerMgr.obj
 0001:000368f0       PowerMgr_setDozeModeInAuto 100378f0 f   Sta_Management:PowerMgr.obj
 0001:00036a2c       powerSaveCompleteCB        10037a2c f   Sta_Management:PowerMgr.obj
 0001:00036b14       powerMgrPowerProfileConfiguration 10037b14 f   Sta_Management:PowerMgr.obj
 0001:00036e4c       PowerMgrTMThresholdCrossCB 10037e4c f   Sta_Management:PowerMgr.obj
 0001:00036fa0       powerMgrStartAutoPowerMode 10037fa0 f   Sta_Management:PowerMgr.obj
 0001:000375bc       powerMgr_PsPollFailureTimeout 100385bc f   Sta_Management:PowerMgr.obj
 0001:000377c0       PowerMgr_PsPollFailureCB   100387c0 f   Sta_Management:PowerMgr.obj
 0001:00037d84       qosMngr_resetAdmCtrlParameters 10038d84 f   Sta_Management:qosMngr.obj
 0001:00038138       verifyAndConfigTrafficParams 10039138 f   Sta_Management:qosMngr.obj
 0001:0003835c       verifyAndConfigQosParams   1003935c f   Sta_Management:qosMngr.obj
 0001:0003860c       getWMEInfoElement          1003960c f   Sta_Management:qosMngr.obj
 0001:000386d0       updateACParams             100396d0 f   Sta_Management:qosMngr.obj
 0001:00038844       verifyWmeIeParams          10039844 f   Sta_Management:qosMngr.obj
 0001:00038a54       qosMngr_SetAutoRxStreaming 10039a54 f   Sta_Management:qosMngr.obj
 0001:00038b44       deleteTspecConfiguration   10039b44 f   Sta_Management:qosMngr.obj
 0001:00039568       qosMngr_getCurrAcStatus    1003a568 f   Sta_Management:qosMngr.obj
 0001:0003a82c       setWmeSiteParams           1003b82c f   Sta_Management:qosMngr.obj
 0001:0003a8e4       qosMngr_SetPsRxStreaming   1003b8e4 f   Sta_Management:qosMngr.obj
 0001:0003d330       release_module             1003e330 f   Sta_Management:siteMgr.obj
 0001:0003d39c       updateBeaconQosParams      1003e39c f   Sta_Management:siteMgr.obj
 0001:0003d48c       updateProbeQosParams       1003e48c f   Sta_Management:siteMgr.obj
 0001:0003d694       parseWscMethodFromIE       1003e694 f   Sta_Management:siteMgr.obj
 0001:0003d7c8       updateRates                1003e7c8 f   Sta_Management:siteMgr.obj
 0001:0003dab0       getPrimaryBssid            1003eab0 f   Sta_Management:siteMgr.obj
 0001:0003e0b4       getPrimarySiteDesc         1003f0b4 f   Sta_Management:siteMgr.obj
 0001:0003e55c       translateRateMaskToValue   1003f55c f   Sta_Management:siteMgr.obj
 0001:0003e6c0       setSupportedRateSet        1003f6c0 f   Sta_Management:siteMgr.obj
 0001:0003ef5c       siteMgr_externalConfigurationParametersSet 1003ff5c f   Sta_Management:siteMgr.obj
 0001:00040384       updateWSCParams            10041384 f   Sta_Management:siteMgr.obj
 0001:00040604       siteMgr_TxPowerHighThreshold 10041604 f   Sta_Management:siteMgr.obj
 0001:00040620       siteMgr_TxPowerLowThreshold 10041620 f   Sta_Management:siteMgr.obj
 0001:000415dc       updateSiteInfo             100425dc f   Sta_Management:siteMgr.obj
 0001:0004601c       scanCncn_VerifyChannelsWithRegDomain 1004701c f   Sta_Management:ScanCncn.obj
 0001:000464ac       scanCncn_Mix1ShotScanChannels 100474ac f   Sta_Management:ScanCncn.obj
 0001:000465b4       scanCncn_MixPeriodicScanChannels 100475b4 f   Sta_Management:ScanCncn.obj
 0001:00048788       mlmeParser_readWSCParams   10049788 f   Sta_Management:mlmeParser.obj
 0001:0004ddc0       scanResultTable_FindHidden 1004edc0 f   Sta_Management:scanResultTable.obj
 0001:0004dee8       scanResultTbale_AllocateNewEntry 1004eee8 f   Sta_Management:scanResultTable.obj
 0001:0004e054       scanResultTable_updateRates 1004f054 f   Sta_Management:scanResultTable.obj
 0001:0004ef54       scanResultTable_UpdateSiteData 1004ff54 f   Sta_Management:scanResultTable.obj
 0001:000503e0       sendProbeResponse          100513e0 f   Sta_Management:systemConfig.obj
 0001:00052308       scanCncnSm_RequestScr      10053308 f   Sta_Management:ScanCncnSm.obj
 0001:00052368       scanCncnSm_StartScan       10053368 f   Sta_Management:ScanCncnSm.obj
 0001:000523d8       scanCncnSm_StopScan        100533d8 f   Sta_Management:ScanCncnSm.obj
 0001:0005243c       scanCncnSm_ScanComplete    1005343c f   Sta_Management:ScanCncnSm.obj
 0001:000524c4       scanCncnSm_Nop             100534c4 f   Sta_Management:ScanCncnSm.obj
 0001:000524c8       scanCncnSm_ActionUnexpected 100534c8 f   Sta_Management:ScanCncnSm.obj
 0001:00052524       scanCncnSm_RejectScan      10053524 f   Sta_Management:ScanCncnSm.obj
 0001:000525b8       scanCncnSm_Recovery        100535b8 f   Sta_Management:ScanCncnSm.obj
 0001:000526d4       scanCncnOsSm_ActionCompleteScan 100536d4 f   Sta_Management:ScanCncnOsSm.obj
 0001:00052874       scanCncnOsSm_ActionUnexpected 10053874 f   Sta_Management:ScanCncnOsSm.obj
 0001:000528cc       scanCncnOsSm_ActionStartGScan 100538cc f   Sta_Management:ScanCncnOsSm.obj
 0001:00052b1c       scanCncnOsSm_ActionStartAScan 10053b1c f   Sta_Management:ScanCncnOsSm.obj
 0001:0005408c       cmdQueue_SM                1005508c f   Ctrl:CmdQueue.obj
 0001:00054390       cmdQueue_Push              10055390 f   Ctrl:CmdQueue.obj
 0001:00054788       cmdQueue_GetCmdString      10055788 f   Ctrl:CmdQueue.obj
 0001:000549d4       cmdQueue_GetIEString       100559d4 f   Ctrl:CmdQueue.obj
 0001:00055340       txHwQueue_UpdateFreeBlocks 10056340 f   Data_Service:txHwQueue.obj
 0001:00055b6c       cmdMbox_TimeOut            10056b6c f   FW_Transfer:CmdMBox.obj
 0001:00055be4       cmdMbox_ConfigHwCb         10056be4 f   FW_Transfer:CmdMBox.obj
 0001:00056064       twIf_WriteElpReg           10057064 f   TwIf:TwIf.obj
 0001:00056100       twIf_PartitionTxnDoneCb    10057100 f   TwIf:TwIf.obj
 0001:00056190       twIf_HandleSmEvent         10057190 f   TwIf:TwIf.obj
 0001:00056294       twIf_TxnDoneCb             10057294 f   TwIf:TwIf.obj
 0001:00056440       twIf_HandleTxnDone         10057440 f   TwIf:TwIf.obj
 0001:00056650       twIf_PendRestratTimeout    10057650 f   TwIf:TwIf.obj
 0001:00056a38       twIf_SendTransaction       10057a38 f   TwIf:TwIf.obj
 0001:000575c4       txnQ_ConnectCB             100585c4 f   Txn:TxnQueue.obj
 0001:000575e8       txnQ_SelectTxn             100585e8 f   Txn:TxnQueue.obj
 0001:000579cc       txnQ_Scheduler             100589cc f   Txn:TxnQueue.obj
 0001:00057c38       txnQ_RunScheduler          10058c38 f   Txn:TxnQueue.obj
 0001:00057fc0       txnQ_TxnDoneCb             10058fc0 f   Txn:TxnQueue.obj
 0001:000582d4       busDrv_PrepareTxnParts     100592d4 f   Txn:SdioBusDrv.obj
 0001:00058530       busDrv_SendTxnParts        10059530 f   Txn:SdioBusDrv.obj
 0001:00058840       busDrv_TxnDoneCb           10059840 f   Txn:SdioBusDrv.obj
 0001:00058cf4       TWD_InitHwCb               10059cf4 f   TWDriver:TWDriver.obj
 0001:00058f00       TWD_ConfigFwCb             10059f00 f   TWDriver:TWDriver.obj
 0001:00059854       TWD_RegisterOwnCb          1005a854 f   TWDriver:TWDriver.obj
 0001:0005aab8       TWD_WriteMibTemplateFrame  1005bab8 f   TWDriver:TWDriver.obj
 0001:0005abdc       TWD_WriteMibBeaconFilterIETable 1005bbdc f   TWDriver:TWDriver.obj
 0001:0005d4c0       printMenue                 1005e4c0 f   test:debug.obj
 0001:0005e1d0       mibDbgGetArpIpTable        1005f1d0 f   test:MibDbg.obj
 0001:0005e2a4       mibDbgGetGroupAddressTable 1005f2a4 f   test:MibDbg.obj
 0001:0005e8b4       PrintBssidList             1005f8b4 f   test:smeDebug.obj
 0001:000601ec       TWD_PrintMemRegsCB         100611ec f   test:TWD_Debug.obj
 0001:00060360       TWD_PrintMemRegs           10061360 f   test:TWD_Debug.obj
 0001:00060450       TWD_PrintMemoryMapCb       10061450 f   test:TWD_Debug.obj
 0001:000604dc       TWD_StatisticsReadCB       100614dc f   test:TWD_Debug.obj
 0001:00061724       printPrimarySite           10062724 f   test:siteMgrDebug.obj
 0001:00062298       printDesiredParams         10063298 f   test:siteMgrDebug.obj
 0001:00062780       printPrimarySiteDesc       10063780 f   test:siteMgrDebug.obj
 0001:000628c4       setRateSet                 100638c4 f   test:siteMgrDebug.obj
 0001:00065250       rate_ValidateNet           10066250 f   utils:rate.obj
 0001:000665a8       OMAP3530_TNETW_Power       100675a8 f   host_platform_Z2170P:host_platform.obj
 0001:000673ec       regulatoryDomain_isChannelSupprted 100683ec f   AirLink_Managment:regulatoryDomain.obj
 0001:00067540       regulatoryDomain_setChannelValidity 10068540 f   AirLink_Managment:regulatoryDomain.obj
 0001:000676a8       setSupportedChannelsAccording2ScanControlTable 100686a8 f   AirLink_Managment:regulatoryDomain.obj
 0001:00067a3c       regulatoryDomain_updateChannelsTs 10068a3c f   AirLink_Managment:regulatoryDomain.obj
 0001:00067b64       regulatoryDomain_checkCountryCodeExpiry 10068b64 f   AirLink_Managment:regulatoryDomain.obj
 0001:00067c54       regulatoryDomain_getMaxPowerAllowed 10068c54 f   AirLink_Managment:regulatoryDomain.obj
 0001:00067d28       regulatoryDomain_buildDefaultListOfChannelsPerBand 10068d28 f   AirLink_Managment:regulatoryDomain.obj
 0001:00067fc4       setSupportedChannelsAccording2CountryIe 10068fc4 f   AirLink_Managment:regulatoryDomain.obj
 0001:0006843c       regulatoryDomain_getChannelCapability 1006943c f   AirLink_Managment:regulatoryDomain.obj
 0001:000687d8       regulatoryDomain_updateCurrTxPower 100697d8 f   AirLink_Managment:regulatoryDomain.obj
 0001:000695ec       SoftGemini_setParamsToFW   1006a5ec f   AirLink_Managment:SoftGemini.obj
 0001:00069654       SoftGemini_SetPS           1006a654 f   AirLink_Managment:SoftGemini.obj
 0001:000697b8       SoftGemini_unSetPS         1006a7b8 f   AirLink_Managment:SoftGemini.obj
 0001:00069850       SoftGemini_EnableProtectiveMode 1006a850 f   AirLink_Managment:SoftGemini.obj
 0001:00069914       SoftGemini_RemoveProtectiveModeParameters 1006a914 f   AirLink_Managment:SoftGemini.obj
 0001:0006a020       SoftGemini_DisableDriver   1006b020 f   AirLink_Managment:SoftGemini.obj
 0001:0006a1e8       SoftGemini_setEnableParam  1006b1e8 f   AirLink_Managment:SoftGemini.obj
 0001:0006ade0       measurementMgr_releaseModule 1006bde0 f   AirLink_Managment:measurementMgr.obj
 0001:0006ae3c       measurementMgr_isRequestValid 1006be3c f   AirLink_Managment:measurementMgr.obj
 0001:0006be80       switchChannel_smEvent      1006ce80 f   AirLink_Managment:SwitchChannel.obj
 0001:0006c008       switchChannel_smStart      1006d008 f   AirLink_Managment:SwitchChannel.obj
 0001:0006c15c       switchChannel_smStartSwitchChannelCmd 1006d15c f   AirLink_Managment:SwitchChannel.obj
 0001:0006c294       switchChannel_zeroDatabase 1006d294 f   AirLink_Managment:SwitchChannel.obj
 0001:0006c2f8       switchChannel_smNop        1006d2f8 f   AirLink_Managment:SwitchChannel.obj
 0001:0006c358       switchChannel_smUnexpected 1006d358 f   AirLink_Managment:SwitchChannel.obj
 0001:0006c3cc       switchChannel_recvCmd4Debug 1006d3cc f   AirLink_Managment:SwitchChannel.obj
 0001:0006cae4       switchChannel_smReqSCR_UpdateCmd 1006dae4 f   AirLink_Managment:SwitchChannel.obj
 0001:0006cc28       switchChannel_smFwResetWhileSCInProg 1006dc28 f   AirLink_Managment:SwitchChannel.obj
 0001:0006ccf4       switchChannel_smSwitchChannelCmplt 1006dcf4 f   AirLink_Managment:SwitchChannel.obj
 0001:0006cdc4       switchChannel_smScrFailWhileWait4Scr 1006ddc4 f   AirLink_Managment:SwitchChannel.obj
 0001:0006ce3c       switchChannel_smStopWhileWait4Cmd 1006de3c f   AirLink_Managment:SwitchChannel.obj
 0001:0006cea4       switchChannel_smStopWhileWait4Scr 1006dea4 f   AirLink_Managment:SwitchChannel.obj
 0001:0006cf1c       switchChannel_smStopWhileSwitchChannelInProg 1006df1c f   AirLink_Managment:SwitchChannel.obj
 0001:0006d3ac       measurementMgrSM_acConnected 1006e3ac f   AirLink_Managment:measurementMgrSM.obj
 0001:0006d520       measurementMgrSM_acDisconnected_fromIdle 1006e520 f   AirLink_Managment:measurementMgrSM.obj
 0001:0006d57c       measurementMgrSM_acEnable  1006e57c f   AirLink_Managment:measurementMgrSM.obj
 0001:0006d5d8       measurementMgrSM_acDisable_fromIdle 1006e5d8 f   AirLink_Managment:measurementMgrSM.obj
 0001:0006d634       measurementMgrSM_acSendReportAndCleanObj 1006e634 f   AirLink_Managment:measurementMgrSM.obj
 0001:0006d694       measurementMgrSM_acRequestSCR 1006e694 f   AirLink_Managment:measurementMgrSM.obj
 0001:0006d7b0       measurementMgrSM_acAbort_fromWaitForSCR 1006e7b0 f   AirLink_Managment:measurementMgrSM.obj
 0001:0006d800       measurementMgrSM_acStartMeasurement 1006e800 f   AirLink_Managment:measurementMgrSM.obj
 0001:0006dd58       measurementMgrSM_acMeasurementComplete 1006ed58 f   AirLink_Managment:measurementMgrSM.obj
 0001:0006de50       measurementMgrSM_acUnexpected 1006ee50 f   AirLink_Managment:measurementMgrSM.obj
 0001:0006dea4       measurementMgrSM_acNop     1006eea4 f   AirLink_Managment:measurementMgrSM.obj
 0001:0006def8       measurementMgrSM_resetParams 1006eef8 f   AirLink_Managment:measurementMgrSM.obj
 0001:0006df34       measurementMgrSM_uponActivationDelayTimeout 1006ef34 f   AirLink_Managment:measurementMgrSM.obj
 0001:0006df98       measurementMgrSM_acFrameReceived_fromIdle 1006ef98 f   AirLink_Managment:measurementMgrSM.obj
 0001:0006e2f4       measurementMgrSM_acDisconnected_fromProcessingRequest 1006f2f4 f   AirLink_Managment:measurementMgrSM.obj
 0001:0006e320       measurementMgrSM_acDisable_fromProcessingRequest 1006f320 f   AirLink_Managment:measurementMgrSM.obj
 0001:0006e34c       measurementMgrSM_acFrameReceived_fromProcessingRequest 1006f34c f   AirLink_Managment:measurementMgrSM.obj
 0001:0006e374       measurementMgrSM_acAbort_fromProcessingRequest 1006f374 f   AirLink_Managment:measurementMgrSM.obj
 0001:0006e3d8       measurementMgrSM_acDisconnected_fromWaitForSCR 1006f3d8 f   AirLink_Managment:measurementMgrSM.obj
 0001:0006e414       measurementMgrSM_acDisable_fromWaitForSCR 1006f414 f   AirLink_Managment:measurementMgrSM.obj
 0001:0006e450       measurementMgrSM_acFrameReceived_fromWaitForSCR 1006f450 f   AirLink_Managment:measurementMgrSM.obj
 0001:0006e488       measurementMgrSM_acDisconnected_fromMeasuring 1006f488 f   AirLink_Managment:measurementMgrSM.obj
 0001:0006e4c4       measurementMgrSM_acDisable_fromMeasuring 1006f4c4 f   AirLink_Managment:measurementMgrSM.obj
 0001:0006e500       measurementMgrSM_acFrameReceived_fromMeasuring 1006f500 f   AirLink_Managment:measurementMgrSM.obj
 0001:0006e538       measurementMgrSM_acAbort_fromMeasuring 1006f538 f   AirLink_Managment:measurementMgrSM.obj
 0001:0006e580       measurementMgrSM_acFirmwareReset 1006f580 f   AirLink_Managment:measurementMgrSM.obj
 0001:0006f224       roamingMngr_printStatistics 10070224 f   Application:roamingMngr.obj
 0001:00070bfc       reminder64                 10071bfc f   Application:scanMngr.obj
 0001:000728a8       scanMngr_reportContinuousScanResults 100738a8 f   Application:scanMngr.obj
 0001:00076f90       roamingMngr_smRoamTrigger  10077f90 f   Application:roamingMngr_autoSM.obj
 0001:000770c4       roamingMngr_smInvokeScan   100780c4 f   Application:roamingMngr_autoSM.obj
 0001:00077154       roamingMngr_smSelection    10078154 f   Application:roamingMngr_autoSM.obj
 0001:000773e4       roamingMngr_smHandover     100783e4 f   Application:roamingMngr_autoSM.obj
 0001:000775dc       roamingMngr_smDisconnectWhileConnecting 100785dc f   Application:roamingMngr_autoSM.obj
 0001:00077674       roamingMngr_smSuccHandover 10078674 f   Application:roamingMngr_autoSM.obj
 0001:00077788       roamingMngr_smFailHandover 10078788 f   Application:roamingMngr_autoSM.obj
 0001:00077804       roamingMngr_smScanFailure  10078804 f   Application:roamingMngr_autoSM.obj
 0001:00077870       roamingMngr_smStartIdle    10078870 f   Application:roamingMngr_autoSM.obj
 0001:00077960       roamingMngr_smIdleToStart  10078960 f   Application:roamingMngr_manualSM.obj
 0001:00077974       roamingMngr_smSTOP         10078974 f   Application:roamingMngr_manualSM.obj
 0001:00077990       roamingMngr_smConnectedToScan 10078990 f   Application:roamingMngr_manualSM.obj
 0001:000779d4       roamingMngr_smConnectedToHandover 100789d4 f   Application:roamingMngr_manualSM.obj
 0001:00077a28       roamingMngr_smScanToConnected 10078a28 f   Application:roamingMngr_manualSM.obj
 0001:00077a60       roamingMngr_smHandoverToHandoverConnectEvent 10078a60 f   Application:roamingMngr_manualSM.obj
 0001:00077a84       roamingMngr_SendReassocEvent 10078a84 f   Application:roamingMngr_manualSM.obj
 0001:00077afc       roamingMngr_smHandoverToHandoverFailEvent 10078afc f   Application:roamingMngr_manualSM.obj
 0001:00077b10       roamingMngr_smHandoverToConnectedSuccessEvent 10078b10 f   Application:roamingMngr_manualSM.obj
 0001:00077b24       roamingMngr_smHandoverToConnectedRejectEvent 10078b24 f   Application:roamingMngr_manualSM.obj
 0001:0007a390       findBannedSiteAndCleanup   1007b390 f   Connection_Managment:rsn.obj
 0001:0007cf90       release_module             1007df90 f   Connection_Managment:conn.obj
 0001:0007cfe8       conn_DisconnectComplete    1007dfe8 f   Connection_Managment:conn.obj
 0001:0007ddc4       apConn_smEvent             1007edc4 f   Connection_Managment:apConn.obj
 0001:0007de9c       apConn_smNop               1007ee9c f   Connection_Managment:apConn.obj
 0001:0007deec       apConn_smUnexpected        1007eeec f   Connection_Managment:apConn.obj
 0001:0007df40       apConn_smStartWaitingForTriggers 1007ef40 f   Connection_Managment:apConn.obj
 0001:0007dff8       apConn_smConnectedToNewAP  1007eff8 f   Connection_Managment:apConn.obj
 0001:0007e150       apConn_smRetainAP          1007f150 f   Connection_Managment:apConn.obj
 0001:0007e210       apConn_smReportConnFail    1007f210 f   Connection_Managment:apConn.obj
 0001:0007e2a8       apConn_smConfigureDriverBeforeRoaming 1007f2a8 f   Connection_Managment:apConn.obj
 0001:0007e314       apConn_smSwChFinished      1007f314 f   Connection_Managment:apConn.obj
 0001:0007e374       apConn_qosMngrReportResultCallb 1007f374 f   Connection_Managment:apConn.obj
 0001:0007ebd0       apConn_smStopConnection    1007fbd0 f   Connection_Managment:apConn.obj
 0001:0007ec8c       apConn_smReportDisconnected 1007fc8c f   Connection_Managment:apConn.obj
 0001:0007ed7c       apConn_smRequestCCKM       1007fd7c f   Connection_Managment:apConn.obj
 0001:0007ed94       apConn_smInvokeConnectionToNewAp 1007fd94 f   Connection_Managment:apConn.obj
 0001:0007efa8       apConn_smHandleTspecReneg  1007ffa8 f   Connection_Managment:apConn.obj
 0001:0007f064       sme_SelectRsnMatch         10080064 f   Connection_Managment:smeSelect.obj
 0001:0007fb24       smeSm_Start                10080b24 f   Connection_Managment:smeSm.obj
 0001:0007fc04       smeSm_Stop                 10080c04 f   Connection_Managment:smeSm.obj
 0001:0007fc30       smeSm_Connect              10080c30 f   Connection_Managment:smeSm.obj
 0001:0007fd8c       smeSm_ConnectSuccess       10080d8c f   Connection_Managment:smeSm.obj
 0001:0007fe0c       smeSm_Disconnect           10080e0c f   Connection_Managment:smeSm.obj
 0001:0007fec4       smeSm_DisconnectDone       10080ec4 f   Connection_Managment:smeSm.obj
 0001:0007ff50       smeSm_StopScan             10080f50 f   Connection_Managment:smeSm.obj
 0001:0007ff68       smeSm_StopConnect          10080f68 f   Connection_Managment:smeSm.obj
 0001:0007fff4       smeSm_ConnWhenConnecting   10080ff4 f   Connection_Managment:smeSm.obj
 0001:00080080       smeSm_ActionUnexpected     10081080 f   Connection_Managment:smeSm.obj
 0001:000800d0       smeSm_NopAction            100810d0 f   Connection_Managment:smeSm.obj
 0001:00080120       smeSm_CheckStartConditions 10081120 f   Connection_Managment:smeSm.obj
 0001:0008014c       sme_updateScanCycles       1008114c f   Connection_Managment:smeSm.obj
 0001:000803e8       sme_StartScan              100813e8 f   Connection_Managment:smeSm.obj
 0001:0008077c       smeSm_PreConnect           1008177c f   Connection_Managment:smeSm.obj
 0001:00081bcc       ScrWait_to_JoinWait        10082bcc f   Connection_Managment:connInfra.obj
 0001:00081c34       JoinWait_to_mlmeWait       10082c34 f   Connection_Managment:connInfra.obj
 0001:00081da0       mlmeWait_to_WaitDisconnect 10082da0 f   Connection_Managment:connInfra.obj
 0001:00081e58       JoinWait_to_WaitDisconnect 10082e58 f   Connection_Managment:connInfra.obj
 0001:00081eac       mlmeWait_to_rsnWait        10082eac f   Connection_Managment:connInfra.obj
 0001:00081f9c       configHW_to_connected      10082f9c f   Connection_Managment:connInfra.obj
 0001:000820bc       actionUnexpected           100830bc f   Connection_Managment:connInfra.obj
 0001:00082110       actionNop                  10083110 f   Connection_Managment:connInfra.obj
 0001:00082118       connInfra_ScrWait          10083118 f   Connection_Managment:connInfra.obj
 0001:000822fc       ScrWait_to_idle            100832fc f   Connection_Managment:connInfra.obj
 0001:00082398       stopModules                10083398 f   Connection_Managment:connInfra.obj
 0001:00082418       prepare_send_disconnect    10083418 f   Connection_Managment:connInfra.obj
 0001:00082484       connInfra_WaitDisconnectToIdle 10083484 f   Connection_Managment:connInfra.obj
 0001:000824fc       connect_to_ScrWait         100834fc f   Connection_Managment:connInfra.obj
 0001:000825e0       Idle_to_Idle               100835e0 f   Connection_Managment:connInfra.obj
 0001:00082694       rsnWait_to_disconnect      10083694 f   Connection_Managment:connInfra.obj
 0001:0008273c       configHW_to_disconnect     1008373c f   Connection_Managment:connInfra.obj
 0001:00082800       connInfra_ScrWaitDisconn_to_disconnect 10083800 f   Connection_Managment:connInfra.obj
 0001:000828c4       rsnWait_to_configHW        100838c4 f   Connection_Managment:connInfra.obj
 0001:00082db4       selfWait_to_rsnWait        10083db4 f   Connection_Managment:connIbss.obj
 0001:00082e2c       rsnWait_to_connected       10083e2c f   Connection_Managment:connIbss.obj
 0001:00082ecc       selfw_merge_rsnw           10083ecc f   Connection_Managment:connIbss.obj
 0001:00082f50       rsnw_merge_rsnw            10083f50 f   Connection_Managment:connIbss.obj
 0001:00082f78       conn_merge_conn            10083f78 f   Connection_Managment:connIbss.obj
 0001:00082fa0       waitDisconnToCmplt_to_idle 10083fa0 f   Connection_Managment:connIbss.obj
 0001:00082fc0       actionUnexpected           10083fc0 f   Connection_Managment:connIbss.obj
 0001:00083014       actionNop                  10084014 f   Connection_Managment:connIbss.obj
 0001:00083024       selfWait_to_waitToDisconnCmplt 10084024 f   Connection_Managment:connIbss.obj
 0001:000830b8       rsnWait_to_waitToDisconnCmplt 100840b8 f   Connection_Managment:connIbss.obj
 0001:00083144       connected_to_waitToDisconnCmplt 10084144 f   Connection_Managment:connIbss.obj
 0001:00083170       idle_to_selfWait           10084170 f   Connection_Managment:connIbss.obj
 0001:000831ec       idle_to_rsnWait            100841ec f   Connection_Managment:connIbss.obj
 0001:00083b04       admCtrlWpa_get802_1x_AkmExists 10084b04 f   Connection_Managment:admCtrlWpa.obj
 0001:00085588       admCtrlWpa2_getPreAuthStatus 10086588 f   Connection_Managment:admCtrlWpa2.obj
 0001:000855d8       admCtrlWpa2_get802_1x_AkmExists 100865d8 f   Connection_Managment:admCtrlWpa2.obj
 0001:00086364       admCtrlWpa2_buildAndSendPMKIDCandList 10087364 f   Connection_Managment:admCtrlWpa2.obj
 0001:000869c0       admCtrlWpa2_startPreAuth   100879c0 f   Connection_Managment:admCtrlWpa2.obj
 0001:000874d0       mainKeys_smEvent           100884d0 f   Connection_Managment:mainKeysSm.obj
 0001:0008acac       cmdBld_ConfigFwCb          1008bcac f   Ctrl:CmdBld.obj
 0001:0008ad60       cmdBld_ConfigSeq           1008bd60 f   Ctrl:CmdBld.obj
 0001:0008b1c0       cmdBld_JoinCmpltForReconfigCb 1008c1c0 f   Ctrl:CmdBld.obj
 0001:0008b210       cmdBld_DummyCb             1008c210 f   Ctrl:CmdBld.obj
 0001:0008b398       __cmd_probe_req            1008c398 f   Ctrl:CmdBld.obj
 0001:0008b428       __cmd_null_data            1008c428 f   Ctrl:CmdBld.obj
 0001:0008b488       __cmd_burst_mode_enable    1008c488 f   Ctrl:CmdBld.obj
 0001:0008b4c0       __cmd_disconn              1008c4c0 f   Ctrl:CmdBld.obj
 0001:0008b520       __cmd_ps_poll              1008c520 f   Ctrl:CmdBld.obj
 0001:0008b580       __cmd_qos_null_data        1008c580 f   Ctrl:CmdBld.obj
 0001:0008b5e0       __cmd_probe_resp           1008c5e0 f   Ctrl:CmdBld.obj
 0001:0008b640       __cmd_beacon               1008c640 f   Ctrl:CmdBld.obj
 0001:0008b6a0       __cmd_keep_alive_tmpl      1008c6a0 f   Ctrl:CmdBld.obj
 0001:0008b738       __cfg_mem                  1008c738 f   Ctrl:CmdBld.obj
 0001:0008b770       __cfg_rx_msdu_life_time    1008c770 f   Ctrl:CmdBld.obj
 0001:0008b7a8       __cfg_rx                   1008c7a8 f   Ctrl:CmdBld.obj
 0001:0008b7ec       __cfg_ac_params_0          1008c7ec f   Ctrl:CmdBld.obj
 0001:0008b834       __cfg_ac_params_1          1008c834 f   Ctrl:CmdBld.obj
 0001:0008b87c       __cfg_ac_params_2          1008c87c f   Ctrl:CmdBld.obj
 0001:0008b8c4       __cfg_ac_params_3          1008c8c4 f   Ctrl:CmdBld.obj
 0001:0008b90c       __cfg_tid_0                1008c90c f   Ctrl:CmdBld.obj
 0001:0008b954       __cfg_tid_1                1008c954 f   Ctrl:CmdBld.obj
 0001:0008b99c       __cfg_tid_2                1008c99c f   Ctrl:CmdBld.obj
 0001:0008b9e4       __cfg_tid_3                1008c9e4 f   Ctrl:CmdBld.obj
 0001:0008ba2c       __cfg_ps_rx_streaming      1008ca2c f   Ctrl:CmdBld.obj
 0001:0008bac8       __cfg_rx_data_filter       1008cac8 f   Ctrl:CmdBld.obj
 0001:0008bbd8       __cfg_pd_threshold         1008cbd8 f   Ctrl:CmdBld.obj
 0001:0008bc10       __cfg_slot_time            1008cc10 f   Ctrl:CmdBld.obj
 0001:0008bc48       __cfg_arp_ip_filter        1008cc48 f   Ctrl:CmdBld.obj
 0001:0008bc8c       __cfg_group_address_table  1008cc8c f   Ctrl:CmdBld.obj
 0001:0008bce0       __cfg_service_period_timeout 1008cce0 f   Ctrl:CmdBld.obj
 0001:0008bd18       __cfg_rts_threshold        1008cd18 f   Ctrl:CmdBld.obj
 0001:0008bd54       __cfg_dco_itrim_params     1008cd54 f   Ctrl:CmdBld.obj
 0001:0008bd98       __cfg_fragment_threshold   1008cd98 f   Ctrl:CmdBld.obj
 0001:0008bdd4       __cfg_pm_config            1008cdd4 f   Ctrl:CmdBld.obj
 0001:0008be18       __cfg_beacon_filter_opt    1008ce18 f   Ctrl:CmdBld.obj
 0001:0008be5c       __cfg_beacon_filter_table  1008ce5c f   Ctrl:CmdBld.obj
 0001:0008beb0       __cfg_tx_cmplt_pacing      1008ceb0 f   Ctrl:CmdBld.obj
 0001:0008befc       __cfg_rx_intr_pacing       1008cefc f   Ctrl:CmdBld.obj
 0001:0008bf48       __cfg_cca_threshold        1008cf48 f   Ctrl:CmdBld.obj
 0001:0008bf88       __cfg_bcn_brc_options      1008cf88 f   Ctrl:CmdBld.obj
 0001:0008bfe4       __cmd_enable_rx            1008cfe4 f   Ctrl:CmdBld.obj
 0001:0008c018       __cmd_enable_tx            1008d018 f   Ctrl:CmdBld.obj
 0001:0008c060       __cfg_ps_wmm               1008d060 f   Ctrl:CmdBld.obj
 0001:0008c098       __cfg_rssi_snr_weights     1008d098 f   Ctrl:CmdBld.obj
 0001:0008c0d4       __cfg_event_scan_cmplt     1008d0d4 f   Ctrl:CmdBld.obj
 0001:0008c114       __cfg_event_sps_scan_cmplt 1008d114 f   Ctrl:CmdBld.obj
 0001:0008c154       __cfg_event_plt_rx_calibration_cmplt 1008d154 f   Ctrl:CmdBld.obj
 0001:0008c194       __cfg_hw_enc_dec_enable    1008d194 f   Ctrl:CmdBld.obj
 0001:0008c1cc       __cfg_rssi_snr_trigger_0   1008d1cc f   Ctrl:CmdBld.obj
 0001:0008c208       __cfg_rssi_snr_trigger_1   1008d208 f   Ctrl:CmdBld.obj
 0001:0008c244       __cfg_rssi_snr_trigger_2   1008d244 f   Ctrl:CmdBld.obj
 0001:0008c280       __cfg_rssi_snr_trigger_3   1008d280 f   Ctrl:CmdBld.obj
 0001:0008c2bc       __cfg_rssi_snr_trigger_4   1008d2bc f   Ctrl:CmdBld.obj
 0001:0008c2f8       __cfg_rssi_snr_trigger_5   1008d2f8 f   Ctrl:CmdBld.obj
 0001:0008c334       __cfg_rssi_snr_trigger_6   1008d334 f   Ctrl:CmdBld.obj
 0001:0008c370       __cfg_rssi_snr_trigger_7   1008d370 f   Ctrl:CmdBld.obj
 0001:0008c3ac       __cfg_max_tx_retry         1008d3ac f   Ctrl:CmdBld.obj
 0001:0008c3e8       __cfg_split_scan_timeout   1008d3e8 f   Ctrl:CmdBld.obj
 0001:0008c420       __cfg_conn_monit_params    1008d420 f   Ctrl:CmdBld.obj
 0001:0008c45c       __cfg_bet                  1008d45c f   Ctrl:CmdBld.obj
 0001:0008c4a0       __cfg_cts_protection       1008d4a0 f   Ctrl:CmdBld.obj
 0001:0008c4d8       __cfg_radio_params         1008d4d8 f   Ctrl:CmdBld.obj
 0001:0008c514       __cfg_extended_radio_params 1008d514 f   Ctrl:CmdBld.obj
 0001:0008c550       __cfg_platform_params      1008d550 f   Ctrl:CmdBld.obj
 0001:0008c58c       __cfg_tx_rate_policy       1008d58c f   Ctrl:CmdBld.obj
 0001:0008c5d4       __cmd_beacon_join          1008d5d4 f   Ctrl:CmdBld.obj
 0001:0008c648       __cmd_probe_resp_join      1008d648 f   Ctrl:CmdBld.obj
 0001:0008c6c0       __cmd_probe_req_join       1008d6c0 f   Ctrl:CmdBld.obj
 0001:0008c764       __cmd_null_data_join       1008d764 f   Ctrl:CmdBld.obj
 0001:0008c7d8       __cmd_qos_null_data_join   1008d7d8 f   Ctrl:CmdBld.obj
 0001:0008c84c       __cmd_disconn_join         1008d84c f   Ctrl:CmdBld.obj
 0001:0008c8c8       __cmd_ps_poll_join         1008d8c8 f   Ctrl:CmdBld.obj
 0001:0008c940       __cmd_arp_rsp              1008d940 f   Ctrl:CmdBld.obj
 0001:0008c9a0       __cmd_arp_rsp_join         1008d9a0 f   Ctrl:CmdBld.obj
 0001:0008ca18       __cmd_keep_alive_tmpl_join 1008da18 f   Ctrl:CmdBld.obj
 0001:0008cb04       __cmd_keep_alive_params    1008db04 f   Ctrl:CmdBld.obj
 0001:0008cc10       __cmd_power_auth           1008dc10 f   Ctrl:CmdBld.obj
 0001:0008cc48       __cmd_start_join           1008dc48 f   Ctrl:CmdBld.obj
 0001:0008cccc       __cmd_sta_state            1008dccc f   Ctrl:CmdBld.obj
 0001:0008cd14       __cfg_aid                  1008dd14 f   Ctrl:CmdBld.obj
 0001:0008cd60       __cfg_slot_time_join       1008dd60 f   Ctrl:CmdBld.obj
 0001:0008cda8       __cfg_preamble_join        1008dda8 f   Ctrl:CmdBld.obj
 0001:0008cdf0       __cfg_ht_capabilities      1008ddf0 f   Ctrl:CmdBld.obj
 0001:0008ce68       __cfg_ht_information       1008de68 f   Ctrl:CmdBld.obj
 0001:0008cee4       __cfg_ba_set_session       1008dee4 f   Ctrl:CmdBld.obj
 0001:0008d188       __cfg_tx_power_join        1008e188 f   Ctrl:CmdBld.obj
 0001:0008d1d0       __cfg_keys                 1008e1d0 f   Ctrl:CmdBld.obj
 0001:0008d3b8       __cfg_sg_enable            1008e3b8 f   Ctrl:CmdBld.obj
 0001:0008d3f0       __cfg_sg                   1008e3f0 f   Ctrl:CmdBld.obj
 0001:0008d438       __cfg_fm_coex              1008e438 f   Ctrl:CmdBld.obj
 0001:0008d470       __cfg_rate_management      1008e470 f   Ctrl:CmdBld.obj
 0001:00094074       autoDetectCb               10095074 f   Ctrl:CmdBldCfgIE.obj
 0001:000956b0       RxQueue_PassPacket         100966b0 f   Data_Service:RxQueue.obj
 0001:00095734       RxQueue_PacketTimeOut      10096734 f   Data_Service:RxQueue.obj
 0001:00096ec4       hwInit_SetPartition        10097ec4 f   FW_Transfer:HwInit.obj
 0001:00096f68       hwInit_FinalizeDownloadSm  10097f68 f   FW_Transfer:HwInit.obj
 0001:0009763c       hwInit_EepromlessStartBurstSm 1009863c f   FW_Transfer:HwInit.obj
 0001:00097a48       hwInit_LoadFwImageSm       10098a48 f   FW_Transfer:HwInit.obj
 0001:000984b4       hwInit_TopRegisterWrite    100994b4 f   FW_Transfer:HwInit.obj
 0001:00098848       hwInit_BootSm              10099848 f   FW_Transfer:HwInit.obj
 0001:00099578       hwInit_TopRegisterRead     1009a578 f   FW_Transfer:HwInit.obj
 0001:0009999c       fwEvent_CallHandlers       1009a99c f   FW_Transfer:FwEvent.obj
 0001:00099c9c       fwEvent_StateMachine       1009ac9c f   FW_Transfer:FwEvent.obj
 0001:00099f10       fwEvent_NewEvent           1009af10 f   FW_Transfer:FwEvent.obj
 0001:0009a1b8       fwDbg_WriteAddrCb          1009b1b8 f   FW_Transfer:fwDebug.obj
 0001:0009a1e0       fwDbg_ReadAddrCb           1009b1e0 f   FW_Transfer:fwDebug.obj
 0001:0009a220       fwDbg_SdioValidationSM     1009b220 f   FW_Transfer:fwDebug.obj
 0001:0009a854       eventMbox_DummyCb          1009b854 f   FW_Transfer:eventMbox.obj
 0001:0009a8a0       eventMbox_ReadAddrCb       1009b8a0 f   FW_Transfer:eventMbox.obj
 0001:0009ad60       eventMbox_ReadCompleteCB   1009bd60 f   FW_Transfer:eventMbox.obj
 0001:0009b5e0       rxXfer_ForwardPacket       1009c5e0 f   FW_Transfer:RxXfer.obj
 0001:0009b77c       rxXfer_IssueTxn            1009c77c f   FW_Transfer:RxXfer.obj
 0001:0009b888       rxXfer_PktDropTxnDoneCb    1009c888 f   FW_Transfer:RxXfer.obj
 0001:0009b9d8       rxXfer_Handle              1009c9d8 f   FW_Transfer:RxXfer.obj
 0001:0009be20       rxXfer_TxnDoneCb           1009ce20 f   FW_Transfer:RxXfer.obj
 0001:0009c158       txResult_HandleNewResults  1009d158 f   FW_Transfer:txResult.obj
 0001:0009c398       txResult_StateMachine      1009d398 f   FW_Transfer:txResult.obj
 0001:0009c6ec       txXfer_SendAggregatedPkts  1009d6ec f   FW_Transfer:txXfer.obj
 0001:0009c91c       txXfer_TransferDoneCb      1009d91c f   FW_Transfer:txXfer.obj
 0001:0009f120       powerSrv802_11PsReport     100a0120 f   MacServices:PowerSrv.obj
 0001:0009fc50       scanSRVSM_PsFailWhileScanning 100a0c50 f   MacServices:ScanSrvSM.obj
 0001:0009fd68       actionUnexpected           100a0d68 f   MacServices:ScanSrvSM.obj
 0001:0009fdf8       actionNop                  100a0df8 f   MacServices:ScanSrvSM.obj
 0001:000a10c8       measurementSRVSM_requestMeasureStartResponseCB 100a20c8 f   MacServices:MeasurementSrvSM.obj
 0001:000a1ae8       powerSrvSmDoUpdateRequest  100a2ae8 f   MacServices:PowerSrvSM.obj
 0001:000a1b18       powerSrvSmDoPending        100a2b18 f   MacServices:PowerSrvSM.obj
 0001:000a1b2c       powerSrvSmDoAllready       100a2b2c f   MacServices:PowerSrvSM.obj
 0001:000a1b40       powerSrvSMActionUnexpected 100a2b40 f   MacServices:PowerSrvSM.obj
 0001:000a1b94       powerSrvSmSMEvent          100a2b94 f   MacServices:PowerSrvSM.obj
 0001:000a1c8c       powerSrvSMTimerExpired     100a2c8c f   MacServices:PowerSrvSM.obj
 0001:000a1e68       powerSrvSMSendMBXConfiguration 100a2e68 f   MacServices:PowerSrvSM.obj
 0001:000a1f38       powerSrvSmDoEnterPowerSave 100a2f38 f   MacServices:PowerSrvSM.obj
 0001:000a1f58       powerSrvSmDoExitPowerSave  100a2f58 f   MacServices:PowerSrvSM.obj
