 WL1271_Manager_App

 Timestamp is 51dcc2b2 (Wed Jul 10 10:10:58 2013)

 Preferred load address is 00010000

 Start         Length     Name                   Class
 0001:00000000 00000004H .CRT$XCA                CODE
 0001:00000004 00000004H .CRT$XCZ                CODE
 0001:00000008 00000004H .CRT$XIA                CODE
 0001:0000000c 00000004H .CRT$XIZ                CODE
 0001:00000010 00000004H .CRT$XPA                CODE
 0001:00000014 00000004H .CRT$XPZ                CODE
 0001:00000018 00000004H .CRT$XTA                CODE
 0001:0000001c 00000004H .CRT$XTZ                CODE
 0001:00000020 0000426aH .rdata                  CODE
 0001:0000428c 0000002fH .rdata$debug            CODE
 0001:000042bc 000084c4H .text                   CODE
 0001:0000c780 0000006cH .xdata                  CODE
 0001:0000c7ec 00000050H .idata$2                CODE
 0001:0000c83c 00000014H .idata$3                CODE
 0001:0000c850 00000184H .idata$4                CODE
 0001:0000c9d4 000000faH .idata$6                CODE
 0001:0000cace 00000000H .edata                  CODE
 0002:00000000 00000184H .idata$5                DATA
 0002:00000188 000008f4H .data                   DATA
 0002:00000a80 00000a52H .bss                    DATA
 0003:00000000 000004f0H .pdata                  DATA
 0004:00000000 000003d0H .rsrc$01                DATA
 0004:000003d0 0004a0f0H .rsrc$02                DATA

  Address         Publics by Value              Rva+Base       Lib:Object

 0000:00000000       ___safe_se_handler_count   00000000     <absolute>
 0000:00000000       ___safe_se_handler_table   00000000     <absolute>
 0001:00000000       __xc_a                     00011000     corelib0:crt0init.obj
 0001:00000004       __xc_z                     00011004     corelib0:crt0init.obj
 0001:00000008       __xi_a                     00011008     corelib0:crt0init.obj
 0001:0000000c       __xi_z                     0001100c     corelib0:crt0init.obj
 0001:00000010       __xp_a                     00011010     corelib0:crt0init.obj
 0001:00000014       __xp_z                     00011014     corelib0:crt0init.obj
 0001:00000018       __xt_a                     00011018     corelib0:crt0init.obj
 0001:0000001c       __xt_z                     0001101c     corelib0:crt0init.obj
 0001:0000003c       ??_C@_1BI@PKAFKBAO@?$AAM?$AAA?$AAC?$AA?5?$AAA?$AAd?$AAd?$AAr?$AAe?$AAs?$AAs?$AA?$AA@ 0001103c     WL1271_Manager_App.obj
 0001:00000058       ??_C@_1FO@ELCMNCEB@?$AAM?$AAA?$AAC?$AA?5?$AAA?$AAd?$AAd?$AAr?$AAe?$AAs?$AAs?$AA?5?$AAc?$AAh?$AAa?$AAn?$AAg?$AAe?$AAd?$AA?0?$AA?5?$AAs?$AAy?$AAs?$AAt?$AAe?$AAm?$AA?5?$AAr?$AAe?$AAs?$AAe@ 00011058     WL1271_Manager_App.obj
 0001:000000b8       ??_C@_1CE@HNMKJKDO@?$AAM?$AAA?$AAC?$AA?5?$AAA?$AAd?$AAd?$AAr?$AAe?$AAs?$AAs?$AA?5?$AAE?$AAr?$AAr?$AAo?$AAr?$AA?$AA@ 000110b8     WL1271_Manager_App.obj
 0001:000000dc       ??_C@_1DK@NHIKKNHM@?$AAF?$AAa?$AAi?$AAl?$AAe?$AAd?$AA?5?$AAt?$AAo?$AA?5?$AAc?$AAh?$AAa?$AAn?$AAg?$AAe?$AA?5?$AAM?$AAA?$AAC?$AA?5?$AAA?$AAd?$AAd?$AAr?$AAe?$AAs?$AAs?$AA?$AA@ 000110dc     WL1271_Manager_App.obj
 0001:00000118       ??_C@_1CO@LPIPJJDK@?$AAB?$AAI?$AAP?$AA?5?$AAC?$AAa?$AAl?$AAi?$AAb?$AAr?$AAa?$AAt?$AAi?$AAo?$AAn?$AA?5?$AAf?$AAa?$AAi?$AAl?$AAe?$AAd?$AA?$AA@ 00011118     WL1271_Manager_App.obj
 0001:00000148       ??_C@_1CA@JCPMPGDG@?$AAB?$AAI?$AAP?$AA?5?$AAC?$AAa?$AAl?$AAi?$AAb?$AAr?$AAa?$AAt?$AAi?$AAo?$AAn?$AA?$AA@ 00011148     WL1271_Manager_App.obj
 0001:00000168       ??_C@_1IG@OFGDBLKA@?$AAB?$AAI?$AAP?$AA?5?$AAC?$AAa?$AAl?$AAi?$AAb?$AAr?$AAa?$AAt?$AAi?$AAo?$AAn?$AA?5?$AAp?$AAe?$AAr?$AAf?$AAo?$AAr?$AAm?$AAe?$AAd?$AA?0?$AA?5?$AAn?$AAe?$AAw?$AA?5?$AAc@ 00011168     WL1271_Manager_App.obj
 0001:000001f0       ??_C@_1BC@OANHLIJN@?$AAA?$AAc?$AAt?$AAi?$AAv?$AAa?$AAt?$AAe?$AA?$AA@ 000111f0     WL1271_Manager_App.obj
 0001:00000204       ??_C@_1BG@OAMCOOMF@?$AAD?$AAe?$AAa?$AAc?$AAt?$AAi?$AAv?$AAa?$AAt?$AAe?$AA?$AA@ 00011204     WL1271_Manager_App.obj
 0001:0000021c       ??_C@_1DG@PLHDEKEF@?$AAF?$AAa?$AAi?$AAl?$AAe?$AAd?$AA?5?$AAt?$AAo?$AA?5?$AAd?$AAe?$AAi?$AAn?$AAi?$AAt?$AA?5?$AAd?$AAe?$AAv?$AAi?$AAc?$AAe?$AA?5?$AA?$CF?$AAd?$AA?$AA@ 0001121c     WL1271_Manager_App.obj
 0001:00000254       ??_C@_1DC@NJMENPOD@?$AAF?$AAa?$AAi?$AAl?$AAe?$AAd?$AA?5?$AAt?$AAo?$AA?5?$AAi?$AAn?$AAi?$AAt?$AA?5?$AAd?$AAe?$AAv?$AAi?$AAc?$AAe?$AA?5?$AA?$CF?$AAd?$AA?$AA@ 00011254     WL1271_Manager_App.obj
 0001:00000288       ??_C@_1BI@DMNHDJBH@?$AA?9?$AA?9?$AAB?$AAT?$AA_?$AAI?$AAn?$AAi?$AAt?$AA?$AN?$AA?6?$AA?$AA@ 00011288     Bluetooth.obj
 0001:000002a0       ??_C@_1BI@POBLDBMH@?$AA?$CL?$AA?$CL?$AAB?$AAT?$AA_?$AAI?$AAn?$AAi?$AAt?$AA?$AN?$AA?6?$AA?$AA@ 000112a0     Bluetooth.obj
 0001:000002b8       ??_C@_1M@NOLGOFLC@?$AAB?$AAT?$AAD?$AA0?$AA?3?$AA?$AA@ 000112b8     Bluetooth.obj
 0001:000002c4       ??_C@_1CC@CLCHDONE@?$AA?9?$AA?9?$AAB?$AAT?$AA_?$AAG?$AAe?$AAt?$AAS?$AAt?$AAa?$AAt?$AAu?$AAs?$AA?$AN?$AA?6?$AA?$AA@ 000112c4     Bluetooth.obj
 0001:000002e8       ??_C@_1CC@LJGFMPFP@?$AA?$CL?$AA?$CL?$AAB?$AAT?$AA_?$AAG?$AAe?$AAt?$AAS?$AAt?$AAa?$AAt?$AAu?$AAs?$AA?$AN?$AA?6?$AA?$AA@ 000112e8     Bluetooth.obj
 0001:0000030c       ??_C@_19MIEKEEEB@?$AAc?$AAa?$AAr?$AAd?$AA?$AA@ 0001130c     Bluetooth.obj
 0001:00000318       ??_C@_1BM@IOJMEDDD@?$AA?$CL?$AA?$CL?$AAB?$AAT?$AA_?$AAT?$AAu?$AAr?$AAn?$AAO?$AAn?$AA?$AN?$AA?6?$AA?$AA@ 00011318     Bluetooth.obj
 0001:00000334       ??_C@_1BM@LEPOJAMM@?$AA?9?$AA?9?$AAB?$AAT?$AA_?$AAT?$AAu?$AAr?$AAn?$AAO?$AAn?$AA?$AN?$AA?6?$AA?$AA@ 00011334     Bluetooth.obj
 0001:00000350       ??_C@_1BO@PHFANHED@?$AA?$CL?$AA?$CL?$AAB?$AAT?$AA_?$AAT?$AAu?$AAr?$AAn?$AAO?$AAf?$AAf?$AA?$AN?$AA?6?$AA?$AA@ 00011350     Bluetooth.obj
 0001:00000370       ??_C@_1BO@HLKOJDDN@?$AA?9?$AA?9?$AAB?$AAT?$AA_?$AAT?$AAu?$AAr?$AAn?$AAO?$AAf?$AAf?$AA?$AN?$AA?6?$AA?$AA@ 00011370     Bluetooth.obj
 0001:00000390       ??_C@_07PIJJFBEA@tiwlan0?$AA@ 00011390     Wifi.obj
 0001:00000398       ??_C@_1BE@OKFHIFIO@?$AAT?$AAI?$AAW?$AAL?$AAN?$AAA?$AAP?$AAI?$AA1?$AA?$AA@ 00011398     Wifi.obj
 0001:000003ac       ??_C@_1M@IKGMBBOJ@?$AAN?$AAD?$AAS?$AA0?$AA?3?$AA?$AA@ 000113ac     Wifi.obj
 0001:000003b8       ??_C@_1DM@LDFMGCBK@?$AA?$CF?$AA0?$AA2?$AAX?$AA?3?$AA?$CF?$AA0?$AA2?$AAX?$AA?3?$AA?$CF?$AA0?$AA2?$AAX?$AA?3?$AA?$CF?$AA0?$AA2?$AAX?$AA?3?$AA?$CF?$AA0?$AA2?$AAX?$AA?3?$AA?$CF?$AA0?$AA2?$AAX?$AA?$AA@ 000113b8     Wifi.obj
 0001:000003f4       ??_C@_1BC@EEECLNMF@?$AAN?$AAV?$AAS?$AAC?$AAh?$AAu?$AAn?$AAk?$AA?$AA@ 000113f4     Wifi.obj
 0001:00000408       ??_C@_1DC@IPEHACIM@?$AAC?$AAo?$AAm?$AAm?$AA?2?$AAt?$AAi?$AAw?$AAl?$AAn?$AAa?$AAp?$AAi?$AA1?$AA?2?$AAP?$AAa?$AAr?$AAm?$AAs?$AA?2?$AAN?$AAV?$AAS?$AA?$AA@ 00011408     Wifi.obj
 0001:0000043c       ??_C@_1DA@PLGJHHFL@?$AA?$CF?$AA2?$AAX?$AA?3?$AA?$CF?$AA2?$AAX?$AA?3?$AA?$CF?$AA2?$AAX?$AA?3?$AA?$CF?$AA2?$AAX?$AA?3?$AA?$CF?$AA2?$AAX?$AA?3?$AA?$CF?$AA2?$AAX?$AA?$AA@ 0001143c     Wifi.obj
 0001:00000470       ??_C@_1EO@CIOFCGCG@?$AA?$HL?$AA9?$AA8?$AAC?$AA5?$AA2?$AA5?$AA0?$AAD?$AA?9?$AAC?$AA2?$AA9?$AAA?$AA?9?$AA4?$AA9?$AA8?$AA5?$AA?9?$AAA?$AAE?$AA5?$AAF?$AA?9?$AAA?$AAF?$AAE?$AA5?$AA3?$AA6?$AA7@ 00011470     Wifi.obj
 0001:000004c0       ??_C@_1M@DFKENGJN@?$AA?$CF?$AAs?$AA?2?$AA?$CF?$AAs?$AA?$AA@ 000114c0     Wifi.obj
 0001:000004cc       ??_C@_1M@OLDPONCE@?$AAN?$AAP?$AAW?$AA1?$AA?3?$AA?$AA@ 000114cc     Wifi.obj
 0001:000004d8       ??_C@_06MHJDLBHA@ACTIVE?$AA@ 000114d8     Wifi.obj
 0001:000004e0       ??_C@_05NCGDHCHH@AWAKE?$AA@ 000114e0     Wifi.obj
 0001:000004e8       ??_C@_04NLKMNLCE@Band?$AA@ 000114e8     Wifi.obj
 0001:000004f0       ??_C@_07DMJBFPJJ@Channel?$AA@ 000114f0     Wifi.obj
 0001:000004f8       ??_C@_0BE@HDJFJBEO@iRefPtDetectorValue?$AA@ 000114f8     Wifi.obj
 0001:0000050c       ??_C@_0M@PGKEFJPJ@iRefPtPower?$AA@ 0001150c     Wifi.obj
 0001:00000518       ??_C@_08NCPEMIMG@isubBand?$AA@ 00011518     Wifi.obj
 0001:00000524       ??_C@_0BG@HOEBCOGM@Sub?5Band?5B?1G?3?5?51?5?9?514?$AA@ 00011524     Wifi.obj
 0001:0000053c       ??_C@_0BG@DLHIDJD@Sub?5Band?5A?3?5?5?5?51?5?9?5?54?$AA@ 0001153c     Wifi.obj
 0001:00000554       ??_C@_0BG@LJPNGNIF@Sub?5Band?5A?3?5?5?5?58?5?9?516?$AA@ 00011554     Wifi.obj
 0001:0000056c       ??_C@_0BG@BECBNOFM@Sub?5Band?5A?3?5?5?534?5?9?548?$AA@ 0001156c     Wifi.obj
 0001:00000584       ??_C@_0BG@BOKPHJID@Sub?5Band?5A?3?5?5?552?5?9?564?$AA@ 00011584     Wifi.obj
 0001:0000059c       ??_C@_0BG@KFLHHEAB@Sub?5Band?5A?3?5?5100?5?9116?$AA@ 0001159c     Wifi.obj
 0001:000005b4       ??_C@_0BG@LHADBGBB@Sub?5Band?5A?3?5?5120?5?9140?$AA@ 000115b4     Wifi.obj
 0001:000005cc       ??_C@_0BG@JKAHHKGO@Sub?5Band?5A?3?5?5149?5?9165?$AA@ 000115cc     Wifi.obj
 0001:000005e4       ??_C@_1CK@HIAPCFLJ@?$AA?2?$AAw?$AAi?$AAn?$AAd?$AAo?$AAw?$AAs?$AA?2?$AAn?$AAv?$AAs?$AA_?$AAm?$AAa?$AAp?$AA?4?$AAb?$AAi?$AAn?$AA?$AA@ 000115e4     Wifi.obj
 0001:00000610       ??_7CBIN2REG@@6B@          00011610     BIN2REG.obj
 0001:00000614       ??_C@_1DE@KOFEJCPK@?$AAF?$AAa?$AAi?$AAl?$AAe?$AAd?$AA?5?$AAt?$AAo?$AA?5?$AAa?$AAl?$AAl?$AAo?$AAc?$AAa?$AAt?$AAe?$AA?5?$AAm?$AAe?$AAm?$AAo?$AAr?$AAy?$AA?$AA@ 00011614     BIN2REG.obj
 0001:00000648       ??_C@_19JDJBDCME@?$AA?$CF?$AAs?$AAN?$AAB?$AA?$AA@ 00011648     BIN2REG.obj
 0001:00000654       ??_C@_1DK@DPLMKBMO@?$AAF?$AAa?$AAi?$AAl?$AAe?$AAd?$AA?5?$AAt?$AAo?$AA?5?$AAw?$AAr?$AAi?$AAt?$AAe?$AA?5?$AAt?$AAh?$AAe?$AA?5?$AAr?$AAe?$AAg?$AAi?$AAs?$AAt?$AAr?$AAy?$AA?$AA@ 00011654     BIN2REG.obj
 0001:00000690       ??_C@_19HEPLDNLP@?$AA?$CF?$AAs?$AA?$CF?$AAd?$AA?$AA@ 00011690     BIN2REG.obj
 0001:0000069c       ??_C@_1DG@PKOMLHGJ@?$AAF?$AAa?$AAi?$AAl?$AAe?$AAd?$AA?5?$AAt?$AAo?$AA?5?$AAo?$AAp?$AAe?$AAn?$AA?5?$AAB?$AAi?$AAn?$AAa?$AAr?$AAy?$AA?5?$AAf?$AAi?$AAl?$AAe?$AA?$AA@ 0001169c     BIN2REG.obj
 0001:000006d4       ??_C@_1DC@ECALPJJA@?$AAE?$AAr?$AAr?$AAo?$AAr?$AA?5?$AAR?$AAe?$AAa?$AAd?$AAi?$AAn?$AAg?$AA?5?$AAc?$AAh?$AAu?$AAn?$AAk?$AA?5?$AAd?$AAa?$AAt?$AAa?$AA?$AA@ 000116d4     REG2BIN.obj
 0001:00000708       ??_C@_1DE@NKKFJOAO@?$AAF?$AAa?$AAi?$AAl?$AAe?$AAd?$AA?5?$AAt?$AAo?$AA?5?$AAa?$AAl?$AAl?$AAo?$AAc?$AAa?$AAt?$AAe?$AA?5?$AAb?$AAu?$AAf?$AAf?$AAe?$AAr?$AA?$AA@ 00011708     REG2BIN.obj
 0001:0000073c       ??_C@_1DA@PPPBCBNN@?$AAF?$AAa?$AAi?$AAl?$AAe?$AAd?$AA?5?$AAt?$AAo?$AA?5?$AAo?$AAp?$AAe?$AAn?$AA?5?$AAr?$AAe?$AAg?$AAi?$AAs?$AAt?$AAr?$AAy?$AA?$AA@ 0001173c     REG2BIN.obj
 0001:0000076c       ??_C@_1M@IDCMHIFJ@?$AA5?$AA?5?$AAG?$AAH?$AAz?$AA?$AA@ 0001176c     DTI_Channel.obj
 0001:00000778       ??_C@_1BA@PPKAPENE@?$AA2?$AA?4?$AA4?$AA?5?$AAG?$AAH?$AAz?$AA?$AA@ 00011778     DTI_Channel.obj
 0001:00000790       ??_C@_1DC@HLPDBONI@?$AAC?$AAh?$AAa?$AAn?$AAn?$AAe?$AAl?$AA?5?$AAI?$AAn?$AAd?$AAe?$AAx?$AA?5?$AAL?$AAi?$AAs?$AAt?$AA?5?$AAE?$AAr?$AAr?$AAo?$AAr?$AA?$AA@ 00011790     DTI_Channel.obj
 0001:000007c8       ??_C@_1EC@DAAJLAJN@?$AAF?$AAa?$AAi?$AAl?$AAe?$AAd?$AA?5?$AAt?$AAo?$AA?5?$AAs?$AAe?$AAt?$AA?5?$AAC?$AAh?$AAa?$AAn?$AAn?$AAe?$AAl?$AA?5?$AAI?$AAn?$AAd?$AAe?$AAx?$AA?5?$AAL?$AAi?$AAs?$AAt@ 000117c8     DTI_Channel.obj
 0001:0000080c       ??_C@_1CO@FFNAIKOI@?$AAC?$AAo?$AAm?$AAb?$AAo?$AAB?$AAo?$AAx?$AA?5?$AAH?$AAa?$AAn?$AAd?$AAl?$AAe?$AAr?$AA?5?$AAE?$AAr?$AAr?$AAo?$AAr?$AA?$AA@ 0001180c     DTI_Channel.obj
 0001:00000840       ??_C@_1FK@NBKGOAGA@?$AAF?$AAa?$AAi?$AAl?$AAe?$AAd?$AA?5?$AAt?$AAo?$AA?5?$AAg?$AAe?$AAt?$AA?5?$AAC?$AAh?$AAa?$AAn?$AAn?$AAe?$AAl?$AA?5?$AAI?$AAn?$AAd?$AAe?$AAx?$AA?5?$AAC?$AAo?$AAm?$AAb@ 00011840     DTI_Channel.obj
 0001:0000089c       ??_C@_1CK@HCNHOCEF@?$AAB?$AAa?$AAn?$AAd?$AA?5?$AAR?$AAa?$AAt?$AAe?$AA?5?$AAL?$AAi?$AAs?$AAt?$AA?5?$AAE?$AAr?$AAr?$AAo?$AAr?$AA?$AA@ 0001189c     DTI_Channel.obj
 0001:000008c8       ??_C@_1DK@MGGKMNHN@?$AAF?$AAa?$AAi?$AAl?$AAe?$AAd?$AA?5?$AAt?$AAo?$AA?5?$AAs?$AAe?$AAt?$AA?5?$AAB?$AAa?$AAn?$AAd?$AA?5?$AAR?$AAa?$AAt?$AAe?$AA?5?$AAL?$AAi?$AAs?$AAt?$AA?$AA@ 000118c8     DTI_Channel.obj
 0001:00000908       ??_C@_1EI@EAMLMBJH@?$AAF?$AAa?$AAi?$AAl?$AAe?$AAd?$AA?5?$AAt?$AAo?$AA?5?$AAg?$AAe?$AAt?$AA?5?$AAB?$AAa?$AAn?$AAd?$AA?5?$AAC?$AAo?$AAm?$AAb?$AAo?$AAb?$AAo?$AAx?$AA?5?$AAH?$AAa?$AAn?$AAd@ 00011908     DTI_Channel.obj
 0001:00000950       ??_C@_1EM@NGGPJIIC@?$AAN?$AAu?$AAm?$AAb?$AAe?$AAr?$AA?5?$AAo?$AAf?$AA?5?$AAc?$AAh?$AAa?$AAn?$AAn?$AAe?$AAl?$AAs?$AA?5?$AAm?$AAu?$AAs?$AAt?$AA?5?$AAb?$AAe?$AA?5?$AAi?$AAn?$AA?5?$AA0?$AA?5@ 00011950     DTI_Channel.obj
 0001:000009a0       ??_C@_1EG@DNBMLFMI@?$AAC?$AAh?$AAa?$AAn?$AAn?$AAe?$AAl?$AA?5?$AAN?$AAu?$AAm?$AAb?$AAe?$AAr?$AA?5?$AAm?$AAu?$AAs?$AAt?$AA?5?$AAb?$AAe?$AA?5?$AAi?$AAn?$AA?5?$AA0?$AA?5?$AA?9?$AA?$DO?$AA?5?$AA1@ 000119a0     DTI_Channel.obj
 0001:000009e8       ??_C@_1DM@PHMNPIEO@?$AAB?$AAa?$AAn?$AAd?$AA?5?$AAn?$AAu?$AAm?$AAb?$AAe?$AAr?$AA?5?$AAm?$AAu?$AAs?$AAt?$AA?5?$AAb?$AAe?$AA?5?$AAi?$AAn?$AA?5?$AA0?$AA?5?$AA?9?$AA?$DO?$AA?5?$AA1?$AA?$AA@ 000119e8     DTI_Channel.obj
 0001:00000a28       ??_C@_1GG@OACEHFFK@?$AAC?$AAh?$AAa?$AAn?$AA?5?$AAN?$AAu?$AAm?$AAb?$AAe?$AAr?$AA?5?$AAf?$AAo?$AAr?$AA?5?$AAd?$AAi?$AAs?$AAc?$AAo?$AAv?$AAe?$AAr?$AAy?$AA?5?$AAc?$AAy?$AAc?$AAl?$AAe?$AA?5@ 00011a28     DTI_Channel.obj
 0001:00000a90       ??_C@_1CE@FAJJAJHO@?$AAI?$AAn?$AAv?$AAa?$AAl?$AAi?$AAd?$AA?5?$AAP?$AAa?$AAr?$AAa?$AAm?$AAe?$AAt?$AAe?$AAr?$AA?$AA@ 00011a90     DTI_Channel.obj
 0001:00000ab8       ??_C@_1EG@BGPGAOMM@?$AAB?$AAS?$AAS?$AA?5?$AAT?$AAh?$AAr?$AAe?$AAs?$AAh?$AAo?$AAl?$AAd?$AA?5?$AAm?$AAu?$AAs?$AAt?$AA?5?$AAb?$AAe?$AA?5?$AAi?$AAn?$AA?5?$AA?9?$AA1?$AA0?$AA0?$AA?5?$AA?9?$AA?$DO@ 00011ab8     DTI_Channel.obj
 0001:00000b00       ??_C@_1CM@NBIJEAH@?$AAC?$AAh?$AAa?$AAn?$AAn?$AAe?$AAl?$AA?5?$AAC?$AAo?$AAn?$AAf?$AAi?$AAg?$AAu?$AAr?$AAa?$AAt?$AAi?$AAo?$AAn?$AA?$AA@ 00011b00     DTI_Channel.obj
 0001:00000b2c       ??_C@_1CM@NOIENLBJ@?$AAC?$AAa?$AAn?$AAc?$AAe?$AAl?$AA?5?$AAM?$AAo?$AAd?$AAi?$AAf?$AAi?$AAc?$AAa?$AAt?$AAi?$AAo?$AAn?$AAs?$AA?$DP?$AA?$AA@ 00011b2c     DTI_Channel.obj
 0001:00000b58       ??_C@_13BJEOCIHA@?$AA5?$AA?$AA@ 00011b58     DTI_Modes.obj
 0001:00000b5c       ??_C@_13KBPCEPBF@?$AA4?$AA?$AA@ 00011b5c     DTI_Modes.obj
 0001:00000b60       ??_C@_13DMCFHHKM@?$AA3?$AA?$AA@ 00011b60     DTI_Modes.obj
 0001:00000b64       ??_C@_13IEJJBAMJ@?$AA2?$AA?$AA@ 00011b64     DTI_Modes.obj
 0001:00000b68       ??_C@_13JGCMLPCH@?$AA1?$AA?$AA@ 00011b68     DTI_Modes.obj
 0001:00000b6c       ??_C@_13COJANIEC@?$AA0?$AA?$AA@ 00011b6c     DTI_Modes.obj
 0001:00000b70       ??_C@_1BA@LJGMBFGN@?$AA5?$AA4?$AA?5?$AAM?$AAb?$AAp?$AAs?$AA?$AA@ 00011b70     DTI_Modes.obj
 0001:00000b80       ??_C@_1BA@DNPBBFNB@?$AA4?$AA8?$AA?5?$AAM?$AAb?$AAp?$AAs?$AA?$AA@ 00011b80     DTI_Modes.obj
 0001:00000b90       ??_C@_1BA@LJDLICE@?$AA3?$AA6?$AA?5?$AAM?$AAb?$AAp?$AAs?$AA?$AA@ 00011b90     DTI_Modes.obj
 0001:00000ba0       ??_C@_1BA@EEJFONBI@?$AA2?$AA4?$AA?5?$AAM?$AAb?$AAp?$AAs?$AA?$AA@ 00011ba0     DTI_Modes.obj
 0001:00000bb0       ??_C@_1BA@EHKIMIMH@?$AA1?$AA8?$AA?5?$AAM?$AAb?$AAp?$AAs?$AA?$AA@ 00011bb0     DTI_Modes.obj
 0001:00000bc0       ??_C@_1BA@JFJPBCFM@?$AA1?$AA2?$AA?5?$AAM?$AAb?$AAp?$AAs?$AA?$AA@ 00011bc0     DTI_Modes.obj
 0001:00000bd0       ??_C@_1O@LINHMPFB@?$AA9?$AA?5?$AAM?$AAb?$AAp?$AAs?$AA?$AA@ 00011bd0     DTI_Modes.obj
 0001:00000be0       ??_C@_1O@OOEDHLKH@?$AA6?$AA?5?$AAM?$AAb?$AAp?$AAs?$AA?$AA@ 00011be0     DTI_Modes.obj
 0001:00000bf0       ??_C@_1BA@LMFHKGKO@?$AA2?$AA2?$AA?5?$AAM?$AAb?$AAp?$AAs?$AA?$AA@ 00011bf0     DTI_Modes.obj
 0001:00000c00       ??_C@_1BA@OJPODHIH@?$AA1?$AA1?$AA?5?$AAM?$AAb?$AAp?$AAs?$AA?$AA@ 00011c00     DTI_Modes.obj
 0001:00000c10       ??_C@_1BC@IECAOAOP@?$AA5?$AA?4?$AA5?$AA?5?$AAM?$AAb?$AAp?$AAs?$AA?$AA@ 00011c10     DTI_Modes.obj
 0001:00000c24       ??_C@_1O@PHOPPELM@?$AA2?$AA?5?$AAM?$AAb?$AAp?$AAs?$AA?$AA@ 00011c24     DTI_Modes.obj
 0001:00000c34       ??_C@_1O@ILIONBGH@?$AA1?$AA?5?$AAM?$AAb?$AAp?$AAs?$AA?$AA@ 00011c34     DTI_Modes.obj
 0001:00000c44       ??_C@_19HKELMMGB@?$AAA?$AAu?$AAt?$AAo?$AA?$AA@ 00011c44     DTI_Modes.obj
 0001:00000c50       ??_C@_1BG@EKKANPMP@?$AAE?$AAT?$AA?5?$AAo?$AAn?$AA?5?$AAb?$AAo?$AAt?$AAh?$AA?$AA@ 00011c50     DTI_Modes.obj
 0001:00000c68       ??_C@_1BM@MACIOJCB@?$AAE?$AAT?$AA?5?$AAo?$AAn?$AA?5?$AAP?$AAR?$AA?5?$AAo?$AAn?$AAl?$AAy?$AA?$AA@ 00011c68     DTI_Modes.obj
 0001:00000c84       ??_C@_1CG@HAMEIKOO@?$AAE?$AAT?$AA?5?$AAo?$AAn?$AA?5?$AAb?$AAe?$AAa?$AAc?$AAo?$AAn?$AAs?$AA?5?$AAo?$AAn?$AAl?$AAy?$AA?$AA@ 00011c84     DTI_Modes.obj
 0001:00000cac       ??_C@_1BI@HJOIJDFN@?$AAE?$AAT?$AA?5?$AAD?$AAi?$AAs?$AAa?$AAb?$AAl?$AAe?$AAd?$AA?$AA@ 00011cac     DTI_Modes.obj
 0001:00000d70       ??_C@_1CI@JAOCMFBK@?$AAS?$AAc?$AAa?$AAn?$AAT?$AAy?$AAp?$AAe?$AA?5?$AAL?$AAi?$AAs?$AAt?$AA?5?$AAE?$AAr?$AAr?$AAo?$AAr?$AA?$AA@ 00011d70     DTI_Modes.obj
 0001:00000d98       ??_C@_1DI@FNFKJHIB@?$AAF?$AAa?$AAi?$AAl?$AAe?$AAd?$AA?5?$AAt?$AAo?$AA?5?$AAs?$AAe?$AAt?$AA?5?$AAS?$AAc?$AAa?$AAn?$AAT?$AAy?$AAp?$AAe?$AA?5?$AAL?$AAi?$AAs?$AAt?$AA?$AA@ 00011d98     DTI_Modes.obj
 0001:00000dd0       ??_C@_1FA@KACHOBFD@?$AAF?$AAa?$AAi?$AAl?$AAe?$AAd?$AA?5?$AAt?$AAo?$AA?5?$AAg?$AAe?$AAt?$AA?5?$AAS?$AAc?$AAa?$AAn?$AAT?$AAy?$AAp?$AAe?$AA?5?$AAC?$AAo?$AAm?$AAb?$AAo?$AAB?$AAo?$AAx?$AA?5@ 00011dd0     DTI_Modes.obj
 0001:00000e20       ??_C@_1CC@EGHOGLAI@?$AAE?$AAv?$AAe?$AAn?$AAt?$AA?5?$AAL?$AAi?$AAs?$AAt?$AA?5?$AAE?$AAr?$AAr?$AAo?$AAr?$AA?$AA@ 00011e20     DTI_Modes.obj
 0001:00000e44       ??_C@_1DC@MLCINHEH@?$AAF?$AAa?$AAi?$AAl?$AAe?$AAd?$AA?5?$AAt?$AAo?$AA?5?$AAs?$AAe?$AAt?$AA?5?$AAE?$AAv?$AAe?$AAn?$AAt?$AA?5?$AAL?$AAi?$AAs?$AAt?$AA?$AA@ 00011e44     DTI_Modes.obj
 0001:00000e78       ??_C@_1EK@KOOKMGJN@?$AAF?$AAa?$AAi?$AAl?$AAe?$AAd?$AA?5?$AAt?$AAo?$AA?5?$AAg?$AAe?$AAt?$AA?5?$AAE?$AAv?$AAe?$AAn?$AAt?$AA?5?$AAC?$AAo?$AAm?$AAb?$AAo?$AAB?$AAo?$AAx?$AA?5?$AAH?$AAa?$AAn@ 00011e78     DTI_Modes.obj
 0001:00000ec4       ??_C@_1BM@BNOPAELK@?$AAP?$AAR?$AA?5?$AAL?$AAi?$AAs?$AAt?$AA?5?$AAE?$AAr?$AAr?$AAo?$AAr?$AA?$AA@ 00011ec4     DTI_Modes.obj
 0001:00000ee0       ??_C@_1CM@ONBIBHNA@?$AAF?$AAa?$AAi?$AAl?$AAe?$AAd?$AA?5?$AAt?$AAo?$AA?5?$AAs?$AAe?$AAt?$AA?5?$AAP?$AAR?$AA?5?$AAL?$AAi?$AAs?$AAt?$AA?$AA@ 00011ee0     DTI_Modes.obj
 0001:00000f10       ??_C@_1EG@JMIGBAAL@?$AAF?$AAa?$AAi?$AAl?$AAe?$AAd?$AA?5?$AAt?$AAo?$AA?5?$AAg?$AAe?$AAt?$AA?5?$AAP?$AAR?$AAR?$AA?5?$AAC?$AAo?$AAm?$AAb?$AAo?$AAb?$AAo?$AAx?$AA?5?$AAH?$AAa?$AAn?$AAd?$AAl@ 00011f10     DTI_Modes.obj
 0001:00000f58       ??_C@_1FA@IILJKIDD@?$AAT?$AAr?$AAi?$AAg?$AAg?$AAe?$AAr?$AAi?$AAn?$AAg?$AA?5?$AAA?$AAC?$AA?5?$AAv?$AAa?$AAl?$AAu?$AAe?$AA?5?$AAm?$AAu?$AAs?$AAt?$AA?5?$AAb?$AAe?$AA?5?$AAi?$AAn?$AA?5?$AA0@ 00011f58     DTI_Modes.obj
 0001:00000fa8       ??_C@_1FA@KKLLIFKA@?$AAS?$AAc?$AAa?$AAn?$AA?5?$AAd?$AAu?$AAr?$AAa?$AAt?$AAi?$AAo?$AAn?$AA?5?$AAm?$AAu?$AAs?$AAt?$AA?5?$AAb?$AAe?$AA?5?$AAi?$AAn?$AA?5?$AA0?$AA?5?$AA?9?$AA?$DO?$AA?5?$AA1?$AA0@ 00011fa8     DTI_Modes.obj
 0001:00000ff8       ??_C@_1EG@COBPOOJO@?$AAT?$AAx?$AA?5?$AAP?$AAo?$AAw?$AAe?$AAr?$AA?5?$AAL?$AAe?$AAv?$AAe?$AAl?$AA?5?$AAm?$AAu?$AAs?$AAt?$AA?5?$AAb?$AAe?$AA?5?$AAi?$AAn?$AA?5?$AA0?$AA?5?$AA?9?$AA?$DO?$AA?5?$AA2@ 00011ff8     DTI_Modes.obj
 0001:00001040       ??_C@_1FC@MCBPMONF@?$AAM?$AAa?$AAx?$AA?5?$AAD?$AAw?$AAe?$AAl?$AAl?$AA?5?$AAT?$AAi?$AAm?$AAe?$AA?5?$AAm?$AAu?$AAs?$AAt?$AA?5?$AAb?$AAe?$AA?5?$AAi?$AAn?$AA?5?$AA0?$AA?5?$AA?9?$AA?$DO?$AA?5?$AA1@ 00012040     DTI_Modes.obj
 0001:00001098       ??_C@_1FC@JJLCCGHJ@?$AAM?$AAi?$AAn?$AA?5?$AAD?$AAw?$AAe?$AAl?$AAl?$AA?5?$AAT?$AAi?$AAm?$AAe?$AA?5?$AAm?$AAu?$AAs?$AAt?$AA?5?$AAb?$AAe?$AA?5?$AAi?$AAn?$AA?5?$AA0?$AA?5?$AA?9?$AA?$DO?$AA?5?$AA1@ 00012098     DTI_Modes.obj
 0001:000010f0       ??_C@_1FC@GINHHOPL@?$AAP?$AAr?$AAo?$AAb?$AAe?$AA?5?$AAR?$AAe?$AAq?$AAu?$AAe?$AAs?$AAt?$AA?5?$AAN?$AAu?$AAm?$AAb?$AAe?$AAr?$AA?5?$AAm?$AAu?$AAs?$AAt?$AA?5?$AAb?$AAe?$AA?5?$AAi?$AAn?$AA?5@ 000120f0     DTI_Modes.obj
 0001:00001148       ??_C@_1FE@GMIIJBEK@?$AAE?$AAT?$AA?5?$AA?9?$AA?5?$AAN?$AAu?$AAm?$AAb?$AAe?$AAr?$AA?5?$AAo?$AAf?$AA?5?$AAf?$AAr?$AAa?$AAm?$AAe?$AAs?$AA?5?$AAm?$AAu?$AAs?$AAt?$AA?5?$AAb?$AAe?$AA?5?$AAi?$AAn@ 00012148     DTI_Modes.obj
 0001:0000119c       ??_C@_1DA@JPOAGKFH@?$AAS?$AAc?$AAa?$AAn?$AA?5?$AAM?$AAo?$AAd?$AAe?$AA?5?$AAC?$AAo?$AAn?$AAf?$AAi?$AAg?$AAu?$AAr?$AAa?$AAt?$AAi?$AAo?$AAn?$AA?$AA@ 0001219c     DTI_Modes.obj
 0001:00001260       ??_C@_1EO@NEGGCGAE@?$AAF?$AAa?$AAi?$AAl?$AAe?$AAd?$AA?5?$AAt?$AAo?$AA?5?$AAs?$AAe?$AAt?$AA?5?$AAA?$AAS?$AA?5?$AAG?$AAl?$AAo?$AAb?$AAa?$AAl?$AA?5?$AAB?$AAa?$AAn?$AAd?$AA?5?$AAR?$AAa?$AAt@ 00012260     AS_Global.obj
 0001:000012b0       ??_C@_1FM@NNKPIOEO@?$AAF?$AAa?$AAi?$AAl?$AAe?$AAd?$AA?5?$AAt?$AAo?$AA?5?$AAg?$AAe?$AAt?$AA?5?$AAA?$AAS?$AA?5?$AAG?$AAl?$AAo?$AAb?$AAa?$AAl?$AA?5?$AAB?$AAa?$AAn?$AAd?$AA?5?$AAC?$AAo?$AAm@ 000122b0     AS_Global.obj
 0001:00001310       ??_C@_1EM@FEDEMNDE@?$AAF?$AAa?$AAi?$AAl?$AAe?$AAd?$AA?5?$AAt?$AAo?$AA?5?$AAs?$AAe?$AAt?$AA?5?$AAA?$AAS?$AA?5?$AAG?$AAl?$AAo?$AAb?$AAa?$AAl?$AA?5?$AAS?$AAc?$AAa?$AAn?$AAT?$AAy?$AAp?$AAe@ 00012310     AS_Global.obj
 0001:00001360       ??_C@_1GE@LBMFCHBJ@?$AAF?$AAa?$AAi?$AAl?$AAe?$AAd?$AA?5?$AAt?$AAo?$AA?5?$AAg?$AAe?$AAt?$AA?5?$AAA?$AAS?$AA?5?$AAG?$AAl?$AAo?$AAb?$AAa?$AAl?$AA?5?$AAS?$AAc?$AAa?$AAn?$AAT?$AAy?$AAp?$AAe@ 00012360     AS_Global.obj
 0001:000013c8       ??_C@_1EC@LJFPOFCP@?$AAF?$AAa?$AAi?$AAl?$AAe?$AAd?$AA?5?$AAt?$AAo?$AA?5?$AAs?$AAe?$AAt?$AA?5?$AAA?$AAS?$AA?5?$AAG?$AAl?$AAo?$AAb?$AAa?$AAl?$AA?5?$AAP?$AAR?$AAR?$AA?5?$AAL?$AAi?$AAs?$AAt@ 000123c8     AS_Global.obj
 0001:00001410       ??_C@_1FK@MCNNKIDE@?$AAF?$AAa?$AAi?$AAl?$AAe?$AAd?$AA?5?$AAt?$AAo?$AA?5?$AAg?$AAe?$AAt?$AA?5?$AAA?$AAS?$AA?5?$AAG?$AAl?$AAo?$AAb?$AAa?$AAl?$AA?5?$AAP?$AAR?$AAR?$AA?5?$AAC?$AAo?$AAm?$AAb@ 00012410     AS_Global.obj
 0001:00001470       ??_C@_1FM@HPDNEGIL@?$AAS?$AAS?$AAI?$AAD?$AA?5?$AAS?$AAi?$AAz?$AAe?$AA?5?$AAm?$AAu?$AAs?$AAt?$AA?5?$AAb?$AAe?$AA?5?$AAb?$AAe?$AAt?$AAw?$AAe?$AAe?$AAn?$AA?5?$AA0?$AA?5?$AAa?$AAn?$AAd?$AA?5@ 00012470     AS_Global.obj
 0001:000014d0       ??_C@_1EE@BBCGMGPL@?$AAT?$AAr?$AAi?$AAg?$AAg?$AAe?$AAr?$AAi?$AAn?$AAg?$AA?5?$AAI?$AAD?$AA?5?$AAm?$AAu?$AAs?$AAt?$AA?5?$AAb?$AAe?$AA?5?$AAi?$AAn?$AA?5?$AA0?$AA?5?$AA?9?$AA?$DO?$AA?5?$AA2?$AA5@ 000124d0     AS_Global.obj
 0001:00001518       ??_C@_1EM@LKIMBADH@?$AAN?$AAu?$AAm?$AAb?$AAe?$AAr?$AA?5?$AAo?$AAf?$AA?5?$AAC?$AAh?$AAa?$AAn?$AAn?$AAe?$AAl?$AAs?$AA?5?$AAm?$AAu?$AAs?$AAt?$AA?5?$AAb?$AAe?$AA?5?$AAi?$AAn?$AA?5?$AA0?$AA?5@ 00012518     AS_Global.obj
 0001:00001568       ??_C@_1FA@EOCCHILB@?$AAA?$AAp?$AAp?$AAl?$AAi?$AAc?$AAa?$AAt?$AAi?$AAo?$AAn?$AA?5?$AAS?$AAc?$AAa?$AAn?$AA?5?$AA?9?$AA?5?$AAG?$AAl?$AAo?$AAb?$AAa?$AAl?$AA?5?$AAC?$AAo?$AAn?$AAf?$AAi?$AAg@ 00012568     AS_Global.obj
 0001:000015b8       ??_C@_15FEFLCNCJ@?$AA1?$AA6?$AA?$AA@ 000125b8     AS_Channel.obj
 0001:000015c0       ??_C@_15EGOOICMH@?$AA1?$AA5?$AA?$AA@ 000125c0     AS_Channel.obj
 0001:000015c8       ??_C@_15POFCOFKC@?$AA1?$AA4?$AA?$AA@ 000125c8     AS_Channel.obj
 0001:000015d0       ??_C@_15GDIFNNBL@?$AA1?$AA3?$AA?$AA@ 000125d0     AS_Channel.obj
 0001:000015d8       ??_C@_15NLDJLKHO@?$AA1?$AA2?$AA?$AA@ 000125d8     AS_Channel.obj
 0001:000015e0       ??_C@_15MJIMBFJA@?$AA1?$AA1?$AA?$AA@ 000125e0     AS_Channel.obj
 0001:000015e8       ??_C@_15HBDAHCPF@?$AA1?$AA0?$AA?$AA@ 000125e8     AS_Channel.obj
 0001:000015f0       ??_C@_13FDJIJHMI@?$AA9?$AA?$AA@ 000125f0     AS_Channel.obj
 0001:000015f4       ??_C@_13OLCEPAKN@?$AA8?$AA?$AA@ 000125f4     AS_Channel.obj
 0001:000015f8       ??_C@_13LDEHOAPL@?$AA7?$AA?$AA@ 000125f8     AS_Channel.obj
 0001:000015fc       ??_C@_13LPLIHJO@?$AA6?$AA?$AA@ 000125fc     AS_Channel.obj
 0001:00001664       ??_C@_1CG@JIAHCCJF@?$AAC?$AAh?$AAa?$AAn?$AAn?$AAe?$AAl?$AA?5?$AAL?$AAi?$AAs?$AAt?$AA?5?$AAE?$AAr?$AAr?$AAo?$AAr?$AA?$AA@ 00012664     AS_Channel.obj
 0001:0000168c       ??_C@_1DG@LOMIFLOI@?$AAF?$AAa?$AAi?$AAl?$AAe?$AAd?$AA?5?$AAt?$AAo?$AA?5?$AAs?$AAe?$AAt?$AA?5?$AAC?$AAh?$AAa?$AAn?$AAn?$AAe?$AAl?$AA?5?$AAL?$AAi?$AAs?$AAt?$AA?$AA@ 0001268c     AS_Channel.obj
 0001:000016c8       ??_C@_1FK@NGLKFIDD@?$AAF?$AAa?$AAi?$AAl?$AAe?$AAd?$AA?5?$AAt?$AAo?$AA?5?$AAg?$AAe?$AAt?$AA?5?$AAC?$AAh?$AAa?$AAn?$AAn?$AAe?$AAl?$AA?5?$AAi?$AAn?$AAd?$AAe?$AAx?$AA?5?$AAC?$AAo?$AAm?$AAb@ 000126c8     AS_Channel.obj
 0001:00001724       ??_C@_1DA@CAKKIOJO@?$AAE?$AAT?$AA?5?$AAC?$AAo?$AAn?$AAd?$AAi?$AAt?$AAi?$AAo?$AAn?$AA?5?$AAL?$AAi?$AAs?$AAt?$AA?5?$AAE?$AAr?$AAr?$AAo?$AAr?$AA?$AA@ 00012724     AS_Channel.obj
 0001:00001758       ??_C@_1EA@OPMDNCHN@?$AAF?$AAa?$AAi?$AAl?$AAe?$AAd?$AA?5?$AAt?$AAo?$AA?5?$AAs?$AAe?$AAt?$AA?5?$AAE?$AAT?$AA?5?$AAC?$AAo?$AAn?$AAd?$AAi?$AAt?$AAi?$AAo?$AAn?$AA?5?$AAL?$AAi?$AAs?$AAt?$AA?$AA@ 00012758     AS_Channel.obj
 0001:00001798       ??_C@_1FI@BFPGANA@?$AAF?$AAa?$AAi?$AAl?$AAe?$AAd?$AA?5?$AAt?$AAo?$AA?5?$AAg?$AAe?$AAt?$AA?5?$AAE?$AAT?$AA?5?$AAC?$AAo?$AAn?$AAd?$AAi?$AAt?$AAi?$AAo?$AAn?$AA?5?$AAC?$AAo?$AAm?$AAb?$AAo@ 00012798     AS_Channel.obj
 0001:000017f0       ??_C@_1FC@BNHFCPNG@?$AAA?$AAp?$AAp?$AAl?$AAi?$AAc?$AAa?$AAt?$AAi?$AAo?$AAn?$AA?5?$AAS?$AAc?$AAa?$AAn?$AA?5?$AA?9?$AA?5?$AAC?$AAh?$AAa?$AAn?$AAn?$AAe?$AAl?$AA?5?$AAC?$AAo?$AAn?$AAf?$AAi@ 000127f0     AS_Channel.obj
 0001:00001848       ??_C@_1EG@CNJDALH@?$AAC?$AAh?$AAa?$AAn?$AAn?$AAe?$AAl?$AA?5?$AAN?$AAu?$AAm?$AAb?$AAe?$AAr?$AA?5?$AAm?$AAu?$AAs?$AAt?$AA?5?$AAb?$AAe?$AA?5?$AAi?$AAn?$AA?5?$AA0?$AA?5?$AA?9?$AA?$DO?$AA?5?$AA2@ 00012848     AS_Channel.obj
 0001:00001890       ??_C@_1EI@JKCMLKBM@?$AAE?$AAT?$AA?5?$AAF?$AAr?$AAa?$AAm?$AAe?$AA?5?$AAN?$AAu?$AAm?$AAb?$AAe?$AAr?$AA?5?$AAm?$AAu?$AAs?$AAt?$AA?5?$AAb?$AAe?$AA?5?$AAi?$AAn?$AA?5?$AA0?$AA?5?$AA?9?$AA?$DO?$AA?5@ 00012890     AS_Channel.obj
 0001:000018d8       ??_C@_1FI@EMNOHFI@?$AAB?$AAS?$AAS?$AAI?$AAD?$AA?5?$AAm?$AAu?$AAs?$AAt?$AA?5?$AAb?$AAe?$AA?5?$AAi?$AAn?$AA?5?$AAf?$AAo?$AAr?$AAm?$AAa?$AAt?$AA?5?$AA?3?$AA?5?$AAF?$AAF?$AA?3?$AAF?$AAF?$AA?3@ 000128d8     AS_Channel.obj
 0001:00001930       ??_C@_1EE@OAPDPAOD@?$AAN?$AAu?$AAm?$AAb?$AAe?$AAr?$AA?5?$AAo?$AAf?$AA?5?$AAB?$AAa?$AAn?$AAd?$AAs?$AA?5?$AAm?$AAu?$AAs?$AAt?$AA?5?$AAb?$AAe?$AA?5?$AAi?$AAn?$AA?5?$AA0?$AA?5?$AA?9?$AA?$DO?$AA?5@ 00012930     Conf_Global.obj
 0001:00001978       ??_C@_1GC@KJMLCKHN@?$AAB?$AAS?$AAS?$AA?5?$AAN?$AAu?$AAm?$AAb?$AAe?$AAr?$AA?5?$AAt?$AAo?$AA?5?$AAs?$AAt?$AAa?$AAr?$AAt?$AA?5?$AAd?$AAi?$AAs?$AAc?$AAo?$AAv?$AAe?$AAr?$AAy?$AA?5?$AAm?$AAu@ 00012978     Conf_Global.obj
 0001:000019e0       ??_C@_1EC@EKPNNALN@?$AAB?$AAS?$AAS?$AA?5?$AAL?$AAi?$AAs?$AAt?$AA?5?$AAS?$AAi?$AAz?$AAe?$AA?5?$AAm?$AAu?$AAs?$AAt?$AA?5?$AAb?$AAe?$AA?5?$AAi?$AAn?$AA?5?$AA0?$AA?5?$AA?9?$AA?$DO?$AA?5?$AA1?$AA6@ 000129e0     Conf_Global.obj
 0001:00001a28       ??_C@_1EM@LEMIIKEK@?$AAM?$AAa?$AAx?$AA?5?$AAT?$AAr?$AAa?$AAc?$AAk?$AA?5?$AAF?$AAa?$AAi?$AAl?$AAu?$AAr?$AAe?$AAs?$AA?5?$AAm?$AAu?$AAs?$AAt?$AA?5?$AAb?$AAe?$AA?5?$AAi?$AAn?$AA?5?$AA0?$AA?5@ 00012a28     Conf_Global.obj
 0001:00001a78       ??_C@_1GG@PIEJOAIK@?$AAD?$AAe?$AAt?$AAe?$AAr?$AAi?$AAo?$AAr?$AAa?$AAt?$AAi?$AAn?$AAg?$AA?5?$AAS?$AAc?$AAa?$AAn?$AA?5?$AAi?$AAn?$AAt?$AAe?$AAr?$AAv?$AAa?$AAl?$AA?5?$AAm?$AAu?$AAs?$AAt@ 00012a78     Conf_Global.obj
 0001:00001ae0       ??_C@_1FI@FADNCCLI@?$AAN?$AAo?$AAr?$AAm?$AAa?$AAl?$AA?5?$AAS?$AAc?$AAa?$AAn?$AA?5?$AAI?$AAn?$AAt?$AAe?$AAr?$AAv?$AAa?$AAl?$AA?5?$AAm?$AAu?$AAs?$AAt?$AA?5?$AAb?$AAe?$AA?5?$AAi?$AAn?$AA?5@ 00012ae0     Conf_Global.obj
 0001:00001b38       ??_C@_1DE@HACJINBD@?$AAG?$AAl?$AAo?$AAb?$AAa?$AAl?$AA?5?$AAS?$AAc?$AAa?$AAn?$AA?5?$AAC?$AAo?$AAn?$AAf?$AAi?$AAg?$AAu?$AAr?$AAa?$AAt?$AAi?$AAo?$AAn?$AA?$AA@ 00012b38     Conf_Global.obj
 0001:00001b6c       ??_C@_1CM@JANINBMA@?$AAR?$AAo?$AAa?$AAm?$AAi?$AAn?$AAg?$AA?5?$AAC?$AAo?$AAn?$AAf?$AAi?$AAg?$AAu?$AAr?$AAa?$AAt?$AAi?$AAo?$AAn?$AA?$AA@ 00012b6c     Roaming.obj
 0001:00001b98       ??_C@_07BMOHHAGJ@DYNAMIC?$AA@ 00012b98     cu_common:cu_cmd.obj
 0001:00001ba0       ??_C@_06GCFCNKMP@STATIC?$AA@ 00012ba0     cu_common:cu_cmd.obj
 0001:00001ba8       ??_C@_07EPHEAIFE@WPA2PSK?$AA@ 00012ba8     cu_common:cu_cmd.obj
 0001:00001bb0       ??_C@_06FLIGIHDD@WPAPSK?$AA@ 00012bb0     cu_common:cu_cmd.obj
 0001:00001bb8       ??_C@_06LOOAMPBO@Shared?$AA@ 00012bb8     cu_common:cu_cmd.obj
 0001:00001bc0       ??_C@_04DNCDCIAE@Open?$AA@ 00012bc0     cu_common:cu_cmd.obj
 0001:00001bc8       ??_C@_0L@BMJIDLML@DISCONNECT?$AA@ 00012bc8     cu_common:cu_cmd.obj
 0001:00001bd4       ??_C@_09KGBNNNJO@CONNECTED?$AA@ 00012bd4     cu_common:cu_cmd.obj
 0001:00001be0       ??_C@_0L@OPGIEADC@CONNECTING?$AA@ 00012be0     cu_common:cu_cmd.obj
 0001:00001bec       ??_C@_08OGPGMOKK@SCANNING?$AA@ 00012bec     cu_common:cu_cmd.obj
 0001:00001bf8       ??_C@_04IMMGDCFE@IDLE?$AA@ 00012bf8     cu_common:cu_cmd.obj
 0001:00001c00       ??_C@_06GIIDEEDO@Always?$AA@ 00012c00     cu_common:cu_cmd.obj
 0001:00001c08       ??_C@_09FMMIECJP@When?5Idle?$AA@ 00012c08     cu_common:cu_cmd.obj
 0001:00001c14       ??_C@_03BKNEFOAH@AES?$AA@  00012c14     cu_common:cu_cmd.obj
 0001:00001c18       ??_C@_04HNKLFFMO@TKIP?$AA@ 00012c18     cu_common:cu_cmd.obj
 0001:00001c20       ??_C@_03EEILAFIH@WEP?$AA@  00012c20     cu_common:cu_cmd.obj
 0001:00001c24       ??_C@_04OHJIHAFH@None?$AA@ 00012c24     cu_common:cu_cmd.obj
 0001:00001c2c       ??_C@_09FLJKDLLP@LONG_DOZE?$AA@ 00012c2c     cu_common:cu_cmd.obj
 0001:00001c38       ??_C@_0L@EGACFLEN@SHORT_DOZE?$AA@ 00012c38     cu_common:cu_cmd.obj
 0001:00001c44       ??_C@_04LMMJFDCN@AUTO?$AA@ 00012c44     cu_common:cu_cmd.obj
 0001:00001c4c       ??_C@_03EBKHDLCO@Any?$AA@  00012c4c     cu_common:cu_cmd.obj
 0001:00001c50       ??_C@_0P@FFOGJEBJ@Infrastructure?$AA@ 00012c50     cu_common:cu_cmd.obj
 0001:00001c60       ??_C@_0M@MLMKHJLC@Independent?$AA@ 00012c60     cu_common:cu_cmd.obj
 0001:00001c6c       ??_C@_06FHBILLDG@Hidden?$AA@ 00012c6c     cu_common:cu_cmd.obj
 0001:00001c74       ??_C@_06IBHNPBBJ@Public?$AA@ 00012c74     cu_common:cu_cmd.obj
 0001:00001c7c       ??_C@_04HPMIDMKH@True?$AA@ 00012c7c     cu_common:cu_cmd.obj
 0001:00001c84       ??_C@_05MKDOIIA@False?$AA@ 00012c84     cu_common:cu_cmd.obj
 0001:00001c8c       ??_C@_0BG@LPCOHBOD@Active?5Triggered?5Scan?$AA@ 00012c8c     cu_common:cu_cmd.obj
 0001:00001ca4       ??_C@_0BH@EDCAFNIH@Passive?5Triggered?5Scan?$AA@ 00012ca4     cu_common:cu_cmd.obj
 0001:00001cbc       ??_C@_0BN@CNCCFEFL@Scheduled?5Passive?5Scan?5?$CISPS?$CJ?$AA@ 00012cbc     cu_common:cu_cmd.obj
 0001:00001cdc       ??_C@_0BD@CICODNNE@Active?5Normal?5Scan?$AA@ 00012cdc     cu_common:cu_cmd.obj
 0001:00001cf0       ??_C@_0BE@HIDCEC@Passive?5Normal?5Scan?$AA@ 00012cf0     cu_common:cu_cmd.obj
 0001:00001d04       ??_C@_08ELFCGFHP@54?5Mbps?5?$AA@ 00012d04     cu_common:cu_cmd.obj
 0001:00001d10       ??_C@_08LIGGEHD@48?5Mbps?5?$AA@ 00012d10     cu_common:cu_cmd.obj
 0001:00001d1c       ??_C@_08HKGNBLII@36?5Mbps?5?$AA@ 00012d1c     cu_common:cu_cmd.obj
 0001:00001d28       ??_C@_08CPDDAILG@24?5Mbps?5?$AA@ 00012d28     cu_common:cu_cmd.obj
 0001:00001d34       ??_C@_08EBBBCBDM@18?5Mbps?5?$AA@ 00012d34     cu_common:cu_cmd.obj
 0001:00001d40       ??_C@_08NANBDNPE@12?5Mbps?5?$AA@ 00012d40     cu_common:cu_cmd.obj
 0001:00001d4c       ??_C@_08CPGDMIJJ@9?5Mbps?5?5?$AA@ 00012d4c     cu_common:cu_cmd.obj
 0001:00001d58       ??_C@_08PANKAHEI@6?5Mbps?5?5?$AA@ 00012d58     cu_common:cu_cmd.obj
 0001:00001d64       ??_C@_08OJFMABDB@22?5Mbps?5?$AA@ 00012d64     cu_common:cu_cmd.obj
 0001:00001d70       ??_C@_08FOFODKBH@11?5Mbps?5?$AA@ 00012d70     cu_common:cu_cmd.obj
 0001:00001d7c       ??_C@_08NPEHAHO@5?45?5Mbps?$AA@ 00012d7c     cu_common:cu_cmd.obj
 0001:00001d88       ??_C@_08KNDGFGEE@2?5Mbps?5?5?$AA@ 00012d88     cu_common:cu_cmd.obj
 0001:00001d94       ??_C@_08JELLGKIB@1?5Mbps?5?5?$AA@ 00012d94     cu_common:cu_cmd.obj
 0001:00001da0       ??_C@_08BJBAMICO@Auto?5?5?5?5?$AA@ 00012da0     cu_common:cu_cmd.obj
 0001:00001dac       ??_C@_0O@GPJFGIMI@ET?5on?5both?5?5?5?$AA@ 00012dac     cu_common:cu_cmd.obj
 0001:00001dbc       ??_C@_0O@GAPJGGC@ET?5on?5Prb?5Rsp?$AA@ 00012dbc     cu_common:cu_cmd.obj
 0001:00001dcc       ??_C@_0O@KPCLBPEI@ET?5on?5Beacon?5?$AA@ 00012dcc     cu_common:cu_cmd.obj
 0001:00001ddc       ??_C@_0O@JIMGEEI@ET?5disabled?5?5?$AA@ 00012ddc     cu_common:cu_cmd.obj
 0001:00001dec       ??_C@_07LIJBGHCN@Both?5?5?5?$AA@ 00012dec     cu_common:cu_cmd.obj
 0001:00001df4       ??_C@_07KAFDDKGH@5?40?5GHz?$AA@ 00012df4     cu_common:cu_cmd.obj
 0001:00001dfc       ??_C@_07DBAHHBGI@2?44?5GHz?$AA@ 00012dfc     cu_common:cu_cmd.obj
 0001:00001e04       ??_C@_05BOFJJAAP@Awake?$AA@ 00012e04     cu_common:cu_cmd.obj
 0001:00001e0c       ??_C@_0L@NIEOCJBN@Power?5Down?$AA@ 00012e0c     cu_common:cu_cmd.obj
 0001:00001e18       ??_C@_0BC@EKBDJBGP@Extreme?5Low?5Power?$AA@ 00012e18     cu_common:cu_cmd.obj
 0001:00001e2c       ??_C@_07PCJELJIA@CONSOLE?$AA@ 00012e2c     cu_common:cu_cmd.obj
 0001:00001e34       ??_C@_02CLJDIHEM@SM?$AA@   00012e34     cu_common:cu_cmd.obj
 0001:00001e38       ??_C@_0M@BBACKHFD@FATAL_ERROR?$AA@ 00012e38     cu_common:cu_cmd.obj
 0001:00001e44       ??_C@_05MBDEGLCK@ERROR?$AA@ 00012e44     cu_common:cu_cmd.obj
 0001:00001e4c       ??_C@_07KCOHIFOP@WARNING?$AA@ 00012e4c     cu_common:cu_cmd.obj
 0001:00001e54       ??_C@_0M@PHDJNCCI@INFORMATION?$AA@ 00012e54     cu_common:cu_cmd.obj
 0001:00001e60       ??_C@_04LGGJDDML@INIT?$AA@ 00012e60     cu_common:cu_cmd.obj
 0001:00001e68       ??_C@_04ECGLBLOI@?9?9?9?9?$AA@ 00012e68     cu_common:cu_cmd.obj
 0001:00001e70       ??_C@_0BJ@JCIBHMNP@WlanDrvIf?5?5?5?5?5?5?5?5?5?5?5?5?5?5?5?$AA@ 00012e70     cu_common:cu_cmd.obj
 0001:00001e8c       ??_C@_0BJ@HLMMDEMF@cmdinterpretoid?5?5?5?5?5?5?5?5?5?$AA@ 00012e8c     cu_common:cu_cmd.obj
 0001:00001ea8       ??_C@_0BJ@CFDIMNPF@roamingMngr_manualSM?5?5?5?5?$AA@ 00012ea8     cu_common:cu_cmd.obj
 0001:00001ec4       ??_C@_0BJ@JALIHDEN@roamingMngr_autoSM?5?5?5?5?5?5?$AA@ 00012ec4     cu_common:cu_cmd.obj
 0001:00001ee0       ??_C@_0BJ@FNAJCEFA@externalSec?5?5?5?5?5?5?5?5?5?5?5?5?5?$AA@ 00012ee0     cu_common:cu_cmd.obj
 0001:00001efc       ??_C@_0BJ@GELPODIC@stack?5?5?5?5?5?5?5?5?5?5?5?5?5?5?5?5?5?5?5?$AA@ 00012efc     cu_common:cu_cmd.obj
 0001:00001f18       ??_C@_0BJ@CKIGMIGA@report?5?5?5?5?5?5?5?5?5?5?5?5?5?5?5?5?5?5?$AA@ 00012f18     cu_common:cu_cmd.obj
 0001:00001f34       ??_C@_0BJ@BENNKGCG@rate?5?5?5?5?5?5?5?5?5?5?5?5?5?5?5?5?5?5?5?5?$AA@ 00012f34     cu_common:cu_cmd.obj
 0001:00001f50       ??_C@_0BJ@HNGJBNBK@queue?5?5?5?5?5?5?5?5?5?5?5?5?5?5?5?5?5?5?5?$AA@ 00012f50     cu_common:cu_cmd.obj
 0001:00001f6c       ??_C@_0BJ@NMOIILLB@mem?5?5?5?5?5?5?5?5?5?5?5?5?5?5?5?5?5?5?5?5?5?$AA@ 00012f6c     cu_common:cu_cmd.obj
 0001:00001f88       ??_C@_0BJ@LPOIPJMF@GenSM?5?5?5?5?5?5?5?5?5?5?5?5?5?5?5?5?5?5?5?$AA@ 00012f88     cu_common:cu_cmd.obj
 0001:00001fa4       ??_C@_0BJ@KFIIDDI@fsm?5?5?5?5?5?5?5?5?5?5?5?5?5?5?5?5?5?5?5?5?5?$AA@ 00012fa4     cu_common:cu_cmd.obj
 0001:00001fc0       ??_C@_0BJ@PPFFKIHP@freq?5?5?5?5?5?5?5?5?5?5?5?5?5?5?5?5?5?5?5?5?$AA@ 00012fc0     cu_common:cu_cmd.obj
 0001:00001fdc       ??_C@_0BJ@FPPGIKDP@context?5?5?5?5?5?5?5?5?5?5?5?5?5?5?5?5?5?$AA@ 00012fdc     cu_common:cu_cmd.obj
 0001:00001ff8       ??_C@_0BJ@NEOOKEMF@WspiBusDrv?5?5?5?5?5?5?5?5?5?5?5?5?5?5?$AA@ 00012ff8     cu_common:cu_cmd.obj
 0001:00002014       ??_C@_0BJ@GABMBMNH@TxnQueue?5?5?5?5?5?5?5?5?5?5?5?5?5?5?5?5?$AA@ 00013014     cu_common:cu_cmd.obj
 0001:00002030       ??_C@_0BJ@IJGJNDEK@SdioBusDrv?5?5?5?5?5?5?5?5?5?5?5?5?5?5?$AA@ 00013030     cu_common:cu_cmd.obj
 0001:0000204c       ??_C@_0BJ@KBAHIGME@TwIf?5?5?5?5?5?5?5?5?5?5?5?5?5?5?5?5?5?5?5?5?$AA@ 0001304c     cu_common:cu_cmd.obj
 0001:00002068       ??_C@_0BJ@GAELGAJP@TWDriverTx?5?5?5?5?5?5?5?5?5?5?5?5?5?5?$AA@ 00013068     cu_common:cu_cmd.obj
 0001:00002084       ??_C@_0BJ@MJLGLFOG@TWDriverRadio?5?5?5?5?5?5?5?5?5?5?5?$AA@ 00013084     cu_common:cu_cmd.obj
 0001:000020a0       ??_C@_0BJ@LNPJGFBO@TWDriverCtrl?5?5?5?5?5?5?5?5?5?5?5?5?$AA@ 000130a0     cu_common:cu_cmd.obj
 0001:000020bc       ??_C@_0BJ@MMLNNOAI@TWDriver?5?5?5?5?5?5?5?5?5?5?5?5?5?5?5?5?$AA@ 000130bc     cu_common:cu_cmd.obj
 0001:000020d8       ??_C@_0BJ@PCFBGCO@ScanSrvSM?5?5?5?5?5?5?5?5?5?5?5?5?5?5?5?$AA@ 000130d8     cu_common:cu_cmd.obj
 0001:000020f4       ??_C@_0BJ@ENJAKLBI@ScanSrv?5?5?5?5?5?5?5?5?5?5?5?5?5?5?5?5?5?$AA@ 000130f4     cu_common:cu_cmd.obj
 0001:00002110       ??_C@_0BJ@KMGDMKOB@PowerSrvSM?5?5?5?5?5?5?5?5?5?5?5?5?5?5?$AA@ 00013110     cu_common:cu_cmd.obj
 0001:0000212c       ??_C@_0BJ@KLEGJAMI@PowerSrv?5?5?5?5?5?5?5?5?5?5?5?5?5?5?5?5?$AA@ 0001312c     cu_common:cu_cmd.obj
 0001:00002148       ??_C@_0BJ@ONCGMAIC@MeasurementSrvSM?5?5?5?5?5?5?5?5?$AA@ 00013148     cu_common:cu_cmd.obj
 0001:00002164       ??_C@_0BJ@ENIBCFPC@measurementSrvDbgPrint?5?5?$AA@ 00013164     cu_common:cu_cmd.obj
 0001:00002180       ??_C@_0BJ@KOPPHLLA@MeasurementSrv?5?5?5?5?5?5?5?5?5?5?$AA@ 00013180     cu_common:cu_cmd.obj
 0001:0000219c       ??_C@_0BJ@BINIKEGL@MacServices?5?5?5?5?5?5?5?5?5?5?5?5?5?$AA@ 0001319c     cu_common:cu_cmd.obj
 0001:000021b8       ??_C@_0BJ@OAPBICC@txXfer?5?5?5?5?5?5?5?5?5?5?5?5?5?5?5?5?5?5?$AA@ 000131b8     cu_common:cu_cmd.obj
 0001:000021d4       ??_C@_0BJ@LEICJDCF@txResult?5?5?5?5?5?5?5?5?5?5?5?5?5?5?5?5?$AA@ 000131d4     cu_common:cu_cmd.obj
 0001:000021f0       ??_C@_0BJ@NFPKDKFI@RxXfer?5?5?5?5?5?5?5?5?5?5?5?5?5?5?5?5?5?5?$AA@ 000131f0     cu_common:cu_cmd.obj
 0001:0000220c       ??_C@_0BJ@ECPPHJJF@HwInit?5?5?5?5?5?5?5?5?5?5?5?5?5?5?5?5?5?5?$AA@ 0001320c     cu_common:cu_cmd.obj
 0001:00002228       ??_C@_0BJ@CCIENEGG@FwEvent?5?5?5?5?5?5?5?5?5?5?5?5?5?5?5?5?5?$AA@ 00013228     cu_common:cu_cmd.obj
 0001:00002244       ??_C@_0BJ@JCBBJMMJ@fwDebug?5?5?5?5?5?5?5?5?5?5?5?5?5?5?5?5?5?$AA@ 00013244     cu_common:cu_cmd.obj
 0001:00002260       ??_C@_0BJ@DLDDPCKC@eventMbox?5?5?5?5?5?5?5?5?5?5?5?5?5?5?5?$AA@ 00013260     cu_common:cu_cmd.obj
 0001:0000227c       ??_C@_0BJ@ELKLLMDA@CmdMBox?5?5?5?5?5?5?5?5?5?5?5?5?5?5?5?5?5?$AA@ 0001327c     cu_common:cu_cmd.obj
 0001:00002298       ??_C@_0BJ@DEINIAIG@txHwQueue?5?5?5?5?5?5?5?5?5?5?5?5?5?5?5?$AA@ 00013298     cu_common:cu_cmd.obj
 0001:000022b4       ??_C@_0BJ@HEDLPHAL@txCtrlBlk?5?5?5?5?5?5?5?5?5?5?5?5?5?5?5?$AA@ 000132b4     cu_common:cu_cmd.obj
 0001:000022d0       ??_C@_0BJ@EMHJLDKK@RxQueue?5?5?5?5?5?5?5?5?5?5?5?5?5?5?5?5?5?$AA@ 000132d0     cu_common:cu_cmd.obj
 0001:000022ec       ??_C@_0BJ@IMDMNDJL@CmdQueue?5?5?5?5?5?5?5?5?5?5?5?5?5?5?5?5?$AA@ 000132ec     cu_common:cu_cmd.obj
 0001:00002308       ??_C@_0BJ@JHEODECH@CmdBldItrIE?5?5?5?5?5?5?5?5?5?5?5?5?5?$AA@ 00013308     cu_common:cu_cmd.obj
 0001:00002324       ??_C@_0BJ@CMNEMBG@CmdBldItr?5?5?5?5?5?5?5?5?5?5?5?5?5?5?5?$AA@ 00013324     cu_common:cu_cmd.obj
 0001:00002340       ??_C@_0BJ@IMJOEFND@CmdBldCmdIE?5?5?5?5?5?5?5?5?5?5?5?5?5?$AA@ 00013340     cu_common:cu_cmd.obj
 0001:0000235c       ??_C@_0BJ@BJBNDNOC@CmdBldCmd?5?5?5?5?5?5?5?5?5?5?5?5?5?5?5?$AA@ 0001335c     cu_common:cu_cmd.obj
 0001:00002378       ??_C@_0BJ@CCNDGNDJ@CmdBldCfgIE?5?5?5?5?5?5?5?5?5?5?5?5?5?$AA@ 00013378     cu_common:cu_cmd.obj
 0001:00002394       ??_C@_0BJ@LHFABFAI@CmdBldCfg?5?5?5?5?5?5?5?5?5?5?5?5?5?5?5?$AA@ 00013394     cu_common:cu_cmd.obj
 0001:000023b0       ??_C@_0BJ@LGKPNMMH@CmdBld?5?5?5?5?5?5?5?5?5?5?5?5?5?5?5?5?5?5?$AA@ 000133b0     cu_common:cu_cmd.obj
 0001:000023cc       ??_C@_0BJ@JAMOMDIN@trafficAdmControl?5?5?5?5?5?5?5?$AA@ 000133cc     cu_common:cu_cmd.obj
 0001:000023e8       ??_C@_0BJ@NGLHBMG@templates?5?5?5?5?5?5?5?5?5?5?5?5?5?5?5?$AA@ 000133e8     cu_common:cu_cmd.obj
 0001:00002404       ??_C@_0BJ@FDGFFECJ@systemConfig?5?5?5?5?5?5?5?5?5?5?5?5?$AA@ 00013404     cu_common:cu_cmd.obj
 0001:00002420       ??_C@_0BJ@EIAGDMKF@StaCap?5?5?5?5?5?5?5?5?5?5?5?5?5?5?5?5?5?5?$AA@ 00013420     cu_common:cu_cmd.obj
 0001:0000243c       ??_C@_0BJ@FGOBDLLK@siteMgr?5?5?5?5?5?5?5?5?5?5?5?5?5?5?5?5?5?$AA@ 0001343c     cu_common:cu_cmd.obj
 0001:00002458       ??_C@_0BJ@CFNPHPHO@siteHash?5?5?5?5?5?5?5?5?5?5?5?5?5?5?5?5?$AA@ 00013458     cu_common:cu_cmd.obj
 0001:00002474       ??_C@_0BJ@LPGBHIOA@sharedKeyAuthSm?5?5?5?5?5?5?5?5?5?$AA@ 00013474     cu_common:cu_cmd.obj
 0001:00002490       ??_C@_0BJ@EGAFMFK@scr?5?5?5?5?5?5?5?5?5?5?5?5?5?5?5?5?5?5?5?5?5?$AA@ 00013490     cu_common:cu_cmd.obj
 0001:000024ac       ??_C@_0BJ@OGLPOAPL@scanResultTable?5?5?5?5?5?5?5?5?5?$AA@ 000134ac     cu_common:cu_cmd.obj
 0001:000024c8       ??_C@_0BJ@JHABMGBI@ScanCncnSmSpecific?5?5?5?5?5?5?$AA@ 000134c8     cu_common:cu_cmd.obj
 0001:000024e4       ??_C@_0BJ@KLPGNKDH@ScanCncnSm?5?5?5?5?5?5?5?5?5?5?5?5?5?5?$AA@ 000134e4     cu_common:cu_cmd.obj
 0001:00002500       ??_C@_0BJ@OHINEFB@ScanCncnOsSm?5?5?5?5?5?5?5?5?5?5?5?5?$AA@ 00013500     cu_common:cu_cmd.obj
 0001:0000251c       ??_C@_0BJ@JGPELHI@ScanCncnApp?5?5?5?5?5?5?5?5?5?5?5?5?5?$AA@ 0001351c     cu_common:cu_cmd.obj
 0001:00002538       ??_C@_0BJ@LLOMPLGD@ScanCncn?5?5?5?5?5?5?5?5?5?5?5?5?5?5?5?5?$AA@ 00013538     cu_common:cu_cmd.obj
 0001:00002554       ??_C@_0BJ@CPMOKBPE@roamingInt?5?5?5?5?5?5?5?5?5?5?5?5?5?5?$AA@ 00013554     cu_common:cu_cmd.obj
 0001:00002570       ??_C@_0BJ@NNAJMEOB@qosMngr?5?5?5?5?5?5?5?5?5?5?5?5?5?5?5?5?5?$AA@ 00013570     cu_common:cu_cmd.obj
 0001:0000258c       ??_C@_0BJ@FDCBBJCI@PowerMgrKeepAlive?5?5?5?5?5?5?5?$AA@ 0001358c     cu_common:cu_cmd.obj
 0001:000025a8       ??_C@_0BJ@JGGDGOMG@PowerMgrDbgPrint?5?5?5?5?5?5?5?5?$AA@ 000135a8     cu_common:cu_cmd.obj
 0001:000025c4       ??_C@_0BJ@HEBIBBDM@PowerMgr?5?5?5?5?5?5?5?5?5?5?5?5?5?5?5?5?$AA@ 000135c4     cu_common:cu_cmd.obj
 0001:000025e0       ??_C@_0BJ@NCCACAKL@openAuthSm?5?5?5?5?5?5?5?5?5?5?5?5?5?5?$AA@ 000135e0     cu_common:cu_cmd.obj
 0001:000025fc       ??_C@_0BJ@NOHNFILC@mlmeSm?5?5?5?5?5?5?5?5?5?5?5?5?5?5?5?5?5?5?$AA@ 000135fc     cu_common:cu_cmd.obj
 0001:00002618       ??_C@_0BJ@MEBCKDAM@mlmeParser?5?5?5?5?5?5?5?5?5?5?5?5?5?5?$AA@ 00013618     cu_common:cu_cmd.obj
 0001:00002634       ??_C@_0BJ@BOBHPALM@mlmeBuilder?5?5?5?5?5?5?5?5?5?5?5?5?5?$AA@ 00013634     cu_common:cu_cmd.obj
 0001:00002650       ??_C@_0BJ@CNGEPDBF@healthMonitor?5?5?5?5?5?5?5?5?5?5?5?$AA@ 00013650     cu_common:cu_cmd.obj
 0001:0000266c       ??_C@_0BJ@NOKOIIHJ@currBss?5?5?5?5?5?5?5?5?5?5?5?5?5?5?5?5?5?$AA@ 0001366c     cu_common:cu_cmd.obj
 0001:00002688       ??_C@_0BJ@ENPKFJCE@authSm?5?5?5?5?5?5?5?5?5?5?5?5?5?5?5?5?5?5?$AA@ 00013688     cu_common:cu_cmd.obj
 0001:000026a4       ??_C@_0BJ@INOOCAOE@assocSM?5?5?5?5?5?5?5?5?5?5?5?5?5?5?5?5?5?$AA@ 000136a4     cu_common:cu_cmd.obj
 0001:000026c0       ??_C@_0BJ@GPNBAKF@txPort?5?5?5?5?5?5?5?5?5?5?5?5?5?5?5?5?5?5?$AA@ 000136c0     cu_common:cu_cmd.obj
 0001:000026dc       ??_C@_0BJ@BPMHBAEH@txMgmtQueue?5?5?5?5?5?5?5?5?5?5?5?5?5?$AA@ 000136dc     cu_common:cu_cmd.obj
 0001:000026f8       ??_C@_0BJ@MMHMAAAL@txDataQueue?5?5?5?5?5?5?5?5?5?5?5?5?5?$AA@ 000136f8     cu_common:cu_cmd.obj
 0001:00002714       ??_C@_0BJ@GNONADJF@TxDataClsfr?5?5?5?5?5?5?5?5?5?5?5?5?5?$AA@ 00013714     cu_common:cu_cmd.obj
 0001:00002730       ??_C@_0BJ@KFLHOIJE@txCtrlServ?5?5?5?5?5?5?5?5?5?5?5?5?5?5?$AA@ 00013730     cu_common:cu_cmd.obj
 0001:0000274c       ??_C@_0BJ@HLAIJIOH@txCtrlParams?5?5?5?5?5?5?5?5?5?5?5?5?$AA@ 0001374c     cu_common:cu_cmd.obj
 0001:00002768       ??_C@_0BJ@CFLLBDEC@txCtrl?5?5?5?5?5?5?5?5?5?5?5?5?5?5?5?5?5?5?$AA@ 00013768     cu_common:cu_cmd.obj
 0001:00002784       ??_C@_0BJ@CDHFKEAE@TrafficMonitor?5?5?5?5?5?5?5?5?5?5?$AA@ 00013784     cu_common:cu_cmd.obj
 0001:000027a0       ??_C@_0BJ@LNLNGKGK@rx?5?5?5?5?5?5?5?5?5?5?5?5?5?5?5?5?5?5?5?5?5?5?$AA@ 000137a0     cu_common:cu_cmd.obj
 0001:000027bc       ??_C@_0BJ@DMHNBNLH@RateAdaptation?5?5?5?5?5?5?5?5?5?5?$AA@ 000137bc     cu_common:cu_cmd.obj
 0001:000027d8       ??_C@_0BJ@OJJAKAJG@GeneralUtil?5?5?5?5?5?5?5?5?5?5?5?5?5?$AA@ 000137d8     cu_common:cu_cmd.obj
 0001:000027f4       ??_C@_0BJ@INIGOLGF@Ctrl?5?5?5?5?5?5?5?5?5?5?5?5?5?5?5?5?5?5?5?5?$AA@ 000137f4     cu_common:cu_cmd.obj
 0001:00002810       ??_C@_0BJ@BCLCALJP@EvHandler?5?5?5?5?5?5?5?5?5?5?5?5?5?5?5?$AA@ 00013810     cu_common:cu_cmd.obj
 0001:0000282c       ??_C@_0BJ@BDAKGLDO@DrvMain?5?5?5?5?5?5?5?5?5?5?5?5?5?5?5?5?5?$AA@ 0001382c     cu_common:cu_cmd.obj
 0001:00002848       ??_C@_0BJ@PJEDIJIO@CmdHndlr?5?5?5?5?5?5?5?5?5?5?5?5?5?5?5?5?$AA@ 00013848     cu_common:cu_cmd.obj
 0001:00002864       ??_C@_0BJ@NEHNCIGF@CmdDispatcher?5?5?5?5?5?5?5?5?5?5?5?$AA@ 00013864     cu_common:cu_cmd.obj
 0001:00002880       ??_C@_0BJ@PNNDGMOH@unicastKeySM?5?5?5?5?5?5?5?5?5?5?5?5?$AA@ 00013880     cu_common:cu_cmd.obj
 0001:0000289c       ??_C@_0BJ@IGBOGACK@unicastKeyNone?5?5?5?5?5?5?5?5?5?5?$AA@ 0001389c     cu_common:cu_cmd.obj
 0001:000028b8       ??_C@_0BJ@HLLCJMEH@unicastKey802_1x?5?5?5?5?5?5?5?5?$AA@ 000138b8     cu_common:cu_cmd.obj
 0001:000028d4       ??_C@_0BJ@JPPFLJPB@smeSm?5?5?5?5?5?5?5?5?5?5?5?5?5?5?5?5?5?5?5?$AA@ 000138d4     cu_common:cu_cmd.obj
 0001:000028f0       ??_C@_0BJ@EGFPDKKM@smeSelect?5?5?5?5?5?5?5?5?5?5?5?5?5?5?5?$AA@ 000138f0     cu_common:cu_cmd.obj
 0001:0000290c       ??_C@_0BJ@BBJLCMFG@sme?5?5?5?5?5?5?5?5?5?5?5?5?5?5?5?5?5?5?5?5?5?$AA@ 0001390c     cu_common:cu_cmd.obj
 0001:00002928       ??_C@_0BJ@NPBHNHJA@rsn?5?5?5?5?5?5?5?5?5?5?5?5?5?5?5?5?5?5?5?5?5?$AA@ 00013928     cu_common:cu_cmd.obj
 0001:00002944       ??_C@_0BJ@HLKHIGFI@mainSecSm?5?5?5?5?5?5?5?5?5?5?5?5?5?5?5?$AA@ 00013944     cu_common:cu_cmd.obj
 0001:00002960       ??_C@_0BJ@FBLMDEOD@mainSecNull?5?5?5?5?5?5?5?5?5?5?5?5?5?$AA@ 00013960     cu_common:cu_cmd.obj
 0001:0000297c       ??_C@_0BJ@IFDLMMDH@mainSecKeysOnly?5?5?5?5?5?5?5?5?5?$AA@ 0001397c     cu_common:cu_cmd.obj
 0001:00002998       ??_C@_0BJ@HJECOCDO@mainKeysSm?5?5?5?5?5?5?5?5?5?5?5?5?5?5?$AA@ 00013998     cu_common:cu_cmd.obj
 0001:000029b4       ??_C@_0BJ@OIFIOBBI@keyParserWep?5?5?5?5?5?5?5?5?5?5?5?5?$AA@ 000139b4     cu_common:cu_cmd.obj
 0001:000029d0       ??_C@_0BJ@JFBNNAPC@keyParserExternal?5?5?5?5?5?5?5?$AA@ 000139d0     cu_common:cu_cmd.obj
 0001:000029ec       ??_C@_0BJ@BELAKEBP@keyParser?5?5?5?5?5?5?5?5?5?5?5?5?5?5?5?$AA@ 000139ec     cu_common:cu_cmd.obj
 0001:00002a08       ??_C@_0BJ@JCEGHINA@keyDeriveWep?5?5?5?5?5?5?5?5?5?5?5?5?$AA@ 00013a08     cu_common:cu_cmd.obj
 0001:00002a24       ??_C@_0BJ@JHJDCAAK@keyDeriveTkip?5?5?5?5?5?5?5?5?5?5?5?$AA@ 00013a24     cu_common:cu_cmd.obj
 0001:00002a40       ??_C@_0BJ@IMENOGOB@keyDeriveCkip?5?5?5?5?5?5?5?5?5?5?5?$AA@ 00013a40     cu_common:cu_cmd.obj
 0001:00002a5c       ??_C@_0BJ@FLJBAKHB@keyDeriveAes?5?5?5?5?5?5?5?5?5?5?5?5?$AA@ 00013a5c     cu_common:cu_cmd.obj
 0001:00002a78       ??_C@_0BJ@GOKODNNH@keyDerive?5?5?5?5?5?5?5?5?5?5?5?5?5?5?5?$AA@ 00013a78     cu_common:cu_cmd.obj
 0001:00002a94       ??_C@_0BJ@IJNIOFKM@connInfra?5?5?5?5?5?5?5?5?5?5?5?5?5?5?5?$AA@ 00013a94     cu_common:cu_cmd.obj
 0001:00002ab0       ??_C@_0BJ@ECJEHGKB@connIbss?5?5?5?5?5?5?5?5?5?5?5?5?5?5?5?5?$AA@ 00013ab0     cu_common:cu_cmd.obj
 0001:00002acc       ??_C@_0BJ@OHBHOCGL@conn?5?5?5?5?5?5?5?5?5?5?5?5?5?5?5?5?5?5?5?5?$AA@ 00013acc     cu_common:cu_cmd.obj
 0001:00002ae8       ??_C@_0BJ@EDFMPAAN@broadcastKeySM?5?5?5?5?5?5?5?5?5?5?$AA@ 00013ae8     cu_common:cu_cmd.obj
 0001:00002b04       ??_C@_0BJ@LINAINMD@broadcastKeyNone?5?5?5?5?5?5?5?5?$AA@ 00013b04     cu_common:cu_cmd.obj
 0001:00002b20       ??_C@_0BJ@NMCDAILE@broadcastKey802_1x?5?5?5?5?5?5?$AA@ 00013b20     cu_common:cu_cmd.obj
 0001:00002b3c       ??_C@_0BJ@GOHKHKML@apConn?5?5?5?5?5?5?5?5?5?5?5?5?5?5?5?5?5?5?$AA@ 00013b3c     cu_common:cu_cmd.obj
 0001:00002b58       ??_C@_0BJ@OALMNKNI@admCtrlWpa2?5?5?5?5?5?5?5?5?5?5?5?5?5?$AA@ 00013b58     cu_common:cu_cmd.obj
 0001:00002b74       ??_C@_0BJ@MFIPEAG@admCtrlWpa?5?5?5?5?5?5?5?5?5?5?5?5?5?5?$AA@ 00013b74     cu_common:cu_cmd.obj
 0001:00002b90       ??_C@_0BJ@KHOICOPI@admCtrlWep?5?5?5?5?5?5?5?5?5?5?5?5?5?5?$AA@ 00013b90     cu_common:cu_cmd.obj
 0001:00002bac       ??_C@_0BJ@HMLNLIJH@admCtrlNone?5?5?5?5?5?5?5?5?5?5?5?5?5?$AA@ 00013bac     cu_common:cu_cmd.obj
 0001:00002bc8       ??_C@_0BJ@OOBPPBMI@admCtrl?5?5?5?5?5?5?5?5?5?5?5?5?5?5?5?5?5?$AA@ 00013bc8     cu_common:cu_cmd.obj
 0001:00002be4       ??_C@_0BJ@HOJFENFL@TransmitPowerCcx?5?5?5?5?5?5?5?5?$AA@ 00013be4     cu_common:cu_cmd.obj
 0001:00002c00       ??_C@_0BJ@MFGGOLFF@rogueAp?5?5?5?5?5?5?5?5?5?5?5?5?5?5?5?5?5?$AA@ 00013c00     cu_common:cu_cmd.obj
 0001:00002c1c       ??_C@_0BJ@NAKEGBNM@ccxTSMngr?5?5?5?5?5?5?5?5?5?5?5?5?5?5?5?$AA@ 00013c1c     cu_common:cu_cmd.obj
 0001:00002c38       ??_C@_0BJ@DKHOCFAA@ccxRMMngr?5?5?5?5?5?5?5?5?5?5?5?5?5?5?5?$AA@ 00013c38     cu_common:cu_cmd.obj
 0001:00002c54       ??_C@_0BJ@NICPBNCI@ccxMngr?5?5?5?5?5?5?5?5?5?5?5?5?5?5?5?5?5?$AA@ 00013c54     cu_common:cu_cmd.obj
 0001:00002c70       ??_C@_0BJ@FGMEINKB@admCtrlCcx?5?5?5?5?5?5?5?5?5?5?5?5?5?5?$AA@ 00013c70     cu_common:cu_cmd.obj
 0001:00002c8c       ??_C@_0BJ@DDPJBPP@scanMngr?5?5?5?5?5?5?5?5?5?5?5?5?5?5?5?5?$AA@ 00013c8c     cu_common:cu_cmd.obj
 0001:00002ca8       ??_C@_0BJ@MNJGKJDN@roamingMngr?5?5?5?5?5?5?5?5?5?5?5?5?5?$AA@ 00013ca8     cu_common:cu_cmd.obj
 0001:00002cc4       ??_C@_0BJ@LJHGPCFI@SwitchChannel?5?5?5?5?5?5?5?5?5?5?5?$AA@ 00013cc4     cu_common:cu_cmd.obj
 0001:00002ce0       ??_C@_0BJ@DHIIIMNO@spectrumMngmntMgr?5?5?5?5?5?5?5?$AA@ 00013ce0     cu_common:cu_cmd.obj
 0001:00002cfc       ??_C@_0BJ@PCAFICJK@SoftGemini?5?5?5?5?5?5?5?5?5?5?5?5?5?5?$AA@ 00013cfc     cu_common:cu_cmd.obj
 0001:00002d18       ??_C@_0BJ@IENLDJMB@requestHandler?5?5?5?5?5?5?5?5?5?5?$AA@ 00013d18     cu_common:cu_cmd.obj
 0001:00002d34       ??_C@_0BJ@ODGJMLKN@regulatoryDomain?5?5?5?5?5?5?5?5?$AA@ 00013d34     cu_common:cu_cmd.obj
 0001:00002d50       ??_C@_0BJ@FKAPMJAE@measurementMgrSM?5?5?5?5?5?5?5?5?$AA@ 00013d50     cu_common:cu_cmd.obj
 0001:00002d6c       ??_C@_0BJ@BJNGHCDG@measurementMgr?5?5?5?5?5?5?5?5?5?5?$AA@ 00013d6c     cu_common:cu_cmd.obj
 0001:00002d88       ??_C@_0BJ@GMHCIHOA@timer?5?5?5?5?5?5?5?5?5?5?5?5?5?5?5?5?5?5?5?$AA@ 00013d88     cu_common:cu_cmd.obj
 0001:00002da4       ??_C@_07MKALMBDJ@Timeout?$AA@ 00013da4     cu_common:cu_cmd.obj
 0001:00002dac       ??_C@_0BL@BPPJJKKB@IPC_EVENT_RSSI_SNR_TRIGGER?$AA@ 00013dac     cu_common:cu_cmd.obj
 0001:00002dc8       ??_C@_0BO@OGHPOKID@IPC_EVENT_WPS_SESSION_OVERLAP?$AA@ 00013dc8     cu_common:cu_cmd.obj
 0001:00002de8       ??_C@_0L@IPKBALHI@ScanFailed?$AA@ 00013de8     cu_common:cu_cmd.obj
 0001:00002df4       ??_C@_0CO@KJMIJIDA@IPC_EVENT_TRAFFIC_INTENSITY_THRE@ 00013df4     cu_common:cu_cmd.obj
 0001:00002e24       ??_C@_0CB@JICNODLE@IPC_EVENT_WPA2_PREAUTHENTICATION@ 00013e24     cu_common:cu_cmd.obj
 0001:00002e48       ??_C@_0BK@MCNGKKKJ@EAP?9FAST?1LEAP?5Auth?5Failed?$AA@ 00013e48     cu_common:cu_cmd.obj
 0001:00002e64       ??_C@_0BB@DAEICJFB@ROAMING_COMPLETE?$AA@ 00013e64     cu_common:cu_cmd.obj
 0001:00002e78       ??_C@_0BM@KFKMCLEI@IPC_EVENT_MEDIUM_TIME_CROSS?$AA@ 00013e78     cu_common:cu_cmd.obj
 0001:00002e94       ??_C@_0BM@EGPKALJD@IPC_EVENT_TSPEC_RATE_STATUS?$AA@ 00013e94     cu_common:cu_cmd.obj
 0001:00002eb0       ??_C@_0BH@NLNLJIPL@IPC_EVENT_TSPEC_STATUS?$AA@ 00013eb0     cu_common:cu_cmd.obj
 0001:00002ec8       ??_C@_08NCNCBKIE@Low?5RSSI?$AA@ 00013ec8     cu_common:cu_cmd.obj
 0001:00002ed4       ??_C@_07BNPFLMGG@Unbound?$AA@ 00013ed4     cu_common:cu_cmd.obj
 0001:00002edc       ??_C@_05IPGANIA@Bound?$AA@ 00013edc     cu_common:cu_cmd.obj
 0001:00002ee4       ??_C@_0BN@HHACIDKG@IPC_EVENT_RE_AUTH_TERMINATED?$AA@ 00013ee4     cu_common:cu_cmd.obj
 0001:00002f04       ??_C@_0BM@MDOJIEAH@IPC_EVENT_RE_AUTH_COMPLETED?$AA@ 00013f04     cu_common:cu_cmd.obj
 0001:00002f20       ??_C@_0BK@BCKBECLD@IPC_EVENT_RE_AUTH_STARTED?$AA@ 00013f20     cu_common:cu_cmd.obj
 0001:00002f3c       ??_C@_05JIDMHBCM@EAPOL?$AA@ 00013f3c     cu_common:cu_cmd.obj
 0001:00002f44       ??_C@_0P@IHILOBPM@Media_Specific?$AA@ 00013f44     cu_common:cu_cmd.obj
 0001:00002f54       ??_C@_0M@ELDBCOIE@ScanStopped?$AA@ 00013f54     cu_common:cu_cmd.obj
 0001:00002f60       ??_C@_0N@FBKMEOCD@ScanComplete?$AA@ 00013f60     cu_common:cu_cmd.obj
 0001:00002f70       ??_C@_0BH@LEGIOKM@Authentication?5Success?$AA@ 00013f70     cu_common:cu_cmd.obj
 0001:00002f88       ??_C@_09BEFONHAB@LinkSpeed?$AA@ 00013f88     cu_common:cu_cmd.obj
 0001:00002f94       ??_C@_0O@HKAFIBLA@Disassociated?$AA@ 00013f94     cu_common:cu_cmd.obj
 0001:00002fa4       ??_C@_0L@MEACDNBE@Associated?$AA@ 00013fa4     cu_common:cu_cmd.obj
 0001:00002fb0       ??_C@_08PCNABPCD@INACTIVE?$AA@ 00013fb0     cu_common:cu_cmd.obj
 0001:00002fbc       ??_C@_0L@GPNJIJEA@SME?5Manual?$AA@ 00013fbc     cu_common:cu_cmd.obj
 0001:00002fc8       ??_C@_08HJMBIIIF@SME?5Auto?$AA@ 00013fc8     cu_common:cu_cmd.obj
 0001:00002fd4       ??_C@_04LBDCJOFB@Auto?$AA@ 00013fd4     cu_common:cu_cmd.obj
 0001:00002fdc       ??_C@_05CFHNBBJ@Infr?4?$AA@ 00013fdc     cu_common:cu_cmd.obj
 0001:00002fe4       ??_C@_06HOIMDJCI@AD?9Hoc?$AA@ 00013fe4     cu_common:cu_cmd.obj
 0001:00002fec       ??_C@_01EEMJAFIK@?6?$AA@   00013fec     cu_common:cu_cmd.obj
 0001:00002ff0       ??_C@_09KOABLBLB@?$CFd?5?9?5?$CFs?$CFs?$AA@ 00013ff0     cu_common:cu_cmd.obj
 0001:00002ffc       ??_C@_02KEGNLNML@?0?5?$AA@ 00013ffc     cu_common:cu_cmd.obj
 0001:00003000       ??_C@_0BK@HADBIOKG@Application?5scan?5started?6?$AA@ 00014000     cu_common:cu_cmd.obj
 0001:0000301c       ??_C@_0BK@JIEGPCDA@Application?5scan?5stopped?6?$AA@ 0001401c     cu_common:cu_cmd.obj
 0001:00003038       ??_C@_0DH@HPPBEFJM@?9?9?9?9?9?9?9?9?9?9?9?9?9?9?9?9?9?9?9?9?9?9?9?9?9?9?9?9?9?9?9?9@ 00014038     cu_common:cu_cmd.obj
 0001:00003070       ??_C@_0BF@KGEPPOIF@Roaming?5is?5enabled?5?6?$AA@ 00014070     cu_common:cu_cmd.obj
 0001:00003088       ??_C@_0BG@CDIMHGAP@Roaming?5is?5disabled?5?6?$AA@ 00014088     cu_common:cu_cmd.obj
 0001:000030a0       ??_C@_0GB@IKMELCNM@Time?5in?5sec?5to?5wait?5before?5low?5q@ 000140a0     cu_common:cu_cmd.obj
 0001:00003108       ??_C@_0GJ@GBKDGIMD@Quality?5indicator?5?$CIRSSI?$CJ?5to?5be?5u@ 00014108     cu_common:cu_cmd.obj
 0001:00003174       ??_C@_0BK@GPLOFJCJ@dataRetryThreshold?5?$DN?5?$CFd?5?6?$AA@ 00014174     cu_common:cu_cmd.obj
 0001:00003190       ??_C@_0FA@FOCMNBDM@Number?5of?5expected?5TBTTs?5for?5BSS@ 00014190     cu_common:cu_cmd.obj
 0001:000031e0       ??_C@_0BH@OHFGHGIK@txRateThreshold?5?$DN?5?$CFd?5?6?$AA@ 000141e0     cu_common:cu_cmd.obj
 0001:000031f8       ??_C@_0BI@ICENPFDP@lowRssiThreshold?5?$DN?5?$CFd?5?6?$AA@ 000141f8     cu_common:cu_cmd.obj
 0001:00003210       ??_C@_0BH@KBHGJOLM@lowSnrThreshold?5?$DN?5?$CFd?5?6?$AA@ 00014210     cu_common:cu_cmd.obj
 0001:00003228       ??_C@_0HJ@CLCGMDKI@Indicator?5used?5to?5increase?5the?5b@ 00014228     cu_common:cu_cmd.obj
 0001:000032a8       ??_C@_0HN@LCCCCKAG@Indicator?5used?5to?5reduce?5the?5bac@ 000142a8     cu_common:cu_cmd.obj
 0001:00003328       ??_C@_0BA@HDCJMJMH@Power?5mode?3?5?$CFd?6?$AA@ 00014328     cu_common:cu_cmd.obj
 0001:00003338       ??_C@_0CN@DBGGPPDA@CuCmd_SetPowerMode?0?5mode?5?$CFd?5is?5n@ 00014338     cu_common:cu_cmd.obj
 0001:00003368       ??_C@_0BO@EGGIOOEF@Power?5Level?5PowerSave?5is?3?5?$CFs?6?$AA@ 00014368     cu_common:cu_cmd.obj
 0001:00003388       ??_C@_0DI@KCEOJLGO@CuCmd_SetPowerSavePowerLevel?0?5le@ 00014388     cu_common:cu_cmd.obj
 0001:000033c0       ??_C@_0BM@OHDONDCB@Power?5Level?5Default?5is?3?5?$CFs?6?$AA@ 000143c0     cu_common:cu_cmd.obj
 0001:000033dc       ??_C@_0DG@FOALFFJG@CuCmd_SetDefaultPowerLevel?0?5leve@ 000143dc     cu_common:cu_cmd.obj
 0001:00003414       ??_C@_0CN@CNODLLED@Param?50?5?9?5Band?5?$CI0?92?44Ghz?0?51?95Ghz@ 00014414     cu_common:cu_cmd.obj
 0001:00003444       ??_C@_0BD@INKMAFKA@Param?51?5?9?5Channel?6?$AA@ 00014444     cu_common:cu_cmd.obj
 0001:00003458       ??_C@_0CN@OCBFJOJJ@Channel?5tune?5of?5channel?5?$CFd?5was?5p@ 00014458     cu_common:cu_cmd.obj
 0001:00003488       ??_C@_0BI@JONCOGFF@Channel?5?$CFd?5tune?5failed?6?$AA@ 00014488     cu_common:cu_cmd.obj
 0001:000034a0       ??_C@_0EH@JKAPBGBL@Radio?5tune?5was?5not?5performed?5bec@ 000144a0     cu_common:cu_cmd.obj
 0001:000034e8       ??_C@_0N@BENGMKFF@Mac?$FL0?$FN?$DN?$CF02x?6?$AA@ 000144e8     cu_common:cu_cmd.obj
 0001:000034f8       ??_C@_0N@DKNNOBG@Mac?$FL1?$FN?$DN?$CF02x?6?$AA@ 000144f8     cu_common:cu_cmd.obj
 0001:00003508       ??_C@_0N@DKCAOCND@Mac?$FL2?$FN?$DN?$CF02x?6?$AA@ 00014508     cu_common:cu_cmd.obj
 0001:00003518       ??_C@_0N@CNFLPGJA@Mac?$FL3?$FN?$DN?$CF02x?6?$AA@ 00014518     cu_common:cu_cmd.obj
 0001:00003528       ??_C@_0N@EJDKJLFJ@Mac?$FL4?$FN?$DN?$CF02x?6?$AA@ 00014528     cu_common:cu_cmd.obj
 0001:00003538       ??_C@_0N@FOEBIPBK@Mac?$FL5?$FN?$DN?$CF02x?6?$AA@ 00014538     cu_common:cu_cmd.obj
 0001:00003548       ??_C@_0BN@NELECLEF@exiting?5FillMACAddressToNVS?6?$AA@ 00014548     cu_common:cu_cmd.obj
 0001:00003568       ??_C@_0CG@FLENCOBM@Unable?5?5to?5get?5Mac?5address?0?5abor@ 00014568     cu_common:cu_cmd.obj
 0001:00003590       ??_C@_0BO@JGHHJLJL@Entering?5FillMACAddressToNVS?6?$AA@ 00014590     cu_common:cu_cmd.obj
 0001:000035b0       ??_C@_0CC@KOGKEHJI@?6?5Could?5not?5create?5FILE?$CB?$CB?$CB?5?$CB?$CB?$CB?$CB?5@ 000145b0     cu_common:cu_cmd.obj
 0001:000035d4       ??_C@_0BF@HBFIIHIO@?1windows?1nvs_map?4bin?$AA@ 000145d4     cu_common:cu_cmd.obj
 0001:000035ec       ??_C@_0DE@IJMDIDIN@BufferCalReferencePoint?5was?5conf@ 000145ec     cu_common:cu_cmd.obj
 0001:00003620       ??_C@_0CE@FNOEAMAJ@BufferCalReferencePoint?5has?5fail@ 00014620     cu_common:cu_cmd.obj
 0001:00003644       ??_C@_0CO@PDLOCCKK@Missing?5Param1?3?5iReferencePointD@ 00014644     cu_common:cu_cmd.obj
 0001:00003674       ??_C@_0CG@OPCGLKBM@Missing?5Param2?3?5iReferencePointP@ 00014674     cu_common:cu_cmd.obj
 0001:0000369c       ??_C@_0BK@BLICFJGI@Missing?5Param3?3?5isubBand?6?$AA@ 0001469c     cu_common:cu_cmd.obj
 0001:000036b8       ??_C@_0CE@BBDEIGDH@Tx?5calibration?5returned?5status?3?5@ 000146b8     cu_common:cu_cmd.obj
 0001:000036dc       ??_C@_0CB@PBINBEAE@Tx?5calibration?5start?5has?5failed?6@ 000146dc     cu_common:cu_cmd.obj
 0001:00003700       ??_C@_0CJ@OOCKIMAO@At?5least?5one?5sub?9band?5should?5be?5@ 00014700     cu_common:cu_cmd.obj
 0001:0000372c       ??_C@_0DE@HDMKCFPO@ERROR?5?9?5CuCmd_Create?5?9?5cant?5allo@ 0001472c     cu_common:cu_cmd.obj
 0001:00003760       ??_C@_0DF@FFMMAPEH@In?5CuCommon_Radio_Test?3?5IPC_STA_@ 00014760     cu_common:cu_common.obj
 0001:00003798       ??_C@_0DH@CPADMOJH@ERROR?5?9?5CuCommon_Create?5?9?5cant?5a@ 00014798     cu_common:cu_common.obj
 0001:000037d0       ??_C@_0CG@BHGKFIGA@Could?5not?5find?5a?5usable?5WinSock?5@ 000147d0     osapi_um:osapi.obj
 0001:000037f8       ??_C@_0CE@EKKOCMKM@?$CFs?3?5zerro?5is?5returned?5by?5recvfro@ 000147f8     osapi_um:osapi.obj
 0001:0000381c       ??_C@_0CE@MHFALAKA@?$CFs?3?5error?5is?5returned?5by?5recvfro@ 0001481c     osapi_um:osapi.obj
 0001:00003840       ??_C@_0CL@IOPGBHOE@?$CFs?3?5error?5binding?5logger?5socket?4@ 00014840     osapi_um:osapi.obj
 0001:0000386c       ??_C@_0CC@PHJHEFJL@?$CFs?3?5error?5opening?5socket?5socket?4@ 0001486c     osapi_um:osapi.obj
 0001:00003890       ??_C@_0CC@PMLEMPFG@Could?5not?5initializate?5WinSocks?4@ 00014890     osapi_um:osapi.obj
 0001:000038b4       ??_C@_01KDCPPGHE@r?$AA@    000148b4     osapi_um:osapi.obj
 0001:000038b8       ??_C@_02JDPG@rb?$AA@       000148b8     osapi_um:osapi.obj
 0001:000038bc       ??_C@_01NOFIACDB@w?$AA@    000148bc     osapi_um:osapi.obj
 0001:000038c0       ??_C@_02GMLFBBN@wb?$AA@    000148c0     osapi_um:osapi.obj
 0001:000038c8       ??_C@_0ED@PCJEAPMI@Disassociated?5with?5?$CK?$CK?$CK?$CK?5unspecif@ 000148c8     osapi_um:ipc_event.obj
 0001:00003910       ??_C@_0EI@GCKHFJKF@CLI?5Event?5?9?5Disassociated?5due?5to@ 00014910     osapi_um:ipc_event.obj
 0001:00003958       ??_C@_0DE@ENBMBFNL@CLI?5Event?5?9?5Disassociated?5due?5to@ 00014958     osapi_um:ipc_event.obj
 0001:00003990       ??_C@_0EJ@LEAIDILC@CLI?5Event?5?9?5Disassociated?5due?5to@ 00014990     osapi_um:ipc_event.obj
 0001:000039dc       ??_C@_0DF@MIBNCGEE@CLI?5Event?5?9?5Disassociated?5due?5to@ 000149dc     osapi_um:ipc_event.obj
 0001:00003a14       ??_C@_0CO@FDLFBMHG@CLI?5Event?5?9?5Disassociated?5due?5to@ 00014a14     osapi_um:ipc_event.obj
 0001:00003a48       ??_C@_0EM@IMMEBJOD@CLI?5Event?5?9?5Disassociated?5due?5to@ 00014a48     osapi_um:ipc_event.obj
 0001:00003a98       ??_C@_0EG@NAFFEKJO@CLI?5Event?5?9?5Disassociated?5due?5to@ 00014a98     osapi_um:ipc_event.obj
 0001:00003ae0       ??_C@_0DH@OMMJCPLL@CLI?5Event?5?9?5Disassociated?5due?5to@ 00014ae0     osapi_um:ipc_event.obj
 0001:00003b18       ??_C@_0DE@HHPFMNJ@CLI?5Event?5?9?5Disassociated?5with?5u@ 00014b18     osapi_um:ipc_event.obj
 0001:00003b4c       ??_C@_0BG@BIMNHAEH@UNKNOWN?5EVENT?5?9?5?$CFd?$CB?5?6?$AA@ 00014b4c     osapi_um:ipc_event.obj
 0001:00003b64       ??_C@_0DE@LAJNDNOM@IPC_EVENT_RSSI_SNR_TRIGGER?5?$CIinde@ 00014b64     osapi_um:ipc_event.obj
 0001:00003b98       ??_C@_0CL@LNIKENGJ@IPC_EVENT_WPS_SESSION_OVERLAP?5da@ 00014b98     osapi_um:ipc_event.obj
 0001:00003bc4       ??_C@_0BM@OLCDIFMD@IPC_EVENT_GWSI?5data?5len?$DN?$CFd?6?$AA@ 00014bc4     osapi_um:ipc_event.obj
 0001:00003be0       ??_C@_0DL@HGCDMBNJ@IPC_EVENT_TRAFFIC_INTENSITY_THRE@ 00014be0     osapi_um:ipc_event.obj
 0001:00003c1c       ??_C@_0CJ@LLMCHJEL@Threshold?$CIHigh?$DN0?0?5?5Low?$DN1?$CJ?5?5?5cros@ 00014c1c     osapi_um:ipc_event.obj
 0001:00003c48       ??_C@_0CJ@BDDAICAA@Direction?$CIAbove?$DN0?0?5Below?$DN1?$CJ?5cros@ 00014c48     osapi_um:ipc_event.obj
 0001:00003c74       ??_C@_0CO@JCHLENEB@IPC_EVENT_WPA2_PREAUTHENTICATION@ 00014c74     osapi_um:ipc_event.obj
 0001:00003ca4       ??_C@_0CI@HFCDLGKG@IPC_EVENT_EAP_AUTH_FAILURE?5data?5@ 00014ca4     osapi_um:ipc_event.obj
 0001:00003ccc       ??_C@_0CI@POHKHOHA@IPC_EVENT_ROAMING_COMPLETE?5data?5@ 00014ccc     osapi_um:ipc_event.obj
 0001:00003cf4       ??_C@_0CJ@GPJFOABA@IPC_EVENT_MEDIUM_TIME_CROSS?5data@ 00014cf4     osapi_um:ipc_event.obj
 0001:00003d20       ??_C@_0EH@NENNMFOC@IPC_EVENT_TSPEC_RATE_STATUS?5ther@ 00014d20     osapi_um:ipc_event.obj
 0001:00003d68       ??_C@_0EH@KPGMMILO@IPC_EVENT_TSPEC_RATE_STATUS?5uAC?$DN@ 00014d68     osapi_um:ipc_event.obj
 0001:00003db0       ??_C@_0EC@BPICHEFO@IPC_EVENT_TSPEC_STATUS?5there?5is?5@ 00014db0     osapi_um:ipc_event.obj
 0001:00003df4       ??_C@_0DK@KMBHEKFO@CLI?5Event?5?9?5IPC_EVENT_TSPEC_STAT@ 00014df4     osapi_um:ipc_event.obj
 0001:00003e30       ??_C@_0DH@IMJLOBGP@Tspec?5Parameters?5?$CIas?5received?5th@ 00014e30     osapi_um:ipc_event.obj
 0001:00003e68       ??_C@_0BD@MIEBMEKA@userPriority?5?$DN?5?$CFd?6?$AA@ 00014e68     osapi_um:ipc_event.obj
 0001:00003e7c       ??_C@_0BH@BBDDEJIJ@uNominalMSDUsize?5?$DN?5?$CFd?6?$AA@ 00014e7c     osapi_um:ipc_event.obj
 0001:00003e94       ??_C@_0BE@KHOJHKJM@uMeanDataRate?5?$DN?5?$CFd?6?$AA@ 00014e94     osapi_um:ipc_event.obj
 0001:00003ea8       ??_C@_0BG@DIDNGFMA@uMinimumPHYRate?5?$DN?5?$CFd?6?$AA@ 00014ea8     osapi_um:ipc_event.obj
 0001:00003ec0       ??_C@_0CB@LHPPAKG@uSurplusBandwidthAllowance?5?$DN?5?$CFd?6@ 00014ec0     osapi_um:ipc_event.obj
 0001:00003ee4       ??_C@_0BA@JFAALLBL@uAPSDFlag?5?$DN?5?$CFd?6?$AA@ 00014ee4     osapi_um:ipc_event.obj
 0001:00003ef4       ??_C@_0BN@GABDNDAA@MinimumServiceInterval?5?$DN?5?$CFd?6?$AA@ 00014ef4     osapi_um:ipc_event.obj
 0001:00003f14       ??_C@_0BN@IPJBMNHK@MaximumServiceInterval?5?$DN?5?$CFd?6?$AA@ 00014f14     osapi_um:ipc_event.obj
 0001:00003f34       ??_C@_0BD@IILGGPK@uMediumTime?5?$DN?5?$CFd?6?6?$AA@ 00014f34     osapi_um:ipc_event.obj
 0001:00003f48       ??_C@_0CA@DDJJDKFF@IPC_EVENT_LOW_RSSI?5data?5len?$DN?$CFd?6?$AA@ 00014f48     osapi_um:ipc_event.obj
 0001:00003f68       ??_C@_0CF@IHKCMNPC@IPC_EVENT_PREAUTH_EAPOL?5data?5len@ 00014f68     osapi_um:ipc_event.obj
 0001:00003f90       ??_C@_0BP@MCIEAGC@IPC_EVENT_UNBOUND?5data?5len?$DN?$CFd?6?$AA@ 00014f90     osapi_um:ipc_event.obj
 0001:00003fb0       ??_C@_0BN@IMEDNNPO@IPC_EVENT_BOUND?5data?5len?$DN?$CFd?6?$AA@ 00014fb0     osapi_um:ipc_event.obj
 0001:00003fd0       ??_C@_0DN@CJCLFNNP@IpcEvent_PrintEvent?5?9?5received?5I@ 00014fd0     osapi_um:ipc_event.obj
 0001:00004010       ??_C@_0DM@BALLJGM@IpcEvent_PrintEvent?5?9?5received?5I@ 00015010     osapi_um:ipc_event.obj
 0001:0000404c       ??_C@_0DK@OFODLLOM@IpcEvent_PrintEvent?5?9?5received?5I@ 0001504c     osapi_um:ipc_event.obj
 0001:00004088       ??_C@_0BN@EKBPPFKG@IPC_EVENT_EAPOL?5data?5len?$DN?$CFd?6?$AA@ 00015088     osapi_um:ipc_event.obj
 0001:000040a8       ??_C@_0CC@KKMFCCMP@IPC_EVENT_CCKM_START?5data?5len?$DN?$CFd@ 000150a8     osapi_um:ipc_event.obj
 0001:000040cc       ??_C@_0BP@POEPPKGG@IPC_EVENT_TIMEOUT?5data?5len?$DN?$CFd?6?$AA@ 000150cc     osapi_um:ipc_event.obj
 0001:000040ec       ??_C@_0CB@OIABNBBH@IPC_EVENT_AUTH_SUCC?5data?5len?$DN?$CFd?6@ 000150ec     osapi_um:ipc_event.obj
 0001:00004110       ??_C@_0CC@DOFHOCKC@IPC_EVENT_LINK_SPEED?5data?5len?$DN?$CFd@ 00015110     osapi_um:ipc_event.obj
 0001:00004134       ??_C@_0CF@PECNONDF@IPC_EVENT_SCAN_COMPLETE?5data?5len@ 00015134     osapi_um:ipc_event.obj
 0001:0000415c       ??_C@_0CG@PBHDEFHO@IPC_EVENT_MEDIA_SPECIFIC?5data?5le@ 0001515c     osapi_um:ipc_event.obj
 0001:00004184       ??_C@_0CF@PMIIMALJ@IPC_EVENT_DISASSOCIATED?5data?5len@ 00015184     osapi_um:ipc_event.obj
 0001:000041ac       ??_C@_0CC@KNEBKCKK@IPC_EVENT_ASSOCIATED?5data?5len?$DN?$CFd@ 000151ac     osapi_um:ipc_event.obj
 0001:000041d0       ??_C@_0BG@BJMBEMKC@IpcEvent_Handle_Event?$AA@ 000151d0     osapi_um:ipc_event.obj
 0001:000041e8       ??_C@_0CA@BIICGEPH@?$CFs?5error?3?5illegal?5ID?$CI?$CFX?5?$CB?$DN?5?$CFX?$CJ?6?$AA@ 000151e8     osapi_um:ipc_event.obj
 0001:00004208       ??_C@_0BB@HJAPLPKK@EventsThreadFunc?$AA@ 00015208     osapi_um:ipc_event.obj
 0001:0000421c       ??_C@_0CB@GLFMIHCE@?$CFs?3?5Can?8t?5create?5Events?5thread?4?6@ 0001521c     osapi_um:ipc_event.obj
 0001:00004240       ??_C@_0BA@BIKDLDGN@IpcEvent_Create?$AA@ 00015240     osapi_um:ipc_event.obj
 0001:00004250       ??_C@_1M@OCFACEGK@?$AAU?$AAI?$AAO?$AA1?$AA?3?$AA?$AA@ 00015250     osapi_um:ipc_sta.obj
 0001:0000425c       ??_C@_0CO@HDFMPKLG@ERROR?4?5see?5driver?5prints?5or?5logs@ 0001525c     osapi_um:ipc_sta.obj
 0001:000042c4       ?MACWndProc@@YAHPAUHWND__@@IIJ@Z 000152c4 f   WL1271_Manager_App.obj
 0001:000043cc       ?WLANWndProc@@YAHPAUHWND__@@IIJ@Z 000153cc f   WL1271_Manager_App.obj
 0001:000047f0       ?UpdateDeviceImage@@YAXPAUHWND__@@H@Z 000157f0 f   WL1271_Manager_App.obj
 0001:00004858       ?SwitchDevicePower@@YAXPAUHWND__@@H@Z 00015858 f   WL1271_Manager_App.obj
 0001:000048f0       ?WndProc@@YAJPAUHWND__@@IIJ@Z 000158f0 f   WL1271_Manager_App.obj
 0001:00004ac8       ?InitInstance@@YAHPAUHINSTANCE__@@H@Z 00015ac8 f   WL1271_Manager_App.obj
 0001:00004b9c       WinMain                    00015b9c f   WL1271_Manager_App.obj
 0001:00004c80       ?BT_Init@@YAHXZ            00015c80 f   Bluetooth.obj
 0001:00004d48       ?BT_GetStatus@@YAHXZ       00015d48 f   Bluetooth.obj
 0001:00004e4c       ?BT_DeInit@@YAHXZ          00015e4c f   Bluetooth.obj
 0001:00004e80       ?BthIoControl@@YAHK@Z      00015e80 f   Bluetooth.obj
 0001:00004ed8       ?BT_TurnOn@@YAHXZ          00015ed8 f   Bluetooth.obj
 0001:00004f1c       ?BT_TurnOff@@YAHXZ         00015f1c f   Bluetooth.obj
 0001:00004f5c       ?FM_Init@@YAHXZ            00015f5c f   FM.obj
 0001:00004f64       ?FM_GetStatus@@YAHXZ       00015f64 f   FM.obj
 0001:00004f6c       ?FM_TurnOn@@YAHXZ          00015f6c f   FM.obj
 0001:00004f74       ?FM_TurnOff@@YAHXZ         00015f74 f   FM.obj
 0001:00004f7c       ?FM_DeInit@@YAHXZ          00015f7c f   FM.obj
 0001:00004f8c       ?WL_Init@@YAHXZ            00015f8c f   Wifi.obj
 0001:00005008       ?WL_GetStatus@@YAHXZ       00016008 f   Wifi.obj
 0001:000050a8       ?WL_DeInit@@YAHXZ          000160a8 f   Wifi.obj
 0001:000050d0       ?DoNdisIOControl@@YAHKPAXK0PAK@Z 000160d0 f   Wifi.obj
 0001:00005178       ?WL_GetMACAddress@@YAHPAGK@Z 00016178 f   Wifi.obj
 0001:00005238       ?WL_SetMACAddress@@YAHPBG@Z 00016238 f   Wifi.obj
 0001:00005408       ?WL_RoamingEnable@@YAHXZ   00016408 f   Wifi.obj
 0001:00005460       ?WL_RoamingDisable@@YAHXZ  00016460 f   Wifi.obj
 0001:000054b8       ?WL_RoamingSetLowPassFilter@@YAHI@Z 000164b8 f   Wifi.obj
 0001:00005510       ?WL_RoamingSetQualityThreshold@@YAHI@Z 00016510 f   Wifi.obj
 0001:00005568       ?WL_RoamingSetDataRetryThreshold@@YAHI@Z 00016568 f   Wifi.obj
 0001:000055c0       ?WL_RoamingSetExpectedTbttForBssLoss@@YAHI@Z 000165c0 f   Wifi.obj
 0001:00005618       ?WL_RoamingSetTxRateThreshold@@YAHI@Z 00016618 f   Wifi.obj
 0001:00005670       ?WL_RoamingSetLowRssiThreshold@@YAHI@Z 00016670 f   Wifi.obj
 0001:000056c8       ?WL_RoamingSetLowSnrThreshold@@YAHI@Z 000166c8 f   Wifi.obj
 0001:00005720       ?WL_RoamingSetLowQualityForBackgroundScan@@YAHI@Z 00016720 f   Wifi.obj
 0001:00005778       ?WL_RoamingSetNormalQualityForBackgroundScan@@YAHI@Z 00016778 f   Wifi.obj
 0001:000057d0       ?WL_GetASGlobalParameters@@YAXPAUAS_Global_t@@@Z 000167d0 f   Wifi.obj
 0001:00005828       ?WL_SetASGlobalParameters@@YAHPBUAS_Global_t@@@Z 00016828 f   Wifi.obj
 0001:000058ac       ?WL_GetASChannelParameters@@YAHEPAUAS_Channel_t@@@Z 000168ac f   Wifi.obj
 0001:00005944       ?WL_SetASChannelParameters@@YAHPBUAS_Channel_t@@@Z 00016944 f   Wifi.obj
 0001:00005a14       ?WL_GetGlobalParameters@@YAXPAUConf_Global_t@@@Z 00016a14 f   Wifi.obj
 0001:00005a58       ?WL_SetGlobalParameters@@YAXPBUConf_Global_t@@@Z 00016a58 f   Wifi.obj
 0001:00005a9c       ?WL_GetDTIChannelParameters@@YAXEPAUDTI_Channel_t@@@Z 00016a9c f   Wifi.obj
 0001:00005b18       ?WL_SetDTIChannelParameters@@YAHPBUDTI_Channel_t@@@Z 00016b18 f   Wifi.obj
 0001:00005bb8       ?WL_SetScanAppImmScanParameters@@YAHPAUTScanAppData@@@Z 00016bb8 f   Wifi.obj
 0001:00005c84       ?WL_SetScanAppTrackParameters@@YAHPAUTScanAppData@@@Z 00016c84 f   Wifi.obj
 0001:00005d50       ?WL_SetScanAppDiscParameters@@YAHPAUTScanAppData@@@Z 00016d50 f   Wifi.obj
 0001:00005e1c       ?WL_GetScanAppImmScanParameters@@YAHIPAUTScanAppData@@@Z 00016e1c f   Wifi.obj
 0001:00005ef0       ?WL_GetScanAppTrackParameters@@YAHIPAUTScanAppData@@@Z 00016ef0 f   Wifi.obj
 0001:00005fc4       ?WL_StartScan@@YAXXZ       00016fc4 f   Wifi.obj
 0001:00005fe8       ?WL_StopScan@@YAXXZ        00016fe8 f   Wifi.obj
 0001:0000600c       ?WL_GetScanAppDiscParameters@@YAHIPAUTScanAppData@@@Z 0001700c f   Wifi.obj
 0001:000060e0       ?WL_GetRoamingStatus@@YAHAAH@Z 000170e0 f   Wifi.obj
 0001:00006140       ?WL_GetRoamingParameters@@YAHAAUroamingMngrConfigParams_t@@@Z 00017140 f   Wifi.obj
 0001:0000619c       ?WL_SetRoamingParameters@@YAXUroamingMngrConfigParams_t@@@Z 0001719c f   Wifi.obj
 0001:000061f8       g_tester_send_event        000171f8 f   Wifi.obj
 0001:00006204       ?WL_TurnOn@@YAHXZ          00017204 f   Wifi.obj
 0001:00006360       ?WL_TurnOff@@YAHXZ         00017360 f   Wifi.obj
 0001:000064c0       ?WL_BIPCalibration@@YAHHHHHHHHH@Z 000174c0 f   Wifi.obj
 0001:00006994       ??0CBIN2REG@@QAA@XZ        00017994 f   BIN2REG.obj
 0001:000069a8       ??1CBIN2REG@@UAA@XZ        000179a8 f   BIN2REG.obj
 0001:000069c0       ?BufferToReg@CBIN2REG@@QAAJPAEKPAG1K@Z 000179c0 f   BIN2REG.obj
 0001:00006b5c       ??_GCBIN2REG@@UAAPAXI@Z    00017b5c f i BIN2REG.obj
 0001:00006b5c       ??_ECBIN2REG@@UAAPAXI@Z    00017b5c f i BIN2REG.obj
 0001:00006b84       ?BinFileToReg@CBIN2REG@@QAAJPBG0@Z 00017b84 f   BIN2REG.obj
 0001:00006c88       ??0CREG2BIN@@QAA@XZ        00017c88 f   REG2BIN.obj
 0001:00006c8c       ??1CREG2BIN@@QAA@XZ        00017c8c f   REG2BIN.obj
 0001:00006c98       ?RegToBuffer@CREG2BIN@@QAAJPAG0AAPAEPAK@Z 00017c98 f   REG2BIN.obj
 0001:00006e70       ?RegToFile@CREG2BIN@@QAAJPAG0@Z 00017e70 f   REG2BIN.obj
 0001:00006f44       ?DTIC_SaveDTIChannelData@@YAXPAUHWND__@@@Z 00017f44 f   DTI_Channel.obj
 0001:00007008       ?DTIC_LoadDTIChannelData@@YAXPAUHWND__@@@Z 00018008 f   DTI_Channel.obj
 0001:00007214       ?MISCWndProc@@YAHPAUHWND__@@IIJ@Z 00018214 f   DTI_Channel.obj
 0001:000076ec       ?DTIM_SaveDTIModeData@@YAXPAUHWND__@@PAUTScanAppData@@@Z 000186ec f   DTI_Modes.obj
 0001:00007840       ?DTIM_LoadDTIModeData@@YAXPAUHWND__@@PAUTScanAppData@@H@Z 00018840 f   DTI_Modes.obj
 0001:00007a18       ?ScanWndProc@@YAHPAUHWND__@@IIJ@Z 00018a18 f   DTI_Modes.obj
 0001:00008284       ?ASG_GetNumberOfChannels@@YAEXZ 00019284 f   AS_Global.obj
 0001:00008294       ?ASG_SaveASGlobalData@@YAXPAUHWND__@@@Z 00019294 f   AS_Global.obj
 0001:00008380       ?ASG_LoadASGlobalData@@YAXPAUHWND__@@@Z 00019380 f   AS_Global.obj
 0001:00008444       ?ASGWndProc@@YAHPAUHWND__@@IIJ@Z 00019444 f   AS_Global.obj
 0001:000087dc       ?ASC_SaveChannelData@@YAHPAUHWND__@@@Z 000197dc f   AS_Channel.obj
 0001:000089e4       ?ASC_LoadChannelData@@YAXPAUHWND__@@@Z 000199e4 f   AS_Channel.obj
 0001:00008b6c       ?ASCWndProc@@YAHPAUHWND__@@IIJ@Z 00019b6c f   AS_Channel.obj
 0001:00008fd4       ?CG_LoadGlobalData@@YAXPAUHWND__@@@Z 00019fd4 f   Conf_Global.obj
 0001:00009064       ?CG_SaveGlobalData@@YAXPAUHWND__@@@Z 0001a064 f   Conf_Global.obj
 0001:00009120       ?GLOBALWndProc@@YAHPAUHWND__@@IIJ@Z 0001a120 f   Conf_Global.obj
 0001:000093d4       ?SaveRoamingData@@YAXPAUHWND__@@@Z 0001a3d4 f   Roaming.obj
 0001:000094e4       ?LoadRoamingData@@YAXPAUHWND__@@@Z 0001a4e4 f   Roaming.obj
 0001:000095b0       ?RoamingWndProc@@YAHPAUHWND__@@IIJ@Z 0001a5b0 f   Roaming.obj
 0001:000096a0       SendDlgItemMessageW        0001a6a0 f   coredll:COREDLL.dll
 0001:000096b0       EndDialog                  0001a6b0 f   coredll:COREDLL.dll
 0001:000096c0       SetDlgItemTextW            0001a6c0 f   coredll:COREDLL.dll
 0001:000096d0       MessageBoxW                0001a6d0 f   coredll:COREDLL.dll
 0001:000096e0       GetDlgItemTextW            0001a6e0 f   coredll:COREDLL.dll
 0001:000096f0       DialogBoxIndirectParamW    0001a6f0 f   coredll:COREDLL.dll
 0001:00009700       LoadResource               0001a700 f   coredll:COREDLL.dll
 0001:00009710       FindResourceW              0001a710 f   coredll:COREDLL.dll
 0001:00009720       ShowWindow                 0001a720 f   coredll:COREDLL.dll
 0001:00009730       GetDlgItem                 0001a730 f   coredll:COREDLL.dll
 0001:00009740       SetWindowTextW             0001a740 f   coredll:COREDLL.dll
 0001:00009750       PostQuitMessage            0001a750 f   coredll:COREDLL.dll
 0001:00009760       NKDbgPrintfW               0001a760 f   coredll:COREDLL.dll
 0001:00009770       DestroyWindow              0001a770 f   coredll:COREDLL.dll
 0001:00009780       UpdateWindow               0001a780 f   coredll:COREDLL.dll
 0001:00009790       CreateDialogIndirectParamW 0001a790 f   coredll:COREDLL.dll
 0001:000097a0       DispatchMessageW           0001a7a0 f   coredll:COREDLL.dll
 0001:000097b0       TranslateMessage           0001a7b0 f   coredll:COREDLL.dll
 0001:000097c0       IsDialogMessageW           0001a7c0 f   coredll:COREDLL.dll
 0001:000097d0       GetMessageW                0001a7d0 f   coredll:COREDLL.dll
 0001:000097e0       SystemParametersInfoW      0001a7e0 f   coredll:COREDLL.dll
 0001:000097f0       CloseHandle                0001a7f0 f   coredll:COREDLL.dll
 0001:00009800       CreateFileW                0001a800 f   coredll:COREDLL.dll
 0001:00009810       DeviceIoControl            0001a810 f   coredll:COREDLL.dll
 0001:00009820       Sleep                      0001a820 f   coredll:COREDLL.dll
 0001:00009830       GetLastError               0001a830 f   coredll:COREDLL.dll
 0001:00009840       LocalFree                  0001a840 f   coredll:COREDLL.dll
 0001:00009850       wsprintfW                  0001a850 f   coredll:COREDLL.dll
 0001:00009860       StringCchCopyW             0001a860 f   coredll:COREDLL.dll
 0001:00009870       SetDevicePower             0001a870 f   coredll:COREDLL.dll
 0001:00009880       DeleteFileW                0001a880 f   coredll:COREDLL.dll
 0001:00009890       WriteFile                  0001a890 f   coredll:COREDLL.dll
 0001:000098a0       ReadFile                   0001a8a0 f   coredll:COREDLL.dll
 0001:000098b0       LocalAlloc                 0001a8b0 f   coredll:COREDLL.dll
 0001:000098c0       GetFileSize                0001a8c0 f   coredll:COREDLL.dll
 0001:000098d0       RegCloseKey                0001a8d0 f   coredll:COREDLL.dll
 0001:000098e0       RegFlushKey                0001a8e0 f   coredll:COREDLL.dll
 0001:000098f0       RegSetValueExW             0001a8f0 f   coredll:COREDLL.dll
 0001:00009900       RegCreateKeyExW            0001a900 f   coredll:COREDLL.dll
 0001:00009910       RegOpenKeyExW              0001a910 f   coredll:COREDLL.dll
 0001:00009920       RegQueryValueExW           0001a920 f   coredll:COREDLL.dll
 0001:00009930       GetDlgItemInt              0001a930 f   coredll:COREDLL.dll
 0001:00009940       SetDlgItemInt              0001a940 f   coredll:COREDLL.dll
 0001:00009950       SendMessageW               0001a950 f   coredll:COREDLL.dll
 0001:00009960       SetFocus                   0001a960 f   coredll:COREDLL.dll
 0001:00009970       GetAdaptersAddresses       0001a970 f   Iphlpapi:iphlpapi.dll
 0001:00009980       WSAStartup                 0001a980 f   ws2:WS2.dll
 0001:00009990       WSACleanup                 0001a990 f   ws2:WS2.dll
 0001:000099a0       BthNsLookupServiceEnd      0001a9a0 f   Btdrt:BTDRT.dll
 0001:000099b0       BthNsLookupServiceNext     0001a9b0 f   Btdrt:BTDRT.dll
 0001:000099c0       BthNsLookupServiceBegin    0001a9c0 f   Btdrt:BTDRT.dll
 0001:00009a50       WinMainCRTStartup          0001aa50 f   corelib0:pegwmain.obj
 0001:00009a84       __GSHandlerCheckCommon     0001aa84 f   corelib0:gshandler.obj
 0001:00009ac0       __GSHandlerCheck           0001aac0 f   corelib0:gshandler.obj
 0001:00009ae4       __security_init_cookie     0001aae4 f   corelib0:seccinit.obj
 0001:00009b40       __security_check_cookie    0001ab40 f   corelib0:armsecgs.obj
 0001:00009b54       __gsfailure                0001ab54 f   corelib0:armsecgs.obj
 0001:00009c94       exit                       0001ac94 f   corelib0:cexit.obj
 0001:00009cac       _exit                      0001acac f   corelib0:cexit.obj
 0001:00009cec       _initterm                  0001acec f   corelib0:crt0dat.obj
 0001:00009d20       _cinit                     0001ad20 f   corelib0:crt0dat.obj
 0001:00009d54       memset                     0001ad54 f   corelib1:COREDLL.dll
 0001:00009d64       wcslen                     0001ad64 f   corelib1:COREDLL.dll
 0001:00009d74       malloc                     0001ad74 f   corelib1:COREDLL.dll
 0001:00009d84       strncmp                    0001ad84 f   corelib1:COREDLL.dll
 0001:00009d94       swscanf                    0001ad94 f   corelib1:COREDLL.dll
 0001:00009da4       mbstowcs                   0001ada4 f   corelib1:COREDLL.dll
 0001:00009db4       wcstombs                   0001adb4 f   corelib1:COREDLL.dll
 0001:00009dc4       strlen                     0001adc4 f   corelib1:COREDLL.dll
 0001:00009dd4       memcpy                     0001add4 f   corelib1:COREDLL.dll
 0001:00009de4       _snwprintf                 0001ade4 f   corelib1:COREDLL.dll
 0001:00009df4       wprintf                    0001adf4 f   corelib1:COREDLL.dll
 0001:00009e04       __rt_udiv                  0001ae04 f   corelib1:COREDLL.dll
 0001:00009e14       ??3@YAXPAX@Z               0001ae14 f   corelib1:COREDLL.dll
 0001:00009e24       _itow                      0001ae24 f   corelib1:COREDLL.dll
 0001:00009e34       _XcptFilter                0001ae34 f   corelib1:COREDLL.dll
 0001:00009e44       __C_specific_handler       0001ae44 f   corelib1:COREDLL.dll
 0001:00009e54       __security_gen_cookie2     0001ae54 f   corelib1:COREDLL.dll
 0001:00009e64       __report_gsfailure         0001ae64 f   corelib1:COREDLL.dll
 0001:00009e74       free                       0001ae74 f   corelib1:COREDLL.dll
 0001:0000a098       CuCmd_Destroy              0001b098 f   cu_common:cu_cmd.obj
 0001:0000a0e0       CuCmd_StartScan            0001b0e0 f   cu_common:cu_cmd.obj
 0001:0000a11c       CuCmd_StopScan             0001b11c f   cu_common:cu_cmd.obj
 0001:0000a154       CuCmd_RoamingEnable        0001b154 f   cu_common:cu_cmd.obj
 0001:0000a1bc       CuCmd_RoamingDisable       0001b1bc f   cu_common:cu_cmd.obj
 0001:0000a224       CuCmd_RoamingLowPassFilter 0001b224 f   cu_common:cu_cmd.obj
 0001:0000a2a4       CuCmd_RoamingQualityIndicator 0001b2a4 f   cu_common:cu_cmd.obj
 0001:0000a324       CuCmd_RoamingDataRetryThreshold 0001b324 f   cu_common:cu_cmd.obj
 0001:0000a3a4       CuCmd_RoamingNumExpectedTbttForBSSLoss 0001b3a4 f   cu_common:cu_cmd.obj
 0001:0000a424       CuCmd_RoamingTxRateThreshold 0001b424 f   cu_common:cu_cmd.obj
 0001:0000a4a4       CuCmd_RoamingLowRssiThreshold 0001b4a4 f   cu_common:cu_cmd.obj
 0001:0000a524       CuCmd_RoamingLowSnrThreshold 0001b524 f   cu_common:cu_cmd.obj
 0001:0000a5a4       CuCmd_RoamingLowQualityForBackgroungScanCondition 0001b5a4 f   cu_common:cu_cmd.obj
 0001:0000a624       CuCmd_RoamingNormalQualityForBackgroungScanCondition 0001b624 f   cu_common:cu_cmd.obj
 0001:0000a6a4       CuCmd_SetPowerMode         0001b6a4 f   cu_common:cu_cmd.obj
 0001:0000a7a8       CuCmd_SetPowerSavePowerLevel 0001b7a8 f   cu_common:cu_cmd.obj
 0001:0000a8c4       CuCmd_SetDefaultPowerLevel 0001b8c4 f   cu_common:cu_cmd.obj
 0001:0000a9e8       CuCmd_RadioDebug_ChannelTune 0001b9e8 f   cu_common:cu_cmd.obj
 0001:0000aaec       nvsFillMACAddress          0001baec f   cu_common:cu_cmd.obj
 0001:0000ad28       nvsReadFile                0001bd28 f   cu_common:cu_cmd.obj
 0001:0000ada8       nvsParsePreviosOne         0001bda8 f   cu_common:cu_cmd.obj
 0001:0000aedc       nvsFillOldRxParams         0001bedc f   cu_common:cu_cmd.obj
 0001:0000af7c       nvsFillTXParams            0001bf7c f   cu_common:cu_cmd.obj
 0001:0000b01c       nvsFillDefaultRXParams     0001c01c f   cu_common:cu_cmd.obj
 0001:0000b0ac       nvsFillOldTXParams         0001c0ac f   cu_common:cu_cmd.obj
 0001:0000b144       nvsFillDefaultTXParams     0001c144 f   cu_common:cu_cmd.obj
 0001:0000b234       nvsFillRXParams            0001c234 f   cu_common:cu_cmd.obj
 0001:0000b2d4       nvsFillVersion             0001c2d4 f   cu_common:cu_cmd.obj
 0001:0000b394       nvsWriteEndNVS             0001c394 f   cu_common:cu_cmd.obj
 0001:0000b408       nvsUpdateFile              0001c408 f   cu_common:cu_cmd.obj
 0001:0000b658       CuCmd_BIP_BufferCalReferencePoint 0001c658 f   cu_common:cu_cmd.obj
 0001:0000b720       CuCmd_BIP_StartBIP         0001c720 f   cu_common:cu_cmd.obj
 0001:0000b83c       CuCmd_Create               0001c83c f   cu_common:cu_cmd.obj
 0001:0000b8f8       CuCommon_Destroy           0001c8f8 f   cu_common:cu_common.obj
 0001:0000b920       CuCommon_SetU32            0001c920 f   cu_common:cu_common.obj
 0001:0000b964       CuCommon_GetU32            0001c964 f   cu_common:cu_common.obj
 0001:0000b9a4       CuCommon_SetBuffer         0001c9a4 f   cu_common:cu_common.obj
 0001:0000b9d8       CuCommon_GetBuffer         0001c9d8 f   cu_common:cu_common.obj
 0001:0000ba18       CuCommon_Radio_Test        0001ca18 f   cu_common:cu_common.obj
 0001:0000ba78       CuCommon_Create            0001ca78 f   cu_common:cu_common.obj
 0001:0000bae4       DeleteCriticalSection      0001cae4 f   coredll:COREDLL.dll
 0001:0000baf4       InterlockedExchange        0001caf4 f   coredll:COREDLL.dll
 0001:0000bb04       TerminateProcess           0001cb04 f   coredll:COREDLL.dll
 0001:0000bb14       feof                       0001cb14 f   corelib1:COREDLL.dll
 0001:0000bb24       fwrite                     0001cb24 f   corelib1:COREDLL.dll
 0001:0000bb3c       os_error_printf            0001cb3c f   osapi_um:osapi.obj
 0001:0000bba4       os_Printf                  0001cba4 f   osapi_um:osapi.obj
 0001:0000bbb4       os_MemoryCAlloc            0001cbb4 f   osapi_um:osapi.obj
 0001:0000bbc4       os_MemoryFree              0001cbc4 f   osapi_um:osapi.obj
 0001:0000bbd4       os_memset                  0001cbd4 f   osapi_um:osapi.obj
 0001:0000bbe4       os_fopen                   0001cbe4 f   osapi_um:osapi.obj
 0001:0000bc48       os_fread                   0001cc48 f   osapi_um:osapi.obj
 0001:0000bc58       os_fwrite                  0001cc58 f   osapi_um:osapi.obj
 0001:0000bc68       os_fclose                  0001cc68 f   osapi_um:osapi.obj
 0001:0000bd98       IpcEvent_Handle_Event      0001cd98 f   osapi_um:ipc_event.obj
 0001:0000c22c       IpcEvent_Create            0001d22c f   osapi_um:ipc_event.obj
 0001:0000c420       IpcEvent_Destroy           0001d420 f   osapi_um:ipc_event.obj
 0001:0000c488       CuOs_Create                0001d488 f   osapi_um:cu_os.obj
 0001:0000c490       CuOs_Destroy               0001d490 f   osapi_um:cu_os.obj
 0001:0000c494       IpcSta_Create              0001d494 f   osapi_um:ipc_sta.obj
 0001:0000c49c       IpcSta_Destroy             0001d49c f   osapi_um:ipc_sta.obj
 0001:0000c4a0       IPC_STA_Private_Send       0001d4a0 f   osapi_um:ipc_sta.obj
 0001:0000c660       CreateThread               0001d660 f   coredll:COREDLL.dll
 0001:0000c670       TerminateThread            0001d670 f   coredll:COREDLL.dll
 0001:0000c680       SetLastError               0001d680 f   coredll:COREDLL.dll
 0001:0000c690       recvfrom                   0001d690 f   ws2:WS2.dll
 0001:0000c6a0       closesocket                0001d6a0 f   ws2:WS2.dll
 0001:0000c6b0       bind                       0001d6b0 f   ws2:WS2.dll
 0001:0000c6c0       htons                      0001d6c0 f   ws2:WS2.dll
 0001:0000c6d0       htonl                      0001d6d0 f   ws2:WS2.dll
 0001:0000c6e0       socket                     0001d6e0 f   ws2:WS2.dll
 0001:0000c6f0       WSAGetLastError            0001d6f0 f   ws2:WS2.dll
 0001:0000c700       printf                     0001d700 f   corelib1:COREDLL.dll
 0001:0000c710       fprintf                    0001d710 f   corelib1:COREDLL.dll
 0001:0000c720       _getstdfilex               0001d720 f   corelib1:COREDLL.dll
 0001:0000c730       vsprintf                   0001d730 f   corelib1:COREDLL.dll
 0001:0000c740       calloc                     0001d740 f   corelib1:COREDLL.dll
 0001:0000c750       fopen                      0001d750 f   corelib1:COREDLL.dll
 0001:0000c760       fread                      0001d760 f   corelib1:COREDLL.dll
 0001:0000c770       fclose                     0001d770 f   corelib1:COREDLL.dll
 0001:0000c7ec       __IMPORT_DESCRIPTOR_COREDLL 0001d7ec     coredll:COREDLL.dll
 0001:0000c800       __IMPORT_DESCRIPTOR_iphlpapi 0001d800     Iphlpapi:iphlpapi.dll
 0001:0000c814       __IMPORT_DESCRIPTOR_WS2    0001d814     ws2:WS2.dll
 0001:0000c828       __IMPORT_DESCRIPTOR_BTDRT  0001d828     Btdrt:BTDRT.dll
 0001:0000c83c       __NULL_IMPORT_DESCRIPTOR   0001d83c     coredll:COREDLL.dll
 0002:00000000       __imp_BthNsLookupServiceNext 0001e000     Btdrt:BTDRT.dll
 0002:00000004       __imp_BthNsLookupServiceEnd 0001e004     Btdrt:BTDRT.dll
 0002:00000008       __imp_BthNsLookupServiceBegin 0001e008     Btdrt:BTDRT.dll
 0002:0000000c       \177BTDRT_NULL_THUNK_DATA  0001e00c     Btdrt:BTDRT.dll
 0002:00000010       __imp_GetDlgItemTextW      0001e010     coredll:COREDLL.dll
 0002:00000014       __imp_DialogBoxIndirectParamW 0001e014     coredll:COREDLL.dll
 0002:00000018       __imp_LoadResource         0001e018     coredll:COREDLL.dll
 0002:0000001c       __imp_FindResourceW        0001e01c     coredll:COREDLL.dll
 0002:00000020       __imp_ShowWindow           0001e020     coredll:COREDLL.dll
 0002:00000024       __imp_GetDlgItem           0001e024     coredll:COREDLL.dll
 0002:00000028       __imp_SetWindowTextW       0001e028     coredll:COREDLL.dll
 0002:0000002c       __imp_PostQuitMessage      0001e02c     coredll:COREDLL.dll
 0002:00000030       __imp_NKDbgPrintfW         0001e030     coredll:COREDLL.dll
 0002:00000034       __imp_DestroyWindow        0001e034     coredll:COREDLL.dll
 0002:00000038       __imp_UpdateWindow         0001e038     coredll:COREDLL.dll
 0002:0000003c       __imp_CreateDialogIndirectParamW 0001e03c     coredll:COREDLL.dll
 0002:00000040       __imp_DispatchMessageW     0001e040     coredll:COREDLL.dll
 0002:00000044       __imp_TranslateMessage     0001e044     coredll:COREDLL.dll
 0002:00000048       __imp_IsDialogMessageW     0001e048     coredll:COREDLL.dll
 0002:0000004c       __imp_GetMessageW          0001e04c     coredll:COREDLL.dll
 0002:00000050       __imp_SystemParametersInfoW 0001e050     coredll:COREDLL.dll
 0002:00000054       __imp_CloseHandle          0001e054     coredll:COREDLL.dll
 0002:00000058       __imp_CreateFileW          0001e058     coredll:COREDLL.dll
 0002:0000005c       __imp_DeviceIoControl      0001e05c     coredll:COREDLL.dll
 0002:00000060       __imp_Sleep                0001e060     coredll:COREDLL.dll
 0002:00000064       __imp_GetLastError         0001e064     coredll:COREDLL.dll
 0002:00000068       __imp_LocalFree            0001e068     coredll:COREDLL.dll
 0002:0000006c       __imp_MessageBoxW          0001e06c     coredll:COREDLL.dll
 0002:00000070       __imp_StringCchCopyW       0001e070     coredll:COREDLL.dll
 0002:00000074       __imp_SetDevicePower       0001e074     coredll:COREDLL.dll
 0002:00000078       __imp_DeleteFileW          0001e078     coredll:COREDLL.dll
 0002:0000007c       __imp_WriteFile            0001e07c     coredll:COREDLL.dll
 0002:00000080       __imp_ReadFile             0001e080     coredll:COREDLL.dll
 0002:00000084       __imp_LocalAlloc           0001e084     coredll:COREDLL.dll
 0002:00000088       __imp_GetFileSize          0001e088     coredll:COREDLL.dll
 0002:0000008c       __imp_RegCloseKey          0001e08c     coredll:COREDLL.dll
 0002:00000090       __imp_RegFlushKey          0001e090     coredll:COREDLL.dll
 0002:00000094       __imp_RegSetValueExW       0001e094     coredll:COREDLL.dll
 0002:00000098       __imp_RegCreateKeyExW      0001e098     coredll:COREDLL.dll
 0002:0000009c       __imp_RegOpenKeyExW        0001e09c     coredll:COREDLL.dll
 0002:000000a0       __imp_RegQueryValueExW     0001e0a0     coredll:COREDLL.dll
 0002:000000a4       __imp_GetDlgItemInt        0001e0a4     coredll:COREDLL.dll
 0002:000000a8       __imp_SetDlgItemInt        0001e0a8     coredll:COREDLL.dll
 0002:000000ac       __imp_SendMessageW         0001e0ac     coredll:COREDLL.dll
 0002:000000b0       __imp_SetFocus             0001e0b0     coredll:COREDLL.dll
 0002:000000b4       __imp_fread                0001e0b4     corelib1:COREDLL.dll
 0002:000000b8       __imp_fopen                0001e0b8     corelib1:COREDLL.dll
 0002:000000bc       __imp_SetDlgItemTextW      0001e0bc     coredll:COREDLL.dll
 0002:000000c0       __imp_EndDialog            0001e0c0     coredll:COREDLL.dll
 0002:000000c4       __imp_wsprintfW            0001e0c4     coredll:COREDLL.dll
 0002:000000c8       __imp_SendDlgItemMessageW  0001e0c8     coredll:COREDLL.dll
 0002:000000cc       __imp_memset               0001e0cc     corelib1:COREDLL.dll
 0002:000000d0       __imp_wcslen               0001e0d0     corelib1:COREDLL.dll
 0002:000000d4       __imp_malloc               0001e0d4     corelib1:COREDLL.dll
 0002:000000d8       __imp_strncmp              0001e0d8     corelib1:COREDLL.dll
 0002:000000dc       __imp_swscanf              0001e0dc     corelib1:COREDLL.dll
 0002:000000e0       __imp_mbstowcs             0001e0e0     corelib1:COREDLL.dll
 0002:000000e4       __imp_wcstombs             0001e0e4     corelib1:COREDLL.dll
 0002:000000e8       __imp_strlen               0001e0e8     corelib1:COREDLL.dll
 0002:000000ec       __imp_memcpy               0001e0ec     corelib1:COREDLL.dll
 0002:000000f0       __imp__snwprintf           0001e0f0     corelib1:COREDLL.dll
 0002:000000f4       __imp_wprintf              0001e0f4     corelib1:COREDLL.dll
 0002:000000f8       __imp___rt_udiv            0001e0f8     corelib1:COREDLL.dll
 0002:000000fc       __imp_??3@YAXPAX@Z         0001e0fc     corelib1:COREDLL.dll
 0002:00000100       __imp__itow                0001e100     corelib1:COREDLL.dll
 0002:00000104       __imp__XcptFilter          0001e104     corelib1:COREDLL.dll
 0002:00000108       __imp___C_specific_handler 0001e108     corelib1:COREDLL.dll
 0002:0000010c       __imp___security_gen_cookie2 0001e10c     corelib1:COREDLL.dll
 0002:00000110       __imp___report_gsfailure   0001e110     corelib1:COREDLL.dll
 0002:00000114       __imp_free                 0001e114     corelib1:COREDLL.dll
 0002:00000118       __imp_DeleteCriticalSection 0001e118     coredll:COREDLL.dll
 0002:0000011c       __imp_InterlockedExchange  0001e11c     coredll:COREDLL.dll
 0002:00000120       __imp_TerminateProcess     0001e120     coredll:COREDLL.dll
 0002:00000124       __imp_feof                 0001e124     corelib1:COREDLL.dll
 0002:00000128       __imp_fwrite               0001e128     corelib1:COREDLL.dll
 0002:0000012c       __imp_CreateThread         0001e12c     coredll:COREDLL.dll
 0002:00000130       __imp_TerminateThread      0001e130     coredll:COREDLL.dll
 0002:00000134       __imp_SetLastError         0001e134     coredll:COREDLL.dll
 0002:00000138       __imp_printf               0001e138     corelib1:COREDLL.dll
 0002:0000013c       __imp_fprintf              0001e13c     corelib1:COREDLL.dll
 0002:00000140       __imp__getstdfilex         0001e140     corelib1:COREDLL.dll
 0002:00000144       __imp_vsprintf             0001e144     corelib1:COREDLL.dll
 0002:00000148       __imp_calloc               0001e148     corelib1:COREDLL.dll
 0002:0000014c       __imp_fclose               0001e14c     corelib1:COREDLL.dll
 0002:00000150       \177COREDLL_NULL_THUNK_DATA 0001e150     coredll:COREDLL.dll
 0002:00000154       __imp_socket               0001e154     ws2:WS2.dll
 0002:00000158       __imp_htonl                0001e158     ws2:WS2.dll
 0002:0000015c       __imp_htons                0001e15c     ws2:WS2.dll
 0002:00000160       __imp_bind                 0001e160     ws2:WS2.dll
 0002:00000164       __imp_closesocket          0001e164     ws2:WS2.dll
 0002:00000168       __imp_recvfrom             0001e168     ws2:WS2.dll
 0002:0000016c       __imp_WSACleanup           0001e16c     ws2:WS2.dll
 0002:00000170       __imp_WSAStartup           0001e170     ws2:WS2.dll
 0002:00000174       __imp_WSAGetLastError      0001e174     ws2:WS2.dll
 0002:00000178       \177WS2_NULL_THUNK_DATA    0001e178     ws2:WS2.dll
 0002:0000017c       __imp_GetAdaptersAddresses 0001e17c     Iphlpapi:iphlpapi.dll
 0002:00000180       \177iphlpapi_NULL_THUNK_DATA 0001e180     Iphlpapi:iphlpapi.dll
 0002:00000188       ?DevTab@@3PAUDevice@@A     0001e188     WL1271_Manager_App.obj
 0002:000001f8       __security_cookie          0001e1f8     corelib0:seccinit.obj
 0002:000001fc       __security_cookie_complement 0001e1fc     corelib0:seccinit.obj
 0002:00000200       ChanFreq                   0001e200     cu_common:cu_cmd.obj
 0002:00000b58       ?v_hNotifyIcon@@3PAUHICON__@@A 0001eb58     WL1271_Manager_App.obj
 0002:00000b60       ?v_hWnd@@3PAUHWND__@@A     0001eb60     WL1271_Manager_App.obj
 0002:00000b64       ?v_fPaletteChanged@@3HA    0001eb64     WL1271_Manager_App.obj
 0002:00000b68       ?v_hInst@@3PAUHINSTANCE__@@A 0001eb68     WL1271_Manager_App.obj
 0002:00000b6c       ?dwTotal@@3KA              0001eb6c     WL1271_Manager_App.obj
 0002:00000b70       ?v_hHelpWnd@@3PAUHWND__@@A 0001eb70     WL1271_Manager_App.obj
 0002:00000b78       ?dwSkip@@3KA               0001eb78     WL1271_Manager_App.obj
 0002:00000eae       _exitflag                  0001eeae     corelib0:cexit.obj
 0002:000014c4       __onexitend                0001f4c4     <common>
 0002:000014c8       __onexitbegin              0001f4c8     <common>
 0002:000014cc       g_pcsExit                  0001f4cc     <common>
 0002:000014d0       EventsPort                 0001f4d0     <common>

 entry point at        0001:00009a50

 Static symbols

 0001:000099d8       WinMainCRTStartupHelper    0001a9d8 f   corelib0:pegwmain.obj
 0001:00009b98       doexit                     0001ab98 f   corelib0:cexit.obj
 0001:00009e84       CuCmd_Init_Scan_Params     0001ae84 f   cu_common:cu_cmd.obj
 0001:0000bc78       IpcProcessEventDisassosiated 0001cc78 f   osapi_um:ipc_event.obj
 0001:0000c17c       EventsThreadFunc           0001d17c f   osapi_um:ipc_event.obj
