; Listing generated by Microsoft (R) Optimizing Compiler Version 14.01.60511.01 

	TTL	C:\WINCE600\PLATFORM\COMMON\SRC\SOC\COMMON_TI_V1\AM3517\SOCCFG\soccfg.c
	CODE32

  00000			 AREA	 |.drectve|, DRECTVE
	DCB	"-defaultlib:LIBCMT "
	DCB	"-defaultlib:OLDNAMES "

	EXPORT	|g_EmacMemLayout| [ DATA ]

  00000			 AREA	 |.rdata|, DATA, READONLY
|EdbgVendorIds| DCW 0x0
	DCW	0x0
	DCD	0x4033
	DCB	0x1
	DCB	"AD", 0x0
	DCW	0x1050
	DCW	0x940
	DCD	0x4005
	DCB	0x1
	DCB	"LS", 0x0
	DCW	0x1050
	DCW	0x940
	DCD	0x2078
	DCB	0x1
	DCB	"LS", 0x0
	DCW	0x10ec
	DCW	0x8029
	DCD	0xc0f0
	DCB	0x1
	DCB	"KS", 0x0
	DCW	0x10ec
	DCW	0x8129
	DCD	0x0
	DCB	0x4
	DCB	"RT", 0x0
	DCW	0x10ec
	DCW	0x8139
	DCD	0x900b
	DCB	0x4
	DCB	"RT", 0x0
	DCW	0x10ec
	DCW	0x8139
	DCD	0xd0c9
	DCB	0x4
	DCB	"RT", 0x0
	DCW	0x10ec
	DCW	0x8139
	DCD	0xe04c
	DCB	0x4
	DCB	"RT", 0x0
	DCW	0x1186
	DCW	0x1300
	DCD	0x50ba
	DCB	0x4
	DCB	"DL", 0x0
	DCW	0x100b
	DCW	0x20
	DCD	0xa0cc
	DCB	0x5
	DCB	"NG", 0x0
	DCW	0x10b7
	DCW	0x9050
	DCD	0x6008
	DCB	0x6
	DCB	"3C", 0x0
	DCW	0x10b7
	DCW	0x9200
	DCD	0x476
	DCB	0x6
	DCB	"3C", 0x0
|g_EmacMemLayout| DCD 0x0
	DCD	0x20000
	DCD	0x30000
	DCD	0x10000
	DCD	0x40000
	DCD	0x1e00000
	EXPORT	|SOCGetGPIODeviceByBank|
; File c:\wince600\platform\common\src\soc\common_ti_v1\am3517\soccfg\soccfg.c

  00000			 AREA	 |.pdata|, PDATA
|$T45847| DCD	|$LN14@SOCGetGPIO|
	DCD	0x40001800
; Function compile flags: /Ogspy

  00000			 AREA	 |.text|, CODE, ARM

  00000		 |SOCGetGPIODeviceByBank| PROC

; 22   : {

  00000		 |$LN14@SOCGetGPIO|
  00000		 |$M45844|

; 23   :     switch (index)

  00000	e3500001	 cmp         r0, #1
  00004	0a000013	 beq         |$LN7@SOCGetGPIO|
  00008	e3500002	 cmp         r0, #2
  0000c	0a00000f	 beq         |$LN6@SOCGetGPIO|
  00010	e3500003	 cmp         r0, #3
  00014	0a00000b	 beq         |$LN5@SOCGetGPIO|
  00018	e3500004	 cmp         r0, #4
  0001c	0a000007	 beq         |$LN4@SOCGetGPIO|
  00020	e3500005	 cmp         r0, #5
  00024	0a000003	 beq         |$LN3@SOCGetGPIO|
  00028	e3500006	 cmp         r0, #6

; 31   :     default: return OMAP_DEVICE_NONE;   

  0002c	13e00000	 mvnne       r0, #0

; 30   :     case 6: return OMAP_DEVICE_GPIO6;

  00030	03a00029	 moveq       r0, #0x29

; 32   :     }
; 33   : }

  00034	e12fff1e	 bx          lr
  00038		 |$LN3@SOCGetGPIO|

; 29   :     case 5: return OMAP_DEVICE_GPIO5;

  00038	e3a00028	 mov         r0, #0x28

; 32   :     }
; 33   : }

  0003c	e12fff1e	 bx          lr
  00040		 |$LN4@SOCGetGPIO|

; 28   :     case 4: return OMAP_DEVICE_GPIO4;

  00040	e3a00027	 mov         r0, #0x27

; 32   :     }
; 33   : }

  00044	e12fff1e	 bx          lr
  00048		 |$LN5@SOCGetGPIO|

; 27   :     case 3: return OMAP_DEVICE_GPIO3;

  00048	e3a00026	 mov         r0, #0x26

; 32   :     }
; 33   : }

  0004c	e12fff1e	 bx          lr
  00050		 |$LN6@SOCGetGPIO|

; 26   :     case 2: return OMAP_DEVICE_GPIO2;

  00050	e3a00025	 mov         r0, #0x25

; 32   :     }
; 33   : }

  00054	e12fff1e	 bx          lr
  00058		 |$LN7@SOCGetGPIO|

; 24   :     {
; 25   :     case 1: return OMAP_DEVICE_GPIO1;

  00058	e3a00024	 mov         r0, #0x24

; 32   :     }
; 33   : }

  0005c	e12fff1e	 bx          lr
  00060		 |$M45845|

			 ENDP  ; |SOCGetGPIODeviceByBank|

	EXPORT	|SOCGetSDHCDeviceBySlot|

  00000			 AREA	 |.pdata|, PDATA
|$T45857| DCD	|$LN10@SOCGetSDHC|
	DCD	0x40000800
; Function compile flags: /Ogspy

  00000			 AREA	 |.text|, CODE, ARM

  00000		 |SOCGetSDHCDeviceBySlot| PROC

; 36   : {

  00000		 |$LN10@SOCGetSDHC|
  00000		 |$M45854|

; 37   :     switch (index)

  00000	e3500001	 cmp         r0, #1
  00004	0a000003	 beq         |$LN3@SOCGetSDHC|
  00008	e3500002	 cmp         r0, #2

; 41   :     default: return OMAP_DEVICE_NONE;   

  0000c	13e00000	 mvnne       r0, #0

; 40   :     case 2: return OMAP_DEVICE_MMC2;

  00010	03a00012	 moveq       r0, #0x12

; 42   :     }
; 43   : }

  00014	e12fff1e	 bx          lr
  00018		 |$LN3@SOCGetSDHC|

; 38   :     {
; 39   :     case 1: return OMAP_DEVICE_MMC1;

  00018	e3a00011	 mov         r0, #0x11

; 42   :     }
; 43   : }

  0001c	e12fff1e	 bx          lr
  00020		 |$M45855|

			 ENDP  ; |SOCGetSDHCDeviceBySlot|

	EXPORT	|SOCGetMCSPIDeviceByBus|

  00000			 AREA	 |.pdata|, PDATA
|$T45867| DCD	|$LN11@SOCGetMCSP|
	DCD	0x40001000
; Function compile flags: /Ogspy

  00000			 AREA	 |.text|, CODE, ARM

  00000		 |SOCGetMCSPIDeviceByBus| PROC

; 46   : {

  00000		 |$LN11@SOCGetMCSP|
  00000		 |$M45864|

; 47   : 	switch(index)

  00000	e3500001	 cmp         r0, #1
  00004	0a00000b	 beq         |$LN4@SOCGetMCSP|
  00008	e3500002	 cmp         r0, #2
  0000c	0a000007	 beq         |$LN3@SOCGetMCSP|
  00010	e3500003	 cmp         r0, #3
  00014	0a000003	 beq         |$LN2@SOCGetMCSP|
  00018	e3500004	 cmp         r0, #4

; 53   : 	}
; 54   : 	return OMAP_DEVICE_NONE;

  0001c	13e00000	 mvnne       r0, #0

; 52   : 		case 4:	return OMAP_DEVICE_MCSPI4;

  00020	03a0000f	 moveq       r0, #0xF

; 55   : }

  00024	e12fff1e	 bx          lr
  00028		 |$LN2@SOCGetMCSP|

; 51   : 		case 3:	return OMAP_DEVICE_MCSPI3;

  00028	e3a0000e	 mov         r0, #0xE

; 55   : }

  0002c	e12fff1e	 bx          lr
  00030		 |$LN3@SOCGetMCSP|

; 50   : 		case 2:	return OMAP_DEVICE_MCSPI2;

  00030	e3a0000d	 mov         r0, #0xD

; 55   : }

  00034	e12fff1e	 bx          lr
  00038		 |$LN4@SOCGetMCSP|

; 48   : 	{
; 49   : 		case 1:	return OMAP_DEVICE_MCSPI1;

  00038	e3a0000c	 mov         r0, #0xC

; 55   : }

  0003c	e12fff1e	 bx          lr
  00040		 |$M45865|

			 ENDP  ; |SOCGetMCSPIDeviceByBus|

	EXPORT	|SOCGetMCBSPDeviceByBus|

  00000			 AREA	 |.pdata|, PDATA
|$T45877| DCD	|$LN12@SOCGetMCBS|
	DCD	0x40001400
; Function compile flags: /Ogspy

  00000			 AREA	 |.text|, CODE, ARM

  00000		 |SOCGetMCBSPDeviceByBus| PROC

; 58   : {

  00000		 |$LN12@SOCGetMCBS|
  00000		 |$M45874|

; 59   : 	switch(index)

  00000	e3500001	 cmp         r0, #1
  00004	0a00000f	 beq         |$LN5@SOCGetMCBS|
  00008	e3500002	 cmp         r0, #2
  0000c	0a00000b	 beq         |$LN4@SOCGetMCBS|
  00010	e3500003	 cmp         r0, #3
  00014	0a000007	 beq         |$LN3@SOCGetMCBS|
  00018	e3500004	 cmp         r0, #4
  0001c	0a000003	 beq         |$LN2@SOCGetMCBS|
  00020	e3500005	 cmp         r0, #5

; 66   : 	}
; 67   : 	return OMAP_DEVICE_NONE;

  00024	13e00000	 mvnne       r0, #0

; 65   : 		case 5:	return OMAP_DEVICE_MCBSP5;

  00028	03a00004	 moveq       r0, #4

; 68   : }

  0002c	e12fff1e	 bx          lr
  00030		 |$LN2@SOCGetMCBS|

; 64   : 		case 4:	return OMAP_DEVICE_MCBSP4;

  00030	e3a0002c	 mov         r0, #0x2C

; 68   : }

  00034	e12fff1e	 bx          lr
  00038		 |$LN3@SOCGetMCBS|

; 63   : 		case 3:	return OMAP_DEVICE_MCBSP3;

  00038	e3a0002b	 mov         r0, #0x2B

; 68   : }

  0003c	e12fff1e	 bx          lr
  00040		 |$LN4@SOCGetMCBS|

; 62   : 		case 2:	return OMAP_DEVICE_MCBSP2;

  00040	e3a0002a	 mov         r0, #0x2A

; 68   : }

  00044	e12fff1e	 bx          lr
  00048		 |$LN5@SOCGetMCBS|

; 60   : 	{
; 61   : 		case 1:	return OMAP_DEVICE_MCBSP1;

  00048	e3a00003	 mov         r0, #3

; 68   : }

  0004c	e12fff1e	 bx          lr
  00050		 |$M45875|

			 ENDP  ; |SOCGetMCBSPDeviceByBus|

	EXPORT	|SOCGetMCBSPSidetoneAddress|

  00000			 AREA	 |.pdata|, PDATA
|$T45887| DCD	|$LN10@SOCGetMCBS@2|
	DCD	0x40001000
; Function compile flags: /Ogspy

  00000			 AREA	 |.text|, CODE, ARM

  00000		 |SOCGetMCBSPSidetoneAddress| PROC

; 71   : {

  00000		 |$LN10@SOCGetMCBS@2|
  00000		 |$M45884|

; 72   : 	switch(deviceID)

  00000	e3500003	 cmp         r0, #3
  00004	ba00000b	 blt         |$LN4@SOCGetMCBS@2|
  00008	e3500004	 cmp         r0, #4
  0000c	da000009	 ble         |$LN4@SOCGetMCBS@2|
  00010	e350002a	 cmp         r0, #0x2A
  00014	0a000004	 beq         |$LN3@SOCGetMCBS@2|
  00018	e350002b	 cmp         r0, #0x2B
  0001c	1a000005	 bne         |$LN4@SOCGetMCBS@2|
  00020	e3a03449	 mov         r3, #0x49, 8

; 75   : 	case OMAP_DEVICE_MCBSP3 : return OMAP_MCBSP3_SIDETONE_REGS_PA;

  00024	e3830a2a	 orr         r0, r3, #0x2A, 20

; 81   : }

  00028	e12fff1e	 bx          lr
  0002c		 |$LN3@SOCGetMCBS@2|

; 75   : 	case OMAP_DEVICE_MCBSP3 : return OMAP_MCBSP3_SIDETONE_REGS_PA;

  0002c	e3a03449	 mov         r3, #0x49, 8

; 73   : 	{
; 74   : 	case OMAP_DEVICE_MCBSP2 : return OMAP_MCBSP2_SIDETONE_REGS_PA;

  00030	e383090a	 orr         r0, r3, #0xA, 18

; 81   : }

  00034	e12fff1e	 bx          lr
  00038		 |$LN4@SOCGetMCBS@2|

; 76   : 	case OMAP_DEVICE_MCBSP1 : 
; 77   : 	case OMAP_DEVICE_MCBSP4 : 
; 78   : 	case OMAP_DEVICE_MCBSP5 : return (DWORD)NULL;
; 79   : 	}
; 80   : 	return (DWORD)NULL;

  00038	e3a00000	 mov         r0, #0

; 81   : }

  0003c	e12fff1e	 bx          lr
  00040		 |$M45885|

			 ENDP  ; |SOCGetMCBSPSidetoneAddress|

	EXPORT	|SOCGetI2CDeviceByBus|

  00000			 AREA	 |.pdata|, PDATA
|$T45897| DCD	|$LN10@SOCGetI2CD|
	DCD	0x40000c00
; Function compile flags: /Ogspy

  00000			 AREA	 |.text|, CODE, ARM

  00000		 |SOCGetI2CDeviceByBus| PROC

; 84   : {

  00000		 |$LN10@SOCGetI2CD|
  00000		 |$M45894|

; 85   : 	switch(index)

  00000	e3500001	 cmp         r0, #1
  00004	0a000007	 beq         |$LN3@SOCGetI2CD|
  00008	e3500002	 cmp         r0, #2
  0000c	0a000003	 beq         |$LN2@SOCGetI2CD|
  00010	e3500003	 cmp         r0, #3

; 90   : 	}
; 91   : 	return OMAP_DEVICE_NONE;

  00014	13e00000	 mvnne       r0, #0

; 89   : 		case 3:	return OMAP_DEVICE_I2C3;

  00018	03a0000b	 moveq       r0, #0xB

; 92   : }

  0001c	e12fff1e	 bx          lr
  00020		 |$LN2@SOCGetI2CD|

; 88   : 		case 2:	return OMAP_DEVICE_I2C2;

  00020	e3a0000a	 mov         r0, #0xA

; 92   : }

  00024	e12fff1e	 bx          lr
  00028		 |$LN3@SOCGetI2CD|

; 86   : 	{
; 87   : 		case 1:	return OMAP_DEVICE_I2C1;

  00028	e3a00009	 mov         r0, #9

; 92   : }

  0002c	e12fff1e	 bx          lr
  00030		 |$M45895|

			 ENDP  ; |SOCGetI2CDeviceByBus|

	EXPORT	|SOCGetUartDeviceByIndex|

  00000			 AREA	 |.pdata|, PDATA
|$T45907| DCD	|$LN10@SOCGetUart|
	DCD	0x40000c00
; Function compile flags: /Ogspy

  00000			 AREA	 |.text|, CODE, ARM

  00000		 |SOCGetUartDeviceByIndex| PROC

; 95   : {

  00000		 |$LN10@SOCGetUart|
  00000		 |$M45904|

; 96   : 	switch(index)

  00000	e3500001	 cmp         r0, #1
  00004	0a000007	 beq         |$LN3@SOCGetUart|
  00008	e3500002	 cmp         r0, #2
  0000c	0a000003	 beq         |$LN2@SOCGetUart|
  00010	e3500003	 cmp         r0, #3

; 101  : 	}
; 102  : 	return OMAP_DEVICE_NONE;

  00014	13e00000	 mvnne       r0, #0

; 100  : 		case 3:	return OMAP_DEVICE_UART3;

  00018	03a00035	 moveq       r0, #0x35

; 103  : }

  0001c	e12fff1e	 bx          lr
  00020		 |$LN2@SOCGetUart|

; 99   : 		case 2:	return OMAP_DEVICE_UART2;

  00020	e3a00008	 mov         r0, #8

; 103  : }

  00024	e12fff1e	 bx          lr
  00028		 |$LN3@SOCGetUart|

; 97   : 	{
; 98   : 		case 1:	return OMAP_DEVICE_UART1;

  00028	e3a00007	 mov         r0, #7

; 103  : }

  0002c	e12fff1e	 bx          lr
  00030		 |$M45905|

			 ENDP  ; |SOCGetUartDeviceByIndex|

	EXPORT	|SOCGetGPMCAddress|

  00000			 AREA	 |.pdata|, PDATA
|$T45916| DCD	|$LN5@SOCGetGPMC|
	DCD	0x40000200
; Function compile flags: /Ogspy

  00000			 AREA	 |.text|, CODE, ARM

  00000		 |SOCGetGPMCAddress| PROC

; 107  : {

  00000		 |$LN5@SOCGetGPMC|
  00000		 |$M45913|

; 108  :     UNREFERENCED_PARAMETER(index);
; 109  :     return OMAP_GPMC_REGS_PA;

  00000	e3a0046e	 mov         r0, #0x6E, 8

; 110  : }

  00004	e12fff1e	 bx          lr
  00008		 |$M45914|

			 ENDP  ; |SOCGetGPMCAddress|

	EXPORT	|SOCGetIntCtrlAddr|

  00000			 AREA	 |.pdata|, PDATA
|$T45925| DCD	|$LN5@SOCGetIntC|
	DCD	0x40000300
; Function compile flags: /Ogspy

  00000			 AREA	 |.text|, CODE, ARM

  00000		 |SOCGetIntCtrlAddr| PROC

; 113  : {

  00000		 |$LN5@SOCGetIntC|
  00000		 |$M45922|
  00000	e3a03312	 mov         r3, #0x12, 6

; 114  :     return OMAP_INTC_MPU_REGS_PA;

  00004	e3830602	 orr         r0, r3, #2, 12

; 115  : }

  00008	e12fff1e	 bx          lr
  0000c		 |$M45923|

			 ENDP  ; |SOCGetIntCtrlAddr|

	EXPORT	|SOCGetDSSInfo|

  00000			 AREA	 |.pdata|, PDATA
|$T45933| DCD	|$LN5@SOCGetDSSI|
	DCD	0x40001501
; Function compile flags: /Ogspy

  00000			 AREA	 |.text|, CODE, ARM

  00000		 |SOCGetDSSInfo| PROC

; 118  : {

  00000		 |$LN5@SOCGetDSSI|
  00000	e92d4070	 stmdb       sp!, {r4 - r6, lr}
  00004		 |$M45930|

; 119  :     pInfo->DSSDevice = OMAP_DEVICE_DSS;
; 120  :     pInfo->TVEncoderDevice = OMAP_DEVICE_TVOUT;
; 121  :     pInfo->DSS1_REGS_PA     = OMAP_DSS1_REGS_PA;
; 122  :     pInfo->DISC1_REGS_PA    = OMAP_DISC1_REGS_PA; 

  00004	e59f2044	 ldr         r2, [pc, #0x44]

; 123  :     pInfo->VENC1_REGS_PA    = OMAP_VENC1_REGS_PA;

  00008	e59f103c	 ldr         r1, [pc, #0x3C]

; 124  :     pInfo->DSI_REGS_PA      = OMAP_DSI_REGS_PA;

  0000c	e59fe034	 ldr         lr, [pc, #0x34]

; 125  :     pInfo->DSI_PLL_REGS_PA  = OMAP_DSI_PLL_REGS_PA;

  00010	e59f402c	 ldr         r4, [pc, #0x2C]
  00014	e3a03312	 mov         r3, #0x12, 6
  00018	e3833805	 orr         r3, r3, #5, 16
  0001c	e3a05037	 mov         r5, #0x37
  00020	e3a0603a	 mov         r6, #0x3A
  00024	e5803008	 str         r3, [r0, #8]
  00028	e580200c	 str         r2, [r0, #0xC]
  0002c	e280c010	 add         r12, r0, #0x10
  00030	e88c4002	 stmia       r12, {r1, lr}
  00034	e5804018	 str         r4, [r0, #0x18]
  00038	e8800060	 stmia       r0, {r5, r6}

; 126  : }

  0003c	e8bd4070	 ldmia       sp!, {r4 - r6, lr}
  00040	e12fff1e	 bx          lr
  00044		 |$LN6@SOCGetDSSI|
  00044		 |$LN7@SOCGetDSSI|
  00044	4804ff00	 DCD         0x4804ff00
  00048		 |$LN8@SOCGetDSSI|
  00048	4804fc00	 DCD         0x4804fc00
  0004c		 |$LN9@SOCGetDSSI|
  0004c	48050c00	 DCD         0x48050c00
  00050		 |$LN10@SOCGetDSSI|
  00050	48050400	 DCD         0x48050400
  00054		 |$M45931|

			 ENDP  ; |SOCGetDSSInfo|

	EXPORT	|SOCGetDMADevice|

  00000			 AREA	 |.pdata|, PDATA
|$T45947| DCD	|$LN5@SOCGetDMAD|
	DCD	0x40000200
; Function compile flags: /Ogspy

  00000			 AREA	 |.text|, CODE, ARM

  00000		 |SOCGetDMADevice| PROC

; 129  : {

  00000		 |$LN5@SOCGetDMAD|
  00000		 |$M45944|

; 130  :     UNREFERENCED_PARAMETER(index);
; 131  :     return OMAP_DEVICE_SDMA;

  00000	e3a0004b	 mov         r0, #0x4B

; 132  : }

  00004	e12fff1e	 bx          lr
  00008		 |$M45945|

			 ENDP  ; |SOCGetDMADevice|

	EXPORT	|SOCGetVRFBDevice|

  00000			 AREA	 |.pdata|, PDATA
|$T45956| DCD	|$LN5@SOCGetVRFB|
	DCD	0x40000200
; Function compile flags: /Ogspy

  00000			 AREA	 |.text|, CODE, ARM

  00000		 |SOCGetVRFBDevice| PROC

; 135  : {

  00000		 |$LN5@SOCGetVRFB|
  00000		 |$M45953|

; 136  :     UNREFERENCED_PARAMETER(index);
; 137  :     return OMAP_DEVICE_VRFB;

  00000	e3a00044	 mov         r0, #0x44

; 138  : }

  00004	e12fff1e	 bx          lr
  00008		 |$M45954|

			 ENDP  ; |SOCGetVRFBDevice|

	EXPORT	|SOCGetCANDevice|

  00000			 AREA	 |.pdata|, PDATA
|$T45965| DCD	|$LN5@SOCGetCAND|
	DCD	0x40000200
; Function compile flags: /Ogspy

  00000			 AREA	 |.text|, CODE, ARM

  00000		 |SOCGetCANDevice| PROC

; 141  : {

  00000		 |$LN5@SOCGetCAND|
  00000		 |$M45962|

; 142  :     UNREFERENCED_PARAMETER(index);
; 143  :     return OMAP_DEVICE_HECC;

  00000	e3a0004d	 mov         r0, #0x4D

; 144  : }

  00004	e12fff1e	 bx          lr
  00008		 |$M45963|

			 ENDP  ; |SOCGetCANDevice|

	EXPORT	|SOCGetUSBHInfo|

  00000			 AREA	 |.pdata|, PDATA
|$T45973| DCD	|$LN5@SOCGetUSBH|
	DCD	0x40001301
; Function compile flags: /Ogspy

  00000			 AREA	 |.text|, CODE, ARM

  00000		 |SOCGetUSBHInfo| PROC

; 147  : {

  00000		 |$LN5@SOCGetUSBH|
  00000	e92d40f0	 stmdb       sp!, {r4 - r7, lr}
  00004		 |$M45970|

; 148  : 	pInfo->EHCIDevice		= OMAP_DEVICE_EHCI;
; 149  : 	pInfo->TLLDevice		= OMAP_DEVICE_USBTLL;
; 150  : 	pInfo->Host1Device		= OMAP_DEVICE_USBHOST1;
; 151  : 	pInfo->Host2Device		= OMAP_DEVICE_USBHOST2;
; 152  : 	pInfo->Host3Device		= OMAP_DEVICE_USBHOST3;
; 153  : 	pInfo->UHH_REGS_PA		= OMAP_USBUHH_REGS_PA;
; 154  : 	pInfo->USBTLL_REGS_PA	= OMAP_USBTLL_REGS_PA;
; 155  : 	pInfo->EHCI_REGS_PA		= OMAP_USBEHCI_REGS_PA;

  00004	e59f103c	 ldr         r1, [pc, #0x3C]
  00008	e3a02312	 mov         r2, #0x12, 6
  0000c	e3823919	 orr         r3, r2, #0x19, 18
  00010	e3822a62	 orr         r2, r2, #0x62, 20
  00014	e3a0e043	 mov         lr, #0x43
  00018	e3a0401c	 mov         r4, #0x1C
  0001c	e3a0503f	 mov         r5, #0x3F
  00020	e3a06040	 mov         r6, #0x40
  00024	e3a07041	 mov         r7, #0x41
  00028	e5802018	 str         r2, [r0, #0x18]
  0002c	e5803014	 str         r3, [r0, #0x14]
  00030	e580101c	 str         r1, [r0, #0x1C]
  00034	e580e000	 str         lr, [r0]
  00038	e280c004	 add         r12, r0, #4
  0003c	e88c00f0	 stmia       r12, {r4 - r7}

; 156  : }

  00040	e8bd40f0	 ldmia       sp!, {r4 - r7, lr}
  00044	e12fff1e	 bx          lr
  00048		 |$LN6@SOCGetUSBH|
  00048		 |$LN7@SOCGetUSBH|
  00048	48064800	 DCD         0x48064800
  0004c		 |$M45971|

			 ENDP  ; |SOCGetUSBHInfo|

	EXPORT	|SOCGetUSBOTGAddress|

  00000			 AREA	 |.pdata|, PDATA
|$T45984| DCD	|$LN5@SOCGetUSBO|
	DCD	0x40000300
; Function compile flags: /Ogspy

  00000			 AREA	 |.text|, CODE, ARM

  00000		 |SOCGetUSBOTGAddress| PROC

; 159  : {

  00000		 |$LN5@SOCGetUSBO|
  00000		 |$M45981|

; 160  : 	return (OMAP_USBHS_REGS_PA + MENTOR_CORE_OFFSET);

  00000	e59f0000	 ldr         r0, [pc]

; 161  : }

  00004	e12fff1e	 bx          lr
  00008		 |$LN6@SOCGetUSBO|
  00008		 |$LN7@SOCGetUSBO|
  00008	5c040400	 DCD         0x5c040400
  0000c		 |$M45982|

			 ENDP  ; |SOCGetUSBOTGAddress|

	EXPORT	|SOCGetIDCodeAddress|

  00000			 AREA	 |.pdata|, PDATA
|$T45995| DCD	|$LN5@SOCGetIDCo|
	DCD	0x40000300
; Function compile flags: /Ogspy

  00000			 AREA	 |.text|, CODE, ARM

  00000		 |SOCGetIDCodeAddress| PROC

; 164  : {

  00000		 |$LN5@SOCGetIDCo|
  00000		 |$M45992|

; 165  : 	return OMAP_IDCODE_REGS_PA;

  00000	e59f0000	 ldr         r0, [pc]

; 166  : }

  00004	e12fff1e	 bx          lr
  00008		 |$LN6@SOCGetIDCo|
  00008		 |$LN7@SOCGetIDCo|
  00008	4830a204	 DCD         0x4830a204
  0000c		 |$M45993|

			 ENDP  ; |SOCGetIDCodeAddress|

	EXPORT	|SOCGetOTGDevice|

  00000			 AREA	 |.pdata|, PDATA
|$T46006| DCD	|$LN5@SOCGetOTGD|
	DCD	0x40000200
; Function compile flags: /Ogspy

  00000			 AREA	 |.text|, CODE, ARM

  00000		 |SOCGetOTGDevice| PROC

; 169  : {

  00000		 |$LN5@SOCGetOTGD|
  00000		 |$M46003|

; 170  : 	return OMAP_DEVICE_HSOTGUSB;

  00000	e3a0004f	 mov         r0, #0x4F

; 171  : }

  00004	e12fff1e	 bx          lr
  00008		 |$M46004|

			 ENDP  ; |SOCGetOTGDevice|

	EXPORT	|SOCGetEMACDevice|

  00000			 AREA	 |.pdata|, PDATA
|$T46015| DCD	|$LN5@SOCGetEMAC|
	DCD	0x40000200
; Function compile flags: /Ogspy

  00000			 AREA	 |.text|, CODE, ARM

  00000		 |SOCGetEMACDevice| PROC

; 196  : {

  00000		 |$LN5@SOCGetEMAC|
  00000		 |$M46012|

; 197  :     UNREFERENCED_PARAMETER(index);
; 198  : 	return OMAP_DEVICE_CPGMAC;

  00000	e3a0004e	 mov         r0, #0x4E

; 199  : }

  00004	e12fff1e	 bx          lr
  00008		 |$M46013|

			 ENDP  ; |SOCGetEMACDevice|

	EXPORT	|SOCGetHDQDevice|

  00000			 AREA	 |.pdata|, PDATA
|$T46024| DCD	|$LN5@SOCGetHDQD|
	DCD	0x40000200
; Function compile flags: /Ogspy

  00000			 AREA	 |.text|, CODE, ARM

  00000		 |SOCGetHDQDevice| PROC

; 202  : {

  00000		 |$LN5@SOCGetHDQD|
  00000		 |$M46021|

; 203  :     UNREFERENCED_PARAMETER(index);
; 204  : 	return OMAP_DEVICE_HDQ;

  00000	e3a00010	 mov         r0, #0x10

; 205  : }

  00004	e12fff1e	 bx          lr
  00008		 |$M46022|

			 ENDP  ; |SOCGetHDQDevice|

	END
