; Listing generated by Microsoft (R) Optimizing Compiler Version 14.01.60511.01 

	TTL	C:\WINCE600\PLATFORM\COMMON\SRC\SOC\COMMON_TI_V1\COMMON_TI\WAVEDEV2\aic23.cpp
	CODE32

  00000			 AREA	 |.drectve|, DRECTVE
	DCB	"-defaultlib:LIBCMT "
	DCB	"-defaultlib:OLDNAMES "


  00000			 AREA	 |.rdata|, DATA, READONLY
|SampleRatesTab| DCD 0x17700
	DCW	0x1d
	%	2
	DCD	0x15888
	DCW	0x3f
	%	2
	DCD	0xbb80
	DCW	0x1
	%	2
	DCD	0xac44
	DCW	0x23
	%	2
	DCD	0x7d00
	DCW	0x19
	%	2
	DCD	0x1f55
	DCW	0x2f
	%	2
	EXPORT	|??0CAIC23@@QAA@XZ|			; CAIC23::CAIC23
; File c:\wince600\platform\common\src\soc\common_ti_v1\common_ti\wavedev2\aic23.cpp

  00000			 AREA	 |.pdata|, PDATA
|$T38152| DCD	|$LN5@CAIC23|
	DCD	0x40000800
; Function compile flags: /Ogspy

  00000			 AREA	 |.text|, CODE, ARM

  00000		 |??0CAIC23@@QAA@XZ| PROC		; CAIC23::CAIC23

; 34   : {

  00000		 |$LN5@CAIC23|
  00000		 |$M38149|
  00000	e3a03007	 mov         r3, #7
  00004	e3a02010	 mov         r2, #0x10
  00008	e3a01000	 mov         r1, #0
  0000c	e1c030b4	 strh        r3, [r0, #4]
  00010	e1c020b6	 strh        r2, [r0, #6]
  00014	e5801000	 str         r1, [r0]
  00018	e5801008	 str         r1, [r0, #8]

; 35   : }

  0001c	e12fff1e	 bx          lr
  00020		 |$M38150|

			 ENDP  ; |??0CAIC23@@QAA@XZ|, CAIC23::CAIC23

	EXPORT	|??1CAIC23@@QAA@XZ|			; CAIC23::~CAIC23
	IMPORT	|I2CClose|

  00000			 AREA	 |.pdata|, PDATA
|$T38160| DCD	|$LN6@CAIC23@2|
	DCD	0x40000b01
; Function compile flags: /Ogspy

  00000			 AREA	 |.text|, CODE, ARM

  00000		 |??1CAIC23@@QAA@XZ| PROC		; CAIC23::~CAIC23

; 38   : {

  00000		 |$LN6@CAIC23@2|
  00000	e92d4010	 stmdb       sp!, {r4, lr}
  00004		 |$M38157|
  00004	e1a04000	 mov         r4, r0

; 39   : 	if (m_hI2CDevice != NULL)

  00008	e5943000	 ldr         r3, [r4]
  0000c	e3530000	 cmp         r3, #0
  00010	0a000003	 beq         |$LN1@CAIC23@2|

; 40   : 	{
; 41   : 		I2CClose(m_hI2CDevice);

  00014	e1a00003	 mov         r0, r3
  00018	eb000000	 bl          I2CClose

; 42   : 		m_hI2CDevice = NULL;

  0001c	e3a03000	 mov         r3, #0
  00020	e5843000	 str         r3, [r4]
  00024		 |$LN1@CAIC23@2|

; 43   : 	}
; 44   : }

  00024	e8bd4010	 ldmia       sp!, {r4, lr}
  00028	e12fff1e	 bx          lr
  0002c		 |$M38158|

			 ENDP  ; |??1CAIC23@@QAA@XZ|, CAIC23::~CAIC23

	EXPORT	|?I2CWriteRegister@CAIC23@@AAAHEG@Z|	; CAIC23::I2CWriteRegister
	IMPORT	|I2CWrite|

  00000			 AREA	 |.pdata|, PDATA
|$T38173| DCD	|$LN6@I2CWriteRe|
	DCD	0x40001502
; Function compile flags: /Ogspy

  00000			 AREA	 |.text|, CODE, ARM

  00000		 |?I2CWriteRegister@CAIC23@@AAAHEG@Z| PROC ; CAIC23::I2CWriteRegister

; 306  : {

  00000		 |$LN6@I2CWriteRe|
  00000	e92d4030	 stmdb       sp!, {r4, r5, lr}
  00004	e24dd004	 sub         sp, sp, #4
  00008		 |$M38170|
  00008	e1a04002	 mov         r4, r2

; 307  : 	BOOL bRet = TRUE;
; 308  : 	BYTE Buf = (BYTE)(val & 0xFF);
; 309  : 
; 310  : 	reg = (BYTE)((reg << 1) | ((val & 0x0100) >> 8));

  0000c	e1a03424	 mov         r3, r4, lsr #8

; 311  : 
; 312  : 	if (I2CWrite(m_hI2CDevice, reg, &Buf, sizeof(Buf)) != sizeof(Buf))

  00010	e20330ff	 and         r3, r3, #0xFF
  00014	e1a01081	 mov         r1, r1, lsl #1
  00018	e203e001	 and         lr, r3, #1
  0001c	e5900000	 ldr         r0, [r0]
  00020	e20130ff	 and         r3, r1, #0xFF
  00024	e18e1003	 orr         r1, lr, r3
  00028	e3a03001	 mov         r3, #1
  0002c	e28d2000	 add         r2, sp, #0
  00030	e3a05001	 mov         r5, #1
  00034	e5cd4000	 strb        r4, [sp]
  00038	eb000000	 bl          I2CWrite
  0003c	e3500001	 cmp         r0, #1

; 313  : 	{
; 314  : 		bRet = FALSE;

  00040	13a05000	 movne       r5, #0

; 315  : 	}
; 316  : 
; 317  : 	return bRet;
; 318  : }

  00044	e1a00005	 mov         r0, r5
  00048	e28dd004	 add         sp, sp, #4
  0004c	e8bd4030	 ldmia       sp!, {r4, r5, lr}
  00050	e12fff1e	 bx          lr
  00054		 |$M38171|

			 ENDP  ; |?I2CWriteRegister@CAIC23@@AAAHEG@Z|, CAIC23::I2CWriteRegister

	EXPORT	|?OutputEnable@CAIC23@@QAAHH@Z|		; CAIC23::OutputEnable

  00000			 AREA	 |.pdata|, PDATA
|$T38186| DCD	|$LN8@OutputEnab|
	DCD	0x40001301
; Function compile flags: /Ogspy

  00000			 AREA	 |.text|, CODE, ARM

  00000		 |?OutputEnable@CAIC23@@QAAHH@Z| PROC	; CAIC23::OutputEnable

; 90   : {

  00000		 |$LN8@OutputEnab|
  00000	e92d4030	 stmdb       sp!, {r4, r5, lr}
  00004		 |$M38183|
  00004	e3510000	 cmp         r1, #0
  00008	e1a05000	 mov         r5, r0

; 91   : 	UINT16 val = m_dwPwrDownShadowReg;

  0000c	e1d520b4	 ldrh        r2, [r5, #4]

; 92   : 
; 93   : 	if (bEnable)

  00010	13a03cff	 movne       r3, #0xFF, 24

; 94   : 	{
; 95   : 		val &= ~AIC23_PWR_DOWN_DAC;

  00014	138330f7	 orrne       r3, r3, #0xF7
  00018	10024003	 andne       r4, r2, r3

; 96   : 	}
; 97   : 	else
; 98   : 	{
; 99   : 		val |= AIC23_PWR_DOWN_DAC;

  0001c	03824008	 orreq       r4, r2, #8

; 100  : 	}
; 101  : 
; 102  : 	if (!I2CWriteRegister(AIC23_PWR_DOWN_CTRL_ADDR, val))

  00020	e1a02004	 mov         r2, r4
  00024	e3a01006	 mov         r1, #6
  00028	e1a00005	 mov         r0, r5
  0002c	eb000000	 bl          |?I2CWriteRegister@CAIC23@@AAAHEG@Z|
  00030	e3500000	 cmp         r0, #0

; 103  : 	{
; 104  : 		return FALSE;

  00034	03a00000	 moveq       r0, #0

; 110  : }

  00038	08bd4030	 ldmeqia     sp!, {r4, r5, lr}

; 105  : 	}
; 106  : 
; 107  : 	m_dwPwrDownShadowReg = val;

  0003c	11c540b4	 strneh      r4, [r5, #4]

; 108  : 
; 109  : 	return TRUE;

  00040	13a00001	 movne       r0, #1

; 110  : }

  00044	18bd4030	 ldmneia     sp!, {r4, r5, lr}
  00048	e12fff1e	 bx          lr
  0004c		 |$M38184|

			 ENDP  ; |?OutputEnable@CAIC23@@QAAHH@Z|, CAIC23::OutputEnable

	EXPORT	|?InputEnable@CAIC23@@QAAHH@Z|		; CAIC23::InputEnable

  00000			 AREA	 |.pdata|, PDATA
|$T38200| DCD	|$LN10@InputEnabl|
	DCD	0x40001d01
; Function compile flags: /Ogspy

  00000			 AREA	 |.text|, CODE, ARM

  00000		 |?InputEnable@CAIC23@@QAAHH@Z| PROC	; CAIC23::InputEnable

; 113  : {

  00000		 |$LN10@InputEnabl|
  00000	e92d4030	 stmdb       sp!, {r4, r5, lr}
  00004		 |$M38197|
  00004	e3510000	 cmp         r1, #0
  00008	e1a05000	 mov         r5, r0

; 114  : 	UINT16 val = m_dwPwrDownShadowReg;

  0000c	e1d510b4	 ldrh        r1, [r5, #4]

; 115  : 
; 116  : 	if (bEnable)

  00010	0a00000b	 beq         |$LN5@InputEnabl|

; 117  : 	{
; 118  : 		val &= ~AIC23_PWR_DOWN_ADC;
; 119  : 
; 120  : 		if (m_bMicrophone)

  00014	e3a03cff	 mov         r3, #0xFF, 24
  00018	e38330fb	 orr         r3, r3, #0xFB
  0001c	e5952008	 ldr         r2, [r5, #8]
  00020	e0011003	 and         r1, r1, r3
  00024	e3a03cff	 mov         r3, #0xFF, 24

; 121  : 		{
; 122  : 			val |= AIC23_PWR_DOWN_LINE;
; 123  : 			val &= ~AIC23_PWR_DOWN_MIC;

  00028	e38330fc	 orr         r3, r3, #0xFC
  0002c	e0013003	 and         r3, r1, r3
  00030	e3520000	 cmp         r2, #0
  00034	13834001	 orrne       r4, r3, #1
  00038	1a000002	 bne         |$LN2@InputEnabl|

; 124  : 		}
; 125  : 		else
; 126  : 		{
; 127  : 			val |= AIC23_PWR_DOWN_MIC;
; 128  : 			val &= ~AIC23_PWR_DOWN_LINE;

  0003c	e3834002	 orr         r4, r3, #2

; 129  : 		}
; 130  : 	}
; 131  : 	else

  00040	ea000000	 b           |$LN2@InputEnabl|
  00044		 |$LN5@InputEnabl|

; 132  : 	{
; 133  : 		val |= (AIC23_PWR_DOWN_ADC | AIC23_PWR_DOWN_MIC | AIC23_PWR_DOWN_LINE);

  00044	e3814007	 orr         r4, r1, #7
  00048		 |$LN2@InputEnabl|

; 134  : 	}
; 135  : 
; 136  : 	if (!I2CWriteRegister(AIC23_PWR_DOWN_CTRL_ADDR, val))

  00048	e1a02004	 mov         r2, r4
  0004c	e3a01006	 mov         r1, #6
  00050	e1a00005	 mov         r0, r5
  00054	eb000000	 bl          |?I2CWriteRegister@CAIC23@@AAAHEG@Z|
  00058	e3500000	 cmp         r0, #0

; 137  : 	{
; 138  : 		return FALSE;

  0005c	03a00000	 moveq       r0, #0

; 144  : }

  00060	08bd4030	 ldmeqia     sp!, {r4, r5, lr}

; 139  : 	}
; 140  : 
; 141  : 	m_dwPwrDownShadowReg = val;

  00064	11c540b4	 strneh      r4, [r5, #4]

; 142  : 
; 143  : 	return TRUE;

  00068	13a00001	 movne       r0, #1

; 144  : }

  0006c	18bd4030	 ldmneia     sp!, {r4, r5, lr}
  00070	e12fff1e	 bx          lr
  00074		 |$M38198|

			 ENDP  ; |?InputEnable@CAIC23@@QAAHH@Z|, CAIC23::InputEnable

	EXPORT	|?SetLineInMux@CAIC23@@QAAHH@Z|		; CAIC23::SetLineInMux

  00000			 AREA	 |.pdata|, PDATA
|$T38213| DCD	|$LN8@SetLineInM|
	DCD	0x40001401
; Function compile flags: /Ogspy

  00000			 AREA	 |.text|, CODE, ARM

  00000		 |?SetLineInMux@CAIC23@@QAAHH@Z| PROC	; CAIC23::SetLineInMux

; 147  : {

  00000		 |$LN8@SetLineInM|
  00000	e92d4070	 stmdb       sp!, {r4 - r6, lr}
  00004		 |$M38210|
  00004	e1b06001	 movs        r6, r1
  00008	e1a04000	 mov         r4, r0

; 148  : 	UINT16 val = m_dwAudioPathShadowReg;

  0000c	e1d420b6	 ldrh        r2, [r4, #6]

; 149  : 
; 150  : 	if (bMic)
; 151  : 	{
; 152  : 		val |= AIC23_ANALOG_PATH_INSEL;
; 153  : 	}
; 154  : 	else

  00010	03a03cff	 moveq       r3, #0xFF, 24

; 155  : 	{
; 156  : 		val &= ~AIC23_ANALOG_PATH_INSEL;

  00014	038330fb	 orreq       r3, r3, #0xFB
  00018	13825004	 orrne       r5, r2, #4
  0001c	00025003	 andeq       r5, r2, r3

; 157  : 	}
; 158  : 
; 159  : 	if (!I2CWriteRegister(AIC23_ANALOG_PATH_CTRL_ADDR, val))

  00020	e1a02005	 mov         r2, r5
  00024	e3a01004	 mov         r1, #4
  00028	e1a00004	 mov         r0, r4
  0002c	eb000000	 bl          |?I2CWriteRegister@CAIC23@@AAAHEG@Z|
  00030	e3500000	 cmp         r0, #0

; 160  : 	{
; 161  : 		return FALSE;

  00034	03a00000	 moveq       r0, #0

; 168  : }

  00038	08bd4070	 ldmeqia     sp!, {r4 - r6, lr}

; 162  : 	}	
; 163  : 
; 164  : 	m_dwAudioPathShadowReg = val;

  0003c	11c450b6	 strneh      r5, [r4, #6]

; 165  : 	m_bMicrophone = bMic;

  00040	15846008	 strne       r6, [r4, #8]

; 166  : 
; 167  : 	return TRUE;

  00044	13a00001	 movne       r0, #1

; 168  : }

  00048	18bd4070	 ldmneia     sp!, {r4 - r6, lr}
  0004c	e12fff1e	 bx          lr
  00050		 |$M38211|

			 ENDP  ; |?SetLineInMux@CAIC23@@QAAHH@Z|, CAIC23::SetLineInMux

	EXPORT	|?SetMicBoost@CAIC23@@QAAHH@Z|		; CAIC23::SetMicBoost

  00000			 AREA	 |.pdata|, PDATA
|$T38226| DCD	|$LN8@SetMicBoos|
	DCD	0x40001301
; Function compile flags: /Ogspy

  00000			 AREA	 |.text|, CODE, ARM

  00000		 |?SetMicBoost@CAIC23@@QAAHH@Z| PROC	; CAIC23::SetMicBoost

; 171  : {

  00000		 |$LN8@SetMicBoos|
  00000	e92d4030	 stmdb       sp!, {r4, r5, lr}
  00004		 |$M38223|
  00004	e3510000	 cmp         r1, #0
  00008	e1a05000	 mov         r5, r0

; 172  : 	UINT16 val = m_dwAudioPathShadowReg;

  0000c	e1d520b6	 ldrh        r2, [r5, #6]

; 173  : 
; 174  : 	if (bMicBoost)
; 175  : 	{
; 176  : 		val |= AIC23_ANALOG_PATH_MICB;
; 177  : 	}
; 178  : 	else

  00010	03a03cff	 moveq       r3, #0xFF, 24

; 179  : 	{
; 180  : 		val &= ~AIC23_ANALOG_PATH_MICB;

  00014	038330fe	 orreq       r3, r3, #0xFE
  00018	13824001	 orrne       r4, r2, #1
  0001c	00024003	 andeq       r4, r2, r3

; 181  : 	}
; 182  : 
; 183  : 	if (!I2CWriteRegister(AIC23_ANALOG_PATH_CTRL_ADDR, val))

  00020	e1a02004	 mov         r2, r4
  00024	e3a01004	 mov         r1, #4
  00028	e1a00005	 mov         r0, r5
  0002c	eb000000	 bl          |?I2CWriteRegister@CAIC23@@AAAHEG@Z|
  00030	e3500000	 cmp         r0, #0

; 184  : 	{
; 185  : 		return FALSE;

  00034	03a00000	 moveq       r0, #0

; 191  : }

  00038	08bd4030	 ldmeqia     sp!, {r4, r5, lr}

; 186  : 	}	
; 187  : 
; 188  : 	m_dwAudioPathShadowReg = val;

  0003c	11c540b6	 strneh      r4, [r5, #6]

; 189  : 
; 190  : 	return TRUE;

  00040	13a00001	 movne       r0, #1

; 191  : }

  00044	18bd4030	 ldmneia     sp!, {r4, r5, lr}
  00048	e12fff1e	 bx          lr
  0004c		 |$M38224|

			 ENDP  ; |?SetMicBoost@CAIC23@@QAAHH@Z|, CAIC23::SetMicBoost

	EXPORT	|?ResetCodec@CAIC23@@AAAHXZ|		; CAIC23::ResetCodec

  00000			 AREA	 |.pdata|, PDATA
|$T38236| DCD	|$LN5@ResetCodec|
	DCD	0x40000601
; Function compile flags: /Ogspy

  00000			 AREA	 |.text|, CODE, ARM

  00000		 |?ResetCodec@CAIC23@@AAAHXZ| PROC	; CAIC23::ResetCodec

; 194  : {

  00000		 |$LN5@ResetCodec|
  00000	e52de004	 str         lr, [sp, #-4]!
  00004		 |$M38233|

; 195  : 	return I2CWriteRegister(AIC23_RESET_REG_ADDR, 0);

  00004	e3a02000	 mov         r2, #0
  00008	e3a0100f	 mov         r1, #0xF
  0000c	eb000000	 bl          |?I2CWriteRegister@CAIC23@@AAAHEG@Z|

; 196  : }

  00010	e49de004	 ldr         lr, [sp], #4
  00014	e12fff1e	 bx          lr
  00018		 |$M38234|

			 ENDP  ; |?ResetCodec@CAIC23@@AAAHXZ|, CAIC23::ResetCodec

	EXPORT	|?ConfigureCodec@CAIC23@@AAAHXZ|	; CAIC23::ConfigureCodec

  00000			 AREA	 |.pdata|, PDATA
|$T38247| DCD	|$LN13@ConfigureC|
	DCD	0x40002301
; Function compile flags: /Ogspy

  00000			 AREA	 |.text|, CODE, ARM

  00000		 |?ConfigureCodec@CAIC23@@AAAHXZ| PROC	; CAIC23::ConfigureCodec

; 199  : {

  00000		 |$LN13@ConfigureC|
  00000	e92d4030	 stmdb       sp!, {r4, r5, lr}
  00004		 |$M38244|
  00004	e1a04000	 mov         r4, r0

; 200  : 	BOOL bRet = FALSE;
; 201  : 
; 202  : 	// Disable ADC/DAC
; 203  : 	OutputEnable(FALSE);

  00008	e3a01000	 mov         r1, #0
  0000c	e3a05000	 mov         r5, #0
  00010	eb000000	 bl          |?OutputEnable@CAIC23@@QAAHH@Z|

; 204  : 	InputEnable(FALSE);

  00014	e3a01000	 mov         r1, #0
  00018	e1a00004	 mov         r0, r4
  0001c	eb000000	 bl          |?InputEnable@CAIC23@@QAAHH@Z|

; 205  : 
; 206  : 	// Select DAC
; 207  : 	if (!I2CWriteRegister(AIC23_ANALOG_PATH_CTRL_ADDR, m_dwAudioPathShadowReg))

  00020	e1d420b6	 ldrh        r2, [r4, #6]
  00024	e3a01004	 mov         r1, #4
  00028	e1a00004	 mov         r0, r4
  0002c	eb000000	 bl          |?I2CWriteRegister@CAIC23@@AAAHEG@Z|
  00030	e3500000	 cmp         r0, #0
  00034	0a000011	 beq         |$exit$38037|

; 208  : 	{
; 209  : 		goto exit;
; 210  : 	}
; 211  : 
; 212  : 	// De-emphasis 44.1 kHz, High-Pass filter enable
; 213  : 	if (!I2CWriteRegister(AIC23_DIGITAL_PATH_CTRL_ADDR, 0x05))

  00038	e3a02005	 mov         r2, #5
  0003c	e3a01005	 mov         r1, #5
  00040	e1a00004	 mov         r0, r4
  00044	eb000000	 bl          |?I2CWriteRegister@CAIC23@@AAAHEG@Z|
  00048	e3500000	 cmp         r0, #0
  0004c	0a00000b	 beq         |$exit$38037|

; 214  : 	{
; 215  : 		goto exit;
; 216  : 	}
; 217  : 
; 218  : 	// I2S Slave mode, 16 bit
; 219  : 	if (!I2CWriteRegister(AIC23_DIGITAL_FORMAT_ADDR, 0x02))

  00050	e3a02002	 mov         r2, #2
  00054	e3a01007	 mov         r1, #7
  00058	e1a00004	 mov         r0, r4
  0005c	eb000000	 bl          |?I2CWriteRegister@CAIC23@@AAAHEG@Z|
  00060	e3500000	 cmp         r0, #0
  00064	0a000005	 beq         |$exit$38037|

; 220  : 	{
; 221  : 		goto exit;
; 222  : 	}
; 223  : 
; 224  : 	// Activate digital interface
; 225  : 	if (!I2CWriteRegister(AIC23_DIGITAL_ACT_ADDR, 0x01))

  00068	e3a02001	 mov         r2, #1
  0006c	e3a01009	 mov         r1, #9
  00070	e1a00004	 mov         r0, r4
  00074	eb000000	 bl          |?I2CWriteRegister@CAIC23@@AAAHEG@Z|
  00078	e3500000	 cmp         r0, #0

; 226  : 	{
; 227  : 		goto exit;
; 228  : 	}
; 229  : 
; 230  : 	bRet = TRUE;

  0007c	13a05001	 movne       r5, #1
  00080		 |$exit$38037|

; 231  : 
; 232  : exit:
; 233  : 
; 234  : 	return bRet;
; 235  : }

  00080	e1a00005	 mov         r0, r5
  00084	e8bd4030	 ldmia       sp!, {r4, r5, lr}
  00088	e12fff1e	 bx          lr
  0008c		 |$M38245|

			 ENDP  ; |?ConfigureCodec@CAIC23@@AAAHXZ|, CAIC23::ConfigureCodec

	EXPORT	|?SetOutputVolume@CAIC23@@QAAHKG@Z|	; CAIC23::SetOutputVolume

  00000			 AREA	 |.pdata|, PDATA
|$T38263| DCD	|$LN9@SetOutputV|
	DCD	0x40001701
; Function compile flags: /Ogspy

  00000			 AREA	 |.text|, CODE, ARM

  00000		 |?SetOutputVolume@CAIC23@@QAAHKG@Z| PROC ; CAIC23::SetOutputVolume

; 238  : {

  00000		 |$LN9@SetOutputV|
  00000	e92d4010	 stmdb       sp!, {r4, lr}
  00004		 |$M38260|
  00004	e3510000	 cmp         r1, #0

; 239  : 	BOOL bRet = FALSE;
; 240  : 	BYTE reg;
; 241  : 
; 242  : 	reg = (BYTE)(((val * 0x4F) / 0xFFFF) + 0x30);

  00008	e0823102	 add         r3, r2, r2, lsl #2
  0000c	e3a0e106	 mov         lr, #6, 2
  00010	e0621203	 rsb         r1, r2, r3, lsl #4
  00014	e38e3902	 orr         r3, lr, #2, 18
  00018	e0c32391	 smull       r2, r3, r1, r3
  0001c	e3a04000	 mov         r4, #0
  00020	e0833001	 add         r3, r3, r1
  00024	e1a037c3	 mov         r3, r3, asr #15
  00028	e0833fa3	 add         r3, r3, r3, lsr #31
  0002c	e2833030	 add         r3, r3, #0x30

; 243  : 	reg |= (1 << 7);	// Enable Zero-Cross detect

  00030	e383e080	 orr         lr, r3, #0x80

; 244  : 	
; 245  : 	if (!I2CWriteRegister(bLeft ? AIC23_LHEAD_VOL_CTRL_ADDR : AIC23_RHEAD_VOL_CTRL_ADDR, reg))

  00034	13a03002	 movne       r3, #2
  00038	03a03003	 moveq       r3, #3
  0003c	e20310ff	 and         r1, r3, #0xFF
  00040	e20e20ff	 and         r2, lr, #0xFF
  00044	eb000000	 bl          |?I2CWriteRegister@CAIC23@@AAAHEG@Z|
  00048	e3500000	 cmp         r0, #0

; 246  : 	{
; 247  : 		goto exit;
; 248  : 	}
; 249  : 
; 250  : 	bRet = TRUE;

  0004c	13a04001	 movne       r4, #1
  00050		 |$exit$38054|

; 251  : 
; 252  : exit:
; 253  : 
; 254  : 	return bRet;
; 255  : }

  00050	e1a00004	 mov         r0, r4
  00054	e8bd4010	 ldmia       sp!, {r4, lr}
  00058	e12fff1e	 bx          lr
  0005c		 |$M38261|

			 ENDP  ; |?SetOutputVolume@CAIC23@@QAAHKG@Z|, CAIC23::SetOutputVolume

	EXPORT	|?SetInputVolume@CAIC23@@QAAHKG@Z|	; CAIC23::SetInputVolume

  00000			 AREA	 |.pdata|, PDATA
|$T38279| DCD	|$LN9@SetInputVo|
	DCD	0x40001401
; Function compile flags: /Ogspy

  00000			 AREA	 |.text|, CODE, ARM

  00000		 |?SetInputVolume@CAIC23@@QAAHKG@Z| PROC ; CAIC23::SetInputVolume

; 258  : {

  00000		 |$LN9@SetInputVo|
  00000	e92d4010	 stmdb       sp!, {r4, lr}
  00004		 |$M38276|
  00004	e3510000	 cmp         r1, #0
  00008	e3a03106	 mov         r3, #6, 2

; 259  : 	BOOL bRet = FALSE;
; 260  : 	BYTE reg;
; 261  : 
; 262  : 	reg = (BYTE)((val * 0x1F) / 0xFFFF);

  0000c	e3833902	 orr         r3, r3, #2, 18
  00010	e0621282	 rsb         r1, r2, r2, lsl #5
  00014	e0c32391	 smull       r2, r3, r1, r3
  00018	e3a04000	 mov         r4, #0
  0001c	e0833001	 add         r3, r3, r1
  00020	e1a037c3	 mov         r3, r3, asr #15
  00024	e083efa3	 add         lr, r3, r3, lsr #31

; 263  : 	
; 264  : 	if (!I2CWriteRegister(bLeft ? AIC23_LIN_VOL_CTRL_ADDR : AIC23_RIN_VOL_CTRL_ADDR, reg))

  00028	13a03000	 movne       r3, #0
  0002c	03a03001	 moveq       r3, #1
  00030	e20310ff	 and         r1, r3, #0xFF
  00034	e20e20ff	 and         r2, lr, #0xFF
  00038	eb000000	 bl          |?I2CWriteRegister@CAIC23@@AAAHEG@Z|
  0003c	e3500000	 cmp         r0, #0

; 265  : 	{
; 266  : 		goto exit;
; 267  : 	}
; 268  : 
; 269  : 	bRet = TRUE;

  00040	13a04001	 movne       r4, #1
  00044		 |$exit$38065|

; 270  : 
; 271  : exit:
; 272  : 
; 273  : 	return bRet;
; 274  : }

  00044	e1a00004	 mov         r0, r4
  00048	e8bd4010	 ldmia       sp!, {r4, lr}
  0004c	e12fff1e	 bx          lr
  00050		 |$M38277|

			 ENDP  ; |?SetInputVolume@CAIC23@@QAAHKG@Z|, CAIC23::SetInputVolume

	EXPORT	|?SetSampleRate@CAIC23@@AAAHK@Z|	; CAIC23::SetSampleRate

  00000			 AREA	 |.pdata|, PDATA
|$T38295| DCD	|$LN14@SetSampleR|
	DCD	0x40001801
; Function compile flags: /Ogspy

  00000			 AREA	 |.text|, CODE, ARM

  00000		 |?SetSampleRate@CAIC23@@AAAHK@Z| PROC	; CAIC23::SetSampleRate

; 277  : {

  00000		 |$LN14@SetSampleR|
  00000	e92d4010	 stmdb       sp!, {r4, lr}
  00004		 |$M38292|

; 278  : 	DWORD index = 0;

  00004	e59f4050	 ldr         r4, [pc, #0x50]
  00008	e3a02000	 mov         r2, #0
  0000c	e1a0e004	 mov         lr, r4
  00010		 |$LL5@SetSampleR|

; 279  : 	DWORD tabSize = sizeof(SampleRatesTab)/sizeof(SampleRatesTab[0]);
; 280  : 
; 281  : 	while (index < tabSize)
; 282  : 	{
; 283  : 		if (val >= SampleRatesTab[index].SampleRate)

  00010	e59e3000	 ldr         r3, [lr]
  00014	e1510003	 cmp         r1, r3
  00018	2a000003	 bcs         |$LN9@SetSampleR|

; 284  : 		{
; 285  : 			break;
; 286  : 		}
; 287  : 		index++;

  0001c	e2822001	 add         r2, r2, #1
  00020	e3520006	 cmp         r2, #6
  00024	e28ee008	 add         lr, lr, #8
  00028	3afffff8	 bcc         |$LL5@SetSampleR|
  0002c		 |$LN9@SetSampleR|

; 288  : 	}
; 289  : 
; 290  : 	// Make sure we did not pass the last value
; 291  : 	if (index >= tabSize)

  0002c	e3520006	 cmp         r2, #6

; 292  : 	{
; 293  : 		index = tabSize - 1;

  00030	23a02005	 movcs       r2, #5

; 294  : 	}
; 295  : 
; 296  : 	// Configure Sample rate
; 297  : 	if (!I2CWriteRegister(AIC23_SAMPLE_RATE_CTRL_ADDR, SampleRatesTab[index].RegVal))

  00034	e0843182	 add         r3, r4, r2, lsl #3
  00038	e1d320b4	 ldrh        r2, [r3, #4]
  0003c	e3a01008	 mov         r1, #8
  00040	eb000000	 bl          |?I2CWriteRegister@CAIC23@@AAAHEG@Z|
  00044	e3500000	 cmp         r0, #0

; 298  : 	{
; 299  : 		return FALSE;

  00048	03a00000	 moveq       r0, #0

; 303  : }

  0004c	08bd4010	 ldmeqia     sp!, {r4, lr}

; 300  : 	}
; 301  : 
; 302  : 	return TRUE;

  00050	13a00001	 movne       r0, #1

; 303  : }

  00054	18bd4010	 ldmneia     sp!, {r4, lr}
  00058	e12fff1e	 bx          lr
  0005c		 |$LN15@SetSampleR|
  0005c		 |$LN16@SetSampleR|
  0005c	00000000	 DCD         |SampleRatesTab|
  00060		 |$M38293|

			 ENDP  ; |?SetSampleRate@CAIC23@@AAAHK@Z|, CAIC23::SetSampleRate

	EXPORT	|?InitHardware@CAIC23@@QAAHKKK@Z|	; CAIC23::InitHardware
	EXPORT	|??_C@_1IK@LICONBLF@?$AA?$FL?$AAE?$AAR?$AAR?$AAO?$AAR?$AA?$FN?$AA?5?$AA?$CI?$AAL?$AA?$CC?$AAC?$AAA?$AAI?$AAC?$AA2?$AA3?$AA?3?$AA?3?$AAI?$AAn?$AAi?$AAt?$AAH?$AAa?$AAr?$AAd?$AAw?$AAa?$AAr?$AAe?$AA?3@| [ DATA ] ; `string'
	EXPORT	|??_C@_1HO@EFMIEACB@?$AA?$FL?$AAE?$AAR?$AAR?$AAO?$AAR?$AA?$FN?$AA?5?$AA?$CI?$AAL?$AA?$CC?$AAC?$AAA?$AAI?$AAC?$AA2?$AA3?$AA?3?$AA?3?$AAI?$AAn?$AAi?$AAt?$AAH?$AAa?$AAr?$AAd?$AAw?$AAa?$AAr?$AAe?$AA?3@| [ DATA ] ; `string'
	EXPORT	|??_C@_1HG@GCNKLOKM@?$AA?$FL?$AAE?$AAR?$AAR?$AAO?$AAR?$AA?$FN?$AA?5?$AA?$CI?$AAL?$AA?$CC?$AAC?$AAA?$AAI?$AAC?$AA2?$AA3?$AA?3?$AA?3?$AAI?$AAn?$AAi?$AAt?$AAH?$AAa?$AAr?$AAd?$AAw?$AAa?$AAr?$AAe?$AA?3@| [ DATA ] ; `string'
	EXPORT	|??_C@_1HO@KJMOELFH@?$AA?$FL?$AAE?$AAR?$AAR?$AAO?$AAR?$AA?$FN?$AA?5?$AA?$CI?$AAL?$AA?$CC?$AAC?$AAA?$AAI?$AAC?$AA2?$AA3?$AA?3?$AA?3?$AAI?$AAn?$AAi?$AAt?$AAH?$AAa?$AAr?$AAd?$AAw?$AAa?$AAr?$AAe?$AA?3@| [ DATA ] ; `string'
	IMPORT	|I2CSetBaudIndex|
	IMPORT	|I2CSetSubAddressMode|
	IMPORT	|I2CSetSlaveAddress|
	IMPORT	|NKDbgPrintfW|
	IMPORT	|I2COpen|
	IMPORT	|SOCGetI2CDeviceByBus|

  00000			 AREA	 |.pdata|, PDATA
|$T38323| DCD	|$LN24@InitHardwa|
	DCD	0x40003801

  00000			 AREA	 |.rdata|, DATA, READONLY
|??_C@_1IK@LICONBLF@?$AA?$FL?$AAE?$AAR?$AAR?$AAO?$AAR?$AA?$FN?$AA?5?$AA?$CI?$AAL?$AA?$CC?$AAC?$AAA?$AAI?$AAC?$AA2?$AA3?$AA?3?$AA?3?$AAI?$AAn?$AAi?$AAt?$AAH?$AAa?$AAr?$AAd?$AAw?$AAa?$AAr?$AAe?$AA?3@| DCB "["
	DCB	0x0, "E", 0x0, "R", 0x0, "R", 0x0, "O", 0x0, "R", 0x0, "]"
	DCB	0x0, " ", 0x0, "(", 0x0, "L", 0x0, """", 0x0, "C", 0x0, "A"
	DCB	0x0, "I", 0x0, "C", 0x0, "2", 0x0, "3", 0x0, ":", 0x0, ":"
	DCB	0x0, "I", 0x0, "n", 0x0, "i", 0x0, "t", 0x0, "H", 0x0, "a"
	DCB	0x0, "r", 0x0, "d", 0x0, "w", 0x0, "a", 0x0, "r", 0x0, "e"
	DCB	0x0, ":", 0x0, " ", 0x0, "F", 0x0, "a", 0x0, "i", 0x0, "l"
	DCB	0x0, "e", 0x0, "d", 0x0, " ", 0x0, "t", 0x0, "o", 0x0, " "
	DCB	0x0, "c", 0x0, "o", 0x0, "n", 0x0, "f", 0x0, "i", 0x0, "g"
	DCB	0x0, "u", 0x0, "r", 0x0, "e", 0x0, " ", 0x0, "s", 0x0, "a"
	DCB	0x0, "m", 0x0, "p", 0x0, "l", 0x0, "e", 0x0, " ", 0x0, "r"
	DCB	0x0, "a", 0x0, "t", 0x0, "e", 0x0, """", 0x0, ")", 0x0, 0xd
	DCB	0x0, 0xa, 0x0, 0x0, 0x0			; `string'

  00000			 AREA	 |.rdata|, DATA, READONLY
|??_C@_1HO@EFMIEACB@?$AA?$FL?$AAE?$AAR?$AAR?$AAO?$AAR?$AA?$FN?$AA?5?$AA?$CI?$AAL?$AA?$CC?$AAC?$AAA?$AAI?$AAC?$AA2?$AA3?$AA?3?$AA?3?$AAI?$AAn?$AAi?$AAt?$AAH?$AAa?$AAr?$AAd?$AAw?$AAa?$AAr?$AAe?$AA?3@| DCB "["
	DCB	0x0, "E", 0x0, "R", 0x0, "R", 0x0, "O", 0x0, "R", 0x0, "]"
	DCB	0x0, " ", 0x0, "(", 0x0, "L", 0x0, """", 0x0, "C", 0x0, "A"
	DCB	0x0, "I", 0x0, "C", 0x0, "2", 0x0, "3", 0x0, ":", 0x0, ":"
	DCB	0x0, "I", 0x0, "n", 0x0, "i", 0x0, "t", 0x0, "H", 0x0, "a"
	DCB	0x0, "r", 0x0, "d", 0x0, "w", 0x0, "a", 0x0, "r", 0x0, "e"
	DCB	0x0, ":", 0x0, " ", 0x0, "F", 0x0, "a", 0x0, "i", 0x0, "l"
	DCB	0x0, "e", 0x0, "d", 0x0, " ", 0x0, "t", 0x0, "o", 0x0, " "
	DCB	0x0, "c", 0x0, "o", 0x0, "n", 0x0, "f", 0x0, "i", 0x0, "g"
	DCB	0x0, "u", 0x0, "r", 0x0, "e", 0x0, " ", 0x0, "c", 0x0, "o"
	DCB	0x0, "d", 0x0, "e", 0x0, "c", 0x0, """", 0x0, ")", 0x0, 0xd
	DCB	0x0, 0xa, 0x0, 0x0, 0x0			; `string'

  00000			 AREA	 |.rdata|, DATA, READONLY
|??_C@_1HG@GCNKLOKM@?$AA?$FL?$AAE?$AAR?$AAR?$AAO?$AAR?$AA?$FN?$AA?5?$AA?$CI?$AAL?$AA?$CC?$AAC?$AAA?$AAI?$AAC?$AA2?$AA3?$AA?3?$AA?3?$AAI?$AAn?$AAi?$AAt?$AAH?$AAa?$AAr?$AAd?$AAw?$AAa?$AAr?$AAe?$AA?3@| DCB "["
	DCB	0x0, "E", 0x0, "R", 0x0, "R", 0x0, "O", 0x0, "R", 0x0, "]"
	DCB	0x0, " ", 0x0, "(", 0x0, "L", 0x0, """", 0x0, "C", 0x0, "A"
	DCB	0x0, "I", 0x0, "C", 0x0, "2", 0x0, "3", 0x0, ":", 0x0, ":"
	DCB	0x0, "I", 0x0, "n", 0x0, "i", 0x0, "t", 0x0, "H", 0x0, "a"
	DCB	0x0, "r", 0x0, "d", 0x0, "w", 0x0, "a", 0x0, "r", 0x0, "e"
	DCB	0x0, ":", 0x0, " ", 0x0, "F", 0x0, "a", 0x0, "i", 0x0, "l"
	DCB	0x0, "e", 0x0, "d", 0x0, " ", 0x0, "t", 0x0, "o", 0x0, " "
	DCB	0x0, "r", 0x0, "e", 0x0, "s", 0x0, "e", 0x0, "t", 0x0, " "
	DCB	0x0, "c", 0x0, "o", 0x0, "d", 0x0, "e", 0x0, "c", 0x0, """"
	DCB	0x0, ")", 0x0, 0xd, 0x0, 0xa, 0x0, 0x0, 0x0 ; `string'

  00000			 AREA	 |.rdata|, DATA, READONLY
|??_C@_1HO@KJMOELFH@?$AA?$FL?$AAE?$AAR?$AAR?$AAO?$AAR?$AA?$FN?$AA?5?$AA?$CI?$AAL?$AA?$CC?$AAC?$AAA?$AAI?$AAC?$AA2?$AA3?$AA?3?$AA?3?$AAI?$AAn?$AAi?$AAt?$AAH?$AAa?$AAr?$AAd?$AAw?$AAa?$AAr?$AAe?$AA?3@| DCB "["
	DCB	0x0, "E", 0x0, "R", 0x0, "R", 0x0, "O", 0x0, "R", 0x0, "]"
	DCB	0x0, " ", 0x0, "(", 0x0, "L", 0x0, """", 0x0, "C", 0x0, "A"
	DCB	0x0, "I", 0x0, "C", 0x0, "2", 0x0, "3", 0x0, ":", 0x0, ":"
	DCB	0x0, "I", 0x0, "n", 0x0, "i", 0x0, "t", 0x0, "H", 0x0, "a"
	DCB	0x0, "r", 0x0, "d", 0x0, "w", 0x0, "a", 0x0, "r", 0x0, "e"
	DCB	0x0, ":", 0x0, " ", 0x0, "F", 0x0, "a", 0x0, "i", 0x0, "l"
	DCB	0x0, "e", 0x0, "d", 0x0, " ", 0x0, "t", 0x0, "o", 0x0, " "
	DCB	0x0, "o", 0x0, "p", 0x0, "e", 0x0, "n", 0x0, " ", 0x0, "I"
	DCB	0x0, "2", 0x0, "C", 0x0, " ", 0x0, "d", 0x0, "r", 0x0, "i"
	DCB	0x0, "v", 0x0, "e", 0x0, "r", 0x0, """", 0x0, ")", 0x0, 0xd
	DCB	0x0, 0xa, 0x0, 0x0, 0x0			; `string'
; Function compile flags: /Ogspy

  00000			 AREA	 |.text|, CODE, ARM

  00000		 |?InitHardware@CAIC23@@QAAHKKK@Z| PROC	; CAIC23::InitHardware

; 47   : {

  00000		 |$LN24@InitHardwa|
  00000	e92d40f0	 stmdb       sp!, {r4 - r7, lr}
  00004		 |$M38320|
  00004	e1a06003	 mov         r6, r3
  00008	e1a07001	 mov         r7, r1
  0000c	e1a05000	 mov         r5, r0

; 48   : 	BOOL bRet = FALSE;
; 49   : 
; 50   : 	// Open I2C bus
; 51   : 	m_hI2CDevice = I2COpen(SOCGetI2CDeviceByBus(I2Cbus));

  00010	e1a00002	 mov         r0, r2
  00014	e3a04000	 mov         r4, #0
  00018	eb000000	 bl          SOCGetI2CDeviceByBus
  0001c	eb000000	 bl          I2COpen
  00020	e3500000	 cmp         r0, #0
  00024	e5850000	 str         r0, [r5]

; 52   : 	if (m_hI2CDevice == NULL)

  00028	1a000002	 bne         |$LN8@InitHardwa|

; 53   : 	{
; 54   : 		ERRMSG((L"CAIC23::InitHardware: Failed to open I2C driver"));

  0002c	e59f00a8	 ldr         r0, [pc, #0xA8]

; 72   : 		goto exit;
; 73   : 	}
; 74   : 
; 75   : 	// Set default sample rate
; 76   : 	if (!SetSampleRate(OUTPUT_SAMPLERATE))
; 77   : 	{
; 78   :         ERRMSG((L"CAIC23::InitHardware: Failed to configure sample rate"));

  00030	eb000000	 bl          NKDbgPrintfW

; 83   : 
; 84   : exit:

  00034	ea000022	 b           |$exit$37983|
  00038		 |$LN8@InitHardwa|

; 55   : 		goto exit;
; 56   : 	}
; 57   : 	I2CSetSlaveAddress(m_hI2CDevice, (UINT16)I2Caddr);

  00038	e1a01806	 mov         r1, r6, lsl #16
  0003c	e1a01821	 mov         r1, r1, lsr #16
  00040	eb000000	 bl          I2CSetSlaveAddress

; 58   : 	I2CSetSubAddressMode(m_hI2CDevice, I2C_SUBADDRESS_MODE_8);

  00044	e5950000	 ldr         r0, [r5]
  00048	e3a01001	 mov         r1, #1
  0004c	eb000000	 bl          I2CSetSubAddressMode

; 59   : 	I2CSetBaudIndex(m_hI2CDevice, I2CBrIndex);

  00050	e5950000	 ldr         r0, [r5]
  00054	e1a01007	 mov         r1, r7
  00058	eb000000	 bl          I2CSetBaudIndex

; 60   : 
; 61   : 	// Reset Codec
; 62   : 	if (!ResetCodec())

  0005c	e3a02000	 mov         r2, #0
  00060	e3a0100f	 mov         r1, #0xF
  00064	e1a00005	 mov         r0, r5
  00068	eb000000	 bl          |?I2CWriteRegister@CAIC23@@AAAHEG@Z|
  0006c	e3500000	 cmp         r0, #0
  00070	1a000002	 bne         |$LN6@InitHardwa|

; 63   : 	{
; 64   : 		ERRMSG((L"CAIC23::InitHardware: Failed to reset codec"));

  00074	e59f005c	 ldr         r0, [pc, #0x5C]

; 72   : 		goto exit;
; 73   : 	}
; 74   : 
; 75   : 	// Set default sample rate
; 76   : 	if (!SetSampleRate(OUTPUT_SAMPLERATE))
; 77   : 	{
; 78   :         ERRMSG((L"CAIC23::InitHardware: Failed to configure sample rate"));

  00078	eb000000	 bl          NKDbgPrintfW

; 83   : 
; 84   : exit:

  0007c	ea000010	 b           |$exit$37983|
  00080		 |$LN6@InitHardwa|

; 65   : 		goto exit;
; 66   : 	}
; 67   : 
; 68   : 	// Configure Codec
; 69   : 	if (!ConfigureCodec())

  00080	e1a00005	 mov         r0, r5
  00084	eb000000	 bl          |?ConfigureCodec@CAIC23@@AAAHXZ|
  00088	e3500000	 cmp         r0, #0
  0008c	1a000002	 bne         |$LN4@InitHardwa|

; 70   : 	{
; 71   :         ERRMSG((L"CAIC23::InitHardware: Failed to configure codec"));

  00090	e59f003c	 ldr         r0, [pc, #0x3C]

; 72   : 		goto exit;
; 73   : 	}
; 74   : 
; 75   : 	// Set default sample rate
; 76   : 	if (!SetSampleRate(OUTPUT_SAMPLERATE))
; 77   : 	{
; 78   :         ERRMSG((L"CAIC23::InitHardware: Failed to configure sample rate"));

  00094	eb000000	 bl          NKDbgPrintfW

; 83   : 
; 84   : exit:

  00098	ea000009	 b           |$exit$37983|
  0009c		 |$LN4@InitHardwa|
  0009c	e3a03b2b	 mov         r3, #0x2B, 22
  000a0	e3831044	 orr         r1, r3, #0x44
  000a4	e1a00005	 mov         r0, r5
  000a8	eb000000	 bl          |?SetSampleRate@CAIC23@@AAAHK@Z|
  000ac	e3500000	 cmp         r0, #0
  000b0	1a000002	 bne         |$LN2@InitHardwa|
  000b4	e59f0014	 ldr         r0, [pc, #0x14]
  000b8	eb000000	 bl          NKDbgPrintfW
  000bc	ea000000	 b           |$exit$37983|
  000c0		 |$LN2@InitHardwa|

; 79   : 		goto exit;
; 80   : 	}
; 81   : 
; 82   : 	bRet = TRUE;

  000c0	e3a04001	 mov         r4, #1
  000c4		 |$exit$37983|

; 85   : 
; 86   : 	return bRet;
; 87   : }

  000c4	e1a00004	 mov         r0, r4
  000c8	e8bd40f0	 ldmia       sp!, {r4 - r7, lr}
  000cc	e12fff1e	 bx          lr
  000d0		 |$LN25@InitHardwa|
  000d0		 |$LN26@InitHardwa|
  000d0	00000000	 DCD         |??_C@_1IK@LICONBLF@?$AA?$FL?$AAE?$AAR?$AAR?$AAO?$AAR?$AA?$FN?$AA?5?$AA?$CI?$AAL?$AA?$CC?$AAC?$AAA?$AAI?$AAC?$AA2?$AA3?$AA?3?$AA?3?$AAI?$AAn?$AAi?$AAt?$AAH?$AAa?$AAr?$AAd?$AAw?$AAa?$AAr?$AAe?$AA?3@|
  000d4		 |$LN27@InitHardwa|
  000d4	00000000	 DCD         |??_C@_1HO@EFMIEACB@?$AA?$FL?$AAE?$AAR?$AAR?$AAO?$AAR?$AA?$FN?$AA?5?$AA?$CI?$AAL?$AA?$CC?$AAC?$AAA?$AAI?$AAC?$AA2?$AA3?$AA?3?$AA?3?$AAI?$AAn?$AAi?$AAt?$AAH?$AAa?$AAr?$AAd?$AAw?$AAa?$AAr?$AAe?$AA?3@|
  000d8		 |$LN28@InitHardwa|
  000d8	00000000	 DCD         |??_C@_1HG@GCNKLOKM@?$AA?$FL?$AAE?$AAR?$AAR?$AAO?$AAR?$AA?$FN?$AA?5?$AA?$CI?$AAL?$AA?$CC?$AAC?$AAA?$AAI?$AAC?$AA2?$AA3?$AA?3?$AA?3?$AAI?$AAn?$AAi?$AAt?$AAH?$AAa?$AAr?$AAd?$AAw?$AAa?$AAr?$AAe?$AA?3@|
  000dc		 |$LN29@InitHardwa|
  000dc	00000000	 DCD         |??_C@_1HO@KJMOELFH@?$AA?$FL?$AAE?$AAR?$AAR?$AAO?$AAR?$AA?$FN?$AA?5?$AA?$CI?$AAL?$AA?$CC?$AAC?$AAA?$AAI?$AAC?$AA2?$AA3?$AA?3?$AA?3?$AAI?$AAn?$AAi?$AAt?$AAH?$AAa?$AAr?$AAd?$AAw?$AAa?$AAr?$AAe?$AA?3@|
  000e0		 |$M38321|

			 ENDP  ; |?InitHardware@CAIC23@@QAAHKKK@Z|, CAIC23::InitHardware

	END
