; Listing generated by Microsoft (R) Optimizing Compiler Version 14.01.60511.01 

	TTL	C:\WINCE600\PLATFORM\Z2170P\SRC\BOOTLOADER\EBOOT\menu.c
	CODE32

  00000			 AREA	 |.drectve|, DRECTVE
	DCB	"-defaultlib:LIBCMT "
	DCB	"-defaultlib:OLDNAMES "

	EXPORT	|??_C@_1FK@IBMDHDI@?$AAM?$AAP?$AAU?$AA?$FL?$AA1?$AA0?$AA0?$AA0?$AAM?$AAh?$AAz?$AA?5?$AA?$EA?$AA?5?$AA1?$AA?4?$AA3?$AA7?$AA5?$AAV?$AA?$FN?$AA?0?$AA?5?$AAI?$AAV?$AAA?$AA2?$AA?$FL?$AA8?$AA0?$AA0?$AAM@| [ DATA ] ; `string'
	EXPORT	|??_C@_1FO@MCHCGGFD@?$AAM?$AAP?$AAU?$AA?$FL?$AA8?$AA0?$AA0?$AAM?$AAh?$AAz?$AA?5?$AA?5?$AA?$EA?$AA?5?$AA1?$AA?4?$AA2?$AA6?$AA2?$AA5?$AAV?$AA?$FN?$AA?0?$AA?5?$AAI?$AAV?$AAA?$AA2?$AA?$FL?$AA6?$AA6?$AA0@| [ DATA ] ; `string'
	EXPORT	|??_C@_1FO@CAGHGIKC@?$AAM?$AAP?$AAU?$AA?$FL?$AA6?$AA0?$AA0?$AAM?$AAh?$AAz?$AA?5?$AA?5?$AA?$EA?$AA?5?$AA1?$AA?4?$AA1?$AA0?$AA0?$AA0?$AAV?$AA?$FN?$AA?0?$AA?5?$AAI?$AAV?$AAA?$AA2?$AA?$FL?$AA5?$AA2?$AA0@| [ DATA ] ; `string'
	EXPORT	|??_C@_1FO@ELABMNJD@?$AAM?$AAP?$AAU?$AA?$FL?$AA3?$AA0?$AA0?$AAM?$AAh?$AAz?$AA?5?$AA?5?$AA?$EA?$AA?5?$AA0?$AA?4?$AA9?$AA3?$AA7?$AA5?$AAV?$AA?$FN?$AA?0?$AA?5?$AAI?$AAV?$AAA?$AA2?$AA?$FL?$AA2?$AA6?$AA0@| [ DATA ] ; `string'
	EXPORT	|??_C@_1FG@KPBOKIAA@?$AAM?$AAP?$AAU?$AA?$FL?$AA7?$AA2?$AA0?$AAh?$AAz?$AA?5?$AA?$EA?$AA?5?$AA1?$AA?4?$AA3?$AA5?$AA0?$AA0?$AAV?$AA?$FN?$AA?0?$AA?5?$AAI?$AAV?$AAA?$AA2?$AA?$FL?$AA5?$AA2?$AA0?$AAM?$AAh@| [ DATA ] ; `string'
	EXPORT	|??_C@_1FI@GKLNGOFA@?$AAM?$AAP?$AAU?$AA?$FL?$AA6?$AA0?$AA0?$AAM?$AAh?$AAz?$AA?5?$AA?$EA?$AA?5?$AA1?$AA?4?$AA3?$AA5?$AA0?$AA0?$AAV?$AA?$FN?$AA?0?$AA?5?$AAI?$AAV?$AAA?$AA2?$AA?$FL?$AA4?$AA3?$AA0?$AAM@| [ DATA ] ; `string'
	EXPORT	|??_C@_1FI@GMIAOKFE@?$AAM?$AAP?$AAU?$AA?$FL?$AA5?$AA5?$AA0?$AAM?$AAh?$AAz?$AA?5?$AA?$EA?$AA?5?$AA1?$AA?4?$AA2?$AA7?$AA5?$AA0?$AAV?$AA?$FN?$AA?0?$AA?5?$AAI?$AAV?$AAA?$AA2?$AA?$FL?$AA4?$AA0?$AA0?$AAM@| [ DATA ] ; `string'
	EXPORT	|??_C@_1FI@LNIHINJA@?$AAM?$AAP?$AAU?$AA?$FL?$AA5?$AA0?$AA0?$AAM?$AAh?$AAz?$AA?5?$AA?$EA?$AA?5?$AA1?$AA?4?$AA2?$AA0?$AA0?$AA0?$AAV?$AA?$FN?$AA?0?$AA?5?$AAI?$AAV?$AAA?$AA2?$AA?$FL?$AA3?$AA6?$AA0?$AAM@| [ DATA ] ; `string'
	EXPORT	|??_C@_1FG@IMGDNCBP@?$AAM?$AAP?$AAU?$AA?$FL?$AA2?$AA5?$AA0?$AAM?$AAh?$AAz?$AA?5?$AA?$EA?$AA?5?$AA1?$AA?4?$AA0?$AA0?$AA0?$AAV?$AA?$FN?$AA?0?$AA?5?$AAI?$AAV?$AAA?$AA2?$AA?$FL?$AA1?$AA8?$AA0?$AAM?$AAh@| [ DATA ] ; `string'
	EXPORT	|??_C@_1FI@HKFGBOFG@?$AAM?$AAP?$AAU?$AA?$FL?$AA1?$AA2?$AA5?$AAM?$AAh?$AAz?$AA?5?$AA?$EA?$AA?5?$AA0?$AA?4?$AA9?$AA7?$AA5?$AAV?$AA?$FN?$AA?0?$AA?5?$AAI?$AAV?$AAA?$AA2?$AA?$FL?$AA?5?$AA9?$AA0?$AAM?$AAh@| [ DATA ] ; `string'
	EXPORT	|??_C@_1BM@KBHAINFM@?$AAI?$AAn?$AAv?$AAa?$AAl?$AAi?$AAd?$AA?5?$AAE?$AAn?$AAt?$AAr?$AAy?$AA?$AA@| [ DATA ] ; `string'
	EXPORT	|??_C@_1CE@BMIKEEML@?$AAD?$AAV?$AAI?$AA?5?$AA1?$AA2?$AA8?$AA0?$AAx?$AA7?$AA2?$AA0?$AA?5?$AA6?$AA0?$AAH?$AAz?$AA?$AA@| [ DATA ] ; `string'
	EXPORT	|??_C@_1CE@LJDPDOKE@?$AAD?$AAV?$AAI?$AA?5?$AA1?$AA0?$AA2?$AA4?$AAx?$AA7?$AA6?$AA8?$AA?5?$AA6?$AA0?$AAH?$AAz?$AA?$AA@| [ DATA ] ; `string'
	EXPORT	|??_C@_1CE@NBKEBDGN@?$AAD?$AAV?$AAI?$AA?5?$AA?5?$AA8?$AA0?$AA0?$AAx?$AA6?$AA0?$AA0?$AA?5?$AA5?$AA6?$AAH?$AAz?$AA?$AA@| [ DATA ] ; `string'
	EXPORT	|??_C@_1CE@PMPMKBOJ@?$AAD?$AAV?$AAI?$AA?5?$AA?5?$AA8?$AA0?$AA0?$AAx?$AA6?$AA0?$AA0?$AA?5?$AA6?$AA0?$AAH?$AAz?$AA?$AA@| [ DATA ] ; `string'
	EXPORT	|??_C@_1CE@IKDLFFCF@?$AAD?$AAV?$AAI?$AA?5?$AA?5?$AA8?$AA0?$AA0?$AAx?$AA4?$AA8?$AA0?$AA?5?$AA6?$AA0?$AAH?$AAz?$AA?$AA@| [ DATA ] ; `string'
	EXPORT	|??_C@_1CE@CECNFHDE@?$AAD?$AAV?$AAI?$AA?5?$AA?5?$AA6?$AA4?$AA0?$AAx?$AA4?$AA8?$AA0?$AA?5?$AA7?$AA2?$AAH?$AAz?$AA?$AA@| [ DATA ] ; `string'
	EXPORT	|??_C@_1CE@IJMKDLHH@?$AAD?$AAV?$AAI?$AA?5?$AA?5?$AA6?$AA4?$AA0?$AAx?$AA4?$AA8?$AA0?$AA?5?$AA6?$AA0?$AAH?$AAz?$AA?$AA@| [ DATA ] ; `string'
	EXPORT	|??_C@_1CE@FKEPMAF@?$AAL?$AAC?$AAD?$AA?5?$AA?5?$AA4?$AA8?$AA0?$AAx?$AA6?$AA4?$AA0?$AA?5?$AA6?$AA0?$AAH?$AAz?$AA?$AA@| [ DATA ] ; `string'
	EXPORT	|??_C@_1BE@FNAHCCDL@?$AAM?$AAa?$AAi?$AAn?$AA?5?$AAM?$AAe?$AAn?$AAu?$AA?$AA@| [ DATA ] ; `string'
	EXPORT	|??_C@_1CA@MOPOGELI@?$AAS?$AAe?$AAl?$AAe?$AAc?$AAt?$AA?5?$AAO?$AAP?$AAP?$AA?5?$AAM?$AAo?$AAd?$AAe?$AA?$AA@| [ DATA ] ; `string'
	EXPORT	|??_C@_1DE@DBBLEEO@?$AAS?$AAe?$AAl?$AAe?$AAc?$AAt?$AA?5?$AAD?$AAi?$AAs?$AAp?$AAl?$AAa?$AAy?$AA?5?$AAR?$AAe?$AAs?$AAo?$AAl?$AAu?$AAt?$AAi?$AAo?$AAn?$AA?$AA@| [ DATA ] ; `string'
	EXPORT	|??_C@_1EG@HMEOLENI@?$AAE?$AAn?$AAa?$AAb?$AAl?$AAe?$AA?1?$AAD?$AAi?$AAs?$AAa?$AAb?$AAl?$AAe?$AA?5?$AAO?$AAA?$AAL?$AA?5?$AAR?$AAe?$AAt?$AAa?$AAi?$AAl?$AA?5?$AAM?$AAe?$AAs?$AAs?$AAa?$AAg@| [ DATA ] ; `string'
	EXPORT	|??_C@_1CC@GBKCLJHP@?$AAF?$AAl?$AAa?$AAs?$AAh?$AA?5?$AAM?$AAa?$AAn?$AAa?$AAg?$AAe?$AAm?$AAe?$AAn?$AAt?$AA?$AA@| [ DATA ] ; `string'
	EXPORT	|??_C@_1BM@MOEMNNDE@?$AAS?$AAa?$AAv?$AAe?$AA?5?$AAS?$AAe?$AAt?$AAt?$AAi?$AAn?$AAg?$AAs?$AA?$AA@| [ DATA ] ; `string'
	EXPORT	|??_C@_1BM@LAACEGCM@?$AAS?$AAe?$AAt?$AA?5?$AAD?$AAe?$AAv?$AAi?$AAc?$AAe?$AA?5?$AAI?$AAD?$AA?$AA@| [ DATA ] ; `string'
	EXPORT	|??_C@_1CA@HKCGHDKE@?$AAS?$AAD?$AAC?$AAa?$AAr?$AAd?$AA?5?$AAS?$AAe?$AAt?$AAt?$AAi?$AAn?$AAg?$AAs?$AA?$AA@| [ DATA ] ; `string'
	EXPORT	|??_C@_1CC@PCCBMLKB@?$AAN?$AAe?$AAt?$AAw?$AAo?$AAr?$AAk?$AA?5?$AAS?$AAe?$AAt?$AAt?$AAi?$AAn?$AAg?$AAs?$AA?$AA@| [ DATA ] ; `string'
	EXPORT	|??_C@_1M@OPFBIOCF@?$AAD?$AAe?$AAb?$AAu?$AAg?$AA?$AA@| [ DATA ] ; `string'
	EXPORT	|??_C@_1DG@LLAJHPJA@?$AAS?$AAe?$AAl?$AAe?$AAc?$AAt?$AA?5?$AAK?$AAI?$AAT?$AAL?$AA?5?$AA?$CI?$AAD?$AAe?$AAb?$AAu?$AAg?$AA?$CJ?$AA?5?$AAD?$AAe?$AAv?$AAi?$AAc?$AAe?$AA?$AA@| [ DATA ] ; `string'
	EXPORT	|??_C@_19JCAOHIEH@?$AAB?$AAo?$AAo?$AAt?$AA?$AA@| [ DATA ] ; `string'
	EXPORT	|??_C@_1CG@BBALNGAE@?$AAS?$AAe?$AAl?$AAe?$AAc?$AAt?$AA?5?$AAB?$AAo?$AAo?$AAt?$AA?5?$AAD?$AAe?$AAv?$AAi?$AAc?$AAe?$AA?$AA@| [ DATA ] ; `string'
	EXPORT	|??_C@_1BO@HAIPBIND@?$AAE?$AAn?$AAt?$AAe?$AAr?$AA?5?$AAF?$AAi?$AAl?$AAe?$AAn?$AAa?$AAm?$AAe?$AA?$AA@| [ DATA ] ; `string'
	EXPORT	|??_C@_1CE@DFLFAFMD@?$AAE?$AAx?$AAi?$AAt?$AA?5?$AAa?$AAn?$AAd?$AA?5?$AAC?$AAo?$AAn?$AAt?$AAi?$AAn?$AAu?$AAe?$AA?$AA@| [ DATA ] ; `string'
	EXPORT	|??_C@_1CA@LLFAIJM@?$AAS?$AAe?$AAt?$AA?5?$AAM?$AAA?$AAC?$AA?5?$AAa?$AAd?$AAd?$AAr?$AAe?$AAs?$AAs?$AA?$AA@| [ DATA ] ; `string'
	EXPORT	|??_C@_1M@NJLEOPAB@?$AAV?$AAM?$AAI?$AAN?$AAI?$AA?$AA@| [ DATA ] ; `string'
	EXPORT	|??_C@_1CK@OKOLJFGH@?$AAE?$AAn?$AAa?$AAb?$AAl?$AAe?$AA?1?$AAd?$AAi?$AAs?$AAa?$AAb?$AAl?$AAe?$AA?5?$AAV?$AAM?$AAI?$AAN?$AAI?$AA?$AA@| [ DATA ] ; `string'
	EXPORT	|??_C@_1BO@BODFGHPI@?$AAD?$AAe?$AAf?$AAa?$AAu?$AAl?$AAt?$AA?5?$AAr?$AAo?$AAu?$AAt?$AAe?$AAr?$AA?$AA@| [ DATA ] ; `string'
	EXPORT	|??_C@_1CG@PDJPJAON@?$AAS?$AAe?$AAt?$AA?5?$AAd?$AAe?$AAf?$AAa?$AAu?$AAl?$AAt?$AA?5?$AAr?$AAo?$AAu?$AAt?$AAe?$AAr?$AA?$AA@| [ DATA ] ; `string'
	EXPORT	|??_C@_1BI@BNFAJPCD@?$AAS?$AAe?$AAt?$AA?5?$AAI?$AAP?$AA?5?$AAm?$AAa?$AAs?$AAk?$AA?$AA@| [ DATA ] ; `string'
	EXPORT	|??_C@_1O@HAMLNBEA@?$AAD?$AAe?$AAv?$AAi?$AAc?$AAe?$AA?$AA@| [ DATA ] ; `string'
	EXPORT	|??_C@_1BO@OBBADFOO@?$AAS?$AAe?$AAt?$AA?5?$AAI?$AAP?$AA?5?$AAa?$AAd?$AAd?$AAr?$AAe?$AAs?$AAs?$AA?$AA@| [ DATA ] ; `string'
	EXPORT	|??_C@_19DDJNJOGL@?$AAD?$AAH?$AAC?$AAP?$AA?$AA@| [ DATA ] ; `string'
	EXPORT	|??_C@_1CI@OHHEPHNA@?$AAE?$AAn?$AAa?$AAb?$AAl?$AAe?$AA?1?$AAd?$AAi?$AAs?$AAa?$AAb?$AAl?$AAe?$AA?5?$AAD?$AAH?$AAC?$AAP?$AA?$AA@| [ DATA ] ; `string'
	EXPORT	|??_C@_1DC@FMHJOEGL@?$AAK?$AAI?$AAT?$AAL?$AA?5?$AAA?$AAc?$AAt?$AAi?$AAv?$AAe?$AA?1?$AAP?$AAa?$AAs?$AAs?$AAi?$AAv?$AAe?$AA?5?$AAm?$AAo?$AAd?$AAe?$AA?$AA@| [ DATA ] ; `string'
	EXPORT	|??_C@_1DC@FHPHDMKC@?$AAK?$AAI?$AAT?$AAL?$AA?5?$AAi?$AAn?$AAt?$AAe?$AAr?$AAr?$AAu?$AAp?$AAt?$AA?1?$AAp?$AAo?$AAl?$AAl?$AA?5?$AAm?$AAo?$AAd?$AAe?$AA?$AA@| [ DATA ] ; `string'
	EXPORT	|??_C@_19KCABPHM@?$AAK?$AAI?$AAT?$AAL?$AA?$AA@| [ DATA ] ; `string'
	EXPORT	|??_C@_1CI@NOMJHGMH@?$AAE?$AAn?$AAa?$AAb?$AAl?$AAe?$AA?1?$AAd?$AAi?$AAs?$AAa?$AAb?$AAl?$AAe?$AA?5?$AAK?$AAI?$AAT?$AAL?$AA?$AA@| [ DATA ] ; `string'
	EXPORT	|??_C@_1CM@CFLHLMJF@?$AAS?$AAh?$AAo?$AAw?$AA?5?$AAC?$AAu?$AAr?$AAr?$AAe?$AAn?$AAt?$AA?5?$AAS?$AAe?$AAt?$AAt?$AAi?$AAn?$AAg?$AAs?$AA?$AA@| [ DATA ] ; `string'
	EXPORT	|dispResMenu| [ DATA ]
	EXPORT	|oppModeMenu35x| [ DATA ]
	EXPORT	|oppModeMenu37x| [ DATA ]
	IMPORT	|g_menuFlash|
	IMPORT	|OALBLMenuShow|
	IMPORT	|g_kitlDevices|
	IMPORT	|g_bootDevices|
	IMPORT	|OALBLMenuSelectDevice|
	IMPORT	|OALBLMenuSetIpMask|
	IMPORT	|OALBLMenuSetIpAddress|
	IMPORT	|g_bootCfg|
	IMPORT	|OALBLMenuEnable|

  00000			 AREA	 |.rdata|, DATA, READONLY
|??_C@_1FK@IBMDHDI@?$AAM?$AAP?$AAU?$AA?$FL?$AA1?$AA0?$AA0?$AA0?$AAM?$AAh?$AAz?$AA?5?$AA?$EA?$AA?5?$AA1?$AA?4?$AA3?$AA7?$AA5?$AAV?$AA?$FN?$AA?0?$AA?5?$AAI?$AAV?$AAA?$AA2?$AA?$FL?$AA8?$AA0?$AA0?$AAM@| DCB "M"
	DCB	0x0, "P", 0x0, "U", 0x0, "[", 0x0, "1", 0x0, "0", 0x0, "0"
	DCB	0x0, "0", 0x0, "M", 0x0, "h", 0x0, "z", 0x0, " ", 0x0, "@"
	DCB	0x0, " ", 0x0, "1", 0x0, ".", 0x0, "3", 0x0, "7", 0x0, "5"
	DCB	0x0, "V", 0x0, "]", 0x0, ",", 0x0, " ", 0x0, "I", 0x0, "V"
	DCB	0x0, "A", 0x0, "2", 0x0, "[", 0x0, "8", 0x0, "0", 0x0, "0"
	DCB	0x0, "M", 0x0, "h", 0x0, "z", 0x0, " ", 0x0, "@", 0x0, " "
	DCB	0x0, "1", 0x0, ".", 0x0, "3", 0x0, "7", 0x0, "5", 0x0, "V"
	DCB	0x0, "]", 0x0, 0x0, 0x0			; `string'

  00000			 AREA	 |.rdata|, DATA, READONLY
|??_C@_1FO@MCHCGGFD@?$AAM?$AAP?$AAU?$AA?$FL?$AA8?$AA0?$AA0?$AAM?$AAh?$AAz?$AA?5?$AA?5?$AA?$EA?$AA?5?$AA1?$AA?4?$AA2?$AA6?$AA2?$AA5?$AAV?$AA?$FN?$AA?0?$AA?5?$AAI?$AAV?$AAA?$AA2?$AA?$FL?$AA6?$AA6?$AA0@| DCB "M"
	DCB	0x0, "P", 0x0, "U", 0x0, "[", 0x0, "8", 0x0, "0", 0x0, "0"
	DCB	0x0, "M", 0x0, "h", 0x0, "z", 0x0, " ", 0x0, " ", 0x0, "@"
	DCB	0x0, " ", 0x0, "1", 0x0, ".", 0x0, "2", 0x0, "6", 0x0, "2"
	DCB	0x0, "5", 0x0, "V", 0x0, "]", 0x0, ",", 0x0, " ", 0x0, "I"
	DCB	0x0, "V", 0x0, "A", 0x0, "2", 0x0, "[", 0x0, "6", 0x0, "6"
	DCB	0x0, "0", 0x0, "M", 0x0, "h", 0x0, "z", 0x0, " ", 0x0, "@"
	DCB	0x0, " ", 0x0, "1", 0x0, ".", 0x0, "2", 0x0, "6", 0x0, "2"
	DCB	0x0, "5", 0x0, "V", 0x0, "]", 0x0, 0x0, 0x0 ; `string'

  00000			 AREA	 |.rdata|, DATA, READONLY
|??_C@_1FO@CAGHGIKC@?$AAM?$AAP?$AAU?$AA?$FL?$AA6?$AA0?$AA0?$AAM?$AAh?$AAz?$AA?5?$AA?5?$AA?$EA?$AA?5?$AA1?$AA?4?$AA1?$AA0?$AA0?$AA0?$AAV?$AA?$FN?$AA?0?$AA?5?$AAI?$AAV?$AAA?$AA2?$AA?$FL?$AA5?$AA2?$AA0@| DCB "M"
	DCB	0x0, "P", 0x0, "U", 0x0, "[", 0x0, "6", 0x0, "0", 0x0, "0"
	DCB	0x0, "M", 0x0, "h", 0x0, "z", 0x0, " ", 0x0, " ", 0x0, "@"
	DCB	0x0, " ", 0x0, "1", 0x0, ".", 0x0, "1", 0x0, "0", 0x0, "0"
	DCB	0x0, "0", 0x0, "V", 0x0, "]", 0x0, ",", 0x0, " ", 0x0, "I"
	DCB	0x0, "V", 0x0, "A", 0x0, "2", 0x0, "[", 0x0, "5", 0x0, "2"
	DCB	0x0, "0", 0x0, "M", 0x0, "h", 0x0, "z", 0x0, " ", 0x0, "@"
	DCB	0x0, " ", 0x0, "1", 0x0, ".", 0x0, "1", 0x0, "0", 0x0, "0"
	DCB	0x0, "0", 0x0, "V", 0x0, "]", 0x0, 0x0, 0x0 ; `string'

  00000			 AREA	 |.rdata|, DATA, READONLY
|??_C@_1FO@ELABMNJD@?$AAM?$AAP?$AAU?$AA?$FL?$AA3?$AA0?$AA0?$AAM?$AAh?$AAz?$AA?5?$AA?5?$AA?$EA?$AA?5?$AA0?$AA?4?$AA9?$AA3?$AA7?$AA5?$AAV?$AA?$FN?$AA?0?$AA?5?$AAI?$AAV?$AAA?$AA2?$AA?$FL?$AA2?$AA6?$AA0@| DCB "M"
	DCB	0x0, "P", 0x0, "U", 0x0, "[", 0x0, "3", 0x0, "0", 0x0, "0"
	DCB	0x0, "M", 0x0, "h", 0x0, "z", 0x0, " ", 0x0, " ", 0x0, "@"
	DCB	0x0, " ", 0x0, "0", 0x0, ".", 0x0, "9", 0x0, "3", 0x0, "7"
	DCB	0x0, "5", 0x0, "V", 0x0, "]", 0x0, ",", 0x0, " ", 0x0, "I"
	DCB	0x0, "V", 0x0, "A", 0x0, "2", 0x0, "[", 0x0, "2", 0x0, "6"
	DCB	0x0, "0", 0x0, "M", 0x0, "h", 0x0, "z", 0x0, " ", 0x0, "@"
	DCB	0x0, " ", 0x0, "0", 0x0, ".", 0x0, "9", 0x0, "3", 0x0, "7"
	DCB	0x0, "5", 0x0, "V", 0x0, "]", 0x0, 0x0, 0x0 ; `string'

  00000			 AREA	 |.rdata|, DATA, READONLY
|??_C@_1FG@KPBOKIAA@?$AAM?$AAP?$AAU?$AA?$FL?$AA7?$AA2?$AA0?$AAh?$AAz?$AA?5?$AA?$EA?$AA?5?$AA1?$AA?4?$AA3?$AA5?$AA0?$AA0?$AAV?$AA?$FN?$AA?0?$AA?5?$AAI?$AAV?$AAA?$AA2?$AA?$FL?$AA5?$AA2?$AA0?$AAM?$AAh@| DCB "M"
	DCB	0x0, "P", 0x0, "U", 0x0, "[", 0x0, "7", 0x0, "2", 0x0, "0"
	DCB	0x0, "h", 0x0, "z", 0x0, " ", 0x0, "@", 0x0, " ", 0x0, "1"
	DCB	0x0, ".", 0x0, "3", 0x0, "5", 0x0, "0", 0x0, "0", 0x0, "V"
	DCB	0x0, "]", 0x0, ",", 0x0, " ", 0x0, "I", 0x0, "V", 0x0, "A"
	DCB	0x0, "2", 0x0, "[", 0x0, "5", 0x0, "2", 0x0, "0", 0x0, "M"
	DCB	0x0, "h", 0x0, "z", 0x0, " ", 0x0, "@", 0x0, " ", 0x0, "1"
	DCB	0x0, ".", 0x0, "3", 0x0, "5", 0x0, "V", 0x0, "]", 0x0, 0x0
	DCB	0x0					; `string'

  00000			 AREA	 |.rdata|, DATA, READONLY
|??_C@_1FI@GKLNGOFA@?$AAM?$AAP?$AAU?$AA?$FL?$AA6?$AA0?$AA0?$AAM?$AAh?$AAz?$AA?5?$AA?$EA?$AA?5?$AA1?$AA?4?$AA3?$AA5?$AA0?$AA0?$AAV?$AA?$FN?$AA?0?$AA?5?$AAI?$AAV?$AAA?$AA2?$AA?$FL?$AA4?$AA3?$AA0?$AAM@| DCB "M"
	DCB	0x0, "P", 0x0, "U", 0x0, "[", 0x0, "6", 0x0, "0", 0x0, "0"
	DCB	0x0, "M", 0x0, "h", 0x0, "z", 0x0, " ", 0x0, "@", 0x0, " "
	DCB	0x0, "1", 0x0, ".", 0x0, "3", 0x0, "5", 0x0, "0", 0x0, "0"
	DCB	0x0, "V", 0x0, "]", 0x0, ",", 0x0, " ", 0x0, "I", 0x0, "V"
	DCB	0x0, "A", 0x0, "2", 0x0, "[", 0x0, "4", 0x0, "3", 0x0, "0"
	DCB	0x0, "M", 0x0, "h", 0x0, "z", 0x0, " ", 0x0, "@", 0x0, " "
	DCB	0x0, "1", 0x0, ".", 0x0, "3", 0x0, "5", 0x0, "V", 0x0, "]"
	DCB	0x0, 0x0, 0x0				; `string'

  00000			 AREA	 |.rdata|, DATA, READONLY
|??_C@_1FI@GMIAOKFE@?$AAM?$AAP?$AAU?$AA?$FL?$AA5?$AA5?$AA0?$AAM?$AAh?$AAz?$AA?5?$AA?$EA?$AA?5?$AA1?$AA?4?$AA2?$AA7?$AA5?$AA0?$AAV?$AA?$FN?$AA?0?$AA?5?$AAI?$AAV?$AAA?$AA2?$AA?$FL?$AA4?$AA0?$AA0?$AAM@| DCB "M"
	DCB	0x0, "P", 0x0, "U", 0x0, "[", 0x0, "5", 0x0, "5", 0x0, "0"
	DCB	0x0, "M", 0x0, "h", 0x0, "z", 0x0, " ", 0x0, "@", 0x0, " "
	DCB	0x0, "1", 0x0, ".", 0x0, "2", 0x0, "7", 0x0, "5", 0x0, "0"
	DCB	0x0, "V", 0x0, "]", 0x0, ",", 0x0, " ", 0x0, "I", 0x0, "V"
	DCB	0x0, "A", 0x0, "2", 0x0, "[", 0x0, "4", 0x0, "0", 0x0, "0"
	DCB	0x0, "M", 0x0, "h", 0x0, "z", 0x0, " ", 0x0, "@", 0x0, " "
	DCB	0x0, "1", 0x0, ".", 0x0, "2", 0x0, "7", 0x0, "V", 0x0, "]"
	DCB	0x0, 0x0, 0x0				; `string'

  00000			 AREA	 |.rdata|, DATA, READONLY
|??_C@_1FI@LNIHINJA@?$AAM?$AAP?$AAU?$AA?$FL?$AA5?$AA0?$AA0?$AAM?$AAh?$AAz?$AA?5?$AA?$EA?$AA?5?$AA1?$AA?4?$AA2?$AA0?$AA0?$AA0?$AAV?$AA?$FN?$AA?0?$AA?5?$AAI?$AAV?$AAA?$AA2?$AA?$FL?$AA3?$AA6?$AA0?$AAM@| DCB "M"
	DCB	0x0, "P", 0x0, "U", 0x0, "[", 0x0, "5", 0x0, "0", 0x0, "0"
	DCB	0x0, "M", 0x0, "h", 0x0, "z", 0x0, " ", 0x0, "@", 0x0, " "
	DCB	0x0, "1", 0x0, ".", 0x0, "2", 0x0, "0", 0x0, "0", 0x0, "0"
	DCB	0x0, "V", 0x0, "]", 0x0, ",", 0x0, " ", 0x0, "I", 0x0, "V"
	DCB	0x0, "A", 0x0, "2", 0x0, "[", 0x0, "3", 0x0, "6", 0x0, "0"
	DCB	0x0, "M", 0x0, "h", 0x0, "z", 0x0, " ", 0x0, "@", 0x0, " "
	DCB	0x0, "1", 0x0, ".", 0x0, "2", 0x0, "0", 0x0, "V", 0x0, "]"
	DCB	0x0, 0x0, 0x0				; `string'

  00000			 AREA	 |.rdata|, DATA, READONLY
|??_C@_1FG@IMGDNCBP@?$AAM?$AAP?$AAU?$AA?$FL?$AA2?$AA5?$AA0?$AAM?$AAh?$AAz?$AA?5?$AA?$EA?$AA?5?$AA1?$AA?4?$AA0?$AA0?$AA0?$AAV?$AA?$FN?$AA?0?$AA?5?$AAI?$AAV?$AAA?$AA2?$AA?$FL?$AA1?$AA8?$AA0?$AAM?$AAh@| DCB "M"
	DCB	0x0, "P", 0x0, "U", 0x0, "[", 0x0, "2", 0x0, "5", 0x0, "0"
	DCB	0x0, "M", 0x0, "h", 0x0, "z", 0x0, " ", 0x0, "@", 0x0, " "
	DCB	0x0, "1", 0x0, ".", 0x0, "0", 0x0, "0", 0x0, "0", 0x0, "V"
	DCB	0x0, "]", 0x0, ",", 0x0, " ", 0x0, "I", 0x0, "V", 0x0, "A"
	DCB	0x0, "2", 0x0, "[", 0x0, "1", 0x0, "8", 0x0, "0", 0x0, "M"
	DCB	0x0, "h", 0x0, "z", 0x0, " ", 0x0, "@", 0x0, " ", 0x0, "1"
	DCB	0x0, ".", 0x0, "0", 0x0, "0", 0x0, "V", 0x0, "]", 0x0, 0x0
	DCB	0x0					; `string'

  00000			 AREA	 |.rdata|, DATA, READONLY
|??_C@_1FI@HKFGBOFG@?$AAM?$AAP?$AAU?$AA?$FL?$AA1?$AA2?$AA5?$AAM?$AAh?$AAz?$AA?5?$AA?$EA?$AA?5?$AA0?$AA?4?$AA9?$AA7?$AA5?$AAV?$AA?$FN?$AA?0?$AA?5?$AAI?$AAV?$AAA?$AA2?$AA?$FL?$AA?5?$AA9?$AA0?$AAM?$AAh@| DCB "M"
	DCB	0x0, "P", 0x0, "U", 0x0, "[", 0x0, "1", 0x0, "2", 0x0, "5"
	DCB	0x0, "M", 0x0, "h", 0x0, "z", 0x0, " ", 0x0, "@", 0x0, " "
	DCB	0x0, "0", 0x0, ".", 0x0, "9", 0x0, "7", 0x0, "5", 0x0, "V"
	DCB	0x0, "]", 0x0, ",", 0x0, " ", 0x0, "I", 0x0, "V", 0x0, "A"
	DCB	0x0, "2", 0x0, "[", 0x0, " ", 0x0, "9", 0x0, "0", 0x0, "M"
	DCB	0x0, "h", 0x0, "z", 0x0, " ", 0x0, "@", 0x0, " ", 0x0, "0"
	DCB	0x0, ".", 0x0, "9", 0x0, "7", 0x0, "5", 0x0, "V", 0x0, "]"
	DCB	0x0, 0x0, 0x0				; `string'

  00000			 AREA	 |.rdata|, DATA, READONLY
|??_C@_1BM@KBHAINFM@?$AAI?$AAn?$AAv?$AAa?$AAl?$AAi?$AAd?$AA?5?$AAE?$AAn?$AAt?$AAr?$AAy?$AA?$AA@| DCB "I"
	DCB	0x0, "n", 0x0, "v", 0x0, "a", 0x0, "l", 0x0, "i", 0x0, "d"
	DCB	0x0, " ", 0x0, "E", 0x0, "n", 0x0, "t", 0x0, "r", 0x0, "y"
	DCB	0x0, 0x0, 0x0				; `string'

  00000			 AREA	 |.rdata|, DATA, READONLY
|??_C@_1CE@BMIKEEML@?$AAD?$AAV?$AAI?$AA?5?$AA1?$AA2?$AA8?$AA0?$AAx?$AA7?$AA2?$AA0?$AA?5?$AA6?$AA0?$AAH?$AAz?$AA?$AA@| DCB "D"
	DCB	0x0, "V", 0x0, "I", 0x0, " ", 0x0, "1", 0x0, "2", 0x0, "8"
	DCB	0x0, "0", 0x0, "x", 0x0, "7", 0x0, "2", 0x0, "0", 0x0, " "
	DCB	0x0, "6", 0x0, "0", 0x0, "H", 0x0, "z", 0x0, 0x0, 0x0 ; `string'

  00000			 AREA	 |.rdata|, DATA, READONLY
|??_C@_1CE@LJDPDOKE@?$AAD?$AAV?$AAI?$AA?5?$AA1?$AA0?$AA2?$AA4?$AAx?$AA7?$AA6?$AA8?$AA?5?$AA6?$AA0?$AAH?$AAz?$AA?$AA@| DCB "D"
	DCB	0x0, "V", 0x0, "I", 0x0, " ", 0x0, "1", 0x0, "0", 0x0, "2"
	DCB	0x0, "4", 0x0, "x", 0x0, "7", 0x0, "6", 0x0, "8", 0x0, " "
	DCB	0x0, "6", 0x0, "0", 0x0, "H", 0x0, "z", 0x0, 0x0, 0x0 ; `string'

  00000			 AREA	 |.rdata|, DATA, READONLY
|??_C@_1CE@NBKEBDGN@?$AAD?$AAV?$AAI?$AA?5?$AA?5?$AA8?$AA0?$AA0?$AAx?$AA6?$AA0?$AA0?$AA?5?$AA5?$AA6?$AAH?$AAz?$AA?$AA@| DCB "D"
	DCB	0x0, "V", 0x0, "I", 0x0, " ", 0x0, " ", 0x0, "8", 0x0, "0"
	DCB	0x0, "0", 0x0, "x", 0x0, "6", 0x0, "0", 0x0, "0", 0x0, " "
	DCB	0x0, "5", 0x0, "6", 0x0, "H", 0x0, "z", 0x0, 0x0, 0x0 ; `string'

  00000			 AREA	 |.rdata|, DATA, READONLY
|??_C@_1CE@PMPMKBOJ@?$AAD?$AAV?$AAI?$AA?5?$AA?5?$AA8?$AA0?$AA0?$AAx?$AA6?$AA0?$AA0?$AA?5?$AA6?$AA0?$AAH?$AAz?$AA?$AA@| DCB "D"
	DCB	0x0, "V", 0x0, "I", 0x0, " ", 0x0, " ", 0x0, "8", 0x0, "0"
	DCB	0x0, "0", 0x0, "x", 0x0, "6", 0x0, "0", 0x0, "0", 0x0, " "
	DCB	0x0, "6", 0x0, "0", 0x0, "H", 0x0, "z", 0x0, 0x0, 0x0 ; `string'

  00000			 AREA	 |.rdata|, DATA, READONLY
|??_C@_1CE@IKDLFFCF@?$AAD?$AAV?$AAI?$AA?5?$AA?5?$AA8?$AA0?$AA0?$AAx?$AA4?$AA8?$AA0?$AA?5?$AA6?$AA0?$AAH?$AAz?$AA?$AA@| DCB "D"
	DCB	0x0, "V", 0x0, "I", 0x0, " ", 0x0, " ", 0x0, "8", 0x0, "0"
	DCB	0x0, "0", 0x0, "x", 0x0, "4", 0x0, "8", 0x0, "0", 0x0, " "
	DCB	0x0, "6", 0x0, "0", 0x0, "H", 0x0, "z", 0x0, 0x0, 0x0 ; `string'

  00000			 AREA	 |.rdata|, DATA, READONLY
|??_C@_1CE@CECNFHDE@?$AAD?$AAV?$AAI?$AA?5?$AA?5?$AA6?$AA4?$AA0?$AAx?$AA4?$AA8?$AA0?$AA?5?$AA7?$AA2?$AAH?$AAz?$AA?$AA@| DCB "D"
	DCB	0x0, "V", 0x0, "I", 0x0, " ", 0x0, " ", 0x0, "6", 0x0, "4"
	DCB	0x0, "0", 0x0, "x", 0x0, "4", 0x0, "8", 0x0, "0", 0x0, " "
	DCB	0x0, "7", 0x0, "2", 0x0, "H", 0x0, "z", 0x0, 0x0, 0x0 ; `string'

  00000			 AREA	 |.rdata|, DATA, READONLY
|??_C@_1CE@IJMKDLHH@?$AAD?$AAV?$AAI?$AA?5?$AA?5?$AA6?$AA4?$AA0?$AAx?$AA4?$AA8?$AA0?$AA?5?$AA6?$AA0?$AAH?$AAz?$AA?$AA@| DCB "D"
	DCB	0x0, "V", 0x0, "I", 0x0, " ", 0x0, " ", 0x0, "6", 0x0, "4"
	DCB	0x0, "0", 0x0, "x", 0x0, "4", 0x0, "8", 0x0, "0", 0x0, " "
	DCB	0x0, "6", 0x0, "0", 0x0, "H", 0x0, "z", 0x0, 0x0, 0x0 ; `string'

  00000			 AREA	 |.rdata|, DATA, READONLY
|??_C@_1CE@FKEPMAF@?$AAL?$AAC?$AAD?$AA?5?$AA?5?$AA4?$AA8?$AA0?$AAx?$AA6?$AA4?$AA0?$AA?5?$AA6?$AA0?$AAH?$AAz?$AA?$AA@| DCB "L"
	DCB	0x0, "C", 0x0, "D", 0x0, " ", 0x0, " ", 0x0, "4", 0x0, "8"
	DCB	0x0, "0", 0x0, "x", 0x0, "6", 0x0, "4", 0x0, "0", 0x0, " "
	DCB	0x0, "6", 0x0, "0", 0x0, "H", 0x0, "z", 0x0, 0x0, 0x0 ; `string'

  00000			 AREA	 |.rdata|, DATA, READONLY
|??_C@_1BE@FNAHCCDL@?$AAM?$AAa?$AAi?$AAn?$AA?5?$AAM?$AAe?$AAn?$AAu?$AA?$AA@| DCB "M"
	DCB	0x0, "a", 0x0, "i", 0x0, "n", 0x0, " ", 0x0, "M", 0x0, "e"
	DCB	0x0, "n", 0x0, "u", 0x0, 0x0, 0x0	; `string'

  00000			 AREA	 |.rdata|, DATA, READONLY
|??_C@_1CA@MOPOGELI@?$AAS?$AAe?$AAl?$AAe?$AAc?$AAt?$AA?5?$AAO?$AAP?$AAP?$AA?5?$AAM?$AAo?$AAd?$AAe?$AA?$AA@| DCB "S"
	DCB	0x0, "e", 0x0, "l", 0x0, "e", 0x0, "c", 0x0, "t", 0x0, " "
	DCB	0x0, "O", 0x0, "P", 0x0, "P", 0x0, " ", 0x0, "M", 0x0, "o"
	DCB	0x0, "d", 0x0, "e", 0x0, 0x0, 0x0	; `string'

  00000			 AREA	 |.rdata|, DATA, READONLY
|??_C@_1DE@DBBLEEO@?$AAS?$AAe?$AAl?$AAe?$AAc?$AAt?$AA?5?$AAD?$AAi?$AAs?$AAp?$AAl?$AAa?$AAy?$AA?5?$AAR?$AAe?$AAs?$AAo?$AAl?$AAu?$AAt?$AAi?$AAo?$AAn?$AA?$AA@| DCB "S"
	DCB	0x0, "e", 0x0, "l", 0x0, "e", 0x0, "c", 0x0, "t", 0x0, " "
	DCB	0x0, "D", 0x0, "i", 0x0, "s", 0x0, "p", 0x0, "l", 0x0, "a"
	DCB	0x0, "y", 0x0, " ", 0x0, "R", 0x0, "e", 0x0, "s", 0x0, "o"
	DCB	0x0, "l", 0x0, "u", 0x0, "t", 0x0, "i", 0x0, "o", 0x0, "n"
	DCB	0x0, 0x0, 0x0				; `string'

  00000			 AREA	 |.rdata|, DATA, READONLY
|??_C@_1EG@HMEOLENI@?$AAE?$AAn?$AAa?$AAb?$AAl?$AAe?$AA?1?$AAD?$AAi?$AAs?$AAa?$AAb?$AAl?$AAe?$AA?5?$AAO?$AAA?$AAL?$AA?5?$AAR?$AAe?$AAt?$AAa?$AAi?$AAl?$AA?5?$AAM?$AAe?$AAs?$AAs?$AAa?$AAg@| DCB "E"
	DCB	0x0, "n", 0x0, "a", 0x0, "b", 0x0, "l", 0x0, "e", 0x0, "/"
	DCB	0x0, "D", 0x0, "i", 0x0, "s", 0x0, "a", 0x0, "b", 0x0, "l"
	DCB	0x0, "e", 0x0, " ", 0x0, "O", 0x0, "A", 0x0, "L", 0x0, " "
	DCB	0x0, "R", 0x0, "e", 0x0, "t", 0x0, "a", 0x0, "i", 0x0, "l"
	DCB	0x0, " ", 0x0, "M", 0x0, "e", 0x0, "s", 0x0, "s", 0x0, "a"
	DCB	0x0, "g", 0x0, "e", 0x0, "s", 0x0, 0x0, 0x0 ; `string'

  00000			 AREA	 |.rdata|, DATA, READONLY
|??_C@_1CC@GBKCLJHP@?$AAF?$AAl?$AAa?$AAs?$AAh?$AA?5?$AAM?$AAa?$AAn?$AAa?$AAg?$AAe?$AAm?$AAe?$AAn?$AAt?$AA?$AA@| DCB "F"
	DCB	0x0, "l", 0x0, "a", 0x0, "s", 0x0, "h", 0x0, " ", 0x0, "M"
	DCB	0x0, "a", 0x0, "n", 0x0, "a", 0x0, "g", 0x0, "e", 0x0, "m"
	DCB	0x0, "e", 0x0, "n", 0x0, "t", 0x0, 0x0, 0x0 ; `string'

  00000			 AREA	 |.rdata|, DATA, READONLY
|??_C@_1BM@MOEMNNDE@?$AAS?$AAa?$AAv?$AAe?$AA?5?$AAS?$AAe?$AAt?$AAt?$AAi?$AAn?$AAg?$AAs?$AA?$AA@| DCB "S"
	DCB	0x0, "a", 0x0, "v", 0x0, "e", 0x0, " ", 0x0, "S", 0x0, "e"
	DCB	0x0, "t", 0x0, "t", 0x0, "i", 0x0, "n", 0x0, "g", 0x0, "s"
	DCB	0x0, 0x0, 0x0				; `string'

  00000			 AREA	 |.rdata|, DATA, READONLY
|??_C@_1BM@LAACEGCM@?$AAS?$AAe?$AAt?$AA?5?$AAD?$AAe?$AAv?$AAi?$AAc?$AAe?$AA?5?$AAI?$AAD?$AA?$AA@| DCB "S"
	DCB	0x0, "e", 0x0, "t", 0x0, " ", 0x0, "D", 0x0, "e", 0x0, "v"
	DCB	0x0, "i", 0x0, "c", 0x0, "e", 0x0, " ", 0x0, "I", 0x0, "D"
	DCB	0x0, 0x0, 0x0				; `string'

  00000			 AREA	 |.rdata|, DATA, READONLY
|??_C@_1CA@HKCGHDKE@?$AAS?$AAD?$AAC?$AAa?$AAr?$AAd?$AA?5?$AAS?$AAe?$AAt?$AAt?$AAi?$AAn?$AAg?$AAs?$AA?$AA@| DCB "S"
	DCB	0x0, "D", 0x0, "C", 0x0, "a", 0x0, "r", 0x0, "d", 0x0, " "
	DCB	0x0, "S", 0x0, "e", 0x0, "t", 0x0, "t", 0x0, "i", 0x0, "n"
	DCB	0x0, "g", 0x0, "s", 0x0, 0x0, 0x0	; `string'

  00000			 AREA	 |.rdata|, DATA, READONLY
|??_C@_1CC@PCCBMLKB@?$AAN?$AAe?$AAt?$AAw?$AAo?$AAr?$AAk?$AA?5?$AAS?$AAe?$AAt?$AAt?$AAi?$AAn?$AAg?$AAs?$AA?$AA@| DCB "N"
	DCB	0x0, "e", 0x0, "t", 0x0, "w", 0x0, "o", 0x0, "r", 0x0, "k"
	DCB	0x0, " ", 0x0, "S", 0x0, "e", 0x0, "t", 0x0, "t", 0x0, "i"
	DCB	0x0, "n", 0x0, "g", 0x0, "s", 0x0, 0x0, 0x0 ; `string'

  00000			 AREA	 |.rdata|, DATA, READONLY
|??_C@_1M@OPFBIOCF@?$AAD?$AAe?$AAb?$AAu?$AAg?$AA?$AA@| DCB "D", 0x0, "e", 0x0
	DCB	"b", 0x0, "u", 0x0, "g", 0x0, 0x0, 0x0	; `string'

  00000			 AREA	 |.rdata|, DATA, READONLY
|??_C@_1DG@LLAJHPJA@?$AAS?$AAe?$AAl?$AAe?$AAc?$AAt?$AA?5?$AAK?$AAI?$AAT?$AAL?$AA?5?$AA?$CI?$AAD?$AAe?$AAb?$AAu?$AAg?$AA?$CJ?$AA?5?$AAD?$AAe?$AAv?$AAi?$AAc?$AAe?$AA?$AA@| DCB "S"
	DCB	0x0, "e", 0x0, "l", 0x0, "e", 0x0, "c", 0x0, "t", 0x0, " "
	DCB	0x0, "K", 0x0, "I", 0x0, "T", 0x0, "L", 0x0, " ", 0x0, "("
	DCB	0x0, "D", 0x0, "e", 0x0, "b", 0x0, "u", 0x0, "g", 0x0, ")"
	DCB	0x0, " ", 0x0, "D", 0x0, "e", 0x0, "v", 0x0, "i", 0x0, "c"
	DCB	0x0, "e", 0x0, 0x0, 0x0			; `string'

  00000			 AREA	 |.rdata|, DATA, READONLY
|??_C@_19JCAOHIEH@?$AAB?$AAo?$AAo?$AAt?$AA?$AA@| DCB "B", 0x0, "o", 0x0, "o"
	DCB	0x0, "t", 0x0, 0x0, 0x0			; `string'

  00000			 AREA	 |.rdata|, DATA, READONLY
|??_C@_1CG@BBALNGAE@?$AAS?$AAe?$AAl?$AAe?$AAc?$AAt?$AA?5?$AAB?$AAo?$AAo?$AAt?$AA?5?$AAD?$AAe?$AAv?$AAi?$AAc?$AAe?$AA?$AA@| DCB "S"
	DCB	0x0, "e", 0x0, "l", 0x0, "e", 0x0, "c", 0x0, "t", 0x0, " "
	DCB	0x0, "B", 0x0, "o", 0x0, "o", 0x0, "t", 0x0, " ", 0x0, "D"
	DCB	0x0, "e", 0x0, "v", 0x0, "i", 0x0, "c", 0x0, "e", 0x0, 0x0
	DCB	0x0					; `string'

  00000			 AREA	 |.rdata|, DATA, READONLY
|??_C@_1BO@HAIPBIND@?$AAE?$AAn?$AAt?$AAe?$AAr?$AA?5?$AAF?$AAi?$AAl?$AAe?$AAn?$AAa?$AAm?$AAe?$AA?$AA@| DCB "E"
	DCB	0x0, "n", 0x0, "t", 0x0, "e", 0x0, "r", 0x0, " ", 0x0, "F"
	DCB	0x0, "i", 0x0, "l", 0x0, "e", 0x0, "n", 0x0, "a", 0x0, "m"
	DCB	0x0, "e", 0x0, 0x0, 0x0			; `string'

  00000			 AREA	 |.data|, DATA
|g_menuNetwork| DCW 0x31
	%	2
	DCD	|??_C@_1CM@CFLHLMJF@?$AAS?$AAh?$AAo?$AAw?$AA?5?$AAC?$AAu?$AAr?$AAr?$AAe?$AAn?$AAt?$AA?5?$AAS?$AAe?$AAt?$AAt?$AAi?$AAn?$AAg?$AAs?$AA?$AA@|
	DCD	|ShowNetworkSettings|
	DCD	0x0
	DCD	0x0
	DCD	0x0
	DCW	0x32
	%	2
	DCD	|??_C@_1CI@NOMJHGMH@?$AAE?$AAn?$AAa?$AAb?$AAl?$AAe?$AA?1?$AAd?$AAi?$AAs?$AAa?$AAb?$AAl?$AAe?$AA?5?$AAK?$AAI?$AAT?$AAL?$AA?$AA@|
	DCD	|OALBLMenuEnable|
	DCD	|??_C@_19KCABPHM@?$AAK?$AAI?$AAT?$AAL?$AA?$AA@|
	DCD	|g_bootCfg|+48
	DCD	0x1
	DCW	0x33
	%	2
	DCD	|??_C@_1DC@FHPHDMKC@?$AAK?$AAI?$AAT?$AAL?$AA?5?$AAi?$AAn?$AAt?$AAe?$AAr?$AAr?$AAu?$AAp?$AAt?$AA?1?$AAp?$AAo?$AAl?$AAl?$AA?5?$AAm?$AAo?$AAd?$AAe?$AA?$AA@|
	DCD	|SetKitlMode|
	DCD	0x0
	DCD	0x0
	DCD	0x0
	DCW	0x34
	%	2
	DCD	|??_C@_1DC@FMHJOEGL@?$AAK?$AAI?$AAT?$AAL?$AA?5?$AAA?$AAc?$AAt?$AAi?$AAv?$AAe?$AA?1?$AAP?$AAa?$AAs?$AAs?$AAi?$AAv?$AAe?$AA?5?$AAm?$AAo?$AAd?$AAe?$AA?$AA@|
	DCD	|SetKitlType|
	DCD	0x0
	DCD	0x0
	DCD	0x0
	DCW	0x35
	%	2
	DCD	|??_C@_1CI@OHHEPHNA@?$AAE?$AAn?$AAa?$AAb?$AAl?$AAe?$AA?1?$AAd?$AAi?$AAs?$AAa?$AAb?$AAl?$AAe?$AA?5?$AAD?$AAH?$AAC?$AAP?$AA?$AA@|
	DCD	|OALBLMenuEnable|
	DCD	|??_C@_19DDJNJOGL@?$AAD?$AAH?$AAC?$AAP?$AA?$AA@|
	DCD	|g_bootCfg|+48
	DCD	0x4
	DCW	0x36
	%	2
	DCD	|??_C@_1BO@OBBADFOO@?$AAS?$AAe?$AAt?$AA?5?$AAI?$AAP?$AA?5?$AAa?$AAd?$AAd?$AAr?$AAe?$AAs?$AAs?$AA?$AA@|
	DCD	|OALBLMenuSetIpAddress|
	DCD	|??_C@_1O@HAMLNBEA@?$AAD?$AAe?$AAv?$AAi?$AAc?$AAe?$AA?$AA@|
	DCD	|g_bootCfg|+56
	DCD	0x0
	DCW	0x37
	%	2
	DCD	|??_C@_1BI@BNFAJPCD@?$AAS?$AAe?$AAt?$AA?5?$AAI?$AAP?$AA?5?$AAm?$AAa?$AAs?$AAk?$AA?$AA@|
	DCD	|OALBLMenuSetIpMask|
	DCD	|??_C@_1O@HAMLNBEA@?$AAD?$AAe?$AAv?$AAi?$AAc?$AAe?$AA?$AA@|
	DCD	|g_bootCfg|+60
	DCD	0x0
	DCW	0x38
	%	2
	DCD	|??_C@_1CG@PDJPJAON@?$AAS?$AAe?$AAt?$AA?5?$AAd?$AAe?$AAf?$AAa?$AAu?$AAl?$AAt?$AA?5?$AAr?$AAo?$AAu?$AAt?$AAe?$AAr?$AA?$AA@|
	DCD	|OALBLMenuSetIpAddress|
	DCD	|??_C@_1BO@BODFGHPI@?$AAD?$AAe?$AAf?$AAa?$AAu?$AAl?$AAt?$AA?5?$AAr?$AAo?$AAu?$AAt?$AAe?$AAr?$AA?$AA@|
	DCD	|g_bootCfg|+64
	DCD	0x0
	DCW	0x39
	%	2
	DCD	|??_C@_1CK@OKOLJFGH@?$AAE?$AAn?$AAa?$AAb?$AAl?$AAe?$AA?1?$AAd?$AAi?$AAs?$AAa?$AAb?$AAl?$AAe?$AA?5?$AAV?$AAM?$AAI?$AAN?$AAI?$AA?$AA@|
	DCD	|OALBLMenuEnable|
	DCD	|??_C@_1M@NJLEOPAB@?$AAV?$AAM?$AAI?$AAN?$AAI?$AA?$AA@|
	DCD	|g_bootCfg|+48
	DCD	0x8
	DCW	0x61
	%	2
	DCD	|??_C@_1CA@LLFAIJM@?$AAS?$AAe?$AAt?$AA?5?$AAM?$AAA?$AAC?$AA?5?$AAa?$AAd?$AAd?$AAr?$AAe?$AAs?$AAs?$AA?$AA@|
	DCD	|SetMacAddress|
	DCD	0x0
	DCD	0x0
	DCD	0x0
	DCW	0x30
	%	2
	DCD	|??_C@_1CE@DFLFAFMD@?$AAE?$AAx?$AAi?$AAt?$AA?5?$AAa?$AAn?$AAd?$AA?5?$AAC?$AAo?$AAn?$AAt?$AAi?$AAn?$AAu?$AAe?$AA?$AA@|
	DCD	0x0
	DCD	0x0
	DCD	0x0
	DCD	0x0
	DCW	0x0
	%	2
	DCD	0x0
	DCD	0x0
	DCD	0x0
	DCD	0x0
	DCD	0x0
|g_menuSDCard| DCW 0x31
	%	2
	DCD	|??_C@_1CM@CFLHLMJF@?$AAS?$AAh?$AAo?$AAw?$AA?5?$AAC?$AAu?$AAr?$AAr?$AAe?$AAn?$AAt?$AA?5?$AAS?$AAe?$AAt?$AAt?$AAi?$AAn?$AAg?$AAs?$AA?$AA@|
	DCD	|ShowSDCardSettings|
	DCD	0x0
	DCD	0x0
	DCD	0x0
	DCW	0x32
	%	2
	DCD	|??_C@_1BO@HAIPBIND@?$AAE?$AAn?$AAt?$AAe?$AAr?$AA?5?$AAF?$AAi?$AAl?$AAe?$AAn?$AAa?$AAm?$AAe?$AA?$AA@|
	DCD	|EnterSDCardFilename|
	DCD	0x0
	DCD	0x0
	DCD	0x0
	DCW	0x30
	%	2
	DCD	|??_C@_1CE@DFLFAFMD@?$AAE?$AAx?$AAi?$AAt?$AA?5?$AAa?$AAn?$AAd?$AA?5?$AAC?$AAo?$AAn?$AAt?$AAi?$AAn?$AAu?$AAe?$AA?$AA@|
	DCD	0x0
	DCD	0x0
	DCD	0x0
	DCD	0x0
	DCW	0x0
	%	2
	DCD	0x0
	DCD	0x0
	DCD	0x0
	DCD	0x0
	DCD	0x0
|g_menuMain| DCW 0x31
	%	2
	DCD	|??_C@_1CM@CFLHLMJF@?$AAS?$AAh?$AAo?$AAw?$AA?5?$AAC?$AAu?$AAr?$AAr?$AAe?$AAn?$AAt?$AA?5?$AAS?$AAe?$AAt?$AAt?$AAi?$AAn?$AAg?$AAs?$AA?$AA@|
	DCD	|ShowSettings|
	DCD	0x0
	DCD	0x0
	DCD	0x0
	DCW	0x32
	%	2
	DCD	|??_C@_1CG@BBALNGAE@?$AAS?$AAe?$AAl?$AAe?$AAc?$AAt?$AA?5?$AAB?$AAo?$AAo?$AAt?$AA?5?$AAD?$AAe?$AAv?$AAi?$AAc?$AAe?$AA?$AA@|
	DCD	|OALBLMenuSelectDevice|
	DCD	|??_C@_19JCAOHIEH@?$AAB?$AAo?$AAo?$AAt?$AA?$AA@|
	DCD	|g_bootCfg|+8
	DCD	|g_bootDevices|
	DCW	0x33
	%	2
	DCD	|??_C@_1DG@LLAJHPJA@?$AAS?$AAe?$AAl?$AAe?$AAc?$AAt?$AA?5?$AAK?$AAI?$AAT?$AAL?$AA?5?$AA?$CI?$AAD?$AAe?$AAb?$AAu?$AAg?$AA?$CJ?$AA?5?$AAD?$AAe?$AAv?$AAi?$AAc?$AAe?$AA?$AA@|
	DCD	|OALBLMenuSelectDevice|
	DCD	|??_C@_1M@OPFBIOCF@?$AAD?$AAe?$AAb?$AAu?$AAg?$AA?$AA@|
	DCD	|g_bootCfg|+28
	DCD	|g_kitlDevices|
	DCW	0x34
	%	2
	DCD	|??_C@_1CC@PCCBMLKB@?$AAN?$AAe?$AAt?$AAw?$AAo?$AAr?$AAk?$AA?5?$AAS?$AAe?$AAt?$AAt?$AAi?$AAn?$AAg?$AAs?$AA?$AA@|
	DCD	|OALBLMenuShow|
	DCD	|??_C@_1CC@PCCBMLKB@?$AAN?$AAe?$AAt?$AAw?$AAo?$AAr?$AAk?$AA?5?$AAS?$AAe?$AAt?$AAt?$AAi?$AAn?$AAg?$AAs?$AA?$AA@|
	DCD	|g_menuNetwork|
	DCD	0x0
	DCW	0x35
	%	2
	DCD	|??_C@_1CA@HKCGHDKE@?$AAS?$AAD?$AAC?$AAa?$AAr?$AAd?$AA?5?$AAS?$AAe?$AAt?$AAt?$AAi?$AAn?$AAg?$AAs?$AA?$AA@|
	DCD	|OALBLMenuShow|
	DCD	|??_C@_1CA@HKCGHDKE@?$AAS?$AAD?$AAC?$AAa?$AAr?$AAd?$AA?5?$AAS?$AAe?$AAt?$AAt?$AAi?$AAn?$AAg?$AAs?$AA?$AA@|
	DCD	|g_menuSDCard|
	DCD	0x0
	DCW	0x36
	%	2
	DCD	|??_C@_1BM@LAACEGCM@?$AAS?$AAe?$AAt?$AA?5?$AAD?$AAe?$AAv?$AAi?$AAc?$AAe?$AA?5?$AAI?$AAD?$AA?$AA@|
	DCD	|SetDeviceID|
	DCD	0x0
	DCD	0x0
	DCD	0x0
	DCW	0x37
	%	2
	DCD	|??_C@_1BM@MOEMNNDE@?$AAS?$AAa?$AAv?$AAe?$AA?5?$AAS?$AAe?$AAt?$AAt?$AAi?$AAn?$AAg?$AAs?$AA?$AA@|
	DCD	|SaveSettings|
	DCD	0x0
	DCD	0x0
	DCD	0x0
	DCW	0x38
	%	2
	DCD	|??_C@_1CC@GBKCLJHP@?$AAF?$AAl?$AAa?$AAs?$AAh?$AA?5?$AAM?$AAa?$AAn?$AAa?$AAg?$AAe?$AAm?$AAe?$AAn?$AAt?$AA?$AA@|
	DCD	|OALBLMenuShow|
	DCD	|??_C@_1CC@GBKCLJHP@?$AAF?$AAl?$AAa?$AAs?$AAh?$AA?5?$AAM?$AAa?$AAn?$AAa?$AAg?$AAe?$AAm?$AAe?$AAn?$AAt?$AA?$AA@|
	DCD	|g_menuFlash|
	DCD	0x0
	DCW	0x39
	%	2
	DCD	|??_C@_1EG@HMEOLENI@?$AAE?$AAn?$AAa?$AAb?$AAl?$AAe?$AA?1?$AAD?$AAi?$AAs?$AAa?$AAb?$AAl?$AAe?$AA?5?$AAO?$AAA?$AAL?$AA?5?$AAR?$AAe?$AAt?$AAa?$AAi?$AAl?$AA?5?$AAM?$AAe?$AAs?$AAs?$AAa?$AAg@|
	DCD	|SetRetailMsgMode|
	DCD	0x0
	DCD	0x0
	DCD	0x0
	DCW	0x61
	%	2
	DCD	|??_C@_1DE@DBBLEEO@?$AAS?$AAe?$AAl?$AAe?$AAc?$AAt?$AA?5?$AAD?$AAi?$AAs?$AAp?$AAl?$AAa?$AAy?$AA?5?$AAR?$AAe?$AAs?$AAo?$AAl?$AAu?$AAt?$AAi?$AAo?$AAn?$AA?$AA@|
	DCD	|SetDisplayResolution|
	DCD	0x0
	DCD	0x0
	DCD	0x0
	DCW	0x62
	%	2
	DCD	|??_C@_1CA@MOPOGELI@?$AAS?$AAe?$AAl?$AAe?$AAc?$AAt?$AA?5?$AAO?$AAP?$AAP?$AA?5?$AAM?$AAo?$AAd?$AAe?$AA?$AA@|
	DCD	|SetOPPmode|
	DCD	0x0
	DCD	0x0
	DCD	0x0
	DCW	0x30
	%	2
	DCD	|??_C@_1CE@DFLFAFMD@?$AAE?$AAx?$AAi?$AAt?$AA?5?$AAa?$AAn?$AAd?$AA?5?$AAC?$AAo?$AAn?$AAt?$AAi?$AAn?$AAu?$AAe?$AA?$AA@|
	DCD	0x0
	DCD	0x0
	DCD	0x0
	DCD	0x0
	DCW	0x0
	%	2
	DCD	0x0
	DCD	0x0
	DCD	0x0
	DCD	0x0
	DCD	0x0
|g_menuRoot| DCW 0x0
	%	2
	DCD	0x0
	DCD	|OALBLMenuShow|
	DCD	|??_C@_1BE@FNAHCCDL@?$AAM?$AAa?$AAi?$AAn?$AA?5?$AAM?$AAe?$AAn?$AAu?$AA?$AA@|
	DCD	|g_menuMain|
	DCD	0x0
|dispResMenu| DCD 0x0
	DCD	|??_C@_1CE@FKEPMAF@?$AAL?$AAC?$AAD?$AA?5?$AA?5?$AA4?$AA8?$AA0?$AAx?$AA6?$AA4?$AA0?$AA?5?$AA6?$AA0?$AAH?$AAz?$AA?$AA@|
	DCD	0x1
	DCD	|??_C@_1CE@IJMKDLHH@?$AAD?$AAV?$AAI?$AA?5?$AA?5?$AA6?$AA4?$AA0?$AAx?$AA4?$AA8?$AA0?$AA?5?$AA6?$AA0?$AAH?$AAz?$AA?$AA@|
	DCD	0x2
	DCD	|??_C@_1CE@CECNFHDE@?$AAD?$AAV?$AAI?$AA?5?$AA?5?$AA6?$AA4?$AA0?$AAx?$AA4?$AA8?$AA0?$AA?5?$AA7?$AA2?$AAH?$AAz?$AA?$AA@|
	DCD	0x3
	DCD	|??_C@_1CE@IKDLFFCF@?$AAD?$AAV?$AAI?$AA?5?$AA?5?$AA8?$AA0?$AA0?$AAx?$AA4?$AA8?$AA0?$AA?5?$AA6?$AA0?$AAH?$AAz?$AA?$AA@|
	DCD	0x4
	DCD	|??_C@_1CE@PMPMKBOJ@?$AAD?$AAV?$AAI?$AA?5?$AA?5?$AA8?$AA0?$AA0?$AAx?$AA6?$AA0?$AA0?$AA?5?$AA6?$AA0?$AAH?$AAz?$AA?$AA@|
	DCD	0x5
	DCD	|??_C@_1CE@NBKEBDGN@?$AAD?$AAV?$AAI?$AA?5?$AA?5?$AA8?$AA0?$AA0?$AAx?$AA6?$AA0?$AA0?$AA?5?$AA5?$AA6?$AAH?$AAz?$AA?$AA@|
	DCD	0x6
	DCD	|??_C@_1CE@LJDPDOKE@?$AAD?$AAV?$AAI?$AA?5?$AA1?$AA0?$AA2?$AA4?$AAx?$AA7?$AA6?$AA8?$AA?5?$AA6?$AA0?$AAH?$AAz?$AA?$AA@|
	DCD	0x7
	DCD	|??_C@_1CE@BMIKEEML@?$AAD?$AAV?$AAI?$AA?5?$AA1?$AA2?$AA8?$AA0?$AAx?$AA7?$AA2?$AA0?$AA?5?$AA6?$AA0?$AAH?$AAz?$AA?$AA@|
	DCD	0x8
	DCD	|??_C@_1BM@KBHAINFM@?$AAI?$AAn?$AAv?$AAa?$AAl?$AAi?$AAd?$AA?5?$AAE?$AAn?$AAt?$AAr?$AAy?$AA?$AA@|
|oppModeMenu35x| DCD |??_C@_1FI@HKFGBOFG@?$AAM?$AAP?$AAU?$AA?$FL?$AA1?$AA2?$AA5?$AAM?$AAh?$AAz?$AA?5?$AA?$EA?$AA?5?$AA0?$AA?4?$AA9?$AA7?$AA5?$AAV?$AA?$FN?$AA?0?$AA?5?$AAI?$AAV?$AAA?$AA2?$AA?$FL?$AA?5?$AA9?$AA0?$AAM?$AAh@|
	DCD	|??_C@_1FG@IMGDNCBP@?$AAM?$AAP?$AAU?$AA?$FL?$AA2?$AA5?$AA0?$AAM?$AAh?$AAz?$AA?5?$AA?$EA?$AA?5?$AA1?$AA?4?$AA0?$AA0?$AA0?$AAV?$AA?$FN?$AA?0?$AA?5?$AAI?$AAV?$AAA?$AA2?$AA?$FL?$AA1?$AA8?$AA0?$AAM?$AAh@|
	DCD	|??_C@_1FI@LNIHINJA@?$AAM?$AAP?$AAU?$AA?$FL?$AA5?$AA0?$AA0?$AAM?$AAh?$AAz?$AA?5?$AA?$EA?$AA?5?$AA1?$AA?4?$AA2?$AA0?$AA0?$AA0?$AAV?$AA?$FN?$AA?0?$AA?5?$AAI?$AAV?$AAA?$AA2?$AA?$FL?$AA3?$AA6?$AA0?$AAM@|
	DCD	|??_C@_1FI@GMIAOKFE@?$AAM?$AAP?$AAU?$AA?$FL?$AA5?$AA5?$AA0?$AAM?$AAh?$AAz?$AA?5?$AA?$EA?$AA?5?$AA1?$AA?4?$AA2?$AA7?$AA5?$AA0?$AAV?$AA?$FN?$AA?0?$AA?5?$AAI?$AAV?$AAA?$AA2?$AA?$FL?$AA4?$AA0?$AA0?$AAM@|
	DCD	|??_C@_1FI@GKLNGOFA@?$AAM?$AAP?$AAU?$AA?$FL?$AA6?$AA0?$AA0?$AAM?$AAh?$AAz?$AA?5?$AA?$EA?$AA?5?$AA1?$AA?4?$AA3?$AA5?$AA0?$AA0?$AAV?$AA?$FN?$AA?0?$AA?5?$AAI?$AAV?$AAA?$AA2?$AA?$FL?$AA4?$AA3?$AA0?$AAM@|
	DCD	|??_C@_1FG@KPBOKIAA@?$AAM?$AAP?$AAU?$AA?$FL?$AA7?$AA2?$AA0?$AAh?$AAz?$AA?5?$AA?$EA?$AA?5?$AA1?$AA?4?$AA3?$AA5?$AA0?$AA0?$AAV?$AA?$FN?$AA?0?$AA?5?$AAI?$AAV?$AAA?$AA2?$AA?$FL?$AA5?$AA2?$AA0?$AAM?$AAh@|
|oppModeMenu37x| DCD |??_C@_1FO@ELABMNJD@?$AAM?$AAP?$AAU?$AA?$FL?$AA3?$AA0?$AA0?$AAM?$AAh?$AAz?$AA?5?$AA?5?$AA?$EA?$AA?5?$AA0?$AA?4?$AA9?$AA3?$AA7?$AA5?$AAV?$AA?$FN?$AA?0?$AA?5?$AAI?$AAV?$AAA?$AA2?$AA?$FL?$AA2?$AA6?$AA0@|
	DCD	|??_C@_1FO@CAGHGIKC@?$AAM?$AAP?$AAU?$AA?$FL?$AA6?$AA0?$AA0?$AAM?$AAh?$AAz?$AA?5?$AA?5?$AA?$EA?$AA?5?$AA1?$AA?4?$AA1?$AA0?$AA0?$AA0?$AAV?$AA?$FN?$AA?0?$AA?5?$AAI?$AAV?$AAA?$AA2?$AA?$FL?$AA5?$AA2?$AA0@|
	DCD	|??_C@_1FO@MCHCGGFD@?$AAM?$AAP?$AAU?$AA?$FL?$AA8?$AA0?$AA0?$AAM?$AAh?$AAz?$AA?5?$AA?5?$AA?$EA?$AA?5?$AA1?$AA?4?$AA2?$AA6?$AA2?$AA5?$AAV?$AA?$FN?$AA?0?$AA?5?$AAI?$AAV?$AAA?$AA2?$AA?$FL?$AA6?$AA6?$AA0@|
	DCD	|??_C@_1FK@IBMDHDI@?$AAM?$AAP?$AAU?$AA?$FL?$AA1?$AA0?$AA0?$AA0?$AAM?$AAh?$AAz?$AA?5?$AA?$EA?$AA?5?$AA1?$AA?4?$AA3?$AA7?$AA5?$AAV?$AA?$FN?$AA?0?$AA?5?$AAI?$AAV?$AAA?$AA2?$AA?$FL?$AA8?$AA0?$AA0?$AAM@|

  00000			 AREA	 |.rdata|, DATA, READONLY
|??_C@_1CE@DFLFAFMD@?$AAE?$AAx?$AAi?$AAt?$AA?5?$AAa?$AAn?$AAd?$AA?5?$AAC?$AAo?$AAn?$AAt?$AAi?$AAn?$AAu?$AAe?$AA?$AA@| DCB "E"
	DCB	0x0, "x", 0x0, "i", 0x0, "t", 0x0, " ", 0x0, "a", 0x0, "n"
	DCB	0x0, "d", 0x0, " ", 0x0, "C", 0x0, "o", 0x0, "n", 0x0, "t"
	DCB	0x0, "i", 0x0, "n", 0x0, "u", 0x0, "e", 0x0, 0x0, 0x0 ; `string'

  00000			 AREA	 |.rdata|, DATA, READONLY
|??_C@_1CA@LLFAIJM@?$AAS?$AAe?$AAt?$AA?5?$AAM?$AAA?$AAC?$AA?5?$AAa?$AAd?$AAd?$AAr?$AAe?$AAs?$AAs?$AA?$AA@| DCB "S"
	DCB	0x0, "e", 0x0, "t", 0x0, " ", 0x0, "M", 0x0, "A", 0x0, "C"
	DCB	0x0, " ", 0x0, "a", 0x0, "d", 0x0, "d", 0x0, "r", 0x0, "e"
	DCB	0x0, "s", 0x0, "s", 0x0, 0x0, 0x0	; `string'

  00000			 AREA	 |.rdata|, DATA, READONLY
|??_C@_1M@NJLEOPAB@?$AAV?$AAM?$AAI?$AAN?$AAI?$AA?$AA@| DCB "V", 0x0, "M", 0x0
	DCB	"I", 0x0, "N", 0x0, "I", 0x0, 0x0, 0x0	; `string'

  00000			 AREA	 |.rdata|, DATA, READONLY
|??_C@_1CK@OKOLJFGH@?$AAE?$AAn?$AAa?$AAb?$AAl?$AAe?$AA?1?$AAd?$AAi?$AAs?$AAa?$AAb?$AAl?$AAe?$AA?5?$AAV?$AAM?$AAI?$AAN?$AAI?$AA?$AA@| DCB "E"
	DCB	0x0, "n", 0x0, "a", 0x0, "b", 0x0, "l", 0x0, "e", 0x0, "/"
	DCB	0x0, "d", 0x0, "i", 0x0, "s", 0x0, "a", 0x0, "b", 0x0, "l"
	DCB	0x0, "e", 0x0, " ", 0x0, "V", 0x0, "M", 0x0, "I", 0x0, "N"
	DCB	0x0, "I", 0x0, 0x0, 0x0			; `string'

  00000			 AREA	 |.rdata|, DATA, READONLY
|??_C@_1BO@BODFGHPI@?$AAD?$AAe?$AAf?$AAa?$AAu?$AAl?$AAt?$AA?5?$AAr?$AAo?$AAu?$AAt?$AAe?$AAr?$AA?$AA@| DCB "D"
	DCB	0x0, "e", 0x0, "f", 0x0, "a", 0x0, "u", 0x0, "l", 0x0, "t"
	DCB	0x0, " ", 0x0, "r", 0x0, "o", 0x0, "u", 0x0, "t", 0x0, "e"
	DCB	0x0, "r", 0x0, 0x0, 0x0			; `string'

  00000			 AREA	 |.rdata|, DATA, READONLY
|??_C@_1CG@PDJPJAON@?$AAS?$AAe?$AAt?$AA?5?$AAd?$AAe?$AAf?$AAa?$AAu?$AAl?$AAt?$AA?5?$AAr?$AAo?$AAu?$AAt?$AAe?$AAr?$AA?$AA@| DCB "S"
	DCB	0x0, "e", 0x0, "t", 0x0, " ", 0x0, "d", 0x0, "e", 0x0, "f"
	DCB	0x0, "a", 0x0, "u", 0x0, "l", 0x0, "t", 0x0, " ", 0x0, "r"
	DCB	0x0, "o", 0x0, "u", 0x0, "t", 0x0, "e", 0x0, "r", 0x0, 0x0
	DCB	0x0					; `string'

  00000			 AREA	 |.rdata|, DATA, READONLY
|??_C@_1BI@BNFAJPCD@?$AAS?$AAe?$AAt?$AA?5?$AAI?$AAP?$AA?5?$AAm?$AAa?$AAs?$AAk?$AA?$AA@| DCB "S"
	DCB	0x0, "e", 0x0, "t", 0x0, " ", 0x0, "I", 0x0, "P", 0x0, " "
	DCB	0x0, "m", 0x0, "a", 0x0, "s", 0x0, "k", 0x0, 0x0, 0x0 ; `string'

  00000			 AREA	 |.rdata|, DATA, READONLY
|??_C@_1O@HAMLNBEA@?$AAD?$AAe?$AAv?$AAi?$AAc?$AAe?$AA?$AA@| DCB "D", 0x0, "e"
	DCB	0x0, "v", 0x0, "i", 0x0, "c", 0x0, "e", 0x0, 0x0, 0x0 ; `string'

  00000			 AREA	 |.rdata|, DATA, READONLY
|??_C@_1BO@OBBADFOO@?$AAS?$AAe?$AAt?$AA?5?$AAI?$AAP?$AA?5?$AAa?$AAd?$AAd?$AAr?$AAe?$AAs?$AAs?$AA?$AA@| DCB "S"
	DCB	0x0, "e", 0x0, "t", 0x0, " ", 0x0, "I", 0x0, "P", 0x0, " "
	DCB	0x0, "a", 0x0, "d", 0x0, "d", 0x0, "r", 0x0, "e", 0x0, "s"
	DCB	0x0, "s", 0x0, 0x0, 0x0			; `string'

  00000			 AREA	 |.rdata|, DATA, READONLY
|??_C@_19DDJNJOGL@?$AAD?$AAH?$AAC?$AAP?$AA?$AA@| DCB "D", 0x0, "H", 0x0, "C"
	DCB	0x0, "P", 0x0, 0x0, 0x0			; `string'

  00000			 AREA	 |.rdata|, DATA, READONLY
|??_C@_1CI@OHHEPHNA@?$AAE?$AAn?$AAa?$AAb?$AAl?$AAe?$AA?1?$AAd?$AAi?$AAs?$AAa?$AAb?$AAl?$AAe?$AA?5?$AAD?$AAH?$AAC?$AAP?$AA?$AA@| DCB "E"
	DCB	0x0, "n", 0x0, "a", 0x0, "b", 0x0, "l", 0x0, "e", 0x0, "/"
	DCB	0x0, "d", 0x0, "i", 0x0, "s", 0x0, "a", 0x0, "b", 0x0, "l"
	DCB	0x0, "e", 0x0, " ", 0x0, "D", 0x0, "H", 0x0, "C", 0x0, "P"
	DCB	0x0, 0x0, 0x0				; `string'

  00000			 AREA	 |.rdata|, DATA, READONLY
|??_C@_1DC@FMHJOEGL@?$AAK?$AAI?$AAT?$AAL?$AA?5?$AAA?$AAc?$AAt?$AAi?$AAv?$AAe?$AA?1?$AAP?$AAa?$AAs?$AAs?$AAi?$AAv?$AAe?$AA?5?$AAm?$AAo?$AAd?$AAe?$AA?$AA@| DCB "K"
	DCB	0x0, "I", 0x0, "T", 0x0, "L", 0x0, " ", 0x0, "A", 0x0, "c"
	DCB	0x0, "t", 0x0, "i", 0x0, "v", 0x0, "e", 0x0, "/", 0x0, "P"
	DCB	0x0, "a", 0x0, "s", 0x0, "s", 0x0, "i", 0x0, "v", 0x0, "e"
	DCB	0x0, " ", 0x0, "m", 0x0, "o", 0x0, "d", 0x0, "e", 0x0, 0x0
	DCB	0x0					; `string'

  00000			 AREA	 |.rdata|, DATA, READONLY
|??_C@_1DC@FHPHDMKC@?$AAK?$AAI?$AAT?$AAL?$AA?5?$AAi?$AAn?$AAt?$AAe?$AAr?$AAr?$AAu?$AAp?$AAt?$AA?1?$AAp?$AAo?$AAl?$AAl?$AA?5?$AAm?$AAo?$AAd?$AAe?$AA?$AA@| DCB "K"
	DCB	0x0, "I", 0x0, "T", 0x0, "L", 0x0, " ", 0x0, "i", 0x0, "n"
	DCB	0x0, "t", 0x0, "e", 0x0, "r", 0x0, "r", 0x0, "u", 0x0, "p"
	DCB	0x0, "t", 0x0, "/", 0x0, "p", 0x0, "o", 0x0, "l", 0x0, "l"
	DCB	0x0, " ", 0x0, "m", 0x0, "o", 0x0, "d", 0x0, "e", 0x0, 0x0
	DCB	0x0					; `string'

  00000			 AREA	 |.rdata|, DATA, READONLY
|??_C@_19KCABPHM@?$AAK?$AAI?$AAT?$AAL?$AA?$AA@| DCB "K", 0x0, "I", 0x0, "T"
	DCB	0x0, "L", 0x0, 0x0, 0x0			; `string'

  00000			 AREA	 |.rdata|, DATA, READONLY
|??_C@_1CI@NOMJHGMH@?$AAE?$AAn?$AAa?$AAb?$AAl?$AAe?$AA?1?$AAd?$AAi?$AAs?$AAa?$AAb?$AAl?$AAe?$AA?5?$AAK?$AAI?$AAT?$AAL?$AA?$AA@| DCB "E"
	DCB	0x0, "n", 0x0, "a", 0x0, "b", 0x0, "l", 0x0, "e", 0x0, "/"
	DCB	0x0, "d", 0x0, "i", 0x0, "s", 0x0, "a", 0x0, "b", 0x0, "l"
	DCB	0x0, "e", 0x0, " ", 0x0, "K", 0x0, "I", 0x0, "T", 0x0, "L"
	DCB	0x0, 0x0, 0x0				; `string'

  00000			 AREA	 |.rdata|, DATA, READONLY
|??_C@_1CM@CFLHLMJF@?$AAS?$AAh?$AAo?$AAw?$AA?5?$AAC?$AAu?$AAr?$AAr?$AAe?$AAn?$AAt?$AA?5?$AAS?$AAe?$AAt?$AAt?$AAi?$AAn?$AAg?$AAs?$AA?$AA@| DCB "S"
	DCB	0x0, "h", 0x0, "o", 0x0, "w", 0x0, " ", 0x0, "C", 0x0, "u"
	DCB	0x0, "r", 0x0, "r", 0x0, "e", 0x0, "n", 0x0, "t", 0x0, " "
	DCB	0x0, "S", 0x0, "e", 0x0, "t", 0x0, "t", 0x0, "i", 0x0, "n"
	DCB	0x0, "g", 0x0, "s", 0x0, 0x0, 0x0	; `string'

  00000			 AREA	 |.rdata|, DATA, READONLY
|EdbgVendorIds| DCW 0x0
	DCW	0x0
	DCD	0x4033
	DCB	0x1
	DCB	"AD", 0x0
	DCW	0x1050
	DCW	0x940
	DCD	0x4005
	DCB	0x1
	DCB	"LS", 0x0
	DCW	0x1050
	DCW	0x940
	DCD	0x2078
	DCB	0x1
	DCB	"LS", 0x0
	DCW	0x10ec
	DCW	0x8029
	DCD	0xc0f0
	DCB	0x1
	DCB	"KS", 0x0
	DCW	0x10ec
	DCW	0x8129
	DCD	0x0
	DCB	0x4
	DCB	"RT", 0x0
	DCW	0x10ec
	DCW	0x8139
	DCD	0x900b
	DCB	0x4
	DCB	"RT", 0x0
	DCW	0x10ec
	DCW	0x8139
	DCD	0xd0c9
	DCB	0x4
	DCB	"RT", 0x0
	DCW	0x10ec
	DCW	0x8139
	DCD	0xe04c
	DCB	0x4
	DCB	"RT", 0x0
	DCW	0x1186
	DCW	0x1300
	DCD	0x50ba
	DCB	0x4
	DCB	"DL", 0x0
	DCW	0x100b
	DCW	0x20
	DCD	0xa0cc
	DCB	0x5
	DCB	"NG", 0x0
	DCW	0x10b7
	DCW	0x9050
	DCD	0x6008
	DCB	0x6
	DCB	"3C", 0x0
	DCW	0x10b7
	DCW	0x9200
	DCD	0x476
	DCB	0x6
	DCB	"3C", 0x0
	EXPORT	|??_C@_1FM@KKEGFMMC@?$AAH?$AAi?$AAt?$AA?5?$AAs?$AAp?$AAa?$AAc?$AAe?$AA?5?$AAt?$AAo?$AA?5?$AAe?$AAn?$AAt?$AAe?$AAr?$AA?5?$AAc?$AAo?$AAn?$AAf?$AAi?$AAg?$AAu?$AAr?$AAa?$AAt?$AAi?$AAo?$AAn@| [ DATA ] ; `string'
	EXPORT	|BLMenu|
	IMPORT	|OALBLMenuReadKey|
	IMPORT	|OALGetTickCount|
	IMPORT	|NKDbgPrintfW|
; File c:\wince600\platform\z2170p\src\bootloader\eboot\menu.c

  00000			 AREA	 |.pdata|, PDATA
|$T47246| DCD	|$LN12@BLMenu|
	DCD	0x40004104

  00000			 AREA	 |.rdata|, DATA, READONLY
|??_C@_1FM@KKEGFMMC@?$AAH?$AAi?$AAt?$AA?5?$AAs?$AAp?$AAa?$AAc?$AAe?$AA?5?$AAt?$AAo?$AA?5?$AAe?$AAn?$AAt?$AAe?$AAr?$AA?5?$AAc?$AAo?$AAn?$AAf?$AAi?$AAg?$AAu?$AAr?$AAa?$AAt?$AAi?$AAo?$AAn@| DCB "H"
	DCB	0x0, "i", 0x0, "t", 0x0, " ", 0x0, "s", 0x0, "p", 0x0, "a"
	DCB	0x0, "c", 0x0, "e", 0x0, " ", 0x0, "t", 0x0, "o", 0x0, " "
	DCB	0x0, "e", 0x0, "n", 0x0, "t", 0x0, "e", 0x0, "r", 0x0, " "
	DCB	0x0, "c", 0x0, "o", 0x0, "n", 0x0, "f", 0x0, "i", 0x0, "g"
	DCB	0x0, "u", 0x0, "r", 0x0, "a", 0x0, "t", 0x0, "i", 0x0, "o"
	DCB	0x0, "n", 0x0, " ", 0x0, "m", 0x0, "e", 0x0, "n", 0x0, "u"
	DCB	0x0, " ", 0x0, "%", 0x0, "d", 0x0, ".", 0x0, ".", 0x0, "."
	DCB	0x0, 0xd, 0x0, 0xa, 0x0, 0x0, 0x0	; `string'
; Function compile flags: /Odtp

  00000			 AREA	 |.text|, CODE, ARM

  00000		 |BLMenu| PROC

; 250  : {

  00000		 |$LN12@BLMenu|
  00000	e1a0c00d	 mov         r12, sp
  00004	e92d0001	 stmdb       sp!, {r0}
  00008	e92d5000	 stmdb       sp!, {r12, lr}
  0000c	e24dd01c	 sub         sp, sp, #0x1C
  00010		 |$M47243|

; 251  :     UINT32 time, delay = 3;

  00010	e3a03003	 mov         r3, #3
  00014	e58d300c	 str         r3, [sp, #0xC]

; 252  :     WCHAR key = 0;

  00018	e3a03000	 mov         r3, #0
  0001c	e1cd30b0	 strh        r3, [sp]

; 253  :     BSP_ARGS *pArgs = OALCAtoUA(IMAGE_SHARE_ARGS_CA);

  00020	e3a0320a	 mov         r3, #0xA, 4
  00024	e58d3008	 str         r3, [sp, #8]
  00028		 |$LN7@BLMenu|

; 254  :     
; 255  :     // First let user break to menu
; 256  :     while (!bForced && (delay > 0 && key != L' ')) 

  00028	e59d3024	 ldr         r3, [sp, #0x24]
  0002c	e3530000	 cmp         r3, #0
  00030	1a000023	 bne         |$LN6@BLMenu|
  00034	e59d300c	 ldr         r3, [sp, #0xC]
  00038	e3530000	 cmp         r3, #0
  0003c	9a000020	 bls         |$LN6@BLMenu|
  00040	e1dd30b0	 ldrh        r3, [sp]
  00044	e3530020	 cmp         r3, #0x20
  00048	0a00001d	 beq         |$LN6@BLMenu|

; 257  : 	{
; 258  : 		OALLog(L"Hit space to enter configuration menu %d...\r\n", delay);

  0004c	e59d100c	 ldr         r1, [sp, #0xC]
  00050	e59f00a8	 ldr         r0, [pc, #0xA8]
  00054	eb000000	 bl          NKDbgPrintfW

; 259  : 		time = OALGetTickCount();

  00058	eb000000	 bl          OALGetTickCount
  0005c	e58d0010	 str         r0, [sp, #0x10]
  00060	e59d3010	 ldr         r3, [sp, #0x10]
  00064	e58d3004	 str         r3, [sp, #4]
  00068		 |$LN5@BLMenu|

; 260  : 		while ((OALGetTickCount() - time) < 1000) 

  00068	eb000000	 bl          OALGetTickCount
  0006c	e58d0014	 str         r0, [sp, #0x14]
  00070	e59d2014	 ldr         r2, [sp, #0x14]
  00074	e59d3004	 ldr         r3, [sp, #4]
  00078	e0423003	 sub         r3, r2, r3
  0007c	e3530ffa	 cmp         r3, #0xFA, 30
  00080	2a00000b	 bcs         |$LN4@BLMenu|

; 261  : 		{
; 262  : 			if ((key = OALBLMenuReadKey(FALSE)) == L' ') 

  00084	e3a00000	 mov         r0, #0
  00088	eb000000	 bl          OALBLMenuReadKey
  0008c	e1a03800	 mov         r3, r0, lsl #16
  00090	e1a03823	 mov         r3, r3, lsr #16
  00094	e1cd31b8	 strh        r3, [sp, #0x18]
  00098	e1dd31b8	 ldrh        r3, [sp, #0x18]
  0009c	e1cd30b0	 strh        r3, [sp]
  000a0	e1dd30b0	 ldrh        r3, [sp]
  000a4	e3530020	 cmp         r3, #0x20
  000a8	1a000000	 bne         |$LN3@BLMenu|

; 263  : 				break;

  000ac	ea000000	 b           |$LN4@BLMenu|
  000b0		 |$LN3@BLMenu|

; 264  : 		}

  000b0	eaffffec	 b           |$LN5@BLMenu|
  000b4		 |$LN4@BLMenu|

; 265  : 		delay--;

  000b4	e59d300c	 ldr         r3, [sp, #0xC]
  000b8	e2433001	 sub         r3, r3, #1
  000bc	e58d300c	 str         r3, [sp, #0xC]

; 266  : 	}

  000c0	eaffffd8	 b           |$LN7@BLMenu|
  000c4		 |$LN6@BLMenu|

; 267  :     
; 268  :     if ((bForced == TRUE) || (key == L' ')) 

  000c4	e59d3024	 ldr         r3, [sp, #0x24]
  000c8	e3530001	 cmp         r3, #1
  000cc	0a000002	 beq         |$LN1@BLMenu|
  000d0	e1dd30b0	 ldrh        r3, [sp]
  000d4	e3530020	 cmp         r3, #0x20
  000d8	1a000004	 bne         |$LN2@BLMenu|
  000dc		 |$LN1@BLMenu|

; 269  :     {
; 270  :         OALBLMenuShow(&g_menuRoot);

  000dc	e59f0018	 ldr         r0, [pc, #0x18]
  000e0	eb000000	 bl          OALBLMenuShow

; 271  :         // Invalidate arguments to force them to be reinitialized
; 272  :         // with new config data generated by the boot menu
; 273  :         pArgs->header.signature = 0;

  000e4	e59d2008	 ldr         r2, [sp, #8]
  000e8	e3a03000	 mov         r3, #0
  000ec	e5823000	 str         r3, [r2]
  000f0		 |$LN2@BLMenu|

; 274  :     }        
; 275  : }

  000f0	e28dd01c	 add         sp, sp, #0x1C
  000f4	e89d6000	 ldmia       sp, {sp, lr}
  000f8	e12fff1e	 bx          lr
  000fc		 |$LN13@BLMenu|
  000fc		 |$LN14@BLMenu|
  000fc	00000000	 DCD         |g_menuRoot|
  00100		 |$LN15@BLMenu|
  00100	00000000	 DCD         |??_C@_1FM@KKEGFMMC@?$AAH?$AAi?$AAt?$AA?5?$AAs?$AAp?$AAa?$AAc?$AAe?$AA?5?$AAt?$AAo?$AA?5?$AAe?$AAn?$AAt?$AAe?$AAr?$AA?5?$AAc?$AAo?$AAn?$AAf?$AAi?$AAg?$AAu?$AAr?$AAa?$AAt?$AAi?$AAo?$AAn@|
  00104		 |$M47244|

			 ENDP  ; |BLMenu|

	EXPORT	|??_C@_1FI@GAMDHEMA@?$AA?$AN?$AA?6?$AA?5?$AA?5?$AA?5?$AAW?$AAA?$AAR?$AAN?$AAI?$AAN?$AAG?$AA?3?$AA?5?$AAM?$AAA?$AAC?$AA?5?$AAa?$AAd?$AAd?$AAr?$AAe?$AAs?$AAs?$AA?5?$AAn?$AAo?$AAt?$AA?5?$AAp?$AAr@| [ DATA ] ; `string'
	EXPORT	|??_C@_1KG@MHFLKBMF@?$AAm?$AAa?$AAc?$AA?5?$AAa?$AAd?$AAd?$AAr?$AAe?$AAs?$AAs?$AA?5?$AAn?$AAo?$AAt?$AA?5?$AAf?$AAo?$AAu?$AAn?$AAd?$AA?5?$AAi?$AAn?$AA?5?$AAE?$AAE?$AAP?$AAR?$AAO?$AAM?$AA?4@| [ DATA ] ; `string'
	EXPORT	|??_C@_1FC@DDNFDPMF@?$AA?$AN?$AA?6?$AA?5?$AAS?$AAe?$AAt?$AA?5?$AAE?$AAt?$AAh?$AAe?$AAr?$AAn?$AAe?$AAt?$AA?5?$AA?$CI?$AAL?$AAA?$AAN?$AA9?$AAx?$AAx?$AAx?$AA?$CJ?$AA?5?$AAM?$AAA?$AAC?$AA?5?$AAA?$AAd@| [ DATA ] ; `string'
	EXPORT	|??_C@_19OEFLBHKA@?$AAE?$AAV?$AAM?$AA?5?$AA?$AA@| [ DATA ] ; `string'
	EXPORT	|__$ArrayPad$| [ DATA ]
	IMPORT	|LAN911XSetMacAddress|
	IMPORT	|LAN911XFindController|
	IMPORT	|OALBLMenuSetMacAddress|
	IMPORT	|memcpy|
	IMPORT	|LAN911XGetMacAddress|
	IMPORT	|OALPAtoVA|
	IMPORT	|memset|
	IMPORT	|__security_cookie|
	IMPORT	|__GSHandlerCheck|
	IMPORT	|__security_check_cookie|

  00000			 AREA	 |.pdata|, PDATA
|$T47261| DCD	|$LN12@SetMacAddr|
	DCD	0xc0008e04

  00000			 AREA	 |.rdata|, DATA, READONLY
|??_C@_1FI@GAMDHEMA@?$AA?$AN?$AA?6?$AA?5?$AA?5?$AA?5?$AAW?$AAA?$AAR?$AAN?$AAI?$AAN?$AAG?$AA?3?$AA?5?$AAM?$AAA?$AAC?$AA?5?$AAa?$AAd?$AAd?$AAr?$AAe?$AAs?$AAs?$AA?5?$AAn?$AAo?$AAt?$AA?5?$AAp?$AAr@| DCB 0xd
	DCB	0x0, 0xa, 0x0, " ", 0x0, " ", 0x0, " ", 0x0, "W", 0x0, "A"
	DCB	0x0, "R", 0x0, "N", 0x0, "I", 0x0, "N", 0x0, "G", 0x0, ":"
	DCB	0x0, " ", 0x0, "M", 0x0, "A", 0x0, "C", 0x0, " ", 0x0, "a"
	DCB	0x0, "d", 0x0, "d", 0x0, "r", 0x0, "e", 0x0, "s", 0x0, "s"
	DCB	0x0, " ", 0x0, "n", 0x0, "o", 0x0, "t", 0x0, " ", 0x0, "p"
	DCB	0x0, "r", 0x0, "o", 0x0, "g", 0x0, "r", 0x0, "a", 0x0, "m"
	DCB	0x0, "m", 0x0, "e", 0x0, "d", 0x0, "!", 0x0, 0xd, 0x0, 0xa
	DCB	0x0, 0x0, 0x0				; `string'

  00000			 AREA	 |.rdata|, DATA, READONLY
|??_C@_1KG@MHFLKBMF@?$AAm?$AAa?$AAc?$AA?5?$AAa?$AAd?$AAd?$AAr?$AAe?$AAs?$AAs?$AA?5?$AAn?$AAo?$AAt?$AA?5?$AAf?$AAo?$AAu?$AAn?$AAd?$AA?5?$AAi?$AAn?$AA?5?$AAE?$AAE?$AAP?$AAR?$AAO?$AAM?$AA?4@| DCB "m"
	DCB	0x0, "a", 0x0, "c", 0x0, " ", 0x0, "a", 0x0, "d", 0x0, "d"
	DCB	0x0, "r", 0x0, "e", 0x0, "s", 0x0, "s", 0x0, " ", 0x0, "n"
	DCB	0x0, "o", 0x0, "t", 0x0, " ", 0x0, "f", 0x0, "o", 0x0, "u"
	DCB	0x0, "n", 0x0, "d", 0x0, " ", 0x0, "i", 0x0, "n", 0x0, " "
	DCB	0x0, "E", 0x0, "E", 0x0, "P", 0x0, "R", 0x0, "O", 0x0, "M"
	DCB	0x0, ".", 0x0, " ", 0x0, "U", 0x0, "s", 0x0, "i", 0x0, "n"
	DCB	0x0, "g", 0x0, " ", 0x0, "M", 0x0, "a", 0x0, "c", 0x0, " "
	DCB	0x0, "a", 0x0, "d", 0x0, "d", 0x0, "r", 0x0, "e", 0x0, "s"
	DCB	0x0, "s", 0x0, " ", 0x0, "s", 0x0, "t", 0x0, "o", 0x0, "r"
	DCB	0x0, "e", 0x0, "d", 0x0, " ", 0x0, "w", 0x0, "i", 0x0, "t"
	DCB	0x0, "h", 0x0, " ", 0x0, "t", 0x0, "h", 0x0, "e", 0x0, " "
	DCB	0x0, "b", 0x0, "o", 0x0, "o", 0x0, "t", 0x0, " ", 0x0, "s"
	DCB	0x0, "e", 0x0, "t", 0x0, "t", 0x0, "i", 0x0, "n", 0x0, "g"
	DCB	0x0, "s", 0x0, 0xd, 0x0, 0xa, 0x0, 0x0, 0x0 ; `string'

  00000			 AREA	 |.rdata|, DATA, READONLY
|??_C@_1FC@DDNFDPMF@?$AA?$AN?$AA?6?$AA?5?$AAS?$AAe?$AAt?$AA?5?$AAE?$AAt?$AAh?$AAe?$AAr?$AAn?$AAe?$AAt?$AA?5?$AA?$CI?$AAL?$AAA?$AAN?$AA9?$AAx?$AAx?$AAx?$AA?$CJ?$AA?5?$AAM?$AAA?$AAC?$AA?5?$AAA?$AAd@| DCB 0xd
	DCB	0x0, 0xa, 0x0, " ", 0x0, "S", 0x0, "e", 0x0, "t", 0x0, " "
	DCB	0x0, "E", 0x0, "t", 0x0, "h", 0x0, "e", 0x0, "r", 0x0, "n"
	DCB	0x0, "e", 0x0, "t", 0x0, " ", 0x0, "(", 0x0, "L", 0x0, "A"
	DCB	0x0, "N", 0x0, "9", 0x0, "x", 0x0, "x", 0x0, "x", 0x0, ")"
	DCB	0x0, " ", 0x0, "M", 0x0, "A", 0x0, "C", 0x0, " ", 0x0, "A"
	DCB	0x0, "d", 0x0, "d", 0x0, "r", 0x0, "e", 0x0, "s", 0x0, "s"
	DCB	0x0, ":", 0x0, 0xd, 0x0, 0xa, 0x0, 0x0, 0x0 ; `string'

  00000			 AREA	 |.rdata|, DATA, READONLY
|??_C@_19OEFLBHKA@?$AAE?$AAV?$AAM?$AA?5?$AA?$AA@| DCB "E", 0x0, "V", 0x0, "M"
	DCB	0x0, " ", 0x0, 0x0, 0x0			; `string'

  00000			 AREA	 |.xdata|, DATA
|$T47257| DCD	0xffffffe0
; Function compile flags: /Odtp

  00000			 AREA	 |.text|, CODE, ARM

  00000	00000000	 DCD         |__GSHandlerCheck|
  00004	00000000	 DCD         |$T47257|

  00008		 |SetMacAddress| PROC

; 280  : {

  00008		 |$LN12@SetMacAddr|
  00008	e1a0c00d	 mov         r12, sp
  0000c	e92d0001	 stmdb       sp!, {r0}
  00010	e92d5000	 stmdb       sp!, {r12, lr}
  00014	e24dd038	 sub         sp, sp, #0x38
  00018		 |$M47258|
  00018	e59f321c	 ldr         r3, [pc, #0x21C]
  0001c	e5933000	 ldr         r3, [r3]
  00020	e58d3024	 str         r3, [sp, #0x24]

; 281  :     DWORD dummy;
; 282  : #pragma warning(push)
; 283  : #pragma warning(disable:4204 4221)
; 284  :     UINT16 mac[3] = {0xFFFF, 0xFFFF, 0xFFFF};

  00024	e3a03cff	 mov         r3, #0xFF, 24
  00028	e38330ff	 orr         r3, r3, #0xFF
  0002c	e1cd31bc	 strh        r3, [sp, #0x1C]
  00030	e3a03cff	 mov         r3, #0xFF, 24
  00034	e38330ff	 orr         r3, r3, #0xFF
  00038	e1cd31be	 strh        r3, [sp, #0x1E]
  0003c	e3a03cff	 mov         r3, #0xFF, 24
  00040	e38330ff	 orr         r3, r3, #0xFF
  00044	e1cd32b0	 strh        r3, [sp, #0x20]

; 285  :     // We're using OALBLMenuSetMacAddress outside of a menu, but it still requires 
; 286  :     // a menu item input structure
; 287  :     OAL_BLMENU_ITEM DummyMacMenuItem = 
; 288  :     {
; 289  :         0, NULL, NULL,

  00048	e3a03000	 mov         r3, #0
  0004c	e1cd30b4	 strh        r3, [sp, #4]
  00050	e3a03000	 mov         r3, #0
  00054	e58d3008	 str         r3, [sp, #8]
  00058	e3a03000	 mov         r3, #0
  0005c	e58d300c	 str         r3, [sp, #0xC]

; 290  :         L"EVM ", mac, NULL

  00060	e59f31d0	 ldr         r3, [pc, #0x1D0]
  00064	e58d3010	 str         r3, [sp, #0x10]
  00068	e28d301c	 add         r3, sp, #0x1C
  0006c	e58d3014	 str         r3, [sp, #0x14]

; 291  :     };

  00070	e3a03000	 mov         r3, #0
  00074	e58d3018	 str         r3, [sp, #0x18]

; 292  : #pragma warning(pop)
; 293  : 
; 294  :     UNREFERENCED_PARAMETER(pMenu);
; 295  : 
; 296  :     OALLog(L"\r\n Set Ethernet (LAN9xxx) MAC Address:\r\n");   

  00078	e59f01b4	 ldr         r0, [pc, #0x1B4]
  0007c	eb000000	 bl          NKDbgPrintfW

; 297  : 	
; 298  : 	
; 299  :     memset(mac,0xFF,sizeof(mac));

  00080	e3a02006	 mov         r2, #6
  00084	e3a010ff	 mov         r1, #0xFF
  00088	e28d001c	 add         r0, sp, #0x1C
  0008c	eb000000	 bl          memset

; 300  :     LAN911XGetMacAddress(OALPAtoUA((DWORD) BSP_LAN9115_REGS_PA),mac);

  00090	e3a01000	 mov         r1, #0
  00094	e3a00415	 mov         r0, #0x15, 8
  00098	eb000000	 bl          OALPAtoVA
  0009c	e58d0028	 str         r0, [sp, #0x28]
  000a0	e28d101c	 add         r1, sp, #0x1C
  000a4	e59d0028	 ldr         r0, [sp, #0x28]
  000a8	eb000000	 bl          LAN911XGetMacAddress

; 301  :     if (((mac[0]== 0xFFFF) && (mac[1] == 0xFFFF) && (mac[2] == 0xFFFF)) || ((mac[0]== 0x0) && (mac[1] == 0x0) && (mac[2] == 0x0)))

  000ac	e1dd31bc	 ldrh        r3, [sp, #0x1C]
  000b0	e1a02003	 mov         r2, r3
  000b4	e3a03cff	 mov         r3, #0xFF, 24
  000b8	e38330ff	 orr         r3, r3, #0xFF
  000bc	e1520003	 cmp         r2, r3
  000c0	1a00000b	 bne         |$LN5@SetMacAddr|
  000c4	e1dd31be	 ldrh        r3, [sp, #0x1E]
  000c8	e1a02003	 mov         r2, r3
  000cc	e3a03cff	 mov         r3, #0xFF, 24
  000d0	e38330ff	 orr         r3, r3, #0xFF
  000d4	e1520003	 cmp         r2, r3
  000d8	1a000005	 bne         |$LN5@SetMacAddr|
  000dc	e1dd32b0	 ldrh        r3, [sp, #0x20]
  000e0	e1a02003	 mov         r2, r3
  000e4	e3a03cff	 mov         r3, #0xFF, 24
  000e8	e38330ff	 orr         r3, r3, #0xFF
  000ec	e1520003	 cmp         r2, r3
  000f0	0a000008	 beq         |$LN6@SetMacAddr|
  000f4		 |$LN5@SetMacAddr|
  000f4	e1dd31bc	 ldrh        r3, [sp, #0x1C]
  000f8	e3530000	 cmp         r3, #0
  000fc	1a00000c	 bne         |$LN7@SetMacAddr|
  00100	e1dd31be	 ldrh        r3, [sp, #0x1E]
  00104	e3530000	 cmp         r3, #0
  00108	1a000009	 bne         |$LN7@SetMacAddr|
  0010c	e1dd32b0	 ldrh        r3, [sp, #0x20]
  00110	e3530000	 cmp         r3, #0
  00114	1a000006	 bne         |$LN7@SetMacAddr|
  00118		 |$LN6@SetMacAddr|

; 302  :     {
; 303  :         RETAILMSG(1,(TEXT("mac address not found in EEPROM. Using Mac address stored with the boot settings\r\n")));

  00118	e59f0110	 ldr         r0, [pc, #0x110]
  0011c	eb000000	 bl          NKDbgPrintfW

; 304  :         memcpy(mac,g_bootCfg.mac,sizeof(mac));       

  00120	e3a02006	 mov         r2, #6
  00124	e59f30fc	 ldr         r3, [pc, #0xFC]
  00128	e2831066	 add         r1, r3, #0x66
  0012c	e28d001c	 add         r0, sp, #0x1C
  00130	eb000000	 bl          memcpy
  00134		 |$LN7@SetMacAddr|

; 305  :     }
; 306  : 
; 307  :     OALBLMenuSetMacAddress(&DummyMacMenuItem);

  00134	e28d0004	 add         r0, sp, #4
  00138	eb000000	 bl          OALBLMenuSetMacAddress

; 308  :     
; 309  :     // Make sure we don't come out of OALBLMenuSetMacAddress with the original 0xFFFF FFFF FFFF or with all zeros
; 310  :     if (((mac[0]== 0xFFFF) && (mac[1] == 0xFFFF) && (mac[2] == 0xFFFF)) || ((mac[0]== 0x0) && (mac[1] == 0x0) && (mac[2] == 0x0)))

  0013c	e1dd31bc	 ldrh        r3, [sp, #0x1C]
  00140	e1a02003	 mov         r2, r3
  00144	e3a03cff	 mov         r3, #0xFF, 24
  00148	e38330ff	 orr         r3, r3, #0xFF
  0014c	e1520003	 cmp         r2, r3
  00150	1a00000b	 bne         |$LN2@SetMacAddr|
  00154	e1dd31be	 ldrh        r3, [sp, #0x1E]
  00158	e1a02003	 mov         r2, r3
  0015c	e3a03cff	 mov         r3, #0xFF, 24
  00160	e38330ff	 orr         r3, r3, #0xFF
  00164	e1520003	 cmp         r2, r3
  00168	1a000005	 bne         |$LN2@SetMacAddr|
  0016c	e1dd32b0	 ldrh        r3, [sp, #0x20]
  00170	e1a02003	 mov         r2, r3
  00174	e3a03cff	 mov         r3, #0xFF, 24
  00178	e38330ff	 orr         r3, r3, #0xFF
  0017c	e1520003	 cmp         r2, r3
  00180	0a000008	 beq         |$LN3@SetMacAddr|
  00184		 |$LN2@SetMacAddr|
  00184	e1dd31bc	 ldrh        r3, [sp, #0x1C]
  00188	e3530000	 cmp         r3, #0
  0018c	1a000008	 bne         |$LN4@SetMacAddr|
  00190	e1dd31be	 ldrh        r3, [sp, #0x1E]
  00194	e3530000	 cmp         r3, #0
  00198	1a000005	 bne         |$LN4@SetMacAddr|
  0019c	e1dd32b0	 ldrh        r3, [sp, #0x20]
  001a0	e3530000	 cmp         r3, #0
  001a4	1a000002	 bne         |$LN4@SetMacAddr|
  001a8		 |$LN3@SetMacAddr|

; 311  :     {
; 312  :         OALLog(L"\r\n   WARNING: MAC address not programmed!\r\n");

  001a8	e59f007c	 ldr         r0, [pc, #0x7C]
  001ac	eb000000	 bl          NKDbgPrintfW

; 313  :         return;

  001b0	ea000017	 b           |$LN8@SetMacAddr|
  001b4		 |$LN4@SetMacAddr|

; 314  :     }
; 315  :         
; 316  :    memcpy(g_bootCfg.mac,mac,sizeof(mac));

  001b4	e3a02006	 mov         r2, #6
  001b8	e28d101c	 add         r1, sp, #0x1C
  001bc	e59f3064	 ldr         r3, [pc, #0x64]
  001c0	e2830066	 add         r0, r3, #0x66
  001c4	eb000000	 bl          memcpy

; 317  : 
; 318  : 
; 319  :     if (!LAN911XFindController(OALPAtoUA((DWORD) BSP_LAN9115_REGS_PA),&dummy))

  001c8	e3a01000	 mov         r1, #0
  001cc	e3a00415	 mov         r0, #0x15, 8
  001d0	eb000000	 bl          OALPAtoVA
  001d4	e58d002c	 str         r0, [sp, #0x2C]
  001d8	e28d1000	 add         r1, sp, #0
  001dc	e59d002c	 ldr         r0, [sp, #0x2C]
  001e0	eb000000	 bl          LAN911XFindController
  001e4	e58d0030	 str         r0, [sp, #0x30]
  001e8	e59d3030	 ldr         r3, [sp, #0x30]
  001ec	e3530000	 cmp         r3, #0
  001f0	1a000000	 bne         |$LN1@SetMacAddr|

; 320  :     {     
; 321  :         return;

  001f4	ea000006	 b           |$LN8@SetMacAddr|
  001f8		 |$LN1@SetMacAddr|

; 322  :     }
; 323  :    LAN911XSetMacAddress(OALPAtoUA((DWORD) BSP_LAN9115_REGS_PA),mac);  

  001f8	e3a01000	 mov         r1, #0
  001fc	e3a00415	 mov         r0, #0x15, 8
  00200	eb000000	 bl          OALPAtoVA
  00204	e58d0034	 str         r0, [sp, #0x34]
  00208	e28d101c	 add         r1, sp, #0x1C
  0020c	e59d0034	 ldr         r0, [sp, #0x34]
  00210	eb000000	 bl          LAN911XSetMacAddress
  00214		 |$LN8@SetMacAddr|

; 280  : {

  00214	e59d0024	 ldr         r0, [sp, #0x24]
  00218	eb000000	 bl          __security_check_cookie

; 324  : }

  0021c	e28dd038	 add         sp, sp, #0x38
  00220	e89d6000	 ldmia       sp, {sp, lr}
  00224	e12fff1e	 bx          lr
  00228		 |$LN13@SetMacAddr|
  00228		 |$LN14@SetMacAddr|
  00228	00000000	 DCD         |g_bootCfg|
  0022c		 |$LN15@SetMacAddr|
  0022c	00000000	 DCD         |??_C@_1FI@GAMDHEMA@?$AA?$AN?$AA?6?$AA?5?$AA?5?$AA?5?$AAW?$AAA?$AAR?$AAN?$AAI?$AAN?$AAG?$AA?3?$AA?5?$AAM?$AAA?$AAC?$AA?5?$AAa?$AAd?$AAd?$AAr?$AAe?$AAs?$AAs?$AA?5?$AAn?$AAo?$AAt?$AA?5?$AAp?$AAr@|
  00230		 |$LN16@SetMacAddr|
  00230	00000000	 DCD         |??_C@_1KG@MHFLKBMF@?$AAm?$AAa?$AAc?$AA?5?$AAa?$AAd?$AAd?$AAr?$AAe?$AAs?$AAs?$AA?5?$AAn?$AAo?$AAt?$AA?5?$AAf?$AAo?$AAu?$AAn?$AAd?$AA?5?$AAi?$AAn?$AA?5?$AAE?$AAE?$AAP?$AAR?$AAO?$AAM?$AA?4@|
  00234		 |$LN17@SetMacAddr|
  00234	00000000	 DCD         |??_C@_1FC@DDNFDPMF@?$AA?$AN?$AA?6?$AA?5?$AAS?$AAe?$AAt?$AA?5?$AAE?$AAt?$AAh?$AAe?$AAr?$AAn?$AAe?$AAt?$AA?5?$AA?$CI?$AAL?$AAA?$AAN?$AA9?$AAx?$AAx?$AAx?$AA?$CJ?$AA?5?$AAM?$AAA?$AAC?$AA?5?$AAA?$AAd@|
  00238		 |$LN18@SetMacAddr|
  00238	00000000	 DCD         |??_C@_19OEFLBHKA@?$AAE?$AAV?$AAM?$AA?5?$AA?$AA@|
  0023c		 |$LN19@SetMacAddr|
  0023c	00000000	 DCD         |__security_cookie|
  00240		 |$M47259|

			 ENDP  ; |SetMacAddress|

	EXPORT	|??_C@_1CG@OIGCIHAG@?$AA?5?$AA?5?$AAO?$AAP?$AAP?$AA?5?$AAM?$AAo?$AAd?$AAe?$AA?3?$AA?5?$AA?5?$AA?5?$AA?$CF?$AAs?$AA?$AN?$AA?6?$AA?$AA@| [ DATA ] ; `string'
	EXPORT	|??_C@_1DE@FKCOLIJA@?$AA?5?$AA?5?$AAF?$AAl?$AAa?$AAs?$AAh?$AAi?$AAn?$AAg?$AA?5?$AAN?$AAK?$AA?4?$AAb?$AAi?$AAn?$AA?3?$AA?5?$AA?5?$AA?5?$AA?$CF?$AAs?$AA?$AN?$AA?6?$AA?$AA@| [ DATA ] ; `string'
	EXPORT	|??_C@_1CM@FFHNOGK@?$AA?5?$AA?5?$AAD?$AAi?$AAs?$AAp?$AAl?$AAa?$AAy?$AA?5?$AAR?$AAe?$AAs?$AA?3?$AA?5?$AA?5?$AA?5?$AA?$CF?$AAs?$AA?$AN?$AA?6?$AA?$AA@| [ DATA ] ; `string'
	EXPORT	|??_C@_1CM@NDEIFMBL@?$AA?5?$AA?5?$AAD?$AAe?$AAv?$AAi?$AAc?$AAe?$AA?5?$AAI?$AAD?$AA?3?$AA?5?$AA?5?$AA?5?$AA?5?$AA?5?$AA?$CF?$AAd?$AA?$AN?$AA?6?$AA?$AA@| [ DATA ] ; `string'
	EXPORT	|??_C@_1CM@JIGPKFND@?$AA?5?$AA?5?$AAR?$AAe?$AAt?$AAa?$AAi?$AAl?$AA?5?$AAM?$AAs?$AAg?$AAs?$AA?3?$AA?5?$AA?5?$AA?5?$AA?$CF?$AAs?$AA?$AN?$AA?6?$AA?$AA@| [ DATA ] ; `string'
	EXPORT	|??_C@_1BC@LGPIFEA@?$AAd?$AAi?$AAs?$AAa?$AAb?$AAl?$AAe?$AAd?$AA?$AA@| [ DATA ] ; `string'
	EXPORT	|??_C@_1BA@BKMGIBPB@?$AAe?$AAn?$AAa?$AAb?$AAl?$AAe?$AAd?$AA?$AA@| [ DATA ] ; `string'
	EXPORT	|??_C@_1CM@NPGGEGKD@?$AA?5?$AA?5?$AAD?$AAe?$AAb?$AAu?$AAg?$AA?5?$AAd?$AAe?$AAv?$AAi?$AAc?$AAe?$AA?3?$AA?5?$AA?5?$AA?$CF?$AAs?$AA?$AN?$AA?6?$AA?$AA@| [ DATA ] ; `string'
	EXPORT	|??_C@_1BM@PMDNGDGM@?$AAn?$AAo?$AAt?$AA?5?$AAs?$AAp?$AAe?$AAc?$AAi?$AAf?$AAi?$AAe?$AAd?$AA?$AA@| [ DATA ] ; `string'
	EXPORT	|??_C@_1CM@IGJFNOHM@?$AA?5?$AA?5?$AAB?$AAo?$AAo?$AAt?$AA?5?$AAd?$AAe?$AAv?$AAi?$AAc?$AAe?$AA?3?$AA?5?$AA?5?$AA?5?$AA?$CF?$AAs?$AA?$AN?$AA?6?$AA?$AA@| [ DATA ] ; `string'
	EXPORT	|??_C@_1BG@CEFCIDHI@?$AA?$AN?$AA?6?$AA?5?$AAM?$AAa?$AAi?$AAn?$AA?3?$AA?$AN?$AA?6?$AA?$AA@| [ DATA ] ; `string'
	IMPORT	|OALKitlDeviceName|
	IMPORT	|g_CPUFamily|

  00000			 AREA	 |.pdata|, PDATA
|$T47282| DCD	|$LN12@ShowSettin|
	DCD	0x40006f04

  00000			 AREA	 |.rdata|, DATA, READONLY
|??_C@_1CG@OIGCIHAG@?$AA?5?$AA?5?$AAO?$AAP?$AAP?$AA?5?$AAM?$AAo?$AAd?$AAe?$AA?3?$AA?5?$AA?5?$AA?5?$AA?$CF?$AAs?$AA?$AN?$AA?6?$AA?$AA@| DCB " "
	DCB	0x0, " ", 0x0, "O", 0x0, "P", 0x0, "P", 0x0, " ", 0x0, "M"
	DCB	0x0, "o", 0x0, "d", 0x0, "e", 0x0, ":", 0x0, " ", 0x0, " "
	DCB	0x0, " ", 0x0, "%", 0x0, "s", 0x0, 0xd, 0x0, 0xa, 0x0, 0x0
	DCB	0x0					; `string'

  00000			 AREA	 |.rdata|, DATA, READONLY
|??_C@_1DE@FKCOLIJA@?$AA?5?$AA?5?$AAF?$AAl?$AAa?$AAs?$AAh?$AAi?$AAn?$AAg?$AA?5?$AAN?$AAK?$AA?4?$AAb?$AAi?$AAn?$AA?3?$AA?5?$AA?5?$AA?5?$AA?$CF?$AAs?$AA?$AN?$AA?6?$AA?$AA@| DCB " "
	DCB	0x0, " ", 0x0, "F", 0x0, "l", 0x0, "a", 0x0, "s", 0x0, "h"
	DCB	0x0, "i", 0x0, "n", 0x0, "g", 0x0, " ", 0x0, "N", 0x0, "K"
	DCB	0x0, ".", 0x0, "b", 0x0, "i", 0x0, "n", 0x0, ":", 0x0, " "
	DCB	0x0, " ", 0x0, " ", 0x0, "%", 0x0, "s", 0x0, 0xd, 0x0, 0xa
	DCB	0x0, 0x0, 0x0				; `string'

  00000			 AREA	 |.rdata|, DATA, READONLY
|??_C@_1CM@FFHNOGK@?$AA?5?$AA?5?$AAD?$AAi?$AAs?$AAp?$AAl?$AAa?$AAy?$AA?5?$AAR?$AAe?$AAs?$AA?3?$AA?5?$AA?5?$AA?5?$AA?$CF?$AAs?$AA?$AN?$AA?6?$AA?$AA@| DCB " "
	DCB	0x0, " ", 0x0, "D", 0x0, "i", 0x0, "s", 0x0, "p", 0x0, "l"
	DCB	0x0, "a", 0x0, "y", 0x0, " ", 0x0, "R", 0x0, "e", 0x0, "s"
	DCB	0x0, ":", 0x0, " ", 0x0, " ", 0x0, " ", 0x0, "%", 0x0, "s"
	DCB	0x0, 0xd, 0x0, 0xa, 0x0, 0x0, 0x0	; `string'

  00000			 AREA	 |.rdata|, DATA, READONLY
|??_C@_1CM@NDEIFMBL@?$AA?5?$AA?5?$AAD?$AAe?$AAv?$AAi?$AAc?$AAe?$AA?5?$AAI?$AAD?$AA?3?$AA?5?$AA?5?$AA?5?$AA?5?$AA?5?$AA?$CF?$AAd?$AA?$AN?$AA?6?$AA?$AA@| DCB " "
	DCB	0x0, " ", 0x0, "D", 0x0, "e", 0x0, "v", 0x0, "i", 0x0, "c"
	DCB	0x0, "e", 0x0, " ", 0x0, "I", 0x0, "D", 0x0, ":", 0x0, " "
	DCB	0x0, " ", 0x0, " ", 0x0, " ", 0x0, " ", 0x0, "%", 0x0, "d"
	DCB	0x0, 0xd, 0x0, 0xa, 0x0, 0x0, 0x0	; `string'

  00000			 AREA	 |.rdata|, DATA, READONLY
|??_C@_1CM@JIGPKFND@?$AA?5?$AA?5?$AAR?$AAe?$AAt?$AAa?$AAi?$AAl?$AA?5?$AAM?$AAs?$AAg?$AAs?$AA?3?$AA?5?$AA?5?$AA?5?$AA?$CF?$AAs?$AA?$AN?$AA?6?$AA?$AA@| DCB " "
	DCB	0x0, " ", 0x0, "R", 0x0, "e", 0x0, "t", 0x0, "a", 0x0, "i"
	DCB	0x0, "l", 0x0, " ", 0x0, "M", 0x0, "s", 0x0, "g", 0x0, "s"
	DCB	0x0, ":", 0x0, " ", 0x0, " ", 0x0, " ", 0x0, "%", 0x0, "s"
	DCB	0x0, 0xd, 0x0, 0xa, 0x0, 0x0, 0x0	; `string'

  00000			 AREA	 |.rdata|, DATA, READONLY
|??_C@_1BC@LGPIFEA@?$AAd?$AAi?$AAs?$AAa?$AAb?$AAl?$AAe?$AAd?$AA?$AA@| DCB "d"
	DCB	0x0, "i", 0x0, "s", 0x0, "a", 0x0, "b", 0x0, "l", 0x0, "e"
	DCB	0x0, "d", 0x0, 0x0, 0x0			; `string'

  00000			 AREA	 |.rdata|, DATA, READONLY
|??_C@_1BA@BKMGIBPB@?$AAe?$AAn?$AAa?$AAb?$AAl?$AAe?$AAd?$AA?$AA@| DCB "e", 0x0
	DCB	"n", 0x0, "a", 0x0, "b", 0x0, "l", 0x0, "e", 0x0, "d", 0x0
	DCB	0x0, 0x0				; `string'

  00000			 AREA	 |.rdata|, DATA, READONLY
|??_C@_1CM@NPGGEGKD@?$AA?5?$AA?5?$AAD?$AAe?$AAb?$AAu?$AAg?$AA?5?$AAd?$AAe?$AAv?$AAi?$AAc?$AAe?$AA?3?$AA?5?$AA?5?$AA?$CF?$AAs?$AA?$AN?$AA?6?$AA?$AA@| DCB " "
	DCB	0x0, " ", 0x0, "D", 0x0, "e", 0x0, "b", 0x0, "u", 0x0, "g"
	DCB	0x0, " ", 0x0, "d", 0x0, "e", 0x0, "v", 0x0, "i", 0x0, "c"
	DCB	0x0, "e", 0x0, ":", 0x0, " ", 0x0, " ", 0x0, "%", 0x0, "s"
	DCB	0x0, 0xd, 0x0, 0xa, 0x0, 0x0, 0x0	; `string'

  00000			 AREA	 |.rdata|, DATA, READONLY
|??_C@_1BM@PMDNGDGM@?$AAn?$AAo?$AAt?$AA?5?$AAs?$AAp?$AAe?$AAc?$AAi?$AAf?$AAi?$AAe?$AAd?$AA?$AA@| DCB "n"
	DCB	0x0, "o", 0x0, "t", 0x0, " ", 0x0, "s", 0x0, "p", 0x0, "e"
	DCB	0x0, "c", 0x0, "i", 0x0, "f", 0x0, "i", 0x0, "e", 0x0, "d"
	DCB	0x0, 0x0, 0x0				; `string'

  00000			 AREA	 |.rdata|, DATA, READONLY
|??_C@_1CM@IGJFNOHM@?$AA?5?$AA?5?$AAB?$AAo?$AAo?$AAt?$AA?5?$AAd?$AAe?$AAv?$AAi?$AAc?$AAe?$AA?3?$AA?5?$AA?5?$AA?5?$AA?$CF?$AAs?$AA?$AN?$AA?6?$AA?$AA@| DCB " "
	DCB	0x0, " ", 0x0, "B", 0x0, "o", 0x0, "o", 0x0, "t", 0x0, " "
	DCB	0x0, "d", 0x0, "e", 0x0, "v", 0x0, "i", 0x0, "c", 0x0, "e"
	DCB	0x0, ":", 0x0, " ", 0x0, " ", 0x0, " ", 0x0, "%", 0x0, "s"
	DCB	0x0, 0xd, 0x0, 0xa, 0x0, 0x0, 0x0	; `string'

  00000			 AREA	 |.rdata|, DATA, READONLY
|??_C@_1BG@CEFCIDHI@?$AA?$AN?$AA?6?$AA?5?$AAM?$AAa?$AAi?$AAn?$AA?3?$AA?$AN?$AA?6?$AA?$AA@| DCB 0xd
	DCB	0x0, 0xa, 0x0, " ", 0x0, "M", 0x0, "a", 0x0, "i", 0x0, "n"
	DCB	0x0, ":", 0x0, 0xd, 0x0, 0xa, 0x0, 0x0, 0x0 ; `string'
; Function compile flags: /Odtp

  00000			 AREA	 |.text|, CODE, ARM

  00000		 |ShowSettings| PROC

; 329  : {

  00000		 |$LN12@ShowSettin|
  00000	e1a0c00d	 mov         r12, sp
  00004	e92d0001	 stmdb       sp!, {r0}
  00008	e92d5000	 stmdb       sp!, {r12, lr}
  0000c	e24dd018	 sub         sp, sp, #0x18
  00010		 |$M47279|

; 330  :     OPP_MODE_MENU * pOppMenu = oppModeMenu35x;

  00010	e59f31a0	 ldr         r3, [pc, #0x1A0]
  00014	e58d3000	 str         r3, [sp]

; 331  :     UNREFERENCED_PARAMETER(pMenu);
; 332  :     
; 333  :     if(g_CPUFamily == CPU_FAMILY_DM37XX)

  00018	e59f3194	 ldr         r3, [pc, #0x194]
  0001c	e5933000	 ldr         r3, [r3]
  00020	e3530001	 cmp         r3, #1
  00024	1a000001	 bne         |$LN1@ShowSettin|

; 334  :     {
; 335  :         pOppMenu = oppModeMenu37x;

  00028	e59f3180	 ldr         r3, [pc, #0x180]
  0002c	e58d3000	 str         r3, [sp]
  00030		 |$LN1@ShowSettin|

; 336  :     }
; 337  : 
; 338  :     OALLog(L"\r\n Main:\r\n");

  00030	e59f0174	 ldr         r0, [pc, #0x174]
  00034	eb000000	 bl          NKDbgPrintfW

; 339  :     OALLog(
; 340  :         L"  Boot device:   %s\r\n",
; 341  :         OALKitlDeviceName(&g_bootCfg.bootDevLoc, g_bootDevices)
; 342  :     );

  00038	e59f1168	 ldr         r1, [pc, #0x168]
  0003c	e59f3134	 ldr         r3, [pc, #0x134]
  00040	e2830008	 add         r0, r3, #8
  00044	eb000000	 bl          OALKitlDeviceName
  00048	e58d0004	 str         r0, [sp, #4]
  0004c	e59d1004	 ldr         r1, [sp, #4]
  00050	e59f014c	 ldr         r0, [pc, #0x14C]
  00054	eb000000	 bl          NKDbgPrintfW

; 343  :     OALLog(
; 344  :         L"  Debug device:  %s\r\n",
; 345  :         (g_bootCfg.kitlDevLoc.LogicalLoc) ? OALKitlDeviceName(&g_bootCfg.kitlDevLoc, g_kitlDevices) : L"not specified"
; 346  :     );

  00058	e59f3118	 ldr         r3, [pc, #0x118]
  0005c	e5933024	 ldr         r3, [r3, #0x24]
  00060	e3530000	 cmp         r3, #0
  00064	0a000007	 beq         |$LN4@ShowSettin|
  00068	e59f1130	 ldr         r1, [pc, #0x130]
  0006c	e59f3104	 ldr         r3, [pc, #0x104]
  00070	e283001c	 add         r0, r3, #0x1C
  00074	eb000000	 bl          OALKitlDeviceName
  00078	e58d0008	 str         r0, [sp, #8]
  0007c	e59d3008	 ldr         r3, [sp, #8]
  00080	e58d300c	 str         r3, [sp, #0xC]
  00084	ea000001	 b           |$LN5@ShowSettin|
  00088		 |$LN4@ShowSettin|
  00088	e59f310c	 ldr         r3, [pc, #0x10C]
  0008c	e58d300c	 str         r3, [sp, #0xC]
  00090		 |$LN5@ShowSettin|
  00090	e59d100c	 ldr         r1, [sp, #0xC]
  00094	e59f00fc	 ldr         r0, [pc, #0xFC]
  00098	eb000000	 bl          NKDbgPrintfW

; 347  :     OALLog(
; 348  :         L"  Retail Msgs:   %s\r\n",
; 349  :         (g_bootCfg.oalFlags & BOOT_CFG_OAL_FLAGS_RETAILMSG_ENABLE) ? L"enabled" : L"disabled"
; 350  :     );

  0009c	e59f30d4	 ldr         r3, [pc, #0xD4]
  000a0	e5933034	 ldr         r3, [r3, #0x34]
  000a4	e3130001	 tst         r3, #1
  000a8	0a000002	 beq         |$LN6@ShowSettin|
  000ac	e59f30d0	 ldr         r3, [pc, #0xD0]
  000b0	e58d3010	 str         r3, [sp, #0x10]
  000b4	ea000001	 b           |$LN7@ShowSettin|
  000b8		 |$LN6@ShowSettin|
  000b8	e59f30c0	 ldr         r3, [pc, #0xC0]
  000bc	e58d3010	 str         r3, [sp, #0x10]
  000c0		 |$LN7@ShowSettin|
  000c0	e59d1010	 ldr         r1, [sp, #0x10]
  000c4	e59f00c8	 ldr         r0, [pc, #0xC8]
  000c8	eb000000	 bl          NKDbgPrintfW

; 351  :     OALLog(
; 352  :         L"  Device ID:     %d\r\n", g_bootCfg.deviceID
; 353  :     );

  000cc	e59f30a4	 ldr         r3, [pc, #0xA4]
  000d0	e5931044	 ldr         r1, [r3, #0x44]
  000d4	e59f00b4	 ldr         r0, [pc, #0xB4]
  000d8	eb000000	 bl          NKDbgPrintfW

; 354  :     OALLog(
; 355  :         L"  Display Res:   %s\r\n", dispResMenu[g_bootCfg.displayRes].resName
; 356  :     );

  000dc	e59f3094	 ldr         r3, [pc, #0x94]
  000e0	e593106c	 ldr         r1, [r3, #0x6C]
  000e4	e3a03008	 mov         r3, #8
  000e8	e0020391	 mul         r2, r1, r3
  000ec	e59f3098	 ldr         r3, [pc, #0x98]
  000f0	e0833002	 add         r3, r3, r2
  000f4	e2833004	 add         r3, r3, #4
  000f8	e5931000	 ldr         r1, [r3]
  000fc	e59f0084	 ldr         r0, [pc, #0x84]
  00100	eb000000	 bl          NKDbgPrintfW

; 357  :     OALLog(
; 358  :         L"  Flashing NK.bin:   %s\r\n", 
; 359  :         (g_bootCfg.flashNKFlags & ENABLE_FLASH_NK) ? L"enabled" : L"disabled"
; 360  :     );    

  00104	e59f306c	 ldr         r3, [pc, #0x6C]
  00108	e5933070	 ldr         r3, [r3, #0x70]
  0010c	e3130001	 tst         r3, #1
  00110	0a000002	 beq         |$LN8@ShowSettin|
  00114	e59f3068	 ldr         r3, [pc, #0x68]
  00118	e58d3014	 str         r3, [sp, #0x14]
  0011c	ea000001	 b           |$LN9@ShowSettin|
  00120		 |$LN8@ShowSettin|
  00120	e59f3058	 ldr         r3, [pc, #0x58]
  00124	e58d3014	 str         r3, [sp, #0x14]
  00128		 |$LN9@ShowSettin|
  00128	e59d1014	 ldr         r1, [sp, #0x14]
  0012c	e59f0048	 ldr         r0, [pc, #0x48]
  00130	eb000000	 bl          NKDbgPrintfW

; 361  :     OALLog(
; 362  :         L"  OPP Mode:   %s\r\n", pOppMenu[g_bootCfg.opp_mode].oppModeName
; 363  :     );

  00134	e59f303c	 ldr         r3, [pc, #0x3C]
  00138	e5931078	 ldr         r1, [r3, #0x78]
  0013c	e3a03004	 mov         r3, #4
  00140	e0020391	 mul         r2, r1, r3
  00144	e59d3000	 ldr         r3, [sp]
  00148	e0833002	 add         r3, r3, r2
  0014c	e5931000	 ldr         r1, [r3]
  00150	e59f001c	 ldr         r0, [pc, #0x1C]
  00154	eb000000	 bl          NKDbgPrintfW

; 364  : 	
; 365  : #if BUILDING_EBOOT_SD
; 366  :     ShowSDCardSettings(pMenu);

  00158	e59d0020	 ldr         r0, [sp, #0x20]
  0015c	eb000000	 bl          ShowSDCardSettings

; 367  : #endif
; 368  :     ShowNetworkSettings(pMenu);

  00160	e59d0020	 ldr         r0, [sp, #0x20]
  00164	eb000000	 bl          ShowNetworkSettings

; 369  : }

  00168	e28dd018	 add         sp, sp, #0x18
  0016c	e89d6000	 ldmia       sp, {sp, lr}
  00170	e12fff1e	 bx          lr
  00174		 |$LN13@ShowSettin|
  00174		 |$LN14@ShowSettin|
  00174	00000000	 DCD         |??_C@_1CG@OIGCIHAG@?$AA?5?$AA?5?$AAO?$AAP?$AAP?$AA?5?$AAM?$AAo?$AAd?$AAe?$AA?3?$AA?5?$AA?5?$AA?5?$AA?$CF?$AAs?$AA?$AN?$AA?6?$AA?$AA@|
  00178		 |$LN15@ShowSettin|
  00178	00000000	 DCD         |g_bootCfg|
  0017c		 |$LN16@ShowSettin|
  0017c	00000000	 DCD         |??_C@_1DE@FKCOLIJA@?$AA?5?$AA?5?$AAF?$AAl?$AAa?$AAs?$AAh?$AAi?$AAn?$AAg?$AA?5?$AAN?$AAK?$AA?4?$AAb?$AAi?$AAn?$AA?3?$AA?5?$AA?5?$AA?5?$AA?$CF?$AAs?$AA?$AN?$AA?6?$AA?$AA@|
  00180		 |$LN17@ShowSettin|
  00180	00000000	 DCD         |??_C@_1BC@LGPIFEA@?$AAd?$AAi?$AAs?$AAa?$AAb?$AAl?$AAe?$AAd?$AA?$AA@|
  00184		 |$LN18@ShowSettin|
  00184	00000000	 DCD         |??_C@_1BA@BKMGIBPB@?$AAe?$AAn?$AAa?$AAb?$AAl?$AAe?$AAd?$AA?$AA@|
  00188		 |$LN19@ShowSettin|
  00188	00000000	 DCD         |??_C@_1CM@FFHNOGK@?$AA?5?$AA?5?$AAD?$AAi?$AAs?$AAp?$AAl?$AAa?$AAy?$AA?5?$AAR?$AAe?$AAs?$AA?3?$AA?5?$AA?5?$AA?5?$AA?$CF?$AAs?$AA?$AN?$AA?6?$AA?$AA@|
  0018c		 |$LN20@ShowSettin|
  0018c	00000000	 DCD         |dispResMenu|
  00190		 |$LN21@ShowSettin|
  00190	00000000	 DCD         |??_C@_1CM@NDEIFMBL@?$AA?5?$AA?5?$AAD?$AAe?$AAv?$AAi?$AAc?$AAe?$AA?5?$AAI?$AAD?$AA?3?$AA?5?$AA?5?$AA?5?$AA?5?$AA?5?$AA?$CF?$AAd?$AA?$AN?$AA?6?$AA?$AA@|
  00194		 |$LN22@ShowSettin|
  00194	00000000	 DCD         |??_C@_1CM@JIGPKFND@?$AA?5?$AA?5?$AAR?$AAe?$AAt?$AAa?$AAi?$AAl?$AA?5?$AAM?$AAs?$AAg?$AAs?$AA?3?$AA?5?$AA?5?$AA?5?$AA?$CF?$AAs?$AA?$AN?$AA?6?$AA?$AA@|
  00198		 |$LN23@ShowSettin|
  00198	00000000	 DCD         |??_C@_1CM@NPGGEGKD@?$AA?5?$AA?5?$AAD?$AAe?$AAb?$AAu?$AAg?$AA?5?$AAd?$AAe?$AAv?$AAi?$AAc?$AAe?$AA?3?$AA?5?$AA?5?$AA?$CF?$AAs?$AA?$AN?$AA?6?$AA?$AA@|
  0019c		 |$LN24@ShowSettin|
  0019c	00000000	 DCD         |??_C@_1BM@PMDNGDGM@?$AAn?$AAo?$AAt?$AA?5?$AAs?$AAp?$AAe?$AAc?$AAi?$AAf?$AAi?$AAe?$AAd?$AA?$AA@|
  001a0		 |$LN25@ShowSettin|
  001a0	00000000	 DCD         |g_kitlDevices|
  001a4		 |$LN26@ShowSettin|
  001a4	00000000	 DCD         |??_C@_1CM@IGJFNOHM@?$AA?5?$AA?5?$AAB?$AAo?$AAo?$AAt?$AA?5?$AAd?$AAe?$AAv?$AAi?$AAc?$AAe?$AA?3?$AA?5?$AA?5?$AA?5?$AA?$CF?$AAs?$AA?$AN?$AA?6?$AA?$AA@|
  001a8		 |$LN27@ShowSettin|
  001a8	00000000	 DCD         |g_bootDevices|
  001ac		 |$LN28@ShowSettin|
  001ac	00000000	 DCD         |??_C@_1BG@CEFCIDHI@?$AA?$AN?$AA?6?$AA?5?$AAM?$AAa?$AAi?$AAn?$AA?3?$AA?$AN?$AA?6?$AA?$AA@|
  001b0		 |$LN29@ShowSettin|
  001b0	00000000	 DCD         |oppModeMenu37x|
  001b4		 |$LN30@ShowSettin|
  001b4	00000000	 DCD         |g_CPUFamily|
  001b8		 |$LN31@ShowSettin|
  001b8	00000000	 DCD         |oppModeMenu35x|
  001bc		 |$M47280|

			 ENDP  ; |ShowSettings|

	EXPORT	|??_C@_1GE@BGIPLJDA@?$AA?5?$AA?5?$AAN?$AAo?$AAt?$AAe?$AA?3?$AA?5?$AAU?$AAS?$AAB?$AAF?$AAN?$AA?5?$AAR?$AAN?$AAD?$AAI?$AAS?$AA?5?$AAM?$AAA?$AAC?$AA?5?$AAA?$AAd?$AAd?$AAr?$AA?5?$AAc?$AAa?$AAn@| [ DATA ] ; `string'
	EXPORT	|??_C@_1CM@MBNEBDDK@?$AA?5?$AA?5?$AAV?$AAM?$AAI?$AAN?$AAI?$AA?3?$AA?5?$AA?5?$AA?5?$AA?5?$AA?5?$AA?5?$AA?5?$AA?5?$AA?5?$AA?$CF?$AAs?$AA?$AN?$AA?6?$AA?$AA@| [ DATA ] ; `string'
	EXPORT	|??_C@_1DG@LEIGGFEH@?$AA?5?$AA?5?$AAE?$AAt?$AAh?$AA?5?$AAM?$AAA?$AAC?$AA?5?$AAA?$AAd?$AAd?$AAr?$AA?3?$AA?5?$AA?5?$AA?$CF?$AAs?$AA?5?$AA?$CI?$AA?$CF?$AAs?$AA?$CJ?$AA?$AN?$AA?6?$AA?$AA@| [ DATA ] ; `string'
	EXPORT	|??_C@_1BM@HBILLBOB@?$AAB?$AAo?$AAo?$AAt?$AA?5?$AAs?$AAe?$AAt?$AAt?$AAi?$AAn?$AAg?$AAs?$AA?$AA@| [ DATA ] ; `string'
	EXPORT	|??_C@_1O@HKPJJFOO@?$AAE?$AAE?$AAP?$AAR?$AAO?$AAM?$AA?$AA@| [ DATA ] ; `string'
	EXPORT	|??_C@_1CM@IMEGPKBH@?$AA?5?$AA?5?$AAI?$AAP?$AA?5?$AAr?$AAo?$AAu?$AAt?$AAe?$AAr?$AA?3?$AA?5?$AA?5?$AA?5?$AA?5?$AA?5?$AA?$CF?$AAs?$AA?$AN?$AA?6?$AA?$AA@| [ DATA ] ; `string'
	EXPORT	|??_C@_1CM@MFPGPOHA@?$AA?5?$AA?5?$AAI?$AAP?$AA?5?$AAm?$AAa?$AAs?$AAk?$AA?3?$AA?5?$AA?5?$AA?5?$AA?5?$AA?5?$AA?5?$AA?5?$AA?$CF?$AAs?$AA?$AN?$AA?6?$AA?$AA@| [ DATA ] ; `string'
	EXPORT	|??_C@_1CM@PFJOPCHK@?$AA?5?$AA?5?$AAI?$AAP?$AA?5?$AAa?$AAd?$AAd?$AAr?$AAe?$AAs?$AAs?$AA?3?$AA?5?$AA?5?$AA?5?$AA?5?$AA?$CF?$AAs?$AA?$AN?$AA?6?$AA?$AA@| [ DATA ] ; `string'
	EXPORT	|??_C@_1CM@ENNBLIDC@?$AA?5?$AA?5?$AAD?$AAH?$AAC?$AAP?$AA?3?$AA?5?$AA?5?$AA?5?$AA?5?$AA?5?$AA?5?$AA?5?$AA?5?$AA?5?$AA?5?$AA?$CF?$AAs?$AA?$AN?$AA?6?$AA?$AA@| [ DATA ] ; `string'
	EXPORT	|??_C@_1CM@OEGKHNAF@?$AA?5?$AA?5?$AAK?$AAI?$AAT?$AAL?$AA?5?$AAm?$AAo?$AAd?$AAe?$AA?3?$AA?5?$AA?5?$AA?5?$AA?5?$AA?5?$AA?$CF?$AAs?$AA?$AN?$AA?6?$AA?$AA@| [ DATA ] ; `string'
	EXPORT	|??_C@_1BE@OLFPFCKI@?$AAi?$AAn?$AAt?$AAe?$AAr?$AAr?$AAu?$AAp?$AAt?$AA?$AA@| [ DATA ] ; `string'
	EXPORT	|??_C@_1O@DOAPGJLD@?$AAp?$AAo?$AAl?$AAl?$AAe?$AAd?$AA?$AA@| [ DATA ] ; `string'
	EXPORT	|??_C@_1CM@OLFKODG@?$AA?5?$AA?5?$AAK?$AAI?$AAT?$AAL?$AA?5?$AAt?$AAy?$AAp?$AAe?$AA?3?$AA?5?$AA?5?$AA?5?$AA?5?$AA?5?$AA?$CF?$AAs?$AA?$AN?$AA?6?$AA?$AA@| [ DATA ] ; `string'
	EXPORT	|??_C@_1O@IBNPCBAA@?$AAa?$AAc?$AAt?$AAi?$AAv?$AAe?$AA?$AA@| [ DATA ] ; `string'
	EXPORT	|??_C@_1BA@INHNFGAO@?$AAp?$AAa?$AAs?$AAs?$AAi?$AAv?$AAe?$AA?$AA@| [ DATA ] ; `string'
	EXPORT	|??_C@_1CM@KKLHLKH@?$AA?5?$AA?5?$AAK?$AAI?$AAT?$AAL?$AA?5?$AAs?$AAt?$AAa?$AAt?$AAe?$AA?3?$AA?5?$AA?5?$AA?5?$AA?5?$AA?$CF?$AAs?$AA?$AN?$AA?6?$AA?$AA@| [ DATA ] ; `string'
	EXPORT	|??_C@_1BM@NCMLOBGF@?$AA?$AN?$AA?6?$AA?5?$AAN?$AAe?$AAt?$AAw?$AAo?$AAr?$AAk?$AA?3?$AA?$AN?$AA?6?$AA?$AA@| [ DATA ] ; `string'
	EXPORT	|__$ArrayPad$| [ DATA ]
	IMPORT	|OALKitlMACtoString|
	IMPORT	|OALKitlIPtoString|

  00000			 AREA	 |.pdata|, PDATA
|$T47324| DCD	|$LN23@ShowNetwor|
	DCD	0xc000bb04

  00000			 AREA	 |.rdata|, DATA, READONLY
|??_C@_1GE@BGIPLJDA@?$AA?5?$AA?5?$AAN?$AAo?$AAt?$AAe?$AA?3?$AA?5?$AAU?$AAS?$AAB?$AAF?$AAN?$AA?5?$AAR?$AAN?$AAD?$AAI?$AAS?$AA?5?$AAM?$AAA?$AAC?$AA?5?$AAA?$AAd?$AAd?$AAr?$AA?5?$AAc?$AAa?$AAn@| DCB " "
	DCB	0x0, " ", 0x0, "N", 0x0, "o", 0x0, "t", 0x0, "e", 0x0, ":"
	DCB	0x0, " ", 0x0, "U", 0x0, "S", 0x0, "B", 0x0, "F", 0x0, "N"
	DCB	0x0, " ", 0x0, "R", 0x0, "N", 0x0, "D", 0x0, "I", 0x0, "S"
	DCB	0x0, " ", 0x0, "M", 0x0, "A", 0x0, "C", 0x0, " ", 0x0, "A"
	DCB	0x0, "d", 0x0, "d", 0x0, "r", 0x0, " ", 0x0, "c", 0x0, "a"
	DCB	0x0, "n", 0x0, "n", 0x0, "o", 0x0, "t", 0x0, " ", 0x0, "b"
	DCB	0x0, "e", 0x0, " ", 0x0, "c", 0x0, "h", 0x0, "a", 0x0, "n"
	DCB	0x0, "g", 0x0, "e", 0x0, "d", 0x0, ".", 0x0, 0xd, 0x0, 0xa
	DCB	0x0, 0x0, 0x0				; `string'

  00000			 AREA	 |.rdata|, DATA, READONLY
|??_C@_1CM@MBNEBDDK@?$AA?5?$AA?5?$AAV?$AAM?$AAI?$AAN?$AAI?$AA?3?$AA?5?$AA?5?$AA?5?$AA?5?$AA?5?$AA?5?$AA?5?$AA?5?$AA?5?$AA?$CF?$AAs?$AA?$AN?$AA?6?$AA?$AA@| DCB " "
	DCB	0x0, " ", 0x0, "V", 0x0, "M", 0x0, "I", 0x0, "N", 0x0, "I"
	DCB	0x0, ":", 0x0, " ", 0x0, " ", 0x0, " ", 0x0, " ", 0x0, " "
	DCB	0x0, " ", 0x0, " ", 0x0, " ", 0x0, " ", 0x0, "%", 0x0, "s"
	DCB	0x0, 0xd, 0x0, 0xa, 0x0, 0x0, 0x0	; `string'

  00000			 AREA	 |.rdata|, DATA, READONLY
|??_C@_1DG@LEIGGFEH@?$AA?5?$AA?5?$AAE?$AAt?$AAh?$AA?5?$AAM?$AAA?$AAC?$AA?5?$AAA?$AAd?$AAd?$AAr?$AA?3?$AA?5?$AA?5?$AA?$CF?$AAs?$AA?5?$AA?$CI?$AA?$CF?$AAs?$AA?$CJ?$AA?$AN?$AA?6?$AA?$AA@| DCB " "
	DCB	0x0, " ", 0x0, "E", 0x0, "t", 0x0, "h", 0x0, " ", 0x0, "M"
	DCB	0x0, "A", 0x0, "C", 0x0, " ", 0x0, "A", 0x0, "d", 0x0, "d"
	DCB	0x0, "r", 0x0, ":", 0x0, " ", 0x0, " ", 0x0, "%", 0x0, "s"
	DCB	0x0, " ", 0x0, "(", 0x0, "%", 0x0, "s", 0x0, ")", 0x0, 0xd
	DCB	0x0, 0xa, 0x0, 0x0, 0x0			; `string'

  00000			 AREA	 |.rdata|, DATA, READONLY
|??_C@_1BM@HBILLBOB@?$AAB?$AAo?$AAo?$AAt?$AA?5?$AAs?$AAe?$AAt?$AAt?$AAi?$AAn?$AAg?$AAs?$AA?$AA@| DCB "B"
	DCB	0x0, "o", 0x0, "o", 0x0, "t", 0x0, " ", 0x0, "s", 0x0, "e"
	DCB	0x0, "t", 0x0, "t", 0x0, "i", 0x0, "n", 0x0, "g", 0x0, "s"
	DCB	0x0, 0x0, 0x0				; `string'

  00000			 AREA	 |.rdata|, DATA, READONLY
|??_C@_1O@HKPJJFOO@?$AAE?$AAE?$AAP?$AAR?$AAO?$AAM?$AA?$AA@| DCB "E", 0x0, "E"
	DCB	0x0, "P", 0x0, "R", 0x0, "O", 0x0, "M", 0x0, 0x0, 0x0 ; `string'

  00000			 AREA	 |.rdata|, DATA, READONLY
|??_C@_1CM@IMEGPKBH@?$AA?5?$AA?5?$AAI?$AAP?$AA?5?$AAr?$AAo?$AAu?$AAt?$AAe?$AAr?$AA?3?$AA?5?$AA?5?$AA?5?$AA?5?$AA?5?$AA?$CF?$AAs?$AA?$AN?$AA?6?$AA?$AA@| DCB " "
	DCB	0x0, " ", 0x0, "I", 0x0, "P", 0x0, " ", 0x0, "r", 0x0, "o"
	DCB	0x0, "u", 0x0, "t", 0x0, "e", 0x0, "r", 0x0, ":", 0x0, " "
	DCB	0x0, " ", 0x0, " ", 0x0, " ", 0x0, " ", 0x0, "%", 0x0, "s"
	DCB	0x0, 0xd, 0x0, 0xa, 0x0, 0x0, 0x0	; `string'

  00000			 AREA	 |.rdata|, DATA, READONLY
|??_C@_1CM@MFPGPOHA@?$AA?5?$AA?5?$AAI?$AAP?$AA?5?$AAm?$AAa?$AAs?$AAk?$AA?3?$AA?5?$AA?5?$AA?5?$AA?5?$AA?5?$AA?5?$AA?5?$AA?$CF?$AAs?$AA?$AN?$AA?6?$AA?$AA@| DCB " "
	DCB	0x0, " ", 0x0, "I", 0x0, "P", 0x0, " ", 0x0, "m", 0x0, "a"
	DCB	0x0, "s", 0x0, "k", 0x0, ":", 0x0, " ", 0x0, " ", 0x0, " "
	DCB	0x0, " ", 0x0, " ", 0x0, " ", 0x0, " ", 0x0, "%", 0x0, "s"
	DCB	0x0, 0xd, 0x0, 0xa, 0x0, 0x0, 0x0	; `string'

  00000			 AREA	 |.rdata|, DATA, READONLY
|??_C@_1CM@PFJOPCHK@?$AA?5?$AA?5?$AAI?$AAP?$AA?5?$AAa?$AAd?$AAd?$AAr?$AAe?$AAs?$AAs?$AA?3?$AA?5?$AA?5?$AA?5?$AA?5?$AA?$CF?$AAs?$AA?$AN?$AA?6?$AA?$AA@| DCB " "
	DCB	0x0, " ", 0x0, "I", 0x0, "P", 0x0, " ", 0x0, "a", 0x0, "d"
	DCB	0x0, "d", 0x0, "r", 0x0, "e", 0x0, "s", 0x0, "s", 0x0, ":"
	DCB	0x0, " ", 0x0, " ", 0x0, " ", 0x0, " ", 0x0, "%", 0x0, "s"
	DCB	0x0, 0xd, 0x0, 0xa, 0x0, 0x0, 0x0	; `string'

  00000			 AREA	 |.rdata|, DATA, READONLY
|??_C@_1CM@ENNBLIDC@?$AA?5?$AA?5?$AAD?$AAH?$AAC?$AAP?$AA?3?$AA?5?$AA?5?$AA?5?$AA?5?$AA?5?$AA?5?$AA?5?$AA?5?$AA?5?$AA?5?$AA?$CF?$AAs?$AA?$AN?$AA?6?$AA?$AA@| DCB " "
	DCB	0x0, " ", 0x0, "D", 0x0, "H", 0x0, "C", 0x0, "P", 0x0, ":"
	DCB	0x0, " ", 0x0, " ", 0x0, " ", 0x0, " ", 0x0, " ", 0x0, " "
	DCB	0x0, " ", 0x0, " ", 0x0, " ", 0x0, " ", 0x0, "%", 0x0, "s"
	DCB	0x0, 0xd, 0x0, 0xa, 0x0, 0x0, 0x0	; `string'

  00000			 AREA	 |.rdata|, DATA, READONLY
|??_C@_1CM@OEGKHNAF@?$AA?5?$AA?5?$AAK?$AAI?$AAT?$AAL?$AA?5?$AAm?$AAo?$AAd?$AAe?$AA?3?$AA?5?$AA?5?$AA?5?$AA?5?$AA?5?$AA?$CF?$AAs?$AA?$AN?$AA?6?$AA?$AA@| DCB " "
	DCB	0x0, " ", 0x0, "K", 0x0, "I", 0x0, "T", 0x0, "L", 0x0, " "
	DCB	0x0, "m", 0x0, "o", 0x0, "d", 0x0, "e", 0x0, ":", 0x0, " "
	DCB	0x0, " ", 0x0, " ", 0x0, " ", 0x0, " ", 0x0, "%", 0x0, "s"
	DCB	0x0, 0xd, 0x0, 0xa, 0x0, 0x0, 0x0	; `string'

  00000			 AREA	 |.rdata|, DATA, READONLY
|??_C@_1BE@OLFPFCKI@?$AAi?$AAn?$AAt?$AAe?$AAr?$AAr?$AAu?$AAp?$AAt?$AA?$AA@| DCB "i"
	DCB	0x0, "n", 0x0, "t", 0x0, "e", 0x0, "r", 0x0, "r", 0x0, "u"
	DCB	0x0, "p", 0x0, "t", 0x0, 0x0, 0x0	; `string'

  00000			 AREA	 |.rdata|, DATA, READONLY
|??_C@_1O@DOAPGJLD@?$AAp?$AAo?$AAl?$AAl?$AAe?$AAd?$AA?$AA@| DCB "p", 0x0, "o"
	DCB	0x0, "l", 0x0, "l", 0x0, "e", 0x0, "d", 0x0, 0x0, 0x0 ; `string'

  00000			 AREA	 |.rdata|, DATA, READONLY
|??_C@_1CM@OLFKODG@?$AA?5?$AA?5?$AAK?$AAI?$AAT?$AAL?$AA?5?$AAt?$AAy?$AAp?$AAe?$AA?3?$AA?5?$AA?5?$AA?5?$AA?5?$AA?5?$AA?$CF?$AAs?$AA?$AN?$AA?6?$AA?$AA@| DCB " "
	DCB	0x0, " ", 0x0, "K", 0x0, "I", 0x0, "T", 0x0, "L", 0x0, " "
	DCB	0x0, "t", 0x0, "y", 0x0, "p", 0x0, "e", 0x0, ":", 0x0, " "
	DCB	0x0, " ", 0x0, " ", 0x0, " ", 0x0, " ", 0x0, "%", 0x0, "s"
	DCB	0x0, 0xd, 0x0, 0xa, 0x0, 0x0, 0x0	; `string'

  00000			 AREA	 |.rdata|, DATA, READONLY
|??_C@_1O@IBNPCBAA@?$AAa?$AAc?$AAt?$AAi?$AAv?$AAe?$AA?$AA@| DCB "a", 0x0, "c"
	DCB	0x0, "t", 0x0, "i", 0x0, "v", 0x0, "e", 0x0, 0x0, 0x0 ; `string'

  00000			 AREA	 |.rdata|, DATA, READONLY
|??_C@_1BA@INHNFGAO@?$AAp?$AAa?$AAs?$AAs?$AAi?$AAv?$AAe?$AA?$AA@| DCB "p", 0x0
	DCB	"a", 0x0, "s", 0x0, "s", 0x0, "i", 0x0, "v", 0x0, "e", 0x0
	DCB	0x0, 0x0				; `string'

  00000			 AREA	 |.rdata|, DATA, READONLY
|??_C@_1CM@KKLHLKH@?$AA?5?$AA?5?$AAK?$AAI?$AAT?$AAL?$AA?5?$AAs?$AAt?$AAa?$AAt?$AAe?$AA?3?$AA?5?$AA?5?$AA?5?$AA?5?$AA?$CF?$AAs?$AA?$AN?$AA?6?$AA?$AA@| DCB " "
	DCB	0x0, " ", 0x0, "K", 0x0, "I", 0x0, "T", 0x0, "L", 0x0, " "
	DCB	0x0, "s", 0x0, "t", 0x0, "a", 0x0, "t", 0x0, "e", 0x0, ":"
	DCB	0x0, " ", 0x0, " ", 0x0, " ", 0x0, " ", 0x0, "%", 0x0, "s"
	DCB	0x0, 0xd, 0x0, 0xa, 0x0, 0x0, 0x0	; `string'

  00000			 AREA	 |.rdata|, DATA, READONLY
|??_C@_1BM@NCMLOBGF@?$AA?$AN?$AA?6?$AA?5?$AAN?$AAe?$AAt?$AAw?$AAo?$AAr?$AAk?$AA?3?$AA?$AN?$AA?6?$AA?$AA@| DCB 0xd
	DCB	0x0, 0xa, 0x0, " ", 0x0, "N", 0x0, "e", 0x0, "t", 0x0, "w"
	DCB	0x0, "o", 0x0, "r", 0x0, "k", 0x0, ":", 0x0, 0xd, 0x0, 0xa
	DCB	0x0, 0x0, 0x0				; `string'

  00000			 AREA	 |.xdata|, DATA
|$T47320| DCD	0xffffffc0
; Function compile flags: /Odtp

  00000			 AREA	 |.text|, CODE, ARM

  00000	00000000	 DCD         |__GSHandlerCheck|
  00004	00000000	 DCD         |$T47320|

  00008		 |ShowNetworkSettings| PROC

; 374  : {

  00008		 |$LN23@ShowNetwor|
  00008	e1a0c00d	 mov         r12, sp
  0000c	e92d0001	 stmdb       sp!, {r0}
  00010	e92d5000	 stmdb       sp!, {r12, lr}
  00014	e24dd040	 sub         sp, sp, #0x40
  00018		 |$M47321|
  00018	e59f32d0	 ldr         r3, [pc, #0x2D0]
  0001c	e5933000	 ldr         r3, [r3]
  00020	e58d300c	 str         r3, [sp, #0xC]

; 375  :     BOOL fValidExtMacAddr;
; 376  :     UINT16 mac[3];
; 377  :     UNREFERENCED_PARAMETER(pMenu);
; 378  : 
; 379  :     memset(mac,0xFF,sizeof(mac));

  00024	e3a02006	 mov         r2, #6
  00028	e3a010ff	 mov         r1, #0xFF
  0002c	e28d0004	 add         r0, sp, #4
  00030	eb000000	 bl          memset

; 380  :     LAN911XGetMacAddress(OALPAtoUA((DWORD) BSP_LAN9115_REGS_PA),mac);

  00034	e3a01000	 mov         r1, #0
  00038	e3a00415	 mov         r0, #0x15, 8
  0003c	eb000000	 bl          OALPAtoVA
  00040	e58d0010	 str         r0, [sp, #0x10]
  00044	e28d1004	 add         r1, sp, #4
  00048	e59d0010	 ldr         r0, [sp, #0x10]
  0004c	eb000000	 bl          LAN911XGetMacAddress

; 381  :     if (((mac[0]== 0xFFFF) && (mac[1] == 0xFFFF) && (mac[2] == 0xFFFF)) || ((mac[0]== 0x0) && (mac[1] == 0x0) && (mac[2] == 0x0)))

  00050	e1dd30b4	 ldrh        r3, [sp, #4]
  00054	e1a02003	 mov         r2, r3
  00058	e3a03cff	 mov         r3, #0xFF, 24
  0005c	e38330ff	 orr         r3, r3, #0xFF
  00060	e1520003	 cmp         r2, r3
  00064	1a00000b	 bne         |$LN2@ShowNetwor|
  00068	e1dd30b6	 ldrh        r3, [sp, #6]
  0006c	e1a02003	 mov         r2, r3
  00070	e3a03cff	 mov         r3, #0xFF, 24
  00074	e38330ff	 orr         r3, r3, #0xFF
  00078	e1520003	 cmp         r2, r3
  0007c	1a000005	 bne         |$LN2@ShowNetwor|
  00080	e1dd30b8	 ldrh        r3, [sp, #8]
  00084	e1a02003	 mov         r2, r3
  00088	e3a03cff	 mov         r3, #0xFF, 24
  0008c	e38330ff	 orr         r3, r3, #0xFF
  00090	e1520003	 cmp         r2, r3
  00094	0a000008	 beq         |$LN3@ShowNetwor|
  00098		 |$LN2@ShowNetwor|
  00098	e1dd30b4	 ldrh        r3, [sp, #4]
  0009c	e3530000	 cmp         r3, #0
  000a0	1a000008	 bne         |$LN4@ShowNetwor|
  000a4	e1dd30b6	 ldrh        r3, [sp, #6]
  000a8	e3530000	 cmp         r3, #0
  000ac	1a000005	 bne         |$LN4@ShowNetwor|
  000b0	e1dd30b8	 ldrh        r3, [sp, #8]
  000b4	e3530000	 cmp         r3, #0
  000b8	1a000002	 bne         |$LN4@ShowNetwor|
  000bc		 |$LN3@ShowNetwor|

; 382  :     {
; 383  :         fValidExtMacAddr = FALSE;        

  000bc	e3a03000	 mov         r3, #0
  000c0	e58d3000	 str         r3, [sp]

; 384  :     }
; 385  :     else

  000c4	ea000001	 b           |$LN1@ShowNetwor|
  000c8		 |$LN4@ShowNetwor|

; 386  :     {
; 387  :         fValidExtMacAddr = TRUE;        

  000c8	e3a03001	 mov         r3, #1
  000cc	e58d3000	 str         r3, [sp]
  000d0		 |$LN1@ShowNetwor|

; 388  :     }
; 389  : 
; 390  : 
; 391  :     OALLog(L"\r\n Network:\r\n");

  000d0	e59f0214	 ldr         r0, [pc, #0x214]
  000d4	eb000000	 bl          NKDbgPrintfW

; 392  :     OALLog(
; 393  :         L"  KITL state:    %s\r\n",
; 394  :         (g_bootCfg.kitlFlags & OAL_KITL_FLAGS_ENABLED) ? L"enabled" : L"disabled"
; 395  :     );

  000d8	e59f31d0	 ldr         r3, [pc, #0x1D0]
  000dc	e5933030	 ldr         r3, [r3, #0x30]
  000e0	e3130001	 tst         r3, #1
  000e4	0a000002	 beq         |$LN7@ShowNetwor|
  000e8	e59f31bc	 ldr         r3, [pc, #0x1BC]
  000ec	e58d3014	 str         r3, [sp, #0x14]
  000f0	ea000001	 b           |$LN8@ShowNetwor|
  000f4		 |$LN7@ShowNetwor|
  000f4	e59f31ac	 ldr         r3, [pc, #0x1AC]
  000f8	e58d3014	 str         r3, [sp, #0x14]
  000fc		 |$LN8@ShowNetwor|
  000fc	e59d1014	 ldr         r1, [sp, #0x14]
  00100	e59f01e0	 ldr         r0, [pc, #0x1E0]
  00104	eb000000	 bl          NKDbgPrintfW

; 396  : 
; 397  :     OALLog(
; 398  :         L"  KITL type:     %s\r\n",
; 399  :         (g_bootCfg.kitlFlags & OAL_KITL_FLAGS_PASSIVE) ? L"passive" : L"active"
; 400  :     );

  00108	e59f31a0	 ldr         r3, [pc, #0x1A0]
  0010c	e5933030	 ldr         r3, [r3, #0x30]
  00110	e3130002	 tst         r3, #2
  00114	0a000002	 beq         |$LN9@ShowNetwor|
  00118	e59f31c4	 ldr         r3, [pc, #0x1C4]
  0011c	e58d3018	 str         r3, [sp, #0x18]
  00120	ea000001	 b           |$LN10@ShowNetwor|
  00124		 |$LN9@ShowNetwor|
  00124	e59f31b4	 ldr         r3, [pc, #0x1B4]
  00128	e58d3018	 str         r3, [sp, #0x18]
  0012c		 |$LN10@ShowNetwor|
  0012c	e59d1018	 ldr         r1, [sp, #0x18]
  00130	e59f01a4	 ldr         r0, [pc, #0x1A4]
  00134	eb000000	 bl          NKDbgPrintfW

; 401  : 
; 402  :     OALLog(
; 403  :         L"  KITL mode:     %s\r\n",
; 404  :         (g_bootCfg.kitlFlags & OAL_KITL_FLAGS_POLL) ? L"polled" : L"interrupt"
; 405  :     );

  00138	e59f3170	 ldr         r3, [pc, #0x170]
  0013c	e5933030	 ldr         r3, [r3, #0x30]
  00140	e3130010	 tst         r3, #0x10
  00144	0a000002	 beq         |$LN11@ShowNetwor|
  00148	e59f3188	 ldr         r3, [pc, #0x188]
  0014c	e58d301c	 str         r3, [sp, #0x1C]
  00150	ea000001	 b           |$LN12@ShowNetwor|
  00154		 |$LN11@ShowNetwor|
  00154	e59f3178	 ldr         r3, [pc, #0x178]
  00158	e58d301c	 str         r3, [sp, #0x1C]
  0015c		 |$LN12@ShowNetwor|
  0015c	e59d101c	 ldr         r1, [sp, #0x1C]
  00160	e59f0168	 ldr         r0, [pc, #0x168]
  00164	eb000000	 bl          NKDbgPrintfW

; 406  :     OALLog(
; 407  :         L"  DHCP:          %s\r\n",
; 408  :         (g_bootCfg.kitlFlags & OAL_KITL_FLAGS_DHCP) ? L"enabled" : L"disabled"
; 409  :     );

  00168	e59f3140	 ldr         r3, [pc, #0x140]
  0016c	e5933030	 ldr         r3, [r3, #0x30]
  00170	e3130004	 tst         r3, #4
  00174	0a000002	 beq         |$LN13@ShowNetwor|
  00178	e59f312c	 ldr         r3, [pc, #0x12C]
  0017c	e58d3020	 str         r3, [sp, #0x20]
  00180	ea000001	 b           |$LN14@ShowNetwor|
  00184		 |$LN13@ShowNetwor|
  00184	e59f311c	 ldr         r3, [pc, #0x11C]
  00188	e58d3020	 str         r3, [sp, #0x20]
  0018c		 |$LN14@ShowNetwor|
  0018c	e59d1020	 ldr         r1, [sp, #0x20]
  00190	e59f0134	 ldr         r0, [pc, #0x134]
  00194	eb000000	 bl          NKDbgPrintfW

; 410  :     OALLog(L"  IP address:    %s\r\n", OALKitlIPtoString(g_bootCfg.ipAddress));

  00198	e59f3110	 ldr         r3, [pc, #0x110]
  0019c	e5930038	 ldr         r0, [r3, #0x38]
  001a0	eb000000	 bl          OALKitlIPtoString
  001a4	e58d0024	 str         r0, [sp, #0x24]
  001a8	e59d1024	 ldr         r1, [sp, #0x24]
  001ac	e59f0114	 ldr         r0, [pc, #0x114]
  001b0	eb000000	 bl          NKDbgPrintfW

; 411  :     OALLog(L"  IP mask:       %s\r\n", OALKitlIPtoString(g_bootCfg.ipMask));

  001b4	e59f30f4	 ldr         r3, [pc, #0xF4]
  001b8	e593003c	 ldr         r0, [r3, #0x3C]
  001bc	eb000000	 bl          OALKitlIPtoString
  001c0	e58d0028	 str         r0, [sp, #0x28]
  001c4	e59d1028	 ldr         r1, [sp, #0x28]
  001c8	e59f00f4	 ldr         r0, [pc, #0xF4]
  001cc	eb000000	 bl          NKDbgPrintfW

; 412  :     OALLog(L"  IP router:     %s\r\n", OALKitlIPtoString(g_bootCfg.ipRoute));

  001d0	e59f30d8	 ldr         r3, [pc, #0xD8]
  001d4	e5930040	 ldr         r0, [r3, #0x40]
  001d8	eb000000	 bl          OALKitlIPtoString
  001dc	e58d002c	 str         r0, [sp, #0x2C]
  001e0	e59d102c	 ldr         r1, [sp, #0x2C]
  001e4	e59f00d4	 ldr         r0, [pc, #0xD4]
  001e8	eb000000	 bl          NKDbgPrintfW

; 413  :     OALLog(L"  Eth MAC Addr:  %s (%s)\r\n", 
; 414  :         OALKitlMACtoString(fValidExtMacAddr ? mac : g_bootCfg.mac)
; 415  :         ,fValidExtMacAddr ? L"EEPROM" : L"Boot settings");

  001ec	e59d3000	 ldr         r3, [sp]
  001f0	e3530000	 cmp         r3, #0
  001f4	0a000002	 beq         |$LN15@ShowNetwor|
  001f8	e59f30bc	 ldr         r3, [pc, #0xBC]
  001fc	e58d3030	 str         r3, [sp, #0x30]
  00200	ea000001	 b           |$LN16@ShowNetwor|
  00204		 |$LN15@ShowNetwor|
  00204	e59f30ac	 ldr         r3, [pc, #0xAC]
  00208	e58d3030	 str         r3, [sp, #0x30]
  0020c		 |$LN16@ShowNetwor|
  0020c	e59d3000	 ldr         r3, [sp]
  00210	e3530000	 cmp         r3, #0
  00214	0a000002	 beq         |$LN17@ShowNetwor|
  00218	e28d3004	 add         r3, sp, #4
  0021c	e58d3034	 str         r3, [sp, #0x34]
  00220	ea000002	 b           |$LN18@ShowNetwor|
  00224		 |$LN17@ShowNetwor|
  00224	e59f3084	 ldr         r3, [pc, #0x84]
  00228	e2833066	 add         r3, r3, #0x66
  0022c	e58d3034	 str         r3, [sp, #0x34]
  00230		 |$LN18@ShowNetwor|
  00230	e59d0034	 ldr         r0, [sp, #0x34]
  00234	eb000000	 bl          OALKitlMACtoString
  00238	e58d0038	 str         r0, [sp, #0x38]
  0023c	e59d2030	 ldr         r2, [sp, #0x30]
  00240	e59d1038	 ldr         r1, [sp, #0x38]
  00244	e59f0068	 ldr         r0, [pc, #0x68]
  00248	eb000000	 bl          NKDbgPrintfW

; 416  :     OALLog(
; 417  :         L"  VMINI:         %s\r\n",
; 418  :         (g_bootCfg.kitlFlags & OAL_KITL_FLAGS_VMINI) ? L"enabled" : L"disabled"
; 419  :     );

  0024c	e59f305c	 ldr         r3, [pc, #0x5C]
  00250	e5933030	 ldr         r3, [r3, #0x30]
  00254	e3130008	 tst         r3, #8
  00258	0a000002	 beq         |$LN19@ShowNetwor|
  0025c	e59f3048	 ldr         r3, [pc, #0x48]
  00260	e58d303c	 str         r3, [sp, #0x3C]
  00264	ea000001	 b           |$LN20@ShowNetwor|
  00268		 |$LN19@ShowNetwor|
  00268	e59f3038	 ldr         r3, [pc, #0x38]
  0026c	e58d303c	 str         r3, [sp, #0x3C]
  00270		 |$LN20@ShowNetwor|
  00270	e59d103c	 ldr         r1, [sp, #0x3C]
  00274	e59f0028	 ldr         r0, [pc, #0x28]
  00278	eb000000	 bl          NKDbgPrintfW

; 420  :     OALLog(L"  Note: USBFN RNDIS MAC Addr cannot be changed.\r\n");

  0027c	e59f001c	 ldr         r0, [pc, #0x1C]
  00280	eb000000	 bl          NKDbgPrintfW

; 421  :     
; 422  :     OALBLMenuReadKey(TRUE);

  00284	e3a00001	 mov         r0, #1
  00288	eb000000	 bl          OALBLMenuReadKey

; 374  : {

  0028c	e59d000c	 ldr         r0, [sp, #0xC]
  00290	eb000000	 bl          __security_check_cookie

; 423  : }

  00294	e28dd040	 add         sp, sp, #0x40
  00298	e89d6000	 ldmia       sp, {sp, lr}
  0029c	e12fff1e	 bx          lr
  002a0		 |$LN24@ShowNetwor|
  002a0		 |$LN25@ShowNetwor|
  002a0	00000000	 DCD         |??_C@_1GE@BGIPLJDA@?$AA?5?$AA?5?$AAN?$AAo?$AAt?$AAe?$AA?3?$AA?5?$AAU?$AAS?$AAB?$AAF?$AAN?$AA?5?$AAR?$AAN?$AAD?$AAI?$AAS?$AA?5?$AAM?$AAA?$AAC?$AA?5?$AAA?$AAd?$AAd?$AAr?$AA?5?$AAc?$AAa?$AAn@|
  002a4		 |$LN26@ShowNetwor|
  002a4	00000000	 DCD         |??_C@_1CM@MBNEBDDK@?$AA?5?$AA?5?$AAV?$AAM?$AAI?$AAN?$AAI?$AA?3?$AA?5?$AA?5?$AA?5?$AA?5?$AA?5?$AA?5?$AA?5?$AA?5?$AA?5?$AA?$CF?$AAs?$AA?$AN?$AA?6?$AA?$AA@|
  002a8		 |$LN27@ShowNetwor|
  002a8	00000000	 DCD         |??_C@_1BC@LGPIFEA@?$AAd?$AAi?$AAs?$AAa?$AAb?$AAl?$AAe?$AAd?$AA?$AA@|
  002ac		 |$LN28@ShowNetwor|
  002ac	00000000	 DCD         |??_C@_1BA@BKMGIBPB@?$AAe?$AAn?$AAa?$AAb?$AAl?$AAe?$AAd?$AA?$AA@|
  002b0		 |$LN29@ShowNetwor|
  002b0	00000000	 DCD         |g_bootCfg|
  002b4		 |$LN30@ShowNetwor|
  002b4	00000000	 DCD         |??_C@_1DG@LEIGGFEH@?$AA?5?$AA?5?$AAE?$AAt?$AAh?$AA?5?$AAM?$AAA?$AAC?$AA?5?$AAA?$AAd?$AAd?$AAr?$AA?3?$AA?5?$AA?5?$AA?$CF?$AAs?$AA?5?$AA?$CI?$AA?$CF?$AAs?$AA?$CJ?$AA?$AN?$AA?6?$AA?$AA@|
  002b8		 |$LN31@ShowNetwor|
  002b8	00000000	 DCD         |??_C@_1BM@HBILLBOB@?$AAB?$AAo?$AAo?$AAt?$AA?5?$AAs?$AAe?$AAt?$AAt?$AAi?$AAn?$AAg?$AAs?$AA?$AA@|
  002bc		 |$LN32@ShowNetwor|
  002bc	00000000	 DCD         |??_C@_1O@HKPJJFOO@?$AAE?$AAE?$AAP?$AAR?$AAO?$AAM?$AA?$AA@|
  002c0		 |$LN33@ShowNetwor|
  002c0	00000000	 DCD         |??_C@_1CM@IMEGPKBH@?$AA?5?$AA?5?$AAI?$AAP?$AA?5?$AAr?$AAo?$AAu?$AAt?$AAe?$AAr?$AA?3?$AA?5?$AA?5?$AA?5?$AA?5?$AA?5?$AA?$CF?$AAs?$AA?$AN?$AA?6?$AA?$AA@|
  002c4		 |$LN34@ShowNetwor|
  002c4	00000000	 DCD         |??_C@_1CM@MFPGPOHA@?$AA?5?$AA?5?$AAI?$AAP?$AA?5?$AAm?$AAa?$AAs?$AAk?$AA?3?$AA?5?$AA?5?$AA?5?$AA?5?$AA?5?$AA?5?$AA?5?$AA?$CF?$AAs?$AA?$AN?$AA?6?$AA?$AA@|
  002c8		 |$LN35@ShowNetwor|
  002c8	00000000	 DCD         |??_C@_1CM@PFJOPCHK@?$AA?5?$AA?5?$AAI?$AAP?$AA?5?$AAa?$AAd?$AAd?$AAr?$AAe?$AAs?$AAs?$AA?3?$AA?5?$AA?5?$AA?5?$AA?5?$AA?$CF?$AAs?$AA?$AN?$AA?6?$AA?$AA@|
  002cc		 |$LN36@ShowNetwor|
  002cc	00000000	 DCD         |??_C@_1CM@ENNBLIDC@?$AA?5?$AA?5?$AAD?$AAH?$AAC?$AAP?$AA?3?$AA?5?$AA?5?$AA?5?$AA?5?$AA?5?$AA?5?$AA?5?$AA?5?$AA?5?$AA?5?$AA?$CF?$AAs?$AA?$AN?$AA?6?$AA?$AA@|
  002d0		 |$LN37@ShowNetwor|
  002d0	00000000	 DCD         |??_C@_1CM@OEGKHNAF@?$AA?5?$AA?5?$AAK?$AAI?$AAT?$AAL?$AA?5?$AAm?$AAo?$AAd?$AAe?$AA?3?$AA?5?$AA?5?$AA?5?$AA?5?$AA?5?$AA?$CF?$AAs?$AA?$AN?$AA?6?$AA?$AA@|
  002d4		 |$LN38@ShowNetwor|
  002d4	00000000	 DCD         |??_C@_1BE@OLFPFCKI@?$AAi?$AAn?$AAt?$AAe?$AAr?$AAr?$AAu?$AAp?$AAt?$AA?$AA@|
  002d8		 |$LN39@ShowNetwor|
  002d8	00000000	 DCD         |??_C@_1O@DOAPGJLD@?$AAp?$AAo?$AAl?$AAl?$AAe?$AAd?$AA?$AA@|
  002dc		 |$LN40@ShowNetwor|
  002dc	00000000	 DCD         |??_C@_1CM@OLFKODG@?$AA?5?$AA?5?$AAK?$AAI?$AAT?$AAL?$AA?5?$AAt?$AAy?$AAp?$AAe?$AA?3?$AA?5?$AA?5?$AA?5?$AA?5?$AA?5?$AA?$CF?$AAs?$AA?$AN?$AA?6?$AA?$AA@|
  002e0		 |$LN41@ShowNetwor|
  002e0	00000000	 DCD         |??_C@_1O@IBNPCBAA@?$AAa?$AAc?$AAt?$AAi?$AAv?$AAe?$AA?$AA@|
  002e4		 |$LN42@ShowNetwor|
  002e4	00000000	 DCD         |??_C@_1BA@INHNFGAO@?$AAp?$AAa?$AAs?$AAs?$AAi?$AAv?$AAe?$AA?$AA@|
  002e8		 |$LN43@ShowNetwor|
  002e8	00000000	 DCD         |??_C@_1CM@KKLHLKH@?$AA?5?$AA?5?$AAK?$AAI?$AAT?$AAL?$AA?5?$AAs?$AAt?$AAa?$AAt?$AAe?$AA?3?$AA?5?$AA?5?$AA?5?$AA?5?$AA?$CF?$AAs?$AA?$AN?$AA?6?$AA?$AA@|
  002ec		 |$LN44@ShowNetwor|
  002ec	00000000	 DCD         |??_C@_1BM@NCMLOBGF@?$AA?$AN?$AA?6?$AA?5?$AAN?$AAe?$AAt?$AAw?$AAo?$AAr?$AAk?$AA?3?$AA?$AN?$AA?6?$AA?$AA@|
  002f0		 |$LN45@ShowNetwor|
  002f0	00000000	 DCD         |__security_cookie|
  002f4		 |$M47322|

			 ENDP  ; |ShowNetworkSettings|

	EXPORT	|??_C@_1DG@GANBFOFA@?$AA?5?$AAK?$AAI?$AAT?$AAL?$AA?5?$AAs?$AAe?$AAt?$AA?5?$AAt?$AAo?$AA?5?$AAp?$AAo?$AAl?$AAl?$AAe?$AAd?$AA?5?$AAm?$AAo?$AAd?$AAe?$AA?$AN?$AA?6?$AA?$AA@| [ DATA ] ; `string'
	EXPORT	|??_C@_1DM@IPPCLHEI@?$AA?5?$AAK?$AAI?$AAT?$AAL?$AA?5?$AAs?$AAe?$AAt?$AA?5?$AAt?$AAo?$AA?5?$AAi?$AAn?$AAt?$AAe?$AAr?$AAr?$AAu?$AAp?$AAt?$AA?5?$AAm?$AAo?$AAd?$AAe?$AA?$AN?$AA?6?$AA?$AA@| [ DATA ] ; `string'
	EXPORT	|??_C@_19DIEGALPP@?$AA?$CF?$AAc?$AA?$AN?$AA?6?$AA?$AA@| [ DATA ] ; `string'
	EXPORT	|??_C@_1EC@JHPHMHOA@?$AA?5?$AAS?$AAe?$AAt?$AA?5?$AAK?$AAI?$AAT?$AAL?$AA?5?$AAt?$AAo?$AA?5?$AAp?$AAo?$AAl?$AAl?$AAe?$AAd?$AA?5?$AAm?$AAo?$AAd?$AAe?$AA?5?$AA?$FL?$AAy?$AA?1?$AA?9?$AA?$FN?$AA?3?$AA?5@| [ DATA ] ; `string'
	EXPORT	|??_C@_1EI@CAADENIK@?$AA?5?$AAS?$AAe?$AAt?$AA?5?$AAK?$AAI?$AAT?$AAL?$AA?5?$AAt?$AAo?$AA?5?$AAi?$AAn?$AAt?$AAe?$AAr?$AAr?$AAu?$AAp?$AAt?$AA?5?$AAm?$AAo?$AAd?$AAe?$AA?5?$AA?$FL?$AAy?$AA?1?$AA?9@| [ DATA ] ; `string'

  00000			 AREA	 |.pdata|, PDATA
|$T47354| DCD	|$LN11@SetKitlMod|
	DCD	0x40003a04

  00000			 AREA	 |.rdata|, DATA, READONLY
|??_C@_1DG@GANBFOFA@?$AA?5?$AAK?$AAI?$AAT?$AAL?$AA?5?$AAs?$AAe?$AAt?$AA?5?$AAt?$AAo?$AA?5?$AAp?$AAo?$AAl?$AAl?$AAe?$AAd?$AA?5?$AAm?$AAo?$AAd?$AAe?$AA?$AN?$AA?6?$AA?$AA@| DCB " "
	DCB	0x0, "K", 0x0, "I", 0x0, "T", 0x0, "L", 0x0, " ", 0x0, "s"
	DCB	0x0, "e", 0x0, "t", 0x0, " ", 0x0, "t", 0x0, "o", 0x0, " "
	DCB	0x0, "p", 0x0, "o", 0x0, "l", 0x0, "l", 0x0, "e", 0x0, "d"
	DCB	0x0, " ", 0x0, "m", 0x0, "o", 0x0, "d", 0x0, "e", 0x0, 0xd
	DCB	0x0, 0xa, 0x0, 0x0, 0x0			; `string'

  00000			 AREA	 |.rdata|, DATA, READONLY
|??_C@_1DM@IPPCLHEI@?$AA?5?$AAK?$AAI?$AAT?$AAL?$AA?5?$AAs?$AAe?$AAt?$AA?5?$AAt?$AAo?$AA?5?$AAi?$AAn?$AAt?$AAe?$AAr?$AAr?$AAu?$AAp?$AAt?$AA?5?$AAm?$AAo?$AAd?$AAe?$AA?$AN?$AA?6?$AA?$AA@| DCB " "
	DCB	0x0, "K", 0x0, "I", 0x0, "T", 0x0, "L", 0x0, " ", 0x0, "s"
	DCB	0x0, "e", 0x0, "t", 0x0, " ", 0x0, "t", 0x0, "o", 0x0, " "
	DCB	0x0, "i", 0x0, "n", 0x0, "t", 0x0, "e", 0x0, "r", 0x0, "r"
	DCB	0x0, "u", 0x0, "p", 0x0, "t", 0x0, " ", 0x0, "m", 0x0, "o"
	DCB	0x0, "d", 0x0, "e", 0x0, 0xd, 0x0, 0xa, 0x0, 0x0, 0x0 ; `string'

  00000			 AREA	 |.rdata|, DATA, READONLY
|??_C@_19DIEGALPP@?$AA?$CF?$AAc?$AA?$AN?$AA?6?$AA?$AA@| DCB "%", 0x0, "c", 0x0
	DCB	0xd, 0x0, 0xa, 0x0, 0x0, 0x0		; `string'

  00000			 AREA	 |.rdata|, DATA, READONLY
|??_C@_1EC@JHPHMHOA@?$AA?5?$AAS?$AAe?$AAt?$AA?5?$AAK?$AAI?$AAT?$AAL?$AA?5?$AAt?$AAo?$AA?5?$AAp?$AAo?$AAl?$AAl?$AAe?$AAd?$AA?5?$AAm?$AAo?$AAd?$AAe?$AA?5?$AA?$FL?$AAy?$AA?1?$AA?9?$AA?$FN?$AA?3?$AA?5@| DCB " "
	DCB	0x0, "S", 0x0, "e", 0x0, "t", 0x0, " ", 0x0, "K", 0x0, "I"
	DCB	0x0, "T", 0x0, "L", 0x0, " ", 0x0, "t", 0x0, "o", 0x0, " "
	DCB	0x0, "p", 0x0, "o", 0x0, "l", 0x0, "l", 0x0, "e", 0x0, "d"
	DCB	0x0, " ", 0x0, "m", 0x0, "o", 0x0, "d", 0x0, "e", 0x0, " "
	DCB	0x0, "[", 0x0, "y", 0x0, "/", 0x0, "-", 0x0, "]", 0x0, ":"
	DCB	0x0, " ", 0x0, 0x0, 0x0			; `string'

  00000			 AREA	 |.rdata|, DATA, READONLY
|??_C@_1EI@CAADENIK@?$AA?5?$AAS?$AAe?$AAt?$AA?5?$AAK?$AAI?$AAT?$AAL?$AA?5?$AAt?$AAo?$AA?5?$AAi?$AAn?$AAt?$AAe?$AAr?$AAr?$AAu?$AAp?$AAt?$AA?5?$AAm?$AAo?$AAd?$AAe?$AA?5?$AA?$FL?$AAy?$AA?1?$AA?9@| DCB " "
	DCB	0x0, "S", 0x0, "e", 0x0, "t", 0x0, " ", 0x0, "K", 0x0, "I"
	DCB	0x0, "T", 0x0, "L", 0x0, " ", 0x0, "t", 0x0, "o", 0x0, " "
	DCB	0x0, "i", 0x0, "n", 0x0, "t", 0x0, "e", 0x0, "r", 0x0, "r"
	DCB	0x0, "u", 0x0, "p", 0x0, "t", 0x0, " ", 0x0, "m", 0x0, "o"
	DCB	0x0, "d", 0x0, "e", 0x0, " ", 0x0, "[", 0x0, "y", 0x0, "/"
	DCB	0x0, "-", 0x0, "]", 0x0, ":", 0x0, " ", 0x0, 0x0, 0x0 ; `string'
; Function compile flags: /Odtp

  00000			 AREA	 |.text|, CODE, ARM

  00000		 |SetKitlMode| PROC

; 428  : {

  00000		 |$LN11@SetKitlMod|
  00000	e1a0c00d	 mov         r12, sp
  00004	e92d0001	 stmdb       sp!, {r0}
  00008	e92d5000	 stmdb       sp!, {r12, lr}
  0000c	e24dd004	 sub         sp, sp, #4
  00010		 |$M47351|

; 429  :     WCHAR key;
; 430  :     UNREFERENCED_PARAMETER(pMenu);
; 431  : 
; 432  :     if ((g_bootCfg.kitlFlags & OAL_KITL_FLAGS_POLL) != 0) {

  00010	e59f30bc	 ldr         r3, [pc, #0xBC]
  00014	e5933030	 ldr         r3, [r3, #0x30]
  00018	e3130010	 tst         r3, #0x10
  0001c	0a000002	 beq         |$LN6@SetKitlMod|

; 433  :         OALLog(L" Set KITL to interrupt mode [y/-]: ");

  00020	e59f00bc	 ldr         r0, [pc, #0xBC]
  00024	eb000000	 bl          NKDbgPrintfW

; 434  :     } else {

  00028	ea000001	 b           |$LN5@SetKitlMod|
  0002c		 |$LN6@SetKitlMod|

; 435  :         OALLog(L" Set KITL to polled mode [y/-]: ");

  0002c	e59f00ac	 ldr         r0, [pc, #0xAC]
  00030	eb000000	 bl          NKDbgPrintfW
  00034		 |$LN5@SetKitlMod|

; 436  :     }    
; 437  : 
; 438  :     // Get key
; 439  :     key = OALBLMenuReadKey(TRUE);

  00034	e3a00001	 mov         r0, #1
  00038	eb000000	 bl          OALBLMenuReadKey
  0003c	e1a03800	 mov         r3, r0, lsl #16
  00040	e1a03823	 mov         r3, r3, lsr #16
  00044	e1cd30b2	 strh        r3, [sp, #2]
  00048	e1dd30b2	 ldrh        r3, [sp, #2]
  0004c	e1cd30b0	 strh        r3, [sp]

; 440  :     OALLog(L"%c\r\n", key);

  00050	e1dd10b0	 ldrh        r1, [sp]
  00054	e59f0080	 ldr         r0, [pc, #0x80]
  00058	eb000000	 bl          NKDbgPrintfW

; 441  : 
; 442  :     if (key == L'y' || key == L'Y') {

  0005c	e1dd30b0	 ldrh        r3, [sp]
  00060	e3530079	 cmp         r3, #0x79
  00064	0a000002	 beq         |$LN3@SetKitlMod|
  00068	e1dd30b0	 ldrh        r3, [sp]
  0006c	e3530059	 cmp         r3, #0x59
  00070	1a000013	 bne         |$LN4@SetKitlMod|
  00074		 |$LN3@SetKitlMod|

; 443  :         if ((g_bootCfg.kitlFlags & OAL_KITL_FLAGS_POLL) != 0) {

  00074	e59f3058	 ldr         r3, [pc, #0x58]
  00078	e5933030	 ldr         r3, [r3, #0x30]
  0007c	e3130010	 tst         r3, #0x10
  00080	0a000008	 beq         |$LN2@SetKitlMod|

; 444  :             g_bootCfg.kitlFlags &= ~OAL_KITL_FLAGS_POLL;

  00084	e59f3048	 ldr         r3, [pc, #0x48]
  00088	e5932030	 ldr         r2, [r3, #0x30]
  0008c	e3e03010	 mvn         r3, #0x10
  00090	e0022003	 and         r2, r2, r3
  00094	e59f3038	 ldr         r3, [pc, #0x38]
  00098	e5832030	 str         r2, [r3, #0x30]

; 445  :             OALLog(L" KITL set to interrupt mode\r\n");

  0009c	e59f0034	 ldr         r0, [pc, #0x34]
  000a0	eb000000	 bl          NKDbgPrintfW

; 446  :         } else {

  000a4	ea000006	 b           |$LN1@SetKitlMod|
  000a8		 |$LN2@SetKitlMod|

; 447  :             g_bootCfg.kitlFlags |= OAL_KITL_FLAGS_POLL;

  000a8	e59f3024	 ldr         r3, [pc, #0x24]
  000ac	e5933030	 ldr         r3, [r3, #0x30]
  000b0	e3832010	 orr         r2, r3, #0x10
  000b4	e59f3018	 ldr         r3, [pc, #0x18]
  000b8	e5832030	 str         r2, [r3, #0x30]

; 448  :             OALLog(L" KITL set to polled mode\r\n");

  000bc	e59f000c	 ldr         r0, [pc, #0xC]
  000c0	eb000000	 bl          NKDbgPrintfW
  000c4		 |$LN1@SetKitlMod|
  000c4		 |$LN4@SetKitlMod|

; 449  :         }            
; 450  :     }
; 451  : }

  000c4	e28dd004	 add         sp, sp, #4
  000c8	e89d6000	 ldmia       sp, {sp, lr}
  000cc	e12fff1e	 bx          lr
  000d0		 |$LN12@SetKitlMod|
  000d0		 |$LN13@SetKitlMod|
  000d0	00000000	 DCD         |??_C@_1DG@GANBFOFA@?$AA?5?$AAK?$AAI?$AAT?$AAL?$AA?5?$AAs?$AAe?$AAt?$AA?5?$AAt?$AAo?$AA?5?$AAp?$AAo?$AAl?$AAl?$AAe?$AAd?$AA?5?$AAm?$AAo?$AAd?$AAe?$AA?$AN?$AA?6?$AA?$AA@|
  000d4		 |$LN14@SetKitlMod|
  000d4	00000000	 DCD         |g_bootCfg|
  000d8		 |$LN15@SetKitlMod|
  000d8	00000000	 DCD         |??_C@_1DM@IPPCLHEI@?$AA?5?$AAK?$AAI?$AAT?$AAL?$AA?5?$AAs?$AAe?$AAt?$AA?5?$AAt?$AAo?$AA?5?$AAi?$AAn?$AAt?$AAe?$AAr?$AAr?$AAu?$AAp?$AAt?$AA?5?$AAm?$AAo?$AAd?$AAe?$AA?$AN?$AA?6?$AA?$AA@|
  000dc		 |$LN16@SetKitlMod|
  000dc	00000000	 DCD         |??_C@_19DIEGALPP@?$AA?$CF?$AAc?$AA?$AN?$AA?6?$AA?$AA@|
  000e0		 |$LN17@SetKitlMod|
  000e0	00000000	 DCD         |??_C@_1EC@JHPHMHOA@?$AA?5?$AAS?$AAe?$AAt?$AA?5?$AAK?$AAI?$AAT?$AAL?$AA?5?$AAt?$AAo?$AA?5?$AAp?$AAo?$AAl?$AAl?$AAe?$AAd?$AA?5?$AAm?$AAo?$AAd?$AAe?$AA?5?$AA?$FL?$AAy?$AA?1?$AA?9?$AA?$FN?$AA?3?$AA?5@|
  000e4		 |$LN18@SetKitlMod|
  000e4	00000000	 DCD         |??_C@_1EI@CAADENIK@?$AA?5?$AAS?$AAe?$AAt?$AA?5?$AAK?$AAI?$AAT?$AAL?$AA?5?$AAt?$AAo?$AA?5?$AAi?$AAn?$AAt?$AAe?$AAr?$AAr?$AAu?$AAp?$AAt?$AA?5?$AAm?$AAo?$AAd?$AAe?$AA?5?$AA?$FL?$AAy?$AA?1?$AA?9@|
  000e8		 |$M47352|

			 ENDP  ; |SetKitlMode|

	EXPORT	|??_C@_1DI@DNJMHDAE@?$AA?5?$AAK?$AAI?$AAT?$AAL?$AA?5?$AAs?$AAe?$AAt?$AA?5?$AAt?$AAo?$AA?5?$AAp?$AAa?$AAs?$AAs?$AAi?$AAv?$AAe?$AA?5?$AAm?$AAo?$AAd?$AAe?$AA?$AN?$AA?6?$AA?$AA@| [ DATA ] ; `string'
	EXPORT	|??_C@_1DG@EDFECNLC@?$AA?5?$AAK?$AAI?$AAT?$AAL?$AA?5?$AAs?$AAe?$AAt?$AA?5?$AAt?$AAo?$AA?5?$AAa?$AAc?$AAt?$AAi?$AAv?$AAe?$AA?5?$AAm?$AAo?$AAd?$AAe?$AA?$AN?$AA?6?$AA?$AA@| [ DATA ] ; `string'
	EXPORT	|??_C@_1EE@HIABIPBL@?$AA?5?$AAS?$AAe?$AAt?$AA?5?$AAK?$AAI?$AAT?$AAL?$AA?5?$AAt?$AAo?$AA?5?$AAp?$AAa?$AAs?$AAs?$AAi?$AAv?$AAe?$AA?5?$AAm?$AAo?$AAd?$AAe?$AA?5?$AA?$FL?$AAy?$AA?1?$AA?9?$AA?$FN?$AA?3@| [ DATA ] ; `string'
	EXPORT	|??_C@_1EC@OPMJBCEG@?$AA?5?$AAS?$AAe?$AAt?$AA?5?$AAK?$AAI?$AAT?$AAL?$AA?5?$AAt?$AAo?$AA?5?$AAa?$AAc?$AAt?$AAi?$AAv?$AAe?$AA?5?$AAm?$AAo?$AAd?$AAe?$AA?5?$AA?$FL?$AAy?$AA?1?$AA?9?$AA?$FN?$AA?3?$AA?5@| [ DATA ] ; `string'

  00000			 AREA	 |.pdata|, PDATA
|$T47368| DCD	|$LN11@SetKitlTyp|
	DCD	0x40003a04

  00000			 AREA	 |.rdata|, DATA, READONLY
|??_C@_1DI@DNJMHDAE@?$AA?5?$AAK?$AAI?$AAT?$AAL?$AA?5?$AAs?$AAe?$AAt?$AA?5?$AAt?$AAo?$AA?5?$AAp?$AAa?$AAs?$AAs?$AAi?$AAv?$AAe?$AA?5?$AAm?$AAo?$AAd?$AAe?$AA?$AN?$AA?6?$AA?$AA@| DCB " "
	DCB	0x0, "K", 0x0, "I", 0x0, "T", 0x0, "L", 0x0, " ", 0x0, "s"
	DCB	0x0, "e", 0x0, "t", 0x0, " ", 0x0, "t", 0x0, "o", 0x0, " "
	DCB	0x0, "p", 0x0, "a", 0x0, "s", 0x0, "s", 0x0, "i", 0x0, "v"
	DCB	0x0, "e", 0x0, " ", 0x0, "m", 0x0, "o", 0x0, "d", 0x0, "e"
	DCB	0x0, 0xd, 0x0, 0xa, 0x0, 0x0, 0x0	; `string'

  00000			 AREA	 |.rdata|, DATA, READONLY
|??_C@_1DG@EDFECNLC@?$AA?5?$AAK?$AAI?$AAT?$AAL?$AA?5?$AAs?$AAe?$AAt?$AA?5?$AAt?$AAo?$AA?5?$AAa?$AAc?$AAt?$AAi?$AAv?$AAe?$AA?5?$AAm?$AAo?$AAd?$AAe?$AA?$AN?$AA?6?$AA?$AA@| DCB " "
	DCB	0x0, "K", 0x0, "I", 0x0, "T", 0x0, "L", 0x0, " ", 0x0, "s"
	DCB	0x0, "e", 0x0, "t", 0x0, " ", 0x0, "t", 0x0, "o", 0x0, " "
	DCB	0x0, "a", 0x0, "c", 0x0, "t", 0x0, "i", 0x0, "v", 0x0, "e"
	DCB	0x0, " ", 0x0, "m", 0x0, "o", 0x0, "d", 0x0, "e", 0x0, 0xd
	DCB	0x0, 0xa, 0x0, 0x0, 0x0			; `string'

  00000			 AREA	 |.rdata|, DATA, READONLY
|??_C@_1EE@HIABIPBL@?$AA?5?$AAS?$AAe?$AAt?$AA?5?$AAK?$AAI?$AAT?$AAL?$AA?5?$AAt?$AAo?$AA?5?$AAp?$AAa?$AAs?$AAs?$AAi?$AAv?$AAe?$AA?5?$AAm?$AAo?$AAd?$AAe?$AA?5?$AA?$FL?$AAy?$AA?1?$AA?9?$AA?$FN?$AA?3@| DCB " "
	DCB	0x0, "S", 0x0, "e", 0x0, "t", 0x0, " ", 0x0, "K", 0x0, "I"
	DCB	0x0, "T", 0x0, "L", 0x0, " ", 0x0, "t", 0x0, "o", 0x0, " "
	DCB	0x0, "p", 0x0, "a", 0x0, "s", 0x0, "s", 0x0, "i", 0x0, "v"
	DCB	0x0, "e", 0x0, " ", 0x0, "m", 0x0, "o", 0x0, "d", 0x0, "e"
	DCB	0x0, " ", 0x0, "[", 0x0, "y", 0x0, "/", 0x0, "-", 0x0, "]"
	DCB	0x0, ":", 0x0, " ", 0x0, 0x0, 0x0	; `string'

  00000			 AREA	 |.rdata|, DATA, READONLY
|??_C@_1EC@OPMJBCEG@?$AA?5?$AAS?$AAe?$AAt?$AA?5?$AAK?$AAI?$AAT?$AAL?$AA?5?$AAt?$AAo?$AA?5?$AAa?$AAc?$AAt?$AAi?$AAv?$AAe?$AA?5?$AAm?$AAo?$AAd?$AAe?$AA?5?$AA?$FL?$AAy?$AA?1?$AA?9?$AA?$FN?$AA?3?$AA?5@| DCB " "
	DCB	0x0, "S", 0x0, "e", 0x0, "t", 0x0, " ", 0x0, "K", 0x0, "I"
	DCB	0x0, "T", 0x0, "L", 0x0, " ", 0x0, "t", 0x0, "o", 0x0, " "
	DCB	0x0, "a", 0x0, "c", 0x0, "t", 0x0, "i", 0x0, "v", 0x0, "e"
	DCB	0x0, " ", 0x0, "m", 0x0, "o", 0x0, "d", 0x0, "e", 0x0, " "
	DCB	0x0, "[", 0x0, "y", 0x0, "/", 0x0, "-", 0x0, "]", 0x0, ":"
	DCB	0x0, " ", 0x0, 0x0, 0x0			; `string'
; Function compile flags: /Odtp

  00000			 AREA	 |.text|, CODE, ARM

  00000		 |SetKitlType| PROC

; 459  : {

  00000		 |$LN11@SetKitlTyp|
  00000	e1a0c00d	 mov         r12, sp
  00004	e92d0001	 stmdb       sp!, {r0}
  00008	e92d5000	 stmdb       sp!, {r12, lr}
  0000c	e24dd004	 sub         sp, sp, #4
  00010		 |$M47365|

; 460  :     WCHAR key;
; 461  :     UNREFERENCED_PARAMETER(pMenu);
; 462  : 
; 463  :     if ((g_bootCfg.kitlFlags & OAL_KITL_FLAGS_PASSIVE) != 0) 

  00010	e59f30bc	 ldr         r3, [pc, #0xBC]
  00014	e5933030	 ldr         r3, [r3, #0x30]
  00018	e3130002	 tst         r3, #2
  0001c	0a000002	 beq         |$LN6@SetKitlTyp|

; 464  :         {
; 465  :         OALLog(L" Set KITL to active mode [y/-]: ");

  00020	e59f00bc	 ldr         r0, [pc, #0xBC]
  00024	eb000000	 bl          NKDbgPrintfW

; 466  :         } 
; 467  :    else 

  00028	ea000001	 b           |$LN5@SetKitlTyp|
  0002c		 |$LN6@SetKitlTyp|

; 468  :         {
; 469  :         OALLog(L" Set KITL to passive mode [y/-]: ");

  0002c	e59f00ac	 ldr         r0, [pc, #0xAC]
  00030	eb000000	 bl          NKDbgPrintfW
  00034		 |$LN5@SetKitlTyp|

; 470  :         }    
; 471  : 
; 472  :     // Get key
; 473  :     key = OALBLMenuReadKey(TRUE);

  00034	e3a00001	 mov         r0, #1
  00038	eb000000	 bl          OALBLMenuReadKey
  0003c	e1a03800	 mov         r3, r0, lsl #16
  00040	e1a03823	 mov         r3, r3, lsr #16
  00044	e1cd30b2	 strh        r3, [sp, #2]
  00048	e1dd30b2	 ldrh        r3, [sp, #2]
  0004c	e1cd30b0	 strh        r3, [sp]

; 474  :     OALLog(L"%c\r\n", key);

  00050	e1dd10b0	 ldrh        r1, [sp]
  00054	e59f0080	 ldr         r0, [pc, #0x80]
  00058	eb000000	 bl          NKDbgPrintfW

; 475  : 
; 476  :     if (key == L'y' || key == L'Y') 

  0005c	e1dd30b0	 ldrh        r3, [sp]
  00060	e3530079	 cmp         r3, #0x79
  00064	0a000002	 beq         |$LN3@SetKitlTyp|
  00068	e1dd30b0	 ldrh        r3, [sp]
  0006c	e3530059	 cmp         r3, #0x59
  00070	1a000013	 bne         |$LN4@SetKitlTyp|
  00074		 |$LN3@SetKitlTyp|

; 477  :         {
; 478  :         if ((g_bootCfg.kitlFlags & OAL_KITL_FLAGS_PASSIVE) != 0) 

  00074	e59f3058	 ldr         r3, [pc, #0x58]
  00078	e5933030	 ldr         r3, [r3, #0x30]
  0007c	e3130002	 tst         r3, #2
  00080	0a000008	 beq         |$LN2@SetKitlTyp|

; 479  :             {
; 480  :             g_bootCfg.kitlFlags &= ~OAL_KITL_FLAGS_PASSIVE;

  00084	e59f3048	 ldr         r3, [pc, #0x48]
  00088	e5932030	 ldr         r2, [r3, #0x30]
  0008c	e3e03002	 mvn         r3, #2
  00090	e0022003	 and         r2, r2, r3
  00094	e59f3038	 ldr         r3, [pc, #0x38]
  00098	e5832030	 str         r2, [r3, #0x30]

; 481  :             OALLog(L" KITL set to active mode\r\n");

  0009c	e59f0034	 ldr         r0, [pc, #0x34]
  000a0	eb000000	 bl          NKDbgPrintfW

; 482  :             }
; 483  :         else 

  000a4	ea000006	 b           |$LN1@SetKitlTyp|
  000a8		 |$LN2@SetKitlTyp|

; 484  :             {
; 485  :             g_bootCfg.kitlFlags |= OAL_KITL_FLAGS_PASSIVE;

  000a8	e59f3024	 ldr         r3, [pc, #0x24]
  000ac	e5933030	 ldr         r3, [r3, #0x30]
  000b0	e3832002	 orr         r2, r3, #2
  000b4	e59f3018	 ldr         r3, [pc, #0x18]
  000b8	e5832030	 str         r2, [r3, #0x30]

; 486  :             OALLog(L" KITL set to passive mode\r\n");

  000bc	e59f000c	 ldr         r0, [pc, #0xC]
  000c0	eb000000	 bl          NKDbgPrintfW
  000c4		 |$LN1@SetKitlTyp|
  000c4		 |$LN4@SetKitlTyp|

; 487  :             }            
; 488  :         }
; 489  : }

  000c4	e28dd004	 add         sp, sp, #4
  000c8	e89d6000	 ldmia       sp, {sp, lr}
  000cc	e12fff1e	 bx          lr
  000d0		 |$LN12@SetKitlTyp|
  000d0		 |$LN13@SetKitlTyp|
  000d0	00000000	 DCD         |??_C@_1DI@DNJMHDAE@?$AA?5?$AAK?$AAI?$AAT?$AAL?$AA?5?$AAs?$AAe?$AAt?$AA?5?$AAt?$AAo?$AA?5?$AAp?$AAa?$AAs?$AAs?$AAi?$AAv?$AAe?$AA?5?$AAm?$AAo?$AAd?$AAe?$AA?$AN?$AA?6?$AA?$AA@|
  000d4		 |$LN14@SetKitlTyp|
  000d4	00000000	 DCD         |g_bootCfg|
  000d8		 |$LN15@SetKitlTyp|
  000d8	00000000	 DCD         |??_C@_1DG@EDFECNLC@?$AA?5?$AAK?$AAI?$AAT?$AAL?$AA?5?$AAs?$AAe?$AAt?$AA?5?$AAt?$AAo?$AA?5?$AAa?$AAc?$AAt?$AAi?$AAv?$AAe?$AA?5?$AAm?$AAo?$AAd?$AAe?$AA?$AN?$AA?6?$AA?$AA@|
  000dc		 |$LN16@SetKitlTyp|
  000dc	00000000	 DCD         |??_C@_19DIEGALPP@?$AA?$CF?$AAc?$AA?$AN?$AA?6?$AA?$AA@|
  000e0		 |$LN17@SetKitlTyp|
  000e0	00000000	 DCD         |??_C@_1EE@HIABIPBL@?$AA?5?$AAS?$AAe?$AAt?$AA?5?$AAK?$AAI?$AAT?$AAL?$AA?5?$AAt?$AAo?$AA?5?$AAp?$AAa?$AAs?$AAs?$AAi?$AAv?$AAe?$AA?5?$AAm?$AAo?$AAd?$AAe?$AA?5?$AA?$FL?$AAy?$AA?1?$AA?9?$AA?$FN?$AA?3@|
  000e4		 |$LN18@SetKitlTyp|
  000e4	00000000	 DCD         |??_C@_1EC@OPMJBCEG@?$AA?5?$AAS?$AAe?$AAt?$AA?5?$AAK?$AAI?$AAT?$AAL?$AA?5?$AAt?$AAo?$AA?5?$AAa?$AAc?$AAt?$AAi?$AAv?$AAe?$AA?5?$AAm?$AAo?$AAd?$AAe?$AA?5?$AA?$FL?$AAy?$AA?1?$AA?9?$AA?$FN?$AA?3?$AA?5@|
  000e8		 |$M47366|

			 ENDP  ; |SetKitlType|

	EXPORT	|OALStringToUINT32|
	EXPORT	|??_C@_1CG@DEECOADH@?$AA?$AN?$AA?6?$AA?5?$AAN?$AAe?$AAw?$AA?5?$AAD?$AAe?$AAv?$AAi?$AAc?$AAe?$AA?5?$AAI?$AAD?$AA?3?$AA?5?$AA?$AA@| [ DATA ] ; `string'
	EXPORT	|??_C@_1DE@MLCCPHNO@?$AA?5?$AAC?$AAu?$AAr?$AAr?$AAe?$AAn?$AAt?$AA?5?$AAD?$AAe?$AAv?$AAi?$AAc?$AAe?$AA?5?$AAI?$AAD?$AA?3?$AA?5?$AA?5?$AA?$CF?$AAd?$AA?$AN?$AA?6?$AA?$AA@| [ DATA ] ; `string'
	EXPORT	|__$ArrayPad$| [ DATA ]
	IMPORT	|OALBLMenuReadLine|

  00000			 AREA	 |.pdata|, PDATA
|$T47384| DCD	|$LN6@SetDeviceI|
	DCD	0xc0002404

  00000			 AREA	 |.rdata|, DATA, READONLY
|??_C@_1CG@DEECOADH@?$AA?$AN?$AA?6?$AA?5?$AAN?$AAe?$AAw?$AA?5?$AAD?$AAe?$AAv?$AAi?$AAc?$AAe?$AA?5?$AAI?$AAD?$AA?3?$AA?5?$AA?$AA@| DCB 0xd
	DCB	0x0, 0xa, 0x0, " ", 0x0, "N", 0x0, "e", 0x0, "w", 0x0, " "
	DCB	0x0, "D", 0x0, "e", 0x0, "v", 0x0, "i", 0x0, "c", 0x0, "e"
	DCB	0x0, " ", 0x0, "I", 0x0, "D", 0x0, ":", 0x0, " ", 0x0, 0x0
	DCB	0x0					; `string'

  00000			 AREA	 |.rdata|, DATA, READONLY
|??_C@_1DE@MLCCPHNO@?$AA?5?$AAC?$AAu?$AAr?$AAr?$AAe?$AAn?$AAt?$AA?5?$AAD?$AAe?$AAv?$AAi?$AAc?$AAe?$AA?5?$AAI?$AAD?$AA?3?$AA?5?$AA?5?$AA?$CF?$AAd?$AA?$AN?$AA?6?$AA?$AA@| DCB " "
	DCB	0x0, "C", 0x0, "u", 0x0, "r", 0x0, "r", 0x0, "e", 0x0, "n"
	DCB	0x0, "t", 0x0, " ", 0x0, "D", 0x0, "e", 0x0, "v", 0x0, "i"
	DCB	0x0, "c", 0x0, "e", 0x0, " ", 0x0, "I", 0x0, "D", 0x0, ":"
	DCB	0x0, " ", 0x0, " ", 0x0, "%", 0x0, "d", 0x0, 0xd, 0x0, 0xa
	DCB	0x0, 0x0, 0x0				; `string'

  00000			 AREA	 |.xdata|, DATA
|$T47380| DCD	0xffffffe8
; Function compile flags: /Odtp

  00000			 AREA	 |.text|, CODE, ARM

  00000	00000000	 DCD         |__GSHandlerCheck|
  00004	00000000	 DCD         |$T47380|

  00008		 |SetDeviceID| PROC

; 497  : {

  00008		 |$LN6@SetDeviceI|
  00008	e1a0c00d	 mov         r12, sp
  0000c	e92d0001	 stmdb       sp!, {r0}
  00010	e92d5000	 stmdb       sp!, {r12, lr}
  00014	e24dd02c	 sub         sp, sp, #0x2C
  00018		 |$M47381|
  00018	e59f3074	 ldr         r3, [pc, #0x74]
  0001c	e5933000	 ldr         r3, [r3]
  00020	e58d3020	 str         r3, [sp, #0x20]

; 498  :     WCHAR  szInputLine[16];
; 499  :     UNREFERENCED_PARAMETER(pMenu);
; 500  : 
; 501  :     OALLog(
; 502  :         L" Current Device ID:  %d\r\n", g_bootCfg.deviceID
; 503  :     );

  00024	e59f305c	 ldr         r3, [pc, #0x5C]
  00028	e5931044	 ldr         r1, [r3, #0x44]
  0002c	e59f005c	 ldr         r0, [pc, #0x5C]
  00030	eb000000	 bl          NKDbgPrintfW

; 504  : 
; 505  :     OALLog(L"\r\n New Device ID: ");

  00034	e59f0050	 ldr         r0, [pc, #0x50]
  00038	eb000000	 bl          NKDbgPrintfW

; 506  : 
; 507  :     if (OALBLMenuReadLine(szInputLine, dimof(szInputLine)) == 0) 

  0003c	e3a01010	 mov         r1, #0x10
  00040	e28d0000	 add         r0, sp, #0
  00044	eb000000	 bl          OALBLMenuReadLine
  00048	e58d0024	 str         r0, [sp, #0x24]
  0004c	e59d3024	 ldr         r3, [sp, #0x24]
  00050	e3530000	 cmp         r3, #0
  00054	1a000000	 bne         |$LN1@SetDeviceI|

; 508  :         {
; 509  :         goto cleanUp;

  00058	ea000005	 b           |$cleanUp$47009|
  0005c		 |$LN1@SetDeviceI|

; 510  :         }
; 511  : 
; 512  :     // Get device ID
; 513  :     g_bootCfg.deviceID = OALStringToUINT32(szInputLine);

  0005c	e28d0000	 add         r0, sp, #0
  00060	eb000000	 bl          OALStringToUINT32
  00064	e58d0028	 str         r0, [sp, #0x28]
  00068	e59d2028	 ldr         r2, [sp, #0x28]
  0006c	e59f3014	 ldr         r3, [pc, #0x14]
  00070	e5832044	 str         r2, [r3, #0x44]
  00074		 |$cleanUp$47009|

; 497  : {

  00074	e59d0020	 ldr         r0, [sp, #0x20]
  00078	eb000000	 bl          __security_check_cookie

; 514  : 
; 515  : cleanUp:
; 516  :     return;
; 517  : }

  0007c	e28dd02c	 add         sp, sp, #0x2C
  00080	e89d6000	 ldmia       sp, {sp, lr}
  00084	e12fff1e	 bx          lr
  00088		 |$LN7@SetDeviceI|
  00088		 |$LN8@SetDeviceI|
  00088	00000000	 DCD         |g_bootCfg|
  0008c		 |$LN9@SetDeviceI|
  0008c	00000000	 DCD         |??_C@_1CG@DEECOADH@?$AA?$AN?$AA?6?$AA?5?$AAN?$AAe?$AAw?$AA?5?$AAD?$AAe?$AAv?$AAi?$AAc?$AAe?$AA?5?$AAI?$AAD?$AA?3?$AA?5?$AA?$AA@|
  00090		 |$LN10@SetDeviceI|
  00090	00000000	 DCD         |??_C@_1DE@MLCCPHNO@?$AA?5?$AAC?$AAu?$AAr?$AAr?$AAe?$AAn?$AAt?$AA?5?$AAD?$AAe?$AAv?$AAi?$AAc?$AAe?$AA?5?$AAI?$AAD?$AA?3?$AA?5?$AA?5?$AA?$CF?$AAd?$AA?$AN?$AA?6?$AA?$AA@|
  00094		 |$LN11@SetDeviceI|
  00094	00000000	 DCD         |__security_cookie|
  00098		 |$M47382|

			 ENDP  ; |SetDeviceID|

	EXPORT	|??_C@_1DO@IPDMADGH@?$AA?5?$AAO?$AAA?$AAL?$AA?5?$AAR?$AAe?$AAt?$AAa?$AAi?$AAl?$AA?5?$AAM?$AAe?$AAs?$AAs?$AAa?$AAg?$AAe?$AAs?$AA?5?$AAe?$AAn?$AAa?$AAb?$AAl?$AAe?$AAd?$AA?$AN?$AA?6?$AA?$AA@| [ DATA ] ; `string'
	EXPORT	|??_C@_1EA@EDIKANLP@?$AA?5?$AAO?$AAA?$AAL?$AA?5?$AAR?$AAe?$AAt?$AAa?$AAi?$AAl?$AA?5?$AAM?$AAe?$AAs?$AAs?$AAa?$AAg?$AAe?$AAs?$AA?5?$AAd?$AAi?$AAs?$AAa?$AAb?$AAl?$AAe?$AAd?$AA?$AN?$AA?6?$AA?$AA@| [ DATA ] ; `string'
	EXPORT	|??_C@_1EI@IEOEJKJK@?$AA?5?$AAE?$AAn?$AAa?$AAb?$AAl?$AAe?$AA?5?$AAO?$AAA?$AAL?$AA?5?$AAR?$AAe?$AAt?$AAa?$AAi?$AAl?$AA?5?$AAM?$AAe?$AAs?$AAs?$AAa?$AAg?$AAe?$AAs?$AA?5?$AA?$FL?$AAy?$AA?1?$AA?9@| [ DATA ] ; `string'
	EXPORT	|??_C@_1EK@NMKAIECH@?$AA?5?$AAD?$AAi?$AAs?$AAa?$AAb?$AAl?$AAe?$AA?5?$AAO?$AAA?$AAL?$AA?5?$AAR?$AAe?$AAt?$AAa?$AAi?$AAl?$AA?5?$AAM?$AAe?$AAs?$AAs?$AAa?$AAg?$AAe?$AAs?$AA?5?$AA?$FL?$AAy?$AA?1@| [ DATA ] ; `string'

  00000			 AREA	 |.pdata|, PDATA
|$T47397| DCD	|$LN11@SetRetailM|
	DCD	0x40003a04

  00000			 AREA	 |.rdata|, DATA, READONLY
|??_C@_1DO@IPDMADGH@?$AA?5?$AAO?$AAA?$AAL?$AA?5?$AAR?$AAe?$AAt?$AAa?$AAi?$AAl?$AA?5?$AAM?$AAe?$AAs?$AAs?$AAa?$AAg?$AAe?$AAs?$AA?5?$AAe?$AAn?$AAa?$AAb?$AAl?$AAe?$AAd?$AA?$AN?$AA?6?$AA?$AA@| DCB " "
	DCB	0x0, "O", 0x0, "A", 0x0, "L", 0x0, " ", 0x0, "R", 0x0, "e"
	DCB	0x0, "t", 0x0, "a", 0x0, "i", 0x0, "l", 0x0, " ", 0x0, "M"
	DCB	0x0, "e", 0x0, "s", 0x0, "s", 0x0, "a", 0x0, "g", 0x0, "e"
	DCB	0x0, "s", 0x0, " ", 0x0, "e", 0x0, "n", 0x0, "a", 0x0, "b"
	DCB	0x0, "l", 0x0, "e", 0x0, "d", 0x0, 0xd, 0x0, 0xa, 0x0, 0x0
	DCB	0x0					; `string'

  00000			 AREA	 |.rdata|, DATA, READONLY
|??_C@_1EA@EDIKANLP@?$AA?5?$AAO?$AAA?$AAL?$AA?5?$AAR?$AAe?$AAt?$AAa?$AAi?$AAl?$AA?5?$AAM?$AAe?$AAs?$AAs?$AAa?$AAg?$AAe?$AAs?$AA?5?$AAd?$AAi?$AAs?$AAa?$AAb?$AAl?$AAe?$AAd?$AA?$AN?$AA?6?$AA?$AA@| DCB " "
	DCB	0x0, "O", 0x0, "A", 0x0, "L", 0x0, " ", 0x0, "R", 0x0, "e"
	DCB	0x0, "t", 0x0, "a", 0x0, "i", 0x0, "l", 0x0, " ", 0x0, "M"
	DCB	0x0, "e", 0x0, "s", 0x0, "s", 0x0, "a", 0x0, "g", 0x0, "e"
	DCB	0x0, "s", 0x0, " ", 0x0, "d", 0x0, "i", 0x0, "s", 0x0, "a"
	DCB	0x0, "b", 0x0, "l", 0x0, "e", 0x0, "d", 0x0, 0xd, 0x0, 0xa
	DCB	0x0, 0x0, 0x0				; `string'

  00000			 AREA	 |.rdata|, DATA, READONLY
|??_C@_1EI@IEOEJKJK@?$AA?5?$AAE?$AAn?$AAa?$AAb?$AAl?$AAe?$AA?5?$AAO?$AAA?$AAL?$AA?5?$AAR?$AAe?$AAt?$AAa?$AAi?$AAl?$AA?5?$AAM?$AAe?$AAs?$AAs?$AAa?$AAg?$AAe?$AAs?$AA?5?$AA?$FL?$AAy?$AA?1?$AA?9@| DCB " "
	DCB	0x0, "E", 0x0, "n", 0x0, "a", 0x0, "b", 0x0, "l", 0x0, "e"
	DCB	0x0, " ", 0x0, "O", 0x0, "A", 0x0, "L", 0x0, " ", 0x0, "R"
	DCB	0x0, "e", 0x0, "t", 0x0, "a", 0x0, "i", 0x0, "l", 0x0, " "
	DCB	0x0, "M", 0x0, "e", 0x0, "s", 0x0, "s", 0x0, "a", 0x0, "g"
	DCB	0x0, "e", 0x0, "s", 0x0, " ", 0x0, "[", 0x0, "y", 0x0, "/"
	DCB	0x0, "-", 0x0, "]", 0x0, ":", 0x0, " ", 0x0, 0x0, 0x0 ; `string'

  00000			 AREA	 |.rdata|, DATA, READONLY
|??_C@_1EK@NMKAIECH@?$AA?5?$AAD?$AAi?$AAs?$AAa?$AAb?$AAl?$AAe?$AA?5?$AAO?$AAA?$AAL?$AA?5?$AAR?$AAe?$AAt?$AAa?$AAi?$AAl?$AA?5?$AAM?$AAe?$AAs?$AAs?$AAa?$AAg?$AAe?$AAs?$AA?5?$AA?$FL?$AAy?$AA?1@| DCB " "
	DCB	0x0, "D", 0x0, "i", 0x0, "s", 0x0, "a", 0x0, "b", 0x0, "l"
	DCB	0x0, "e", 0x0, " ", 0x0, "O", 0x0, "A", 0x0, "L", 0x0, " "
	DCB	0x0, "R", 0x0, "e", 0x0, "t", 0x0, "a", 0x0, "i", 0x0, "l"
	DCB	0x0, " ", 0x0, "M", 0x0, "e", 0x0, "s", 0x0, "s", 0x0, "a"
	DCB	0x0, "g", 0x0, "e", 0x0, "s", 0x0, " ", 0x0, "[", 0x0, "y"
	DCB	0x0, "/", 0x0, "-", 0x0, "]", 0x0, ":", 0x0, " ", 0x0, 0x0
	DCB	0x0					; `string'
; Function compile flags: /Odtp

  00000			 AREA	 |.text|, CODE, ARM

  00000		 |SetRetailMsgMode| PROC

; 522  : {

  00000		 |$LN11@SetRetailM|
  00000	e1a0c00d	 mov         r12, sp
  00004	e92d0001	 stmdb       sp!, {r0}
  00008	e92d5000	 stmdb       sp!, {r12, lr}
  0000c	e24dd004	 sub         sp, sp, #4
  00010		 |$M47394|

; 523  :     WCHAR key;
; 524  : 
; 525  :     UNREFERENCED_PARAMETER(pMenu);
; 526  : 
; 527  :     if (g_bootCfg.oalFlags & BOOT_CFG_OAL_FLAGS_RETAILMSG_ENABLE) {

  00010	e59f30bc	 ldr         r3, [pc, #0xBC]
  00014	e5933034	 ldr         r3, [r3, #0x34]
  00018	e3130001	 tst         r3, #1
  0001c	0a000002	 beq         |$LN6@SetRetailM|

; 528  :         OALLog(L" Disable OAL Retail Messages [y/-]: ");

  00020	e59f00bc	 ldr         r0, [pc, #0xBC]
  00024	eb000000	 bl          NKDbgPrintfW

; 529  :     } else {

  00028	ea000001	 b           |$LN5@SetRetailM|
  0002c		 |$LN6@SetRetailM|

; 530  :         OALLog(L" Enable OAL Retail Messages [y/-]: ");

  0002c	e59f00ac	 ldr         r0, [pc, #0xAC]
  00030	eb000000	 bl          NKDbgPrintfW
  00034		 |$LN5@SetRetailM|

; 531  :     }    
; 532  : 
; 533  :     // Get key
; 534  :     key = OALBLMenuReadKey(TRUE);

  00034	e3a00001	 mov         r0, #1
  00038	eb000000	 bl          OALBLMenuReadKey
  0003c	e1a03800	 mov         r3, r0, lsl #16
  00040	e1a03823	 mov         r3, r3, lsr #16
  00044	e1cd30b2	 strh        r3, [sp, #2]
  00048	e1dd30b2	 ldrh        r3, [sp, #2]
  0004c	e1cd30b0	 strh        r3, [sp]

; 535  :     OALLog(L"%c\r\n", key);

  00050	e1dd10b0	 ldrh        r1, [sp]
  00054	e59f0080	 ldr         r0, [pc, #0x80]
  00058	eb000000	 bl          NKDbgPrintfW

; 536  : 
; 537  :     if (key == L'y' || key == L'Y') {

  0005c	e1dd30b0	 ldrh        r3, [sp]
  00060	e3530079	 cmp         r3, #0x79
  00064	0a000002	 beq         |$LN3@SetRetailM|
  00068	e1dd30b0	 ldrh        r3, [sp]
  0006c	e3530059	 cmp         r3, #0x59
  00070	1a000013	 bne         |$LN4@SetRetailM|
  00074		 |$LN3@SetRetailM|

; 538  :         if (g_bootCfg.oalFlags & BOOT_CFG_OAL_FLAGS_RETAILMSG_ENABLE) 

  00074	e59f3058	 ldr         r3, [pc, #0x58]
  00078	e5933034	 ldr         r3, [r3, #0x34]
  0007c	e3130001	 tst         r3, #1
  00080	0a000008	 beq         |$LN2@SetRetailM|

; 539  : 		{
; 540  :             g_bootCfg.oalFlags &= ~BOOT_CFG_OAL_FLAGS_RETAILMSG_ENABLE;

  00084	e59f3048	 ldr         r3, [pc, #0x48]
  00088	e5932034	 ldr         r2, [r3, #0x34]
  0008c	e3e03001	 mvn         r3, #1
  00090	e0022003	 and         r2, r2, r3
  00094	e59f3038	 ldr         r3, [pc, #0x38]
  00098	e5832034	 str         r2, [r3, #0x34]

; 541  :             OALLog(L" OAL Retail Messages disabled\r\n");

  0009c	e59f0034	 ldr         r0, [pc, #0x34]
  000a0	eb000000	 bl          NKDbgPrintfW

; 542  :         }
; 543  : 		else 

  000a4	ea000006	 b           |$LN1@SetRetailM|
  000a8		 |$LN2@SetRetailM|

; 544  : 		{
; 545  :             g_bootCfg.oalFlags |= BOOT_CFG_OAL_FLAGS_RETAILMSG_ENABLE;

  000a8	e59f3024	 ldr         r3, [pc, #0x24]
  000ac	e5933034	 ldr         r3, [r3, #0x34]
  000b0	e3832001	 orr         r2, r3, #1
  000b4	e59f3018	 ldr         r3, [pc, #0x18]
  000b8	e5832034	 str         r2, [r3, #0x34]

; 546  :             OALLog(L" OAL Retail Messages enabled\r\n");

  000bc	e59f000c	 ldr         r0, [pc, #0xC]
  000c0	eb000000	 bl          NKDbgPrintfW
  000c4		 |$LN1@SetRetailM|
  000c4		 |$LN4@SetRetailM|

; 547  :         }    
; 548  :     }
; 549  : }

  000c4	e28dd004	 add         sp, sp, #4
  000c8	e89d6000	 ldmia       sp, {sp, lr}
  000cc	e12fff1e	 bx          lr
  000d0		 |$LN12@SetRetailM|
  000d0		 |$LN13@SetRetailM|
  000d0	00000000	 DCD         |??_C@_1DO@IPDMADGH@?$AA?5?$AAO?$AAA?$AAL?$AA?5?$AAR?$AAe?$AAt?$AAa?$AAi?$AAl?$AA?5?$AAM?$AAe?$AAs?$AAs?$AAa?$AAg?$AAe?$AAs?$AA?5?$AAe?$AAn?$AAa?$AAb?$AAl?$AAe?$AAd?$AA?$AN?$AA?6?$AA?$AA@|
  000d4		 |$LN14@SetRetailM|
  000d4	00000000	 DCD         |g_bootCfg|
  000d8		 |$LN15@SetRetailM|
  000d8	00000000	 DCD         |??_C@_1EA@EDIKANLP@?$AA?5?$AAO?$AAA?$AAL?$AA?5?$AAR?$AAe?$AAt?$AAa?$AAi?$AAl?$AA?5?$AAM?$AAe?$AAs?$AAs?$AAa?$AAg?$AAe?$AAs?$AA?5?$AAd?$AAi?$AAs?$AAa?$AAb?$AAl?$AAe?$AAd?$AA?$AN?$AA?6?$AA?$AA@|
  000dc		 |$LN16@SetRetailM|
  000dc	00000000	 DCD         |??_C@_19DIEGALPP@?$AA?$CF?$AAc?$AA?$AN?$AA?6?$AA?$AA@|
  000e0		 |$LN17@SetRetailM|
  000e0	00000000	 DCD         |??_C@_1EI@IEOEJKJK@?$AA?5?$AAE?$AAn?$AAa?$AAb?$AAl?$AAe?$AA?5?$AAO?$AAA?$AAL?$AA?5?$AAR?$AAe?$AAt?$AAa?$AAi?$AAl?$AA?5?$AAM?$AAe?$AAs?$AAs?$AAa?$AAg?$AAe?$AAs?$AA?5?$AA?$FL?$AAy?$AA?1?$AA?9@|
  000e4		 |$LN18@SetRetailM|
  000e4	00000000	 DCD         |??_C@_1EK@NMKAIECH@?$AA?5?$AAD?$AAi?$AAs?$AAa?$AAb?$AAl?$AAe?$AA?5?$AAO?$AAA?$AAL?$AA?5?$AAR?$AAe?$AAt?$AAa?$AAi?$AAl?$AA?5?$AAM?$AAe?$AAs?$AAs?$AAa?$AAg?$AAe?$AAs?$AA?5?$AA?$FL?$AAy?$AA?1@|
  000e8		 |$M47395|

			 ENDP  ; |SetRetailMsgMode|

	EXPORT	|??_C@_1DG@FKDJCDHM@?$AA?$AN?$AA?6?$AA?5?$AAS?$AAe?$AAl?$AAe?$AAc?$AAt?$AAi?$AAo?$AAn?$AA?5?$AA?$CI?$AAa?$AAc?$AAt?$AAu?$AAa?$AAl?$AA?5?$AA?$CF?$AAs?$AA?$CJ?$AA?3?$AA?5?$AA?$AA@| [ DATA ] ; `string'
	EXPORT	|??_C@_1DC@KGICMHCL@?$AA?5?$AA?$FL?$AA0?$AA?$FN?$AA?5?$AAE?$AAx?$AAi?$AAt?$AA?5?$AAa?$AAn?$AAd?$AA?5?$AAC?$AAo?$AAn?$AAt?$AAi?$AAn?$AAu?$AAe?$AA?$AN?$AA?6?$AA?$AA@| [ DATA ] ; `string'
	EXPORT	|??_C@_1BG@LMIBJJCD@?$AA?5?$AA?$FL?$AA?$CF?$AAd?$AA?$FN?$AA?5?$AA?$CF?$AAs?$AA?$AN?$AA?6?$AA?$AA@| [ DATA ] ; `string'
	IMPORT	|OALBLMenuHeader|

  00000			 AREA	 |.pdata|, PDATA
|$T47412| DCD	|$LN13@SetDisplay|
	DCD	0x40004c04

  00000			 AREA	 |.rdata|, DATA, READONLY
|??_C@_1DG@FKDJCDHM@?$AA?$AN?$AA?6?$AA?5?$AAS?$AAe?$AAl?$AAe?$AAc?$AAt?$AAi?$AAo?$AAn?$AA?5?$AA?$CI?$AAa?$AAc?$AAt?$AAu?$AAa?$AAl?$AA?5?$AA?$CF?$AAs?$AA?$CJ?$AA?3?$AA?5?$AA?$AA@| DCB 0xd
	DCB	0x0, 0xa, 0x0, " ", 0x0, "S", 0x0, "e", 0x0, "l", 0x0, "e"
	DCB	0x0, "c", 0x0, "t", 0x0, "i", 0x0, "o", 0x0, "n", 0x0, " "
	DCB	0x0, "(", 0x0, "a", 0x0, "c", 0x0, "t", 0x0, "u", 0x0, "a"
	DCB	0x0, "l", 0x0, " ", 0x0, "%", 0x0, "s", 0x0, ")", 0x0, ":"
	DCB	0x0, " ", 0x0, 0x0, 0x0			; `string'

  00000			 AREA	 |.rdata|, DATA, READONLY
|??_C@_1DC@KGICMHCL@?$AA?5?$AA?$FL?$AA0?$AA?$FN?$AA?5?$AAE?$AAx?$AAi?$AAt?$AA?5?$AAa?$AAn?$AAd?$AA?5?$AAC?$AAo?$AAn?$AAt?$AAi?$AAn?$AAu?$AAe?$AA?$AN?$AA?6?$AA?$AA@| DCB " "
	DCB	0x0, "[", 0x0, "0", 0x0, "]", 0x0, " ", 0x0, "E", 0x0, "x"
	DCB	0x0, "i", 0x0, "t", 0x0, " ", 0x0, "a", 0x0, "n", 0x0, "d"
	DCB	0x0, " ", 0x0, "C", 0x0, "o", 0x0, "n", 0x0, "t", 0x0, "i"
	DCB	0x0, "n", 0x0, "u", 0x0, "e", 0x0, 0xd, 0x0, 0xa, 0x0, 0x0
	DCB	0x0					; `string'

  00000			 AREA	 |.rdata|, DATA, READONLY
|??_C@_1BG@LMIBJJCD@?$AA?5?$AA?$FL?$AA?$CF?$AAd?$AA?$FN?$AA?5?$AA?$CF?$AAs?$AA?$AN?$AA?6?$AA?$AA@| DCB " "
	DCB	0x0, "[", 0x0, "%", 0x0, "d", 0x0, "]", 0x0, " ", 0x0, "%"
	DCB	0x0, "s", 0x0, 0xd, 0x0, 0xa, 0x0, 0x0, 0x0 ; `string'
; Function compile flags: /Odtp

  00000			 AREA	 |.text|, CODE, ARM

  00000		 |SetDisplayResolution| PROC

; 554  : {

  00000		 |$LN13@SetDisplay|
  00000	e1a0c00d	 mov         r12, sp
  00004	e92d0001	 stmdb       sp!, {r0}
  00008	e92d5000	 stmdb       sp!, {r12, lr}
  0000c	e24dd008	 sub         sp, sp, #8
  00010		 |$M47409|

; 555  :     WCHAR key;
; 556  :     UINT32 i;
; 557  : 
; 558  :     UNREFERENCED_PARAMETER(pMenu);
; 559  :     
; 560  :     OALBLMenuHeader(L"Select Display Resolution");

  00010	e59f0114	 ldr         r0, [pc, #0x114]
  00014	eb000000	 bl          OALBLMenuHeader

; 561  : 
; 562  :     for (i=0; i<OMAP_RES_INVALID; i++)

  00018	e3a03000	 mov         r3, #0
  0001c	e58d3000	 str         r3, [sp]
  00020	ea000002	 b           |$LN7@SetDisplay|
  00024		 |$LN6@SetDisplay|
  00024	e59d3000	 ldr         r3, [sp]
  00028	e2833001	 add         r3, r3, #1
  0002c	e58d3000	 str         r3, [sp]
  00030		 |$LN7@SetDisplay|
  00030	e59d3000	 ldr         r3, [sp]
  00034	e3530008	 cmp         r3, #8
  00038	2a00000b	 bcs         |$LN5@SetDisplay|

; 563  :     {
; 564  :         OALLog(L" [%d] %s\r\n", i+1 , dispResMenu[i].resName);

  0003c	e59d1000	 ldr         r1, [sp]
  00040	e3a03008	 mov         r3, #8
  00044	e0020391	 mul         r2, r1, r3
  00048	e59f30d0	 ldr         r3, [pc, #0xD0]
  0004c	e0833002	 add         r3, r3, r2
  00050	e2833004	 add         r3, r3, #4
  00054	e5932000	 ldr         r2, [r3]
  00058	e59d3000	 ldr         r3, [sp]
  0005c	e2831001	 add         r1, r3, #1
  00060	e59f00c0	 ldr         r0, [pc, #0xC0]
  00064	eb000000	 bl          NKDbgPrintfW

; 565  :     }

  00068	eaffffed	 b           |$LN6@SetDisplay|
  0006c		 |$LN5@SetDisplay|

; 566  :     OALLog(L" [0] Exit and Continue\r\n");

  0006c	e59f00b0	 ldr         r0, [pc, #0xB0]
  00070	eb000000	 bl          NKDbgPrintfW

; 567  : 
; 568  :     OALLog(L"\r\n Selection (actual %s): ", dispResMenu[g_bootCfg.displayRes].resName);

  00074	e59f3098	 ldr         r3, [pc, #0x98]
  00078	e593106c	 ldr         r1, [r3, #0x6C]
  0007c	e3a03008	 mov         r3, #8
  00080	e0020391	 mul         r2, r1, r3
  00084	e59f3094	 ldr         r3, [pc, #0x94]
  00088	e0833002	 add         r3, r3, r2
  0008c	e2833004	 add         r3, r3, #4
  00090	e5931000	 ldr         r1, [r3]
  00094	e59f0080	 ldr         r0, [pc, #0x80]
  00098	eb000000	 bl          NKDbgPrintfW
  0009c		 |$LN10@SetDisplay|
  0009c		 |$LN4@SetDisplay|

; 569  :     // Get key
; 570  :     do {
; 571  :         key = OALBLMenuReadKey(TRUE);

  0009c	e3a00001	 mov         r0, #1
  000a0	eb000000	 bl          OALBLMenuReadKey
  000a4	e1a03800	 mov         r3, r0, lsl #16
  000a8	e1a03823	 mov         r3, r3, lsr #16
  000ac	e1cd30b6	 strh        r3, [sp, #6]
  000b0	e1dd30b6	 ldrh        r3, [sp, #6]
  000b4	e1cd30b4	 strh        r3, [sp, #4]

; 572  :     } while (key < L'0' || key > L'0' + i);    

  000b8	e1dd30b4	 ldrh        r3, [sp, #4]
  000bc	e3530030	 cmp         r3, #0x30
  000c0	bafffff5	 blt         |$LN4@SetDisplay|
  000c4	e1dd20b4	 ldrh        r2, [sp, #4]
  000c8	e59d3000	 ldr         r3, [sp]
  000cc	e2833030	 add         r3, r3, #0x30
  000d0	e1520003	 cmp         r2, r3
  000d4	8afffff0	 bhi         |$LN10@SetDisplay|

; 573  :     OALLog(L"%c\r\n", key);

  000d8	e1dd10b4	 ldrh        r1, [sp, #4]
  000dc	e59f0034	 ldr         r0, [pc, #0x34]
  000e0	eb000000	 bl          NKDbgPrintfW

; 574  :     
; 575  :     // If user select exit don't change device
; 576  :     if (key == L'0') return;

  000e4	e1dd30b4	 ldrh        r3, [sp, #4]
  000e8	e3530030	 cmp         r3, #0x30
  000ec	1a000000	 bne         |$LN1@SetDisplay|
  000f0	ea000004	 b           |$LN8@SetDisplay|
  000f4		 |$LN1@SetDisplay|

; 577  : 
; 578  :     g_bootCfg.displayRes = (key - L'0' - 1);

  000f4	e1dd30b4	 ldrh        r3, [sp, #4]
  000f8	e2433030	 sub         r3, r3, #0x30
  000fc	e2432001	 sub         r2, r3, #1
  00100	e59f300c	 ldr         r3, [pc, #0xC]
  00104	e583206c	 str         r2, [r3, #0x6C]
  00108		 |$LN8@SetDisplay|

; 579  : 
; 580  : }

  00108	e28dd008	 add         sp, sp, #8
  0010c	e89d6000	 ldmia       sp, {sp, lr}
  00110	e12fff1e	 bx          lr
  00114		 |$LN14@SetDisplay|
  00114		 |$LN15@SetDisplay|
  00114	00000000	 DCD         |g_bootCfg|
  00118		 |$LN16@SetDisplay|
  00118	00000000	 DCD         |??_C@_19DIEGALPP@?$AA?$CF?$AAc?$AA?$AN?$AA?6?$AA?$AA@|
  0011c		 |$LN17@SetDisplay|
  0011c	00000000	 DCD         |??_C@_1DG@FKDJCDHM@?$AA?$AN?$AA?6?$AA?5?$AAS?$AAe?$AAl?$AAe?$AAc?$AAt?$AAi?$AAo?$AAn?$AA?5?$AA?$CI?$AAa?$AAc?$AAt?$AAu?$AAa?$AAl?$AA?5?$AA?$CF?$AAs?$AA?$CJ?$AA?3?$AA?5?$AA?$AA@|
  00120		 |$LN18@SetDisplay|
  00120	00000000	 DCD         |dispResMenu|
  00124		 |$LN19@SetDisplay|
  00124	00000000	 DCD         |??_C@_1DC@KGICMHCL@?$AA?5?$AA?$FL?$AA0?$AA?$FN?$AA?5?$AAE?$AAx?$AAi?$AAt?$AA?5?$AAa?$AAn?$AAd?$AA?5?$AAC?$AAo?$AAn?$AAt?$AAi?$AAn?$AAu?$AAe?$AA?$AN?$AA?6?$AA?$AA@|
  00128		 |$LN20@SetDisplay|
  00128	00000000	 DCD         |??_C@_1BG@LMIBJJCD@?$AA?5?$AA?$FL?$AA?$CF?$AAd?$AA?$FN?$AA?5?$AA?$CF?$AAs?$AA?$AN?$AA?6?$AA?$AA@|
  0012c		 |$LN21@SetDisplay|
  0012c	00000000	 DCD         |??_C@_1DE@DBBLEEO@?$AAS?$AAe?$AAl?$AAe?$AAc?$AAt?$AA?5?$AAD?$AAi?$AAs?$AAp?$AAl?$AAa?$AAy?$AA?5?$AAR?$AAe?$AAs?$AAo?$AAl?$AAu?$AAt?$AAi?$AAo?$AAn?$AA?$AA@|
  00130		 |$M47410|

			 ENDP  ; |SetDisplayResolution|

	EXPORT	|??_C@_1DK@EBBOCKOO@?$AA?$AN?$AA?6?$AA?5?$AAS?$AAe?$AAl?$AAe?$AAc?$AAt?$AAi?$AAo?$AAn?$AA?5?$AA?$CI?$AAa?$AAc?$AAt?$AAu?$AAa?$AAl?$AA?5?$AA?$FL?$AA?$CF?$AAs?$AA?$FN?$AA?$CJ?$AA?3?$AA?5?$AA?$AA@| [ DATA ] ; `string'

  00000			 AREA	 |.pdata|, PDATA
|$T47428| DCD	|$LN14@SetOPPmode|
	DCD	0x40005904

  00000			 AREA	 |.rdata|, DATA, READONLY
|??_C@_1DK@EBBOCKOO@?$AA?$AN?$AA?6?$AA?5?$AAS?$AAe?$AAl?$AAe?$AAc?$AAt?$AAi?$AAo?$AAn?$AA?5?$AA?$CI?$AAa?$AAc?$AAt?$AAu?$AAa?$AAl?$AA?5?$AA?$FL?$AA?$CF?$AAs?$AA?$FN?$AA?$CJ?$AA?3?$AA?5?$AA?$AA@| DCB 0xd
	DCB	0x0, 0xa, 0x0, " ", 0x0, "S", 0x0, "e", 0x0, "l", 0x0, "e"
	DCB	0x0, "c", 0x0, "t", 0x0, "i", 0x0, "o", 0x0, "n", 0x0, " "
	DCB	0x0, "(", 0x0, "a", 0x0, "c", 0x0, "t", 0x0, "u", 0x0, "a"
	DCB	0x0, "l", 0x0, " ", 0x0, "[", 0x0, "%", 0x0, "s", 0x0, "]"
	DCB	0x0, ")", 0x0, ":", 0x0, " ", 0x0, 0x0, 0x0 ; `string'
; Function compile flags: /Odtp

  00000			 AREA	 |.text|, CODE, ARM

  00000		 |SetOPPmode| PROC

; 586  : {

  00000		 |$LN14@SetOPPmode|
  00000	e1a0c00d	 mov         r12, sp
  00004	e92d0001	 stmdb       sp!, {r0}
  00008	e92d5000	 stmdb       sp!, {r12, lr}
  0000c	e24dd014	 sub         sp, sp, #0x14
  00010		 |$M47425|

; 587  :     WCHAR key;
; 588  :     UINT32 i;
; 589  :     UINT32 len = OMAP35x_OPP_NUM;

  00010	e3a03006	 mov         r3, #6
  00014	e58d300c	 str         r3, [sp, #0xC]

; 590  :     OPP_MODE_MENU * pOppMenu = oppModeMenu35x;

  00018	e59f3140	 ldr         r3, [pc, #0x140]
  0001c	e58d3000	 str         r3, [sp]

; 591  : 
; 592  :     UNREFERENCED_PARAMETER(pMenu);
; 593  :     
; 594  :     OALBLMenuHeader(L"Select OPP Mode");

  00020	e59f0134	 ldr         r0, [pc, #0x134]
  00024	eb000000	 bl          OALBLMenuHeader

; 595  : 
; 596  :     
; 597  :     if(g_CPUFamily == CPU_FAMILY_DM37XX)

  00028	e59f3128	 ldr         r3, [pc, #0x128]
  0002c	e5933000	 ldr         r3, [r3]
  00030	e3530001	 cmp         r3, #1
  00034	1a000003	 bne         |$LN8@SetOPPmode|

; 598  :     {
; 599  :         len = OMAP37x_OPP_NUM;

  00038	e3a03004	 mov         r3, #4
  0003c	e58d300c	 str         r3, [sp, #0xC]

; 600  :         pOppMenu = oppModeMenu37x;

  00040	e59f310c	 ldr         r3, [pc, #0x10C]
  00044	e58d3000	 str         r3, [sp]
  00048		 |$LN8@SetOPPmode|

; 601  :     }
; 602  :     
; 603  :     for (i=0; i<len; i++)

  00048	e3a03000	 mov         r3, #0
  0004c	e58d3004	 str         r3, [sp, #4]
  00050	ea000002	 b           |$LN7@SetOPPmode|
  00054		 |$LN6@SetOPPmode|
  00054	e59d3004	 ldr         r3, [sp, #4]
  00058	e2833001	 add         r3, r3, #1
  0005c	e58d3004	 str         r3, [sp, #4]
  00060		 |$LN7@SetOPPmode|
  00060	e59d2004	 ldr         r2, [sp, #4]
  00064	e59d300c	 ldr         r3, [sp, #0xC]
  00068	e1520003	 cmp         r2, r3
  0006c	2a00000a	 bcs         |$LN5@SetOPPmode|

; 604  :     {
; 605  :         OALLog(L" [%d] %s\r\n", i+1 , pOppMenu[i].oppModeName);

  00070	e59d1004	 ldr         r1, [sp, #4]
  00074	e3a03004	 mov         r3, #4
  00078	e0020391	 mul         r2, r1, r3
  0007c	e59d3000	 ldr         r3, [sp]
  00080	e0833002	 add         r3, r3, r2
  00084	e5932000	 ldr         r2, [r3]
  00088	e59d3004	 ldr         r3, [sp, #4]
  0008c	e2831001	 add         r1, r3, #1
  00090	e59f00b8	 ldr         r0, [pc, #0xB8]
  00094	eb000000	 bl          NKDbgPrintfW

; 606  :     }

  00098	eaffffed	 b           |$LN6@SetOPPmode|
  0009c		 |$LN5@SetOPPmode|

; 607  :     OALLog(L" [0] Exit and Continue\r\n");

  0009c	e59f00a8	 ldr         r0, [pc, #0xA8]
  000a0	eb000000	 bl          NKDbgPrintfW

; 608  : 
; 609  :     OALLog(L"\r\n Selection (actual [%s]): ", pOppMenu[g_bootCfg.opp_mode].oppModeName);

  000a4	e59f3094	 ldr         r3, [pc, #0x94]
  000a8	e5931078	 ldr         r1, [r3, #0x78]
  000ac	e3a03004	 mov         r3, #4
  000b0	e0020391	 mul         r2, r1, r3
  000b4	e59d3000	 ldr         r3, [sp]
  000b8	e0833002	 add         r3, r3, r2
  000bc	e5931000	 ldr         r1, [r3]
  000c0	e59f0080	 ldr         r0, [pc, #0x80]
  000c4	eb000000	 bl          NKDbgPrintfW
  000c8		 |$LN11@SetOPPmode|
  000c8		 |$LN4@SetOPPmode|

; 610  :     
; 611  :     // Get key
; 612  :     do {
; 613  :         key = OALBLMenuReadKey(TRUE);

  000c8	e3a00001	 mov         r0, #1
  000cc	eb000000	 bl          OALBLMenuReadKey
  000d0	e1a03800	 mov         r3, r0, lsl #16
  000d4	e1a03823	 mov         r3, r3, lsr #16
  000d8	e1cd31b0	 strh        r3, [sp, #0x10]
  000dc	e1dd31b0	 ldrh        r3, [sp, #0x10]
  000e0	e1cd30b8	 strh        r3, [sp, #8]

; 614  :     } while (key < L'0' || key > L'0' + i);    

  000e4	e1dd30b8	 ldrh        r3, [sp, #8]
  000e8	e3530030	 cmp         r3, #0x30
  000ec	bafffff5	 blt         |$LN4@SetOPPmode|
  000f0	e1dd20b8	 ldrh        r2, [sp, #8]
  000f4	e59d3004	 ldr         r3, [sp, #4]
  000f8	e2833030	 add         r3, r3, #0x30
  000fc	e1520003	 cmp         r2, r3
  00100	8afffff0	 bhi         |$LN11@SetOPPmode|

; 615  :     OALLog(L"%c\r\n", key);

  00104	e1dd10b8	 ldrh        r1, [sp, #8]
  00108	e59f0034	 ldr         r0, [pc, #0x34]
  0010c	eb000000	 bl          NKDbgPrintfW

; 616  :     
; 617  :     // If user select exit don't change device
; 618  :     if (key == L'0') return;

  00110	e1dd30b8	 ldrh        r3, [sp, #8]
  00114	e3530030	 cmp         r3, #0x30
  00118	1a000000	 bne         |$LN1@SetOPPmode|
  0011c	ea000004	 b           |$LN9@SetOPPmode|
  00120		 |$LN1@SetOPPmode|

; 619  : 
; 620  :     g_bootCfg.opp_mode = (key - L'0' -1);

  00120	e1dd30b8	 ldrh        r3, [sp, #8]
  00124	e2433030	 sub         r3, r3, #0x30
  00128	e2432001	 sub         r2, r3, #1
  0012c	e59f300c	 ldr         r3, [pc, #0xC]
  00130	e5832078	 str         r2, [r3, #0x78]
  00134		 |$LN9@SetOPPmode|

; 621  : 
; 622  : }

  00134	e28dd014	 add         sp, sp, #0x14
  00138	e89d6000	 ldmia       sp, {sp, lr}
  0013c	e12fff1e	 bx          lr
  00140		 |$LN15@SetOPPmode|
  00140		 |$LN16@SetOPPmode|
  00140	00000000	 DCD         |g_bootCfg|
  00144		 |$LN17@SetOPPmode|
  00144	00000000	 DCD         |??_C@_19DIEGALPP@?$AA?$CF?$AAc?$AA?$AN?$AA?6?$AA?$AA@|
  00148		 |$LN18@SetOPPmode|
  00148	00000000	 DCD         |??_C@_1DK@EBBOCKOO@?$AA?$AN?$AA?6?$AA?5?$AAS?$AAe?$AAl?$AAe?$AAc?$AAt?$AAi?$AAo?$AAn?$AA?5?$AA?$CI?$AAa?$AAc?$AAt?$AAu?$AAa?$AAl?$AA?5?$AA?$FL?$AA?$CF?$AAs?$AA?$FN?$AA?$CJ?$AA?3?$AA?5?$AA?$AA@|
  0014c		 |$LN19@SetOPPmode|
  0014c	00000000	 DCD         |??_C@_1DC@KGICMHCL@?$AA?5?$AA?$FL?$AA0?$AA?$FN?$AA?5?$AAE?$AAx?$AAi?$AAt?$AA?5?$AAa?$AAn?$AAd?$AA?5?$AAC?$AAo?$AAn?$AAt?$AAi?$AAn?$AAu?$AAe?$AA?$AN?$AA?6?$AA?$AA@|
  00150		 |$LN20@SetOPPmode|
  00150	00000000	 DCD         |??_C@_1BG@LMIBJJCD@?$AA?5?$AA?$FL?$AA?$CF?$AAd?$AA?$FN?$AA?5?$AA?$CF?$AAs?$AA?$AN?$AA?6?$AA?$AA@|
  00154		 |$LN21@SetOPPmode|
  00154	00000000	 DCD         |oppModeMenu37x|
  00158		 |$LN22@SetOPPmode|
  00158	00000000	 DCD         |g_CPUFamily|
  0015c		 |$LN23@SetOPPmode|
  0015c	00000000	 DCD         |??_C@_1CA@MOPOGELI@?$AAS?$AAe?$AAl?$AAe?$AAc?$AAt?$AA?5?$AAO?$AAP?$AAP?$AA?5?$AAM?$AAo?$AAd?$AAe?$AA?$AA@|
  00160		 |$LN24@SetOPPmode|
  00160	00000000	 DCD         |oppModeMenu35x|
  00164		 |$M47426|

			 ENDP  ; |SetOPPmode|

	EXPORT	|??_C@_1DO@GCBJIIGC@?$AAE?$AAR?$AAR?$AAO?$AAR?$AA?3?$AA?5?$AAS?$AAe?$AAt?$AAt?$AAi?$AAn?$AAg?$AAs?$AA?5?$AAs?$AAa?$AAv?$AAe?$AA?5?$AAf?$AAa?$AAi?$AAl?$AAe?$AAd?$AA?$CB?$AA?$AN?$AA?6?$AA?$AA@| [ DATA ] ; `string'
	EXPORT	|??_C@_1EG@EPHHPOIA@?$AA?5?$AAC?$AAu?$AAr?$AAr?$AAe?$AAn?$AAt?$AA?5?$AAs?$AAe?$AAt?$AAt?$AAi?$AAn?$AAg?$AAs?$AA?5?$AAh?$AAa?$AAs?$AA?5?$AAb?$AAe?$AAe?$AAn?$AA?5?$AAs?$AAa?$AAv?$AAe?$AAd@| [ DATA ] ; `string'
	EXPORT	|??_C@_1FG@NGGODBPB@?$AA?5?$AAD?$AAo?$AA?5?$AAy?$AAo?$AAu?$AA?5?$AAw?$AAa?$AAn?$AAt?$AA?5?$AAs?$AAa?$AAv?$AAe?$AA?5?$AAc?$AAu?$AAr?$AAr?$AAe?$AAn?$AAt?$AA?5?$AAs?$AAe?$AAt?$AAt?$AAi?$AAn@| [ DATA ] ; `string'
	IMPORT	|BLWriteBootCfg|

  00000			 AREA	 |.pdata|, PDATA
|$T47445| DCD	|$LN8@SaveSettin|
	DCD	0x40002a04

  00000			 AREA	 |.rdata|, DATA, READONLY
|??_C@_1DO@GCBJIIGC@?$AAE?$AAR?$AAR?$AAO?$AAR?$AA?3?$AA?5?$AAS?$AAe?$AAt?$AAt?$AAi?$AAn?$AAg?$AAs?$AA?5?$AAs?$AAa?$AAv?$AAe?$AA?5?$AAf?$AAa?$AAi?$AAl?$AAe?$AAd?$AA?$CB?$AA?$AN?$AA?6?$AA?$AA@| DCB "E"
	DCB	0x0, "R", 0x0, "R", 0x0, "O", 0x0, "R", 0x0, ":", 0x0, " "
	DCB	0x0, "S", 0x0, "e", 0x0, "t", 0x0, "t", 0x0, "i", 0x0, "n"
	DCB	0x0, "g", 0x0, "s", 0x0, " ", 0x0, "s", 0x0, "a", 0x0, "v"
	DCB	0x0, "e", 0x0, " ", 0x0, "f", 0x0, "a", 0x0, "i", 0x0, "l"
	DCB	0x0, "e", 0x0, "d", 0x0, "!", 0x0, 0xd, 0x0, 0xa, 0x0, 0x0
	DCB	0x0					; `string'

  00000			 AREA	 |.rdata|, DATA, READONLY
|??_C@_1EG@EPHHPOIA@?$AA?5?$AAC?$AAu?$AAr?$AAr?$AAe?$AAn?$AAt?$AA?5?$AAs?$AAe?$AAt?$AAt?$AAi?$AAn?$AAg?$AAs?$AA?5?$AAh?$AAa?$AAs?$AA?5?$AAb?$AAe?$AAe?$AAn?$AA?5?$AAs?$AAa?$AAv?$AAe?$AAd@| DCB " "
	DCB	0x0, "C", 0x0, "u", 0x0, "r", 0x0, "r", 0x0, "e", 0x0, "n"
	DCB	0x0, "t", 0x0, " ", 0x0, "s", 0x0, "e", 0x0, "t", 0x0, "t"
	DCB	0x0, "i", 0x0, "n", 0x0, "g", 0x0, "s", 0x0, " ", 0x0, "h"
	DCB	0x0, "a", 0x0, "s", 0x0, " ", 0x0, "b", 0x0, "e", 0x0, "e"
	DCB	0x0, "n", 0x0, " ", 0x0, "s", 0x0, "a", 0x0, "v", 0x0, "e"
	DCB	0x0, "d", 0x0, 0xd, 0x0, 0xa, 0x0, 0x0, 0x0 ; `string'

  00000			 AREA	 |.rdata|, DATA, READONLY
|??_C@_1FG@NGGODBPB@?$AA?5?$AAD?$AAo?$AA?5?$AAy?$AAo?$AAu?$AA?5?$AAw?$AAa?$AAn?$AAt?$AA?5?$AAs?$AAa?$AAv?$AAe?$AA?5?$AAc?$AAu?$AAr?$AAr?$AAe?$AAn?$AAt?$AA?5?$AAs?$AAe?$AAt?$AAt?$AAi?$AAn@| DCB " "
	DCB	0x0, "D", 0x0, "o", 0x0, " ", 0x0, "y", 0x0, "o", 0x0, "u"
	DCB	0x0, " ", 0x0, "w", 0x0, "a", 0x0, "n", 0x0, "t", 0x0, " "
	DCB	0x0, "s", 0x0, "a", 0x0, "v", 0x0, "e", 0x0, " ", 0x0, "c"
	DCB	0x0, "u", 0x0, "r", 0x0, "r", 0x0, "e", 0x0, "n", 0x0, "t"
	DCB	0x0, " ", 0x0, "s", 0x0, "e", 0x0, "t", 0x0, "t", 0x0, "i"
	DCB	0x0, "n", 0x0, "g", 0x0, "s", 0x0, " ", 0x0, "[", 0x0, "-"
	DCB	0x0, "/", 0x0, "y", 0x0, "]", 0x0, "?", 0x0, " ", 0x0, 0x0
	DCB	0x0					; `string'
; Function compile flags: /Odtp

  00000			 AREA	 |.text|, CODE, ARM

  00000		 |SaveSettings| PROC

; 628  : {

  00000		 |$LN8@SaveSettin|
  00000	e1a0c00d	 mov         r12, sp
  00004	e92d0001	 stmdb       sp!, {r0}
  00008	e92d5000	 stmdb       sp!, {r12, lr}
  0000c	e24dd008	 sub         sp, sp, #8
  00010		 |$M47442|

; 629  :     WCHAR key;
; 630  :     UNREFERENCED_PARAMETER(pMenu);
; 631  : 
; 632  :     OALLog(L" Do you want save current settings [-/y]? ");

  00010	e59f008c	 ldr         r0, [pc, #0x8C]
  00014	eb000000	 bl          NKDbgPrintfW

; 633  : 
; 634  :     // Get key
; 635  :     key = OALBLMenuReadKey(TRUE);

  00018	e3a00001	 mov         r0, #1
  0001c	eb000000	 bl          OALBLMenuReadKey
  00020	e1a03800	 mov         r3, r0, lsl #16
  00024	e1a03823	 mov         r3, r3, lsr #16
  00028	e1cd30b2	 strh        r3, [sp, #2]
  0002c	e1dd30b2	 ldrh        r3, [sp, #2]
  00030	e1cd30b0	 strh        r3, [sp]

; 636  :     OALLog(L"%c\r\n", key);

  00034	e1dd10b0	 ldrh        r1, [sp]
  00038	e59f0060	 ldr         r0, [pc, #0x60]
  0003c	eb000000	 bl          NKDbgPrintfW

; 637  : 
; 638  :     // Depending on result
; 639  :     if (key != L'y' && key != L'Y') goto cleanUp;

  00040	e1dd30b0	 ldrh        r3, [sp]
  00044	e3530079	 cmp         r3, #0x79
  00048	0a000003	 beq         |$LN3@SaveSettin|
  0004c	e1dd30b0	 ldrh        r3, [sp]
  00050	e3530059	 cmp         r3, #0x59
  00054	0a000000	 beq         |$LN3@SaveSettin|
  00058	ea00000a	 b           |$cleanUp$47061|
  0005c		 |$LN3@SaveSettin|

; 640  : 
; 641  :     if (BLWriteBootCfg(&g_bootCfg)) {

  0005c	e59f0038	 ldr         r0, [pc, #0x38]
  00060	eb000000	 bl          BLWriteBootCfg
  00064	e58d0004	 str         r0, [sp, #4]
  00068	e59d3004	 ldr         r3, [sp, #4]
  0006c	e3530000	 cmp         r3, #0
  00070	0a000002	 beq         |$LN2@SaveSettin|

; 642  :         OALLog(L" Current settings has been saved\r\n");

  00074	e59f001c	 ldr         r0, [pc, #0x1C]
  00078	eb000000	 bl          NKDbgPrintfW

; 643  :     } else {        

  0007c	ea000001	 b           |$LN1@SaveSettin|
  00080		 |$LN2@SaveSettin|

; 644  :         OALLog(L"ERROR: Settings save failed!\r\n");

  00080	e59f000c	 ldr         r0, [pc, #0xC]
  00084	eb000000	 bl          NKDbgPrintfW
  00088		 |$LN1@SaveSettin|
  00088		 |$cleanUp$47061|

; 645  :     }
; 646  : 
; 647  : cleanUp:
; 648  :     return;
; 649  : }

  00088	e28dd008	 add         sp, sp, #8
  0008c	e89d6000	 ldmia       sp, {sp, lr}
  00090	e12fff1e	 bx          lr
  00094		 |$LN9@SaveSettin|
  00094		 |$LN10@SaveSettin|
  00094	00000000	 DCD         |??_C@_1DO@GCBJIIGC@?$AAE?$AAR?$AAR?$AAO?$AAR?$AA?3?$AA?5?$AAS?$AAe?$AAt?$AAt?$AAi?$AAn?$AAg?$AAs?$AA?5?$AAs?$AAa?$AAv?$AAe?$AA?5?$AAf?$AAa?$AAi?$AAl?$AAe?$AAd?$AA?$CB?$AA?$AN?$AA?6?$AA?$AA@|
  00098		 |$LN11@SaveSettin|
  00098	00000000	 DCD         |??_C@_1EG@EPHHPOIA@?$AA?5?$AAC?$AAu?$AAr?$AAr?$AAe?$AAn?$AAt?$AA?5?$AAs?$AAe?$AAt?$AAt?$AAi?$AAn?$AAg?$AAs?$AA?5?$AAh?$AAa?$AAs?$AA?5?$AAb?$AAe?$AAe?$AAn?$AA?5?$AAs?$AAa?$AAv?$AAe?$AAd@|
  0009c		 |$LN12@SaveSettin|
  0009c	00000000	 DCD         |g_bootCfg|
  000a0		 |$LN13@SaveSettin|
  000a0	00000000	 DCD         |??_C@_19DIEGALPP@?$AA?$CF?$AAc?$AA?$AN?$AA?6?$AA?$AA@|
  000a4		 |$LN14@SaveSettin|
  000a4	00000000	 DCD         |??_C@_1FG@NGGODBPB@?$AA?5?$AAD?$AAo?$AA?5?$AAy?$AAo?$AAu?$AA?5?$AAw?$AAa?$AAn?$AAt?$AA?5?$AAs?$AAa?$AAv?$AAe?$AA?5?$AAc?$AAu?$AAr?$AAr?$AAe?$AAn?$AAt?$AA?5?$AAs?$AAe?$AAt?$AAt?$AAi?$AAn@|
  000a8		 |$M47443|

			 ENDP  ; |SaveSettings|


  00000			 AREA	 |.pdata|, PDATA
|$T47459| DCD	|$LN9@OALStringT|
	DCD	0x40002804
; Function compile flags: /Odtp

  00000			 AREA	 |.text|, CODE, ARM

  00000		 |OALStringToUINT32| PROC

; 654  : {

  00000		 |$LN9@OALStringT|
  00000	e1a0c00d	 mov         r12, sp
  00004	e92d0001	 stmdb       sp!, {r0}
  00008	e92d5000	 stmdb       sp!, {r12, lr}
  0000c	e24dd008	 sub         sp, sp, #8
  00010		 |$M47456|

; 655  :     UINT32 i = 0;

  00010	e3a03000	 mov         r3, #0
  00014	e58d3000	 str         r3, [sp]
  00018		 |$LN4@OALStringT|

; 656  : 
; 657  :     // Replace the dots with NULL terminators
; 658  :     while (psz != NULL && *psz != L'\0') 

  00018	e59d3010	 ldr         r3, [sp, #0x10]
  0001c	e3530000	 cmp         r3, #0
  00020	0a000018	 beq         |$LN3@OALStringT|
  00024	e59d3010	 ldr         r3, [sp, #0x10]
  00028	e1d330b0	 ldrh        r3, [r3]
  0002c	e3530000	 cmp         r3, #0
  00030	0a000014	 beq         |$LN3@OALStringT|

; 659  :         {
; 660  :         if (*psz < L'0' || *psz > L'9') 

  00034	e59d3010	 ldr         r3, [sp, #0x10]
  00038	e1d330b0	 ldrh        r3, [r3]
  0003c	e3530030	 cmp         r3, #0x30
  00040	ba000003	 blt         |$LN1@OALStringT|
  00044	e59d3010	 ldr         r3, [sp, #0x10]
  00048	e1d330b0	 ldrh        r3, [r3]
  0004c	e3530039	 cmp         r3, #0x39
  00050	da000000	 ble         |$LN2@OALStringT|
  00054		 |$LN1@OALStringT|

; 661  :             {
; 662  :             break;

  00054	ea00000b	 b           |$LN3@OALStringT|
  00058		 |$LN2@OALStringT|

; 663  :             }
; 664  :         i = i * 10 + (*psz - L'0');

  00058	e59d1000	 ldr         r1, [sp]
  0005c	e3a0300a	 mov         r3, #0xA
  00060	e0020391	 mul         r2, r1, r3
  00064	e59d3010	 ldr         r3, [sp, #0x10]
  00068	e1d330b0	 ldrh        r3, [r3]
  0006c	e2433030	 sub         r3, r3, #0x30
  00070	e0823003	 add         r3, r2, r3
  00074	e58d3000	 str         r3, [sp]

; 665  :         psz++;

  00078	e59d3010	 ldr         r3, [sp, #0x10]
  0007c	e2833002	 add         r3, r3, #2
  00080	e58d3010	 str         r3, [sp, #0x10]

; 666  :         }

  00084	eaffffe3	 b           |$LN4@OALStringT|
  00088		 |$LN3@OALStringT|

; 667  : 
; 668  :     return i;

  00088	e59d3000	 ldr         r3, [sp]
  0008c	e58d3004	 str         r3, [sp, #4]

; 669  : }

  00090	e59d0004	 ldr         r0, [sp, #4]
  00094	e28dd008	 add         sp, sp, #8
  00098	e89d6000	 ldmia       sp, {sp, lr}
  0009c	e12fff1e	 bx          lr
  000a0		 |$M47457|

			 ENDP  ; |OALStringToUINT32|

	EXPORT	|??_C@_1DA@JKMEDIID@?$AA?5?$AA?5?$AAF?$AAi?$AAl?$AAe?$AAn?$AAa?$AAm?$AAe?$AA?3?$AA?5?$AA?5?$AA?5?$AA?5?$AA?5?$AA?5?$AA?$CC?$AA?$CF?$AAs?$AA?$CC?$AA?$AN?$AA?6?$AA?$AA@| [ DATA ] ; `string'
	EXPORT	|??_C@_1BK@EBJPPEOM@?$AA?$AN?$AA?6?$AA?5?$AAS?$AAD?$AAC?$AAa?$AAr?$AAd?$AA?3?$AA?$AN?$AA?6?$AA?$AA@| [ DATA ] ; `string'

  00000			 AREA	 |.pdata|, PDATA
|$T47466| DCD	|$LN5@ShowSDCard|
	DCD	0x40000e03

  00000			 AREA	 |.rdata|, DATA, READONLY
|??_C@_1DA@JKMEDIID@?$AA?5?$AA?5?$AAF?$AAi?$AAl?$AAe?$AAn?$AAa?$AAm?$AAe?$AA?3?$AA?5?$AA?5?$AA?5?$AA?5?$AA?5?$AA?5?$AA?$CC?$AA?$CF?$AAs?$AA?$CC?$AA?$AN?$AA?6?$AA?$AA@| DCB " "
	DCB	0x0, " ", 0x0, "F", 0x0, "i", 0x0, "l", 0x0, "e", 0x0, "n"
	DCB	0x0, "a", 0x0, "m", 0x0, "e", 0x0, ":", 0x0, " ", 0x0, " "
	DCB	0x0, " ", 0x0, " ", 0x0, " ", 0x0, " ", 0x0, """", 0x0, "%"
	DCB	0x0, "s", 0x0, """", 0x0, 0xd, 0x0, 0xa, 0x0, 0x0, 0x0 ; `string'

  00000			 AREA	 |.rdata|, DATA, READONLY
|??_C@_1BK@EBJPPEOM@?$AA?$AN?$AA?6?$AA?5?$AAS?$AAD?$AAC?$AAa?$AAr?$AAd?$AA?3?$AA?$AN?$AA?6?$AA?$AA@| DCB 0xd
	DCB	0x0, 0xa, 0x0, " ", 0x0, "S", 0x0, "D", 0x0, "C", 0x0, "a"
	DCB	0x0, "r", 0x0, "d", 0x0, ":", 0x0, 0xd, 0x0, 0xa, 0x0, 0x0
	DCB	0x0					; `string'
; Function compile flags: /Odtp

  00000			 AREA	 |.text|, CODE, ARM

  00000		 |ShowSDCardSettings| PROC

; 676  : {

  00000		 |$LN5@ShowSDCard|
  00000	e1a0c00d	 mov         r12, sp
  00004	e92d0001	 stmdb       sp!, {r0}
  00008	e92d5000	 stmdb       sp!, {r12, lr}
  0000c		 |$M47463|

; 677  :     UNREFERENCED_PARAMETER(pMenu);
; 678  : 
; 679  :     OALLog(L"\r\n SDCard:\r\n");

  0000c	e59f0020	 ldr         r0, [pc, #0x20]
  00010	eb000000	 bl          NKDbgPrintfW

; 680  :     OALLog(
; 681  :         L"  Filename:      \"%s\"\r\n", g_bootCfg.filename
; 682  :     );

  00014	e59f3014	 ldr         r3, [pc, #0x14]
  00018	e283104c	 add         r1, r3, #0x4C
  0001c	e59f0008	 ldr         r0, [pc, #8]
  00020	eb000000	 bl          NKDbgPrintfW

; 683  : //  OALBLMenuReadKey(TRUE);
; 684  : }

  00024	e89d6000	 ldmia       sp, {sp, lr}
  00028	e12fff1e	 bx          lr
  0002c		 |$LN6@ShowSDCard|
  0002c		 |$LN7@ShowSDCard|
  0002c	00000000	 DCD         |??_C@_1DA@JKMEDIID@?$AA?5?$AA?5?$AAF?$AAi?$AAl?$AAe?$AAn?$AAa?$AAm?$AAe?$AA?3?$AA?5?$AA?5?$AA?5?$AA?5?$AA?5?$AA?5?$AA?$CC?$AA?$CF?$AAs?$AA?$CC?$AA?$AN?$AA?6?$AA?$AA@|
  00030		 |$LN8@ShowSDCard|
  00030	00000000	 DCD         |g_bootCfg|
  00034		 |$LN9@ShowSDCard|
  00034	00000000	 DCD         |??_C@_1BK@EBJPPEOM@?$AA?$AN?$AA?6?$AA?5?$AAS?$AAD?$AAC?$AAa?$AAr?$AAd?$AA?3?$AA?$AN?$AA?6?$AA?$AA@|
  00038		 |$M47464|

			 ENDP  ; |ShowSDCardSettings|

	EXPORT	|??_C@_1EI@OPDBDDPE@?$AA?$AN?$AA?6?$AA?5?$AAT?$AAy?$AAp?$AAe?$AA?5?$AAn?$AAe?$AAw?$AA?5?$AAf?$AAi?$AAl?$AAe?$AAn?$AAa?$AAm?$AAe?$AA?5?$AA?$CI?$AA8?$AA?4?$AA3?$AA?5?$AAf?$AAo?$AAr?$AAm?$AAa?$AAt@| [ DATA ] ; `string'

  00000			 AREA	 |.pdata|, PDATA
|$T47477| DCD	|$LN5@EnterSDCar|
	DCD	0x40000d03

  00000			 AREA	 |.rdata|, DATA, READONLY
|??_C@_1EI@OPDBDDPE@?$AA?$AN?$AA?6?$AA?5?$AAT?$AAy?$AAp?$AAe?$AA?5?$AAn?$AAe?$AAw?$AA?5?$AAf?$AAi?$AAl?$AAe?$AAn?$AAa?$AAm?$AAe?$AA?5?$AA?$CI?$AA8?$AA?4?$AA3?$AA?5?$AAf?$AAo?$AAr?$AAm?$AAa?$AAt@| DCB 0xd
	DCB	0x0, 0xa, 0x0, " ", 0x0, "T", 0x0, "y", 0x0, "p", 0x0, "e"
	DCB	0x0, " ", 0x0, "n", 0x0, "e", 0x0, "w", 0x0, " ", 0x0, "f"
	DCB	0x0, "i", 0x0, "l", 0x0, "e", 0x0, "n", 0x0, "a", 0x0, "m"
	DCB	0x0, "e", 0x0, " ", 0x0, "(", 0x0, "8", 0x0, ".", 0x0, "3"
	DCB	0x0, " ", 0x0, "f", 0x0, "o", 0x0, "r", 0x0, "m", 0x0, "a"
	DCB	0x0, "t", 0x0, ")", 0x0, " ", 0x0, ":", 0x0, 0x0, 0x0 ; `string'
; Function compile flags: /Odtp

  00000			 AREA	 |.text|, CODE, ARM

  00000		 |EnterSDCardFilename| PROC

; 690  : {

  00000		 |$LN5@EnterSDCar|
  00000	e1a0c00d	 mov         r12, sp
  00004	e92d0001	 stmdb       sp!, {r0}
  00008	e92d5000	 stmdb       sp!, {r12, lr}
  0000c		 |$M47474|

; 691  :     UNREFERENCED_PARAMETER(pMenu);
; 692  : 
; 693  :     OALLog(L"\r\n Type new filename (8.3 format) :");

  0000c	e59f001c	 ldr         r0, [pc, #0x1C]
  00010	eb000000	 bl          NKDbgPrintfW

; 694  :     OALBLMenuReadLine(g_bootCfg.filename, dimof(g_bootCfg.filename));

  00014	e3a0100d	 mov         r1, #0xD
  00018	e59f300c	 ldr         r3, [pc, #0xC]
  0001c	e283004c	 add         r0, r3, #0x4C
  00020	eb000000	 bl          OALBLMenuReadLine

; 695  : }

  00024	e89d6000	 ldmia       sp, {sp, lr}
  00028	e12fff1e	 bx          lr
  0002c		 |$LN6@EnterSDCar|
  0002c		 |$LN7@EnterSDCar|
  0002c	00000000	 DCD         |g_bootCfg|
  00030		 |$LN8@EnterSDCar|
  00030	00000000	 DCD         |??_C@_1EI@OPDBDDPE@?$AA?$AN?$AA?6?$AA?5?$AAT?$AAy?$AAp?$AAe?$AA?5?$AAn?$AAe?$AAw?$AA?5?$AAf?$AAi?$AAl?$AAe?$AAn?$AAa?$AAm?$AAe?$AA?5?$AA?$CI?$AA8?$AA?4?$AA3?$AA?5?$AAf?$AAo?$AAr?$AAm?$AAa?$AAt@|
  00034		 |$M47475|

			 ENDP  ; |EnterSDCardFilename|

	END
