; Listing generated by Microsoft (R) Optimizing Compiler Version 14.01.60511.01 

	TTL	C:\WINCE600\PLATFORM\EVM_OMAP3530\SRC\DRIVERS\CAMERA\MDD\pindriver.cpp
	CODE32

  00000			 AREA	 |.drectve|, DRECTVE
	DCB	"-defaultlib:LIBCMT "
	DCB	"-defaultlib:OLDNAMES "

	EXPORT	|?IsEqualGUID@@YAHABU_GUID@@0@Z|	; IsEqualGUID
	IMPORT	|memcmp|
; File c:\wince600\public\common\sdk\inc\objbase.h

  00000			 AREA	 |.pdata|, PDATA
|$T34684| DCD	|$LN7@IsEqualGUI|
	DCD	0x40000901
; Function compile flags: /Ogspy

  00000			 AREA	 |.text|, CODE, ARM

  00000		 |?IsEqualGUID@@YAHABU_GUID@@0@Z| PROC	; IsEqualGUID

; 493  : {

  00000		 |$LN7@IsEqualGUI|
  00000	e52de004	 str         lr, [sp, #-4]!
  00004		 |$M34681|

; 494  :     return !memcmp(&rguid1, &rguid2, sizeof(GUID));

  00004	e3a02010	 mov         r2, #0x10
  00008	eb000000	 bl          memcmp
  0000c	e3500000	 cmp         r0, #0
  00010	03a00001	 moveq       r0, #1

; 495  : }

  00014	049de004	 ldreq       lr, [sp], #4

; 494  :     return !memcmp(&rguid1, &rguid2, sizeof(GUID));

  00018	13a00000	 movne       r0, #0

; 495  : }

  0001c	149de004	 ldrne       lr, [sp], #4
  00020	e12fff1e	 bx          lr
  00024		 |$M34682|

			 ENDP  ; |?IsEqualGUID@@YAHABU_GUID@@0@Z|, IsEqualGUID

	EXPORT	|PIN_Init|
	EXPORT	|??_C@_1DK@LGKADFAA@?$AAP?$AAI?$AAN?$AA_?$AAI?$AAn?$AAi?$AAt?$AA?3?$AA?5?$AAr?$AAe?$AAt?$AAu?$AAr?$AAn?$AAi?$AAn?$AAg?$AA?5?$AA0?$AAx?$AA?$CF?$AA0?$AA8?$AAx?$AA?$AN?$AA?6?$AA?$AA@| [ DATA ] ; `string'
	EXPORT	|??_C@_1EA@LDOBGFDL@?$AAP?$AAI?$AAN?$AA_?$AAI?$AAn?$AAi?$AAt?$AA?3?$AA?5?$AAI?$AAn?$AAi?$AAt?$AAi?$AAa?$AAl?$AAi?$AAz?$AAa?$AAt?$AAi?$AAo?$AAn?$AA?5?$AAF?$AAa?$AAi?$AAl?$AAe?$AAd?$AA?$AA@| [ DATA ] ; `string'
	EXPORT	|??_C@_1CM@NFAFMBPP@?$AAP?$AAI?$AAN?$AA_?$AAI?$AAn?$AAi?$AAt?$AA?3?$AA?5?$AAc?$AAo?$AAn?$AAt?$AAe?$AAx?$AAt?$AA?5?$AA?$CF?$AAs?$AA?6?$AA?$AA@| [ DATA ] ; `string'
	IMPORT	|??3@YAXPAX@Z|				; operator delete
	IMPORT	|SetLastError|
	IMPORT	|??2@YAPAXI@Z|				; operator new
	IMPORT	|NKDbgPrintfW|
	IMPORT	|dpCurSettings|
; File c:\wince600\platform\evm_omap3530\src\drivers\camera\mdd\pindriver.cpp

  00000			 AREA	 |.pdata|, PDATA
|$T34705| DCD	|$LN16@PIN_Init|
	DCD	0x40002801

  00000			 AREA	 |.rdata|, DATA, READONLY
|??_C@_1DK@LGKADFAA@?$AAP?$AAI?$AAN?$AA_?$AAI?$AAn?$AAi?$AAt?$AA?3?$AA?5?$AAr?$AAe?$AAt?$AAu?$AAr?$AAn?$AAi?$AAn?$AAg?$AA?5?$AA0?$AAx?$AA?$CF?$AA0?$AA8?$AAx?$AA?$AN?$AA?6?$AA?$AA@| DCB "P"
	DCB	0x0, "I", 0x0, "N", 0x0, "_", 0x0, "I", 0x0, "n", 0x0, "i"
	DCB	0x0, "t", 0x0, ":", 0x0, " ", 0x0, "r", 0x0, "e", 0x0, "t"
	DCB	0x0, "u", 0x0, "r", 0x0, "n", 0x0, "i", 0x0, "n", 0x0, "g"
	DCB	0x0, " ", 0x0, "0", 0x0, "x", 0x0, "%", 0x0, "0", 0x0, "8"
	DCB	0x0, "x", 0x0, 0xd, 0x0, 0xa, 0x0, 0x0, 0x0 ; `string'

  00000			 AREA	 |.rdata|, DATA, READONLY
|??_C@_1EA@LDOBGFDL@?$AAP?$AAI?$AAN?$AA_?$AAI?$AAn?$AAi?$AAt?$AA?3?$AA?5?$AAI?$AAn?$AAi?$AAt?$AAi?$AAa?$AAl?$AAi?$AAz?$AAa?$AAt?$AAi?$AAo?$AAn?$AA?5?$AAF?$AAa?$AAi?$AAl?$AAe?$AAd?$AA?$AA@| DCB "P"
	DCB	0x0, "I", 0x0, "N", 0x0, "_", 0x0, "I", 0x0, "n", 0x0, "i"
	DCB	0x0, "t", 0x0, ":", 0x0, " ", 0x0, "I", 0x0, "n", 0x0, "i"
	DCB	0x0, "t", 0x0, "i", 0x0, "a", 0x0, "l", 0x0, "i", 0x0, "z"
	DCB	0x0, "a", 0x0, "t", 0x0, "i", 0x0, "o", 0x0, "n", 0x0, " "
	DCB	0x0, "F", 0x0, "a", 0x0, "i", 0x0, "l", 0x0, "e", 0x0, "d"
	DCB	0x0, 0x0, 0x0				; `string'

  00000			 AREA	 |.rdata|, DATA, READONLY
|??_C@_1CM@NFAFMBPP@?$AAP?$AAI?$AAN?$AA_?$AAI?$AAn?$AAi?$AAt?$AA?3?$AA?5?$AAc?$AAo?$AAn?$AAt?$AAe?$AAx?$AAt?$AA?5?$AA?$CF?$AAs?$AA?6?$AA?$AA@| DCB "P"
	DCB	0x0, "I", 0x0, "N", 0x0, "_", 0x0, "I", 0x0, "n", 0x0, "i"
	DCB	0x0, "t", 0x0, ":", 0x0, " ", 0x0, "c", 0x0, "o", 0x0, "n"
	DCB	0x0, "t", 0x0, "e", 0x0, "x", 0x0, "t", 0x0, " ", 0x0, "%"
	DCB	0x0, "s", 0x0, 0xa, 0x0, 0x0, 0x0	; `string'
; Function compile flags: /Ogspy

  00000			 AREA	 |.text|, CODE, ARM

  00000		 |PIN_Init| PROC

; 60   : {    

  00000		 |$LN16@PIN_Init|
  00000	e92d4070	 stmdb       sp!, {r4 - r6, lr}
  00004		 |$M34702|
  00004	e1a05001	 mov         r5, r1
  00008	e1a01000	 mov         r1, r0

; 61   :     UNREFERENCED_PARAMETER(Context);
; 62   : 
; 63   :     DEBUGMSG( ZONE_INIT, ( _T("PIN_Init: context %s\n"), Context ) );

  0000c	e59f6088	 ldr         r6, [pc, #0x88]
  00010	e5963440	 ldr         r3, [r6, #0x440]
  00014	e3130004	 tst         r3, #4
  00018	159f0078	 ldrne       r0, [pc, #0x78]
  0001c	1b000000	 blne        NKDbgPrintfW

; 64   :     PPININITHANDLE pPinInitDev = NULL;
; 65   : 
; 66   :     pPinInitDev = new PININITHANDLE;

  00020	e3a00004	 mov         r0, #4
  00024	eb000000	 bl          |??2@YAPAXI@Z|
  00028	e1b04000	 movs        r4, r0

; 67   :     
; 68   :     if ( NULL != pPinInitDev )

  0002c	0a00000d	 beq         |$LN4@PIN_Init|

; 69   :     {
; 70   :         pPinInitDev->pCamDevice = reinterpret_cast<PCAMERADEVICE>( lpvBusContext );

  00030	e5845000	 str         r5, [r4]

; 71   : 
; 72   :         if ( NULL == pPinInitDev->pCamDevice )

  00034	e3550000	 cmp         r5, #0
  00038	1a00000c	 bne         |$LN13@PIN_Init|

; 73   :         {
; 74   :             SetLastError( ERROR_INVALID_HANDLE );

  0003c	e3a00006	 mov         r0, #6
  00040	eb000000	 bl          SetLastError

; 75   :             SAFEDELETE( pPinInitDev );

  00044	e1a00004	 mov         r0, r4
  00048	eb000000	 bl          |??3@YAXPAX@Z|

; 76   :             DEBUGMSG( ZONE_INIT|ZONE_ERROR, ( _T("PIN_Init: Initialization Failed") ) );

  0004c	e5963440	 ldr         r3, [r6, #0x440]
  00050	e3a04000	 mov         r4, #0
  00054	e3130005	 tst         r3, #5
  00058	0a000004	 beq         |$LN13@PIN_Init|
  0005c	e59f0030	 ldr         r0, [pc, #0x30]
  00060	eb000000	 bl          NKDbgPrintfW

; 77   :         }
; 78   :     }
; 79   :     else

  00064	ea000001	 b           |$LN13@PIN_Init|
  00068		 |$LN4@PIN_Init|

; 80   :     {
; 81   :         SetLastError( ERROR_OUTOFMEMORY );

  00068	e3a0000e	 mov         r0, #0xE
  0006c	eb000000	 bl          SetLastError
  00070		 |$LN13@PIN_Init|
  00070	e5963440	 ldr         r3, [r6, #0x440]

; 82   :     }
; 83   :     
; 84   :     DEBUGMSG( ZONE_INIT, ( _T("PIN_Init: returning 0x%08x\r\n"), reinterpret_cast<DWORD>( pPinInitDev ) ) );

  00074	e3130004	 tst         r3, #4
  00078	159f0010	 ldrne       r0, [pc, #0x10]
  0007c	11a01004	 movne       r1, r4
  00080	1b000000	 blne        NKDbgPrintfW

; 85   :     
; 86   :     return reinterpret_cast<DWORD>( pPinInitDev );
; 87   : }

  00084	e1a00004	 mov         r0, r4
  00088	e8bd4070	 ldmia       sp!, {r4 - r6, lr}
  0008c	e12fff1e	 bx          lr
  00090		 |$LN17@PIN_Init|
  00090		 |$LN18@PIN_Init|
  00090	00000000	 DCD         |??_C@_1DK@LGKADFAA@?$AAP?$AAI?$AAN?$AA_?$AAI?$AAn?$AAi?$AAt?$AA?3?$AA?5?$AAr?$AAe?$AAt?$AAu?$AAr?$AAn?$AAi?$AAn?$AAg?$AA?5?$AA0?$AAx?$AA?$CF?$AA0?$AA8?$AAx?$AA?$AN?$AA?6?$AA?$AA@|
  00094		 |$LN19@PIN_Init|
  00094	00000000	 DCD         |??_C@_1EA@LDOBGFDL@?$AAP?$AAI?$AAN?$AA_?$AAI?$AAn?$AAi?$AAt?$AA?3?$AA?5?$AAI?$AAn?$AAi?$AAt?$AAi?$AAa?$AAl?$AAi?$AAz?$AAa?$AAt?$AAi?$AAo?$AAn?$AA?5?$AAF?$AAa?$AAi?$AAl?$AAe?$AAd?$AA?$AA@|
  00098		 |$LN20@PIN_Init|
  00098	00000000	 DCD         |??_C@_1CM@NFAFMBPP@?$AAP?$AAI?$AAN?$AA_?$AAI?$AAn?$AAi?$AAt?$AA?3?$AA?5?$AAc?$AAo?$AAn?$AAt?$AAe?$AAx?$AAt?$AA?5?$AA?$CF?$AAs?$AA?6?$AA?$AA@|
  0009c		 |$LN21@PIN_Init|
  0009c	00000000	 DCD         |dpCurSettings|
  000a0		 |$M34703|

			 ENDP  ; |PIN_Init|

	EXPORT	|PIN_Deinit|
	EXPORT	|??_C@_1BK@CECMIBAN@?$AAP?$AAI?$AAN?$AA_?$AAD?$AAe?$AAi?$AAn?$AAi?$AAt?$AA?$AN?$AA?6?$AA?$AA@| [ DATA ] ; `string'

  00000			 AREA	 |.pdata|, PDATA
|$T34723| DCD	|$LN8@PIN_Deinit|
	DCD	0x40000f01

  00000			 AREA	 |.rdata|, DATA, READONLY
|??_C@_1BK@CECMIBAN@?$AAP?$AAI?$AAN?$AA_?$AAD?$AAe?$AAi?$AAn?$AAi?$AAt?$AA?$AN?$AA?6?$AA?$AA@| DCB "P"
	DCB	0x0, "I", 0x0, "N", 0x0, "_", 0x0, "D", 0x0, "e", 0x0, "i"
	DCB	0x0, "n", 0x0, "i", 0x0, "t", 0x0, 0xd, 0x0, 0xa, 0x0, 0x0
	DCB	0x0					; `string'
; Function compile flags: /Ogspy

  00000			 AREA	 |.text|, CODE, ARM

  00000		 |PIN_Deinit| PROC

; 95   : {

  00000		 |$LN8@PIN_Deinit|
  00000	e92d4010	 stmdb       sp!, {r4, lr}
  00004		 |$M34720|
  00004	e1a04000	 mov         r4, r0

; 96   :     DEBUGMSG( ZONE_INIT, ( _T("PIN_Deinit\r\n") ) );

  00008	e59f3028	 ldr         r3, [pc, #0x28]
  0000c	e5933440	 ldr         r3, [r3, #0x440]
  00010	e3130004	 tst         r3, #4
  00014	159f0018	 ldrne       r0, [pc, #0x18]
  00018	1b000000	 blne        NKDbgPrintfW

; 97   : 
; 98   :     PPININITHANDLE pPinInitDev = reinterpret_cast<PPININITHANDLE>( dwContext );
; 99   :     SAFEDELETE( pPinInitDev ) ;

  0001c	e3540000	 cmp         r4, #0
  00020	11a00004	 movne       r0, r4
  00024	1b000000	 blne        |??3@YAXPAX@Z|

; 100  : 
; 101  :     return TRUE;

  00028	e3a00001	 mov         r0, #1

; 102  : }

  0002c	e8bd4010	 ldmia       sp!, {r4, lr}
  00030	e12fff1e	 bx          lr
  00034		 |$LN9@PIN_Deinit|
  00034		 |$LN10@PIN_Deinit|
  00034	00000000	 DCD         |??_C@_1BK@CECMIBAN@?$AAP?$AAI?$AAN?$AA_?$AAD?$AAe?$AAi?$AAn?$AAi?$AAt?$AA?$AN?$AA?6?$AA?$AA@|
  00038		 |$LN11@PIN_Deinit|
  00038	00000000	 DCD         |dpCurSettings|
  0003c		 |$M34721|

			 ENDP  ; |PIN_Deinit|

	EXPORT	|PIN_IOControl|
	EXPORT	|??_C@_1GG@EEDEMIKD@?$AAP?$AAI?$AAN?$AA_?$AAI?$AAO?$AAC?$AAo?$AAn?$AAt?$AAr?$AAo?$AAl?$AA?$CI?$AA?$CF?$AA0?$AA8?$AAx?$AA?$CJ?$AA?3?$AAE?$AAx?$AAc?$AAe?$AAp?$AAt?$AAi?$AAo?$AAn?$AA?5?$AAi?$AAn@| [ DATA ] ; `string'
	EXPORT	|_GUID_1d58c920_ac9b_11cf_a5d6_28db04c10000| [ DATA ]
	EXPORT	|??_C@_1FC@CDELHBAP@?$AAP?$AAI?$AAN?$AA_?$AAI?$AAO?$AAC?$AAo?$AAn?$AAt?$AAr?$AAo?$AAl?$AA?$CI?$AA?$CF?$AA0?$AA8?$AAx?$AA?$CJ?$AA?3?$AA?5?$AAI?$AAO?$AAC?$AAT?$AAL?$AA_?$AAC?$AAS?$AA_?$AAP?$AAR@| [ DATA ] ; `string'
	EXPORT	|??_C@_1HE@OPPGKAKI@?$AAP?$AAI?$AAN?$AA_?$AAI?$AAO?$AAC?$AAo?$AAn?$AAt?$AAr?$AAo?$AAl?$AA?$CI?$AA?$CF?$AA0?$AA8?$AAx?$AA?$CJ?$AA?3?$AAE?$AAx?$AAc?$AAe?$AAp?$AAt?$AAi?$AAo?$AAn?$AA?5?$AAi?$AAn@| [ DATA ] ; `string'
	EXPORT	|??_C@_1KM@EKCOPLED@?$AAP?$AAI?$AAN?$AA_?$AAI?$AAO?$AAC?$AAo?$AAn?$AAt?$AAr?$AAo?$AAl?$AA?$CI?$AA?$CF?$AA0?$AA8?$AAx?$AA?$CJ?$AA?3?$AA?5?$AAU?$AAn?$AAs?$AAu?$AAp?$AAp?$AAo?$AAr?$AAt?$AAe?$AAd@| [ DATA ] ; `string'
	EXPORT	|??_C@_1EO@HBLJJDEA@?$AAP?$AAI?$AAN?$AA_?$AAI?$AAO?$AAC?$AAo?$AAn?$AAt?$AAr?$AAo?$AAl?$AA?$CI?$AA?$CF?$AA0?$AA8?$AAx?$AA?$CJ?$AA?3?$AA?5?$AAI?$AAn?$AAv?$AAa?$AAl?$AAi?$AAd?$AA?5?$AAR?$AAe?$AAq@| [ DATA ] ; `string'
	EXPORT	|_GUID_443a0706_9554_41f4_bb70_ecb5d210fb3b| [ DATA ]
	EXPORT	|??_C@_1IK@EONLEHAJ@?$AAP?$AAI?$AAN?$AA_?$AAI?$AAO?$AAC?$AAo?$AAn?$AAt?$AAr?$AAo?$AAl?$AA?$CI?$AA?$CF?$AA0?$AA8?$AAx?$AA?$CJ?$AA?3?$AA?5?$AAI?$AAO?$AAC?$AAT?$AAL?$AA_?$AAS?$AAT?$AAR?$AAE?$AAA@| [ DATA ] ; `string'
	EXPORT	|??_C@_1GA@EGKFHLDE@?$AAP?$AAI?$AAN?$AA_?$AAI?$AAO?$AAC?$AAo?$AAn?$AAt?$AAr?$AAo?$AAl?$AA?$CI?$AA?$CF?$AA0?$AA8?$AAx?$AA?$CJ?$AA?3?$AA?5?$AAI?$AAO?$AAC?$AAT?$AAL?$AA_?$AAS?$AAT?$AAR?$AAE?$AAA@| [ DATA ] ; `string'
	EXPORT	|??_C@_1GE@BFNCCBEI@?$AAP?$AAI?$AAN?$AA_?$AAI?$AAO?$AAC?$AAo?$AAn?$AAt?$AAr?$AAo?$AAl?$AA?$CI?$AA?$CF?$AA0?$AA8?$AAx?$AA?$CJ?$AA?3?$AAE?$AAx?$AAc?$AAe?$AAp?$AAt?$AAi?$AAo?$AAn?$AA?5?$AAi?$AAn@| [ DATA ] ; `string'
	EXPORT	|??_C@_1HI@PIIOCIL@?$AAP?$AAI?$AAN?$AA_?$AAI?$AAO?$AAC?$AAo?$AAn?$AAt?$AAr?$AAo?$AAl?$AA?$CI?$AA?$CF?$AA0?$AA8?$AAx?$AA?$CJ?$AA?3?$AA?5?$AAI?$AAO?$AAC?$AAT?$AAL?$AA_?$AAC?$AAS?$AA_?$AAB?$AAU@| [ DATA ] ; `string'
	EXPORT	|??_C@_1FA@LGPBFBMO@?$AAP?$AAI?$AAN?$AA_?$AAI?$AAO?$AAC?$AAo?$AAn?$AAt?$AAr?$AAo?$AAl?$AA?$CI?$AA?$CF?$AA0?$AA8?$AAx?$AA?$CJ?$AA?3?$AA?5?$AAI?$AAO?$AAC?$AAT?$AAL?$AA_?$AAC?$AAS?$AA_?$AAB?$AAU@| [ DATA ] ; `string'
	EXPORT	|??_C@_1GC@PJFEBBLB@?$AAP?$AAI?$AAN?$AA_?$AAI?$AAO?$AAC?$AAo?$AAn?$AAt?$AAr?$AAo?$AAl?$AA?$CI?$AA?$CF?$AA0?$AA8?$AAx?$AA?$CJ?$AA?3?$AA?5?$AAU?$AAn?$AAs?$AAu?$AAp?$AAp?$AAo?$AAr?$AAt?$AAe?$AAd@| [ DATA ] ; `string'
	EXPORT	|??_C@_1LC@HMANPLBM@?$AAP?$AAI?$AAN?$AA_?$AAI?$AAO?$AAC?$AAo?$AAn?$AAt?$AAr?$AAo?$AAl?$AA?$CI?$AA?$CF?$AA0?$AA8?$AAx?$AA?$CJ?$AA?3?$AA?5?$AAI?$AAO?$AAC?$AAT?$AAL?$AA?3?$AA0?$AAx?$AA?$CF?$AAx?$AA?0@| [ DATA ] ; `string'
	IMPORT	|?PinHandleConnectionRequests@CPinDevice@@QAAKPAUCSIDENTIFIER@@PAEKPAK@Z| ; CPinDevice::PinHandleConnectionRequests
	IMPORT	|?PinHandleCustomRequests@CPinDevice@@QAAKPAEK0KPAK@Z| ; CPinDevice::PinHandleCustomRequests
	IMPORT	|?StreamInstantiate@CPinDevice@@QAAKPAU_tagCSPROPERTY_StreamEx@@PAEKPAK@Z| ; CPinDevice::StreamInstantiate
	IMPORT	|?PinHandleBufferRequest@CPinDevice@@QAAKU_tagCSBUFFER_Info@@PAEKPAK@Z| ; CPinDevice::PinHandleBufferRequest
	IMPORT	|CeSafeCopyMemory|
	IMPORT	|__C_specific_handler|
	IMPORT	|memset|
; File c:\wince600\public\common\sdk\inc\objbase.h

  00000			 AREA	 |.pdata|, PDATA
|$T34819| DCD	|$LN95@PIN_IOCont|
	DCD	0xc000f605

  00000			 AREA	 |.pdata|, PDATA
|$T34821| DCD	|$LN55@PIN_IOCont|
	DCD	0x40000502

  00000			 AREA	 |.pdata|, PDATA
|$T34823| DCD	|$LN69@PIN_IOCont|
	DCD	0x40000502

  00000			 AREA	 |.pdata|, PDATA
|$T34825| DCD	|$LN62@PIN_IOCont|
	DCD	0x40001402

  00000			 AREA	 |.xdata|, DATA
|$T34817| DCD	0x3
	DCD	|$LN59@PIN_IOCont|
	DCD	|$LN60@PIN_IOCont|
	DCD	|$LN55@PIN_IOCont|
	DCD	|$LN56@PIN_IOCont|
	DCD	|$LN73@PIN_IOCont|
	DCD	|$LN74@PIN_IOCont|
	DCD	|$LN69@PIN_IOCont|
	DCD	|$LN70@PIN_IOCont|
	DCD	|$LN66@PIN_IOCont|
	DCD	|$LN67@PIN_IOCont|
	DCD	|$LN62@PIN_IOCont|
	DCD	|$LN63@PIN_IOCont|

  00000			 AREA	 |.rdata|, DATA, READONLY
|??_C@_1GG@EEDEMIKD@?$AAP?$AAI?$AAN?$AA_?$AAI?$AAO?$AAC?$AAo?$AAn?$AAt?$AAr?$AAo?$AAl?$AA?$CI?$AA?$CF?$AA0?$AA8?$AAx?$AA?$CJ?$AA?3?$AAE?$AAx?$AAc?$AAe?$AAp?$AAt?$AAi?$AAo?$AAn?$AA?5?$AAi?$AAn@| DCB "P"
	DCB	0x0, "I", 0x0, "N", 0x0, "_", 0x0, "I", 0x0, "O", 0x0, "C"
	DCB	0x0, "o", 0x0, "n", 0x0, "t", 0x0, "r", 0x0, "o", 0x0, "l"
	DCB	0x0, "(", 0x0, "%", 0x0, "0", 0x0, "8", 0x0, "x", 0x0, ")"
	DCB	0x0, ":", 0x0, "E", 0x0, "x", 0x0, "c", 0x0, "e", 0x0, "p"
	DCB	0x0, "t", 0x0, "i", 0x0, "o", 0x0, "n", 0x0, " ", 0x0, "i"
	DCB	0x0, "n", 0x0, " ", 0x0, "I", 0x0, "O", 0x0, "C", 0x0, "T"
	DCB	0x0, "L", 0x0, "_", 0x0, "C", 0x0, "S", 0x0, "_", 0x0, "P"
	DCB	0x0, "R", 0x0, "O", 0x0, "P", 0x0, "E", 0x0, "R", 0x0, "T"
	DCB	0x0, "Y", 0x0, 0x0, 0x0			; `string'

  00000			 AREA	 |.rdata|, DATA, READONLY
|_GUID_1d58c920_ac9b_11cf_a5d6_28db04c10000| DCD 0x1d58c920
	DCW	0xac9b
	DCW	0x11cf
	DCB	0xa5
	DCB	0xd6
	DCB	0x28
	DCB	0xdb
	DCB	0x4
	DCB	0xc1
	DCB	0x0
	DCB	0x0

  00000			 AREA	 |.rdata|, DATA, READONLY
|??_C@_1FC@CDELHBAP@?$AAP?$AAI?$AAN?$AA_?$AAI?$AAO?$AAC?$AAo?$AAn?$AAt?$AAr?$AAo?$AAl?$AA?$CI?$AA?$CF?$AA0?$AA8?$AAx?$AA?$CJ?$AA?3?$AA?5?$AAI?$AAO?$AAC?$AAT?$AAL?$AA_?$AAC?$AAS?$AA_?$AAP?$AAR@| DCB "P"
	DCB	0x0, "I", 0x0, "N", 0x0, "_", 0x0, "I", 0x0, "O", 0x0, "C"
	DCB	0x0, "o", 0x0, "n", 0x0, "t", 0x0, "r", 0x0, "o", 0x0, "l"
	DCB	0x0, "(", 0x0, "%", 0x0, "0", 0x0, "8", 0x0, "x", 0x0, ")"
	DCB	0x0, ":", 0x0, " ", 0x0, "I", 0x0, "O", 0x0, "C", 0x0, "T"
	DCB	0x0, "L", 0x0, "_", 0x0, "C", 0x0, "S", 0x0, "_", 0x0, "P"
	DCB	0x0, "R", 0x0, "O", 0x0, "P", 0x0, "E", 0x0, "R", 0x0, "T"
	DCB	0x0, "Y", 0x0, 0xd, 0x0, 0xa, 0x0, 0x0, 0x0 ; `string'

  00000			 AREA	 |.rdata|, DATA, READONLY
|??_C@_1HE@OPPGKAKI@?$AAP?$AAI?$AAN?$AA_?$AAI?$AAO?$AAC?$AAo?$AAn?$AAt?$AAr?$AAo?$AAl?$AA?$CI?$AA?$CF?$AA0?$AA8?$AAx?$AA?$CJ?$AA?3?$AAE?$AAx?$AAc?$AAe?$AAp?$AAt?$AAi?$AAo?$AAn?$AA?5?$AAi?$AAn@| DCB "P"
	DCB	0x0, "I", 0x0, "N", 0x0, "_", 0x0, "I", 0x0, "O", 0x0, "C"
	DCB	0x0, "o", 0x0, "n", 0x0, "t", 0x0, "r", 0x0, "o", 0x0, "l"
	DCB	0x0, "(", 0x0, "%", 0x0, "0", 0x0, "8", 0x0, "x", 0x0, ")"
	DCB	0x0, ":", 0x0, "E", 0x0, "x", 0x0, "c", 0x0, "e", 0x0, "p"
	DCB	0x0, "t", 0x0, "i", 0x0, "o", 0x0, "n", 0x0, " ", 0x0, "i"
	DCB	0x0, "n", 0x0, " ", 0x0, "I", 0x0, "O", 0x0, "C", 0x0, "T"
	DCB	0x0, "L", 0x0, "_", 0x0, "S", 0x0, "T", 0x0, "R", 0x0, "E"
	DCB	0x0, "A", 0x0, "M", 0x0, "_", 0x0, "I", 0x0, "N", 0x0, "S"
	DCB	0x0, "T", 0x0, "A", 0x0, "N", 0x0, "T", 0x0, "I", 0x0, "A"
	DCB	0x0, "T", 0x0, "E", 0x0, 0x0, 0x0	; `string'

  00000			 AREA	 |.rdata|, DATA, READONLY
|??_C@_1KM@EKCOPLED@?$AAP?$AAI?$AAN?$AA_?$AAI?$AAO?$AAC?$AAo?$AAn?$AAt?$AAr?$AAo?$AAl?$AA?$CI?$AA?$CF?$AA0?$AA8?$AAx?$AA?$CJ?$AA?3?$AA?5?$AAU?$AAn?$AAs?$AAu?$AAp?$AAp?$AAo?$AAr?$AAt?$AAe?$AAd@| DCB "P"
	DCB	0x0, "I", 0x0, "N", 0x0, "_", 0x0, "I", 0x0, "O", 0x0, "C"
	DCB	0x0, "o", 0x0, "n", 0x0, "t", 0x0, "r", 0x0, "o", 0x0, "l"
	DCB	0x0, "(", 0x0, "%", 0x0, "0", 0x0, "8", 0x0, "x", 0x0, ")"
	DCB	0x0, ":", 0x0, " ", 0x0, "U", 0x0, "n", 0x0, "s", 0x0, "u"
	DCB	0x0, "p", 0x0, "p", 0x0, "o", 0x0, "r", 0x0, "t", 0x0, "e"
	DCB	0x0, "d", 0x0, " ", 0x0, "P", 0x0, "r", 0x0, "o", 0x0, "p"
	DCB	0x0, "e", 0x0, "r", 0x0, "t", 0x0, "y", 0x0, "S", 0x0, "e"
	DCB	0x0, "t", 0x0, " ", 0x0, "R", 0x0, "e", 0x0, "q", 0x0, "u"
	DCB	0x0, "e", 0x0, "s", 0x0, "t", 0x0, " ", 0x0, "f", 0x0, "o"
	DCB	0x0, "r", 0x0, " ", 0x0, "I", 0x0, "O", 0x0, "C", 0x0, "T"
	DCB	0x0, "L", 0x0, "_", 0x0, "S", 0x0, "T", 0x0, "R", 0x0, "E"
	DCB	0x0, "A", 0x0, "M", 0x0, "_", 0x0, "I", 0x0, "N", 0x0, "S"
	DCB	0x0, "T", 0x0, "A", 0x0, "N", 0x0, "T", 0x0, "I", 0x0, "A"
	DCB	0x0, "T", 0x0, "E", 0x0, "%", 0x0, "u", 0x0, 0xd, 0x0, 0xa
	DCB	0x0, 0x0, 0x0				; `string'

  00000			 AREA	 |.rdata|, DATA, READONLY
|??_C@_1EO@HBLJJDEA@?$AAP?$AAI?$AAN?$AA_?$AAI?$AAO?$AAC?$AAo?$AAn?$AAt?$AAr?$AAo?$AAl?$AA?$CI?$AA?$CF?$AA0?$AA8?$AAx?$AA?$CJ?$AA?3?$AA?5?$AAI?$AAn?$AAv?$AAa?$AAl?$AAi?$AAd?$AA?5?$AAR?$AAe?$AAq@| DCB "P"
	DCB	0x0, "I", 0x0, "N", 0x0, "_", 0x0, "I", 0x0, "O", 0x0, "C"
	DCB	0x0, "o", 0x0, "n", 0x0, "t", 0x0, "r", 0x0, "o", 0x0, "l"
	DCB	0x0, "(", 0x0, "%", 0x0, "0", 0x0, "8", 0x0, "x", 0x0, ")"
	DCB	0x0, ":", 0x0, " ", 0x0, "I", 0x0, "n", 0x0, "v", 0x0, "a"
	DCB	0x0, "l", 0x0, "i", 0x0, "d", 0x0, " ", 0x0, "R", 0x0, "e"
	DCB	0x0, "q", 0x0, "u", 0x0, "e", 0x0, "s", 0x0, "t", 0x0, 0xd
	DCB	0x0, 0xa, 0x0, 0x0, 0x0			; `string'

  00000			 AREA	 |.rdata|, DATA, READONLY
|_GUID_443a0706_9554_41f4_bb70_ecb5d210fb3b| DCD 0x443a0706
	DCW	0x9554
	DCW	0x41f4
	DCB	0xbb
	DCB	0x70
	DCB	0xec
	DCB	0xb5
	DCB	0xd2
	DCB	0x10
	DCB	0xfb
	DCB	0x3b

  00000			 AREA	 |.rdata|, DATA, READONLY
|??_C@_1IK@EONLEHAJ@?$AAP?$AAI?$AAN?$AA_?$AAI?$AAO?$AAC?$AAo?$AAn?$AAt?$AAr?$AAo?$AAl?$AA?$CI?$AA?$CF?$AA0?$AA8?$AAx?$AA?$CJ?$AA?3?$AA?5?$AAI?$AAO?$AAC?$AAT?$AAL?$AA_?$AAS?$AAT?$AAR?$AAE?$AAA@| DCB "P"
	DCB	0x0, "I", 0x0, "N", 0x0, "_", 0x0, "I", 0x0, "O", 0x0, "C"
	DCB	0x0, "o", 0x0, "n", 0x0, "t", 0x0, "r", 0x0, "o", 0x0, "l"
	DCB	0x0, "(", 0x0, "%", 0x0, "0", 0x0, "8", 0x0, "x", 0x0, ")"
	DCB	0x0, ":", 0x0, " ", 0x0, "I", 0x0, "O", 0x0, "C", 0x0, "T"
	DCB	0x0, "L", 0x0, "_", 0x0, "S", 0x0, "T", 0x0, "R", 0x0, "E"
	DCB	0x0, "A", 0x0, "M", 0x0, "_", 0x0, "I", 0x0, "N", 0x0, "S"
	DCB	0x0, "T", 0x0, "A", 0x0, "N", 0x0, "T", 0x0, "I", 0x0, "A"
	DCB	0x0, "T", 0x0, "E", 0x0, ".", 0x0, " ", 0x0, "I", 0x0, "n"
	DCB	0x0, "s", 0x0, "u", 0x0, "f", 0x0, "f", 0x0, "i", 0x0, "c"
	DCB	0x0, "i", 0x0, "e", 0x0, "n", 0x0, "t", 0x0, " ", 0x0, "b"
	DCB	0x0, "u", 0x0, "f", 0x0, "f", 0x0, "e", 0x0, "r", 0x0, 0xd
	DCB	0x0, 0xa, 0x0, 0x0, 0x0			; `string'

  00000			 AREA	 |.rdata|, DATA, READONLY
|??_C@_1GA@EGKFHLDE@?$AAP?$AAI?$AAN?$AA_?$AAI?$AAO?$AAC?$AAo?$AAn?$AAt?$AAr?$AAo?$AAl?$AA?$CI?$AA?$CF?$AA0?$AA8?$AAx?$AA?$CJ?$AA?3?$AA?5?$AAI?$AAO?$AAC?$AAT?$AAL?$AA_?$AAS?$AAT?$AAR?$AAE?$AAA@| DCB "P"
	DCB	0x0, "I", 0x0, "N", 0x0, "_", 0x0, "I", 0x0, "O", 0x0, "C"
	DCB	0x0, "o", 0x0, "n", 0x0, "t", 0x0, "r", 0x0, "o", 0x0, "l"
	DCB	0x0, "(", 0x0, "%", 0x0, "0", 0x0, "8", 0x0, "x", 0x0, ")"
	DCB	0x0, ":", 0x0, " ", 0x0, "I", 0x0, "O", 0x0, "C", 0x0, "T"
	DCB	0x0, "L", 0x0, "_", 0x0, "S", 0x0, "T", 0x0, "R", 0x0, "E"
	DCB	0x0, "A", 0x0, "M", 0x0, "_", 0x0, "I", 0x0, "N", 0x0, "S"
	DCB	0x0, "T", 0x0, "A", 0x0, "N", 0x0, "T", 0x0, "I", 0x0, "A"
	DCB	0x0, "T", 0x0, "E", 0x0, 0xd, 0x0, 0xa, 0x0, 0x0, 0x0 ; `string'

  00000			 AREA	 |.rdata|, DATA, READONLY
|??_C@_1GE@BFNCCBEI@?$AAP?$AAI?$AAN?$AA_?$AAI?$AAO?$AAC?$AAo?$AAn?$AAt?$AAr?$AAo?$AAl?$AA?$CI?$AA?$CF?$AA0?$AA8?$AAx?$AA?$CJ?$AA?3?$AAE?$AAx?$AAc?$AAe?$AAp?$AAt?$AAi?$AAo?$AAn?$AA?5?$AAi?$AAn@| DCB "P"
	DCB	0x0, "I", 0x0, "N", 0x0, "_", 0x0, "I", 0x0, "O", 0x0, "C"
	DCB	0x0, "o", 0x0, "n", 0x0, "t", 0x0, "r", 0x0, "o", 0x0, "l"
	DCB	0x0, "(", 0x0, "%", 0x0, "0", 0x0, "8", 0x0, "x", 0x0, ")"
	DCB	0x0, ":", 0x0, "E", 0x0, "x", 0x0, "c", 0x0, "e", 0x0, "p"
	DCB	0x0, "t", 0x0, "i", 0x0, "o", 0x0, "n", 0x0, " ", 0x0, "i"
	DCB	0x0, "n", 0x0, " ", 0x0, "I", 0x0, "O", 0x0, "C", 0x0, "T"
	DCB	0x0, "L", 0x0, "_", 0x0, "C", 0x0, "S", 0x0, "_", 0x0, "B"
	DCB	0x0, "U", 0x0, "F", 0x0, "F", 0x0, "E", 0x0, "R", 0x0, "S"
	DCB	0x0, 0x0, 0x0				; `string'

  00000			 AREA	 |.rdata|, DATA, READONLY
|??_C@_1HI@PIIOCIL@?$AAP?$AAI?$AAN?$AA_?$AAI?$AAO?$AAC?$AAo?$AAn?$AAt?$AAr?$AAo?$AAl?$AA?$CI?$AA?$CF?$AA0?$AA8?$AAx?$AA?$CJ?$AA?3?$AA?5?$AAI?$AAO?$AAC?$AAT?$AAL?$AA_?$AAC?$AAS?$AA_?$AAB?$AAU@| DCB "P"
	DCB	0x0, "I", 0x0, "N", 0x0, "_", 0x0, "I", 0x0, "O", 0x0, "C"
	DCB	0x0, "o", 0x0, "n", 0x0, "t", 0x0, "r", 0x0, "o", 0x0, "l"
	DCB	0x0, "(", 0x0, "%", 0x0, "0", 0x0, "8", 0x0, "x", 0x0, ")"
	DCB	0x0, ":", 0x0, " ", 0x0, "I", 0x0, "O", 0x0, "C", 0x0, "T"
	DCB	0x0, "L", 0x0, "_", 0x0, "C", 0x0, "S", 0x0, "_", 0x0, "B"
	DCB	0x0, "U", 0x0, "F", 0x0, "F", 0x0, "E", 0x0, "R", 0x0, "S"
	DCB	0x0, ".", 0x0, " ", 0x0, "I", 0x0, "n", 0x0, "v", 0x0, "a"
	DCB	0x0, "l", 0x0, "i", 0x0, "d", 0x0, " ", 0x0, "p", 0x0, "a"
	DCB	0x0, "r", 0x0, "a", 0x0, "m", 0x0, "e", 0x0, "t", 0x0, "e"
	DCB	0x0, "r", 0x0, "s", 0x0, 0xd, 0x0, 0xa, 0x0, 0x0, 0x0 ; `string'

  00000			 AREA	 |.rdata|, DATA, READONLY
|??_C@_1FA@LGPBFBMO@?$AAP?$AAI?$AAN?$AA_?$AAI?$AAO?$AAC?$AAo?$AAn?$AAt?$AAr?$AAo?$AAl?$AA?$CI?$AA?$CF?$AA0?$AA8?$AAx?$AA?$CJ?$AA?3?$AA?5?$AAI?$AAO?$AAC?$AAT?$AAL?$AA_?$AAC?$AAS?$AA_?$AAB?$AAU@| DCB "P"
	DCB	0x0, "I", 0x0, "N", 0x0, "_", 0x0, "I", 0x0, "O", 0x0, "C"
	DCB	0x0, "o", 0x0, "n", 0x0, "t", 0x0, "r", 0x0, "o", 0x0, "l"
	DCB	0x0, "(", 0x0, "%", 0x0, "0", 0x0, "8", 0x0, "x", 0x0, ")"
	DCB	0x0, ":", 0x0, " ", 0x0, "I", 0x0, "O", 0x0, "C", 0x0, "T"
	DCB	0x0, "L", 0x0, "_", 0x0, "C", 0x0, "S", 0x0, "_", 0x0, "B"
	DCB	0x0, "U", 0x0, "F", 0x0, "F", 0x0, "E", 0x0, "R", 0x0, "S"
	DCB	0x0, 0xd, 0x0, 0xa, 0x0, 0x0, 0x0	; `string'

  00000			 AREA	 |.rdata|, DATA, READONLY
|??_C@_1GC@PJFEBBLB@?$AAP?$AAI?$AAN?$AA_?$AAI?$AAO?$AAC?$AAo?$AAn?$AAt?$AAr?$AAo?$AAl?$AA?$CI?$AA?$CF?$AA0?$AA8?$AAx?$AA?$CJ?$AA?3?$AA?5?$AAU?$AAn?$AAs?$AAu?$AAp?$AAp?$AAo?$AAr?$AAt?$AAe?$AAd@| DCB "P"
	DCB	0x0, "I", 0x0, "N", 0x0, "_", 0x0, "I", 0x0, "O", 0x0, "C"
	DCB	0x0, "o", 0x0, "n", 0x0, "t", 0x0, "r", 0x0, "o", 0x0, "l"
	DCB	0x0, "(", 0x0, "%", 0x0, "0", 0x0, "8", 0x0, "x", 0x0, ")"
	DCB	0x0, ":", 0x0, " ", 0x0, "U", 0x0, "n", 0x0, "s", 0x0, "u"
	DCB	0x0, "p", 0x0, "p", 0x0, "o", 0x0, "r", 0x0, "t", 0x0, "e"
	DCB	0x0, "d", 0x0, " ", 0x0, "I", 0x0, "O", 0x0, "C", 0x0, "T"
	DCB	0x0, "L", 0x0, " ", 0x0, "c", 0x0, "o", 0x0, "d", 0x0, "e"
	DCB	0x0, " ", 0x0, "%", 0x0, "u", 0x0, 0xd, 0x0, 0xa, 0x0, 0x0
	DCB	0x0					; `string'

  00000			 AREA	 |.rdata|, DATA, READONLY
|??_C@_1LC@HMANPLBM@?$AAP?$AAI?$AAN?$AA_?$AAI?$AAO?$AAC?$AAo?$AAn?$AAt?$AAr?$AAo?$AAl?$AA?$CI?$AA?$CF?$AA0?$AA8?$AAx?$AA?$CJ?$AA?3?$AA?5?$AAI?$AAO?$AAC?$AAT?$AAL?$AA?3?$AA0?$AAx?$AA?$CF?$AAx?$AA?0@| DCB "P"
	DCB	0x0, "I", 0x0, "N", 0x0, "_", 0x0, "I", 0x0, "O", 0x0, "C"
	DCB	0x0, "o", 0x0, "n", 0x0, "t", 0x0, "r", 0x0, "o", 0x0, "l"
	DCB	0x0, "(", 0x0, "%", 0x0, "0", 0x0, "8", 0x0, "x", 0x0, ")"
	DCB	0x0, ":", 0x0, " ", 0x0, "I", 0x0, "O", 0x0, "C", 0x0, "T"
	DCB	0x0, "L", 0x0, ":", 0x0, "0", 0x0, "x", 0x0, "%", 0x0, "x"
	DCB	0x0, ",", 0x0, " ", 0x0, "I", 0x0, "n", 0x0, "B", 0x0, "u"
	DCB	0x0, "f", 0x0, ":", 0x0, "0", 0x0, "x", 0x0, "%", 0x0, "x"
	DCB	0x0, ",", 0x0, " ", 0x0, "I", 0x0, "n", 0x0, "B", 0x0, "u"
	DCB	0x0, "f", 0x0, "L", 0x0, "e", 0x0, "n", 0x0, ":", 0x0, "%"
	DCB	0x0, "d", 0x0, ",", 0x0, " ", 0x0, "O", 0x0, "u", 0x0, "t"
	DCB	0x0, "B", 0x0, "u", 0x0, "f", 0x0, ":", 0x0, "0", 0x0, "x"
	DCB	0x0, "%", 0x0, "x", 0x0, ",", 0x0, " ", 0x0, "O", 0x0, "u"
	DCB	0x0, "t", 0x0, "B", 0x0, "u", 0x0, "f", 0x0, "L", 0x0, "e"
	DCB	0x0, "n", 0x0, ":", 0x0, "0", 0x0, "x", 0x0, "%", 0x0, "x"
	DCB	0x0, ")", 0x0, 0xd, 0x0, 0xa, 0x0, 0x0, 0x0 ; `string'
; Function compile flags: /Ogspy
; File c:\wince600\platform\evm_omap3530\src\drivers\camera\mdd\pindriver.cpp

  00000			 AREA	 |.text|, CODE, ARM

  00000	00000000	 DCD         |__C_specific_handler|
  00004	00000000	 DCD         |$T34817|

  00008		 |PIN_IOControl| PROC

; 116  : {

  00008		 |$LN95@PIN_IOCont|
  00008	e1a0c00d	 mov         r12, sp
  0000c	e92d000f	 stmdb       sp!, {r0 - r3}
  00010	e92d5ff0	 stmdb       sp!, {r4 - r12, lr}
  00014	e28db028	 add         r11, sp, #0x28
  00018	e24dd058	 sub         sp, sp, #0x58
  0001c		 |$LN93@PIN_IOCont|
  0001c	e1a0a003	 mov         r10, r3
  00020	e1a09002	 mov         r9, r2
  00024	e1a08001	 mov         r8, r1
  00028	e1a06000	 mov         r6, r0
  0002c	e58b6000	 str         r6, [r11]

; 117  :     DEBUGMSG(ZONE_FUNCTION, ( _T("PIN_IOControl(%08x): IOCTL:0x%x, InBuf:0x%x, InBufLen:%d, OutBuf:0x%x, OutBufLen:0x%x)\r\n"), dwContext, Ioctl, pInBufUnmapped, InBufLen, pOutBufUnmapped, OutBufLen ) );

  00030	e59f73e8	 ldr         r7, [pc, #0x3E8]
  00034	e5975440	 ldr         r5, [r7, #0x440]
  00038	e3150008	 tst         r5, #8
  0003c	0a00000a	 beq         |$LN90@PIN_IOCont|
  00040	e59b3014	 ldr         r3, [r11, #0x14]
  00044	e59b2010	 ldr         r2, [r11, #0x10]
  00048	e59f0404	 ldr         r0, [pc, #0x404]
  0004c	e58d3008	 str         r3, [sp, #8]
  00050	e58d2004	 str         r2, [sp, #4]
  00054	e1a03009	 mov         r3, r9
  00058	e1a02008	 mov         r2, r8
  0005c	e1a01006	 mov         r1, r6
  00060	e58da000	 str         r10, [sp]
  00064	eb000000	 bl          NKDbgPrintfW
  00068	e5975440	 ldr         r5, [r7, #0x440]
  0006c		 |$LN90@PIN_IOCont|
  0006c	e3a0382f	 mov         r3, #0x2F, 16

; 118  : 
; 119  :     DWORD      dwErr      = ERROR_INVALID_PARAMETER;
; 120  :     PPINDEVICE pPinDevice = reinterpret_cast<PPINDEVICE>( dwContext );
; 121  :     UCHAR * pInBuf        = NULL;
; 122  :     UCHAR * pOutBuf       = NULL;
; 123  : 
; 124  :     pInBuf = pInBufUnmapped;    
; 125  : 
; 126  :     pOutBuf = pOutBufUnmapped;
; 127  :        
; 128  :     switch ( Ioctl )

  00070	e3833003	 orr         r3, r3, #3
  00074	e3a04057	 mov         r4, #0x57
  00078	e1580003	 cmp         r8, r3
  0007c	e50b4074	 str         r4, [r11, #-0x74]
  00080	0a00008c	 beq         |$LN23@PIN_IOCont|
  00084	e3a0382f	 mov         r3, #0x2F, 16
  00088	e383301f	 orr         r3, r3, #0x1F
  0008c	e1580003	 cmp         r8, r3
  00090	0a000039	 beq         |$LN11@PIN_IOCont|
  00094	e3a039bd	 mov         r3, #0xBD, 18
  00098	e383301f	 orr         r3, r3, #0x1F
  0009c	e1580003	 cmp         r8, r3
  000a0	0a000006	 beq         |$LN16@PIN_IOCont|

; 235  :         }
; 236  : 
; 237  :         break;
; 238  :     
; 239  :     default:
; 240  :         DEBUGMSG( ZONE_IOCTL|ZONE_ERROR, ( _T("PIN_IOControl(%08x): Unsupported IOCTL code %u\r\n"), dwContext, Ioctl ) );

  000a4	e3150011	 tst         r5, #0x11
  000a8	159f03a0	 ldrne       r0, [pc, #0x3A0]
  000ac	11a02008	 movne       r2, r8
  000b0	11a01006	 movne       r1, r6
  000b4	1b000000	 blne        NKDbgPrintfW

; 241  :         dwErr = ERROR_NOT_SUPPORTED;

  000b8	e3a04032	 mov         r4, #0x32

; 242  :         break;

  000bc	ea0000bc	 b           |$LN61@PIN_IOCont|
  000c0		 |$LN16@PIN_IOCont|

; 161  :         }
; 162  : 
; 163  :         break;
; 164  : 
; 165  : 
; 166  :     case IOCTL_CS_BUFFERS:
; 167  :         DEBUGMSG( ZONE_IOCTL, ( _T("PIN_IOControl(%08x): IOCTL_CS_BUFFERS\r\n"), dwContext ) );

  000c0	e3150010	 tst         r5, #0x10
  000c4	0a000003	 beq         |$LN34@PIN_IOCont|
  000c8	e59f037c	 ldr         r0, [pc, #0x37C]
  000cc	e1a01006	 mov         r1, r6
  000d0	eb000000	 bl          NKDbgPrintfW
  000d4	e5975440	 ldr         r5, [r7, #0x440]
  000d8		 |$LN34@PIN_IOCont|
  000d8		 |$LN66@PIN_IOCont|

; 168  : 
; 169  :         __try
; 170  :         {
; 171  :             CSBUFFER_INFO  csBufferInfo;
; 172  : 
; 173  :             if( ( NULL == pInBuf ) ||
; 174  :                 ( InBufLen  < sizeof( CSBUFFER_INFO )) ||
; 175  :                 ( !CeSafeCopyMemory( &csBufferInfo, pInBuf, sizeof( csBufferInfo ))))

  000d8	e3590000	 cmp         r9, #0
  000dc	0a000008	 beq         |$LN13@PIN_IOCont|
  000e0	e35a0008	 cmp         r10, #8
  000e4	3a000006	 bcc         |$LN13@PIN_IOCont|
  000e8	e3a02008	 mov         r2, #8
  000ec	e1a01009	 mov         r1, r9
  000f0	e24b0070	 sub         r0, r11, #0x70
  000f4	eb000000	 bl          CeSafeCopyMemory
  000f8	e3500000	 cmp         r0, #0
  000fc	1a00000a	 bne         |$LN14@PIN_IOCont|
  00100	e5975440	 ldr         r5, [r7, #0x440]
  00104		 |$LN13@PIN_IOCont|

; 176  :             {
; 177  :                 if( pdwBytesTransferred )

  00104	e59b3018	 ldr         r3, [r11, #0x18]
  00108	e3530000	 cmp         r3, #0

; 178  :                 {
; 179  :                     *pdwBytesTransferred = 0;

  0010c	13a02000	 movne       r2, #0
  00110	15832000	 strne       r2, [r3]
  00114	15975440	 ldrne       r5, [r7, #0x440]

; 180  :                 }
; 181  : 
; 182  :                 DEBUGMSG( ZONE_IOCTL|ZONE_ERROR, ( _T("PIN_IOControl(%08x): IOCTL_CS_BUFFERS. Invalid parameters\r\n"), dwContext ) );

  00118	e3150011	 tst         r5, #0x11
  0011c	159f0324	 ldrne       r0, [pc, #0x324]
  00120	11a01006	 movne       r1, r6
  00124	1b000000	 blne        NKDbgPrintfW

; 183  :                 break;

  00128	ea0000a1	 b           |$LN61@PIN_IOCont|
  0012c		 |$LN14@PIN_IOCont|

; 184  :             }
; 185  : 
; 186  :             dwErr = pPinDevice->PinHandleBufferRequest( csBufferInfo, pOutBuf, OutBufLen, pdwBytesTransferred );

  0012c	e59b0018	 ldr         r0, [r11, #0x18]
  00130	e51b1070	 ldr         r1, [r11, #-0x70]
  00134	e51b206c	 ldr         r2, [r11, #-0x6C]
  00138	e58d0004	 str         r0, [sp, #4]
  0013c	e59b3010	 ldr         r3, [r11, #0x10]
  00140	e1a00006	 mov         r0, r6
  00144	e59b7014	 ldr         r7, [r11, #0x14]
  00148	e58d7000	 str         r7, [sp]
  0014c	eb000000	 bl          |?PinHandleBufferRequest@CPinDevice@@QAAKU_tagCSBUFFER_Info@@PAEKPAK@Z|
  00150	e1a04000	 mov         r4, r0
  00154	e50b4074	 str         r4, [r11, #-0x74]
  00158		 |$LN67@PIN_IOCont|

; 187  :         }

  00158	ea000095	 b           |$LN61@PIN_IOCont|
  0015c		 |$LN63@PIN_IOCont|

; 189  :         {
; 190  :             DEBUGMSG( ZONE_IOCTL, ( _T("PIN_IOControl(%08x):Exception in IOCTL_CS_BUFFERS"), dwContext ) );

  0015c	e59f32bc	 ldr         r3, [pc, #0x2BC]
  00160	e5933440	 ldr         r3, [r3, #0x440]
  00164	e3130010	 tst         r3, #0x10
  00168	159b1000	 ldrne       r1, [r11]
  0016c	159f02d0	 ldrne       r0, [pc, #0x2D0]
  00170	1b000000	 blne        NKDbgPrintfW
  00174	e51b4074	 ldr         r4, [r11, #-0x74]
  00178	ea00008d	 b           |$LN61@PIN_IOCont|
  0017c		 |$LN11@PIN_IOCont|
  0017c		 |$LN73@PIN_IOCont|

; 191  :         }
; 192  : 
; 193  :         break;
; 194  : 
; 195  : 
; 196  :     case IOCTL_STREAM_INSTANTIATE:
; 197  :         __try 
; 198  :         {
; 199  :             DEBUGMSG( ZONE_IOCTL, ( _T("PIN_IOControl(%08x): IOCTL_STREAM_INSTANTIATE\r\n"), dwContext ) );

  0017c	e3150010	 tst         r5, #0x10
  00180	0a000003	 beq         |$LN40@PIN_IOCont|
  00184	e59f02b4	 ldr         r0, [pc, #0x2B4]
  00188	e1a01006	 mov         r1, r6
  0018c	eb000000	 bl          NKDbgPrintfW
  00190	e5975440	 ldr         r5, [r7, #0x440]
  00194		 |$LN40@PIN_IOCont|

; 200  : 
; 201  :             CSPROPERTY_STREAMEX_S csPropStreamEx = {0};

  00194	e3a03000	 mov         r3, #0
  00198	e50b3050	 str         r3, [r11, #-0x50]
  0019c	e3a02024	 mov         r2, #0x24
  001a0	e3a01000	 mov         r1, #0
  001a4	e24b004c	 sub         r0, r11, #0x4C
  001a8	eb000000	 bl          memset

; 202  :             
; 203  :             if ( ( NULL == pInBuf )
; 204  :                  || ( InBufLen < sizeof ( CSPROPERTY_STREAMEX_S ) )
; 205  :                  || ( NULL == pdwBytesTransferred ) )

  001ac	e3590000	 cmp         r9, #0
  001b0	0a000004	 beq         |$LN8@PIN_IOCont|
  001b4	e35a0028	 cmp         r10, #0x28
  001b8	3a000002	 bcc         |$LN8@PIN_IOCont|
  001bc	e59b8018	 ldr         r8, [r11, #0x18]
  001c0	e3580000	 cmp         r8, #0
  001c4	1a000004	 bne         |$LN9@PIN_IOCont|
  001c8		 |$LN8@PIN_IOCont|

; 206  :             {
; 207  :                 DEBUGMSG( ZONE_IOCTL|ZONE_ERROR, ( _T("PIN_IOControl(%08x): IOCTL_STREAM_INSTANTIATE. Insufficient buffer\r\n"), dwContext ) );

  001c8	e3150011	 tst         r5, #0x11
  001cc	159f0268	 ldrne       r0, [pc, #0x268]
  001d0	11a01006	 movne       r1, r6
  001d4	1b000000	 blne        NKDbgPrintfW

; 208  :                 break;

  001d8	ea000075	 b           |$LN61@PIN_IOCont|
  001dc		 |$LN9@PIN_IOCont|

; 209  :             }
; 210  :             
; 211  :             CeSafeCopyMemory( &csPropStreamEx, pInBuf, sizeof( CSPROPERTY_STREAMEX_S ));

  001dc	e3a02028	 mov         r2, #0x28
  001e0	e1a01009	 mov         r1, r9
  001e4	e24b0050	 sub         r0, r11, #0x50
  001e8	eb000000	 bl          CeSafeCopyMemory

; 212  : 
; 213  :             if ( TRUE == IsEqualGUID( csPropStreamEx.CsPin.Property.Set, CSPROPSETID_StreamEx ) )

  001ec	e59f1244	 ldr         r1, [pc, #0x244]
  001f0	e3a02010	 mov         r2, #0x10
  001f4	e24b0050	 sub         r0, r11, #0x50
  001f8	eb000000	 bl          memcmp
  001fc	e3500000	 cmp         r0, #0
  00200	03a03001	 moveq       r3, #1
  00204	13a03000	 movne       r3, #0
  00208	e3530001	 cmp         r3, #1
  0020c	1a000012	 bne         |$LN7@PIN_IOCont|

; 214  :             {
; 215  :                 switch ( csPropStreamEx.CsPin.Property.Id )

  00210	e51b3040	 ldr         r3, [r11, #-0x40]
  00214	e3530000	 cmp         r3, #0
  00218	0a000006	 beq         |$LN4@PIN_IOCont|

; 219  :                     break;
; 220  : 
; 221  :                 default:
; 222  :                     DEBUGMSG( ZONE_IOCTL|ZONE_ERROR, ( _T("PIN_IOControl(%08x): Invalid Request\r\n"), dwContext ) );

  0021c	e5973440	 ldr         r3, [r7, #0x440]
  00220	e3130011	 tst         r3, #0x11
  00224	0a00001a	 beq         |$LN74@PIN_IOCont|
  00228	e59f0204	 ldr         r0, [pc, #0x204]
  0022c	e1a01006	 mov         r1, r6
  00230	eb000000	 bl          NKDbgPrintfW

; 223  :                     break;

  00234	ea000016	 b           |$LN74@PIN_IOCont|
  00238		 |$LN4@PIN_IOCont|

; 216  :                 {
; 217  :                 case CSPROPERTY_STREAMEX_INIT:
; 218  :                     dwErr = pPinDevice->StreamInstantiate( &csPropStreamEx, pOutBuf, OutBufLen, pdwBytesTransferred );

  00238	e59b7014	 ldr         r7, [r11, #0x14]
  0023c	e1a03007	 mov         r3, r7
  00240	e59b2010	 ldr         r2, [r11, #0x10]
  00244	e24b1050	 sub         r1, r11, #0x50
  00248	e1a00006	 mov         r0, r6
  0024c	e58d8000	 str         r8, [sp]
  00250	eb000000	 bl          |?StreamInstantiate@CPinDevice@@QAAKPAU_tagCSPROPERTY_StreamEx@@PAEKPAK@Z|
  00254	e1a04000	 mov         r4, r0

; 224  :                 }
; 225  :             }
; 226  :             else

  00258	ea00000c	 b           |$LN92@PIN_IOCont|
  0025c		 |$LN7@PIN_IOCont|

; 227  :             {
; 228  :                 DEBUGMSG( ZONE_IOCTL, ( _T("PIN_IOControl(%08x): Unsupported PropertySet Request for IOCTL_STREAM_INSTANTIATE%u\r\n"), dwContext, csPropStreamEx.CsPin.Property.Set ) );

  0025c	e5973440	 ldr         r3, [r7, #0x440]
  00260	e3130010	 tst         r3, #0x10
  00264	0a000008	 beq         |$LN46@PIN_IOCont|
  00268	e51b1048	 ldr         r1, [r11, #-0x48]
  0026c	e51be044	 ldr         lr, [r11, #-0x44]
  00270	e51b2050	 ldr         r2, [r11, #-0x50]
  00274	e51b304c	 ldr         r3, [r11, #-0x4C]
  00278	e59f01b0	 ldr         r0, [pc, #0x1B0]
  0027c	e58d1000	 str         r1, [sp]
  00280	e58de004	 str         lr, [sp, #4]
  00284	e1a01006	 mov         r1, r6
  00288	eb000000	 bl          NKDbgPrintfW
  0028c		 |$LN46@PIN_IOCont|

; 229  :                 dwErr = ERROR_NOT_SUPPORTED;

  0028c	e3a04032	 mov         r4, #0x32
  00290		 |$LN92@PIN_IOCont|
  00290	e50b4074	 str         r4, [r11, #-0x74]
  00294		 |$LN74@PIN_IOCont|

; 230  :             }
; 231  :         }

  00294	ea000046	 b           |$LN61@PIN_IOCont|
  00298		 |$LN70@PIN_IOCont|

; 233  :         {
; 234  :             DEBUGMSG( ZONE_IOCTL|ZONE_ERROR, ( _T("PIN_IOControl(%08x):Exception in IOCTL_STREAM_INSTANTIATE"), dwContext ) );

  00298	e59f3180	 ldr         r3, [pc, #0x180]
  0029c	e5933440	 ldr         r3, [r3, #0x440]
  002a0	e3130011	 tst         r3, #0x11
  002a4	159b1000	 ldrne       r1, [r11]
  002a8	159f017c	 ldrne       r0, [pc, #0x17C]
  002ac	1b000000	 blne        NKDbgPrintfW
  002b0	e51b4074	 ldr         r4, [r11, #-0x74]
  002b4	ea00003e	 b           |$LN61@PIN_IOCont|
  002b8		 |$LN23@PIN_IOCont|

; 129  :     {
; 130  :     case IOCTL_CS_PROPERTY:
; 131  :         DEBUGMSG( ZONE_IOCTL, ( _T("PIN_IOControl(%08x): IOCTL_CS_PROPERTY\r\n"), dwContext ) );

  002b8	e3150010	 tst         r5, #0x10
  002bc	159f0164	 ldrne       r0, [pc, #0x164]
  002c0	11a01006	 movne       r1, r6
  002c4	1b000000	 blne        NKDbgPrintfW
  002c8		 |$LN59@PIN_IOCont|

; 132  : 
; 133  :         __try 
; 134  :         {
; 135  :             CSPROPERTY csProp = {0};

  002c8	e3a03000	 mov         r3, #0
  002cc	e50b3068	 str         r3, [r11, #-0x68]
  002d0	e3a02014	 mov         r2, #0x14
  002d4	e3a01000	 mov         r1, #0
  002d8	e24b0064	 sub         r0, r11, #0x64
  002dc	eb000000	 bl          memset

; 136  : 
; 137  :             if ( ( NULL == pInBuf )
; 138  :                  || ( InBufLen < sizeof ( CSPROPERTY ) )
; 139  :                  || ( NULL == pdwBytesTransferred ) )

  002e0	e3590000	 cmp         r9, #0
  002e4	0a000004	 beq         |$LN20@PIN_IOCont|
  002e8	e35a0018	 cmp         r10, #0x18
  002ec	3a000002	 bcc         |$LN20@PIN_IOCont|
  002f0	e59b5018	 ldr         r5, [r11, #0x18]
  002f4	e3550000	 cmp         r5, #0
  002f8	1a000000	 bne         |$LN21@PIN_IOCont|
  002fc		 |$LN20@PIN_IOCont|

; 140  :             {
; 141  :                 break;

  002fc	ea00002c	 b           |$LN61@PIN_IOCont|
  00300		 |$LN21@PIN_IOCont|

; 142  :             }
; 143  :             
; 144  :             if( !CeSafeCopyMemory( &csProp, pInBuf, sizeof( CSPROPERTY )))

  00300	e3a02018	 mov         r2, #0x18
  00304	e1a01009	 mov         r1, r9
  00308	e24b0068	 sub         r0, r11, #0x68
  0030c	eb000000	 bl          CeSafeCopyMemory
  00310	e3500000	 cmp         r0, #0
  00314	1a000000	 bne         |$LN19@PIN_IOCont|

; 145  :             {
; 146  :                 break;

  00318	ea000025	 b           |$LN61@PIN_IOCont|
  0031c		 |$LN19@PIN_IOCont|

; 147  :             }
; 148  :             
; 149  :             dwErr = pPinDevice->PinHandleCustomRequests( pInBuf,InBufLen, pOutBuf, OutBufLen, pdwBytesTransferred );

  0031c	e59b8010	 ldr         r8, [r11, #0x10]
  00320	e1a03008	 mov         r3, r8
  00324	e1a0200a	 mov         r2, r10
  00328	e1a01009	 mov         r1, r9
  0032c	e1a00006	 mov         r0, r6
  00330	e58d5004	 str         r5, [sp, #4]
  00334	e59b7014	 ldr         r7, [r11, #0x14]
  00338	e58d7000	 str         r7, [sp]
  0033c	eb000000	 bl          |?PinHandleCustomRequests@CPinDevice@@QAAKPAEK0KPAK@Z|
  00340	e1a04000	 mov         r4, r0
  00344	e50b4074	 str         r4, [r11, #-0x74]

; 150  :             if ( ERROR_NOT_SUPPORTED == dwErr )

  00348	e3540032	 cmp         r4, #0x32
  0034c	1a000010	 bne         |$LN60@PIN_IOCont|

; 151  :             {
; 152  :                 if ( TRUE == IsEqualGUID( csProp.Set, CSPROPSETID_Connection ) )

  00350	e59f10cc	 ldr         r1, [pc, #0xCC]
  00354	e3a02010	 mov         r2, #0x10
  00358	e24b0068	 sub         r0, r11, #0x68
  0035c	eb000000	 bl          memcmp
  00360	e3500000	 cmp         r0, #0
  00364	03a03001	 moveq       r3, #1
  00368	13a03000	 movne       r3, #0
  0036c	e3530001	 cmp         r3, #1
  00370	1a000007	 bne         |$LN60@PIN_IOCont|

; 153  :                 {   
; 154  :                     dwErr = pPinDevice->PinHandleConnectionRequests( &csProp, pOutBuf, OutBufLen, pdwBytesTransferred );

  00374	e1a03007	 mov         r3, r7
  00378	e1a02008	 mov         r2, r8
  0037c	e24b1068	 sub         r1, r11, #0x68
  00380	e1a00006	 mov         r0, r6
  00384	e58d5000	 str         r5, [sp]
  00388	eb000000	 bl          |?PinHandleConnectionRequests@CPinDevice@@QAAKPAUCSIDENTIFIER@@PAEKPAK@Z|
  0038c	e1a04000	 mov         r4, r0
  00390	e50b4074	 str         r4, [r11, #-0x74]
  00394		 |$LN60@PIN_IOCont|

; 155  :                 }
; 156  :             }
; 157  :         }

  00394	ea000006	 b           |$LN61@PIN_IOCont|
  00398		 |$LN56@PIN_IOCont|

; 159  :         {
; 160  :             DEBUGMSG( ZONE_IOCTL, ( _T("PIN_IOControl(%08x):Exception in IOCTL_CS_PROPERTY"), dwContext ) );

  00398	e59f3080	 ldr         r3, [pc, #0x80]
  0039c	e5933440	 ldr         r3, [r3, #0x440]
  003a0	e3130010	 tst         r3, #0x10
  003a4	159b1000	 ldrne       r1, [r11]
  003a8	159f006c	 ldrne       r0, [pc, #0x6C]
  003ac	1b000000	 blne        NKDbgPrintfW
  003b0	e51b4074	 ldr         r4, [r11, #-0x74]
  003b4		 |$LN61@PIN_IOCont|

; 243  :     }
; 244  : 
; 245  :     // pass back appropriate response codes
; 246  :     SetLastError(dwErr);

  003b4	e1a00004	 mov         r0, r4
  003b8	eb000000	 bl          SetLastError

; 247  :     return ( ( dwErr == ERROR_SUCCESS ) ? TRUE : FALSE );

  003bc	e3540000	 cmp         r4, #0
  003c0	03a00001	 moveq       r0, #1
  003c4	0a000002	 beq         |$LN26@PIN_IOCont|
  003c8	e3a00000	 mov         r0, #0
  003cc	ea000000	 b           |$LN26@PIN_IOCont|
  003d0		 |$LN91@PIN_IOCont|
  003d0	e51b0070	 ldr         r0, [r11, #-0x70]
  003d4		 |$LN26@PIN_IOCont|

; 248  : }

  003d4	e24bd028	 sub         sp, r11, #0x28
  003d8	e89d6ff0	 ldmia       sp, {r4 - r11, sp, lr}
  003dc	e12fff1e	 bx          lr

			 ENDP  ; |PIN_IOControl|

  003e0		 |$LN55@PIN_IOCont|
  003e0		 |$LN94@PIN_IOCont|

; 158  :         __except ( EXCEPTION_EXECUTE_HANDLER )

  003e0	e52de004	 str         lr, [sp, #-4]!
  003e4	e24dd00c	 sub         sp, sp, #0xC
  003e8		 |$LN58@PIN_IOCont|
  003e8		 |$LN99@PIN_IOCont|
  003e8	e3a00001	 mov         r0, #1
  003ec		 |$LN57@PIN_IOCont|
  003ec	e28dd00c	 add         sp, sp, #0xC
  003f0	e49df004	 ldr         pc, [sp], #4
  003f4		 |$LN100@PIN_IOCont|
  003f4		 |$LN69@PIN_IOCont|
  003f4		 |$LN96@PIN_IOCont|

; 232  :         __except ( EXCEPTION_EXECUTE_HANDLER )

  003f4	e52de004	 str         lr, [sp, #-4]!
  003f8	e24dd00c	 sub         sp, sp, #0xC
  003fc		 |$LN72@PIN_IOCont|
  003fc		 |$LN101@PIN_IOCont|
  003fc	e3a00001	 mov         r0, #1
  00400		 |$LN71@PIN_IOCont|
  00400	e28dd00c	 add         sp, sp, #0xC
  00404	e49df004	 ldr         pc, [sp], #4
  00408		 |$LN102@PIN_IOCont|
  00408		 |$LN62@PIN_IOCont|
  00408		 |$LN97@PIN_IOCont|

; 188  :         __except ( EXCEPTION_EXECUTE_HANDLER )

  00408	e52de004	 str         lr, [sp, #-4]!
  0040c	e24dd00c	 sub         sp, sp, #0xC
  00410		 |$LN65@PIN_IOCont|
  00410		 |$LN103@PIN_IOCont|
  00410	e3a00001	 mov         r0, #1
  00414		 |$LN64@PIN_IOCont|
  00414	e28dd00c	 add         sp, sp, #0xC
  00418	e49df004	 ldr         pc, [sp], #4
  0041c		 |$LN105@PIN_IOCont|
  0041c		 |$LN106@PIN_IOCont|
  0041c	00000000	 DCD         |??_C@_1GG@EEDEMIKD@?$AAP?$AAI?$AAN?$AA_?$AAI?$AAO?$AAC?$AAo?$AAn?$AAt?$AAr?$AAo?$AAl?$AA?$CI?$AA?$CF?$AA0?$AA8?$AAx?$AA?$CJ?$AA?3?$AAE?$AAx?$AAc?$AAe?$AAp?$AAt?$AAi?$AAo?$AAn?$AA?5?$AAi?$AAn@|
  00420		 |$LN107@PIN_IOCont|
  00420	00000000	 DCD         |dpCurSettings|
  00424		 |$LN108@PIN_IOCont|
  00424	00000000	 DCD         |_GUID_1d58c920_ac9b_11cf_a5d6_28db04c10000|
  00428		 |$LN109@PIN_IOCont|
  00428	00000000	 DCD         |??_C@_1FC@CDELHBAP@?$AAP?$AAI?$AAN?$AA_?$AAI?$AAO?$AAC?$AAo?$AAn?$AAt?$AAr?$AAo?$AAl?$AA?$CI?$AA?$CF?$AA0?$AA8?$AAx?$AA?$CJ?$AA?3?$AA?5?$AAI?$AAO?$AAC?$AAT?$AAL?$AA_?$AAC?$AAS?$AA_?$AAP?$AAR@|
  0042c		 |$LN110@PIN_IOCont|
  0042c	00000000	 DCD         |??_C@_1HE@OPPGKAKI@?$AAP?$AAI?$AAN?$AA_?$AAI?$AAO?$AAC?$AAo?$AAn?$AAt?$AAr?$AAo?$AAl?$AA?$CI?$AA?$CF?$AA0?$AA8?$AAx?$AA?$CJ?$AA?3?$AAE?$AAx?$AAc?$AAe?$AAp?$AAt?$AAi?$AAo?$AAn?$AA?5?$AAi?$AAn@|
  00430		 |$LN111@PIN_IOCont|
  00430	00000000	 DCD         |??_C@_1KM@EKCOPLED@?$AAP?$AAI?$AAN?$AA_?$AAI?$AAO?$AAC?$AAo?$AAn?$AAt?$AAr?$AAo?$AAl?$AA?$CI?$AA?$CF?$AA0?$AA8?$AAx?$AA?$CJ?$AA?3?$AA?5?$AAU?$AAn?$AAs?$AAu?$AAp?$AAp?$AAo?$AAr?$AAt?$AAe?$AAd@|
  00434		 |$LN112@PIN_IOCont|
  00434	00000000	 DCD         |??_C@_1EO@HBLJJDEA@?$AAP?$AAI?$AAN?$AA_?$AAI?$AAO?$AAC?$AAo?$AAn?$AAt?$AAr?$AAo?$AAl?$AA?$CI?$AA?$CF?$AA0?$AA8?$AAx?$AA?$CJ?$AA?3?$AA?5?$AAI?$AAn?$AAv?$AAa?$AAl?$AAi?$AAd?$AA?5?$AAR?$AAe?$AAq@|
  00438		 |$LN113@PIN_IOCont|
  00438	00000000	 DCD         |_GUID_443a0706_9554_41f4_bb70_ecb5d210fb3b|
  0043c		 |$LN114@PIN_IOCont|
  0043c	00000000	 DCD         |??_C@_1IK@EONLEHAJ@?$AAP?$AAI?$AAN?$AA_?$AAI?$AAO?$AAC?$AAo?$AAn?$AAt?$AAr?$AAo?$AAl?$AA?$CI?$AA?$CF?$AA0?$AA8?$AAx?$AA?$CJ?$AA?3?$AA?5?$AAI?$AAO?$AAC?$AAT?$AAL?$AA_?$AAS?$AAT?$AAR?$AAE?$AAA@|
  00440		 |$LN115@PIN_IOCont|
  00440	00000000	 DCD         |??_C@_1GA@EGKFHLDE@?$AAP?$AAI?$AAN?$AA_?$AAI?$AAO?$AAC?$AAo?$AAn?$AAt?$AAr?$AAo?$AAl?$AA?$CI?$AA?$CF?$AA0?$AA8?$AAx?$AA?$CJ?$AA?3?$AA?5?$AAI?$AAO?$AAC?$AAT?$AAL?$AA_?$AAS?$AAT?$AAR?$AAE?$AAA@|
  00444		 |$LN116@PIN_IOCont|
  00444	00000000	 DCD         |??_C@_1GE@BFNCCBEI@?$AAP?$AAI?$AAN?$AA_?$AAI?$AAO?$AAC?$AAo?$AAn?$AAt?$AAr?$AAo?$AAl?$AA?$CI?$AA?$CF?$AA0?$AA8?$AAx?$AA?$CJ?$AA?3?$AAE?$AAx?$AAc?$AAe?$AAp?$AAt?$AAi?$AAo?$AAn?$AA?5?$AAi?$AAn@|
  00448		 |$LN117@PIN_IOCont|
  00448	00000000	 DCD         |??_C@_1HI@PIIOCIL@?$AAP?$AAI?$AAN?$AA_?$AAI?$AAO?$AAC?$AAo?$AAn?$AAt?$AAr?$AAo?$AAl?$AA?$CI?$AA?$CF?$AA0?$AA8?$AAx?$AA?$CJ?$AA?3?$AA?5?$AAI?$AAO?$AAC?$AAT?$AAL?$AA_?$AAC?$AAS?$AA_?$AAB?$AAU@|
  0044c		 |$LN118@PIN_IOCont|
  0044c	00000000	 DCD         |??_C@_1FA@LGPBFBMO@?$AAP?$AAI?$AAN?$AA_?$AAI?$AAO?$AAC?$AAo?$AAn?$AAt?$AAr?$AAo?$AAl?$AA?$CI?$AA?$CF?$AA0?$AA8?$AAx?$AA?$CJ?$AA?3?$AA?5?$AAI?$AAO?$AAC?$AAT?$AAL?$AA_?$AAC?$AAS?$AA_?$AAB?$AAU@|
  00450		 |$LN119@PIN_IOCont|
  00450	00000000	 DCD         |??_C@_1GC@PJFEBBLB@?$AAP?$AAI?$AAN?$AA_?$AAI?$AAO?$AAC?$AAo?$AAn?$AAt?$AAr?$AAo?$AAl?$AA?$CI?$AA?$CF?$AA0?$AA8?$AAx?$AA?$CJ?$AA?3?$AA?5?$AAU?$AAn?$AAs?$AAu?$AAp?$AAp?$AAo?$AAr?$AAt?$AAe?$AAd@|
  00454		 |$LN120@PIN_IOCont|
  00454	00000000	 DCD         |??_C@_1LC@HMANPLBM@?$AAP?$AAI?$AAN?$AA_?$AAI?$AAO?$AAC?$AAo?$AAn?$AAt?$AAr?$AAo?$AAl?$AA?$CI?$AA?$CF?$AA0?$AA8?$AAx?$AA?$CJ?$AA?3?$AA?5?$AAI?$AAO?$AAC?$AAT?$AAL?$AA?3?$AA0?$AAx?$AA?$CF?$AAx?$AA?0@|
  00458		 |$LN104@PIN_IOCont|
  00458		 |$LN98@PIN_IOCont|
	EXPORT	|??_GCPinDevice@@QAAPAXI@Z|		; CPinDevice::`scalar deleting destructor'
	IMPORT	|??1CPinDevice@@QAA@XZ|			; CPinDevice::~CPinDevice

  00000			 AREA	 |.pdata|, PDATA
|$T34862| DCD	|$LN6@scalar|
	DCD	0x40000a01
; Function compile flags: /Ogspy

  00000			 AREA	 |.text|, CODE, ARM

  00000		 |??_GCPinDevice@@QAAPAXI@Z| PROC	; CPinDevice::`scalar deleting destructor'
  00000		 |$LN6@scalar|
  00000	e92d4030	 stmdb       sp!, {r4, r5, lr}
  00004		 |$M34859|
  00004	e1a04001	 mov         r4, r1
  00008	e1a05000	 mov         r5, r0
  0000c	eb000000	 bl          |??1CPinDevice@@QAA@XZ|
  00010	e3140001	 tst         r4, #1
  00014	11a00005	 movne       r0, r5
  00018	1b000000	 blne        |??3@YAXPAX@Z|
  0001c	e1a00005	 mov         r0, r5
  00020	e8bd4030	 ldmia       sp!, {r4, r5, lr}
  00024	e12fff1e	 bx          lr
  00028		 |$M34860|

			 ENDP  ; |??_GCPinDevice@@QAAPAXI@Z|, CPinDevice::`scalar deleting destructor'

	EXPORT	|PIN_Close|
	EXPORT	|??_C@_1CA@FAKHPEML@?$AAP?$AAI?$AAN?$AA_?$AAC?$AAl?$AAo?$AAs?$AAe?$AA?$CI?$AA?$CF?$AAx?$AA?$CJ?$AA?$AN?$AA?6?$AA?$AA@| [ DATA ] ; `string'
	IMPORT	|?CloseSubDevice@CPinDevice@@QAAKXZ|	; CPinDevice::CloseSubDevice

  00000			 AREA	 |.pdata|, PDATA
|$T34882| DCD	|$LN13@PIN_Close|
	DCD	0x40001501

  00000			 AREA	 |.rdata|, DATA, READONLY
|??_C@_1CA@FAKHPEML@?$AAP?$AAI?$AAN?$AA_?$AAC?$AAl?$AAo?$AAs?$AAe?$AA?$CI?$AA?$CF?$AAx?$AA?$CJ?$AA?$AN?$AA?6?$AA?$AA@| DCB "P"
	DCB	0x0, "I", 0x0, "N", 0x0, "_", 0x0, "C", 0x0, "l", 0x0, "o"
	DCB	0x0, "s", 0x0, "e", 0x0, "(", 0x0, "%", 0x0, "x", 0x0, ")"
	DCB	0x0, 0xd, 0x0, 0xa, 0x0, 0x0, 0x0	; `string'
; Function compile flags: /Ogspy

  00000			 AREA	 |.text|, CODE, ARM

  00000		 |PIN_Close| PROC

; 292  : {

  00000		 |$LN13@PIN_Close|
  00000	e92d4010	 stmdb       sp!, {r4, lr}
  00004		 |$M34879|
  00004	e1a04000	 mov         r4, r0

; 293  :     DEBUGMSG( ZONE_FUNCTION, ( _T("PIN_Close(%x)\r\n"), Context ) );

  00008	e59f3040	 ldr         r3, [pc, #0x40]
  0000c	e5933440	 ldr         r3, [r3, #0x440]
  00010	e3130008	 tst         r3, #8
  00014	159f0030	 ldrne       r0, [pc, #0x30]
  00018	11a01004	 movne       r1, r4
  0001c	1b000000	 blne        NKDbgPrintfW

; 294  :     
; 295  :     PPINDEVICE pPinDev = reinterpret_cast<PPINDEVICE>( Context );
; 296  :     pPinDev->CloseSubDevice( );

  00020	e1a00004	 mov         r0, r4
  00024	eb000000	 bl          |?CloseSubDevice@CPinDevice@@QAAKXZ|

; 297  :     SAFEDELETE( pPinDev );

  00028	e3540000	 cmp         r4, #0
  0002c	0a000003	 beq         |$LN6@PIN_Close|
  00030	e1a00004	 mov         r0, r4
  00034	eb000000	 bl          |??1CPinDevice@@QAA@XZ|
  00038	e1a00004	 mov         r0, r4
  0003c	eb000000	 bl          |??3@YAXPAX@Z|
  00040		 |$LN6@PIN_Close|

; 298  :     
; 299  :     return TRUE;

  00040	e3a00001	 mov         r0, #1

; 300  : }

  00044	e8bd4010	 ldmia       sp!, {r4, lr}
  00048	e12fff1e	 bx          lr
  0004c		 |$LN14@PIN_Close|
  0004c		 |$LN15@PIN_Close|
  0004c	00000000	 DCD         |??_C@_1CA@FAKHPEML@?$AAP?$AAI?$AAN?$AA_?$AAC?$AAl?$AAo?$AAs?$AAe?$AA?$CI?$AA?$CF?$AAx?$AA?$CJ?$AA?$AN?$AA?6?$AA?$AA@|
  00050		 |$LN16@PIN_Close|
  00050	00000000	 DCD         |dpCurSettings|
  00054		 |$M34880|

			 ENDP  ; |PIN_Close|

	EXPORT	|PIN_Open|
	EXPORT	|??_C@_1GO@CLAODGBF@?$AAP?$AAI?$AAN?$AA_?$AAO?$AAp?$AAe?$AAn?$AA?$CI?$AA?$CF?$AAx?$AA?$CJ?$AA?3?$AA?5?$AAN?$AAo?$AAt?$AA?5?$AAe?$AAn?$AAo?$AAu?$AAg?$AAh?$AA?5?$AAm?$AAe?$AAm?$AAo?$AAr?$AAy?$AA?5@| [ DATA ] ; `string'
	EXPORT	|??_C@_1DG@LIBEJGJH@?$AAP?$AAI?$AAN?$AA_?$AAO?$AAp?$AAe?$AAn?$AA?$CI?$AA?$CF?$AAx?$AA?0?$AA?5?$AA0?$AAx?$AA?$CF?$AAx?$AA?0?$AA?5?$AA0?$AAx?$AA?$CF?$AAx?$AA?$CJ?$AA?$AN?$AA?6?$AA?$AA@| [ DATA ] ; `string'
	IMPORT	|?InitializeSubDevice@CPinDevice@@QAA_NPAVCCameraDevice@@@Z| ; CPinDevice::InitializeSubDevice
	IMPORT	|??0CPinDevice@@QAA@XZ|			; CPinDevice::CPinDevice

  00000			 AREA	 |.pdata|, PDATA
|$T34916| DCD	|$LN22@PIN_Open|
	DCD	0x40003101

  00000			 AREA	 |.rdata|, DATA, READONLY
|??_C@_1GO@CLAODGBF@?$AAP?$AAI?$AAN?$AA_?$AAO?$AAp?$AAe?$AAn?$AA?$CI?$AA?$CF?$AAx?$AA?$CJ?$AA?3?$AA?5?$AAN?$AAo?$AAt?$AA?5?$AAe?$AAn?$AAo?$AAu?$AAg?$AAh?$AA?5?$AAm?$AAe?$AAm?$AAo?$AAr?$AAy?$AA?5@| DCB "P"
	DCB	0x0, "I", 0x0, "N", 0x0, "_", 0x0, "O", 0x0, "p", 0x0, "e"
	DCB	0x0, "n", 0x0, "(", 0x0, "%", 0x0, "x", 0x0, ")", 0x0, ":"
	DCB	0x0, " ", 0x0, "N", 0x0, "o", 0x0, "t", 0x0, " ", 0x0, "e"
	DCB	0x0, "n", 0x0, "o", 0x0, "u", 0x0, "g", 0x0, "h", 0x0, " "
	DCB	0x0, "m", 0x0, "e", 0x0, "m", 0x0, "o", 0x0, "r", 0x0, "y"
	DCB	0x0, " ", 0x0, "t", 0x0, "o", 0x0, " ", 0x0, "c", 0x0, "r"
	DCB	0x0, "e", 0x0, "a", 0x0, "t", 0x0, "e", 0x0, " ", 0x0, "p"
	DCB	0x0, "i", 0x0, "n", 0x0, " ", 0x0, "d", 0x0, "e", 0x0, "v"
	DCB	0x0, "i", 0x0, "c", 0x0, "e", 0x0, 0xd, 0x0, 0xa, 0x0, 0x0
	DCB	0x0					; `string'

  00000			 AREA	 |.rdata|, DATA, READONLY
|??_C@_1DG@LIBEJGJH@?$AAP?$AAI?$AAN?$AA_?$AAO?$AAp?$AAe?$AAn?$AA?$CI?$AA?$CF?$AAx?$AA?0?$AA?5?$AA0?$AAx?$AA?$CF?$AAx?$AA?0?$AA?5?$AA0?$AAx?$AA?$CF?$AAx?$AA?$CJ?$AA?$AN?$AA?6?$AA?$AA@| DCB "P"
	DCB	0x0, "I", 0x0, "N", 0x0, "_", 0x0, "O", 0x0, "p", 0x0, "e"
	DCB	0x0, "n", 0x0, "(", 0x0, "%", 0x0, "x", 0x0, ",", 0x0, " "
	DCB	0x0, "0", 0x0, "x", 0x0, "%", 0x0, "x", 0x0, ",", 0x0, " "
	DCB	0x0, "0", 0x0, "x", 0x0, "%", 0x0, "x", 0x0, ")", 0x0, 0xd
	DCB	0x0, 0xa, 0x0, 0x0, 0x0			; `string'
; Function compile flags: /Ogspy

  00000			 AREA	 |.text|, CODE, ARM

  00000		 |PIN_Open| PROC

; 258  : {

  00000		 |$LN22@PIN_Open|
  00000	e92d4070	 stmdb       sp!, {r4 - r6, lr}
  00004		 |$M34913|
  00004	e1a05000	 mov         r5, r0

; 259  :     DEBUGMSG( ZONE_FUNCTION, ( _T("PIN_Open(%x, 0x%x, 0x%x)\r\n"), Context, Access, ShareMode ) );

  00008	e59f60b0	 ldr         r6, [pc, #0xB0]
  0000c	e5963440	 ldr         r3, [r6, #0x440]
  00010	e3130008	 tst         r3, #8
  00014	159f00a0	 ldrne       r0, [pc, #0xA0]
  00018	11a03002	 movne       r3, r2
  0001c	11a02001	 movne       r2, r1
  00020	11a01005	 movne       r1, r5
  00024	1b000000	 blne        NKDbgPrintfW
  00028	e3a03c05	 mov         r3, #5, 24

; 260  : 
; 261  :     UNREFERENCED_PARAMETER( ShareMode );
; 262  :     UNREFERENCED_PARAMETER( Access );
; 263  :    
; 264  :     PPININITHANDLE pPinInit = reinterpret_cast<PPININITHANDLE>( Context );
; 265  : 
; 266  :     ASSERT( NULL != pPinInit );
; 267  :     PPINDEVICE pPinDevice = new PINDEVICE;

  0002c	e38300a8	 orr         r0, r3, #0xA8
  00030	eb000000	 bl          |??2@YAPAXI@Z|
  00034	e3500000	 cmp         r0, #0
  00038	0a000002	 beq         |$LN9@PIN_Open|
  0003c	eb000000	 bl          |??0CPinDevice@@QAA@XZ|
  00040	e1a04000	 mov         r4, r0
  00044	ea000000	 b           |$LN10@PIN_Open|
  00048		 |$LN9@PIN_Open|
  00048	e3a04000	 mov         r4, #0
  0004c		 |$LN10@PIN_Open|

; 268  : 
; 269  :     if ( NULL == pPinDevice )

  0004c	e3540000	 cmp         r4, #0
  00050	1a000006	 bne         |$LN4@PIN_Open|

; 270  :     {
; 271  :         DEBUGMSG( ZONE_FUNCTION, ( _T("PIN_Open(%x): Not enough memory to create pin device\r\n"), Context ) );

  00054	e5963440	 ldr         r3, [r6, #0x440]
  00058	e3130008	 tst         r3, #8
  0005c	0a000011	 beq         |$LN15@PIN_Open|
  00060	e59f0050	 ldr         r0, [pc, #0x50]
  00064	e1a01005	 mov         r1, r5
  00068	eb000000	 bl          NKDbgPrintfW

; 272  :     }
; 273  :     else

  0006c	ea00000d	 b           |$LN15@PIN_Open|
  00070		 |$LN4@PIN_Open|

; 274  :     {
; 275  :         if ( false == pPinDevice->InitializeSubDevice( pPinInit->pCamDevice ) )

  00070	e5951000	 ldr         r1, [r5]
  00074	e1a00004	 mov         r0, r4
  00078	eb000000	 bl          |?InitializeSubDevice@CPinDevice@@QAA_NPAVCCameraDevice@@@Z|
  0007c	e3500000	 cmp         r0, #0
  00080	1a000008	 bne         |$LN15@PIN_Open|

; 276  :         {
; 277  :             SAFEDELETE( pPinDevice );

  00084	e1a00004	 mov         r0, r4
  00088	eb000000	 bl          |??1CPinDevice@@QAA@XZ|
  0008c	e1a00004	 mov         r0, r4
  00090	eb000000	 bl          |??3@YAXPAX@Z|

; 278  :             DEBUGMSG( ZONE_INIT|ZONE_ERROR, ( _T("PIN_Init: Initialization Failed") ) );

  00094	e5963440	 ldr         r3, [r6, #0x440]
  00098	e3a04000	 mov         r4, #0
  0009c	e3130005	 tst         r3, #5
  000a0	159f000c	 ldrne       r0, [pc, #0xC]
  000a4	1b000000	 blne        NKDbgPrintfW
  000a8		 |$LN15@PIN_Open|

; 279  :         }
; 280  : 
; 281  :     }
; 282  : 
; 283  :     return reinterpret_cast<DWORD>( pPinDevice );
; 284  : }

  000a8	e1a00004	 mov         r0, r4
  000ac	e8bd4070	 ldmia       sp!, {r4 - r6, lr}
  000b0	e12fff1e	 bx          lr
  000b4		 |$LN23@PIN_Open|
  000b4		 |$LN24@PIN_Open|
  000b4	00000000	 DCD         |??_C@_1EA@LDOBGFDL@?$AAP?$AAI?$AAN?$AA_?$AAI?$AAn?$AAi?$AAt?$AA?3?$AA?5?$AAI?$AAn?$AAi?$AAt?$AAi?$AAa?$AAl?$AAi?$AAz?$AAa?$AAt?$AAi?$AAo?$AAn?$AA?5?$AAF?$AAa?$AAi?$AAl?$AAe?$AAd?$AA?$AA@|
  000b8		 |$LN25@PIN_Open|
  000b8	00000000	 DCD         |??_C@_1GO@CLAODGBF@?$AAP?$AAI?$AAN?$AA_?$AAO?$AAp?$AAe?$AAn?$AA?$CI?$AA?$CF?$AAx?$AA?$CJ?$AA?3?$AA?5?$AAN?$AAo?$AAt?$AA?5?$AAe?$AAn?$AAo?$AAu?$AAg?$AAh?$AA?5?$AAm?$AAe?$AAm?$AAo?$AAr?$AAy?$AA?5@|
  000bc		 |$LN26@PIN_Open|
  000bc	00000000	 DCD         |??_C@_1DG@LIBEJGJH@?$AAP?$AAI?$AAN?$AA_?$AAO?$AAp?$AAe?$AAn?$AA?$CI?$AA?$CF?$AAx?$AA?0?$AA?5?$AA0?$AAx?$AA?$CF?$AAx?$AA?0?$AA?5?$AA0?$AAx?$AA?$CF?$AAx?$AA?$CJ?$AA?$AN?$AA?6?$AA?$AA@|
  000c0		 |$LN27@PIN_Open|
  000c0	00000000	 DCD         |dpCurSettings|
  000c4		 |$M34914|

			 ENDP  ; |PIN_Open|

	END
