; Listing generated by Microsoft (R) Optimizing Compiler Version 14.01.60511.01 

	TTL	C:\WINCE600\PLATFORM\Z2170P\SRC\DRIVERS\TPS659XX_WAVE\debug.c
	CODE32

  00000			 AREA	 |.drectve|, DRECTVE
	DCB	"-defaultlib:LIBCMT "
	DCB	"-defaultlib:OLDNAMES "

	EXPORT	|dpCurSettings| [ DATA ]

  00000			 AREA	 |.data|, DATA
|dpCurSettings| DCB "W", 0x0, "A", 0x0, "V", 0x0, "E", 0x0, "D", 0x0, "E", 0x0
	DCB	"V", 0x0, 0x0, 0x0
	%	48
	DCB	"H", 0x0, "W", 0x0, "B", 0x0, "r", 0x0, "i", 0x0, "d", 0x0
	DCB	"g", 0x0, "e", 0x0, 0x0, 0x0
	%	46
	DCB	"I", 0x0, "O", 0x0, "C", 0x0, "T", 0x0, "L", 0x0, 0x0, 0x0
	%	52
	DCB	"V", 0x0, "e", 0x0, "r", 0x0, "b", 0x0, "o", 0x0, "s", 0x0
	DCB	"e", 0x0, 0x0, 0x0
	%	48
	DCB	"I", 0x0, "r", 0x0, "q", 0x0, 0x0, 0x0
	%	56
	DCB	"W", 0x0, "O", 0x0, "D", 0x0, "M", 0x0, 0x0, 0x0
	%	54
	DCB	"W", 0x0, "I", 0x0, "D", 0x0, "M", 0x0, 0x0, 0x0
	%	54
	DCB	"P", 0x0, "D", 0x0, "D", 0x0, 0x0, 0x0
	%	56
	DCB	"M", 0x0, "D", 0x0, "D", 0x0, 0x0, 0x0
	%	56
	DCB	"M", 0x0, "i", 0x0, "x", 0x0, "e", 0x0, "r", 0x0, 0x0, 0x0
	%	52
	DCB	"R", 0x0, "i", 0x0, "l", 0x0, 0x0, 0x0
	%	56
	DCB	"U", 0x0, "n", 0x0, "u", 0x0, "s", 0x0, "e", 0x0, "d", 0x0
	DCB	0x0, 0x0
	%	50
	DCB	"M", 0x0, "o", 0x0, "d", 0x0, "e", 0x0, "m", 0x0, 0x0, 0x0
	%	52
	DCB	"P", 0x0, "o", 0x0, "w", 0x0, "e", 0x0, "r", 0x0, 0x0, 0x0
	%	52
	DCB	"F", 0x0, "u", 0x0, "n", 0x0, "c", 0x0, "t", 0x0, "i", 0x0
	DCB	"o", 0x0, "n", 0x0, 0x0, 0x0
	%	46
	DCB	"W", 0x0, "a", 0x0, "r", 0x0, "n", 0x0, "i", 0x0, "n", 0x0
	DCB	"g", 0x0, 0x0, 0x0
	%	48
	DCB	"E", 0x0, "r", 0x0, "r", 0x0, "o", 0x0, "r", 0x0, 0x0, 0x0
	%	52
	DCD	0xc000

  00000			 AREA	 |.rdata|, DATA, READONLY
|EdbgVendorIds| DCW 0x0
	DCW	0x0
	DCD	0x4033
	DCB	0x1
	DCB	"AD", 0x0
	DCW	0x1050
	DCW	0x940
	DCD	0x4005
	DCB	0x1
	DCB	"LS", 0x0
	DCW	0x1050
	DCW	0x940
	DCD	0x2078
	DCB	0x1
	DCB	"LS", 0x0
	DCW	0x10ec
	DCW	0x8029
	DCD	0xc0f0
	DCB	0x1
	DCB	"KS", 0x0
	DCW	0x10ec
	DCW	0x8129
	DCD	0x0
	DCB	0x4
	DCB	"RT", 0x0
	DCW	0x10ec
	DCW	0x8139
	DCD	0x900b
	DCB	0x4
	DCB	"RT", 0x0
	DCW	0x10ec
	DCW	0x8139
	DCD	0xd0c9
	DCB	0x4
	DCB	"RT", 0x0
	DCW	0x10ec
	DCW	0x8139
	DCD	0xe04c
	DCB	0x4
	DCB	"RT", 0x0
	DCW	0x1186
	DCW	0x1300
	DCD	0x50ba
	DCB	0x4
	DCB	"DL", 0x0
	DCW	0x100b
	DCW	0x20
	DCD	0xa0cc
	DCB	0x5
	DCB	"NG", 0x0
	DCW	0x10b7
	DCW	0x9050
	DCD	0x6008
	DCB	0x6
	DCB	"3C", 0x0
	DCW	0x10b7
	DCW	0x9200
	DCD	0x476
	DCB	0x6
	DCB	"3C", 0x0
	END
