; Listing generated by Microsoft (R) Optimizing Compiler Version 14.01.60511.01 

	TTL	C:\WINCE600\PLATFORM\Z2170P\SRC\DRIVERS\TPS659XX_WAVE\istrmmgr.cpp
	CODE32

  00000			 AREA	 |.drectve|, DRECTVE
	DCB	"-defaultlib:LIBCMT "
	DCB	"-defaultlib:OLDNAMES "

	EXPORT	|?get_Gain@CStreamManager@@QBAKXZ|	; CStreamManager::get_Gain
; File c:\wince600\platform\z2170p\src\drivers\tps659xx_wave\strmmgr.h

  00000			 AREA	 |.pdata|, PDATA
|$T35543| DCD	|$LN5@get_Gain|
	DCD	0x40000200
; Function compile flags: /Ogspy

  00000			 AREA	 |.text|, CODE, ARM

  00000		 |?get_Gain@CStreamManager@@QBAKXZ| PROC ; CStreamManager::get_Gain

; 51   :     {

  00000		 |$LN5@get_Gain|
  00000		 |$M35540|

; 52   :         return m_dwGain;

  00000	e590000c	 ldr         r0, [r0, #0xC]

; 53   :     }

  00004	e12fff1e	 bx          lr
  00008		 |$M35541|

			 ENDP  ; |?get_Gain@CStreamManager@@QBAKXZ|, CStreamManager::get_Gain

	EXPORT	|?put_Gain@CStreamManager@@QAAKK@Z|	; CStreamManager::put_Gain

  00000			 AREA	 |.pdata|, PDATA
|$T35554| DCD	|$LN5@put_Gain|
	DCD	0x40000a01
; Function compile flags: /Ogspy

  00000			 AREA	 |.text|, CODE, ARM

  00000		 |?put_Gain@CStreamManager@@QAAKK@Z| PROC ; CStreamManager::put_Gain

; 56   :     {

  00000		 |$LN5@put_Gain|
  00000	e52de004	 str         lr, [sp, #-4]!
  00004		 |$M35551|
  00004	e1a02000	 mov         r2, r0

; 57   :         m_dwGain = dwGain;
; 58   :         update_Streams();

  00008	e5923000	 ldr         r3, [r2]
  0000c	e582100c	 str         r1, [r2, #0xC]
  00010	e5933010	 ldr         r3, [r3, #0x10]
  00014	e1a0e00f	 mov         lr, pc
  00018	e12fff13	 bx          r3

; 59   :         return MMSYSERR_NOERROR;

  0001c	e3a00000	 mov         r0, #0

; 60   :     }

  00020	e49de004	 ldr         lr, [sp], #4
  00024	e12fff1e	 bx          lr
  00028		 |$M35552|

			 ENDP  ; |?put_Gain@CStreamManager@@QAAKK@Z|, CStreamManager::put_Gain

	EXPORT	|?get_Mute@CStreamManager@@QBAKXZ|	; CStreamManager::get_Mute

  00000			 AREA	 |.pdata|, PDATA
|$T35564| DCD	|$LN5@get_Mute|
	DCD	0x40000200
; Function compile flags: /Ogspy

  00000			 AREA	 |.text|, CODE, ARM

  00000		 |?get_Mute@CStreamManager@@QBAKXZ| PROC ; CStreamManager::get_Mute

; 63   :     {

  00000		 |$LN5@get_Mute|
  00000		 |$M35561|

; 64   :         return m_bMute;

  00000	e5900010	 ldr         r0, [r0, #0x10]

; 65   :     }

  00004	e12fff1e	 bx          lr
  00008		 |$M35562|

			 ENDP  ; |?get_Mute@CStreamManager@@QBAKXZ|, CStreamManager::get_Mute

	EXPORT	|?put_Mute@CStreamManager@@QAAKH@Z|	; CStreamManager::put_Mute

  00000			 AREA	 |.pdata|, PDATA
|$T35575| DCD	|$LN5@put_Mute|
	DCD	0x40000a01
; Function compile flags: /Ogspy

  00000			 AREA	 |.text|, CODE, ARM

  00000		 |?put_Mute@CStreamManager@@QAAKH@Z| PROC ; CStreamManager::put_Mute

; 68   :     {

  00000		 |$LN5@put_Mute|
  00000	e52de004	 str         lr, [sp, #-4]!
  00004		 |$M35572|
  00004	e1a02000	 mov         r2, r0

; 69   :         m_bMute = Mute;
; 70   :         update_Streams();

  00008	e5923000	 ldr         r3, [r2]
  0000c	e5821010	 str         r1, [r2, #0x10]
  00010	e5933010	 ldr         r3, [r3, #0x10]
  00014	e1a0e00f	 mov         lr, pc
  00018	e12fff13	 bx          r3

; 71   :         return MMSYSERR_NOERROR;

  0001c	e3a00000	 mov         r0, #0

; 72   :     }

  00020	e49de004	 ldr         lr, [sp], #4
  00024	e12fff1e	 bx          lr
  00028		 |$M35573|

			 ENDP  ; |?put_Mute@CStreamManager@@QAAKH@Z|, CStreamManager::put_Mute

	EXPORT	|?GetInputProperty@CInputStreamManager@@QAAKPAUtag_WAVEPROPINFO@@@Z| ; CInputStreamManager::GetInputProperty
	IMPORT	|?CommonGetProperty@CStreamManager@@IAAKPAUtag_WAVEPROPINFO@@H@Z| ; CStreamManager::CommonGetProperty
; File c:\wince600\platform\z2170p\src\drivers\tps659xx_wave\istrmmgr.h

  00000			 AREA	 |.pdata|, PDATA
|$T35586| DCD	|$LN5@GetInputPr|
	DCD	0x40000501
; Function compile flags: /Ogspy

  00000			 AREA	 |.text|, CODE, ARM

  00000		 |?GetInputProperty@CInputStreamManager@@QAAKPAUtag_WAVEPROPINFO@@@Z| PROC ; CInputStreamManager::GetInputProperty

; 109  :     {

  00000		 |$LN5@GetInputPr|
  00000	e52de004	 str         lr, [sp, #-4]!
  00004		 |$M35583|

; 110  :         return CommonGetProperty(pPropInfo, TRUE);

  00004	e3a02001	 mov         r2, #1
  00008	eb000000	 bl          |?CommonGetProperty@CStreamManager@@IAAKPAUtag_WAVEPROPINFO@@H@Z|

; 111  :     }

  0000c	e49de004	 ldr         lr, [sp], #4
  00010	e12fff1e	 bx          lr
  00014		 |$M35584|

			 ENDP  ; |?GetInputProperty@CInputStreamManager@@QAAKPAUtag_WAVEPROPINFO@@@Z|, CInputStreamManager::GetInputProperty

	EXPORT	|?SetInputProperty@CInputStreamManager@@QAAKPAUtag_WAVEPROPINFO@@@Z| ; CInputStreamManager::SetInputProperty
	IMPORT	|?CommonSetProperty@CStreamManager@@IAAKPAUtag_WAVEPROPINFO@@H@Z| ; CStreamManager::CommonSetProperty

  00000			 AREA	 |.pdata|, PDATA
|$T35597| DCD	|$LN5@SetInputPr|
	DCD	0x40000501
; Function compile flags: /Ogspy

  00000			 AREA	 |.text|, CODE, ARM

  00000		 |?SetInputProperty@CInputStreamManager@@QAAKPAUtag_WAVEPROPINFO@@@Z| PROC ; CInputStreamManager::SetInputProperty

; 114  :     {

  00000		 |$LN5@SetInputPr|
  00000	e52de004	 str         lr, [sp, #-4]!
  00004		 |$M35594|

; 115  :         return CommonSetProperty(pPropInfo, TRUE);

  00004	e3a02001	 mov         r2, #1
  00008	eb000000	 bl          |?CommonSetProperty@CStreamManager@@IAAKPAUtag_WAVEPROPINFO@@H@Z|

; 116  :     }

  0000c	e49de004	 ldr         lr, [sp], #4
  00010	e12fff1e	 bx          lr
  00014		 |$M35595|

			 ENDP  ; |?SetInputProperty@CInputStreamManager@@QAAKPAUtag_WAVEPROPINFO@@@Z|, CInputStreamManager::SetInputProperty

	EXPORT	|??0?$CAudioControlType@$0CAABAAAA@@@QAA@XZ| ; CAudioControlType<536936448>::CAudioControlType<536936448>
	EXPORT	|??_7?$CAudioControlType@$0CAABAAAA@@@6B@| [ DATA ] ; CAudioControlType<536936448>::`vftable'
	EXPORT	|?get_MultipleItemCount@CAudioControlBase@@UBAKXZ| ; CAudioControlBase::get_MultipleItemCount
	EXPORT	|?get_StatusFlag@CAudioControlBase@@UBAKXZ| ; CAudioControlBase::get_StatusFlag
	EXPORT	|?get_ControlType@?$CAudioControlType@$0CAABAAAA@@@UBAKXZ| ; CAudioControlType<536936448>::get_ControlType
	IMPORT	|??0CAudioControlBase@@QAA@XZ|		; CAudioControlBase::CAudioControlBase
	IMPORT	|?copy_ControlInfo@CAudioControlBase@@UAAXPAUtMIXERCONTROL@@@Z| ; CAudioControlBase::copy_ControlInfo
	IMPORT	|?put_Value@CAudioControlBase@@UAAKPAUtMIXERCONTROLDETAILS@@K@Z| ; CAudioControlBase::put_Value
	IMPORT	|?get_Value@CAudioControlBase@@UAAKPAUtMIXERCONTROLDETAILS@@K@Z| ; CAudioControlBase::get_Value
	IMPORT	|_purecall|

  00000			 AREA	 |.pdata|, PDATA
|$T35607| DCD	|$LN5@CAudioCont|
	DCD	0x40000901

  00000			 AREA	 |.rdata|, DATA, READONLY
|??_7?$CAudioControlType@$0CAABAAAA@@@6B@| DCD |?get_MultipleItemCount@CAudioControlBase@@UBAKXZ| ; CAudioControlType<536936448>::`vftable'
	DCD	|?get_StatusFlag@CAudioControlBase@@UBAKXZ|
	DCD	|?copy_ControlInfo@CAudioControlBase@@UAAXPAUtMIXERCONTROL@@@Z|
	DCD	|?put_Value@CAudioControlBase@@UAAKPAUtMIXERCONTROLDETAILS@@K@Z|
	DCD	|?get_Value@CAudioControlBase@@UAAKPAUtMIXERCONTROLDETAILS@@K@Z|
	DCD	|_purecall|
	DCD	|_purecall|
	DCD	|?get_ControlType@?$CAudioControlType@$0CAABAAAA@@@UBAKXZ|
; Function compile flags: /Ogspy

  00000			 AREA	 |.text|, CODE, ARM

  00000		 |??0?$CAudioControlType@$0CAABAAAA@@@QAA@XZ| PROC ; CAudioControlType<536936448>::CAudioControlType<536936448>
  00000		 |$LN5@CAudioCont|
  00000	e92d4010	 stmdb       sp!, {r4, lr}
  00004		 |$M35604|
  00004	e1a04000	 mov         r4, r0
  00008	eb000000	 bl          |??0CAudioControlBase@@QAA@XZ|
  0000c	e59f300c	 ldr         r3, [pc, #0xC]
  00010	e1a00004	 mov         r0, r4
  00014	e5843000	 str         r3, [r4]
  00018	e8bd4010	 ldmia       sp!, {r4, lr}
  0001c	e12fff1e	 bx          lr
  00020		 |$LN6@CAudioCont|
  00020		 |$LN7@CAudioCont|
  00020	00000000	 DCD         |??_7?$CAudioControlType@$0CAABAAAA@@@6B@|
  00024		 |$M35605|

			 ENDP  ; |??0?$CAudioControlType@$0CAABAAAA@@@QAA@XZ|, CAudioControlType<536936448>::CAudioControlType<536936448>

; File c:\wince600\platform\z2170p\src\drivers\tps659xx_wave\audioctrl.h

  00000			 AREA	 |.pdata|, PDATA
|$T35618| DCD	|$LN5@get_Multip|
	DCD	0x40000200
; Function compile flags: /Ogspy

  00000			 AREA	 |.text|, CODE, ARM

  00000		 |?get_MultipleItemCount@CAudioControlBase@@UBAKXZ| PROC ; CAudioControlBase::get_MultipleItemCount

; 92   :     virtual DWORD get_MultipleItemCount() const { return 0; }

  00000		 |$LN5@get_Multip|
  00000		 |$M35615|
  00000	e3a00000	 mov         r0, #0
  00004	e12fff1e	 bx          lr
  00008		 |$M35616|

			 ENDP  ; |?get_MultipleItemCount@CAudioControlBase@@UBAKXZ|, CAudioControlBase::get_MultipleItemCount


  00000			 AREA	 |.pdata|, PDATA
|$T35627| DCD	|$LN5@get_Status|
	DCD	0x40000200
; Function compile flags: /Ogspy

  00000			 AREA	 |.text|, CODE, ARM

  00000		 |?get_StatusFlag@CAudioControlBase@@UBAKXZ| PROC ; CAudioControlBase::get_StatusFlag

; 95   :     {

  00000		 |$LN5@get_Status|
  00000		 |$M35624|

; 96   :         return MIXERCONTROL_CONTROLF_UNIFORM;

  00000	e3a00001	 mov         r0, #1

; 97   :     }

  00004	e12fff1e	 bx          lr
  00008		 |$M35625|

			 ENDP  ; |?get_StatusFlag@CAudioControlBase@@UBAKXZ|, CAudioControlBase::get_StatusFlag

	EXPORT	|??0StreamContext@@QAA@XZ|		; StreamContext::StreamContext
	EXPORT	|??_7StreamContext@@6B@| [ DATA ]	; StreamContext::`vftable'
	EXPORT	|?DoCallbackReturnBuffer@StreamContext@@UAAHPAUwavehdr_tag@@@Z| ; StreamContext::DoCallbackReturnBuffer
	EXPORT	|?DoCallbackStreamOpened@StreamContext@@UAAHXZ| ; StreamContext::DoCallbackStreamOpened
	EXPORT	|?DoCallbackStreamClosed@StreamContext@@UAAHXZ| ; StreamContext::DoCallbackStreamClosed
	EXPORT	|?GetRate@StreamContext@@UBAKPAK@Z|	; StreamContext::GetRate
	EXPORT	|?SetRate@StreamContext@@UAAKK@Z|	; StreamContext::SetRate
	IMPORT	|??_EStreamContext@@UAAPAXI@Z|, WEAK |??_GStreamContext@@UAAPAXI@Z| ; StreamContext::`vector deleting destructor', StreamContext::`scalar deleting destructor'
	IMPORT	|?Open@StreamContext@@UAAJPAVCStreamManager@@PAUwaveopendesc_tag@@K@Z| ; StreamContext::Open
	IMPORT	|?Close@StreamContext@@UAAKXZ|		; StreamContext::Close
	IMPORT	|?GetPos@StreamContext@@UAAKPAUmmtime_tag@@@Z| ; StreamContext::GetPos
	IMPORT	|?Run@StreamContext@@UAAKXZ|		; StreamContext::Run
	IMPORT	|?Stop@StreamContext@@UAAKXZ|		; StreamContext::Stop
	IMPORT	|?Reset@StreamContext@@UAAKXZ|		; StreamContext::Reset
	IMPORT	|?QueueBuffer@StreamContext@@UAAKPAUwavehdr_tag@@@Z| ; StreamContext::QueueBuffer
	IMPORT	|?MapGain@StreamContext@@UAAKKK@Z|	; StreamContext::MapGain
	IMPORT	|?GainChange@StreamContext@@UAAXXZ|	; StreamContext::GainChange
; File c:\wince600\platform\z2170p\src\drivers\tps659xx_wave\strmctxt.h

  00000			 AREA	 |.pdata|, PDATA
|$T35637| DCD	|$LN5@StreamCont|
	DCD	0x40000500

  00000			 AREA	 |.rdata|, DATA, READONLY
|??_7StreamContext@@6B@| DCD |??_EStreamContext@@UAAPAXI@Z| ; StreamContext::`vftable'
	DCD	|_purecall|
	DCD	|?Open@StreamContext@@UAAJPAVCStreamManager@@PAUwaveopendesc_tag@@K@Z|
	DCD	|?Close@StreamContext@@UAAKXZ|
	DCD	|?GetPos@StreamContext@@UAAKPAUmmtime_tag@@@Z|
	DCD	|?Run@StreamContext@@UAAKXZ|
	DCD	|?Stop@StreamContext@@UAAKXZ|
	DCD	|?Reset@StreamContext@@UAAKXZ|
	DCD	|_purecall|
	DCD	|?DoCallbackReturnBuffer@StreamContext@@UAAHPAUwavehdr_tag@@@Z|
	DCD	|?DoCallbackStreamOpened@StreamContext@@UAAHXZ|
	DCD	|?DoCallbackStreamClosed@StreamContext@@UAAHXZ|
	DCD	|?QueueBuffer@StreamContext@@UAAKPAUwavehdr_tag@@@Z|
	DCD	|?GetRate@StreamContext@@UBAKPAK@Z|
	DCD	|?SetRate@StreamContext@@UAAKK@Z|
	DCD	|?MapGain@StreamContext@@UAAKKK@Z|
	DCD	|?GainChange@StreamContext@@UAAXXZ|
; Function compile flags: /Ogspy

  00000			 AREA	 |.text|, CODE, ARM

  00000		 |??0StreamContext@@QAA@XZ| PROC	; StreamContext::StreamContext

; 56   :     StreamContext() {};

  00000		 |$LN5@StreamCont|
  00000		 |$M35634|
  00000	e1a02000	 mov         r2, r0
  00004	e59f3004	 ldr         r3, [pc, #4]
  00008	e5823000	 str         r3, [r2]
  0000c	e12fff1e	 bx          lr
  00010		 |$LN6@StreamCont|
  00010		 |$LN7@StreamCont|
  00010	00000000	 DCD         |??_7StreamContext@@6B@|
  00014		 |$M35635|

			 ENDP  ; |??0StreamContext@@QAA@XZ|, StreamContext::StreamContext

	EXPORT	|??1StreamContext@@UAA@XZ|		; StreamContext::~StreamContext

  00000			 AREA	 |.pdata|, PDATA
|$T35647| DCD	|$LN5@StreamCont@2|
	DCD	0x40000400
; Function compile flags: /Ogspy

  00000			 AREA	 |.text|, CODE, ARM

  00000		 |??1StreamContext@@UAA@XZ| PROC	; StreamContext::~StreamContext

; 57   :     virtual ~StreamContext() {};

  00000		 |$LN5@StreamCont@2|
  00000		 |$M35644|
  00000	e59f3004	 ldr         r3, [pc, #4]
  00004	e5803000	 str         r3, [r0]
  00008	e12fff1e	 bx          lr
  0000c		 |$LN6@StreamCont@2|
  0000c		 |$LN7@StreamCont@2|
  0000c	00000000	 DCD         |??_7StreamContext@@6B@|
  00010		 |$M35645|

			 ENDP  ; |??1StreamContext@@UAA@XZ|, StreamContext::~StreamContext

	EXPORT	|?DoDriverCallback@StreamContext@@QAAXIKK@Z| ; StreamContext::DoDriverCallback

  00000			 AREA	 |.pdata|, PDATA
|$T35660| DCD	|$LN5@DoDriverCa|
	DCD	0x40000e02
; Function compile flags: /Ogspy

  00000			 AREA	 |.text|, CODE, ARM

  00000		 |?DoDriverCallback@StreamContext@@QAAXIKK@Z| PROC ; StreamContext::DoDriverCallback

; 79   :     {

  00000		 |$LN5@DoDriverCa|
  00000	e92d4030	 stmdb       sp!, {r4, r5, lr}
  00004	e24dd004	 sub         sp, sp, #4
  00008		 |$M35657|
  00008	e1a05003	 mov         r5, r3
  0000c	e1a03002	 mov         r3, r2
  00010	e1a0e000	 mov         lr, r0

; 80   :         m_pfnCallback(m_hWave,msg,m_dwInstance,dwParam1,dwParam2);

  00014	e59e2020	 ldr         r2, [lr, #0x20]
  00018	e59e0018	 ldr         r0, [lr, #0x18]
  0001c	e59e401c	 ldr         r4, [lr, #0x1C]
  00020	e58d5000	 str         r5, [sp]
  00024	e1a0e00f	 mov         lr, pc
  00028	e12fff14	 bx          r4

; 81   :     }

  0002c	e28dd004	 add         sp, sp, #4
  00030	e8bd4030	 ldmia       sp!, {r4, r5, lr}
  00034	e12fff1e	 bx          lr
  00038		 |$M35658|

			 ENDP  ; |?DoDriverCallback@StreamContext@@QAAXIKK@Z|, StreamContext::DoDriverCallback


  00000			 AREA	 |.pdata|, PDATA
|$T35672| DCD	|$LN7@DoCallback|
	DCD	0x40001002
; Function compile flags: /Ogspy

  00000			 AREA	 |.text|, CODE, ARM

  00000		 |?DoCallbackReturnBuffer@StreamContext@@UAAHPAUwavehdr_tag@@@Z| PROC ; StreamContext::DoCallbackReturnBuffer

; 83   :     {

  00000		 |$LN7@DoCallback|
  00000	e92d4030	 stmdb       sp!, {r4, r5, lr}
  00004	e24dd004	 sub         sp, sp, #4
  00008		 |$M35669|
  00008	e1a03001	 mov         r3, r1
  0000c	e1a01000	 mov         r1, r0

; 84   :         DoDriverCallback(WOM_DONE,(DWORD)lpHdr,0);

  00010	e5912020	 ldr         r2, [r1, #0x20]
  00014	e5910018	 ldr         r0, [r1, #0x18]
  00018	e591401c	 ldr         r4, [r1, #0x1C]
  0001c	e3a01c03	 mov         r1, #3, 24
  00020	e3a05000	 mov         r5, #0
  00024	e38110bd	 orr         r1, r1, #0xBD
  00028	e58d5000	 str         r5, [sp]
  0002c	e1a0e00f	 mov         lr, pc
  00030	e12fff14	 bx          r4

; 85   :     }

  00034	e28dd004	 add         sp, sp, #4
  00038	e8bd4030	 ldmia       sp!, {r4, r5, lr}
  0003c	e12fff1e	 bx          lr
  00040		 |$M35670|

			 ENDP  ; |?DoCallbackReturnBuffer@StreamContext@@UAAHPAUwavehdr_tag@@@Z|, StreamContext::DoCallbackReturnBuffer


  00000			 AREA	 |.pdata|, PDATA
|$T35683| DCD	|$LN7@DoCallback@2|
	DCD	0x40001002
; Function compile flags: /Ogspy

  00000			 AREA	 |.text|, CODE, ARM

  00000		 |?DoCallbackStreamOpened@StreamContext@@UAAHXZ| PROC ; StreamContext::DoCallbackStreamOpened

; 87   :     {

  00000		 |$LN7@DoCallback@2|
  00000	e92d4030	 stmdb       sp!, {r4, r5, lr}
  00004	e24dd004	 sub         sp, sp, #4
  00008		 |$M35680|
  00008	e1a03000	 mov         r3, r0

; 88   :         DEBUGMSG(ZONE_WODM && ZONE_VERBOSE,(TEXT("WODM: DoCallbackStreamOpened\r\n")));
; 89   :         DoDriverCallback(WOM_OPEN,0,0);

  0000c	e5932020	 ldr         r2, [r3, #0x20]
  00010	e5930018	 ldr         r0, [r3, #0x18]
  00014	e593401c	 ldr         r4, [r3, #0x1C]
  00018	e3a03c03	 mov         r3, #3, 24
  0001c	e3a05000	 mov         r5, #0
  00020	e38310bb	 orr         r1, r3, #0xBB
  00024	e3a03000	 mov         r3, #0
  00028	e58d5000	 str         r5, [sp]
  0002c	e1a0e00f	 mov         lr, pc
  00030	e12fff14	 bx          r4

; 90   :     }

  00034	e28dd004	 add         sp, sp, #4
  00038	e8bd4030	 ldmia       sp!, {r4, r5, lr}
  0003c	e12fff1e	 bx          lr
  00040		 |$M35681|

			 ENDP  ; |?DoCallbackStreamOpened@StreamContext@@UAAHXZ|, StreamContext::DoCallbackStreamOpened


  00000			 AREA	 |.pdata|, PDATA
|$T35694| DCD	|$LN7@DoCallback@3|
	DCD	0x40000f02
; Function compile flags: /Ogspy

  00000			 AREA	 |.text|, CODE, ARM

  00000		 |?DoCallbackStreamClosed@StreamContext@@UAAHXZ| PROC ; StreamContext::DoCallbackStreamClosed

; 92   :     {

  00000		 |$LN7@DoCallback@3|
  00000	e92d4030	 stmdb       sp!, {r4, r5, lr}
  00004	e24dd004	 sub         sp, sp, #4
  00008		 |$M35691|
  00008	e1a03000	 mov         r3, r0

; 93   :         DEBUGMSG(ZONE_WODM && ZONE_VERBOSE,(TEXT("WODM: DoCallbackStreamClosed\r\n")));
; 94   :         DoDriverCallback(WOM_CLOSE,0,0);

  0000c	e5932020	 ldr         r2, [r3, #0x20]
  00010	e5930018	 ldr         r0, [r3, #0x18]
  00014	e593401c	 ldr         r4, [r3, #0x1C]
  00018	e3a05000	 mov         r5, #0
  0001c	e58d5000	 str         r5, [sp]
  00020	e3a03000	 mov         r3, #0
  00024	e3a01fef	 mov         r1, #0xEF, 30
  00028	e1a0e00f	 mov         lr, pc
  0002c	e12fff14	 bx          r4

; 95   :     }

  00030	e28dd004	 add         sp, sp, #4
  00034	e8bd4030	 ldmia       sp!, {r4, r5, lr}
  00038	e12fff1e	 bx          lr
  0003c		 |$M35692|

			 ENDP  ; |?DoCallbackStreamClosed@StreamContext@@UAAHXZ|, StreamContext::DoCallbackStreamClosed


  00000			 AREA	 |.pdata|, PDATA
|$T35703| DCD	|$LN5@GetRate|
	DCD	0x40000200
; Function compile flags: /Ogspy

  00000			 AREA	 |.text|, CODE, ARM

  00000		 |?GetRate@StreamContext@@UBAKPAK@Z| PROC ; StreamContext::GetRate

; 122  :     {

  00000		 |$LN5@GetRate|
  00000		 |$M35700|

; 123  :         UNREFERENCED_PARAMETER(pdwMultiplier);
; 124  :         return MMSYSERR_NOTSUPPORTED;

  00000	e3a00008	 mov         r0, #8

; 125  :     }

  00004	e12fff1e	 bx          lr
  00008		 |$M35701|

			 ENDP  ; |?GetRate@StreamContext@@UBAKPAK@Z|, StreamContext::GetRate


  00000			 AREA	 |.pdata|, PDATA
|$T35712| DCD	|$LN5@SetRate|
	DCD	0x40000200
; Function compile flags: /Ogspy

  00000			 AREA	 |.text|, CODE, ARM

  00000		 |?SetRate@StreamContext@@UAAKK@Z| PROC	; StreamContext::SetRate

; 128  :     {

  00000		 |$LN5@SetRate|
  00000		 |$M35709|

; 129  :         UNREFERENCED_PARAMETER(dwMultiplier);
; 130  :         return MMSYSERR_NOTSUPPORTED;

  00000	e3a00008	 mov         r0, #8

; 131  :     }

  00004	e12fff1e	 bx          lr
  00008		 |$M35710|

			 ENDP  ; |?SetRate@StreamContext@@UAAKK@Z|, StreamContext::SetRate

	IMPORT	|??3@YAXPAX@Z|				; operator delete

  00000			 AREA	 |.pdata|, PDATA
|$T35726| DCD	|$LN8@scalar|
	DCD	0x40000a01
; Function compile flags: /Ogspy

  00000			 AREA	 |.text|, CODE, ARM

  00000		 |??_GStreamContext@@UAAPAXI@Z| PROC	; StreamContext::`scalar deleting destructor'
  00000		 |$LN8@scalar|
  00000	e92d4010	 stmdb       sp!, {r4, lr}
  00004		 |$M35723|
  00004	e1a04000	 mov         r4, r0
  00008	e59f3014	 ldr         r3, [pc, #0x14]
  0000c	e3110001	 tst         r1, #1
  00010	e5843000	 str         r3, [r4]
  00014	1b000000	 blne        |??3@YAXPAX@Z|
  00018	e1a00004	 mov         r0, r4
  0001c	e8bd4010	 ldmia       sp!, {r4, lr}
  00020	e12fff1e	 bx          lr
  00024		 |$LN9@scalar|
  00024		 |$LN10@scalar|
  00024	00000000	 DCD         |??_7StreamContext@@6B@|
  00028		 |$M35724|

			 ENDP  ; |??_GStreamContext@@UAAPAXI@Z|, StreamContext::`scalar deleting destructor'

	EXPORT	|?initialize_AudioLine@CInputStreamManager@@UAAHPAVCAudioMixerManager@@@Z| ; CInputStreamManager::initialize_AudioLine
	IMPORT	|?register_SourceAudioLine@CAudioMixerManager@@QAAHPAVCAudioLineBase@@0@Z| ; CAudioMixerManager::register_SourceAudioLine
	IMPORT	|?put_AudioMixerControl@CAudioMixerManager@@QAAXW4AudioMixerControl@1@PAVCAudioControlBase@@@Z| ; CAudioMixerManager::put_AudioMixerControl
	IMPORT	|?register_AudioControl@CAudioLineBase@@QAAKPAVCAudioControlBase@@@Z| ; CAudioLineBase::register_AudioControl
; File c:\wince600\platform\z2170p\src\drivers\tps659xx_wave\istrmmgr.cpp

  00000			 AREA	 |.pdata|, PDATA
|$T35741| DCD	|$LN7@initialize|
	DCD	0x40001501
; Function compile flags: /Ogspy

  00000			 AREA	 |.text|, CODE, ARM

  00000		 |?initialize_AudioLine@CInputStreamManager@@UAAHPAVCAudioMixerManager@@@Z| PROC ; CInputStreamManager::initialize_AudioLine

; 43   : {

  00000		 |$LN7@initialize|
  00000	e92d4030	 stmdb       sp!, {r4, r5, lr}
  00004		 |$M35738|
  00004	e1a05001	 mov         r5, r1
  00008	e1a04000	 mov         r4, r0

; 44   :     DEBUGMSG(ZONE_FUNCTION,
; 45   :         (L"WAV:+CInputStreamManager::initialize_AudioLine()\r\n"));
; 46   : 
; 47   :     // register audio controls
; 48   :     //
; 49   :     register_AudioControl(&m_RecordVolumeControl);

  0000c	e284102c	 add         r1, r4, #0x2C
  00010	eb000000	 bl          |?register_AudioControl@CAudioLineBase@@QAAKPAVCAudioControlBase@@@Z|

; 50   : 
; 51   :     // register as the default wav-in volume control
; 52   :     //
; 53   :     // register controls as default wavout volume and mute controls
; 54   :     //
; 55   :     pAudioMixerManager->put_AudioMixerControl(
; 56   :         CAudioMixerManager::kWavInVolumeControl, &m_RecordVolumeControl);

  00014	e284202c	 add         r2, r4, #0x2C
  00018	e3a01000	 mov         r1, #0
  0001c	e1a00005	 mov         r0, r5
  00020	eb000000	 bl          |?put_AudioMixerControl@CAudioMixerManager@@QAAXW4AudioMixerControl@1@PAVCAudioControlBase@@@Z|

; 57   : 
; 58   :     // initialize paired audio source lines
; 59   :     //
; 60   :     s_MicrophoneInputLine.m_pInputStreamManager = this;

  00024	e59f1024	 ldr         r1, [pc, #0x24]

; 61   :     pAudioMixerManager->register_SourceAudioLine(&s_MicrophoneInputLine, this);

  00028	e2542084	 subs        r2, r4, #0x84
  0002c	e2443084	 sub         r3, r4, #0x84
  00030	03a04000	 moveq       r4, #0
  00034	e1a02004	 mov         r2, r4
  00038	e1a00005	 mov         r0, r5
  0003c	e581302c	 str         r3, [r1, #0x2C]
  00040	eb000000	 bl          |?register_SourceAudioLine@CAudioMixerManager@@QAAHPAVCAudioLineBase@@0@Z|

; 62   : 
; 63   : 
; 64   :     DEBUGMSG(ZONE_FUNCTION,
; 65   :         (L"WAV:-CInputStreamManager::initialize_AudioLine()\r\n"));
; 66   : 
; 67   :     return TRUE;

  00044	e3a00001	 mov         r0, #1

; 68   : }

  00048	e8bd4030	 ldmia       sp!, {r4, r5, lr}
  0004c	e12fff1e	 bx          lr
  00050		 |$LN8@initialize|
  00050		 |$LN9@initialize|
  00050	00000000	 DCD         |s_MicrophoneInputLine|
  00054		 |$M35739|

			 ENDP  ; |?initialize_AudioLine@CInputStreamManager@@UAAHPAVCAudioMixerManager@@@Z|, CInputStreamManager::initialize_AudioLine

	EXPORT	|?get_DevCaps@CInputStreamManager@@UAAKPAXK@Z| ; CInputStreamManager::get_DevCaps
	IMPORT	|memcpy|

  00000			 AREA	 |.pdata|, PDATA
|$T35755| DCD	|$LN6@get_DevCap|
	DCD	0x40000a01

  00000			 AREA	 |.rdata|, DATA, READONLY
|?wc@?1??get_DevCaps@CInputStreamManager@@UAAKPAXK@Z@4UtagWAVEINCAPS@@B| DCW 0x1 ; `CInputStreamManager::get_DevCaps'::`2'::wc
	DCW	0x17
	DCD	0x1
	DCB	"A", 0x0, "u", 0x0, "d", 0x0, "i", 0x0, "o", 0x0, " ", 0x0
	DCB	"I", 0x0, "n", 0x0, "p", 0x0, "u", 0x0, "t", 0x0, 0x0, 0x0
	%	40
	DCD	0xfff
	DCW	0x1
	DCW	0x0
; Function compile flags: /Ogspy

  00000			 AREA	 |.text|, CODE, ARM

  00000		 |?get_DevCaps@CInputStreamManager@@UAAKPAXK@Z| PROC ; CInputStreamManager::get_DevCaps

; 80   : {

  00000		 |$LN6@get_DevCap|
  00000	e52de004	 str         lr, [sp, #-4]!
  00004		 |$M35752|
  00004	e1a00001	 mov         r0, r1

; 81   :     static const WAVEINCAPS wc =
; 82   :     {
; 83   :         MM_MICROSOFT,
; 84   :         23,
; 85   :         0x0001,
; 86   :         TEXT("Audio Input"),
; 87   :         WAVE_FORMAT_1M08 | WAVE_FORMAT_2M08 | WAVE_FORMAT_4M08 |
; 88   :         WAVE_FORMAT_1S08 | WAVE_FORMAT_2S08 | WAVE_FORMAT_4S08 |
; 89   :         WAVE_FORMAT_1M16 | WAVE_FORMAT_2M16 | WAVE_FORMAT_4M16 |
; 90   :         WAVE_FORMAT_1S16 | WAVE_FORMAT_2S16 | WAVE_FORMAT_4S16,
; 91   :         1,
; 92   :         0
; 93   :     };
; 94   : 
; 95   :     if (dwSize > sizeof(WAVEINCAPS))
; 96   :         dwSize = sizeof(WAVEINCAPS);
; 97   : 
; 98   :     memcpy( pCaps, &wc, dwSize);

  00008	e59f1014	 ldr         r1, [pc, #0x14]
  0000c	e3520050	 cmp         r2, #0x50
  00010	83a02050	 movhi       r2, #0x50
  00014	eb000000	 bl          memcpy

; 99   : 
; 100  :     return MMSYSERR_NOERROR;

  00018	e3a00000	 mov         r0, #0

; 101  : }

  0001c	e49de004	 ldr         lr, [sp], #4
  00020	e12fff1e	 bx          lr
  00024		 |$LN7@get_DevCap|
  00024		 |$LN8@get_DevCap|
  00024	00000000	 DCD         |?wc@?1??get_DevCaps@CInputStreamManager@@UAAKPAXK@Z@4UtagWAVEINCAPS@@B|
  00028		 |$M35753|

			 ENDP  ; |?get_DevCaps@CInputStreamManager@@UAAKPAXK@Z|, CInputStreamManager::get_DevCaps

	EXPORT	|?get_ExtDevCaps@CInputStreamManager@@UAAKPAXK@Z| ; CInputStreamManager::get_ExtDevCaps

  00000			 AREA	 |.pdata|, PDATA
|$T35766| DCD	|$LN5@get_ExtDev|
	DCD	0x40000200
; Function compile flags: /Ogspy

  00000			 AREA	 |.text|, CODE, ARM

  00000		 |?get_ExtDevCaps@CInputStreamManager@@UAAKPAXK@Z| PROC ; CInputStreamManager::get_ExtDevCaps

; 114  : {

  00000		 |$LN5@get_ExtDev|
  00000		 |$M35763|

; 115  :     UNREFERENCED_PARAMETER(pCaps);
; 116  :     UNREFERENCED_PARAMETER(dwSize);
; 117  :     return MMSYSERR_NOTSUPPORTED;

  00000	e3a00008	 mov         r0, #8

; 118  : }

  00004	e12fff1e	 bx          lr
  00008		 |$M35764|

			 ENDP  ; |?get_ExtDevCaps@CInputStreamManager@@UAAKPAXK@Z|, CInputStreamManager::get_ExtDevCaps

	EXPORT	|??0WaveStreamContext@@QAA@XZ|		; WaveStreamContext::WaveStreamContext
	EXPORT	|??_7WaveStreamContext@@6B@| [ DATA ]	; WaveStreamContext::`vftable'
	IMPORT	|??_EWaveStreamContext@@UAAPAXI@Z|, WEAK |??_GWaveStreamContext@@UAAPAXI@Z| ; WaveStreamContext::`vector deleting destructor', WaveStreamContext::`scalar deleting destructor'
	IMPORT	|?Open@WaveStreamContext@@UAAJPAVCStreamManager@@PAUwaveopendesc_tag@@K@Z| ; WaveStreamContext::Open
	IMPORT	|?Render@WaveStreamContext@@UAAPAEPAE00H@Z| ; WaveStreamContext::Render
	IMPORT	|?GetRate@WaveStreamContext@@UBAKPAK@Z|	; WaveStreamContext::GetRate

  00000			 AREA	 |.pdata|, PDATA
|$T35779| DCD	|$LN7@WaveStream|
	DCD	0x40000500

  00000			 AREA	 |.rdata|, DATA, READONLY
|??_7WaveStreamContext@@6B@| DCD |??_EWaveStreamContext@@UAAPAXI@Z| ; WaveStreamContext::`vftable'
	DCD	|_purecall|
	DCD	|?Open@WaveStreamContext@@UAAJPAVCStreamManager@@PAUwaveopendesc_tag@@K@Z|
	DCD	|?Close@StreamContext@@UAAKXZ|
	DCD	|?GetPos@StreamContext@@UAAKPAUmmtime_tag@@@Z|
	DCD	|?Run@StreamContext@@UAAKXZ|
	DCD	|?Stop@StreamContext@@UAAKXZ|
	DCD	|?Reset@StreamContext@@UAAKXZ|
	DCD	|?Render@WaveStreamContext@@UAAPAEPAE00H@Z|
	DCD	|?DoCallbackReturnBuffer@StreamContext@@UAAHPAUwavehdr_tag@@@Z|
	DCD	|?DoCallbackStreamOpened@StreamContext@@UAAHXZ|
	DCD	|?DoCallbackStreamClosed@StreamContext@@UAAHXZ|
	DCD	|?QueueBuffer@StreamContext@@UAAKPAUwavehdr_tag@@@Z|
	DCD	|?GetRate@WaveStreamContext@@UBAKPAK@Z|
	DCD	|?SetRate@StreamContext@@UAAKK@Z|
	DCD	|?MapGain@StreamContext@@UAAKKK@Z|
	DCD	|?GainChange@StreamContext@@UAAXXZ|
	DCD	|_purecall|
; Function compile flags: /Ogspy

  00000			 AREA	 |.text|, CODE, ARM

  00000		 |??0WaveStreamContext@@QAA@XZ| PROC	; WaveStreamContext::WaveStreamContext
  00000		 |$LN7@WaveStream|
  00000		 |$M35776|
  00000	e1a02000	 mov         r2, r0
  00004	e59f3004	 ldr         r3, [pc, #4]
  00008	e5823000	 str         r3, [r2]
  0000c	e12fff1e	 bx          lr
  00010		 |$LN8@WaveStream|
  00010		 |$LN9@WaveStream|
  00010	00000000	 DCD         |??_7WaveStreamContext@@6B@|
  00014		 |$M35777|

			 ENDP  ; |??0WaveStreamContext@@QAA@XZ|, WaveStreamContext::WaveStreamContext

	EXPORT	|??1WaveStreamContext@@UAA@XZ|		; WaveStreamContext::~WaveStreamContext

  00000			 AREA	 |.pdata|, PDATA
|$T35792| DCD	|$LN7@WaveStream@2|
	DCD	0x40000400
; Function compile flags: /Ogspy

  00000			 AREA	 |.text|, CODE, ARM

  00000		 |??1WaveStreamContext@@UAA@XZ| PROC	; WaveStreamContext::~WaveStreamContext
  00000		 |$LN7@WaveStream@2|
  00000		 |$M35789|
  00000	e59f3004	 ldr         r3, [pc, #4]
  00004	e5803000	 str         r3, [r0]
  00008	e12fff1e	 bx          lr
  0000c		 |$LN8@WaveStream@2|
  0000c		 |$LN9@WaveStream@2|
  0000c	00000000	 DCD         |??_7StreamContext@@6B@|
  00010		 |$M35790|

			 ENDP  ; |??1WaveStreamContext@@UAA@XZ|, WaveStreamContext::~WaveStreamContext


  00000			 AREA	 |.pdata|, PDATA
|$T35813| DCD	|$LN10@scalar@2|
	DCD	0x40000a01
; Function compile flags: /Ogspy

  00000			 AREA	 |.text|, CODE, ARM

  00000		 |??_GWaveStreamContext@@UAAPAXI@Z| PROC ; WaveStreamContext::`scalar deleting destructor'
  00000		 |$LN10@scalar@2|
  00000	e92d4010	 stmdb       sp!, {r4, lr}
  00004		 |$M35810|
  00004	e1a04000	 mov         r4, r0
  00008	e59f3014	 ldr         r3, [pc, #0x14]
  0000c	e3110001	 tst         r1, #1
  00010	e5843000	 str         r3, [r4]
  00014	1b000000	 blne        |??3@YAXPAX@Z|
  00018	e1a00004	 mov         r0, r4
  0001c	e8bd4010	 ldmia       sp!, {r4, lr}
  00020	e12fff1e	 bx          lr
  00024		 |$LN11@scalar@2|
  00024		 |$LN12@scalar@2|
  00024	00000000	 DCD         |??_7StreamContext@@6B@|
  00028		 |$M35811|

			 ENDP  ; |??_GWaveStreamContext@@UAAPAXI@Z|, WaveStreamContext::`scalar deleting destructor'

	EXPORT	|?copy_AudioData@CInputStreamManager@@UAAKPAXK@Z| ; CInputStreamManager::copy_AudioData
	IMPORT	|?copy_AudioData@CStreamManager@@UAAKPAXK@Z| ; CStreamManager::copy_AudioData

  00000			 AREA	 |.pdata|, PDATA
|$T35828| DCD	|$LN6@copy_Audio@2|
	DCD	0x40001301
; Function compile flags: /Ogspy

  00000			 AREA	 |.text|, CODE, ARM

  00000		 |?copy_AudioData@CInputStreamManager@@UAAKPAXK@Z| PROC ; CInputStreamManager::copy_AudioData

; 142  : {

  00000		 |$LN6@copy_Audio@2|
  00000	e92d4030	 stmdb       sp!, {r4, r5, lr}
  00004		 |$M35825|
  00004	e1a05000	 mov         r5, r0

; 143  :     DEBUGMSG(ZONE_FUNCTION,
; 144  :         (L"WAV:+CInputStreamManager::copy_AudioData()\r\n"));
; 145  : 
; 146  :     DWORD dwActiveStreams = CStreamManager::copy_AudioData(pStart, nSize);

  00008	eb000000	 bl          |?copy_AudioData@CStreamManager@@UAAKPAXK@Z|
  0000c	e1b04000	 movs        r4, r0

; 147  :     if (0 == dwActiveStreams)

  00010	1a00000a	 bne         |$LN1@copy_Audio@2|

; 148  :         {
; 149  :         get_HardwareAudioBridge()->stop_Stream(CHardwareAudioBridge::kInput, NULL);

  00014	e5953000	 ldr         r3, [r5]
  00018	e1a00005	 mov         r0, r5
  0001c	e5933014	 ldr         r3, [r3, #0x14]
  00020	e1a0e00f	 mov         lr, pc
  00024	e12fff13	 bx          r3
  00028	e5903000	 ldr         r3, [r0]
  0002c	e3a02000	 mov         r2, #0
  00030	e3a01001	 mov         r1, #1
  00034	e5933018	 ldr         r3, [r3, #0x18]
  00038	e1a0e00f	 mov         lr, pc
  0003c	e12fff13	 bx          r3
  00040		 |$LN1@copy_Audio@2|

; 150  :         }
; 151  : 
; 152  :     DEBUGMSG(ZONE_FUNCTION,
; 153  :         (L"WAV:-CInputStreamManager::copy_AudioData()\r\n"));
; 154  : 
; 155  :     return dwActiveStreams;
; 156  : }

  00040	e1a00004	 mov         r0, r4
  00044	e8bd4030	 ldmia       sp!, {r4, r5, lr}
  00048	e12fff1e	 bx          lr
  0004c		 |$M35826|

			 ENDP  ; |?copy_AudioData@CInputStreamManager@@UAAKPAXK@Z|, CInputStreamManager::copy_AudioData

	EXPORT	|?StreamReadyToRender@CInputStreamManager@@UAAXPAVStreamContext@@@Z| ; CInputStreamManager::StreamReadyToRender

  00000			 AREA	 |.pdata|, PDATA
|$T35837| DCD	|$LN5@StreamRead|
	DCD	0x40001901
; Function compile flags: /Ogspy

  00000			 AREA	 |.text|, CODE, ARM

  00000		 |?StreamReadyToRender@CInputStreamManager@@UAAXPAVStreamContext@@@Z| PROC ; CInputStreamManager::StreamReadyToRender

; 167  : {

  00000		 |$LN5@StreamRead|
  00000	e92d4030	 stmdb       sp!, {r4, r5, lr}
  00004		 |$M35834|
  00004	e1a05001	 mov         r5, r1
  00008	e1a04000	 mov         r4, r0

; 168  :     DEBUGMSG(ZONE_FUNCTION,
; 169  :         (L"WAV:+CInputStreamManager::StreamReadyToRender()\r\n"));
; 170  : 
; 171  :     get_HardwareAudioBridge()->start_AudioPort(CHardwareAudioBridge::kInput);

  0000c	e5943000	 ldr         r3, [r4]
  00010	e5933014	 ldr         r3, [r3, #0x14]
  00014	e1a0e00f	 mov         lr, pc
  00018	e12fff13	 bx          r3
  0001c	e5903000	 ldr         r3, [r0]
  00020	e3a01001	 mov         r1, #1
  00024	e5933008	 ldr         r3, [r3, #8]
  00028	e1a0e00f	 mov         lr, pc
  0002c	e12fff13	 bx          r3

; 172  :     get_HardwareAudioBridge()->start_Stream(CHardwareAudioBridge::kInput, pStreamContext);

  00030	e5943000	 ldr         r3, [r4]
  00034	e1a00004	 mov         r0, r4
  00038	e5933014	 ldr         r3, [r3, #0x14]
  0003c	e1a0e00f	 mov         lr, pc
  00040	e12fff13	 bx          r3
  00044	e5903000	 ldr         r3, [r0]
  00048	e1a02005	 mov         r2, r5
  0004c	e3a01001	 mov         r1, #1
  00050	e5933014	 ldr         r3, [r3, #0x14]
  00054	e1a0e00f	 mov         lr, pc
  00058	e12fff13	 bx          r3

; 173  : 
; 174  :     DEBUGMSG(ZONE_FUNCTION,
; 175  :         (L"WAV:+CInputStreamManager::StreamReadyToRender()\r\n"));
; 176  :     return;
; 177  : }

  0005c	e8bd4030	 ldmia       sp!, {r4, r5, lr}
  00060	e12fff1e	 bx          lr
  00064		 |$M35835|

			 ENDP  ; |?StreamReadyToRender@CInputStreamManager@@UAAXPAVStreamContext@@@Z|, CInputStreamManager::StreamReadyToRender

	EXPORT	|?get_AudioValue@CInputStreamManager@@UBAKPAVCAudioControlBase@@PAUtMIXERCONTROLDETAILS@@K@Z| ; CInputStreamManager::get_AudioValue
; File c:\wince600\platform\z2170p\src\drivers\tps659xx_wave\strmmgr.h

  00000			 AREA	 |.pdata|, PDATA
|$T35854| DCD	|$LN9@get_AudioV|
	DCD	0x40002501
; Function compile flags: /Ogspy
; File c:\wince600\platform\z2170p\src\drivers\tps659xx_wave\istrmmgr.cpp

  00000			 AREA	 |.text|, CODE, ARM

  00000		 |?get_AudioValue@CInputStreamManager@@UBAKPAVCAudioControlBase@@PAUtMIXERCONTROLDETAILS@@K@Z| PROC ; CInputStreamManager::get_AudioValue

; 188  : {

  00000		 |$LN9@get_AudioV|
  00000	e92d4030	 stmdb       sp!, {r4, r5, lr}
  00004		 |$M35851|
  00004	e1a05002	 mov         r5, r2
  00008	e1a02000	 mov         r2, r0

; 189  :     MMRESULT mmRet = MMSYSERR_NOERROR;
; 190  :     
; 191  :     UNREFERENCED_PARAMETER(dwFlag);
; 192  :     UNREFERENCED_PARAMETER(pControl);
; 193  : 
; 194  :     DEBUGMSG(ZONE_FUNCTION,
; 195  :         (L"WAV:+CInputStreamManager::get_AudioValue()\r\n"));
; 196  : 
; 197  :     ASSERT(pControl->get_ControlType() == MIXERCONTROL_CONTROLTYPE_VOLUME);
; 198  : 
; 199  :     MIXERCONTROLDETAILS_UNSIGNED *pValue;
; 200  :     pValue = (MIXERCONTROLDETAILS_UNSIGNED *) pDetail->paDetails;
; 201  : 
; 202  :     // Validate requested number of channels.
; 203  :     if (pDetail->cChannels != 1)

  0000c	e5d54008	 ldrb        r4, [r5, #8]
  00010	e5d53009	 ldrb        r3, [r5, #9]
  00014	e5d5100a	 ldrb        r1, [r5, #0xA]
  00018	e5d5e00b	 ldrb        lr, [r5, #0xB]
  0001c	e1843403	 orr         r3, r4, r3, lsl #8
  00020	e1833801	 orr         r3, r3, r1, lsl #16
  00024	e1833c0e	 orr         r3, r3, lr, lsl #24
  00028	e3530001	 cmp         r3, #1
  0002c	e3a00000	 mov         r0, #0

; 204  :     {
; 205  :         mmRet = MMSYSERR_INVALPARAM;

  00030	13a0000b	 movne       r0, #0xB

; 227  : 
; 228  :     DEBUGMSG(ZONE_FUNCTION,
; 229  :         (L"WAV:-CInputStreamManager::get_AudioValue()\r\n"));
; 230  : 
; 231  : Error:
; 232  : 
; 233  :     return mmRet;
; 234  : }

  00034	18bd4030	 ldmneia     sp!, {r4, r5, lr}
  00038	112fff1e	 bxne        lr

; 206  :         goto Error;
; 207  :     }
; 208  : 
; 209  :     DWORD dwGain;
; 210  :     DWORD dwGainL, dwGainR;
; 211  : 
; 212  :     // Get gain.
; 213  :     dwGain = get_Gain();

  0003c	e5122078	 ldr         r2, [r2, #-0x78]
  00040	e3a03cff	 mov         r3, #0xFF, 24

; 214  : 
; 215  :     // Low word is left channel.
; 216  :     dwGainL = dwGain & 0xFFFF;

  00044	e38330ff	 orr         r3, r3, #0xFF

; 217  : 
; 218  :     // Get right channel.
; 219  : #if (MONO_GAIN)
; 220  :     dwGainR = dwGainL;
; 221  : #else
; 222  :     dwGainR = (dwGain >> 16) & 0xFFFF;
; 223  : #endif
; 224  : 
; 225  :     // Return the average of left and right channels.
; 226  :     pValue[0].dwValue = (dwGainL + dwGainR) / 2;

  00048	e5d54014	 ldrb        r4, [r5, #0x14]
  0004c	e5d51015	 ldrb        r1, [r5, #0x15]
  00050	e0023003	 and         r3, r2, r3
  00054	e5d5e016	 ldrb        lr, [r5, #0x16]
  00058	e0832822	 add         r2, r3, r2, lsr #16
  0005c	e5d55017	 ldrb        r5, [r5, #0x17]
  00060	e1843401	 orr         r3, r4, r1, lsl #8
  00064	e1a040a2	 mov         r4, r2, lsr #1
  00068	e183380e	 orr         r3, r3, lr, lsl #16
  0006c	e1a02424	 mov         r2, r4, lsr #8
  00070	e1a01824	 mov         r1, r4, lsr #16
  00074	e1a0ec24	 mov         lr, r4, lsr #24
  00078	e1833c05	 orr         r3, r3, r5, lsl #24
  0007c	e5c32001	 strb        r2, [r3, #1]
  00080	e5c31002	 strb        r1, [r3, #2]
  00084	e5c3e003	 strb        lr, [r3, #3]
  00088	e5c34000	 strb        r4, [r3]
  0008c		 |$Error$35141|

; 227  : 
; 228  :     DEBUGMSG(ZONE_FUNCTION,
; 229  :         (L"WAV:-CInputStreamManager::get_AudioValue()\r\n"));
; 230  : 
; 231  : Error:
; 232  : 
; 233  :     return mmRet;
; 234  : }

  0008c	e8bd4030	 ldmia       sp!, {r4, r5, lr}
  00090	e12fff1e	 bx          lr
  00094		 |$M35852|

			 ENDP  ; |?get_AudioValue@CInputStreamManager@@UBAKPAVCAudioControlBase@@PAUtMIXERCONTROLDETAILS@@K@Z|, CInputStreamManager::get_AudioValue

	EXPORT	|?put_AudioValue@CInputStreamManager@@UAAKPAVCAudioControlBase@@PAUtMIXERCONTROLDETAILS@@K@Z| ; CInputStreamManager::put_AudioValue
; File c:\wince600\platform\z2170p\src\drivers\tps659xx_wave\strmmgr.h

  00000			 AREA	 |.pdata|, PDATA
|$T35873| DCD	|$LN12@put_AudioV|
	DCD	0x40002c01
; Function compile flags: /Ogspy
; File c:\wince600\platform\z2170p\src\drivers\tps659xx_wave\istrmmgr.cpp

  00000			 AREA	 |.text|, CODE, ARM

  00000		 |?put_AudioValue@CInputStreamManager@@UAAKPAVCAudioControlBase@@PAUtMIXERCONTROLDETAILS@@K@Z| PROC ; CInputStreamManager::put_AudioValue

; 246  : {

  00000		 |$LN12@put_AudioV|
  00000	e92d4070	 stmdb       sp!, {r4 - r6, lr}
  00004		 |$M35870|
  00004	e1a05002	 mov         r5, r2
  00008	e1a06000	 mov         r6, r0

; 247  :     DWORD dwGain = (DWORD) -1;
; 248  :     MMRESULT mmRet = MMSYSERR_NOERROR;
; 249  : 
; 250  :     UNREFERENCED_PARAMETER(dwFlag);
; 251  :     UNREFERENCED_PARAMETER(pControl);
; 252  : 
; 253  :     DEBUGMSG(ZONE_FUNCTION,
; 254  :         (L"WAV:+CInputStreamManager::put_AudioValue()\r\n"));
; 255  : 
; 256  :     MIXERCONTROLDETAILS_UNSIGNED *pValue;
; 257  :     pValue = (MIXERCONTROLDETAILS_UNSIGNED *) pDetail->paDetails;
; 258  : 
; 259  :     // Validate number of channels to set.
; 260  :     if (pDetail->cChannels != 1)

  0000c	e5d54008	 ldrb        r4, [r5, #8]
  00010	e5d53009	 ldrb        r3, [r5, #9]
  00014	e5d5100a	 ldrb        r1, [r5, #0xA]
  00018	e5d5e00b	 ldrb        lr, [r5, #0xB]
  0001c	e1843403	 orr         r3, r4, r3, lsl #8
  00020	e1833801	 orr         r3, r3, r1, lsl #16
  00024	e1833c0e	 orr         r3, r3, lr, lsl #24
  00028	e3530001	 cmp         r3, #1

; 261  :     {
; 262  :         mmRet = MMSYSERR_INVALPARAM;

  0002c	1a000011	 bne         |$LN9@put_AudioV|

; 263  :         goto Error;
; 264  :     }
; 265  : 
; 266  :     dwGain = pValue[0].dwValue;

  00030	e5d50014	 ldrb        r0, [r5, #0x14]
  00034	e5d53015	 ldrb        r3, [r5, #0x15]
  00038	e5d52016	 ldrb        r2, [r5, #0x16]
  0003c	e5d51017	 ldrb        r1, [r5, #0x17]
  00040	e1803403	 orr         r3, r0, r3, lsl #8
  00044	e1833802	 orr         r3, r3, r2, lsl #16
  00048	e1831c01	 orr         r1, r3, r1, lsl #24
  0004c	e5d10000	 ldrb        r0, [r1]
  00050	e5d13001	 ldrb        r3, [r1, #1]
  00054	e5d12002	 ldrb        r2, [r1, #2]
  00058	e5d11003	 ldrb        r1, [r1, #3]
  0005c	e1803403	 orr         r3, r0, r3, lsl #8
  00060	e1833802	 orr         r3, r3, r2, lsl #16
  00064	e3a00cff	 mov         r0, #0xFF, 24
  00068	e1832c01	 orr         r2, r3, r1, lsl #24

; 267  : 
; 268  :     // Validate max setting.
; 269  :     if (dwGain > LOGICAL_VOLUME_MAX)

  0006c	e38030ff	 orr         r3, r0, #0xFF
  00070	e1520003	 cmp         r2, r3
  00074	9a000002	 bls         |$LN2@put_AudioV|
  00078		 |$LN9@put_AudioV|

; 270  :     {
; 271  :         mmRet = MMSYSERR_INVALPARAM;

  00078	e3a0000b	 mov         r0, #0xB

; 281  : 
; 282  : Error:
; 283  : 
; 284  :     DEBUGMSG(ZONE_FUNCTION,
; 285  :         (L"WAV:-CInputStreamManager::put_AudioValue(dwGain=0x%08X)\r\n", dwGain)
; 286  :         );
; 287  : 
; 288  :     return mmRet;
; 289  : }

  0007c	e8bd4070	 ldmia       sp!, {r4 - r6, lr}
  00080	e12fff1e	 bx          lr
  00084		 |$LN2@put_AudioV|

; 272  :         goto Error;
; 273  :     }
; 274  : 
; 275  : #if !(MONO_GAIN)
; 276  :     // Apply to left and right channels.
; 277  :     dwGain = (dwGain << 16) | dwGain;
; 278  : #endif
; 279  : 
; 280  :     mmRet = put_Gain(dwGain);

  00084	e2461084	 sub         r1, r6, #0x84
  00088	e5913000	 ldr         r3, [r1]
  0008c	e1822802	 orr         r2, r2, r2, lsl #16
  00090	e1a00001	 mov         r0, r1
  00094	e5933010	 ldr         r3, [r3, #0x10]
  00098	e581200c	 str         r2, [r1, #0xC]
  0009c	e1a0e00f	 mov         lr, pc
  000a0	e12fff13	 bx          r3
  000a4	e3a00000	 mov         r0, #0
  000a8		 |$Error$35160|

; 281  : 
; 282  : Error:
; 283  : 
; 284  :     DEBUGMSG(ZONE_FUNCTION,
; 285  :         (L"WAV:-CInputStreamManager::put_AudioValue(dwGain=0x%08X)\r\n", dwGain)
; 286  :         );
; 287  : 
; 288  :     return mmRet;
; 289  : }

  000a8	e8bd4070	 ldmia       sp!, {r4 - r6, lr}
  000ac	e12fff1e	 bx          lr
  000b0		 |$M35871|

			 ENDP  ; |?put_AudioValue@CInputStreamManager@@UAAKPAVCAudioControlBase@@PAUtMIXERCONTROLDETAILS@@K@Z|, CInputStreamManager::put_AudioValue

	EXPORT	|?GetProperty@CInputStreamManager@@UAAKPAUtag_WAVEPROPINFO@@@Z| ; CInputStreamManager::GetProperty
	IMPORT	|?GetProperty@CStreamManager@@UAAKPAUtag_WAVEPROPINFO@@@Z| ; CStreamManager::GetProperty
; File c:\wince600\platform\z2170p\src\drivers\tps659xx_wave\istrmmgr.h

  00000			 AREA	 |.pdata|, PDATA
|$T35888| DCD	|$LN8@GetPropert|
	DCD	0x40000b01
; Function compile flags: /Ogspy
; File c:\wince600\platform\z2170p\src\drivers\tps659xx_wave\istrmmgr.cpp

  00000			 AREA	 |.text|, CODE, ARM

  00000		 |?GetProperty@CInputStreamManager@@UAAKPAUtag_WAVEPROPINFO@@@Z| PROC ; CInputStreamManager::GetProperty

; 296  : {

  00000		 |$LN8@GetPropert|
  00000	e92d4030	 stmdb       sp!, {r4, r5, lr}
  00004		 |$M35885|
  00004	e1a04001	 mov         r4, r1
  00008	e1a05000	 mov         r5, r0

; 297  :     // Call base class.
; 298  :     DWORD mmRet = CStreamManager::GetProperty(pPropInfo);

  0000c	eb000000	 bl          |?GetProperty@CStreamManager@@UAAKPAUtag_WAVEPROPINFO@@@Z|

; 299  : 
; 300  :     // Forward to hardware context if not supported.
; 301  :     if (MMSYSERR_NOTSUPPORTED == mmRet)

  00010	e3500008	 cmp         r0, #8

; 302  :     {
; 303  :         mmRet = GetInputProperty(pPropInfo);

  00014	03a02001	 moveq       r2, #1
  00018	01a01004	 moveq       r1, r4
  0001c	01a00005	 moveq       r0, r5
  00020	0b000000	 bleq        |?CommonGetProperty@CStreamManager@@IAAKPAUtag_WAVEPROPINFO@@H@Z|

; 304  :     }
; 305  : 
; 306  :     return mmRet;
; 307  : }

  00024	e8bd4030	 ldmia       sp!, {r4, r5, lr}
  00028	e12fff1e	 bx          lr
  0002c		 |$M35886|

			 ENDP  ; |?GetProperty@CInputStreamManager@@UAAKPAUtag_WAVEPROPINFO@@@Z|, CInputStreamManager::GetProperty

	EXPORT	|?SetProperty@CInputStreamManager@@UAAKPAUtag_WAVEPROPINFO@@@Z| ; CInputStreamManager::SetProperty
	IMPORT	|?SetProperty@CStreamManager@@UAAKPAUtag_WAVEPROPINFO@@@Z| ; CStreamManager::SetProperty
; File c:\wince600\platform\z2170p\src\drivers\tps659xx_wave\istrmmgr.h

  00000			 AREA	 |.pdata|, PDATA
|$T35903| DCD	|$LN8@SetPropert|
	DCD	0x40000b01
; Function compile flags: /Ogspy
; File c:\wince600\platform\z2170p\src\drivers\tps659xx_wave\istrmmgr.cpp

  00000			 AREA	 |.text|, CODE, ARM

  00000		 |?SetProperty@CInputStreamManager@@UAAKPAUtag_WAVEPROPINFO@@@Z| PROC ; CInputStreamManager::SetProperty

; 314  : {

  00000		 |$LN8@SetPropert|
  00000	e92d4030	 stmdb       sp!, {r4, r5, lr}
  00004		 |$M35900|
  00004	e1a04001	 mov         r4, r1
  00008	e1a05000	 mov         r5, r0

; 315  :     // Call base class.
; 316  :     DWORD mmRet = CStreamManager::SetProperty(pPropInfo);

  0000c	eb000000	 bl          |?SetProperty@CStreamManager@@UAAKPAUtag_WAVEPROPINFO@@@Z|

; 317  : 
; 318  :     // Forward to hardware context if not supported.
; 319  :     if (MMSYSERR_NOTSUPPORTED == mmRet)

  00010	e3500008	 cmp         r0, #8

; 320  :     {
; 321  :         mmRet = SetInputProperty(pPropInfo);

  00014	03a02001	 moveq       r2, #1
  00018	01a01004	 moveq       r1, r4
  0001c	01a00005	 moveq       r0, r5
  00020	0b000000	 bleq        |?CommonSetProperty@CStreamManager@@IAAKPAUtag_WAVEPROPINFO@@H@Z|

; 322  :     }
; 323  : 
; 324  :     return mmRet;
; 325  : }

  00024	e8bd4030	 ldmia       sp!, {r4, r5, lr}
  00028	e12fff1e	 bx          lr
  0002c		 |$M35901|

			 ENDP  ; |?SetProperty@CInputStreamManager@@UAAKPAUtag_WAVEPROPINFO@@@Z|, CInputStreamManager::SetProperty

	EXPORT	|?initialize_AudioLine@CMicrophoneInputSource@@UAAHPAVCAudioMixerManager@@@Z| ; CMicrophoneInputSource::initialize_AudioLine

  00000			 AREA	 |.pdata|, PDATA
|$T35914| DCD	|$LN5@initialize@2|
	DCD	0x40000c01
; Function compile flags: /Ogspy

  00000			 AREA	 |.text|, CODE, ARM

  00000		 |?initialize_AudioLine@CMicrophoneInputSource@@UAAHPAVCAudioMixerManager@@@Z| PROC ; CMicrophoneInputSource::initialize_AudioLine

; 334  : {

  00000		 |$LN5@initialize@2|
  00000	e92d4030	 stmdb       sp!, {r4, r5, lr}
  00004		 |$M35911|
  00004	e1a05001	 mov         r5, r1
  00008	e1a04000	 mov         r4, r0

; 335  :     DEBUGMSG(ZONE_FUNCTION,
; 336  :         (L"WAV:+CMicrophoneInputSource::initialize_AudioLine()\r\n"));
; 337  : 
; 338  :     // initialize audio controls
; 339  :     //
; 340  :     register_AudioControl(&m_MicMuteControl);

  0000c	e2841030	 add         r1, r4, #0x30
  00010	eb000000	 bl          |?register_AudioControl@CAudioLineBase@@QAAKPAVCAudioControlBase@@@Z|

; 341  : 
; 342  :     // register as the default microphone mute control
; 343  :     //
; 344  :     pAudioMixerManager->put_AudioMixerControl(
; 345  :         CAudioMixerManager::kWavInMuteControl, &m_MicMuteControl);

  00014	e2842030	 add         r2, r4, #0x30
  00018	e3a01002	 mov         r1, #2
  0001c	e1a00005	 mov         r0, r5
  00020	eb000000	 bl          |?put_AudioMixerControl@CAudioMixerManager@@QAAXW4AudioMixerControl@1@PAVCAudioControlBase@@@Z|

; 346  : 
; 347  :     DEBUGMSG(ZONE_FUNCTION,
; 348  :         (L"WAV:-CMicrophoneInputSource::initialize_AudioLine()\r\n"));
; 349  : 
; 350  :     return TRUE;

  00024	e3a00001	 mov         r0, #1

; 351  : }

  00028	e8bd4030	 ldmia       sp!, {r4, r5, lr}
  0002c	e12fff1e	 bx          lr
  00030		 |$M35912|

			 ENDP  ; |?initialize_AudioLine@CMicrophoneInputSource@@UAAHPAVCAudioMixerManager@@@Z|, CMicrophoneInputSource::initialize_AudioLine

	EXPORT	|?get_AudioValue@CMicrophoneInputSource@@UBAKPAVCAudioControlBase@@PAUtMIXERCONTROLDETAILS@@K@Z| ; CMicrophoneInputSource::get_AudioValue
; File c:\wince600\platform\z2170p\src\drivers\tps659xx_wave\strmmgr.h

  00000			 AREA	 |.pdata|, PDATA
|$T35929| DCD	|$LN7@get_AudioV@2|
	DCD	0x40001401
; Function compile flags: /Ogspy
; File c:\wince600\platform\z2170p\src\drivers\tps659xx_wave\istrmmgr.cpp

  00000			 AREA	 |.text|, CODE, ARM

  00000		 |?get_AudioValue@CMicrophoneInputSource@@UBAKPAVCAudioControlBase@@PAUtMIXERCONTROLDETAILS@@K@Z| PROC ; CMicrophoneInputSource::get_AudioValue

; 362  : {

  00000		 |$LN7@get_AudioV@2|
  00000	e92d4010	 stmdb       sp!, {r4, lr}
  00004		 |$M35926|

; 363  :     DEBUGMSG(ZONE_FUNCTION,
; 364  :         (L"WAV:+CMicrophoneInputSource::get_AudioValue()\r\n"));
; 365  : 
; 366  :     UNREFERENCED_PARAMETER(dwFlag);
; 367  :     UNREFERENCED_PARAMETER(pControl);
; 368  : 
; 369  :     ASSERT(pControl->get_ControlType() == MIXERCONTROL_CONTROLTYPE_BOOLEAN);
; 370  : 
; 371  :     // query micrphone mute
; 372  :     //
; 373  :     MIXERCONTROLDETAILS_BOOLEAN * pValue =
; 374  :                 (MIXERCONTROLDETAILS_BOOLEAN * ) pDetail->paDetails;
; 375  : 
; 376  :     pValue[0].fValue = m_pInputStreamManager->get_Mute();

  00004	e590102c	 ldr         r1, [r0, #0x2C]
  00008	e5d20014	 ldrb        r0, [r2, #0x14]
  0000c	e5d23015	 ldrb        r3, [r2, #0x15]
  00010	e5d2e016	 ldrb        lr, [r2, #0x16]
  00014	e5d22017	 ldrb        r2, [r2, #0x17]
  00018	e5914010	 ldr         r4, [r1, #0x10]
  0001c	e1803403	 orr         r3, r0, r3, lsl #8
  00020	e183380e	 orr         r3, r3, lr, lsl #16
  00024	e1830c02	 orr         r0, r3, r2, lsl #24
  00028	e1a03824	 mov         r3, r4, lsr #16
  0002c	e1a02c24	 mov         r2, r4, lsr #24
  00030	e1a01424	 mov         r1, r4, lsr #8
  00034	e5c03002	 strb        r3, [r0, #2]
  00038	e5c02003	 strb        r2, [r0, #3]
  0003c	e5c04000	 strb        r4, [r0]
  00040	e5c01001	 strb        r1, [r0, #1]

; 377  : 
; 378  :     DEBUGMSG(ZONE_FUNCTION,
; 379  :         (L"WAV:-CMicrophoneInputSource::get_AudioValue()\r\n"));
; 380  : 
; 381  :     return MMSYSERR_NOERROR;

  00044	e3a00000	 mov         r0, #0

; 382  : }

  00048	e8bd4010	 ldmia       sp!, {r4, lr}
  0004c	e12fff1e	 bx          lr
  00050		 |$M35927|

			 ENDP  ; |?get_AudioValue@CMicrophoneInputSource@@UBAKPAVCAudioControlBase@@PAUtMIXERCONTROLDETAILS@@K@Z|, CMicrophoneInputSource::get_AudioValue

	EXPORT	|?put_AudioValue@CMicrophoneInputSource@@UAAKPAVCAudioControlBase@@PAUtMIXERCONTROLDETAILS@@K@Z| ; CMicrophoneInputSource::put_AudioValue
; File c:\wince600\platform\z2170p\src\drivers\tps659xx_wave\strmmgr.h

  00000			 AREA	 |.pdata|, PDATA
|$T35946| DCD	|$LN7@put_AudioV@2|
	DCD	0x40001801
; Function compile flags: /Ogspy
; File c:\wince600\platform\z2170p\src\drivers\tps659xx_wave\istrmmgr.cpp

  00000			 AREA	 |.text|, CODE, ARM

  00000		 |?put_AudioValue@CMicrophoneInputSource@@UAAKPAVCAudioControlBase@@PAUtMIXERCONTROLDETAILS@@K@Z| PROC ; CMicrophoneInputSource::put_AudioValue

; 393  : {

  00000		 |$LN7@put_AudioV@2|
  00000	e92d4010	 stmdb       sp!, {r4, lr}
  00004		 |$M35943|

; 394  :     DEBUGMSG(ZONE_FUNCTION,
; 395  :         (L"WAV:+CMicrophoneInputSource::put_AudioValue()\r\n"));
; 396  : 
; 397  :     UNREFERENCED_PARAMETER(dwFlag);
; 398  :     UNREFERENCED_PARAMETER(pControl);
; 399  :     
; 400  :     ASSERT(pControl->get_ControlType() == MIXERCONTROL_CONTROLTYPE_BOOLEAN);
; 401  : 
; 402  :     // set microphone mute
; 403  :     //
; 404  :     MIXERCONTROLDETAILS_BOOLEAN * pValue =
; 405  :                 (MIXERCONTROLDETAILS_BOOLEAN * ) pDetail->paDetails;
; 406  : 
; 407  :     DEBUGMSG(ZONE_FUNCTION,
; 408  :         (L"WAV:-CMicrophoneInputSource::put_AudioValue()\r\n"));
; 409  : 
; 410  :     return m_pInputStreamManager->put_Mute(pValue[0].fValue);

  00004	e5d2e014	 ldrb        lr, [r2, #0x14]
  00008	e5d23015	 ldrb        r3, [r2, #0x15]
  0000c	e5d21016	 ldrb        r1, [r2, #0x16]
  00010	e5d22017	 ldrb        r2, [r2, #0x17]
  00014	e18e3403	 orr         r3, lr, r3, lsl #8
  00018	e1833801	 orr         r3, r3, r1, lsl #16
  0001c	e1834c02	 orr         r4, r3, r2, lsl #24
  00020	e5d42000	 ldrb        r2, [r4]
  00024	e5d43001	 ldrb        r3, [r4, #1]
  00028	e590002c	 ldr         r0, [r0, #0x2C]
  0002c	e5d41002	 ldrb        r1, [r4, #2]
  00030	e1823403	 orr         r3, r2, r3, lsl #8
  00034	e5d42003	 ldrb        r2, [r4, #3]
  00038	e590e000	 ldr         lr, [r0]
  0003c	e1833801	 orr         r3, r3, r1, lsl #16
  00040	e1833c02	 orr         r3, r3, r2, lsl #24
  00044	e59e1010	 ldr         r1, [lr, #0x10]
  00048	e5803010	 str         r3, [r0, #0x10]
  0004c	e1a0e00f	 mov         lr, pc
  00050	e12fff11	 bx          r1
  00054	e3a00000	 mov         r0, #0

; 411  : }

  00058	e8bd4010	 ldmia       sp!, {r4, lr}
  0005c	e12fff1e	 bx          lr
  00060		 |$M35944|

			 ENDP  ; |?put_AudioValue@CMicrophoneInputSource@@UAAKPAVCAudioControlBase@@PAUtMIXERCONTROLDETAILS@@K@Z|, CMicrophoneInputSource::put_AudioValue

; File c:\wince600\platform\z2170p\src\drivers\tps659xx_wave\audioctrl.h

  00000			 AREA	 |.pdata|, PDATA
|$T35955| DCD	|$LN5@get_Contro|
	DCD	0x40000300
; Function compile flags: /Ogspy

  00000			 AREA	 |.text|, CODE, ARM

  00000		 |?get_ControlType@?$CAudioControlType@$0CAABAAAA@@@UBAKXZ| PROC ; CAudioControlType<536936448>::get_ControlType

; 126  :     virtual DWORD get_ControlType() const   { return ControlType; }

  00000		 |$LN5@get_Contro|
  00000		 |$M35952|
  00000	e3a03202	 mov         r3, #2, 4
  00004	e3830801	 orr         r0, r3, #1, 16
  00008	e12fff1e	 bx          lr
  0000c		 |$M35953|

			 ENDP  ; |?get_ControlType@?$CAudioControlType@$0CAABAAAA@@@UBAKXZ|, CAudioControlType<536936448>::get_ControlType

	EXPORT	|??0CAudioControl_MicMute@@QAA@XZ|	; CAudioControl_MicMute::CAudioControl_MicMute
	EXPORT	|??_7CAudioControl_MicMute@@6B@| [ DATA ] ; CAudioControl_MicMute::`vftable'
	EXPORT	|?copy_ControlInfo@CAudioControl_MicMute@@UAAXPAUtMIXERCONTROL@@@Z| ; CAudioControl_MicMute::copy_ControlInfo
	EXPORT	|?get_Name@CAudioControl_MicMute@@UBAPBGXZ| ; CAudioControl_MicMute::get_Name
	EXPORT	|?get_ShortName@CAudioControl_MicMute@@UBAPBGXZ| ; CAudioControl_MicMute::get_ShortName

  00000			 AREA	 |.pdata|, PDATA
|$T35968| DCD	|$LN7@CAudioCont@2|
	DCD	0x40000901

  00000			 AREA	 |.rdata|, DATA, READONLY
|??_7CAudioControl_MicMute@@6B@| DCD |?get_MultipleItemCount@CAudioControlBase@@UBAKXZ| ; CAudioControl_MicMute::`vftable'
	DCD	|?get_StatusFlag@CAudioControlBase@@UBAKXZ|
	DCD	|?copy_ControlInfo@CAudioControl_MicMute@@UAAXPAUtMIXERCONTROL@@@Z|
	DCD	|?put_Value@CAudioControlBase@@UAAKPAUtMIXERCONTROLDETAILS@@K@Z|
	DCD	|?get_Value@CAudioControlBase@@UAAKPAUtMIXERCONTROLDETAILS@@K@Z|
	DCD	|?get_Name@CAudioControl_MicMute@@UBAPBGXZ|
	DCD	|?get_ShortName@CAudioControl_MicMute@@UBAPBGXZ|
	DCD	|?get_ControlType@?$CAudioControlType@$0CAABAAAA@@@UBAKXZ|
; Function compile flags: /Ogspy

  00000			 AREA	 |.text|, CODE, ARM

  00000		 |??0CAudioControl_MicMute@@QAA@XZ| PROC ; CAudioControl_MicMute::CAudioControl_MicMute
  00000		 |$LN7@CAudioCont@2|
  00000	e92d4010	 stmdb       sp!, {r4, lr}
  00004		 |$M35965|
  00004	e1a04000	 mov         r4, r0
  00008	eb000000	 bl          |??0CAudioControlBase@@QAA@XZ|
  0000c	e59f300c	 ldr         r3, [pc, #0xC]
  00010	e1a00004	 mov         r0, r4
  00014	e5843000	 str         r3, [r4]
  00018	e8bd4010	 ldmia       sp!, {r4, lr}
  0001c	e12fff1e	 bx          lr
  00020		 |$LN8@CAudioCont@2|
  00020		 |$LN9@CAudioCont@2|
  00020	00000000	 DCD         |??_7CAudioControl_MicMute@@6B@|
  00024		 |$M35966|

			 ENDP  ; |??0CAudioControl_MicMute@@QAA@XZ|, CAudioControl_MicMute::CAudioControl_MicMute

	EXPORT	|??_C@_1BC@MOMKCGGI@?$AAM?$AAi?$AAc?$AA?5?$AAM?$AAu?$AAt?$AAe?$AA?$AA@| [ DATA ] ; `string'
; File c:\wince600\platform\z2170p\src\drivers\tps659xx_wave\istrmmgr.h

  00000			 AREA	 |.pdata|, PDATA
|$T35979| DCD	|$LN5@get_Name|
	DCD	0x40000300

  00000			 AREA	 |.rdata|, DATA, READONLY
|??_C@_1BC@MOMKCGGI@?$AAM?$AAi?$AAc?$AA?5?$AAM?$AAu?$AAt?$AAe?$AA?$AA@| DCB "M"
	DCB	0x0, "i", 0x0, "c", 0x0, " ", 0x0, "M", 0x0, "u", 0x0, "t"
	DCB	0x0, "e", 0x0, 0x0, 0x0			; `string'
; Function compile flags: /Ogspy

  00000			 AREA	 |.text|, CODE, ARM

  00000		 |?get_Name@CAudioControl_MicMute@@UBAPBGXZ| PROC ; CAudioControl_MicMute::get_Name

; 57   :     virtual WCHAR const* get_Name() const { return L"Mic Mute"; }

  00000		 |$LN5@get_Name|
  00000		 |$M35976|
  00000	e59f0000	 ldr         r0, [pc]
  00004	e12fff1e	 bx          lr
  00008		 |$LN6@get_Name|
  00008		 |$LN7@get_Name|
  00008	00000000	 DCD         |??_C@_1BC@MOMKCGGI@?$AAM?$AAi?$AAc?$AA?5?$AAM?$AAu?$AAt?$AAe?$AA?$AA@|
  0000c		 |$M35977|

			 ENDP  ; |?get_Name@CAudioControl_MicMute@@UBAPBGXZ|, CAudioControl_MicMute::get_Name

	EXPORT	|??_C@_19PMKMMIL@?$AAM?$AAu?$AAt?$AAe?$AA?$AA@| [ DATA ] ; `string'

  00000			 AREA	 |.pdata|, PDATA
|$T35990| DCD	|$LN5@get_ShortN|
	DCD	0x40000300

  00000			 AREA	 |.rdata|, DATA, READONLY
|??_C@_19PMKMMIL@?$AAM?$AAu?$AAt?$AAe?$AA?$AA@| DCB "M", 0x0, "u", 0x0, "t"
	DCB	0x0, "e", 0x0, 0x0, 0x0			; `string'
; Function compile flags: /Ogspy

  00000			 AREA	 |.text|, CODE, ARM

  00000		 |?get_ShortName@CAudioControl_MicMute@@UBAPBGXZ| PROC ; CAudioControl_MicMute::get_ShortName

; 58   :     virtual WCHAR const* get_ShortName() const { return L"Mute"; }

  00000		 |$LN5@get_ShortN|
  00000		 |$M35987|
  00000	e59f0000	 ldr         r0, [pc]
  00004	e12fff1e	 bx          lr
  00008		 |$LN6@get_ShortN|
  00008		 |$LN7@get_ShortN|
  00008	00000000	 DCD         |??_C@_19PMKMMIL@?$AAM?$AAu?$AAt?$AAe?$AA?$AA@|
  0000c		 |$M35988|

			 ENDP  ; |?get_ShortName@CAudioControl_MicMute@@UBAPBGXZ|, CAudioControl_MicMute::get_ShortName


  00000			 AREA	 |.pdata|, PDATA
|$T36001| DCD	|$LN5@copy_Contr|
	DCD	0x40001301
; Function compile flags: /Ogspy

  00000			 AREA	 |.text|, CODE, ARM

  00000		 |?copy_ControlInfo@CAudioControl_MicMute@@UAAXPAUtMIXERCONTROL@@@Z| PROC ; CAudioControl_MicMute::copy_ControlInfo

; 62   :     {

  00000		 |$LN5@copy_Contr|
  00000	e92d4010	 stmdb       sp!, {r4, lr}
  00004		 |$M35998|
  00004	e1a04001	 mov         r4, r1

; 63   :         CAudioControlType<MIXERCONTROL_CONTROLTYPE_BOOLEAN>::
; 64   :             copy_ControlInfo(pControlInfo);

  00008	eb000000	 bl          |?copy_ControlInfo@CAudioControlBase@@UAAXPAUtMIXERCONTROL@@@Z|

; 65   : 
; 66   :         pControlInfo->Bounds.dwMinimum = 0;
; 67   :         pControlInfo->Bounds.dwMaximum = 1;

  0000c	e3a03001	 mov         r3, #1
  00010	e3a02000	 mov         r2, #0
  00014	e5c430b8	 strb        r3, [r4, #0xB8]
  00018	e5c420b4	 strb        r2, [r4, #0xB4]
  0001c	e5c420b5	 strb        r2, [r4, #0xB5]
  00020	e5c420b6	 strb        r2, [r4, #0xB6]
  00024	e5c420b7	 strb        r2, [r4, #0xB7]
  00028	e5c420b9	 strb        r2, [r4, #0xB9]
  0002c	e5c420ba	 strb        r2, [r4, #0xBA]
  00030	e5c420bb	 strb        r2, [r4, #0xBB]

; 68   :         pControlInfo->Metrics.cSteps =  0;

  00034	e5c420cc	 strb        r2, [r4, #0xCC]
  00038	e5c420cd	 strb        r2, [r4, #0xCD]
  0003c	e5c420ce	 strb        r2, [r4, #0xCE]
  00040	e5c420cf	 strb        r2, [r4, #0xCF]

; 69   :     }

  00044	e8bd4010	 ldmia       sp!, {r4, lr}
  00048	e12fff1e	 bx          lr
  0004c		 |$M35999|

			 ENDP  ; |?copy_ControlInfo@CAudioControl_MicMute@@UAAXPAUtMIXERCONTROL@@@Z|, CAudioControl_MicMute::copy_ControlInfo

	EXPORT	|??0InputStreamContext@@QAA@XZ|		; InputStreamContext::InputStreamContext
	EXPORT	|??_7InputStreamContext@@6B@| [ DATA ]	; InputStreamContext::`vftable'
	EXPORT	|?DoCallbackReturnBuffer@InputStreamContext@@UAAHPAUwavehdr_tag@@@Z| ; InputStreamContext::DoCallbackReturnBuffer
	EXPORT	|?DoCallbackStreamOpened@InputStreamContext@@UAAHXZ| ; InputStreamContext::DoCallbackStreamOpened
	EXPORT	|?DoCallbackStreamClosed@InputStreamContext@@UAAHXZ| ; InputStreamContext::DoCallbackStreamClosed
	IMPORT	|??_EInputStreamContext@@UAAPAXI@Z|, WEAK |??_GInputStreamContext@@UAAPAXI@Z| ; InputStreamContext::`vector deleting destructor', InputStreamContext::`scalar deleting destructor'
	IMPORT	|?GetStreamDirection@InputStreamContext@@UAAIXZ| ; InputStreamContext::GetStreamDirection
	IMPORT	|?Open@InputStreamContext@@UAAJPAVCStreamManager@@PAUwaveopendesc_tag@@K@Z| ; InputStreamContext::Open
	IMPORT	|?Stop@InputStreamContext@@UAAKXZ|	; InputStreamContext::Stop
	IMPORT	|?SetRate@InputStreamContext@@UAAKK@Z|	; InputStreamContext::SetRate
	IMPORT	|?MapGain@InputStreamContext@@UAAKKK@Z|	; InputStreamContext::MapGain
	IMPORT	|?Render2@InputStreamContext@@UAAPAEPAE00H@Z| ; InputStreamContext::Render2

  00000			 AREA	 |.pdata|, PDATA
|$T36019| DCD	|$LN9@InputStrea|
	DCD	0x40000500

  00000			 AREA	 |.rdata|, DATA, READONLY
|??_7InputStreamContext@@6B@| DCD |??_EInputStreamContext@@UAAPAXI@Z| ; InputStreamContext::`vftable'
	DCD	|?GetStreamDirection@InputStreamContext@@UAAIXZ|
	DCD	|?Open@InputStreamContext@@UAAJPAVCStreamManager@@PAUwaveopendesc_tag@@K@Z|
	DCD	|?Close@StreamContext@@UAAKXZ|
	DCD	|?GetPos@StreamContext@@UAAKPAUmmtime_tag@@@Z|
	DCD	|?Run@StreamContext@@UAAKXZ|
	DCD	|?Stop@InputStreamContext@@UAAKXZ|
	DCD	|?Reset@StreamContext@@UAAKXZ|
	DCD	|?Render@WaveStreamContext@@UAAPAEPAE00H@Z|
	DCD	|?DoCallbackReturnBuffer@InputStreamContext@@UAAHPAUwavehdr_tag@@@Z|
	DCD	|?DoCallbackStreamOpened@InputStreamContext@@UAAHXZ|
	DCD	|?DoCallbackStreamClosed@InputStreamContext@@UAAHXZ|
	DCD	|?QueueBuffer@StreamContext@@UAAKPAUwavehdr_tag@@@Z|
	DCD	|?GetRate@WaveStreamContext@@UBAKPAK@Z|
	DCD	|?SetRate@InputStreamContext@@UAAKK@Z|
	DCD	|?MapGain@InputStreamContext@@UAAKKK@Z|
	DCD	|?GainChange@StreamContext@@UAAXXZ|
	DCD	|?Render2@InputStreamContext@@UAAPAEPAE00H@Z|
; Function compile flags: /Ogspy

  00000			 AREA	 |.text|, CODE, ARM

  00000		 |??0InputStreamContext@@QAA@XZ| PROC	; InputStreamContext::InputStreamContext
  00000		 |$LN9@InputStrea|
  00000		 |$M36016|
  00000	e1a02000	 mov         r2, r0
  00004	e59f3004	 ldr         r3, [pc, #4]
  00008	e5823000	 str         r3, [r2]
  0000c	e12fff1e	 bx          lr
  00010		 |$LN10@InputStrea|
  00010		 |$LN11@InputStrea|
  00010	00000000	 DCD         |??_7InputStreamContext@@6B@|
  00014		 |$M36017|

			 ENDP  ; |??0InputStreamContext@@QAA@XZ|, InputStreamContext::InputStreamContext

; File c:\wince600\platform\z2170p\src\drivers\tps659xx_wave\strmctxt.h

  00000			 AREA	 |.pdata|, PDATA
|$T36033| DCD	|$LN7@DoCallback@4|
	DCD	0x40000f02
; Function compile flags: /Ogspy

  00000			 AREA	 |.text|, CODE, ARM

  00000		 |?DoCallbackReturnBuffer@InputStreamContext@@UAAHPAUwavehdr_tag@@@Z| PROC ; InputStreamContext::DoCallbackReturnBuffer

; 208  :     {

  00000		 |$LN7@DoCallback@4|
  00000	e92d4030	 stmdb       sp!, {r4, r5, lr}
  00004	e24dd004	 sub         sp, sp, #4
  00008		 |$M36030|
  00008	e1a03001	 mov         r3, r1
  0000c	e1a01000	 mov         r1, r0

; 209  :         DEBUGMSG(ZONE_WIDM && ZONE_VERBOSE,(TEXT("WIDM: DoCallbackReturnBuffer\r\n")));
; 210  :         DoDriverCallback(WIM_DATA,(DWORD)lpHdr,0);

  00010	e5912020	 ldr         r2, [r1, #0x20]
  00014	e5910018	 ldr         r0, [r1, #0x18]
  00018	e591401c	 ldr         r4, [r1, #0x1C]
  0001c	e3a05000	 mov         r5, #0
  00020	e58d5000	 str         r5, [sp]
  00024	e3a01d0f	 mov         r1, #0xF, 26
  00028	e1a0e00f	 mov         lr, pc
  0002c	e12fff14	 bx          r4

; 211  :     }

  00030	e28dd004	 add         sp, sp, #4
  00034	e8bd4030	 ldmia       sp!, {r4, r5, lr}
  00038	e12fff1e	 bx          lr
  0003c		 |$M36031|

			 ENDP  ; |?DoCallbackReturnBuffer@InputStreamContext@@UAAHPAUwavehdr_tag@@@Z|, InputStreamContext::DoCallbackReturnBuffer


  00000			 AREA	 |.pdata|, PDATA
|$T36044| DCD	|$LN7@DoCallback@5|
	DCD	0x40001002
; Function compile flags: /Ogspy

  00000			 AREA	 |.text|, CODE, ARM

  00000		 |?DoCallbackStreamOpened@InputStreamContext@@UAAHXZ| PROC ; InputStreamContext::DoCallbackStreamOpened

; 213  :     {

  00000		 |$LN7@DoCallback@5|
  00000	e92d4030	 stmdb       sp!, {r4, r5, lr}
  00004	e24dd004	 sub         sp, sp, #4
  00008		 |$M36041|
  00008	e1a03000	 mov         r3, r0

; 214  :         DEBUGMSG(ZONE_WIDM && ZONE_VERBOSE,(TEXT("WIDM: DoCallbackStreamOpened\r\n")));
; 215  :         DoDriverCallback(WIM_OPEN,0,0);

  0000c	e5932020	 ldr         r2, [r3, #0x20]
  00010	e5930018	 ldr         r0, [r3, #0x18]
  00014	e593401c	 ldr         r4, [r3, #0x1C]
  00018	e3a03c03	 mov         r3, #3, 24
  0001c	e3a05000	 mov         r5, #0
  00020	e38310be	 orr         r1, r3, #0xBE
  00024	e3a03000	 mov         r3, #0
  00028	e58d5000	 str         r5, [sp]
  0002c	e1a0e00f	 mov         lr, pc
  00030	e12fff14	 bx          r4

; 216  :     }

  00034	e28dd004	 add         sp, sp, #4
  00038	e8bd4030	 ldmia       sp!, {r4, r5, lr}
  0003c	e12fff1e	 bx          lr
  00040		 |$M36042|

			 ENDP  ; |?DoCallbackStreamOpened@InputStreamContext@@UAAHXZ|, InputStreamContext::DoCallbackStreamOpened


  00000			 AREA	 |.pdata|, PDATA
|$T36055| DCD	|$LN7@DoCallback@6|
	DCD	0x40001002
; Function compile flags: /Ogspy

  00000			 AREA	 |.text|, CODE, ARM

  00000		 |?DoCallbackStreamClosed@InputStreamContext@@UAAHXZ| PROC ; InputStreamContext::DoCallbackStreamClosed

; 218  :     {

  00000		 |$LN7@DoCallback@6|
  00000	e92d4030	 stmdb       sp!, {r4, r5, lr}
  00004	e24dd004	 sub         sp, sp, #4
  00008		 |$M36052|
  00008	e1a03000	 mov         r3, r0

; 219  :         DEBUGMSG(ZONE_WIDM && ZONE_VERBOSE,(TEXT("WIDM: DoCallbackStreamOpened\r\n")));
; 220  :         DoDriverCallback(WIM_CLOSE,0,0);

  0000c	e5932020	 ldr         r2, [r3, #0x20]
  00010	e5930018	 ldr         r0, [r3, #0x18]
  00014	e593401c	 ldr         r4, [r3, #0x1C]
  00018	e3a03c03	 mov         r3, #3, 24
  0001c	e3a05000	 mov         r5, #0
  00020	e38310bf	 orr         r1, r3, #0xBF
  00024	e3a03000	 mov         r3, #0
  00028	e58d5000	 str         r5, [sp]
  0002c	e1a0e00f	 mov         lr, pc
  00030	e12fff14	 bx          r4

; 221  :     }

  00034	e28dd004	 add         sp, sp, #4
  00038	e8bd4030	 ldmia       sp!, {r4, r5, lr}
  0003c	e12fff1e	 bx          lr
  00040		 |$M36053|

			 ENDP  ; |?DoCallbackStreamClosed@InputStreamContext@@UAAHXZ|, InputStreamContext::DoCallbackStreamClosed

	EXPORT	|??1InputStreamContext@@UAA@XZ|		; InputStreamContext::~InputStreamContext

  00000			 AREA	 |.pdata|, PDATA
|$T36071| DCD	|$LN9@InputStrea@2|
	DCD	0x40000400
; Function compile flags: /Ogspy

  00000			 AREA	 |.text|, CODE, ARM

  00000		 |??1InputStreamContext@@UAA@XZ| PROC	; InputStreamContext::~InputStreamContext
  00000		 |$LN9@InputStrea@2|
  00000		 |$M36068|
  00000	e59f3004	 ldr         r3, [pc, #4]
  00004	e5803000	 str         r3, [r0]
  00008	e12fff1e	 bx          lr
  0000c		 |$LN10@InputStrea@2|
  0000c		 |$LN11@InputStrea@2|
  0000c	00000000	 DCD         |??_7StreamContext@@6B@|
  00010		 |$M36069|

			 ENDP  ; |??1InputStreamContext@@UAA@XZ|, InputStreamContext::~InputStreamContext


  00000			 AREA	 |.pdata|, PDATA
|$T36099| DCD	|$LN12@scalar@3|
	DCD	0x40000a01
; Function compile flags: /Ogspy

  00000			 AREA	 |.text|, CODE, ARM

  00000		 |??_GInputStreamContext@@UAAPAXI@Z| PROC ; InputStreamContext::`scalar deleting destructor'
  00000		 |$LN12@scalar@3|
  00000	e92d4010	 stmdb       sp!, {r4, lr}
  00004		 |$M36096|
  00004	e1a04000	 mov         r4, r0
  00008	e59f3014	 ldr         r3, [pc, #0x14]
  0000c	e3110001	 tst         r1, #1
  00010	e5843000	 str         r3, [r4]
  00014	1b000000	 blne        |??3@YAXPAX@Z|
  00018	e1a00004	 mov         r0, r4
  0001c	e8bd4010	 ldmia       sp!, {r4, lr}
  00020	e12fff1e	 bx          lr
  00024		 |$LN13@scalar@3|
  00024		 |$LN14@scalar@3|
  00024	00000000	 DCD         |??_7StreamContext@@6B@|
  00028		 |$M36097|

			 ENDP  ; |??_GInputStreamContext@@UAAPAXI@Z|, InputStreamContext::`scalar deleting destructor'

	EXPORT	|??0CMicrophoneInputSource@@QAA@XZ|	; CMicrophoneInputSource::CMicrophoneInputSource
	EXPORT	|??_7CMicrophoneInputSource@@6B@| [ DATA ] ; CMicrophoneInputSource::`vftable'
	EXPORT	|?get_ProductName@CAudioLineBase@@UBAPBGXZ| ; CAudioLineBase::get_ProductName
	EXPORT	|?get_Name@CMicrophoneInputSource@@UBAPBGXZ| ; CMicrophoneInputSource::get_Name
	EXPORT	|?get_ShortName@CMicrophoneInputSource@@UBAPBGXZ| ; CMicrophoneInputSource::get_ShortName
	IMPORT	|??0CAudioLineBase@@IAA@XZ|		; CAudioLineBase::CAudioLineBase
	IMPORT	|?copy_LineInfo@CAudioLineBase@@UBAXPAUtMIXERLINE@@@Z| ; CAudioLineBase::copy_LineInfo
; File c:\wince600\platform\z2170p\src\drivers\tps659xx_wave\istrmmgr.h

  00000			 AREA	 |.pdata|, PDATA
|$T36121| DCD	|$LN9@CMicrophon|
	DCD	0x40001801

  00000			 AREA	 |.rdata|, DATA, READONLY
|??_7CMicrophoneInputSource@@6B@| DCD |?get_ProductName@CAudioLineBase@@UBAPBGXZ| ; CMicrophoneInputSource::`vftable'
	DCD	|?initialize_AudioLine@CMicrophoneInputSource@@UAAHPAVCAudioMixerManager@@@Z|
	DCD	|?get_AudioValue@CMicrophoneInputSource@@UBAKPAVCAudioControlBase@@PAUtMIXERCONTROLDETAILS@@K@Z|
	DCD	|?put_AudioValue@CMicrophoneInputSource@@UAAKPAVCAudioControlBase@@PAUtMIXERCONTROLDETAILS@@K@Z|
	DCD	|?copy_LineInfo@CAudioLineBase@@UBAXPAUtMIXERLINE@@@Z|
	DCD	|?get_Name@CMicrophoneInputSource@@UBAPBGXZ|
	DCD	|?get_ShortName@CMicrophoneInputSource@@UBAPBGXZ|
; Function compile flags: /Ogspy

  00000			 AREA	 |.text|, CODE, ARM

  00000		 |??0CMicrophoneInputSource@@QAA@XZ| PROC ; CMicrophoneInputSource::CMicrophoneInputSource

; 169  :     {

  00000		 |$LN9@CMicrophon|
  00000	e92d4030	 stmdb       sp!, {r4, r5, lr}
  00004		 |$M36118|
  00004	e1a05000	 mov         r5, r0
  00008	eb000000	 bl          |??0CAudioLineBase@@IAA@XZ|
  0000c	e59f3048	 ldr         r3, [pc, #0x48]
  00010	e1a04005	 mov         r4, r5
  00014	e4843030	 str         r3, [r4], #0x30
  00018	e1a00004	 mov         r0, r4
  0001c	eb000000	 bl          |??0CAudioControlBase@@QAA@XZ|
  00020	e59f3030	 ldr         r3, [pc, #0x30]
  00024	e3a02a01	 mov         r2, #1, 20

; 170  :         m_ComponentType = MIXERLINE_COMPONENTTYPE_SRC_MICROPHONE;
; 171  :         m_countChannels = 1;
; 172  :         m_TargetType = MIXERLINE_TARGETTYPE_WAVEIN;
; 173  :         m_ffLineStatus = MIXERLINE_LINEF_ACTIVE | MIXERLINE_LINEF_SOURCE;

  00028	e3a00106	 mov         r0, #6, 2
  0002c	e5843000	 str         r3, [r4]
  00030	e3a03001	 mov         r3, #1
  00034	e3822003	 orr         r2, r2, #3
  00038	e3a01002	 mov         r1, #2
  0003c	e5850028	 str         r0, [r5, #0x28]
  00040	e5853020	 str         r3, [r5, #0x20]
  00044	e585201c	 str         r2, [r5, #0x1C]
  00048	e5851024	 str         r1, [r5, #0x24]

; 174  :     }

  0004c	e1a00005	 mov         r0, r5
  00050	e8bd4030	 ldmia       sp!, {r4, r5, lr}
  00054	e12fff1e	 bx          lr
  00058		 |$LN10@CMicrophon|
  00058		 |$LN11@CMicrophon|
  00058	00000000	 DCD         |??_7CAudioControl_MicMute@@6B@|
  0005c		 |$LN12@CMicrophon|
  0005c	00000000	 DCD         |??_7CMicrophoneInputSource@@6B@|
  00060		 |$M36119|

			 ENDP  ; |??0CMicrophoneInputSource@@QAA@XZ|, CMicrophoneInputSource::CMicrophoneInputSource

; File c:\wince600\platform\z2170p\src\drivers\tps659xx_wave\audiolin.h

  00000			 AREA	 |.pdata|, PDATA
|$T36133| DCD	|$LN5@get_Produc|
	DCD	0x40000200
; Function compile flags: /Ogspy

  00000			 AREA	 |.text|, CODE, ARM

  00000		 |?get_ProductName@CAudioLineBase@@UBAPBGXZ| PROC ; CAudioLineBase::get_ProductName

; 124  :     virtual WCHAR const* get_ProductName() const               { return NULL; }

  00000		 |$LN5@get_Produc|
  00000		 |$M36130|
  00000	e3a00000	 mov         r0, #0
  00004	e12fff1e	 bx          lr
  00008		 |$M36131|

			 ENDP  ; |?get_ProductName@CAudioLineBase@@UBAPBGXZ|, CAudioLineBase::get_ProductName

	EXPORT	|??_C@_1BG@OGJPAHBK@?$AAM?$AAi?$AAc?$AAr?$AAo?$AAp?$AAh?$AAo?$AAn?$AAe?$AA?$AA@| [ DATA ] ; `string'
; File c:\wince600\platform\z2170p\src\drivers\tps659xx_wave\istrmmgr.h

  00000			 AREA	 |.pdata|, PDATA
|$T36142| DCD	|$LN5@get_Name@2|
	DCD	0x40000300

  00000			 AREA	 |.rdata|, DATA, READONLY
|??_C@_1BG@OGJPAHBK@?$AAM?$AAi?$AAc?$AAr?$AAo?$AAp?$AAh?$AAo?$AAn?$AAe?$AA?$AA@| DCB "M"
	DCB	0x0, "i", 0x0, "c", 0x0, "r", 0x0, "o", 0x0, "p", 0x0, "h"
	DCB	0x0, "o", 0x0, "n", 0x0, "e", 0x0, 0x0, 0x0 ; `string'
; Function compile flags: /Ogspy

  00000			 AREA	 |.text|, CODE, ARM

  00000		 |?get_Name@CMicrophoneInputSource@@UBAPBGXZ| PROC ; CMicrophoneInputSource::get_Name

; 180  :     virtual WCHAR const* get_Name() const        { return L"Microphone"; }

  00000		 |$LN5@get_Name@2|
  00000		 |$M36139|
  00000	e59f0000	 ldr         r0, [pc]
  00004	e12fff1e	 bx          lr
  00008		 |$LN6@get_Name@2|
  00008		 |$LN7@get_Name@2|
  00008	00000000	 DCD         |??_C@_1BG@OGJPAHBK@?$AAM?$AAi?$AAc?$AAr?$AAo?$AAp?$AAh?$AAo?$AAn?$AAe?$AA?$AA@|
  0000c		 |$M36140|

			 ENDP  ; |?get_Name@CMicrophoneInputSource@@UBAPBGXZ|, CMicrophoneInputSource::get_Name


  00000			 AREA	 |.pdata|, PDATA
|$T36153| DCD	|$LN5@get_ShortN@2|
	DCD	0x40000300
; Function compile flags: /Ogspy

  00000			 AREA	 |.text|, CODE, ARM

  00000		 |?get_ShortName@CMicrophoneInputSource@@UBAPBGXZ| PROC ; CMicrophoneInputSource::get_ShortName

; 181  :     virtual WCHAR const* get_ShortName() const   { return L"Microphone"; }

  00000		 |$LN5@get_ShortN@2|
  00000		 |$M36150|
  00000	e59f0000	 ldr         r0, [pc]
  00004	e12fff1e	 bx          lr
  00008		 |$LN6@get_ShortN@2|
  00008		 |$LN7@get_ShortN@2|
  00008	00000000	 DCD         |??_C@_1BG@OGJPAHBK@?$AAM?$AAi?$AAc?$AAr?$AAo?$AAp?$AAh?$AAo?$AAn?$AAe?$AA?$AA@|
  0000c		 |$M36151|

			 ENDP  ; |?get_ShortName@CMicrophoneInputSource@@UBAPBGXZ|, CMicrophoneInputSource::get_ShortName

	EXPORT	|?create_Stream@CInputStreamManager@@UAAPAVStreamContext@@PAUwaveopendesc_tag@@@Z| ; CInputStreamManager::create_Stream
	IMPORT	|??2@YAPAXI@Z|				; operator new
; File c:\wince600\platform\z2170p\src\drivers\tps659xx_wave\strmctxt.h

  00000			 AREA	 |.pdata|, PDATA
|$T36183| DCD	|$LN13@create_Str|
	DCD	0x40000b01
; Function compile flags: /Ogspy
; File c:\wince600\platform\z2170p\src\drivers\tps659xx_wave\istrmmgr.cpp

  00000			 AREA	 |.text|, CODE, ARM

  00000		 |?create_Stream@CInputStreamManager@@UAAPAVStreamContext@@PAUwaveopendesc_tag@@@Z| PROC ; CInputStreamManager::create_Stream

; 127  : {

  00000		 |$LN13@create_Str|
  00000	e52de004	 str         lr, [sp, #-4]!
  00004		 |$M36180|

; 128  :     UNREFERENCED_PARAMETER(lpWOD);
; 129  :     return new InputStreamContext;

  00004	e3a00094	 mov         r0, #0x94
  00008	eb000000	 bl          |??2@YAPAXI@Z|
  0000c	e3500000	 cmp         r0, #0
  00010	159f3010	 ldrne       r3, [pc, #0x10]
  00014	15803000	 strne       r3, [r0]

; 130  : }

  00018	149de004	 ldrne       lr, [sp], #4

; 128  :     UNREFERENCED_PARAMETER(lpWOD);
; 129  :     return new InputStreamContext;

  0001c	03a00000	 moveq       r0, #0

; 130  : }

  00020	049de004	 ldreq       lr, [sp], #4
  00024	e12fff1e	 bx          lr
  00028		 |$LN14@create_Str|
  00028		 |$LN15@create_Str|
  00028	00000000	 DCD         |??_7InputStreamContext@@6B@|
  0002c		 |$M36181|

			 ENDP  ; |?create_Stream@CInputStreamManager@@UAAPAVStreamContext@@PAUwaveopendesc_tag@@@Z|, CInputStreamManager::create_Stream


  00000			 AREA	 |.pdata|, PDATA
|$T36192| DCD	|$LN5@dynamic|
	DCD	0x40000601
; Function compile flags: /Ogspy

  00000			 AREA	 |.text$yc|, CODE, ARM

  00000		 |??__Es_MicrophoneInputLine@@YAXXZ| PROC ; `dynamic initializer for 's_MicrophoneInputLine''

; 34   : static CMicrophoneInputSource  s_MicrophoneInputLine;

  00000		 |$LN5@dynamic|
  00000	e52de004	 str         lr, [sp, #-4]!
  00004		 |$M36189|
  00004	e59f0008	 ldr         r0, [pc, #8]
  00008	eb000000	 bl          |??0CMicrophoneInputSource@@QAA@XZ|
  0000c	e49de004	 ldr         lr, [sp], #4
  00010	e12fff1e	 bx          lr
  00014		 |$LN6@dynamic|
  00014		 |$LN7@dynamic|
  00014	00000000	 DCD         |s_MicrophoneInputLine|
  00018		 |$M36190|

			 ENDP  ; |??__Es_MicrophoneInputLine@@YAXXZ|, `dynamic initializer for 's_MicrophoneInputLine''


  00000			 AREA	 |.bss|, NOINIT
|s_MicrophoneInputLine| % 0x44

  00000			 AREA	 |.CRT$XCU|, DATA
|s_MicrophoneInputLine$initializer$| DCD |??__Es_MicrophoneInputLine@@YAXXZ|
	END
