; Listing generated by Microsoft (R) Optimizing Compiler Version 14.01.60511.01 

	TTL	C:\WINCE600\PLATFORM\Z2170P\SRC\DRIVERS\TPS659XX_WAVE\wavertgctrl.cpp
	CODE32

  00000			 AREA	 |.drectve|, DRECTVE
	DCB	"-defaultlib:LIBCMT "
	DCB	"-defaultlib:OLDNAMES "

	EXPORT	|?GetOutputDeviceDescriptor@CStreamManager@@IAAKPAU_DTP_DEVICE_DESCRIPTOR@@@Z| ; CStreamManager::GetOutputDeviceDescriptor
	IMPORT	|memcpy|
; File c:\wince600\platform\z2170p\src\drivers\tps659xx_wave\wavertgctrl.cpp

  00000			 AREA	 |.pdata|, PDATA
|$T34747| DCD	|$LN5@GetOutputD|
	DCD	0x40000901
; Function compile flags: /Ogspy

  00000			 AREA	 |.text|, CODE, ARM

  00000		 |?GetOutputDeviceDescriptor@CStreamManager@@IAAKPAU_DTP_DEVICE_DESCRIPTOR@@@Z| PROC ; CStreamManager::GetOutputDeviceDescriptor

; 166  : {

  00000		 |$LN5@GetOutputD|
  00000	e52de004	 str         lr, [sp, #-4]!
  00004		 |$M34744|
  00004	e1a00001	 mov         r0, r1

; 167  :     memcpy(pDeviceDescriptor, &c_OutputDeviceDescriptor, sizeof(*pDeviceDescriptor));

  00008	e59f1010	 ldr         r1, [pc, #0x10]
  0000c	e3a02014	 mov         r2, #0x14
  00010	eb000000	 bl          memcpy

; 168  :     return MMSYSERR_NOERROR;

  00014	e3a00000	 mov         r0, #0

; 169  : }

  00018	e49de004	 ldr         lr, [sp], #4
  0001c	e12fff1e	 bx          lr
  00020		 |$LN6@GetOutputD|
  00020		 |$LN7@GetOutputD|
  00020	00000000	 DCD         |c_OutputDeviceDescriptor|
  00024		 |$M34745|

			 ENDP  ; |?GetOutputDeviceDescriptor@CStreamManager@@IAAKPAU_DTP_DEVICE_DESCRIPTOR@@@Z|, CStreamManager::GetOutputDeviceDescriptor

	EXPORT	|?GetOutputEndpointDescriptor@CStreamManager@@IAAKKPAU_DTP_ENDPOINT_DESCRIPTOR@@@Z| ; CStreamManager::GetOutputEndpointDescriptor

  00000			 AREA	 |.pdata|, PDATA
|$T34763| DCD	|$LN15@GetOutputE|
	DCD	0x40002401
; Function compile flags: /Ogspy

  00000			 AREA	 |.text|, CODE, ARM

  00000		 |?GetOutputEndpointDescriptor@CStreamManager@@IAAKKPAU_DTP_ENDPOINT_DESCRIPTOR@@@Z| PROC ; CStreamManager::GetOutputEndpointDescriptor

; 176  : {

  00000		 |$LN15@GetOutputE|
  00000	e92d4030	 stmdb       sp!, {r4, r5, lr}
  00004		 |$M34760|
  00004	e1a04002	 mov         r4, r2
  00008	e1a05000	 mov         r5, r0

; 177  :     DWORD mmRet = MMSYSERR_INVALPARAM;

  0000c	e3a0000b	 mov         r0, #0xB

; 178  : 
; 179  :     if (dwIndex < _countof(c_rgOutputEndpointDescriptor))

  00010	e3510007	 cmp         r1, #7
  00014	2a00001a	 bcs         |$LN9@GetOutputE|

; 180  :     {
; 181  :         memcpy(pEndpointDescriptor, &c_rgOutputEndpointDescriptor[dwIndex],
; 182  :             sizeof(*pEndpointDescriptor));

  00018	e59fe06c	 ldr         lr, [pc, #0x6C]
  0001c	e0613181	 rsb         r3, r1, r1, lsl #3
  00020	e3a0201c	 mov         r2, #0x1C
  00024	e08e1103	 add         r1, lr, r3, lsl #2
  00028	e1a00004	 mov         r0, r4
  0002c	eb000000	 bl          memcpy

; 183  : 
; 184  :         // Set the attached state of removable endpoints.
; 185  :         if (pEndpointDescriptor->fRemovable)

  00030	e5943014	 ldr         r3, [r4, #0x14]
  00034	e3530000	 cmp         r3, #0
  00038	0a000010	 beq         |$LN6@GetOutputE|

; 186  :         {
; 187  :             switch (pEndpointDescriptor->dwIndex)

  0003c	e5943000	 ldr         r3, [r4]
  00040	e3530003	 cmp         r3, #3
  00044	0a00000b	 beq         |$LN5@GetOutputE|
  00048	e3530004	 cmp         r3, #4
  0004c	0a000007	 beq         |$LN4@GetOutputE|
  00050	e3530005	 cmp         r3, #5
  00054	0a000003	 beq         |$LN3@GetOutputE|
  00058	e3530006	 cmp         r3, #6
  0005c	1a000007	 bne         |$LN6@GetOutputE|

; 198  :             case WAVEOUT_EPIDX_BTH_SCO:
; 199  :                 pEndpointDescriptor->fAttached = m_fBthScoEnabled;

  00060	e5953040	 ldr         r3, [r5, #0x40]

; 200  :                 break;

  00064	ea000004	 b           |$LN12@GetOutputE|
  00068		 |$LN3@GetOutputE|

; 195  :             case WAVEOUT_EPIDX_CARKIT:
; 196  :                 pEndpointDescriptor->fAttached = m_fCarKitAttached;

  00068	e595303c	 ldr         r3, [r5, #0x3C]

; 197  :                 break;

  0006c	ea000002	 b           |$LN12@GetOutputE|
  00070		 |$LN4@GetOutputE|

; 191  :                 break;
; 192  :             case WAVEOUT_EPIDX_HEADPHONES:
; 193  :                 pEndpointDescriptor->fAttached = m_fHeadphonesAttached;

  00070	e5953038	 ldr         r3, [r5, #0x38]

; 194  :                 break;

  00074	ea000000	 b           |$LN12@GetOutputE|
  00078		 |$LN5@GetOutputE|

; 188  :             {
; 189  :             case WAVEOUT_EPIDX_HEADSET:
; 190  :                 pEndpointDescriptor->fAttached = m_fHeadsetAttached;

  00078	e5953034	 ldr         r3, [r5, #0x34]
  0007c		 |$LN12@GetOutputE|
  0007c	e5843018	 str         r3, [r4, #0x18]
  00080		 |$LN6@GetOutputE|

; 201  :             default:
; 202  :                 break;
; 203  :             }
; 204  :         }
; 205  : 
; 206  :         mmRet = MMSYSERR_NOERROR;

  00080	e3a00000	 mov         r0, #0
  00084		 |$LN9@GetOutputE|

; 207  :     }
; 208  : 
; 209  :     return mmRet;
; 210  : }

  00084	e8bd4030	 ldmia       sp!, {r4, r5, lr}
  00088	e12fff1e	 bx          lr
  0008c		 |$LN16@GetOutputE|
  0008c		 |$LN17@GetOutputE|
  0008c	00000000	 DCD         |c_rgOutputEndpointDescriptor|
  00090		 |$M34761|

			 ENDP  ; |?GetOutputEndpointDescriptor@CStreamManager@@IAAKKPAU_DTP_ENDPOINT_DESCRIPTOR@@@Z|, CStreamManager::GetOutputEndpointDescriptor

	EXPORT	|?GetInputDeviceDescriptor@CStreamManager@@IAAKPAU_DTP_DEVICE_DESCRIPTOR@@@Z| ; CStreamManager::GetInputDeviceDescriptor

  00000			 AREA	 |.pdata|, PDATA
|$T34775| DCD	|$LN5@GetInputDe|
	DCD	0x40000901
; Function compile flags: /Ogspy

  00000			 AREA	 |.text|, CODE, ARM

  00000		 |?GetInputDeviceDescriptor@CStreamManager@@IAAKPAU_DTP_DEVICE_DESCRIPTOR@@@Z| PROC ; CStreamManager::GetInputDeviceDescriptor

; 216  : {

  00000		 |$LN5@GetInputDe|
  00000	e52de004	 str         lr, [sp, #-4]!
  00004		 |$M34772|
  00004	e1a00001	 mov         r0, r1

; 217  :     memcpy(pDeviceDescriptor, &c_InputDeviceDescriptor, sizeof(*pDeviceDescriptor));

  00008	e59f1010	 ldr         r1, [pc, #0x10]
  0000c	e3a02014	 mov         r2, #0x14
  00010	eb000000	 bl          memcpy

; 218  :     return MMSYSERR_NOERROR;

  00014	e3a00000	 mov         r0, #0

; 219  : }

  00018	e49de004	 ldr         lr, [sp], #4
  0001c	e12fff1e	 bx          lr
  00020		 |$LN6@GetInputDe|
  00020		 |$LN7@GetInputDe|
  00020	00000000	 DCD         |c_InputDeviceDescriptor|
  00024		 |$M34773|

			 ENDP  ; |?GetInputDeviceDescriptor@CStreamManager@@IAAKPAU_DTP_DEVICE_DESCRIPTOR@@@Z|, CStreamManager::GetInputDeviceDescriptor

	EXPORT	|?GetInputEndpointDescriptor@CStreamManager@@IAAKKPAU_DTP_ENDPOINT_DESCRIPTOR@@@Z| ; CStreamManager::GetInputEndpointDescriptor

  00000			 AREA	 |.pdata|, PDATA
|$T34791| DCD	|$LN14@GetInputEn|
	DCD	0x40002001
; Function compile flags: /Ogspy

  00000			 AREA	 |.text|, CODE, ARM

  00000		 |?GetInputEndpointDescriptor@CStreamManager@@IAAKKPAU_DTP_ENDPOINT_DESCRIPTOR@@@Z| PROC ; CStreamManager::GetInputEndpointDescriptor

; 226  : {

  00000		 |$LN14@GetInputEn|
  00000	e92d4030	 stmdb       sp!, {r4, r5, lr}
  00004		 |$M34788|
  00004	e1a04002	 mov         r4, r2
  00008	e1a05000	 mov         r5, r0

; 227  :     DWORD mmRet = MMSYSERR_INVALPARAM;

  0000c	e3a0000b	 mov         r0, #0xB

; 228  : 
; 229  :     if (dwIndex < _countof(c_rgInputEndpointDescriptor))

  00010	e3510005	 cmp         r1, #5
  00014	2a000016	 bcs         |$LN8@GetInputEn|

; 230  :     {
; 231  :         memcpy(pEndpointDescriptor, &c_rgInputEndpointDescriptor[dwIndex],
; 232  :             sizeof(*pEndpointDescriptor));

  00018	e59fe05c	 ldr         lr, [pc, #0x5C]
  0001c	e0613181	 rsb         r3, r1, r1, lsl #3
  00020	e3a0201c	 mov         r2, #0x1C
  00024	e08e1103	 add         r1, lr, r3, lsl #2
  00028	e1a00004	 mov         r0, r4
  0002c	eb000000	 bl          memcpy

; 233  : 
; 234  :         // Set the attached state of removable endpoints.
; 235  :         if (pEndpointDescriptor->fRemovable)

  00030	e5943014	 ldr         r3, [r4, #0x14]
  00034	e3530000	 cmp         r3, #0
  00038	0a00000c	 beq         |$LN5@GetInputEn|

; 236  :         {
; 237  :             switch (pEndpointDescriptor->dwIndex)

  0003c	e5943000	 ldr         r3, [r4]
  00040	e3530002	 cmp         r3, #2
  00044	0a000007	 beq         |$LN4@GetInputEn|
  00048	e3530003	 cmp         r3, #3
  0004c	0a000003	 beq         |$LN3@GetInputEn|
  00050	e3530004	 cmp         r3, #4
  00054	1a000005	 bne         |$LN5@GetInputEn|

; 245  :             case WAVEIN_EPIDX_BTH_SCO:
; 246  :                 pEndpointDescriptor->fAttached = m_fBthScoEnabled;

  00058	e5953040	 ldr         r3, [r5, #0x40]

; 247  :                 break;

  0005c	ea000002	 b           |$LN11@GetInputEn|
  00060		 |$LN3@GetInputEn|

; 241  :                 break;
; 242  :             case WAVEIN_EPIDX_CARKIT:
; 243  :                 pEndpointDescriptor->fAttached = m_fCarKitAttached;

  00060	e595303c	 ldr         r3, [r5, #0x3C]

; 244  :                 break;

  00064	ea000000	 b           |$LN11@GetInputEn|
  00068		 |$LN4@GetInputEn|

; 238  :             {
; 239  :             case WAVEIN_EPIDX_HEADSET:
; 240  :                 pEndpointDescriptor->fAttached = m_fHeadsetAttached;

  00068	e5953034	 ldr         r3, [r5, #0x34]
  0006c		 |$LN11@GetInputEn|
  0006c	e5843018	 str         r3, [r4, #0x18]
  00070		 |$LN5@GetInputEn|

; 248  :             default:
; 249  :                 break;
; 250  :             }
; 251  :         }
; 252  : 
; 253  :         mmRet = MMSYSERR_NOERROR;

  00070	e3a00000	 mov         r0, #0
  00074		 |$LN8@GetInputEn|

; 254  :     }
; 255  : 
; 256  :     return mmRet;
; 257  : }

  00074	e8bd4030	 ldmia       sp!, {r4, r5, lr}
  00078	e12fff1e	 bx          lr
  0007c		 |$LN15@GetInputEn|
  0007c		 |$LN16@GetInputEn|
  0007c	00000000	 DCD         |c_rgInputEndpointDescriptor|
  00080		 |$M34789|

			 ENDP  ; |?GetInputEndpointDescriptor@CStreamManager@@IAAKKPAU_DTP_ENDPOINT_DESCRIPTOR@@@Z|, CStreamManager::GetInputEndpointDescriptor

	EXPORT	|?SendEndpointChangeNotification@CStreamManager@@IAAKPAVDtpNotify@@HK@Z| ; CStreamManager::SendEndpointChangeNotification
	IMPORT	|?SendDtpNotifications@DtpNotify@@QAAKQAXK@Z| ; DtpNotify::SendDtpNotifications

  00000			 AREA	 |.pdata|, PDATA
|$T34805| DCD	|$LN5@SendEndpoi|
	DCD	0x40001302
; Function compile flags: /Ogspy

  00000			 AREA	 |.text|, CODE, ARM

  00000		 |?SendEndpointChangeNotification@CStreamManager@@IAAKPAVDtpNotify@@HK@Z| PROC ; CStreamManager::SendEndpointChangeNotification

; 270  : {

  00000		 |$LN5@SendEndpoi|
  00000	e52de004	 str         lr, [sp, #-4]!
  00004	e24dd010	 sub         sp, sp, #0x10
  00008		 |$M34802|
  00008	e1a00001	 mov         r0, r1

; 271  :     // Set up device topology notification message for endpoint change.
; 272  :     DTP_EVTMSG_ENDPOINT_CHANGE msg = {0};

  0000c	e3a01000	 mov         r1, #0
  00010	e58d1004	 str         r1, [sp, #4]
  00014	e58d1008	 str         r1, [sp, #8]
  00018	e58d100c	 str         r1, [sp, #0xC]

; 273  :     msg.hdr.dwEvtType = DTP_EVT_ENDPOINT_CHANGE;

  0001c	e3a01001	 mov         r1, #1

; 274  :     msg.hdr.cbMsg = sizeof(msg);

  00020	e58d1000	 str         r1, [sp]
  00024	e3a0e010	 mov         lr, #0x10

; 275  :     msg.fAttached = fAttached;

  00028	e58d200c	 str         r2, [sp, #0xC]

; 276  :     msg.dwIndex = dwEpIdx;
; 277  : 
; 278  :     // Send the notification.
; 279  :     return pDtpNotify->SendDtpNotifications(&msg, sizeof(msg));

  0002c	e28d1000	 add         r1, sp, #0
  00030	e3a02010	 mov         r2, #0x10
  00034	e58de004	 str         lr, [sp, #4]
  00038	e58d3008	 str         r3, [sp, #8]
  0003c	eb000000	 bl          |?SendDtpNotifications@DtpNotify@@QAAKQAXK@Z|

; 280  : }

  00040	e28dd010	 add         sp, sp, #0x10
  00044	e49de004	 ldr         lr, [sp], #4
  00048	e12fff1e	 bx          lr
  0004c		 |$M34803|

			 ENDP  ; |?SendEndpointChangeNotification@CStreamManager@@IAAKPAVDtpNotify@@HK@Z|, CStreamManager::SendEndpointChangeNotification

	EXPORT	|?NotifyHeadsetAttached@CStreamManager@@QAAKH@Z| ; CStreamManager::NotifyHeadsetAttached

  00000			 AREA	 |.pdata|, PDATA
|$T34816| DCD	|$LN6@NotifyHead|
	DCD	0x40001301
; Function compile flags: /Ogspy

  00000			 AREA	 |.text|, CODE, ARM

  00000		 |?NotifyHeadsetAttached@CStreamManager@@QAAKH@Z| PROC ; CStreamManager::NotifyHeadsetAttached

; 286  : {

  00000		 |$LN6@NotifyHead|
  00000	e92d4030	 stmdb       sp!, {r4, r5, lr}
  00004		 |$M34813|
  00004	e1a05001	 mov         r5, r1
  00008	e1a04000	 mov         r4, r0

; 287  :     if (m_fHeadsetAttached != fAttached)

  0000c	e5943034	 ldr         r3, [r4, #0x34]
  00010	e1530005	 cmp         r3, r5
  00014	0a000009	 beq         |$LN1@NotifyHead|

; 288  :     {
; 289  :         m_fHeadsetAttached = fAttached;
; 290  : 
; 291  :         // Send headset endpoint notifications to the Audio Routing Manager
; 292  :         // for both output and input.
; 293  :         SendEndpointChangeNotification(
; 294  :             &m_OutputDtpNotify, fAttached, WAVEOUT_EPIDX_HEADSET);

  00018	e3a03003	 mov         r3, #3
  0001c	e1a02005	 mov         r2, r5
  00020	e2841044	 add         r1, r4, #0x44
  00024	e5845034	 str         r5, [r4, #0x34]
  00028	eb000000	 bl          |?SendEndpointChangeNotification@CStreamManager@@IAAKPAVDtpNotify@@HK@Z|

; 295  :         SendEndpointChangeNotification(
; 296  :             &m_InputDtpNotify, fAttached, WAVEIN_EPIDX_HEADSET);

  0002c	e3a03002	 mov         r3, #2
  00030	e1a02005	 mov         r2, r5
  00034	e2841064	 add         r1, r4, #0x64
  00038	e1a00004	 mov         r0, r4
  0003c	eb000000	 bl          |?SendEndpointChangeNotification@CStreamManager@@IAAKPAVDtpNotify@@HK@Z|
  00040		 |$LN1@NotifyHead|

; 297  :     }
; 298  : 
; 299  :     return MMSYSERR_NOERROR;

  00040	e3a00000	 mov         r0, #0

; 300  : }

  00044	e8bd4030	 ldmia       sp!, {r4, r5, lr}
  00048	e12fff1e	 bx          lr
  0004c		 |$M34814|

			 ENDP  ; |?NotifyHeadsetAttached@CStreamManager@@QAAKH@Z|, CStreamManager::NotifyHeadsetAttached

	EXPORT	|?NotifyHeadphonesAttached@CStreamManager@@QAAKH@Z| ; CStreamManager::NotifyHeadphonesAttached

  00000			 AREA	 |.pdata|, PDATA
|$T34827| DCD	|$LN6@NotifyHead@2|
	DCD	0x40000d01
; Function compile flags: /Ogspy

  00000			 AREA	 |.text|, CODE, ARM

  00000		 |?NotifyHeadphonesAttached@CStreamManager@@QAAKH@Z| PROC ; CStreamManager::NotifyHeadphonesAttached

; 306  : {

  00000		 |$LN6@NotifyHead@2|
  00000	e92d4010	 stmdb       sp!, {r4, lr}
  00004		 |$M34824|
  00004	e1a04001	 mov         r4, r1
  00008	e1a0e000	 mov         lr, r0

; 307  :     if (m_fHeadphonesAttached != fAttached)

  0000c	e59e3038	 ldr         r3, [lr, #0x38]
  00010	e1530004	 cmp         r3, r4

; 308  :     {
; 309  :         m_fHeadphonesAttached = fAttached;
; 310  : 
; 311  :         // Send headphones endpoint notification to the Audio Routing Manager
; 312  :         // for output only.
; 313  :         SendEndpointChangeNotification(
; 314  :             &m_OutputDtpNotify, fAttached, WAVEOUT_EPIDX_HEADPHONES);

  00014	13a03004	 movne       r3, #4
  00018	11a02004	 movne       r2, r4
  0001c	128e1044	 addne       r1, lr, #0x44
  00020	158e4038	 strne       r4, [lr, #0x38]
  00024	1b000000	 blne        |?SendEndpointChangeNotification@CStreamManager@@IAAKPAVDtpNotify@@HK@Z|

; 315  :     }
; 316  : 
; 317  :     return MMSYSERR_NOERROR;

  00028	e3a00000	 mov         r0, #0

; 318  : }

  0002c	e8bd4010	 ldmia       sp!, {r4, lr}
  00030	e12fff1e	 bx          lr
  00034		 |$M34825|

			 ENDP  ; |?NotifyHeadphonesAttached@CStreamManager@@QAAKH@Z|, CStreamManager::NotifyHeadphonesAttached

	EXPORT	|?NotifyCarKitAttached@CStreamManager@@QAAKH@Z| ; CStreamManager::NotifyCarKitAttached

  00000			 AREA	 |.pdata|, PDATA
|$T34838| DCD	|$LN6@NotifyCarK|
	DCD	0x40001301
; Function compile flags: /Ogspy

  00000			 AREA	 |.text|, CODE, ARM

  00000		 |?NotifyCarKitAttached@CStreamManager@@QAAKH@Z| PROC ; CStreamManager::NotifyCarKitAttached

; 324  : {

  00000		 |$LN6@NotifyCarK|
  00000	e92d4030	 stmdb       sp!, {r4, r5, lr}
  00004		 |$M34835|
  00004	e1a05001	 mov         r5, r1
  00008	e1a04000	 mov         r4, r0

; 325  :     if (m_fCarKitAttached != fAttached)

  0000c	e594303c	 ldr         r3, [r4, #0x3C]
  00010	e1530005	 cmp         r3, r5
  00014	0a000009	 beq         |$LN1@NotifyCarK|

; 326  :     {
; 327  :         m_fCarKitAttached = fAttached;
; 328  : 
; 329  :         // Send car kit endpoint notifications to the Audio Routing Manager
; 330  :         // for both output and input.
; 331  :         SendEndpointChangeNotification(
; 332  :             &m_OutputDtpNotify, fAttached, WAVEOUT_EPIDX_CARKIT);

  00018	e3a03005	 mov         r3, #5
  0001c	e1a02005	 mov         r2, r5
  00020	e2841044	 add         r1, r4, #0x44
  00024	e584503c	 str         r5, [r4, #0x3C]
  00028	eb000000	 bl          |?SendEndpointChangeNotification@CStreamManager@@IAAKPAVDtpNotify@@HK@Z|

; 333  :         SendEndpointChangeNotification(
; 334  :             &m_InputDtpNotify, fAttached, WAVEIN_EPIDX_CARKIT);

  0002c	e3a03003	 mov         r3, #3
  00030	e1a02005	 mov         r2, r5
  00034	e2841064	 add         r1, r4, #0x64
  00038	e1a00004	 mov         r0, r4
  0003c	eb000000	 bl          |?SendEndpointChangeNotification@CStreamManager@@IAAKPAVDtpNotify@@HK@Z|
  00040		 |$LN1@NotifyCarK|

; 335  :     }
; 336  : 
; 337  :     return MMSYSERR_NOERROR;

  00040	e3a00000	 mov         r0, #0

; 338  : }

  00044	e8bd4030	 ldmia       sp!, {r4, r5, lr}
  00048	e12fff1e	 bx          lr
  0004c		 |$M34836|

			 ENDP  ; |?NotifyCarKitAttached@CStreamManager@@QAAKH@Z|, CStreamManager::NotifyCarKitAttached

	EXPORT	|?NotifyBthScoEnabled@CStreamManager@@QAAKH@Z| ; CStreamManager::NotifyBthScoEnabled

  00000			 AREA	 |.pdata|, PDATA
|$T34849| DCD	|$LN6@NotifyBthS|
	DCD	0x40001301
; Function compile flags: /Ogspy

  00000			 AREA	 |.text|, CODE, ARM

  00000		 |?NotifyBthScoEnabled@CStreamManager@@QAAKH@Z| PROC ; CStreamManager::NotifyBthScoEnabled

; 344  : {

  00000		 |$LN6@NotifyBthS|
  00000	e92d4030	 stmdb       sp!, {r4, r5, lr}
  00004		 |$M34846|
  00004	e1a05001	 mov         r5, r1
  00008	e1a04000	 mov         r4, r0

; 345  :     if (m_fBthScoEnabled != fEnabled)

  0000c	e5943040	 ldr         r3, [r4, #0x40]
  00010	e1530005	 cmp         r3, r5
  00014	0a000009	 beq         |$LN1@NotifyBthS|

; 346  :     {
; 347  :         m_fBthScoEnabled = fEnabled;
; 348  : 
; 349  :         // Send SCO endpoint notifications to the Audio Routing Manager
; 350  :         // for both output and input.
; 351  :         SendEndpointChangeNotification(
; 352  :             &m_OutputDtpNotify, fEnabled, WAVEOUT_EPIDX_BTH_SCO);

  00018	e3a03006	 mov         r3, #6
  0001c	e1a02005	 mov         r2, r5
  00020	e2841044	 add         r1, r4, #0x44
  00024	e5845040	 str         r5, [r4, #0x40]
  00028	eb000000	 bl          |?SendEndpointChangeNotification@CStreamManager@@IAAKPAVDtpNotify@@HK@Z|

; 353  :         SendEndpointChangeNotification(
; 354  :             &m_InputDtpNotify, fEnabled, WAVEIN_EPIDX_BTH_SCO);

  0002c	e3a03004	 mov         r3, #4
  00030	e1a02005	 mov         r2, r5
  00034	e2841064	 add         r1, r4, #0x64
  00038	e1a00004	 mov         r0, r4
  0003c	eb000000	 bl          |?SendEndpointChangeNotification@CStreamManager@@IAAKPAVDtpNotify@@HK@Z|
  00040		 |$LN1@NotifyBthS|

; 355  :     }
; 356  : 
; 357  :     return MMSYSERR_NOERROR;

  00040	e3a00000	 mov         r0, #0

; 358  : }

  00044	e8bd4030	 ldmia       sp!, {r4, r5, lr}
  00048	e12fff1e	 bx          lr
  0004c		 |$M34847|

			 ENDP  ; |?NotifyBthScoEnabled@CStreamManager@@QAAKH@Z|, CStreamManager::NotifyBthScoEnabled

	IMPORT	|WAVEOUT_ENDPOINT_DEFAULT|
	IMPORT	|WAVEOUT_ENDPOINT_RECEIVER|
	IMPORT	|WAVEOUT_ENDPOINT_SPEAKERPHONE|
	IMPORT	|WAVEOUT_ENDPOINT_HEADSET|
	IMPORT	|WAVEOUT_ENDPOINT_HEADPHONES|
	IMPORT	|WAVEOUT_ENDPOINT_CARKIT|
	IMPORT	|WAVEOUT_ENDPOINT_BTH_SCO|

  00000			 AREA	 |.pdata|, PDATA
|$T34856| DCD	|$LN5@dynamic|
	DCD	0x40005101
; Function compile flags: /Ogspy

  00000			 AREA	 |.text$yc|, CODE, ARM

  00000		 |??__Ec_rgOutputEndpointDescriptor@@YAXXZ| PROC ; `dynamic initializer for 'c_rgOutputEndpointDescriptor''

; 63   :         WAVEOUT_ENDPOINT_DEFAULT,           // Endpoint GUID

  00000		 |$LN5@dynamic|
  00000	e92d4070	 stmdb       sp!, {r4 - r6, lr}
  00004		 |$M34853|
  00004	e59f2134	 ldr         r2, [pc, #0x134]
  00008	e59f612c	 ldr         r6, [pc, #0x12C]

; 64   :         FALSE,                              // Not removable
; 65   :         TRUE,                               // Always attached
; 66   :     },
; 67   :     // Index 1 - Receiver
; 68   :     {
; 69   :         WAVEOUT_EPIDX_RECEIVER,             // Endpoint index
; 70   :         WAVEOUT_ENDPOINT_RECEIVER,          // Endpoint GUID

  0000c	e59f5124	 ldr         r5, [pc, #0x124]
  00010	e5923000	 ldr         r3, [r2]
  00014	e1a0e006	 mov         lr, r6
  00018	e5921004	 ldr         r1, [r2, #4]
  0001c	e5ae3004	 str         r3, [lr, #4]!
  00020	e5923008	 ldr         r3, [r2, #8]
  00024	e592200c	 ldr         r2, [r2, #0xC]
  00028	e5950000	 ldr         r0, [r5]
  0002c	e58e1004	 str         r1, [lr, #4]
  00030	e58e3008	 str         r3, [lr, #8]
  00034	e58e200c	 str         r2, [lr, #0xC]
  00038	e1a0e006	 mov         lr, r6

; 71   :         FALSE,                              // Not removable
; 72   :         TRUE,                               // Always attached
; 73   :     },
; 74   :     // Index 2 - Speakerphone
; 75   :     {
; 76   :         WAVEOUT_EPIDX_SPEAKERPHONE,         // Endpoint index
; 77   :         WAVEOUT_ENDPOINT_SPEAKERPHONE,      // Endpoint GUID

  0003c	e5953004	 ldr         r3, [r5, #4]
  00040	e59f40ec	 ldr         r4, [pc, #0xEC]
  00044	e5952008	 ldr         r2, [r5, #8]
  00048	e5ae0020	 str         r0, [lr, #0x20]!
  0004c	e595100c	 ldr         r1, [r5, #0xC]
  00050	e5940000	 ldr         r0, [r4]
  00054	e58e3004	 str         r3, [lr, #4]
  00058	e58e2008	 str         r2, [lr, #8]
  0005c	e58e100c	 str         r1, [lr, #0xC]
  00060	e1a0e006	 mov         lr, r6

; 78   :         FALSE,                              // Not removable
; 79   :         TRUE,                               // Always attached
; 80   :     },
; 81   :     // Index 3 - Headset
; 82   :     {
; 83   :         WAVEOUT_EPIDX_HEADSET,              // Endpoint index
; 84   :         WAVEOUT_ENDPOINT_HEADSET,           // Endpoint GUID

  00064	e5943004	 ldr         r3, [r4, #4]
  00068	e59f50c0	 ldr         r5, [pc, #0xC0]
  0006c	e5942008	 ldr         r2, [r4, #8]
  00070	e5ae003c	 str         r0, [lr, #0x3C]!
  00074	e594100c	 ldr         r1, [r4, #0xC]
  00078	e5950000	 ldr         r0, [r5]
  0007c	e58e3004	 str         r3, [lr, #4]
  00080	e58e2008	 str         r2, [lr, #8]
  00084	e58e100c	 str         r1, [lr, #0xC]
  00088	e1a0e006	 mov         lr, r6

; 85   :         TRUE,                               // Removable
; 86   :         FALSE,                              // Unattached - To be set during query
; 87   :     },
; 88   :     // Index 4 - Headphones
; 89   :     {
; 90   :         WAVEOUT_EPIDX_HEADPHONES,           // Endpoint index
; 91   :         WAVEOUT_ENDPOINT_HEADPHONES,        // Endpoint GUID

  0008c	e5953004	 ldr         r3, [r5, #4]
  00090	e59f4094	 ldr         r4, [pc, #0x94]
  00094	e5952008	 ldr         r2, [r5, #8]
  00098	e5ae0058	 str         r0, [lr, #0x58]!
  0009c	e595100c	 ldr         r1, [r5, #0xC]
  000a0	e5940000	 ldr         r0, [r4]
  000a4	e58e3004	 str         r3, [lr, #4]
  000a8	e58e2008	 str         r2, [lr, #8]
  000ac	e58e100c	 str         r1, [lr, #0xC]
  000b0	e1a0e006	 mov         lr, r6

; 92   :         TRUE,                               // Removable
; 93   :         FALSE,                              // Unattached - To be set during query
; 94   :     },
; 95   :     // Index 4 - Car Kit
; 96   :     {
; 97   :         WAVEOUT_EPIDX_CARKIT,               // Endpoint index
; 98   :         WAVEOUT_ENDPOINT_CARKIT,            // Endpoint GUID

  000b4	e5943004	 ldr         r3, [r4, #4]
  000b8	e59f5068	 ldr         r5, [pc, #0x68]
  000bc	e5942008	 ldr         r2, [r4, #8]
  000c0	e5ae0074	 str         r0, [lr, #0x74]!
  000c4	e594100c	 ldr         r1, [r4, #0xC]
  000c8	e5950000	 ldr         r0, [r5]
  000cc	e58e3004	 str         r3, [lr, #4]
  000d0	e58e2008	 str         r2, [lr, #8]
  000d4	e58e100c	 str         r1, [lr, #0xC]

; 99   :         TRUE,                               // Removable
; 100  :         FALSE,                              // Unattached - To be set during query
; 101  :     },
; 102  :     // Index 5 - BTH SCO
; 103  :     {
; 104  :         WAVEOUT_EPIDX_BTH_SCO,              // Endpoint index
; 105  :         WAVEOUT_ENDPOINT_BTH_SCO,           // Endpoint GUID

  000d8	e59f4044	 ldr         r4, [pc, #0x44]
  000dc	e1a0e006	 mov         lr, r6
  000e0	e5953004	 ldr         r3, [r5, #4]
  000e4	e5952008	 ldr         r2, [r5, #8]
  000e8	e5ae0090	 str         r0, [lr, #0x90]!
  000ec	e595100c	 ldr         r1, [r5, #0xC]
  000f0	e5940000	 ldr         r0, [r4]
  000f4	e58e3004	 str         r3, [lr, #4]
  000f8	e58e2008	 str         r2, [lr, #8]
  000fc	e5943004	 ldr         r3, [r4, #4]
  00100	e58e100c	 str         r1, [lr, #0xC]
  00104	e5942008	 ldr         r2, [r4, #8]
  00108	e5a600ac	 str         r0, [r6, #0xAC]!
  0010c	e594100c	 ldr         r1, [r4, #0xC]
  00110	e5863004	 str         r3, [r6, #4]
  00114	e5862008	 str         r2, [r6, #8]
  00118	e586100c	 str         r1, [r6, #0xC]

; 106  :         TRUE,                               // Removable
; 107  :         FALSE,                              // Unattached - To be set during query
; 108  :     },
; 109  : };

  0011c	e8bd4070	 ldmia       sp!, {r4 - r6, lr}
  00120	e12fff1e	 bx          lr
  00124		 |$LN6@dynamic|
  00124		 |$LN7@dynamic|
  00124	00000000	 DCD         |WAVEOUT_ENDPOINT_BTH_SCO|
  00128		 |$LN8@dynamic|
  00128	00000000	 DCD         |WAVEOUT_ENDPOINT_CARKIT|
  0012c		 |$LN9@dynamic|
  0012c	00000000	 DCD         |WAVEOUT_ENDPOINT_HEADPHONES|
  00130		 |$LN10@dynamic|
  00130	00000000	 DCD         |WAVEOUT_ENDPOINT_HEADSET|
  00134		 |$LN11@dynamic|
  00134	00000000	 DCD         |WAVEOUT_ENDPOINT_SPEAKERPHONE|
  00138		 |$LN12@dynamic|
  00138	00000000	 DCD         |WAVEOUT_ENDPOINT_RECEIVER|
  0013c		 |$LN13@dynamic|
  0013c	00000000	 DCD         |c_rgOutputEndpointDescriptor|
  00140		 |$LN14@dynamic|
  00140	00000000	 DCD         |WAVEOUT_ENDPOINT_DEFAULT|
  00144		 |$M34854|

			 ENDP  ; |??__Ec_rgOutputEndpointDescriptor@@YAXXZ|, `dynamic initializer for 'c_rgOutputEndpointDescriptor''

	IMPORT	|WAVEIN_ENDPOINT_DEFAULT|
	IMPORT	|WAVEIN_ENDPOINT_SPEAKERPHONE|
	IMPORT	|WAVEIN_ENDPOINT_HEADSET|
	IMPORT	|WAVEIN_ENDPOINT_CARKIT|
	IMPORT	|WAVEIN_ENDPOINT_BTH_SCO|

  00000			 AREA	 |.pdata|, PDATA
|$T34872| DCD	|$LN5@dynamic@2|
	DCD	0x40003b01
; Function compile flags: /Ogspy

  00000			 AREA	 |.text$yc|, CODE, ARM

  00000		 |??__Ec_rgInputEndpointDescriptor@@YAXXZ| PROC ; `dynamic initializer for 'c_rgInputEndpointDescriptor''

; 116  :         WAVEIN_ENDPOINT_DEFAULT,            // Endpoint GUID

  00000		 |$LN5@dynamic@2|
  00000	e92d4070	 stmdb       sp!, {r4 - r6, lr}
  00004		 |$M34869|
  00004	e59f20dc	 ldr         r2, [pc, #0xDC]
  00008	e59f60d4	 ldr         r6, [pc, #0xD4]

; 117  :         FALSE,                              // Not removable
; 118  :         TRUE,                               // Always attached
; 119  :     },
; 120  :     // Index 1 - Speakerphone
; 121  :     {
; 122  :         WAVEIN_EPIDX_SPEAKERPHONE,          // Endpoint index
; 123  :         WAVEIN_ENDPOINT_SPEAKERPHONE,       // Endpoint GUID

  0000c	e59f50cc	 ldr         r5, [pc, #0xCC]
  00010	e5923000	 ldr         r3, [r2]
  00014	e1a0e006	 mov         lr, r6
  00018	e5921004	 ldr         r1, [r2, #4]
  0001c	e5ae3004	 str         r3, [lr, #4]!
  00020	e5923008	 ldr         r3, [r2, #8]
  00024	e592200c	 ldr         r2, [r2, #0xC]
  00028	e5950000	 ldr         r0, [r5]
  0002c	e58e1004	 str         r1, [lr, #4]
  00030	e58e3008	 str         r3, [lr, #8]
  00034	e58e200c	 str         r2, [lr, #0xC]
  00038	e1a0e006	 mov         lr, r6

; 124  :         FALSE,                              // Not removable
; 125  :         TRUE,                               // Always attached
; 126  :     },
; 127  :     // Index 2 - Headset
; 128  :     {
; 129  :         WAVEIN_EPIDX_HEADSET,               // Endpoint index
; 130  :         WAVEIN_ENDPOINT_HEADSET,            // Endpoint GUID

  0003c	e5953004	 ldr         r3, [r5, #4]
  00040	e59f4094	 ldr         r4, [pc, #0x94]
  00044	e5952008	 ldr         r2, [r5, #8]
  00048	e5ae0020	 str         r0, [lr, #0x20]!
  0004c	e595100c	 ldr         r1, [r5, #0xC]
  00050	e5940000	 ldr         r0, [r4]
  00054	e58e3004	 str         r3, [lr, #4]
  00058	e58e2008	 str         r2, [lr, #8]
  0005c	e58e100c	 str         r1, [lr, #0xC]
  00060	e1a0e006	 mov         lr, r6

; 131  :         TRUE,                               // Removable
; 132  :         FALSE,                              // Unattached - To be set during query
; 133  :     },
; 134  :     // Index 3 - Car Kit
; 135  :     {
; 136  :         WAVEIN_EPIDX_CARKIT,                // Endpoint index
; 137  :         WAVEIN_ENDPOINT_CARKIT,             // Endpoint GUID

  00064	e5943004	 ldr         r3, [r4, #4]
  00068	e59f5068	 ldr         r5, [pc, #0x68]
  0006c	e5942008	 ldr         r2, [r4, #8]
  00070	e5ae003c	 str         r0, [lr, #0x3C]!
  00074	e594100c	 ldr         r1, [r4, #0xC]
  00078	e5950000	 ldr         r0, [r5]
  0007c	e58e3004	 str         r3, [lr, #4]
  00080	e58e2008	 str         r2, [lr, #8]
  00084	e58e100c	 str         r1, [lr, #0xC]

; 138  :         TRUE,                               // Removable
; 139  :         FALSE,                              // Unattached - To be set during query
; 140  :     },
; 141  :     // Index 4 - BTH SCO
; 142  :     {
; 143  :         WAVEIN_EPIDX_BTH_SCO,               // Endpoint index
; 144  :         WAVEIN_ENDPOINT_BTH_SCO,            // Endpoint GUID

  00088	e59f4044	 ldr         r4, [pc, #0x44]
  0008c	e1a0e006	 mov         lr, r6
  00090	e5953004	 ldr         r3, [r5, #4]
  00094	e5952008	 ldr         r2, [r5, #8]
  00098	e5ae0058	 str         r0, [lr, #0x58]!
  0009c	e595100c	 ldr         r1, [r5, #0xC]
  000a0	e5940000	 ldr         r0, [r4]
  000a4	e58e3004	 str         r3, [lr, #4]
  000a8	e58e2008	 str         r2, [lr, #8]
  000ac	e5943004	 ldr         r3, [r4, #4]
  000b0	e58e100c	 str         r1, [lr, #0xC]
  000b4	e5942008	 ldr         r2, [r4, #8]
  000b8	e5a60074	 str         r0, [r6, #0x74]!
  000bc	e594100c	 ldr         r1, [r4, #0xC]
  000c0	e5863004	 str         r3, [r6, #4]
  000c4	e5862008	 str         r2, [r6, #8]
  000c8	e586100c	 str         r1, [r6, #0xC]

; 145  :         TRUE,                               // Removable
; 146  :         FALSE,                              // Unattached - To be set during query
; 147  :     },
; 148  : };

  000cc	e8bd4070	 ldmia       sp!, {r4 - r6, lr}
  000d0	e12fff1e	 bx          lr
  000d4		 |$LN6@dynamic@2|
  000d4		 |$LN7@dynamic@2|
  000d4	00000000	 DCD         |WAVEIN_ENDPOINT_BTH_SCO|
  000d8		 |$LN8@dynamic@2|
  000d8	00000000	 DCD         |WAVEIN_ENDPOINT_CARKIT|
  000dc		 |$LN9@dynamic@2|
  000dc	00000000	 DCD         |WAVEIN_ENDPOINT_HEADSET|
  000e0		 |$LN10@dynamic@2|
  000e0	00000000	 DCD         |WAVEIN_ENDPOINT_SPEAKERPHONE|
  000e4		 |$LN11@dynamic@2|
  000e4	00000000	 DCD         |c_rgInputEndpointDescriptor|
  000e8		 |$LN12@dynamic@2|
  000e8	00000000	 DCD         |WAVEIN_ENDPOINT_DEFAULT|
  000ec		 |$M34870|

			 ENDP  ; |??__Ec_rgInputEndpointDescriptor@@YAXXZ|, `dynamic initializer for 'c_rgInputEndpointDescriptor''

	IMPORT	|WAVE_DEVCLASS_SYSTEM_PRIMARY|

  00000			 AREA	 |.pdata|, PDATA
|$T34886| DCD	|$LN5@dynamic@3|
	DCD	0x40000f01
; Function compile flags: /Ogspy

  00000			 AREA	 |.text$yc|, CODE, ARM

  00000		 |??__Ec_OutputDeviceDescriptor@@YAXXZ| PROC ; `dynamic initializer for 'c_OutputDeviceDescriptor''

; 152  :     WAVE_DEVCLASS_SYSTEM_PRIMARY,           // Device class GUID

  00000		 |$LN5@dynamic@3|
  00000	e52de004	 str         lr, [sp, #-4]!
  00004		 |$M34883|
  00004	e59f002c	 ldr         r0, [pc, #0x2C]
  00008	e59fe024	 ldr         lr, [pc, #0x24]
  0000c	e5903000	 ldr         r3, [r0]
  00010	e5902004	 ldr         r2, [r0, #4]
  00014	e5901008	 ldr         r1, [r0, #8]
  00018	e590000c	 ldr         r0, [r0, #0xC]
  0001c	e58e3000	 str         r3, [lr]
  00020	e58e2004	 str         r2, [lr, #4]
  00024	e58e1008	 str         r1, [lr, #8]
  00028	e58e000c	 str         r0, [lr, #0xC]

; 153  :     _countof(c_rgOutputEndpointDescriptor)  // Number of endpoints
; 154  : };

  0002c	e49de004	 ldr         lr, [sp], #4
  00030	e12fff1e	 bx          lr
  00034		 |$LN6@dynamic@3|
  00034		 |$LN7@dynamic@3|
  00034	00000000	 DCD         |c_OutputDeviceDescriptor|
  00038		 |$LN8@dynamic@3|
  00038	00000000	 DCD         |WAVE_DEVCLASS_SYSTEM_PRIMARY|
  0003c		 |$M34884|

			 ENDP  ; |??__Ec_OutputDeviceDescriptor@@YAXXZ|, `dynamic initializer for 'c_OutputDeviceDescriptor''


  00000			 AREA	 |.pdata|, PDATA
|$T34896| DCD	|$LN5@dynamic@4|
	DCD	0x40000f01
; Function compile flags: /Ogspy

  00000			 AREA	 |.text$yc|, CODE, ARM

  00000		 |??__Ec_InputDeviceDescriptor@@YAXXZ| PROC ; `dynamic initializer for 'c_InputDeviceDescriptor''

; 158  :     WAVE_DEVCLASS_SYSTEM_PRIMARY,           // Device class GUID

  00000		 |$LN5@dynamic@4|
  00000	e52de004	 str         lr, [sp, #-4]!
  00004		 |$M34893|
  00004	e59f002c	 ldr         r0, [pc, #0x2C]
  00008	e59fe024	 ldr         lr, [pc, #0x24]
  0000c	e5903000	 ldr         r3, [r0]
  00010	e5902004	 ldr         r2, [r0, #4]
  00014	e5901008	 ldr         r1, [r0, #8]
  00018	e590000c	 ldr         r0, [r0, #0xC]
  0001c	e58e3000	 str         r3, [lr]
  00020	e58e2004	 str         r2, [lr, #4]
  00024	e58e1008	 str         r1, [lr, #8]
  00028	e58e000c	 str         r0, [lr, #0xC]

; 159  :     _countof(c_rgInputEndpointDescriptor)   // Number of endpoints
; 160  : };

  0002c	e49de004	 ldr         lr, [sp], #4
  00030	e12fff1e	 bx          lr
  00034		 |$LN6@dynamic@4|
  00034		 |$LN7@dynamic@4|
  00034	00000000	 DCD         |c_InputDeviceDescriptor|
  00038		 |$LN8@dynamic@4|
  00038	00000000	 DCD         |WAVE_DEVCLASS_SYSTEM_PRIMARY|
  0003c		 |$M34894|

			 ENDP  ; |??__Ec_InputDeviceDescriptor@@YAXXZ|, `dynamic initializer for 'c_InputDeviceDescriptor''


  00000			 AREA	 |.data|, DATA
|c_InputDeviceDescriptor| DCB 0x0
	DCB	0x0
	DCB	0x0
	DCB	0x0
	DCB	0x0
	DCB	0x0
	DCB	0x0
	DCB	0x0
	DCB	0x0
	DCB	0x0
	DCB	0x0
	DCB	0x0
	DCB	0x0
	DCB	0x0
	DCB	0x0
	DCB	0x0
	DCD	0x5
|c_OutputDeviceDescriptor| DCB 0x0
	DCB	0x0
	DCB	0x0
	DCB	0x0
	DCB	0x0
	DCB	0x0
	DCB	0x0
	DCB	0x0
	DCB	0x0
	DCB	0x0
	DCB	0x0
	DCB	0x0
	DCB	0x0
	DCB	0x0
	DCB	0x0
	DCB	0x0
	DCD	0x7
|c_rgOutputEndpointDescriptor| DCD 0x0
	DCB	0x0
	DCB	0x0
	DCB	0x0
	DCB	0x0
	DCB	0x0
	DCB	0x0
	DCB	0x0
	DCB	0x0
	DCB	0x0
	DCB	0x0
	DCB	0x0
	DCB	0x0
	DCB	0x0
	DCB	0x0
	DCB	0x0
	DCB	0x0
	DCD	0x0
	DCD	0x1
	DCD	0x1
	DCB	0x0
	DCB	0x0
	DCB	0x0
	DCB	0x0
	DCB	0x0
	DCB	0x0
	DCB	0x0
	DCB	0x0
	DCB	0x0
	DCB	0x0
	DCB	0x0
	DCB	0x0
	DCB	0x0
	DCB	0x0
	DCB	0x0
	DCB	0x0
	DCD	0x0
	DCD	0x1
	DCD	0x2
	DCB	0x0
	DCB	0x0
	DCB	0x0
	DCB	0x0
	DCB	0x0
	DCB	0x0
	DCB	0x0
	DCB	0x0
	DCB	0x0
	DCB	0x0
	DCB	0x0
	DCB	0x0
	DCB	0x0
	DCB	0x0
	DCB	0x0
	DCB	0x0
	DCD	0x0
	DCD	0x1
	DCD	0x3
	DCB	0x0
	DCB	0x0
	DCB	0x0
	DCB	0x0
	DCB	0x0
	DCB	0x0
	DCB	0x0
	DCB	0x0
	DCB	0x0
	DCB	0x0
	DCB	0x0
	DCB	0x0
	DCB	0x0
	DCB	0x0
	DCB	0x0
	DCB	0x0
	DCD	0x1
	DCD	0x0
	DCD	0x4
	DCB	0x0
	DCB	0x0
	DCB	0x0
	DCB	0x0
	DCB	0x0
	DCB	0x0
	DCB	0x0
	DCB	0x0
	DCB	0x0
	DCB	0x0
	DCB	0x0
	DCB	0x0
	DCB	0x0
	DCB	0x0
	DCB	0x0
	DCB	0x0
	DCD	0x1
	DCD	0x0
	DCD	0x5
	DCB	0x0
	DCB	0x0
	DCB	0x0
	DCB	0x0
	DCB	0x0
	DCB	0x0
	DCB	0x0
	DCB	0x0
	DCB	0x0
	DCB	0x0
	DCB	0x0
	DCB	0x0
	DCB	0x0
	DCB	0x0
	DCB	0x0
	DCB	0x0
	DCD	0x1
	DCD	0x0
	DCD	0x6
	DCB	0x0
	DCB	0x0
	DCB	0x0
	DCB	0x0
	DCB	0x0
	DCB	0x0
	DCB	0x0
	DCB	0x0
	DCB	0x0
	DCB	0x0
	DCB	0x0
	DCB	0x0
	DCB	0x0
	DCB	0x0
	DCB	0x0
	DCB	0x0
	DCD	0x1
	DCD	0x0
	%	4
|c_rgInputEndpointDescriptor| DCD 0x0
	DCB	0x0
	DCB	0x0
	DCB	0x0
	DCB	0x0
	DCB	0x0
	DCB	0x0
	DCB	0x0
	DCB	0x0
	DCB	0x0
	DCB	0x0
	DCB	0x0
	DCB	0x0
	DCB	0x0
	DCB	0x0
	DCB	0x0
	DCB	0x0
	DCD	0x0
	DCD	0x1
	DCD	0x1
	DCB	0x0
	DCB	0x0
	DCB	0x0
	DCB	0x0
	DCB	0x0
	DCB	0x0
	DCB	0x0
	DCB	0x0
	DCB	0x0
	DCB	0x0
	DCB	0x0
	DCB	0x0
	DCB	0x0
	DCB	0x0
	DCB	0x0
	DCB	0x0
	DCD	0x0
	DCD	0x1
	DCD	0x2
	DCB	0x0
	DCB	0x0
	DCB	0x0
	DCB	0x0
	DCB	0x0
	DCB	0x0
	DCB	0x0
	DCB	0x0
	DCB	0x0
	DCB	0x0
	DCB	0x0
	DCB	0x0
	DCB	0x0
	DCB	0x0
	DCB	0x0
	DCB	0x0
	DCD	0x1
	DCD	0x0
	DCD	0x3
	DCB	0x0
	DCB	0x0
	DCB	0x0
	DCB	0x0
	DCB	0x0
	DCB	0x0
	DCB	0x0
	DCB	0x0
	DCB	0x0
	DCB	0x0
	DCB	0x0
	DCB	0x0
	DCB	0x0
	DCB	0x0
	DCB	0x0
	DCB	0x0
	DCD	0x1
	DCD	0x0
	DCD	0x4
	DCB	0x0
	DCB	0x0
	DCB	0x0
	DCB	0x0
	DCB	0x0
	DCB	0x0
	DCB	0x0
	DCB	0x0
	DCB	0x0
	DCB	0x0
	DCB	0x0
	DCB	0x0
	DCB	0x0
	DCB	0x0
	DCB	0x0
	DCB	0x0
	DCD	0x1
	DCD	0x0

  00000			 AREA	 |.CRT$XCU|, DATA
|c_rgOutputEndpointDescriptor$initializer$| DCD |??__Ec_rgOutputEndpointDescriptor@@YAXXZ|
|c_rgInputEndpointDescriptor$initializer$| DCD |??__Ec_rgInputEndpointDescriptor@@YAXXZ|
|c_OutputDeviceDescriptor$initializer$| DCD |??__Ec_OutputDeviceDescriptor@@YAXXZ|
|c_InputDeviceDescriptor$initializer$| DCD |??__Ec_InputDeviceDescriptor@@YAXXZ|
	END
