; Listing generated by Microsoft (R) Optimizing Compiler Version 14.01.60511.01 

	TTL	C:\WINCE600\PLATFORM\COMMON\SRC\COMMON\OTHER\debug.c
	CODE32

  00000			 AREA	 |.drectve|, DRECTVE
	DCB	"-defaultlib:LIBCMT "
	DCB	"-defaultlib:OLDNAMES "

	EXPORT	|OEMWriteDebugString|
	IMPORT	|OEMWriteDebugByte|
; File c:\wince600\platform\common\src\common\other\debug.c

  00000			 AREA	 |.pdata|, PDATA
|$T38974| DCD	|$LN10@OEMWriteDe|
	DCD	0x40000b01
; Function compile flags: /Ogspy

  00000			 AREA	 |.text|, CODE, ARM

  00000		 |OEMWriteDebugString| PROC

; 30   : {

  00000		 |$LN10@OEMWriteDe|
  00000	e92d4010	 stmdb       sp!, {r4, lr}
  00004		 |$M38971|
  00004	e1a04000	 mov         r4, r0

; 31   :     while (*string != L'\0') OEMWriteDebugByte((UINT8)*string++);

  00008	e1d430b0	 ldrh        r3, [r4]
  0000c	ea000002	 b           |$LN7@OEMWriteDe|
  00010		 |$LL2@OEMWriteDe|
  00010	e20300ff	 and         r0, r3, #0xFF
  00014	eb000000	 bl          OEMWriteDebugByte
  00018	e1f430b2	 ldrh        r3, [r4, #2]!
  0001c		 |$LN7@OEMWriteDe|
  0001c	e3530000	 cmp         r3, #0
  00020	1afffffa	 bne         |$LL2@OEMWriteDe|

; 32   : }

  00024	e8bd4010	 ldmia       sp!, {r4, lr}
  00028	e12fff1e	 bx          lr
  0002c		 |$M38972|

			 ENDP  ; |OEMWriteDebugString|

	END
