; Listing generated by Microsoft (R) Optimizing Compiler Version 14.01.60511.01 

	TTL	C:\WINCE600\PLATFORM\COMMON\SRC\COMMON\KITL\kitlioctl.c
	CODE32

  00000			 AREA	 |.drectve|, DRECTVE
	DCB	"-defaultlib:LIBCMT "
	DCB	"-defaultlib:OLDNAMES "

	EXPORT	|OEMKitlIoctl|
	IMPORT	|OALIoCtlVBridge|
	IMPORT	|OALKitlInitRegistry|

  00000			 AREA	 |.pdata|, PDATA
|$T38970| DCD	|$LN9@OEMKitlIoc|
	DCD	0x40002004
; Function compile flags: /Odtp
; File c:\wince600\platform\common\src\common\kitl\kitlioctl.c

  00000			 AREA	 |.text|, CODE, ARM

  00000		 |OEMKitlIoctl| PROC

; 33   : {

  00000		 |$LN9@OEMKitlIoc|
  00000	e1a0c00d	 mov         r12, sp
  00004	e92d000f	 stmdb       sp!, {r0 - r3}
  00008	e92d5000	 stmdb       sp!, {r12, lr}
  0000c	e24dd01c	 sub         sp, sp, #0x1C
  00010		 |$M38967|

; 34   :     BOOL fRet = FALSE;

  00010	e3a03000	 mov         r3, #0
  00014	e58d3008	 str         r3, [sp, #8]

; 35   :     switch (code) {

  00018	e59d2024	 ldr         r2, [sp, #0x24]
  0001c	e59f3058	 ldr         r3, [pc, #0x58]
  00020	e1520003	 cmp         r2, r3
  00024	0a000000	 beq         |$LN2@OEMKitlIoc|
  00028	ea000001	 b           |$LN1@OEMKitlIoc|
  0002c		 |$LN2@OEMKitlIoc|

; 36   : #ifdef KITL_PCI
; 37   :     case IOCTL_HAL_INITREGISTRY:
; 38   : 		OALKitlInitRegistry();

  0002c	eb000000	 bl          OALKitlInitRegistry

; 39   : 		break;

  00030	ea00000b	 b           |$LN3@OEMKitlIoc|
  00034		 |$LN1@OEMKitlIoc|

; 40   : #endif        
; 41   :     default:
; 42   :         fRet = OALIoCtlVBridge (code, pInBuffer, inSize, pOutBuffer, outSize, pOutSize);

  00034	e59d3038	 ldr         r3, [sp, #0x38]
  00038	e58d3004	 str         r3, [sp, #4]
  0003c	e59d3034	 ldr         r3, [sp, #0x34]
  00040	e58d3000	 str         r3, [sp]
  00044	e59d3030	 ldr         r3, [sp, #0x30]
  00048	e59d202c	 ldr         r2, [sp, #0x2C]
  0004c	e59d1028	 ldr         r1, [sp, #0x28]
  00050	e59d0024	 ldr         r0, [sp, #0x24]
  00054	eb000000	 bl          OALIoCtlVBridge
  00058	e58d0018	 str         r0, [sp, #0x18]
  0005c	e59d3018	 ldr         r3, [sp, #0x18]
  00060	e58d3008	 str         r3, [sp, #8]
  00064		 |$LN3@OEMKitlIoc|

; 43   :     }
; 44   : 
; 45   :     return fRet;

  00064	e59d3008	 ldr         r3, [sp, #8]
  00068	e58d3014	 str         r3, [sp, #0x14]

; 46   : }

  0006c	e59d0014	 ldr         r0, [sp, #0x14]
  00070	e28dd01c	 add         sp, sp, #0x1C
  00074	e89d6000	 ldmia       sp, {sp, lr}
  00078	e12fff1e	 bx          lr
  0007c		 |$LN10@OEMKitlIoc|
  0007c		 |$LN11@OEMKitlIoc|
  0007c	010100b0	 DCD         0x10100b0
  00080		 |$M38968|

			 ENDP  ; |OEMKitlIoctl|

	END
