; Listing generated by Microsoft (R) Optimizing Compiler Version 14.01.60511.01 

	TTL	C:\WINCE600\PLATFORM\COMMON\SRC\COMMON\PCI\dump.c
	CODE32

  00000			 AREA	 |.drectve|, DRECTVE
	DCB	"-defaultlib:LIBCMT "
	DCB	"-defaultlib:OLDNAMES "

	EXPORT	|__$ArrayPad$| [ DATA ]
	EXPORT	|OALPCIDumpConfig|
	EXPORT	|??_C@_1IK@FIJCIEPN@?$AAP?$AAC?$AAI?$AA?5?$AA?$CF?$AAd?$AA?1?$AA?$CF?$AAd?$AA?1?$AA?$CF?$AAd?$AA?5?$AA?9?$AA?5?$AAA?$AAd?$AAd?$AAr?$AAe?$AAs?$AAs?$AAe?$AAs?$AA?5?$AA0?$AAx?$AA?$CF?$AA0?$AA8?$AAx?$AA?5@| [ DATA ] ; `string'
	EXPORT	|??_C@_1II@HLJEJEHG@?$AAP?$AAC?$AAI?$AA?5?$AA?$CF?$AAd?$AA?1?$AA?$CF?$AAd?$AA?1?$AA?$CF?$AAd?$AA?5?$AA?9?$AA?5?$AAC?$AAI?$AAS?$AA?5?$AA0?$AAx?$AA?$CF?$AA0?$AA8?$AAx?$AA?5?$AA?5?$AAS?$AAu?$AAb?$AAV?$AAe@| [ DATA ] ; `string'
	EXPORT	|??_C@_1GI@HLAJCALP@?$AAP?$AAC?$AAI?$AA?5?$AA?$CF?$AAd?$AA?1?$AA?$CF?$AAd?$AA?1?$AA?$CF?$AAd?$AA?5?$AA?9?$AA?5?$AAM?$AAi?$AAn?$AAG?$AAr?$AAa?$AAn?$AAt?$AA?5?$AA0?$AAx?$AA?$CF?$AA0?$AA2?$AAx?$AA?5?$AA?5@| [ DATA ] ; `string'
	EXPORT	|??_C@_1FC@KDMEOPEI@?$AAP?$AAC?$AAI?$AA?5?$AA?$CF?$AAd?$AA?1?$AA?$CF?$AAd?$AA?1?$AA?$CF?$AAd?$AA?5?$AA?9?$AA?5?$AAA?$AAd?$AAd?$AAr?$AAe?$AAs?$AAs?$AAe?$AAs?$AA?5?$AA0?$AAx?$AA?$CF?$AA0?$AA8?$AAx?$AA?5@| [ DATA ] ; `string'
	EXPORT	|??_C@_1HM@ECGGFNCI@?$AAP?$AAC?$AAI?$AA?5?$AA?$CF?$AAd?$AA?1?$AA?$CF?$AAd?$AA?1?$AA?$CF?$AAd?$AA?5?$AA?9?$AA?5?$AAB?$AAu?$AAs?$AA?5?$AAP?$AAr?$AAi?$AAm?$AAa?$AAr?$AAy?$AA?5?$AA?$CF?$AAd?$AA?5?$AA?5?$AAS@| [ DATA ] ; `string'
	EXPORT	|??_C@_1LA@GAKAPNFM@?$AAP?$AAC?$AAI?$AA?5?$AA?$CF?$AAd?$AA?1?$AA?$CF?$AAd?$AA?1?$AA?$CF?$AAd?$AA?5?$AA?9?$AA?5?$AAI?$AAO?$AAB?$AAa?$AAs?$AAe?$AA?5?$AA0?$AAx?$AA?$CF?$AA0?$AA2?$AAx?$AA?5?$AA?5?$AAI?$AAO@| [ DATA ] ; `string'
	EXPORT	|??_C@_1GC@LBDLLJKM@?$AAP?$AAC?$AAI?$AA?5?$AA?$CF?$AAd?$AA?1?$AA?$CF?$AAd?$AA?1?$AA?$CF?$AAd?$AA?5?$AA?9?$AA?5?$AAM?$AAe?$AAm?$AAB?$AAa?$AAs?$AAe?$AA?5?$AA0?$AAx?$AA?$CF?$AA0?$AA4?$AAx?$AA?5?$AA?5?$AAM@| [ DATA ] ; `string'
	EXPORT	|??_C@_1HE@CJJFOOJK@?$AAP?$AAC?$AAI?$AA?5?$AA?$CF?$AAd?$AA?1?$AA?$CF?$AAd?$AA?1?$AA?$CF?$AAd?$AA?5?$AA?9?$AA?5?$AAP?$AAr?$AAe?$AAf?$AAe?$AAt?$AAc?$AAh?$AA?5?$AAM?$AAe?$AAm?$AAB?$AAa?$AAs?$AAe?$AA?5@| [ DATA ] ; `string'
	EXPORT	|??_C@_1HO@JGCGLKPH@?$AAP?$AAC?$AAI?$AA?5?$AA?$CF?$AAd?$AA?1?$AA?$CF?$AAd?$AA?1?$AA?$CF?$AAd?$AA?5?$AA?9?$AA?5?$AAM?$AAe?$AAm?$AAB?$AAa?$AAs?$AAe?$AAU?$AAp?$AAp?$AAe?$AAr?$AA3?$AA2?$AA?5?$AA0?$AAx@| [ DATA ] ; `string'
	EXPORT	|??_C@_1HC@NDOFNJLH@?$AAP?$AAC?$AAI?$AA?5?$AA?$CF?$AAd?$AA?1?$AA?$CF?$AAd?$AA?1?$AA?$CF?$AAd?$AA?5?$AA?9?$AA?5?$AAS?$AAe?$AAc?$AAL?$AAa?$AAt?$AAe?$AAn?$AAc?$AAy?$AA?5?$AA0?$AAx?$AA?$CF?$AA0?$AA2?$AAx@| [ DATA ] ; `string'
	EXPORT	|??_C@_1HK@ICNCEAFI@?$AAP?$AAC?$AAI?$AA?5?$AA?$CF?$AAd?$AA?1?$AA?$CF?$AAd?$AA?1?$AA?$CF?$AAd?$AA?5?$AA?9?$AA?5?$AAR?$AAO?$AAM?$AA?5?$AA0?$AAx?$AA?$CF?$AA0?$AA8?$AAx?$AA?5?$AA?5?$AAI?$AAn?$AAt?$AAr?$AAL@| [ DATA ] ; `string'
	EXPORT	|??_C@_1M@JEHOPNL@?$AA?9?$AA?9?$AA?9?$AA?$AN?$AA?6?$AA?$AA@| [ DATA ] ; `string'
	EXPORT	|??_C@_1GE@PAMDEII@?$AAP?$AAC?$AAI?$AA?5?$AA?$CF?$AAd?$AA?1?$AA?$CF?$AAd?$AA?1?$AA?$CF?$AAd?$AA?5?$AA?9?$AA?5?$AAV?$AAe?$AAn?$AAd?$AAo?$AAr?$AAI?$AAD?$AA?5?$AA0?$AAx?$AA?$CF?$AA0?$AA4?$AAx?$AA?5?$AA?5@| [ DATA ] ; `string'
	EXPORT	|??_C@_1FO@OJPFKNEM@?$AAP?$AAC?$AAI?$AA?5?$AA?$CF?$AAd?$AA?1?$AA?$CF?$AAd?$AA?1?$AA?$CF?$AAd?$AA?5?$AA?9?$AA?5?$AAC?$AAo?$AAm?$AAm?$AAa?$AAn?$AAd?$AA?5?$AA0?$AAx?$AA?$CF?$AA0?$AA4?$AAx?$AA?5?$AA?5?$AAS@| [ DATA ] ; `string'
	EXPORT	|??_C@_1JM@FNKAEBAM@?$AAP?$AAC?$AAI?$AA?5?$AA?$CF?$AAd?$AA?1?$AA?$CF?$AAd?$AA?1?$AA?$CF?$AAd?$AA?5?$AA?9?$AA?5?$AAR?$AAe?$AAv?$AA?5?$AA0?$AAx?$AA?$CF?$AA0?$AA2?$AAx?$AA?5?$AA?5?$AAP?$AAr?$AAo?$AAg?$AAI@| [ DATA ] ; `string'
	EXPORT	|??_C@_1JM@NMMOKKLK@?$AAP?$AAC?$AAI?$AA?5?$AA?$CF?$AAd?$AA?1?$AA?$CF?$AAd?$AA?1?$AA?$CF?$AAd?$AA?5?$AA?9?$AA?5?$AAC?$AAa?$AAc?$AAh?$AAe?$AAL?$AAi?$AAn?$AAe?$AA?5?$AA0?$AAx?$AA?$CF?$AA0?$AA2?$AAx?$AA?5@| [ DATA ] ; `string'
	IMPORT	|NKDbgPrintfW|
	IMPORT	|OALPCICfgRead|
	IMPORT	|__GSHandlerCheck|
	IMPORT	|__security_cookie|
	IMPORT	|memset|
	IMPORT	|__security_check_cookie|
; File c:\wince600\platform\common\src\common\pci\dump.c

  00000			 AREA	 |.pdata|, PDATA
|$T40348| DCD	|$LN9@OALPCIDump|
	DCD	0xc000df04

  00000			 AREA	 |.xdata|, DATA
|$T40344| DCD	0xffffffdc

  00000			 AREA	 |.rdata|, DATA, READONLY
|??_C@_1IK@FIJCIEPN@?$AAP?$AAC?$AAI?$AA?5?$AA?$CF?$AAd?$AA?1?$AA?$CF?$AAd?$AA?1?$AA?$CF?$AAd?$AA?5?$AA?9?$AA?5?$AAA?$AAd?$AAd?$AAr?$AAe?$AAs?$AAs?$AAe?$AAs?$AA?5?$AA0?$AAx?$AA?$CF?$AA0?$AA8?$AAx?$AA?5@| DCB "P"
	DCB	0x0, "C", 0x0, "I", 0x0, " ", 0x0, "%", 0x0, "d", 0x0, "/"
	DCB	0x0, "%", 0x0, "d", 0x0, "/", 0x0, "%", 0x0, "d", 0x0, " "
	DCB	0x0, "-", 0x0, " ", 0x0, "A", 0x0, "d", 0x0, "d", 0x0, "r"
	DCB	0x0, "e", 0x0, "s", 0x0, "s", 0x0, "e", 0x0, "s", 0x0, " "
	DCB	0x0, "0", 0x0, "x", 0x0, "%", 0x0, "0", 0x0, "8", 0x0, "x"
	DCB	0x0, " ", 0x0, "0", 0x0, "x", 0x0, "%", 0x0, "0", 0x0, "8"
	DCB	0x0, "x", 0x0, " ", 0x0, "0", 0x0, "x", 0x0, "%", 0x0, "0"
	DCB	0x0, "8", 0x0, "x", 0x0, " ", 0x0, "0", 0x0, "x", 0x0, "%"
	DCB	0x0, "0", 0x0, "8", 0x0, "x", 0x0, " ", 0x0, "0", 0x0, "x"
	DCB	0x0, "%", 0x0, "0", 0x0, "8", 0x0, "x", 0x0, " ", 0x0, "0"
	DCB	0x0, "x", 0x0, "%", 0x0, "0", 0x0, "8", 0x0, "x", 0x0, 0xd
	DCB	0x0, 0xa, 0x0, 0x0, 0x0			; `string'

  00000			 AREA	 |.rdata|, DATA, READONLY
|??_C@_1II@HLJEJEHG@?$AAP?$AAC?$AAI?$AA?5?$AA?$CF?$AAd?$AA?1?$AA?$CF?$AAd?$AA?1?$AA?$CF?$AAd?$AA?5?$AA?9?$AA?5?$AAC?$AAI?$AAS?$AA?5?$AA0?$AAx?$AA?$CF?$AA0?$AA8?$AAx?$AA?5?$AA?5?$AAS?$AAu?$AAb?$AAV?$AAe@| DCB "P"
	DCB	0x0, "C", 0x0, "I", 0x0, " ", 0x0, "%", 0x0, "d", 0x0, "/"
	DCB	0x0, "%", 0x0, "d", 0x0, "/", 0x0, "%", 0x0, "d", 0x0, " "
	DCB	0x0, "-", 0x0, " ", 0x0, "C", 0x0, "I", 0x0, "S", 0x0, " "
	DCB	0x0, "0", 0x0, "x", 0x0, "%", 0x0, "0", 0x0, "8", 0x0, "x"
	DCB	0x0, " ", 0x0, " ", 0x0, "S", 0x0, "u", 0x0, "b", 0x0, "V"
	DCB	0x0, "e", 0x0, "n", 0x0, "d", 0x0, "o", 0x0, "r", 0x0, "I"
	DCB	0x0, "D", 0x0, " ", 0x0, "0", 0x0, "x", 0x0, "%", 0x0, "0"
	DCB	0x0, "4", 0x0, "x", 0x0, " ", 0x0, " ", 0x0, "S", 0x0, "u"
	DCB	0x0, "b", 0x0, "S", 0x0, "y", 0x0, "s", 0x0, "t", 0x0, "e"
	DCB	0x0, "m", 0x0, "I", 0x0, "D", 0x0, " ", 0x0, "0", 0x0, "x"
	DCB	0x0, "%", 0x0, "0", 0x0, "4", 0x0, "x", 0x0, 0xd, 0x0, 0xa
	DCB	0x0, 0x0, 0x0				; `string'

  00000			 AREA	 |.rdata|, DATA, READONLY
|??_C@_1GI@HLAJCALP@?$AAP?$AAC?$AAI?$AA?5?$AA?$CF?$AAd?$AA?1?$AA?$CF?$AAd?$AA?1?$AA?$CF?$AAd?$AA?5?$AA?9?$AA?5?$AAM?$AAi?$AAn?$AAG?$AAr?$AAa?$AAn?$AAt?$AA?5?$AA0?$AAx?$AA?$CF?$AA0?$AA2?$AAx?$AA?5?$AA?5@| DCB "P"
	DCB	0x0, "C", 0x0, "I", 0x0, " ", 0x0, "%", 0x0, "d", 0x0, "/"
	DCB	0x0, "%", 0x0, "d", 0x0, "/", 0x0, "%", 0x0, "d", 0x0, " "
	DCB	0x0, "-", 0x0, " ", 0x0, "M", 0x0, "i", 0x0, "n", 0x0, "G"
	DCB	0x0, "r", 0x0, "a", 0x0, "n", 0x0, "t", 0x0, " ", 0x0, "0"
	DCB	0x0, "x", 0x0, "%", 0x0, "0", 0x0, "2", 0x0, "x", 0x0, " "
	DCB	0x0, " ", 0x0, "M", 0x0, "a", 0x0, "x", 0x0, "L", 0x0, "a"
	DCB	0x0, "t", 0x0, "e", 0x0, "n", 0x0, "c", 0x0, "y", 0x0, " "
	DCB	0x0, "0", 0x0, "x", 0x0, "%", 0x0, "0", 0x0, "2", 0x0, "x"
	DCB	0x0, 0xd, 0x0, 0xa, 0x0, 0x0, 0x0	; `string'

  00000			 AREA	 |.rdata|, DATA, READONLY
|??_C@_1FC@KDMEOPEI@?$AAP?$AAC?$AAI?$AA?5?$AA?$CF?$AAd?$AA?1?$AA?$CF?$AAd?$AA?1?$AA?$CF?$AAd?$AA?5?$AA?9?$AA?5?$AAA?$AAd?$AAd?$AAr?$AAe?$AAs?$AAs?$AAe?$AAs?$AA?5?$AA0?$AAx?$AA?$CF?$AA0?$AA8?$AAx?$AA?5@| DCB "P"
	DCB	0x0, "C", 0x0, "I", 0x0, " ", 0x0, "%", 0x0, "d", 0x0, "/"
	DCB	0x0, "%", 0x0, "d", 0x0, "/", 0x0, "%", 0x0, "d", 0x0, " "
	DCB	0x0, "-", 0x0, " ", 0x0, "A", 0x0, "d", 0x0, "d", 0x0, "r"
	DCB	0x0, "e", 0x0, "s", 0x0, "s", 0x0, "e", 0x0, "s", 0x0, " "
	DCB	0x0, "0", 0x0, "x", 0x0, "%", 0x0, "0", 0x0, "8", 0x0, "x"
	DCB	0x0, " ", 0x0, "0", 0x0, "x", 0x0, "%", 0x0, "0", 0x0, "8"
	DCB	0x0, "x", 0x0, 0xd, 0x0, 0xa, 0x0, 0x0, 0x0 ; `string'

  00000			 AREA	 |.rdata|, DATA, READONLY
|??_C@_1HM@ECGGFNCI@?$AAP?$AAC?$AAI?$AA?5?$AA?$CF?$AAd?$AA?1?$AA?$CF?$AAd?$AA?1?$AA?$CF?$AAd?$AA?5?$AA?9?$AA?5?$AAB?$AAu?$AAs?$AA?5?$AAP?$AAr?$AAi?$AAm?$AAa?$AAr?$AAy?$AA?5?$AA?$CF?$AAd?$AA?5?$AA?5?$AAS@| DCB "P"
	DCB	0x0, "C", 0x0, "I", 0x0, " ", 0x0, "%", 0x0, "d", 0x0, "/"
	DCB	0x0, "%", 0x0, "d", 0x0, "/", 0x0, "%", 0x0, "d", 0x0, " "
	DCB	0x0, "-", 0x0, " ", 0x0, "B", 0x0, "u", 0x0, "s", 0x0, " "
	DCB	0x0, "P", 0x0, "r", 0x0, "i", 0x0, "m", 0x0, "a", 0x0, "r"
	DCB	0x0, "y", 0x0, " ", 0x0, "%", 0x0, "d", 0x0, " ", 0x0, " "
	DCB	0x0, "S", 0x0, "e", 0x0, "c", 0x0, "o", 0x0, "n", 0x0, "d"
	DCB	0x0, "a", 0x0, "r", 0x0, "y", 0x0, " ", 0x0, "%", 0x0, "d"
	DCB	0x0, " ", 0x0, " ", 0x0, "S", 0x0, "u", 0x0, "b", 0x0, "o"
	DCB	0x0, "r", 0x0, "d", 0x0, "i", 0x0, "n", 0x0, "a", 0x0, "t"
	DCB	0x0, "e", 0x0, " ", 0x0, "%", 0x0, "d", 0x0, 0xd, 0x0, 0xa
	DCB	0x0, 0x0, 0x0				; `string'

  00000			 AREA	 |.rdata|, DATA, READONLY
|??_C@_1LA@GAKAPNFM@?$AAP?$AAC?$AAI?$AA?5?$AA?$CF?$AAd?$AA?1?$AA?$CF?$AAd?$AA?1?$AA?$CF?$AAd?$AA?5?$AA?9?$AA?5?$AAI?$AAO?$AAB?$AAa?$AAs?$AAe?$AA?5?$AA0?$AAx?$AA?$CF?$AA0?$AA2?$AAx?$AA?5?$AA?5?$AAI?$AAO@| DCB "P"
	DCB	0x0, "C", 0x0, "I", 0x0, " ", 0x0, "%", 0x0, "d", 0x0, "/"
	DCB	0x0, "%", 0x0, "d", 0x0, "/", 0x0, "%", 0x0, "d", 0x0, " "
	DCB	0x0, "-", 0x0, " ", 0x0, "I", 0x0, "O", 0x0, "B", 0x0, "a"
	DCB	0x0, "s", 0x0, "e", 0x0, " ", 0x0, "0", 0x0, "x", 0x0, "%"
	DCB	0x0, "0", 0x0, "2", 0x0, "x", 0x0, " ", 0x0, " ", 0x0, "I"
	DCB	0x0, "O", 0x0, "L", 0x0, "i", 0x0, "m", 0x0, "i", 0x0, "t"
	DCB	0x0, " ", 0x0, "0", 0x0, "x", 0x0, "%", 0x0, "0", 0x0, "2"
	DCB	0x0, "x", 0x0, " ", 0x0, " ", 0x0, "I", 0x0, "O", 0x0, "B"
	DCB	0x0, "a", 0x0, "s", 0x0, "e", 0x0, "U", 0x0, "p", 0x0, "p"
	DCB	0x0, "e", 0x0, "r", 0x0, " ", 0x0, "0", 0x0, "x", 0x0, "%"
	DCB	0x0, "0", 0x0, "4", 0x0, "x", 0x0, " ", 0x0, " ", 0x0, "I"
	DCB	0x0, "O", 0x0, "L", 0x0, "i", 0x0, "m", 0x0, "i", 0x0, "t"
	DCB	0x0, "U", 0x0, "p", 0x0, "p", 0x0, "e", 0x0, "r", 0x0, " "
	DCB	0x0, "0", 0x0, "x", 0x0, "%", 0x0, "0", 0x0, "4", 0x0, "x"
	DCB	0x0, 0xd, 0x0, 0xa, 0x0, 0x0, 0x0	; `string'

  00000			 AREA	 |.rdata|, DATA, READONLY
|??_C@_1GC@LBDLLJKM@?$AAP?$AAC?$AAI?$AA?5?$AA?$CF?$AAd?$AA?1?$AA?$CF?$AAd?$AA?1?$AA?$CF?$AAd?$AA?5?$AA?9?$AA?5?$AAM?$AAe?$AAm?$AAB?$AAa?$AAs?$AAe?$AA?5?$AA0?$AAx?$AA?$CF?$AA0?$AA4?$AAx?$AA?5?$AA?5?$AAM@| DCB "P"
	DCB	0x0, "C", 0x0, "I", 0x0, " ", 0x0, "%", 0x0, "d", 0x0, "/"
	DCB	0x0, "%", 0x0, "d", 0x0, "/", 0x0, "%", 0x0, "d", 0x0, " "
	DCB	0x0, "-", 0x0, " ", 0x0, "M", 0x0, "e", 0x0, "m", 0x0, "B"
	DCB	0x0, "a", 0x0, "s", 0x0, "e", 0x0, " ", 0x0, "0", 0x0, "x"
	DCB	0x0, "%", 0x0, "0", 0x0, "4", 0x0, "x", 0x0, " ", 0x0, " "
	DCB	0x0, "M", 0x0, "e", 0x0, "m", 0x0, "L", 0x0, "i", 0x0, "m"
	DCB	0x0, "i", 0x0, "t", 0x0, " ", 0x0, "0", 0x0, "x", 0x0, "%"
	DCB	0x0, "0", 0x0, "4", 0x0, "x", 0x0, 0xd, 0x0, 0xa, 0x0, 0x0
	DCB	0x0					; `string'

  00000			 AREA	 |.rdata|, DATA, READONLY
|??_C@_1HE@CJJFOOJK@?$AAP?$AAC?$AAI?$AA?5?$AA?$CF?$AAd?$AA?1?$AA?$CF?$AAd?$AA?1?$AA?$CF?$AAd?$AA?5?$AA?9?$AA?5?$AAP?$AAr?$AAe?$AAf?$AAe?$AAt?$AAc?$AAh?$AA?5?$AAM?$AAe?$AAm?$AAB?$AAa?$AAs?$AAe?$AA?5@| DCB "P"
	DCB	0x0, "C", 0x0, "I", 0x0, " ", 0x0, "%", 0x0, "d", 0x0, "/"
	DCB	0x0, "%", 0x0, "d", 0x0, "/", 0x0, "%", 0x0, "d", 0x0, " "
	DCB	0x0, "-", 0x0, " ", 0x0, "P", 0x0, "r", 0x0, "e", 0x0, "f"
	DCB	0x0, "e", 0x0, "t", 0x0, "c", 0x0, "h", 0x0, " ", 0x0, "M"
	DCB	0x0, "e", 0x0, "m", 0x0, "B", 0x0, "a", 0x0, "s", 0x0, "e"
	DCB	0x0, " ", 0x0, "0", 0x0, "x", 0x0, "%", 0x0, "0", 0x0, "4"
	DCB	0x0, "x", 0x0, " ", 0x0, " ", 0x0, "M", 0x0, "e", 0x0, "m"
	DCB	0x0, "L", 0x0, "i", 0x0, "m", 0x0, "i", 0x0, "t", 0x0, " "
	DCB	0x0, "0", 0x0, "x", 0x0, "%", 0x0, "0", 0x0, "4", 0x0, "x"
	DCB	0x0, 0xd, 0x0, 0xa, 0x0, 0x0, 0x0	; `string'

  00000			 AREA	 |.rdata|, DATA, READONLY
|??_C@_1HO@JGCGLKPH@?$AAP?$AAC?$AAI?$AA?5?$AA?$CF?$AAd?$AA?1?$AA?$CF?$AAd?$AA?1?$AA?$CF?$AAd?$AA?5?$AA?9?$AA?5?$AAM?$AAe?$AAm?$AAB?$AAa?$AAs?$AAe?$AAU?$AAp?$AAp?$AAe?$AAr?$AA3?$AA2?$AA?5?$AA0?$AAx@| DCB "P"
	DCB	0x0, "C", 0x0, "I", 0x0, " ", 0x0, "%", 0x0, "d", 0x0, "/"
	DCB	0x0, "%", 0x0, "d", 0x0, "/", 0x0, "%", 0x0, "d", 0x0, " "
	DCB	0x0, "-", 0x0, " ", 0x0, "M", 0x0, "e", 0x0, "m", 0x0, "B"
	DCB	0x0, "a", 0x0, "s", 0x0, "e", 0x0, "U", 0x0, "p", 0x0, "p"
	DCB	0x0, "e", 0x0, "r", 0x0, "3", 0x0, "2", 0x0, " ", 0x0, "0"
	DCB	0x0, "x", 0x0, "%", 0x0, "0", 0x0, "8", 0x0, "x", 0x0, " "
	DCB	0x0, " ", 0x0, "M", 0x0, "e", 0x0, "m", 0x0, "L", 0x0, "i"
	DCB	0x0, "m", 0x0, "i", 0x0, "t", 0x0, "U", 0x0, "p", 0x0, "p"
	DCB	0x0, "e", 0x0, "r", 0x0, "3", 0x0, "2", 0x0, " ", 0x0, "0"
	DCB	0x0, "x", 0x0, "%", 0x0, "0", 0x0, "8", 0x0, "x", 0x0, 0xd
	DCB	0x0, 0xa, 0x0, 0x0, 0x0			; `string'

  00000			 AREA	 |.rdata|, DATA, READONLY
|??_C@_1HC@NDOFNJLH@?$AAP?$AAC?$AAI?$AA?5?$AA?$CF?$AAd?$AA?1?$AA?$CF?$AAd?$AA?1?$AA?$CF?$AAd?$AA?5?$AA?9?$AA?5?$AAS?$AAe?$AAc?$AAL?$AAa?$AAt?$AAe?$AAn?$AAc?$AAy?$AA?5?$AA0?$AAx?$AA?$CF?$AA0?$AA2?$AAx@| DCB "P"
	DCB	0x0, "C", 0x0, "I", 0x0, " ", 0x0, "%", 0x0, "d", 0x0, "/"
	DCB	0x0, "%", 0x0, "d", 0x0, "/", 0x0, "%", 0x0, "d", 0x0, " "
	DCB	0x0, "-", 0x0, " ", 0x0, "S", 0x0, "e", 0x0, "c", 0x0, "L"
	DCB	0x0, "a", 0x0, "t", 0x0, "e", 0x0, "n", 0x0, "c", 0x0, "y"
	DCB	0x0, " ", 0x0, "0", 0x0, "x", 0x0, "%", 0x0, "0", 0x0, "2"
	DCB	0x0, "x", 0x0, " ", 0x0, " ", 0x0, "B", 0x0, "r", 0x0, "i"
	DCB	0x0, "d", 0x0, "g", 0x0, "e", 0x0, "C", 0x0, "o", 0x0, "n"
	DCB	0x0, "t", 0x0, "r", 0x0, "o", 0x0, "l", 0x0, " ", 0x0, "0"
	DCB	0x0, "x", 0x0, "%", 0x0, "0", 0x0, "4", 0x0, "x", 0x0, 0xd
	DCB	0x0, 0xa, 0x0, 0x0, 0x0			; `string'

  00000			 AREA	 |.rdata|, DATA, READONLY
|??_C@_1HK@ICNCEAFI@?$AAP?$AAC?$AAI?$AA?5?$AA?$CF?$AAd?$AA?1?$AA?$CF?$AAd?$AA?1?$AA?$CF?$AAd?$AA?5?$AA?9?$AA?5?$AAR?$AAO?$AAM?$AA?5?$AA0?$AAx?$AA?$CF?$AA0?$AA8?$AAx?$AA?5?$AA?5?$AAI?$AAn?$AAt?$AAr?$AAL@| DCB "P"
	DCB	0x0, "C", 0x0, "I", 0x0, " ", 0x0, "%", 0x0, "d", 0x0, "/"
	DCB	0x0, "%", 0x0, "d", 0x0, "/", 0x0, "%", 0x0, "d", 0x0, " "
	DCB	0x0, "-", 0x0, " ", 0x0, "R", 0x0, "O", 0x0, "M", 0x0, " "
	DCB	0x0, "0", 0x0, "x", 0x0, "%", 0x0, "0", 0x0, "8", 0x0, "x"
	DCB	0x0, " ", 0x0, " ", 0x0, "I", 0x0, "n", 0x0, "t", 0x0, "r"
	DCB	0x0, "L", 0x0, "i", 0x0, "n", 0x0, "e", 0x0, " ", 0x0, "0"
	DCB	0x0, "x", 0x0, "%", 0x0, "0", 0x0, "2", 0x0, "x", 0x0, " "
	DCB	0x0, " ", 0x0, "I", 0x0, "n", 0x0, "t", 0x0, "r", 0x0, "P"
	DCB	0x0, "i", 0x0, "n", 0x0, " ", 0x0, "0", 0x0, "x", 0x0, "%"
	DCB	0x0, "0", 0x0, "2", 0x0, "x", 0x0, 0xd, 0x0, 0xa, 0x0, 0x0
	DCB	0x0					; `string'

  00000			 AREA	 |.rdata|, DATA, READONLY
|??_C@_1M@JEHOPNL@?$AA?9?$AA?9?$AA?9?$AA?$AN?$AA?6?$AA?$AA@| DCB "-", 0x0
	DCB	"-", 0x0, "-", 0x0, 0xd, 0x0, 0xa, 0x0, 0x0, 0x0 ; `string'

  00000			 AREA	 |.rdata|, DATA, READONLY
|??_C@_1GE@PAMDEII@?$AAP?$AAC?$AAI?$AA?5?$AA?$CF?$AAd?$AA?1?$AA?$CF?$AAd?$AA?1?$AA?$CF?$AAd?$AA?5?$AA?9?$AA?5?$AAV?$AAe?$AAn?$AAd?$AAo?$AAr?$AAI?$AAD?$AA?5?$AA0?$AAx?$AA?$CF?$AA0?$AA4?$AAx?$AA?5?$AA?5@| DCB "P"
	DCB	0x0, "C", 0x0, "I", 0x0, " ", 0x0, "%", 0x0, "d", 0x0, "/"
	DCB	0x0, "%", 0x0, "d", 0x0, "/", 0x0, "%", 0x0, "d", 0x0, " "
	DCB	0x0, "-", 0x0, " ", 0x0, "V", 0x0, "e", 0x0, "n", 0x0, "d"
	DCB	0x0, "o", 0x0, "r", 0x0, "I", 0x0, "D", 0x0, " ", 0x0, "0"
	DCB	0x0, "x", 0x0, "%", 0x0, "0", 0x0, "4", 0x0, "x", 0x0, " "
	DCB	0x0, " ", 0x0, "D", 0x0, "e", 0x0, "v", 0x0, "i", 0x0, "c"
	DCB	0x0, "e", 0x0, "I", 0x0, "D", 0x0, " ", 0x0, "0", 0x0, "x"
	DCB	0x0, "%", 0x0, "0", 0x0, "4", 0x0, "x", 0x0, 0xd, 0x0, 0xa
	DCB	0x0, 0x0, 0x0				; `string'

  00000			 AREA	 |.rdata|, DATA, READONLY
|??_C@_1FO@OJPFKNEM@?$AAP?$AAC?$AAI?$AA?5?$AA?$CF?$AAd?$AA?1?$AA?$CF?$AAd?$AA?1?$AA?$CF?$AAd?$AA?5?$AA?9?$AA?5?$AAC?$AAo?$AAm?$AAm?$AAa?$AAn?$AAd?$AA?5?$AA0?$AAx?$AA?$CF?$AA0?$AA4?$AAx?$AA?5?$AA?5?$AAS@| DCB "P"
	DCB	0x0, "C", 0x0, "I", 0x0, " ", 0x0, "%", 0x0, "d", 0x0, "/"
	DCB	0x0, "%", 0x0, "d", 0x0, "/", 0x0, "%", 0x0, "d", 0x0, " "
	DCB	0x0, "-", 0x0, " ", 0x0, "C", 0x0, "o", 0x0, "m", 0x0, "m"
	DCB	0x0, "a", 0x0, "n", 0x0, "d", 0x0, " ", 0x0, "0", 0x0, "x"
	DCB	0x0, "%", 0x0, "0", 0x0, "4", 0x0, "x", 0x0, " ", 0x0, " "
	DCB	0x0, "S", 0x0, "t", 0x0, "a", 0x0, "t", 0x0, "u", 0x0, "s"
	DCB	0x0, " ", 0x0, "0", 0x0, "x", 0x0, "%", 0x0, "0", 0x0, "4"
	DCB	0x0, "x", 0x0, 0xd, 0x0, 0xa, 0x0, 0x0, 0x0 ; `string'

  00000			 AREA	 |.rdata|, DATA, READONLY
|??_C@_1JM@FNKAEBAM@?$AAP?$AAC?$AAI?$AA?5?$AA?$CF?$AAd?$AA?1?$AA?$CF?$AAd?$AA?1?$AA?$CF?$AAd?$AA?5?$AA?9?$AA?5?$AAR?$AAe?$AAv?$AA?5?$AA0?$AAx?$AA?$CF?$AA0?$AA2?$AAx?$AA?5?$AA?5?$AAP?$AAr?$AAo?$AAg?$AAI@| DCB "P"
	DCB	0x0, "C", 0x0, "I", 0x0, " ", 0x0, "%", 0x0, "d", 0x0, "/"
	DCB	0x0, "%", 0x0, "d", 0x0, "/", 0x0, "%", 0x0, "d", 0x0, " "
	DCB	0x0, "-", 0x0, " ", 0x0, "R", 0x0, "e", 0x0, "v", 0x0, " "
	DCB	0x0, "0", 0x0, "x", 0x0, "%", 0x0, "0", 0x0, "2", 0x0, "x"
	DCB	0x0, " ", 0x0, " ", 0x0, "P", 0x0, "r", 0x0, "o", 0x0, "g"
	DCB	0x0, "I", 0x0, "f", 0x0, " ", 0x0, "0", 0x0, "x", 0x0, "%"
	DCB	0x0, "0", 0x0, "2", 0x0, "x", 0x0, " ", 0x0, " ", 0x0, "S"
	DCB	0x0, "u", 0x0, "b", 0x0, "C", 0x0, "l", 0x0, "a", 0x0, "s"
	DCB	0x0, "s", 0x0, " ", 0x0, "0", 0x0, "x", 0x0, "%", 0x0, "0"
	DCB	0x0, "2", 0x0, "x", 0x0, " ", 0x0, " ", 0x0, "B", 0x0, "a"
	DCB	0x0, "s", 0x0, "e", 0x0, "C", 0x0, "l", 0x0, "a", 0x0, "s"
	DCB	0x0, "s", 0x0, " ", 0x0, "0", 0x0, "x", 0x0, "%", 0x0, "0"
	DCB	0x0, "2", 0x0, "x", 0x0, 0xd, 0x0, 0xa, 0x0, 0x0, 0x0 ; `string'

  00000			 AREA	 |.rdata|, DATA, READONLY
|??_C@_1JM@NMMOKKLK@?$AAP?$AAC?$AAI?$AA?5?$AA?$CF?$AAd?$AA?1?$AA?$CF?$AAd?$AA?1?$AA?$CF?$AAd?$AA?5?$AA?9?$AA?5?$AAC?$AAa?$AAc?$AAh?$AAe?$AAL?$AAi?$AAn?$AAe?$AA?5?$AA0?$AAx?$AA?$CF?$AA0?$AA2?$AAx?$AA?5@| DCB "P"
	DCB	0x0, "C", 0x0, "I", 0x0, " ", 0x0, "%", 0x0, "d", 0x0, "/"
	DCB	0x0, "%", 0x0, "d", 0x0, "/", 0x0, "%", 0x0, "d", 0x0, " "
	DCB	0x0, "-", 0x0, " ", 0x0, "C", 0x0, "a", 0x0, "c", 0x0, "h"
	DCB	0x0, "e", 0x0, "L", 0x0, "i", 0x0, "n", 0x0, "e", 0x0, " "
	DCB	0x0, "0", 0x0, "x", 0x0, "%", 0x0, "0", 0x0, "2", 0x0, "x"
	DCB	0x0, " ", 0x0, " ", 0x0, "L", 0x0, "a", 0x0, "t", 0x0, "e"
	DCB	0x0, "n", 0x0, "c", 0x0, "y", 0x0, " ", 0x0, "0", 0x0, "x"
	DCB	0x0, "%", 0x0, "0", 0x0, "2", 0x0, "x", 0x0, " ", 0x0, " "
	DCB	0x0, "H", 0x0, "e", 0x0, "a", 0x0, "d", 0x0, "e", 0x0, "r"
	DCB	0x0, " ", 0x0, "0", 0x0, "x", 0x0, "%", 0x0, "0", 0x0, "2"
	DCB	0x0, "x", 0x0, " ", 0x0, " ", 0x0, "B", 0x0, "I", 0x0, "S"
	DCB	0x0, "T", 0x0, " ", 0x0, "0", 0x0, "x", 0x0, "%", 0x0, "0"
	DCB	0x0, "2", 0x0, "x", 0x0, 0xd, 0x0, 0xa, 0x0, 0x0, 0x0 ; `string'
; Function compile flags: /Ogspy

  00000			 AREA	 |.text|, CODE, ARM

  00000	00000000	 DCD         |__GSHandlerCheck|
  00004	00000000	 DCD         |$T40344|

  00008		 |OALPCIDumpConfig| PROC

; 30   : {

  00008		 |$LN9@OALPCIDump|
  00008	e1a0c00d	 mov         r12, sp
  0000c	e92d000f	 stmdb       sp!, {r0 - r3}
  00010	e92d5030	 stmdb       sp!, {r4, r5, r12, lr}
  00014	e24ddf47	 sub         sp, sp, #0x47, 30
  00018		 |$M40345|
  00018	e1a05001	 mov         r5, r1
  0001c	e58d5130	 str         r5, [sp, #0x130]
  00020	e1a04000	 mov         r4, r0
  00024	e59f3354	 ldr         r3, [pc, #0x354]
  00028	e5933000	 ldr         r3, [r3]
  0002c	e58d3118	 str         r3, [sp, #0x118]

; 31   :     PCI_COMMON_CONFIG cfg;
; 32   : 
; 33   :     memset(&cfg, 0, sizeof(cfg));

  00030	e3a02c01	 mov         r2, #1, 24
  00034	e3a01000	 mov         r1, #0
  00038	e28d0018	 add         r0, sp, #0x18
  0003c	eb000000	 bl          memset

; 34   :     OALPCICfgRead(busId, pciLoc, 0, sizeof(cfg), &cfg);

  00040	e28d3018	 add         r3, sp, #0x18
  00044	e58d3000	 str         r3, [sp]
  00048	e3a03c01	 mov         r3, #1, 24
  0004c	e3a02000	 mov         r2, #0
  00050	e1a01005	 mov         r1, r5
  00054	e1a00004	 mov         r0, r4
  00058	eb000000	 bl          OALPCICfgRead

; 35   : 
; 36   :     OALLog(L"---\r\n");

  0005c	e59f0318	 ldr         r0, [pc, #0x318]
  00060	eb000000	 bl          NKDbgPrintfW

; 37   :     OALLog(
; 38   :         L"PCI %d/%d/%d - VendorID 0x%04x  DeviceID 0x%04x\r\n", 
; 39   :         pciLoc.bus, pciLoc.dev, pciLoc.fnc, cfg.VendorID, cfg.DeviceID
; 40   :     );        

  00064	e1dde1ba	 ldrh        lr, [sp, #0x1A]
  00068	e1dd41b8	 ldrh        r4, [sp, #0x18]
  0006c	e59f0304	 ldr         r0, [pc, #0x304]
  00070	e5dd3130	 ldrb        r3, [sp, #0x130]
  00074	e5dd2131	 ldrb        r2, [sp, #0x131]
  00078	e5dd1132	 ldrb        r1, [sp, #0x132]
  0007c	e58de004	 str         lr, [sp, #4]
  00080	e58d4000	 str         r4, [sp]
  00084	eb000000	 bl          NKDbgPrintfW

; 41   :     OALLog(
; 42   :         L"PCI %d/%d/%d - Command 0x%04x  Status 0x%04x\r\n", 
; 43   :         pciLoc.bus, pciLoc.dev, pciLoc.fnc, cfg.Command, cfg.Status
; 44   :     );        

  00088	e1dd31be	 ldrh        r3, [sp, #0x1E]
  0008c	e1dd21bc	 ldrh        r2, [sp, #0x1C]
  00090	e59f02dc	 ldr         r0, [pc, #0x2DC]
  00094	e5dd1132	 ldrb        r1, [sp, #0x132]
  00098	e58d3004	 str         r3, [sp, #4]
  0009c	e5dd3130	 ldrb        r3, [sp, #0x130]
  000a0	e58d2000	 str         r2, [sp]
  000a4	e5dd2131	 ldrb        r2, [sp, #0x131]
  000a8	eb000000	 bl          NKDbgPrintfW

; 45   :     OALLog(
; 46   :         L"PCI %d/%d/%d - Rev 0x%02x  ProgIf 0x%02x  SubClass 0x%02x  BaseClass 0x%02x\r\n", 
; 47   :         pciLoc.bus, pciLoc.dev, pciLoc.fnc, cfg.RevisionID, cfg.ProgIf,
; 48   :         cfg.SubClass, cfg.BaseClass
; 49   :     );        

  000ac	e5dd3023	 ldrb        r3, [sp, #0x23]
  000b0	e5dd2022	 ldrb        r2, [sp, #0x22]
  000b4	e5dd1021	 ldrb        r1, [sp, #0x21]
  000b8	e5dde020	 ldrb        lr, [sp, #0x20]
  000bc	e59f02ac	 ldr         r0, [pc, #0x2AC]
  000c0	e58d300c	 str         r3, [sp, #0xC]
  000c4	e5dd3130	 ldrb        r3, [sp, #0x130]
  000c8	e58d2008	 str         r2, [sp, #8]
  000cc	e5dd2131	 ldrb        r2, [sp, #0x131]
  000d0	e58d1004	 str         r1, [sp, #4]
  000d4	e5dd1132	 ldrb        r1, [sp, #0x132]
  000d8	e58de000	 str         lr, [sp]
  000dc	eb000000	 bl          NKDbgPrintfW

; 50   :     OALLog(
; 51   :         L"PCI %d/%d/%d - CacheLine 0x%02x  Latency 0x%02x  Header 0x%02x  BIST 0x%02x\r\n", 
; 52   :         pciLoc.bus, pciLoc.dev, pciLoc.fnc, cfg.CacheLineSize, cfg.LatencyTimer,
; 53   :         cfg.HeaderType, cfg.BIST
; 54   :     );        

  000e0	e5dd3027	 ldrb        r3, [sp, #0x27]
  000e4	e5dd2026	 ldrb        r2, [sp, #0x26]
  000e8	e5dd1025	 ldrb        r1, [sp, #0x25]
  000ec	e5dde024	 ldrb        lr, [sp, #0x24]
  000f0	e59f0274	 ldr         r0, [pc, #0x274]
  000f4	e58d300c	 str         r3, [sp, #0xC]
  000f8	e5dd3130	 ldrb        r3, [sp, #0x130]
  000fc	e58d2008	 str         r2, [sp, #8]
  00100	e5dd2131	 ldrb        r2, [sp, #0x131]
  00104	e58d1004	 str         r1, [sp, #4]
  00108	e5dd1132	 ldrb        r1, [sp, #0x132]
  0010c	e58de000	 str         lr, [sp]
  00110	eb000000	 bl          NKDbgPrintfW

; 55   : 
; 56   :     // Depending on device type do configuration
; 57   :     switch (cfg.HeaderType & ~PCI_MULTIFUNCTION) {

  00114	e5dd3026	 ldrb        r3, [sp, #0x26]
  00118	e3d33080	 bics        r3, r3, #0x80
  0011c	0a000052	 beq         |$LN2@OALPCIDump|
  00120	e3530001	 cmp         r3, #1
  00124	1a000080	 bne         |$LN3@OALPCIDump|

; 81   :         break;
; 82   :     case PCI_BRIDGE_TYPE:
; 83   :         OALLog(
; 84   :             L"PCI %d/%d/%d - Addresses 0x%08x 0x%08x\r\n", 
; 85   :             pciLoc.bus, pciLoc.dev, pciLoc.fnc, cfg.u.type1.BaseAddresses[0],
; 86   :             cfg.u.type1.BaseAddresses[1]
; 87   :         );

  00128	e59d302c	 ldr         r3, [sp, #0x2C]
  0012c	e59d2028	 ldr         r2, [sp, #0x28]
  00130	e59f0230	 ldr         r0, [pc, #0x230]
  00134	e5dd1132	 ldrb        r1, [sp, #0x132]
  00138	e58d3004	 str         r3, [sp, #4]
  0013c	e5dd3130	 ldrb        r3, [sp, #0x130]
  00140	e58d2000	 str         r2, [sp]
  00144	e5dd2131	 ldrb        r2, [sp, #0x131]
  00148	eb000000	 bl          NKDbgPrintfW

; 88   :         OALLog(
; 89   :             L"PCI %d/%d/%d - Bus Primary %d  Secondary %d  Subordinate %d\r\n", 
; 90   :             pciLoc.bus, pciLoc.dev, pciLoc.fnc, cfg.u.type1.PrimaryBusNumber,
; 91   :             cfg.u.type1.SecondaryBusNumber, cfg.u.type1.SubordinateBusNumber
; 92   :         );

  0014c	e5dd3032	 ldrb        r3, [sp, #0x32]
  00150	e5dd2031	 ldrb        r2, [sp, #0x31]
  00154	e5dd1030	 ldrb        r1, [sp, #0x30]
  00158	e59f0204	 ldr         r0, [pc, #0x204]
  0015c	e58d3008	 str         r3, [sp, #8]
  00160	e5dd3130	 ldrb        r3, [sp, #0x130]
  00164	e58d2004	 str         r2, [sp, #4]
  00168	e5dd2131	 ldrb        r2, [sp, #0x131]
  0016c	e58d1000	 str         r1, [sp]
  00170	e5dd1132	 ldrb        r1, [sp, #0x132]
  00174	eb000000	 bl          NKDbgPrintfW

; 93   :         OALLog(
; 94   :             L"PCI %d/%d/%d - IOBase 0x%02x  IOLimit 0x%02x  IOBaseUpper 0x%04x  IOLimitUpper 0x%04x\r\n", 
; 95   :             pciLoc.bus, pciLoc.dev, pciLoc.fnc, cfg.u.type1.IOBase, 
; 96   :             cfg.u.type1.IOLimit, cfg.u.type1.IOBaseUpper, 
; 97   :             cfg.u.type1.IOLimitUpper
; 98   :         );            

  00178	e1dd34ba	 ldrh        r3, [sp, #0x4A]
  0017c	e1dd24b8	 ldrh        r2, [sp, #0x48]
  00180	e5dd1035	 ldrb        r1, [sp, #0x35]
  00184	e5dde034	 ldrb        lr, [sp, #0x34]
  00188	e59f01d0	 ldr         r0, [pc, #0x1D0]
  0018c	e58d300c	 str         r3, [sp, #0xC]
  00190	e5dd3130	 ldrb        r3, [sp, #0x130]
  00194	e58d2008	 str         r2, [sp, #8]
  00198	e5dd2131	 ldrb        r2, [sp, #0x131]
  0019c	e58d1004	 str         r1, [sp, #4]
  001a0	e5dd1132	 ldrb        r1, [sp, #0x132]
  001a4	e58de000	 str         lr, [sp]
  001a8	eb000000	 bl          NKDbgPrintfW

; 99   :         OALLog(
; 100  :             L"PCI %d/%d/%d - MemBase 0x%04x  MemLimit 0x%04x\r\n", 
; 101  :             pciLoc.bus, pciLoc.dev, pciLoc.fnc, cfg.u.type1.MemoryBase, 
; 102  :             cfg.u.type1.MemoryLimit
; 103  :         );

  001ac	e1dd33ba	 ldrh        r3, [sp, #0x3A]
  001b0	e1dd23b8	 ldrh        r2, [sp, #0x38]
  001b4	e59f01a0	 ldr         r0, [pc, #0x1A0]
  001b8	e5dd1132	 ldrb        r1, [sp, #0x132]
  001bc	e58d3004	 str         r3, [sp, #4]
  001c0	e5dd3130	 ldrb        r3, [sp, #0x130]
  001c4	e58d2000	 str         r2, [sp]
  001c8	e5dd2131	 ldrb        r2, [sp, #0x131]
  001cc	eb000000	 bl          NKDbgPrintfW

; 104  :         OALLog(
; 105  :             L"PCI %d/%d/%d - Prefetch MemBase 0x%04x  MemLimit 0x%04x\r\n",
; 106  :             pciLoc.bus, pciLoc.dev, pciLoc.fnc, 
; 107  :             cfg.u.type1.PrefetchableMemoryBase, 
; 108  :             cfg.u.type1.PrefetchableMemoryLimit
; 109  :         );

  001d0	e1dd33be	 ldrh        r3, [sp, #0x3E]
  001d4	e1dd23bc	 ldrh        r2, [sp, #0x3C]
  001d8	e59f0178	 ldr         r0, [pc, #0x178]
  001dc	e5dd1132	 ldrb        r1, [sp, #0x132]
  001e0	e58d3004	 str         r3, [sp, #4]
  001e4	e5dd3130	 ldrb        r3, [sp, #0x130]
  001e8	e58d2000	 str         r2, [sp]
  001ec	e5dd2131	 ldrb        r2, [sp, #0x131]
  001f0	eb000000	 bl          NKDbgPrintfW

; 110  :         OALLog(
; 111  :             L"PCI %d/%d/%d - MemBaseUpper32 0x%08x  MemLimitUpper32 0x%08x\r\n", 
; 112  :             pciLoc.bus, pciLoc.dev, pciLoc.fnc, 
; 113  :             cfg.u.type1.PrefetchableMemoryBaseUpper32, 
; 114  :             cfg.u.type1.PrefetchableMemoryLimitUpper32
; 115  :         );            

  001f4	e59de044	 ldr         lr, [sp, #0x44]
  001f8	e59d4040	 ldr         r4, [sp, #0x40]
  001fc	e59f0150	 ldr         r0, [pc, #0x150]
  00200	e5dd3130	 ldrb        r3, [sp, #0x130]
  00204	e5dd2131	 ldrb        r2, [sp, #0x131]
  00208	e5dd1132	 ldrb        r1, [sp, #0x132]
  0020c	e58de004	 str         lr, [sp, #4]
  00210	e58d4000	 str         r4, [sp]
  00214	eb000000	 bl          NKDbgPrintfW

; 116  :         OALLog(
; 117  :             L"PCI %d/%d/%d - SecLatency 0x%02x  BridgeControl 0x%04x\r\n",
; 118  :             pciLoc.bus, pciLoc.dev, pciLoc.fnc, 
; 119  :             cfg.u.type1.SecondaryLatencyTimer,
; 120  :             cfg.u.type1.BridgeControl
; 121  :         );            

  00218	e1dde5b6	 ldrh        lr, [sp, #0x56]
  0021c	e5dd4033	 ldrb        r4, [sp, #0x33]
  00220	e59f0128	 ldr         r0, [pc, #0x128]
  00224	e5dd3130	 ldrb        r3, [sp, #0x130]
  00228	e5dd2131	 ldrb        r2, [sp, #0x131]
  0022c	e5dd1132	 ldrb        r1, [sp, #0x132]
  00230	e58de004	 str         lr, [sp, #4]
  00234	e58d4000	 str         r4, [sp]
  00238	eb000000	 bl          NKDbgPrintfW

; 122  :         OALLog(
; 123  :             L"PCI %d/%d/%d - ROM 0x%08x  IntrLine 0x%02x  IntrPin 0x%02x\r\n", 
; 124  :             pciLoc.bus, pciLoc.dev, pciLoc.fnc, cfg.u.type1.ExpansionROMBase,
; 125  :             cfg.u.type1.InterruptLine, cfg.u.type1.InterruptPin
; 126  :         );            

  0023c	e5dde055	 ldrb        lr, [sp, #0x55]
  00240	e5dd4054	 ldrb        r4, [sp, #0x54]
  00244	e59d5050	 ldr         r5, [sp, #0x50]
  00248	e59f00f4	 ldr         r0, [pc, #0xF4]
  0024c	e5dd3130	 ldrb        r3, [sp, #0x130]
  00250	e5dd2131	 ldrb        r2, [sp, #0x131]
  00254	e5dd1132	 ldrb        r1, [sp, #0x132]
  00258	e58de008	 str         lr, [sp, #8]
  0025c	e58d4004	 str         r4, [sp, #4]
  00260	e58d5000	 str         r5, [sp]
  00264	eb000000	 bl          NKDbgPrintfW

; 127  :         break;

  00268	ea00002f	 b           |$LN3@OALPCIDump|
  0026c		 |$LN2@OALPCIDump|

; 58   :     case PCI_DEVICE_TYPE:
; 59   :         OALLog(
; 60   :             L"PCI %d/%d/%d - Addresses 0x%08x 0x%08x 0x%08x 0x%08x 0x%08x 0x%08x\r\n", 
; 61   :             pciLoc.bus, pciLoc.dev, pciLoc.fnc, cfg.u.type0.BaseAddresses[0],
; 62   :             cfg.u.type0.BaseAddresses[1], cfg.u.type0.BaseAddresses[2], 
; 63   :             cfg.u.type0.BaseAddresses[3], cfg.u.type0.BaseAddresses[4], 
; 64   :             cfg.u.type0.BaseAddresses[5]
; 65   :         );

  0026c	e59d303c	 ldr         r3, [sp, #0x3C]
  00270	e59d2038	 ldr         r2, [sp, #0x38]
  00274	e59d1034	 ldr         r1, [sp, #0x34]
  00278	e59de030	 ldr         lr, [sp, #0x30]
  0027c	e59d402c	 ldr         r4, [sp, #0x2C]
  00280	e59d5028	 ldr         r5, [sp, #0x28]
  00284	e59f00c0	 ldr         r0, [pc, #0xC0]
  00288	e58d3014	 str         r3, [sp, #0x14]
  0028c	e5dd3130	 ldrb        r3, [sp, #0x130]
  00290	e58d2010	 str         r2, [sp, #0x10]
  00294	e5dd2131	 ldrb        r2, [sp, #0x131]
  00298	e58d100c	 str         r1, [sp, #0xC]
  0029c	e5dd1132	 ldrb        r1, [sp, #0x132]
  002a0	e58de008	 str         lr, [sp, #8]
  002a4	e58d4004	 str         r4, [sp, #4]
  002a8	e58d5000	 str         r5, [sp]
  002ac	eb000000	 bl          NKDbgPrintfW

; 66   :         OALLog(
; 67   :             L"PCI %d/%d/%d - CIS 0x%08x  SubVendorID 0x%04x  SubSystemID 0x%04x\r\n", 
; 68   :             pciLoc.bus, pciLoc.dev, pciLoc.fnc, cfg.u.type0.CIS, 
; 69   :             cfg.u.type0.SubVendorID, cfg.u.type0.SubSystemID
; 70   :         );

  002b0	e1dd34b6	 ldrh        r3, [sp, #0x46]
  002b4	e1dd24b4	 ldrh        r2, [sp, #0x44]
  002b8	e59d1040	 ldr         r1, [sp, #0x40]
  002bc	e59f0084	 ldr         r0, [pc, #0x84]
  002c0	e58d3008	 str         r3, [sp, #8]
  002c4	e5dd3130	 ldrb        r3, [sp, #0x130]
  002c8	e58d2004	 str         r2, [sp, #4]
  002cc	e5dd2131	 ldrb        r2, [sp, #0x131]
  002d0	e58d1000	 str         r1, [sp]
  002d4	e5dd1132	 ldrb        r1, [sp, #0x132]
  002d8	eb000000	 bl          NKDbgPrintfW

; 71   :         OALLog(
; 72   :             L"PCI %d/%d/%d - ROM 0x%08x  IntrLine 0x%02x  IntrPin 0x%02x\r\n", 
; 73   :             pciLoc.bus, pciLoc.dev, pciLoc.fnc, cfg.u.type0.ROMBaseAddress,
; 74   :             cfg.u.type0.InterruptLine, cfg.u.type0.InterruptPin
; 75   :         );            

  002dc	e5dd3055	 ldrb        r3, [sp, #0x55]
  002e0	e5dd2054	 ldrb        r2, [sp, #0x54]
  002e4	e59d1048	 ldr         r1, [sp, #0x48]
  002e8	e59f0054	 ldr         r0, [pc, #0x54]
  002ec	e58d3008	 str         r3, [sp, #8]
  002f0	e5dd3130	 ldrb        r3, [sp, #0x130]
  002f4	e58d2004	 str         r2, [sp, #4]
  002f8	e5dd2131	 ldrb        r2, [sp, #0x131]
  002fc	e58d1000	 str         r1, [sp]
  00300	e5dd1132	 ldrb        r1, [sp, #0x132]
  00304	eb000000	 bl          NKDbgPrintfW

; 76   :         OALLog(
; 77   :             L"PCI %d/%d/%d - MinGrant 0x%02x  MaxLatency 0x%02x\r\n", 
; 78   :             pciLoc.bus, pciLoc.dev, pciLoc.fnc, cfg.u.type0.MinimumGrant,
; 79   :             cfg.u.type0.MaximumLatency
; 80   :         );

  00308	e5dd3057	 ldrb        r3, [sp, #0x57]
  0030c	e5dd2056	 ldrb        r2, [sp, #0x56]
  00310	e59f0028	 ldr         r0, [pc, #0x28]
  00314	e5dd1132	 ldrb        r1, [sp, #0x132]
  00318	e58d3004	 str         r3, [sp, #4]
  0031c	e5dd3130	 ldrb        r3, [sp, #0x130]
  00320	e58d2000	 str         r2, [sp]
  00324	e5dd2131	 ldrb        r2, [sp, #0x131]
  00328	eb000000	 bl          NKDbgPrintfW
  0032c		 |$LN3@OALPCIDump|
  0032c	e59d0118	 ldr         r0, [sp, #0x118]
  00330	eb000000	 bl          __security_check_cookie

; 128  :     }
; 129  : }

  00334	e28ddf47	 add         sp, sp, #0x47, 30
  00338	e89d6030	 ldmia       sp, {r4, r5, sp, lr}
  0033c	e12fff1e	 bx          lr
  00340		 |$LN10@OALPCIDump|
  00340		 |$LN11@OALPCIDump|
  00340	00000000	 DCD         |??_C@_1GI@HLAJCALP@?$AAP?$AAC?$AAI?$AA?5?$AA?$CF?$AAd?$AA?1?$AA?$CF?$AAd?$AA?1?$AA?$CF?$AAd?$AA?5?$AA?9?$AA?5?$AAM?$AAi?$AAn?$AAG?$AAr?$AAa?$AAn?$AAt?$AA?5?$AA0?$AAx?$AA?$CF?$AA0?$AA2?$AAx?$AA?5?$AA?5@|
  00344		 |$LN12@OALPCIDump|
  00344	00000000	 DCD         |??_C@_1HK@ICNCEAFI@?$AAP?$AAC?$AAI?$AA?5?$AA?$CF?$AAd?$AA?1?$AA?$CF?$AAd?$AA?1?$AA?$CF?$AAd?$AA?5?$AA?9?$AA?5?$AAR?$AAO?$AAM?$AA?5?$AA0?$AAx?$AA?$CF?$AA0?$AA8?$AAx?$AA?5?$AA?5?$AAI?$AAn?$AAt?$AAr?$AAL@|
  00348		 |$LN13@OALPCIDump|
  00348	00000000	 DCD         |??_C@_1II@HLJEJEHG@?$AAP?$AAC?$AAI?$AA?5?$AA?$CF?$AAd?$AA?1?$AA?$CF?$AAd?$AA?1?$AA?$CF?$AAd?$AA?5?$AA?9?$AA?5?$AAC?$AAI?$AAS?$AA?5?$AA0?$AAx?$AA?$CF?$AA0?$AA8?$AAx?$AA?5?$AA?5?$AAS?$AAu?$AAb?$AAV?$AAe@|
  0034c		 |$LN14@OALPCIDump|
  0034c	00000000	 DCD         |??_C@_1IK@FIJCIEPN@?$AAP?$AAC?$AAI?$AA?5?$AA?$CF?$AAd?$AA?1?$AA?$CF?$AAd?$AA?1?$AA?$CF?$AAd?$AA?5?$AA?9?$AA?5?$AAA?$AAd?$AAd?$AAr?$AAe?$AAs?$AAs?$AAe?$AAs?$AA?5?$AA0?$AAx?$AA?$CF?$AA0?$AA8?$AAx?$AA?5@|
  00350		 |$LN15@OALPCIDump|
  00350	00000000	 DCD         |??_C@_1HC@NDOFNJLH@?$AAP?$AAC?$AAI?$AA?5?$AA?$CF?$AAd?$AA?1?$AA?$CF?$AAd?$AA?1?$AA?$CF?$AAd?$AA?5?$AA?9?$AA?5?$AAS?$AAe?$AAc?$AAL?$AAa?$AAt?$AAe?$AAn?$AAc?$AAy?$AA?5?$AA0?$AAx?$AA?$CF?$AA0?$AA2?$AAx@|
  00354		 |$LN16@OALPCIDump|
  00354	00000000	 DCD         |??_C@_1HO@JGCGLKPH@?$AAP?$AAC?$AAI?$AA?5?$AA?$CF?$AAd?$AA?1?$AA?$CF?$AAd?$AA?1?$AA?$CF?$AAd?$AA?5?$AA?9?$AA?5?$AAM?$AAe?$AAm?$AAB?$AAa?$AAs?$AAe?$AAU?$AAp?$AAp?$AAe?$AAr?$AA3?$AA2?$AA?5?$AA0?$AAx@|
  00358		 |$LN17@OALPCIDump|
  00358	00000000	 DCD         |??_C@_1HE@CJJFOOJK@?$AAP?$AAC?$AAI?$AA?5?$AA?$CF?$AAd?$AA?1?$AA?$CF?$AAd?$AA?1?$AA?$CF?$AAd?$AA?5?$AA?9?$AA?5?$AAP?$AAr?$AAe?$AAf?$AAe?$AAt?$AAc?$AAh?$AA?5?$AAM?$AAe?$AAm?$AAB?$AAa?$AAs?$AAe?$AA?5@|
  0035c		 |$LN18@OALPCIDump|
  0035c	00000000	 DCD         |??_C@_1GC@LBDLLJKM@?$AAP?$AAC?$AAI?$AA?5?$AA?$CF?$AAd?$AA?1?$AA?$CF?$AAd?$AA?1?$AA?$CF?$AAd?$AA?5?$AA?9?$AA?5?$AAM?$AAe?$AAm?$AAB?$AAa?$AAs?$AAe?$AA?5?$AA0?$AAx?$AA?$CF?$AA0?$AA4?$AAx?$AA?5?$AA?5?$AAM@|
  00360		 |$LN19@OALPCIDump|
  00360	00000000	 DCD         |??_C@_1LA@GAKAPNFM@?$AAP?$AAC?$AAI?$AA?5?$AA?$CF?$AAd?$AA?1?$AA?$CF?$AAd?$AA?1?$AA?$CF?$AAd?$AA?5?$AA?9?$AA?5?$AAI?$AAO?$AAB?$AAa?$AAs?$AAe?$AA?5?$AA0?$AAx?$AA?$CF?$AA0?$AA2?$AAx?$AA?5?$AA?5?$AAI?$AAO@|
  00364		 |$LN20@OALPCIDump|
  00364	00000000	 DCD         |??_C@_1HM@ECGGFNCI@?$AAP?$AAC?$AAI?$AA?5?$AA?$CF?$AAd?$AA?1?$AA?$CF?$AAd?$AA?1?$AA?$CF?$AAd?$AA?5?$AA?9?$AA?5?$AAB?$AAu?$AAs?$AA?5?$AAP?$AAr?$AAi?$AAm?$AAa?$AAr?$AAy?$AA?5?$AA?$CF?$AAd?$AA?5?$AA?5?$AAS@|
  00368		 |$LN21@OALPCIDump|
  00368	00000000	 DCD         |??_C@_1FC@KDMEOPEI@?$AAP?$AAC?$AAI?$AA?5?$AA?$CF?$AAd?$AA?1?$AA?$CF?$AAd?$AA?1?$AA?$CF?$AAd?$AA?5?$AA?9?$AA?5?$AAA?$AAd?$AAd?$AAr?$AAe?$AAs?$AAs?$AAe?$AAs?$AA?5?$AA0?$AAx?$AA?$CF?$AA0?$AA8?$AAx?$AA?5@|
  0036c		 |$LN22@OALPCIDump|
  0036c	00000000	 DCD         |??_C@_1JM@NMMOKKLK@?$AAP?$AAC?$AAI?$AA?5?$AA?$CF?$AAd?$AA?1?$AA?$CF?$AAd?$AA?1?$AA?$CF?$AAd?$AA?5?$AA?9?$AA?5?$AAC?$AAa?$AAc?$AAh?$AAe?$AAL?$AAi?$AAn?$AAe?$AA?5?$AA0?$AAx?$AA?$CF?$AA0?$AA2?$AAx?$AA?5@|
  00370		 |$LN23@OALPCIDump|
  00370	00000000	 DCD         |??_C@_1JM@FNKAEBAM@?$AAP?$AAC?$AAI?$AA?5?$AA?$CF?$AAd?$AA?1?$AA?$CF?$AAd?$AA?1?$AA?$CF?$AAd?$AA?5?$AA?9?$AA?5?$AAR?$AAe?$AAv?$AA?5?$AA0?$AAx?$AA?$CF?$AA0?$AA2?$AAx?$AA?5?$AA?5?$AAP?$AAr?$AAo?$AAg?$AAI@|
  00374		 |$LN24@OALPCIDump|
  00374	00000000	 DCD         |??_C@_1FO@OJPFKNEM@?$AAP?$AAC?$AAI?$AA?5?$AA?$CF?$AAd?$AA?1?$AA?$CF?$AAd?$AA?1?$AA?$CF?$AAd?$AA?5?$AA?9?$AA?5?$AAC?$AAo?$AAm?$AAm?$AAa?$AAn?$AAd?$AA?5?$AA0?$AAx?$AA?$CF?$AA0?$AA4?$AAx?$AA?5?$AA?5?$AAS@|
  00378		 |$LN25@OALPCIDump|
  00378	00000000	 DCD         |??_C@_1GE@PAMDEII@?$AAP?$AAC?$AAI?$AA?5?$AA?$CF?$AAd?$AA?1?$AA?$CF?$AAd?$AA?1?$AA?$CF?$AAd?$AA?5?$AA?9?$AA?5?$AAV?$AAe?$AAn?$AAd?$AAo?$AAr?$AAI?$AAD?$AA?5?$AA0?$AAx?$AA?$CF?$AA0?$AA4?$AAx?$AA?5?$AA?5@|
  0037c		 |$LN26@OALPCIDump|
  0037c	00000000	 DCD         |??_C@_1M@JEHOPNL@?$AA?9?$AA?9?$AA?9?$AA?$AN?$AA?6?$AA?$AA@|
  00380		 |$LN27@OALPCIDump|
  00380	00000000	 DCD         |__security_cookie|
  00384		 |$M40346|

			 ENDP  ; |OALPCIDumpConfig|

	EXPORT	|OALPCIDump|
	EXPORT	|??_C@_1FI@OFNLOLNG@?$AAP?$AAC?$AAI?$AA?5?$AA?$CF?$AAd?$AA?1?$AA?$CF?$AAd?$AA?1?$AA?$CF?$AAd?$AA?3?$AA?5?$AAV?$AAe?$AAn?$AAd?$AAo?$AAr?$AAI?$AAd?$AA?5?$AA?$CF?$AA0?$AA4?$AAx?$AA?5?$AAD?$AAe?$AAv?$AAi@| [ DATA ] ; `string'
	IMPORT	|OALPCIGetSubBusNum|
	IMPORT	|OALPCIGetHeaderType|
	IMPORT	|OALPCIGetId|

  00000			 AREA	 |.pdata|, PDATA
|$T40393| DCD	|$LN31@OALPCIDump@2|
	DCD	0x40005102

  00000			 AREA	 |.rdata|, DATA, READONLY
|??_C@_1FI@OFNLOLNG@?$AAP?$AAC?$AAI?$AA?5?$AA?$CF?$AAd?$AA?1?$AA?$CF?$AAd?$AA?1?$AA?$CF?$AAd?$AA?3?$AA?5?$AAV?$AAe?$AAn?$AAd?$AAo?$AAr?$AAI?$AAd?$AA?5?$AA?$CF?$AA0?$AA4?$AAx?$AA?5?$AAD?$AAe?$AAv?$AAi@| DCB "P"
	DCB	0x0, "C", 0x0, "I", 0x0, " ", 0x0, "%", 0x0, "d", 0x0, "/"
	DCB	0x0, "%", 0x0, "d", 0x0, "/", 0x0, "%", 0x0, "d", 0x0, ":"
	DCB	0x0, " ", 0x0, "V", 0x0, "e", 0x0, "n", 0x0, "d", 0x0, "o"
	DCB	0x0, "r", 0x0, "I", 0x0, "d", 0x0, " ", 0x0, "%", 0x0, "0"
	DCB	0x0, "4", 0x0, "x", 0x0, " ", 0x0, "D", 0x0, "e", 0x0, "v"
	DCB	0x0, "i", 0x0, "c", 0x0, "e", 0x0, "I", 0x0, "d", 0x0, " "
	DCB	0x0, "%", 0x0, "0", 0x0, "4", 0x0, "x", 0x0, 0xd, 0x0, 0xa
	DCB	0x0, 0x0, 0x0				; `string'
; Function compile flags: /Ogspy

  00000			 AREA	 |.text|, CODE, ARM

  00000		 |OALPCIDump| PROC

; 136  : {

  00000		 |$LN31@OALPCIDump@2|
  00000	e92d4ff0	 stmdb       sp!, {r4 - r11, lr}
  00004	e24dd00c	 sub         sp, sp, #0xC
  00008		 |$M40390|
  00008	e1a0b001	 mov         r11, r1
  0000c	e1a09000	 mov         r9, r0

; 137  :     OAL_PCI_LOCATION pciLoc;
; 138  :     UINT8 maxBus, subBus, header;
; 139  :     UINT32 id;
; 140  :     
; 141  :     // First find number of buses
; 142  :     maxBus = 0;
; 143  :     pciLoc.logicalLoc = 0;

  00010	e3a03000	 mov         r3, #0
  00014	e58d3008	 str         r3, [sp, #8]

; 144  :     while (pciLoc.bus <= maxBus) {

  00018	e3a03cff	 mov         r3, #0xFF, 24
  0001c	e383a0ff	 orr         r10, r3, #0xFF
  00020	e3a03000	 mov         r3, #0
  00024	e3a08000	 mov         r8, #0
  00028	e3a06000	 mov         r6, #0
  0002c		 |$LL17@OALPCIDump@2|

; 145  :         pciLoc.dev = 0;

  0002c	e5cd3009	 strb        r3, [sp, #9]

; 146  :         while (pciLoc.dev < PCI_MAX_DEVICES) {

  00030	e3a07000	 mov         r7, #0
  00034		 |$LL15@OALPCIDump@2|

; 147  :             pciLoc.fnc = 0;

  00034	e3a04000	 mov         r4, #0
  00038	e5cd4008	 strb        r4, [sp, #8]
  0003c		 |$LL13@OALPCIDump@2|

; 148  :             while (pciLoc.fnc < PCI_MAX_FUNCTION) {
; 149  :                 // Get device id
; 150  :                 id = OALPCIGetId(busId, pciLoc);

  0003c	e59d1008	 ldr         r1, [sp, #8]
  00040	e1a00009	 mov         r0, r9
  00044	eb000000	 bl          OALPCIGetId

; 151  :                 // If it is invalid (-1) let try next device
; 152  :                 if (LOWORD(id) == PCI_INVALID_VENDORID ||
; 153  :                     HIWORD(id) == PCI_INVALID_DEVICEID
; 154  :                 ) break;

  00048	e1a05800	 mov         r5, r0, lsl #16
  0004c	e1a05825	 mov         r5, r5, lsr #16
  00050	e155000a	 cmp         r5, r10
  00054	0a00002b	 beq         |$LN23@OALPCIDump@2|
  00058	e1a0e820	 mov         lr, r0, lsr #16
  0005c	e15e000a	 cmp         lr, r10
  00060	0a000028	 beq         |$LN23@OALPCIDump@2|

; 155  :                 // Dump device
; 156  :                 if (full) {

  00064	e35b0000	 cmp         r11, #0
  00068	0a000003	 beq         |$LN9@OALPCIDump@2|

; 157  :                     OALPCIDumpConfig(busId, pciLoc);

  0006c	e59d1008	 ldr         r1, [sp, #8]
  00070	e1a00009	 mov         r0, r9
  00074	eb000000	 bl          OALPCIDumpConfig

; 158  :                 } else {

  00078	ea000006	 b           |$LN8@OALPCIDump@2|
  0007c		 |$LN9@OALPCIDump@2|

; 159  :                     OALLog(
; 160  :                         L"PCI %d/%d/%d: VendorId %04x DeviceId %04x\r\n",
; 161  :                         pciLoc.bus, pciLoc.dev, pciLoc.fnc, LOWORD(id),
; 162  :                         HIWORD(id)
; 163  :                     );

  0007c	e59f00bc	 ldr         r0, [pc, #0xBC]
  00080	e1a03004	 mov         r3, r4
  00084	e1a02007	 mov         r2, r7
  00088	e1a01006	 mov         r1, r6
  0008c	e58de004	 str         lr, [sp, #4]
  00090	e58d5000	 str         r5, [sp]
  00094	eb000000	 bl          NKDbgPrintfW
  00098		 |$LN8@OALPCIDump@2|

; 164  :                 }
; 165  :                 // Read header
; 166  :                 header = OALPCIGetHeaderType(busId, pciLoc);

  00098	e59d1008	 ldr         r1, [sp, #8]
  0009c	e1a00009	 mov         r0, r9
  000a0	eb000000	 bl          OALPCIGetHeaderType
  000a4	e1a05000	 mov         r5, r0

; 167  :                 if (header == 0xFF) break;

  000a8	e35500ff	 cmp         r5, #0xFF
  000ac	0a000015	 beq         |$LN23@OALPCIDump@2|

; 168  :                 // We are on bus 0 and device is bridge read subordinate
; 169  :                 // bus number -- this give us maximal bus number on PCI bus
; 170  :                 if (pciLoc.bus == 0) {

  000b0	e3560000	 cmp         r6, #0
  000b4	1a00000a	 bne         |$LN2@OALPCIDump@2|

; 171  :                     switch (header & ~PCI_MULTIFUNCTION) {

  000b8	e3c53080	 bic         r3, r5, #0x80
  000bc	e2433001	 sub         r3, r3, #1
  000c0	e3530001	 cmp         r3, #1
  000c4	8a000006	 bhi         |$LN2@OALPCIDump@2|

; 172  :                     case PCI_BRIDGE_TYPE:
; 173  :                     case PCI_CARDBUS_TYPE:
; 174  :                         subBus = OALPCIGetSubBusNum(busId, pciLoc);

  000c8	e59d1008	 ldr         r1, [sp, #8]
  000cc	e1a00009	 mov         r0, r9
  000d0	eb000000	 bl          OALPCIGetSubBusNum

; 175  :                         if (subBus != 0xFF && subBus > maxBus) maxBus = subBus;

  000d4	e35000ff	 cmp         r0, #0xFF
  000d8	0a000001	 beq         |$LN2@OALPCIDump@2|
  000dc	e1500008	 cmp         r0, r8
  000e0	81a08000	 movhi       r8, r0
  000e4		 |$LN2@OALPCIDump@2|

; 176  :                         break;
; 177  :                     }
; 178  :                 }
; 179  :                 // Break loop if device isn't multifunction
; 180  :                 if (pciLoc.fnc == 0 && (header & PCI_MULTIFUNCTION) == 0) break;

  000e4	e3540000	 cmp         r4, #0
  000e8	1a000001	 bne         |$LN1@OALPCIDump@2|
  000ec	e3150080	 tst         r5, #0x80
  000f0	0a000004	 beq         |$LN23@OALPCIDump@2|
  000f4		 |$LN1@OALPCIDump@2|

; 181  :                 // Move to next function
; 182  :                 pciLoc.fnc++;

  000f4	e2843001	 add         r3, r4, #1
  000f8	e20340ff	 and         r4, r3, #0xFF
  000fc	e5cd4008	 strb        r4, [sp, #8]
  00100	e3540008	 cmp         r4, #8
  00104	3affffcc	 bcc         |$LL13@OALPCIDump@2|
  00108		 |$LN23@OALPCIDump@2|

; 183  :             }
; 184  :             pciLoc.dev++;

  00108	e2873001	 add         r3, r7, #1
  0010c	e20370ff	 and         r7, r3, #0xFF
  00110	e5cd7009	 strb        r7, [sp, #9]
  00114	e3570020	 cmp         r7, #0x20
  00118	3affffc5	 bcc         |$LL15@OALPCIDump@2|

; 185  :         }
; 186  :         pciLoc.bus++;

  0011c	e2863001	 add         r3, r6, #1
  00120	e20360ff	 and         r6, r3, #0xFF
  00124	e5cd600a	 strb        r6, [sp, #0xA]
  00128	e1560008	 cmp         r6, r8
  0012c	e3a03000	 mov         r3, #0
  00130	9affffbd	 bls         |$LL17@OALPCIDump@2|

; 187  :     }
; 188  : 
; 189  : }

  00134	e28dd00c	 add         sp, sp, #0xC
  00138	e8bd4ff0	 ldmia       sp!, {r4 - r11, lr}
  0013c	e12fff1e	 bx          lr
  00140		 |$LN32@OALPCIDump@2|
  00140		 |$LN33@OALPCIDump@2|
  00140	00000000	 DCD         |??_C@_1FI@OFNLOLNG@?$AAP?$AAC?$AAI?$AA?5?$AA?$CF?$AAd?$AA?1?$AA?$CF?$AAd?$AA?1?$AA?$CF?$AAd?$AA?3?$AA?5?$AAV?$AAe?$AAn?$AAd?$AAo?$AAr?$AAI?$AAd?$AA?5?$AA?$CF?$AA0?$AA4?$AAx?$AA?5?$AAD?$AAe?$AAv?$AAi@|
  00144		 |$M40391|

			 ENDP  ; |OALPCIDump|

	END
