; Listing generated by Microsoft (R) Optimizing Compiler Version 14.01.60511.01 

	TTL	C:\WINCE600\PLATFORM\COMMON\SRC\COMMON\PCI\register.c
	CODE32

  00000			 AREA	 |.drectve|, DRECTVE
	DCB	"-defaultlib:LIBCMT "
	DCB	"-defaultlib:OLDNAMES "


  00000			 AREA	 |.rdata|, DATA, READONLY
|EdbgVendorIds| DCW 0x0
	DCW	0x0
	DCD	0x4033
	DCB	0x1
	DCB	"AD", 0x0
	DCW	0x1050
	DCW	0x940
	DCD	0x4005
	DCB	0x1
	DCB	"LS", 0x0
	DCW	0x1050
	DCW	0x940
	DCD	0x2078
	DCB	0x1
	DCB	"LS", 0x0
	DCW	0x10ec
	DCW	0x8029
	DCD	0xc0f0
	DCB	0x1
	DCB	"KS", 0x0
	DCW	0x10ec
	DCW	0x8129
	DCD	0x0
	DCB	0x4
	DCB	"RT", 0x0
	DCW	0x10ec
	DCW	0x8139
	DCD	0x900b
	DCB	0x4
	DCB	"RT", 0x0
	DCW	0x10ec
	DCW	0x8139
	DCD	0xd0c9
	DCB	0x4
	DCB	"RT", 0x0
	DCW	0x10ec
	DCW	0x8139
	DCD	0xe04c
	DCB	0x4
	DCB	"RT", 0x0
	DCW	0x1186
	DCW	0x1300
	DCD	0x50ba
	DCB	0x4
	DCB	"DL", 0x0
	DCW	0x100b
	DCW	0x20
	DCD	0xa0cc
	DCB	0x5
	DCB	"NG", 0x0
	DCW	0x10b7
	DCW	0x9050
	DCD	0x6008
	DCB	0x6
	DCB	"3C", 0x0
	DCW	0x10b7
	DCW	0x9200
	DCD	0x476
	DCB	0x6
	DCB	"3C", 0x0
	EXPORT	|__$ArrayPad$| [ DATA ]
	EXPORT	|OALPCIRegisterAsUsed|
	EXPORT	|??_C@_1EC@BIMEMICO@?$AA?9?$AAO?$AAA?$AAL?$AAP?$AAC?$AAI?$AAR?$AAe?$AAg?$AAi?$AAs?$AAt?$AAe?$AAr?$AAA?$AAs?$AAU?$AAs?$AAe?$AAd?$AA?$CI?$AAr?$AAc?$AA?5?$AA?$DN?$AA?5?$AA?$CF?$AAd?$AA?$CJ?$AA?$AN?$AA?6@| [ DATA ] ; `string'
	EXPORT	|??_C@_1EE@PDFCDEEO@?$AAD?$AAr?$AAi?$AAv?$AAe?$AAr?$AAs?$AA?2?$AAB?$AAu?$AAi?$AAl?$AAt?$AAI?$AAn?$AA?2?$AAP?$AAC?$AAI?$AA?2?$AAI?$AAn?$AAs?$AAt?$AAa?$AAn?$AAc?$AAe?$AA?2?$AAK?$AAI?$AAT@| [ DATA ] ; `string'
	EXPORT	|??_C@_1HM@NOBBFMIE@?$AAE?$AAR?$AAR?$AAO?$AAR?$AA?3?$AAO?$AAA?$AAL?$AAP?$AAC?$AAI?$AAR?$AAe?$AAg?$AAi?$AAs?$AAt?$AAe?$AAr?$AAA?$AAs?$AAU?$AAs?$AAe?$AAd?$AA?3?$AA?5?$AAD?$AAe?$AAv?$AAi@| [ DATA ] ; `string'
	EXPORT	|??_C@_1EM@NJHFHOHC@?$AA?$CL?$AAO?$AAA?$AAL?$AAP?$AAC?$AAI?$AAR?$AAe?$AAg?$AAi?$AAs?$AAt?$AAe?$AAr?$AAA?$AAs?$AAU?$AAs?$AAe?$AAd?$AA?$CI?$AA?$CF?$AAd?$AA?0?$AA?5?$AA?$CF?$AAd?$AA?1?$AA?$CF?$AAd?$AA?1@| [ DATA ] ; `string'
	IMPORT	|PCIReg|
	IMPORT	|PCIInitInfo|
	IMPORT	|OALPCICfgRead|
	IMPORT	|NKDbgPrintfW|
	IMPORT	|dpCurSettings|
	IMPORT	|__GSHandlerCheck|
	IMPORT	|__security_cookie|
	IMPORT	|__security_check_cookie|
; File c:\wince600\platform\common\src\common\pci\register.c

  00000			 AREA	 |.pdata|, PDATA
|$T43154| DCD	|$LN13@OALPCIRegi|
	DCD	0xc0004504

  00000			 AREA	 |.xdata|, DATA
|$T43150| DCD	0xffffffd0

  00000			 AREA	 |.rdata|, DATA, READONLY
|??_C@_1EC@BIMEMICO@?$AA?9?$AAO?$AAA?$AAL?$AAP?$AAC?$AAI?$AAR?$AAe?$AAg?$AAi?$AAs?$AAt?$AAe?$AAr?$AAA?$AAs?$AAU?$AAs?$AAe?$AAd?$AA?$CI?$AAr?$AAc?$AA?5?$AA?$DN?$AA?5?$AA?$CF?$AAd?$AA?$CJ?$AA?$AN?$AA?6@| DCB "-"
	DCB	0x0, "O", 0x0, "A", 0x0, "L", 0x0, "P", 0x0, "C", 0x0, "I"
	DCB	0x0, "R", 0x0, "e", 0x0, "g", 0x0, "i", 0x0, "s", 0x0, "t"
	DCB	0x0, "e", 0x0, "r", 0x0, "A", 0x0, "s", 0x0, "U", 0x0, "s"
	DCB	0x0, "e", 0x0, "d", 0x0, "(", 0x0, "r", 0x0, "c", 0x0, " "
	DCB	0x0, "=", 0x0, " ", 0x0, "%", 0x0, "d", 0x0, ")", 0x0, 0xd
	DCB	0x0, 0xa, 0x0, 0x0, 0x0			; `string'

  00000			 AREA	 |.rdata|, DATA, READONLY
|??_C@_1EE@PDFCDEEO@?$AAD?$AAr?$AAi?$AAv?$AAe?$AAr?$AAs?$AA?2?$AAB?$AAu?$AAi?$AAl?$AAt?$AAI?$AAn?$AA?2?$AAP?$AAC?$AAI?$AA?2?$AAI?$AAn?$AAs?$AAt?$AAa?$AAn?$AAc?$AAe?$AA?2?$AAK?$AAI?$AAT@| DCB "D"
	DCB	0x0, "r", 0x0, "i", 0x0, "v", 0x0, "e", 0x0, "r", 0x0, "s"
	DCB	0x0, "\\", 0x0, "B", 0x0, "u", 0x0, "i", 0x0, "l", 0x0, "t"
	DCB	0x0, "I", 0x0, "n", 0x0, "\\", 0x0, "P", 0x0, "C", 0x0, "I"
	DCB	0x0, "\\", 0x0, "I", 0x0, "n", 0x0, "s", 0x0, "t", 0x0, "a"
	DCB	0x0, "n", 0x0, "c", 0x0, "e", 0x0, "\\", 0x0, "K", 0x0, "I"
	DCB	0x0, "T", 0x0, "L", 0x0, 0x0, 0x0	; `string'

  00000			 AREA	 |.rdata|, DATA, READONLY
|??_C@_1HM@NOBBFMIE@?$AAE?$AAR?$AAR?$AAO?$AAR?$AA?3?$AAO?$AAA?$AAL?$AAP?$AAC?$AAI?$AAR?$AAe?$AAg?$AAi?$AAs?$AAt?$AAe?$AAr?$AAA?$AAs?$AAU?$AAs?$AAe?$AAd?$AA?3?$AA?5?$AAD?$AAe?$AAv?$AAi@| DCB "E"
	DCB	0x0, "R", 0x0, "R", 0x0, "O", 0x0, "R", 0x0, ":", 0x0, "O"
	DCB	0x0, "A", 0x0, "L", 0x0, "P", 0x0, "C", 0x0, "I", 0x0, "R"
	DCB	0x0, "e", 0x0, "g", 0x0, "i", 0x0, "s", 0x0, "t", 0x0, "e"
	DCB	0x0, "r", 0x0, "A", 0x0, "s", 0x0, "U", 0x0, "s", 0x0, "e"
	DCB	0x0, "d", 0x0, ":", 0x0, " ", 0x0, "D", 0x0, "e", 0x0, "v"
	DCB	0x0, "i", 0x0, "c", 0x0, "e", 0x0, " ", 0x0, "c", 0x0, "o"
	DCB	0x0, "n", 0x0, "f", 0x0, "i", 0x0, "g", 0x0, " ", 0x0, "s"
	DCB	0x0, "p", 0x0, "a", 0x0, "c", 0x0, "e", 0x0, " ", 0x0, "r"
	DCB	0x0, "e", 0x0, "a", 0x0, "d", 0x0, " ", 0x0, "f", 0x0, "a"
	DCB	0x0, "i", 0x0, "l", 0x0, "e", 0x0, "d", 0x0, 0xd, 0x0, 0xa
	DCB	0x0, 0x0, 0x0				; `string'

  00000			 AREA	 |.rdata|, DATA, READONLY
|??_C@_1EM@NJHFHOHC@?$AA?$CL?$AAO?$AAA?$AAL?$AAP?$AAC?$AAI?$AAR?$AAe?$AAg?$AAi?$AAs?$AAt?$AAe?$AAr?$AAA?$AAs?$AAU?$AAs?$AAe?$AAd?$AA?$CI?$AA?$CF?$AAd?$AA?0?$AA?5?$AA?$CF?$AAd?$AA?1?$AA?$CF?$AAd?$AA?1@| DCB "+"
	DCB	0x0, "O", 0x0, "A", 0x0, "L", 0x0, "P", 0x0, "C", 0x0, "I"
	DCB	0x0, "R", 0x0, "e", 0x0, "g", 0x0, "i", 0x0, "s", 0x0, "t"
	DCB	0x0, "e", 0x0, "r", 0x0, "A", 0x0, "s", 0x0, "U", 0x0, "s"
	DCB	0x0, "e", 0x0, "d", 0x0, "(", 0x0, "%", 0x0, "d", 0x0, ","
	DCB	0x0, " ", 0x0, "%", 0x0, "d", 0x0, "/", 0x0, "%", 0x0, "d"
	DCB	0x0, "/", 0x0, "%", 0x0, "d", 0x0, ")", 0x0, 0xd, 0x0, 0xa
	DCB	0x0, 0x0, 0x0				; `string'
; Function compile flags: /Ogspy

  00000			 AREA	 |.text|, CODE, ARM

  00000	00000000	 DCD         |__GSHandlerCheck|
  00004	00000000	 DCD         |$T43150|

  00008		 |OALPCIRegisterAsUsed| PROC

; 27   : {

  00008		 |$LN13@OALPCIRegi|
  00008	e1a0c00d	 mov         r12, sp
  0000c	e92d000f	 stmdb       sp!, {r0 - r3}
  00010	e92d51f0	 stmdb       sp!, {r4 - r8, r12, lr}
  00014	e24dde49	 sub         sp, sp, #0x49, 28
  00018		 |$M43151|
  00018	e1a08001	 mov         r8, r1
  0001c	e58d84b0	 str         r8, [sp, #0x4B0]
  00020	e1a05000	 mov         r5, r0
  00024	e59f30ec	 ldr         r3, [pc, #0xEC]
  00028	e5933000	 ldr         r3, [r3]
  0002c	e58d348c	 str         r3, [sp, #0x48C]

; 28   :     BOOL rc = FALSE;
; 29   :     PCI_COMMON_CONFIG pciCfg;
; 30   :     PCI_REG_INFO pciInfo;
; 31   : 
; 32   :     OALMSG(OAL_KITL&&OAL_FUNC, (
; 33   :         L"+OALPCIRegisterAsUsed(%d, %d/%d/%d)\r\n", busId, pciLoc.bus,
; 34   :         pciLoc.dev, pciLoc.fnc
; 35   :     ));

  00030	e59f60dc	 ldr         r6, [pc, #0xDC]
  00034	e5dd74b0	 ldrb        r7, [sp, #0x4B0]
  00038	e3a04000	 mov         r4, #0
  0003c	e5963440	 ldr         r3, [r6, #0x440]
  00040	e3130a01	 tst         r3, #1, 20
  00044	13130004	 tstne       r3, #4
  00048	159f00c0	 ldrne       r0, [pc, #0xC0]
  0004c	15dd34b1	 ldrneb      r3, [sp, #0x4B1]
  00050	15dd24b2	 ldrneb      r2, [sp, #0x4B2]
  00054	11a01005	 movne       r1, r5
  00058	158d7000	 strne       r7, [sp]
  0005c	1b000000	 blne        NKDbgPrintfW

; 36   : 
; 37   :     // First read all device configuration space
; 38   :     if (OALPCICfgRead(
; 39   :         busId, pciLoc, 0, sizeof(pciCfg), &pciCfg) != sizeof(pciCfg)
; 40   :     ) {

  00060	e28d300c	 add         r3, sp, #0xC
  00064	e58d3000	 str         r3, [sp]
  00068	e3a03c01	 mov         r3, #1, 24
  0006c	e3a02000	 mov         r2, #0
  00070	e1a01008	 mov         r1, r8
  00074	e1a00005	 mov         r0, r5
  00078	eb000000	 bl          OALPCICfgRead
  0007c	e3500c01	 cmp         r0, #1, 24
  00080	0a000005	 beq         |$LN1@OALPCIRegi|

; 41   :         OALMSG(OAL_ERROR, (
; 42   :             L"ERROR:OALPCIRegisterAsUsed: Device config space read failed\r\n"
; 43   :         ));            

  00084	e5963440	 ldr         r3, [r6, #0x440]
  00088	e3130001	 tst         r3, #1
  0008c	0a000011	 beq         |$cleanUp$43109|
  00090	e59f0074	 ldr         r0, [pc, #0x74]
  00094	eb000000	 bl          NKDbgPrintfW

; 44   :         goto cleanUp;

  00098	ea00000d	 b           |$LN10@OALPCIRegi|
  0009c		 |$LN1@OALPCIRegi|

; 45   :     }  
; 46   : 
; 47   :     // Fill info structure
; 48   :     PCIInitInfo(
; 49   :        L"Drivers\\BuiltIn\\PCI\\Instance\\KITL", pciLoc.bus, pciLoc.dev, 
; 50   :        pciLoc.fnc, pciCfg.u.type0.InterruptLine, &pciCfg, &pciInfo
; 51   :     );

  0009c	e5dde048	 ldrb        lr, [sp, #0x48]
  000a0	e59f0060	 ldr         r0, [pc, #0x60]
  000a4	e5dd24b1	 ldrb        r2, [sp, #0x4B1]
  000a8	e5dd14b2	 ldrb        r1, [sp, #0x4B2]
  000ac	e28d4f43	 add         r4, sp, #0x43, 30
  000b0	e28d500c	 add         r5, sp, #0xC
  000b4	e1a03007	 mov         r3, r7
  000b8	e58de000	 str         lr, [sp]
  000bc	e58d4008	 str         r4, [sp, #8]
  000c0	e58d5004	 str         r5, [sp, #4]
  000c4	eb000000	 bl          PCIInitInfo

; 52   : 
; 53   :     // And write it to registry
; 54   :     PCIReg(&pciInfo);

  000c8	e28d0f43	 add         r0, sp, #0x43, 30
  000cc	eb000000	 bl          PCIReg

; 55   : 
; 56   :     // We are done
; 57   :     rc = TRUE;

  000d0	e3a04001	 mov         r4, #1
  000d4		 |$LN10@OALPCIRegi|
  000d4	e5963440	 ldr         r3, [r6, #0x440]
  000d8		 |$cleanUp$43109|

; 58   : 
; 59   : cleanUp:
; 60   :     OALMSG(OAL_KITL&&OAL_FUNC, (L"-OALPCIRegisterAsUsed(rc = %d)\r\n", rc));

  000d8	e3130a01	 tst         r3, #1, 20
  000dc	13130004	 tstne       r3, #4
  000e0	159f001c	 ldrne       r0, [pc, #0x1C]
  000e4	11a01004	 movne       r1, r4
  000e8	1b000000	 blne        NKDbgPrintfW

; 61   :     return rc;

  000ec	e59d048c	 ldr         r0, [sp, #0x48C]
  000f0	eb000000	 bl          __security_check_cookie

; 62   : }

  000f4	e1a00004	 mov         r0, r4
  000f8	e28dde49	 add         sp, sp, #0x49, 28
  000fc	e89d61f0	 ldmia       sp, {r4 - r8, sp, lr}
  00100	e12fff1e	 bx          lr
  00104		 |$LN14@OALPCIRegi|
  00104		 |$LN15@OALPCIRegi|
  00104	00000000	 DCD         |??_C@_1EC@BIMEMICO@?$AA?9?$AAO?$AAA?$AAL?$AAP?$AAC?$AAI?$AAR?$AAe?$AAg?$AAi?$AAs?$AAt?$AAe?$AAr?$AAA?$AAs?$AAU?$AAs?$AAe?$AAd?$AA?$CI?$AAr?$AAc?$AA?5?$AA?$DN?$AA?5?$AA?$CF?$AAd?$AA?$CJ?$AA?$AN?$AA?6@|
  00108		 |$LN16@OALPCIRegi|
  00108	00000000	 DCD         |??_C@_1EE@PDFCDEEO@?$AAD?$AAr?$AAi?$AAv?$AAe?$AAr?$AAs?$AA?2?$AAB?$AAu?$AAi?$AAl?$AAt?$AAI?$AAn?$AA?2?$AAP?$AAC?$AAI?$AA?2?$AAI?$AAn?$AAs?$AAt?$AAa?$AAn?$AAc?$AAe?$AA?2?$AAK?$AAI?$AAT@|
  0010c		 |$LN17@OALPCIRegi|
  0010c	00000000	 DCD         |??_C@_1HM@NOBBFMIE@?$AAE?$AAR?$AAR?$AAO?$AAR?$AA?3?$AAO?$AAA?$AAL?$AAP?$AAC?$AAI?$AAR?$AAe?$AAg?$AAi?$AAs?$AAt?$AAe?$AAr?$AAA?$AAs?$AAU?$AAs?$AAe?$AAd?$AA?3?$AA?5?$AAD?$AAe?$AAv?$AAi@|
  00110		 |$LN18@OALPCIRegi|
  00110	00000000	 DCD         |??_C@_1EM@NJHFHOHC@?$AA?$CL?$AAO?$AAA?$AAL?$AAP?$AAC?$AAI?$AAR?$AAe?$AAg?$AAi?$AAs?$AAt?$AAe?$AAr?$AAA?$AAs?$AAU?$AAs?$AAe?$AAd?$AA?$CI?$AA?$CF?$AAd?$AA?0?$AA?5?$AA?$CF?$AAd?$AA?1?$AA?$CF?$AAd?$AA?1@|
  00114		 |$LN19@OALPCIRegi|
  00114	00000000	 DCD         |dpCurSettings|
  00118		 |$LN20@OALPCIRegi|
  00118	00000000	 DCD         |__security_cookie|
  0011c		 |$M43152|

			 ENDP  ; |OALPCIRegisterAsUsed|

	END
