; Listing generated by Microsoft (R) Optimizing Compiler Version 14.01.60511.01 

	TTL	C:\WINCE600\PLATFORM\COMMON\SRC\SOC\COMMON_TI_V1\OMAP3530\OAL\PRCM\prcm_clock.c
	CODE32

  00000			 AREA	 |.drectve|, DRECTVE
	DCB	"-defaultlib:LIBCMT "
	DCB	"-defaultlib:OLDNAMES "

	EXPORT	|??_C@_1CK@MFCDILAE@?$AAP?$AAM?$AA_?$AAP?$AAR?$AAE?$AAP?$AAW?$AAS?$AAT?$AAS?$AAT?$AA_?$AAU?$AAS?$AAB?$AAH?$AAO?$AAS?$AAT?$AA?$AA@| [ DATA ] ; `string'
	EXPORT	|??_C@_1CE@DINMMLDJ@?$AAP?$AAM?$AA_?$AAP?$AAW?$AAS?$AAT?$AAS?$AAT?$AA_?$AAU?$AAS?$AAB?$AAH?$AAO?$AAS?$AAT?$AA?$AA@| [ DATA ] ; `string'
	EXPORT	|??_C@_1CI@NFFMDMCO@?$AAP?$AAM?$AA_?$AAP?$AAW?$AAS?$AAT?$AAC?$AAT?$AAR?$AAL?$AA_?$AAU?$AAS?$AAB?$AAH?$AAO?$AAS?$AAT?$AA?$AA@| [ DATA ] ; `string'
	EXPORT	|??_C@_1CC@BANAFHHA@?$AAP?$AAM?$AA_?$AAW?$AAK?$AAD?$AAE?$AAP?$AA_?$AAU?$AAS?$AAB?$AAH?$AAO?$AAS?$AAT?$AA?$AA@| [ DATA ] ; `string'
	EXPORT	|??_C@_1CA@CDELFGFE@?$AAP?$AAM?$AA_?$AAW?$AAK?$AAS?$AAT?$AA_?$AAU?$AAS?$AAB?$AAH?$AAO?$AAS?$AAT?$AA?$AA@| [ DATA ] ; `string'
	EXPORT	|??_C@_1CM@CGFHEIFF@?$AAP?$AAM?$AA_?$AAI?$AAV?$AAA?$AA2?$AAG?$AAR?$AAP?$AAS?$AAE?$AAL?$AA_?$AAU?$AAS?$AAB?$AAH?$AAO?$AAS?$AAT?$AA?$AA@| [ DATA ] ; `string'
	EXPORT	|??_C@_1CK@KEHDDHL@?$AAP?$AAM?$AA_?$AAM?$AAP?$AAU?$AAG?$AAR?$AAP?$AAS?$AAE?$AAL?$AA_?$AAU?$AAS?$AAB?$AAH?$AAO?$AAS?$AAT?$AA?$AA@| [ DATA ] ; `string'
	EXPORT	|??_C@_1CA@EPJOENIO@?$AAP?$AAM?$AA_?$AAW?$AAK?$AAE?$AAN?$AA_?$AAU?$AAS?$AAB?$AAH?$AAO?$AAS?$AAT?$AA?$AA@| [ DATA ] ; `string'
	EXPORT	|??_C@_1CC@ELENAOBE@?$AAR?$AAM?$AA_?$AAR?$AAS?$AAT?$AAS?$AAT?$AA_?$AAU?$AAS?$AAB?$AAH?$AAO?$AAS?$AAT?$AA?$AA@| [ DATA ] ; `string'
	EXPORT	|??_C@_1BI@BEADJOPF@?$AAU?$AAS?$AAB?$AAH?$AAO?$AAS?$AAT?$AA_?$AAP?$AAR?$AAM?$AA?$AA@| [ DATA ] ; `string'
	EXPORT	|??_C@_1CE@PAIDKKJJ@?$AAP?$AAM?$AA_?$AAP?$AAR?$AAE?$AAP?$AAW?$AAS?$AAT?$AAS?$AAT?$AA_?$AAN?$AAE?$AAO?$AAN?$AA?$AA@| [ DATA ] ; `string'
	EXPORT	|??_C@_1BO@FMNCDJII@?$AAP?$AAM?$AA_?$AAP?$AAW?$AAS?$AAT?$AAS?$AAT?$AA_?$AAN?$AAE?$AAO?$AAN?$AA?$AA@| [ DATA ] ; `string'
	EXPORT	|??_C@_1CC@LCEDCBK@?$AAP?$AAM?$AA_?$AAP?$AAW?$AAS?$AAT?$AAC?$AAT?$AAR?$AAL?$AA_?$AAN?$AAE?$AAO?$AAN?$AA?$AA@| [ DATA ] ; `string'
	EXPORT	|??_C@_1BM@GLAGIPO@?$AAP?$AAM?$AA_?$AAW?$AAK?$AAD?$AAE?$AAP?$AA_?$AAN?$AAE?$AAO?$AAN?$AA?$AA@| [ DATA ] ; `string'
	EXPORT	|??_C@_1BM@LBPGJMOK@?$AAR?$AAM?$AA_?$AAR?$AAS?$AAT?$AAS?$AAT?$AA_?$AAN?$AAE?$AAO?$AAN?$AA?$AA@| [ DATA ] ; `string'
	EXPORT	|??_C@_1BC@JEBNFJEB@?$AAN?$AAE?$AAO?$AAN?$AA_?$AAP?$AAR?$AAM?$AA?$AA@| [ DATA ] ; `string'
	EXPORT	|??_C@_1BO@OOEJDAGP@?$AAP?$AAR?$AAM?$AA_?$AAV?$AAO?$AAL?$AAT?$AAS?$AAE?$AAT?$AAU?$AAP?$AA2?$AA?$AA@| [ DATA ] ; `string'
	EXPORT	|??_C@_1BI@HHOAEAAO@?$AAP?$AAR?$AAM?$AA_?$AAP?$AAO?$AAL?$AAC?$AAT?$AAR?$AAL?$AA?$AA@| [ DATA ] ; `string'
	EXPORT	|??_C@_1BK@INLANGOK@?$AAP?$AAR?$AAM?$AA_?$AAC?$AAL?$AAK?$AAS?$AAE?$AAT?$AAU?$AAP?$AA?$AA@| [ DATA ] ; `string'
	EXPORT	|??_C@_1BO@HNPCCMHL@?$AAP?$AAR?$AAM?$AA_?$AAV?$AAO?$AAL?$AAT?$AAO?$AAF?$AAF?$AAS?$AAE?$AAT?$AA?$AA@| [ DATA ] ; `string'
	EXPORT	|??_C@_1BO@PMPMJPIB@?$AAP?$AAR?$AAM?$AA_?$AAV?$AAO?$AAL?$AAT?$AAS?$AAE?$AAT?$AAU?$AAP?$AA1?$AA?$AA@| [ DATA ] ; `string'
	EXPORT	|??_C@_1BA@JADOMDEP@?$AAP?$AAR?$AAM?$AA_?$AAO?$AAB?$AAS?$AA?$AA@| [ DATA ] ; `string'
	EXPORT	|??_C@_1CA@DKBCEFNM@?$AAP?$AAR?$AAM?$AA_?$AAC?$AAL?$AAK?$AAS?$AAR?$AAC?$AA_?$AAC?$AAT?$AAR?$AAL?$AA?$AA@| [ DATA ] ; `string'
	EXPORT	|??_C@_1CC@PEAEBONP@?$AAP?$AAR?$AAM?$AA_?$AAS?$AAR?$AAA?$AAM?$AA_?$AAP?$AAC?$AAH?$AAA?$AAR?$AAG?$AAE?$AA?$AA@| [ DATA ] ; `string'
	EXPORT	|??_C@_1BK@HFKALEHA@?$AAP?$AAR?$AAM?$AA_?$AAV?$AAO?$AAL?$AAT?$AAC?$AAT?$AAR?$AAL?$AA?$AA@| [ DATA ] ; `string'
	EXPORT	|??_C@_1BE@HPDPAFDK@?$AAP?$AAR?$AAM?$AA_?$AAR?$AAS?$AAT?$AAS?$AAT?$AA?$AA@| [ DATA ] ; `string'
	EXPORT	|??_C@_1BI@BLFHBCIB@?$AAP?$AAR?$AAM?$AA_?$AAR?$AAS?$AAT?$AAT?$AAI?$AAM?$AAE?$AA?$AA@| [ DATA ] ; `string'
	EXPORT	|??_C@_1BI@LGBDFDCO@?$AAP?$AAR?$AAM?$AA_?$AAR?$AAS?$AAT?$AAC?$AAT?$AAR?$AAL?$AA?$AA@| [ DATA ] ; `string'
	EXPORT	|??_C@_1CE@LCNFDOGA@?$AAP?$AAR?$AAM?$AA_?$AAV?$AAC?$AA_?$AAB?$AAY?$AAP?$AAA?$AAS?$AAS?$AA_?$AAV?$AAA?$AAL?$AA?$AA@| [ DATA ] ; `string'
	EXPORT	|??_C@_1BO@CDICEJPF@?$AAP?$AAR?$AAM?$AA_?$AAV?$AAC?$AA_?$AAI?$AA2?$AAC?$AA_?$AAC?$AAF?$AAG?$AA?$AA@| [ DATA ] ; `string'
	EXPORT	|??_C@_1BO@NIKJKLFL@?$AAP?$AAR?$AAM?$AA_?$AAV?$AAC?$AA_?$AAC?$AAH?$AA_?$AAC?$AAO?$AAN?$AAF?$AA?$AA@| [ DATA ] ; `string'
	EXPORT	|??_C@_1CC@GOJIALCP@?$AAP?$AAR?$AAM?$AA_?$AAV?$AAC?$AA_?$AAC?$AAM?$AAD?$AA_?$AAV?$AAA?$AAL?$AA_?$AA1?$AA?$AA@| [ DATA ] ; `string'
	EXPORT	|??_C@_1CC@NGCEGMEK@?$AAP?$AAR?$AAM?$AA_?$AAV?$AAC?$AA_?$AAC?$AAM?$AAD?$AA_?$AAV?$AAA?$AAL?$AA_?$AA0?$AA?$AA@| [ DATA ] ; `string'
	EXPORT	|??_C@_1CG@PFFOICKB@?$AAP?$AAR?$AAM?$AA_?$AAV?$AAC?$AA_?$AAS?$AAM?$AAP?$AAS?$AA_?$AAC?$AAM?$AAD?$AA_?$AAR?$AAA?$AA?$AA@| [ DATA ] ; `string'
	EXPORT	|??_C@_1CG@OIKDAOML@?$AAP?$AAR?$AAM?$AA_?$AAV?$AAC?$AA_?$AAS?$AAM?$AAP?$AAS?$AA_?$AAV?$AAO?$AAL?$AA_?$AAR?$AAA?$AA?$AA@| [ DATA ] ; `string'
	EXPORT	|??_C@_1BO@LBDDPNOG@?$AAP?$AAR?$AAM?$AA_?$AAV?$AAC?$AA_?$AAS?$AAM?$AAP?$AAS?$AA_?$AAS?$AAA?$AA?$AA@| [ DATA ] ; `string'
	EXPORT	|??_C@_1BO@CAKCDBHG@?$AAG?$AAl?$AAo?$AAb?$AAa?$AAl?$AA_?$AAR?$AAe?$AAg?$AA_?$AAP?$AAR?$AAM?$AA?$AA@| [ DATA ] ; `string'
	EXPORT	|??_C@_1BM@NIBECDJF@?$AAP?$AAM?$AA_?$AAP?$AAW?$AAS?$AAT?$AAS?$AAT?$AA_?$AAE?$AAM?$AAU?$AA?$AA@| [ DATA ] ; `string'
	EXPORT	|??_C@_1BK@PHFAAKFB@?$AAR?$AAM?$AA_?$AAR?$AAS?$AAT?$AAS?$AAT?$AA_?$AAE?$AAM?$AAU?$AA?$AA@| [ DATA ] ; `string'
	EXPORT	|??_C@_1BA@CAPJDCOP@?$AAE?$AAM?$AAU?$AA_?$AAP?$AAR?$AAM?$AA?$AA@| [ DATA ] ; `string'
	EXPORT	|??_C@_1CC@EPBJKNIO@?$AAP?$AAM?$AA_?$AAP?$AAR?$AAE?$AAP?$AAW?$AAS?$AAT?$AAS?$AAT?$AA_?$AAP?$AAE?$AAR?$AA?$AA@| [ DATA ] ; `string'
	EXPORT	|??_C@_1BM@JNMLKGAO@?$AAP?$AAM?$AA_?$AAP?$AAW?$AAS?$AAT?$AAS?$AAT?$AA_?$AAP?$AAE?$AAR?$AA?$AA@| [ DATA ] ; `string'
	EXPORT	|??_C@_1CA@EHOJHBAJ@?$AAP?$AAM?$AA_?$AAP?$AAW?$AAS?$AAT?$AAC?$AAT?$AAR?$AAL?$AA_?$AAP?$AAE?$AAR?$AA?$AA@| [ DATA ] ; `string'
	EXPORT	|??_C@_1BK@MOOMJEJF@?$AAP?$AAM?$AA_?$AAW?$AAK?$AAD?$AAE?$AAP?$AA_?$AAP?$AAE?$AAR?$AA?$AA@| [ DATA ] ; `string'
	EXPORT	|??_C@_1BI@NCLGDPNJ@?$AAP?$AAM?$AA_?$AAW?$AAK?$AAS?$AAT?$AA_?$AAP?$AAE?$AAR?$AA?$AA@| [ DATA ] ; `string'
	EXPORT	|??_C@_1CE@KJGLJLDH@?$AAP?$AAM?$AA_?$AAI?$AAV?$AAA?$AA2?$AAG?$AAR?$AAP?$AAS?$AAE?$AAL?$AA_?$AAP?$AAE?$AAR?$AA?$AA@| [ DATA ] ; `string'
	EXPORT	|??_C@_1CC@FABFMEFM@?$AAP?$AAM?$AA_?$AAM?$AAP?$AAU?$AAG?$AAR?$AAP?$AAS?$AAE?$AAL?$AA_?$AAP?$AAE?$AAR?$AA?$AA@| [ DATA ] ; `string'
	EXPORT	|??_C@_1BI@KKOJENJO@?$AAP?$AAM?$AA_?$AAW?$AAK?$AAE?$AAN?$AA_?$AAP?$AAE?$AAR?$AA?$AA@| [ DATA ] ; `string'
	EXPORT	|??_C@_1BK@LCIPIPMK@?$AAR?$AAM?$AA_?$AAR?$AAS?$AAT?$AAS?$AAT?$AA_?$AAP?$AAE?$AAR?$AA?$AA@| [ DATA ] ; `string'
	EXPORT	|??_C@_1BA@PLEGCGNO@?$AAP?$AAE?$AAR?$AA_?$AAP?$AAR?$AAM?$AA?$AA@| [ DATA ] ; `string'
	EXPORT	|??_C@_1CC@COMGJOJJ@?$AAP?$AAM?$AA_?$AAP?$AAR?$AAE?$AAP?$AAW?$AAS?$AAT?$AAS?$AAT?$AA_?$AAC?$AAA?$AAM?$AA?$AA@| [ DATA ] ; `string'
	EXPORT	|??_C@_1BM@PMBEJFBJ@?$AAP?$AAM?$AA_?$AAP?$AAW?$AAS?$AAT?$AAS?$AAT?$AA_?$AAC?$AAA?$AAM?$AA?$AA@| [ DATA ] ; `string'
	EXPORT	|??_C@_1CA@CGDGECBO@?$AAP?$AAM?$AA_?$AAP?$AAW?$AAS?$AAT?$AAC?$AAT?$AAR?$AAL?$AA_?$AAC?$AAA?$AAM?$AA?$AA@| [ DATA ] ; `string'
	EXPORT	|??_C@_1BK@KPDDKHIC@?$AAP?$AAM?$AA_?$AAW?$AAK?$AAD?$AAE?$AAP?$AA_?$AAC?$AAA?$AAM?$AA?$AA@| [ DATA ] ; `string'
	EXPORT	|??_C@_1BK@NDFALMNN@?$AAR?$AAM?$AA_?$AAR?$AAS?$AAT?$AAS?$AAT?$AA_?$AAC?$AAA?$AAM?$AA?$AA@| [ DATA ] ; `string'
	EXPORT	|??_C@_1BA@FDIJFBCE@?$AAC?$AAA?$AAM?$AA_?$AAP?$AAR?$AAM?$AA?$AA@| [ DATA ] ; `string'
	EXPORT	|??_C@_1CC@NKNLBELM@?$AAP?$AAM?$AA_?$AAP?$AAR?$AAE?$AAP?$AAW?$AAS?$AAT?$AAS?$AAT?$AA_?$AAD?$AAS?$AAS?$AA?$AA@| [ DATA ] ; `string'
	EXPORT	|??_C@_1BM@IAJBPDM@?$AAP?$AAM?$AA_?$AAP?$AAW?$AAS?$AAT?$AAS?$AAT?$AA_?$AAD?$AAS?$AAS?$AA?$AA@| [ DATA ] ; `string'
	EXPORT	|??_C@_1CA@NCCLMIDL@?$AAP?$AAM?$AA_?$AAP?$AAW?$AAS?$AAT?$AAC?$AAT?$AAR?$AAL?$AA_?$AAD?$AAS?$AAS?$AA?$AA@| [ DATA ] ; `string'
	EXPORT	|??_C@_1BK@FLCOCNKH@?$AAP?$AAM?$AA_?$AAW?$AAK?$AAD?$AAE?$AAP?$AA_?$AAD?$AAS?$AAS?$AA?$AA@| [ DATA ] ; `string'
	EXPORT	|??_C@_1BI@DPCLPEKM@?$AAP?$AAM?$AA_?$AAW?$AAK?$AAE?$AAN?$AA_?$AAD?$AAS?$AAS?$AA?$AA@| [ DATA ] ; `string'
	EXPORT	|??_C@_1BK@CHENDGPI@?$AAR?$AAM?$AA_?$AAR?$AAS?$AAT?$AAS?$AAT?$AA_?$AAD?$AAS?$AAS?$AA?$AA@| [ DATA ] ; `string'
	EXPORT	|??_C@_1BA@MMIFGPHC@?$AAD?$AAS?$AAS?$AA_?$AAP?$AAR?$AAM?$AA?$AA@| [ DATA ] ; `string'
	EXPORT	|??_C@_1CA@PGMOAOBH@?$AAP?$AAR?$AAM?$AA_?$AAC?$AAL?$AAK?$AAO?$AAU?$AAT?$AA_?$AAC?$AAT?$AAR?$AAL?$AA?$AA@| [ DATA ] ; `string'
	EXPORT	|??_C@_1BG@BPBPBGIA@?$AAP?$AAR?$AAM?$AA_?$AAC?$AAL?$AAK?$AAS?$AAE?$AAL?$AA?$AA@| [ DATA ] ; `string'
	EXPORT	|??_C@_1CM@BOLGGOBJ@?$AAC?$AAl?$AAo?$AAc?$AAk?$AA_?$AAC?$AAo?$AAn?$AAt?$AAr?$AAo?$AAl?$AA_?$AAR?$AAe?$AAg?$AA_?$AAP?$AAR?$AAM?$AA?$AA@| [ DATA ] ; `string'
	EXPORT	|??_C@_1BK@MHMCLHIM@?$AAP?$AAM?$AA_?$AAW?$AAK?$AAS?$AAT?$AA_?$AAW?$AAK?$AAU?$AAP?$AA?$AA@| [ DATA ] ; `string'
	EXPORT	|??_C@_1CG@NGIEHFMC@?$AAP?$AAM?$AA_?$AAI?$AAV?$AAA?$AA2?$AAG?$AAR?$AAP?$AAS?$AAE?$AAL?$AA_?$AAW?$AAK?$AAU?$AAP?$AA?$AA@| [ DATA ] ; `string'
	EXPORT	|??_C@_1CE@KLFJHCLF@?$AAP?$AAM?$AA_?$AAM?$AAP?$AAU?$AAG?$AAR?$AAP?$AAS?$AAE?$AAL?$AA_?$AAW?$AAK?$AAU?$AAP?$AA?$AA@| [ DATA ] ; `string'
	EXPORT	|??_C@_1BK@MGPBAGAB@?$AAP?$AAM?$AA_?$AAW?$AAK?$AAE?$AAN?$AA_?$AAW?$AAK?$AAU?$AAP?$AA?$AA@| [ DATA ] ; `string'
	EXPORT	|??_C@_1BC@DDJDDDAK@?$AAW?$AAK?$AAU?$AAP?$AA_?$AAP?$AAR?$AAM?$AA?$AA@| [ DATA ] ; `string'
	EXPORT	|??_C@_1CC@ODODOLAC@?$AAP?$AAM?$AA_?$AAP?$AAR?$AAE?$AAP?$AAW?$AAS?$AAT?$AAS?$AAT?$AA_?$AAS?$AAG?$AAX?$AA?$AA@| [ DATA ] ; `string'
	EXPORT	|??_C@_1BM@DBDBOAIC@?$AAP?$AAM?$AA_?$AAP?$AAW?$AAS?$AAT?$AAS?$AAT?$AA_?$AAS?$AAG?$AAX?$AA?$AA@| [ DATA ] ; `string'
	EXPORT	|??_C@_1CA@OLBDDHIF@?$AAP?$AAM?$AA_?$AAP?$AAW?$AAS?$AAT?$AAC?$AAT?$AAR?$AAL?$AA_?$AAS?$AAG?$AAX?$AA?$AA@| [ DATA ] ; `string'
	EXPORT	|??_C@_1BK@GCBGNCBJ@?$AAP?$AAM?$AA_?$AAW?$AAK?$AAD?$AAE?$AAP?$AA_?$AAS?$AAG?$AAX?$AA?$AA@| [ DATA ] ; `string'
	EXPORT	|??_C@_1BK@BOHFMJEG@?$AAR?$AAM?$AA_?$AAR?$AAS?$AAT?$AAS?$AAT?$AA_?$AAS?$AAG?$AAX?$AA?$AA@| [ DATA ] ; `string'
	EXPORT	|??_C@_1BA@NJNHLOOA@?$AAS?$AAG?$AAX?$AA_?$AAP?$AAR?$AAM?$AA?$AA@| [ DATA ] ; `string'
	EXPORT	|??_C@_1CG@JIDDONFN@?$AAP?$AAM?$AA_?$AAM?$AAP?$AAU?$AAG?$AAR?$AAP?$AAS?$AAE?$AAL?$AA3?$AA_?$AAC?$AAO?$AAR?$AAE?$AA?$AA@| [ DATA ] ; `string'
	EXPORT	|??_C@_1CI@GGCJOKBC@?$AAP?$AAM?$AA_?$AAI?$AAV?$AAA?$AA2?$AAG?$AAR?$AAP?$AAS?$AAE?$AAL?$AA3?$AA_?$AAC?$AAO?$AAR?$AAE?$AA?$AA@| [ DATA ] ; `string'
	EXPORT	|??_C@_1BM@EPPCFOGM@?$AAP?$AAM?$AA_?$AAW?$AAK?$AAE?$AAN?$AA3?$AA_?$AAC?$AAO?$AAR?$AAE?$AA?$AA@| [ DATA ] ; `string'
	EXPORT	|??_C@_1CE@PMPEKLKF@?$AAP?$AAM?$AA_?$AAP?$AAR?$AAE?$AAP?$AAW?$AAS?$AAT?$AAS?$AAT?$AA_?$AAC?$AAO?$AAR?$AAE?$AA?$AA@| [ DATA ] ; `string'
	EXPORT	|??_C@_1BO@FAKFDILE@?$AAP?$AAM?$AA_?$AAP?$AAW?$AAS?$AAT?$AAS?$AAT?$AA_?$AAC?$AAO?$AAR?$AAE?$AA?$AA@| [ DATA ] ; `string'
	EXPORT	|??_C@_1CC@HFDDDCG@?$AAP?$AAM?$AA_?$AAP?$AAW?$AAS?$AAT?$AAC?$AAT?$AAR?$AAL?$AA_?$AAC?$AAO?$AAR?$AAE?$AA?$AA@| [ DATA ] ; `string'
	EXPORT	|??_C@_1BM@HNLJDKED@?$AAP?$AAM?$AA_?$AAW?$AAK?$AAS?$AAT?$AA3?$AA_?$AAC?$AAO?$AAR?$AAE?$AA?$AA@| [ DATA ] ; `string'
	EXPORT	|??_C@_1BM@JMNHPOOO@?$AAP?$AAM?$AA_?$AAW?$AAK?$AAS?$AAT?$AA1?$AA_?$AAC?$AAO?$AAR?$AAE?$AA?$AA@| [ DATA ] ; `string'
	EXPORT	|??_C@_1CI@IHEHCOLP@?$AAP?$AAM?$AA_?$AAI?$AAV?$AAA?$AA2?$AAG?$AAR?$AAP?$AAS?$AAE?$AAL?$AA1?$AA_?$AAC?$AAO?$AAR?$AAE?$AA?$AA@| [ DATA ] ; `string'
	EXPORT	|??_C@_1CG@HJFNCJPA@?$AAP?$AAM?$AA_?$AAM?$AAP?$AAU?$AAG?$AAR?$AAP?$AAS?$AAE?$AAL?$AA1?$AA_?$AAC?$AAO?$AAR?$AAE?$AA?$AA@| [ DATA ] ; `string'
	EXPORT	|??_C@_1BM@KOJMJKMB@?$AAP?$AAM?$AA_?$AAW?$AAK?$AAE?$AAN?$AA1?$AA_?$AAC?$AAO?$AAR?$AAE?$AA?$AA@| [ DATA ] ; `string'
	EXPORT	|??_C@_1BM@LNIBJNNG@?$AAR?$AAM?$AA_?$AAR?$AAS?$AAT?$AAS?$AAT?$AA_?$AAC?$AAO?$AAR?$AAE?$AA?$AA@| [ DATA ] ; `string'
	EXPORT	|??_C@_1BC@DDNPMELP@?$AAC?$AAO?$AAR?$AAE?$AA_?$AAP?$AAR?$AAM?$AA?$AA@| [ DATA ] ; `string'
	EXPORT	|??_C@_1CC@GGGLCCOF@?$AAP?$AAM?$AA_?$AAP?$AAR?$AAE?$AAP?$AAW?$AAS?$AAT?$AAS?$AAT?$AA_?$AAM?$AAP?$AAU?$AA?$AA@| [ DATA ] ; `string'
	EXPORT	|??_C@_1BM@LELJCJGF@?$AAP?$AAM?$AA_?$AAP?$AAW?$AAS?$AAT?$AAS?$AAT?$AA_?$AAM?$AAP?$AAU?$AA?$AA@| [ DATA ] ; `string'
	EXPORT	|??_C@_1CA@GOJLPOGC@?$AAP?$AAM?$AA_?$AAP?$AAW?$AAS?$AAT?$AAC?$AAT?$AAR?$AAL?$AA_?$AAM?$AAP?$AAU?$AA?$AA@| [ DATA ] ; `string'
	EXPORT	|??_C@_1CG@EAPFPBNK@?$AAP?$AAM?$AA_?$AAE?$AAV?$AAG?$AAE?$AAN?$AAO?$AAF?$AAF?$AAT?$AAI?$AAM?$AA_?$AAM?$AAP?$AAU?$AA?$AA@| [ DATA ] ; `string'
	EXPORT	|??_C@_1CE@GDJAJDKH@?$AAP?$AAM?$AA_?$AAE?$AAV?$AAG?$AAE?$AAN?$AAO?$AAN?$AAT?$AAI?$AAM?$AA_?$AAM?$AAP?$AAU?$AA?$AA@| [ DATA ] ; `string'
	EXPORT	|??_C@_1CC@MKEFHNLB@?$AAP?$AAM?$AA_?$AAE?$AAV?$AAG?$AAE?$AAN?$AAC?$AAT?$AAR?$AAL?$AA_?$AAM?$AAP?$AAU?$AA?$AA@| [ DATA ] ; `string'
	EXPORT	|??_C@_1BK@OHJOBLPO@?$AAP?$AAM?$AA_?$AAW?$AAK?$AAD?$AAE?$AAP?$AA_?$AAM?$AAP?$AAU?$AA?$AA@| [ DATA ] ; `string'
	EXPORT	|??_C@_1BK@JLPNAAKB@?$AAR?$AAM?$AA_?$AAR?$AAS?$AAT?$AAS?$AAT?$AA_?$AAM?$AAP?$AAU?$AA?$AA@| [ DATA ] ; `string'
	EXPORT	|??_C@_1BA@ICKCOBJH@?$AAM?$AAP?$AAU?$AA_?$AAP?$AAR?$AAM?$AA?$AA@| [ DATA ] ; `string'
	EXPORT	|??_C@_1CE@BEHICOCH@?$AAP?$AAR?$AAM?$AA_?$AAI?$AAR?$AAQ?$AAE?$AAN?$AAA?$AAB?$AAL?$AAE?$AA_?$AAM?$AAP?$AAU?$AA?$AA@| [ DATA ] ; `string'
	EXPORT	|??_C@_1CE@OGNKOJLH@?$AAP?$AAR?$AAM?$AA_?$AAI?$AAR?$AAQ?$AAS?$AAT?$AAA?$AAT?$AAU?$AAS?$AA_?$AAM?$AAP?$AAU?$AA?$AA@| [ DATA ] ; `string'
	EXPORT	|??_C@_1BM@BIKNBGAP@?$AAP?$AAR?$AAM?$AA_?$AAS?$AAY?$AAS?$AAC?$AAO?$AAN?$AAF?$AAI?$AAG?$AA?$AA@| [ DATA ] ; `string'
	EXPORT	|??_C@_1BK@HJNIKPGD@?$AAP?$AAR?$AAM?$AA_?$AAR?$AAE?$AAV?$AAI?$AAS?$AAI?$AAO?$AAN?$AA?$AA@| [ DATA ] ; `string'
	EXPORT	|??_C@_1CG@MLMHCLLI@?$AAO?$AAC?$AAP?$AA_?$AAS?$AAy?$AAs?$AAt?$AAe?$AAm?$AA_?$AAR?$AAe?$AAg?$AA_?$AAP?$AAR?$AAM?$AA?$AA@| [ DATA ] ; `string'
	EXPORT	|??_C@_1CG@LPCHCII@?$AAP?$AAR?$AAM?$AA_?$AAI?$AAR?$AAQ?$AAE?$AAN?$AAA?$AAB?$AAL?$AAE?$AA_?$AAI?$AAV?$AAA?$AA2?$AA?$AA@| [ DATA ] ; `string'
	EXPORT	|??_C@_1CG@HPLDFNCD@?$AAP?$AAR?$AAM?$AA_?$AAI?$AAR?$AAQ?$AAS?$AAT?$AAA?$AAT?$AAU?$AAS?$AA_?$AAI?$AAV?$AAA?$AA2?$AA?$AA@| [ DATA ] ; `string'
	EXPORT	|??_C@_1CE@PLIIPJHM@?$AAP?$AAM?$AA_?$AAP?$AAR?$AAE?$AAP?$AAW?$AAS?$AAT?$AAS?$AAT?$AA_?$AAI?$AAV?$AAA?$AA2?$AA?$AA@| [ DATA ] ; `string'
	EXPORT	|??_C@_1BO@FHNJGKGN@?$AAP?$AAM?$AA_?$AAP?$AAW?$AAS?$AAT?$AAS?$AAT?$AA_?$AAI?$AAV?$AAA?$AA2?$AA?$AA@| [ DATA ] ; `string'
	EXPORT	|??_C@_1CC@CPGBPP@?$AAP?$AAM?$AA_?$AAP?$AAW?$AAS?$AAT?$AAC?$AAT?$AAR?$AAL?$AA_?$AAI?$AAV?$AAA?$AA2?$AA?$AA@| [ DATA ] ; `string'
	EXPORT	|??_C@_1BM@NLLDLBL@?$AAP?$AAM?$AA_?$AAW?$AAK?$AAD?$AAE?$AAP?$AA_?$AAI?$AAV?$AAA?$AA2?$AA?$AA@| [ DATA ] ; `string'
	EXPORT	|??_C@_1BM@LKPNMPAP@?$AAR?$AAM?$AA_?$AAR?$AAS?$AAT?$AAS?$AAT?$AA_?$AAI?$AAV?$AAA?$AA2?$AA?$AA@| [ DATA ] ; `string'
	EXPORT	|??_C@_1CA@GBOALOJP@?$AAR?$AAM?$AA_?$AAR?$AAS?$AAT?$AAC?$AAT?$AAR?$AAL?$AA_?$AAI?$AAV?$AAA?$AA2?$AA?$AA@| [ DATA ] ; `string'
	EXPORT	|??_C@_1BC@FAAHEALM@?$AAI?$AAV?$AAA?$AA2?$AA_?$AAP?$AAR?$AAM?$AA?$AA@| [ DATA ] ; `string'
	EXPORT	|??_C@_1CG@EKKJOCAI@?$AAC?$AAM?$AA_?$AAC?$AAL?$AAK?$AAS?$AAT?$AAS?$AAT?$AA_?$AAU?$AAS?$AAB?$AAH?$AAO?$AAS?$AAT?$AA?$AA@| [ DATA ] ; `string'
	EXPORT	|??_C@_1CK@EGBEEDCG@?$AAC?$AAM?$AA_?$AAC?$AAL?$AAK?$AAS?$AAT?$AAC?$AAT?$AAR?$AAL?$AA_?$AAU?$AAS?$AAB?$AAH?$AAO?$AAS?$AAT?$AA?$AA@| [ DATA ] ; `string'
	EXPORT	|??_C@_1CI@GKCHFPIN@?$AAC?$AAM?$AA_?$AAS?$AAL?$AAE?$AAE?$AAP?$AAD?$AAE?$AAP?$AA_?$AAU?$AAS?$AAB?$AAH?$AAO?$AAS?$AAT?$AA?$AA@| [ DATA ] ; `string'
	EXPORT	|??_C@_1CI@DGALJPCE@?$AAC?$AAM?$AA_?$AAA?$AAU?$AAT?$AAO?$AAI?$AAD?$AAL?$AAE?$AA_?$AAU?$AAS?$AAB?$AAH?$AAO?$AAS?$AAT?$AA?$AA@| [ DATA ] ; `string'
	EXPORT	|??_C@_1CE@JPANCJP@?$AAC?$AAM?$AA_?$AAI?$AAD?$AAL?$AAE?$AAS?$AAT?$AA_?$AAU?$AAS?$AAB?$AAH?$AAO?$AAS?$AAT?$AA?$AA@| [ DATA ] ; `string'
	EXPORT	|??_C@_1CE@DBMFEPI@?$AAC?$AAM?$AA_?$AAI?$AAC?$AAL?$AAK?$AAE?$AAN?$AA_?$AAU?$AAS?$AAB?$AAH?$AAO?$AAS?$AAT?$AA?$AA@| [ DATA ] ; `string'
	EXPORT	|??_C@_1CE@IOEIODMB@?$AAC?$AAM?$AA_?$AAF?$AAC?$AAL?$AAK?$AAE?$AAN?$AA_?$AAU?$AAS?$AAB?$AAH?$AAO?$AAS?$AAT?$AA?$AA@| [ DATA ] ; `string'
	EXPORT	|??_C@_1BG@GHMGBAHH@?$AAU?$AAS?$AAB?$AAH?$AAO?$AAS?$AAT?$AA_?$AAC?$AAM?$AA?$AA@| [ DATA ] ; `string'
	EXPORT	|??_C@_1CE@ECPHHBNM@?$AAC?$AAM?$AA_?$AAC?$AAL?$AAK?$AAS?$AAT?$AAC?$AAT?$AAR?$AAL?$AA_?$AAN?$AAE?$AAO?$AAN?$AA?$AA@| [ DATA ] ; `string'
	EXPORT	|??_C@_1BO@IJPLNAMK@?$AAC?$AAM?$AA_?$AAI?$AAD?$AAL?$AAE?$AAS?$AAT?$AA_?$AAN?$AAE?$AAO?$AAN?$AA?$AA@| [ DATA ] ; `string'
	EXPORT	|??_C@_1BA@HGJCCLLN@?$AAN?$AAE?$AAO?$AAN?$AA_?$AAC?$AAM?$AA?$AA@| [ DATA ] ; `string'
	EXPORT	|??_C@_1BG@JLGAJAMH@?$AAC?$AAM?$AA_?$AAP?$AAO?$AAL?$AAC?$AAT?$AAR?$AAL?$AA?$AA@| [ DATA ] ; `string'
	EXPORT	|??_C@_1BM@KLCMOAEB@?$AAG?$AAl?$AAo?$AAb?$AAa?$AAl?$AA_?$AAR?$AAe?$AAg?$AA_?$AAC?$AAM?$AA?$AA@| [ DATA ] ; `string'
	EXPORT	|??_C@_1BO@DFKMIPJP@?$AAC?$AAM?$AA_?$AAC?$AAL?$AAK?$AAS?$AAE?$AAL?$AA3?$AA_?$AAE?$AAM?$AAU?$AA?$AA@| [ DATA ] ; `string'
	EXPORT	|??_C@_1BO@KOAJMDPA@?$AAC?$AAM?$AA_?$AAC?$AAL?$AAK?$AAS?$AAE?$AAL?$AA2?$AA_?$AAE?$AAM?$AAU?$AA?$AA@| [ DATA ] ; `string'
	EXPORT	|??_C@_1BO@BBAPCNIN@?$AAC?$AAM?$AA_?$AAC?$AAL?$AAK?$AAS?$AAT?$AAS?$AAT?$AA_?$AAE?$AAM?$AAU?$AA?$AA@| [ DATA ] ; `string'
	EXPORT	|??_C@_1CC@NGILBHGG@?$AAC?$AAM?$AA_?$AAC?$AAL?$AAK?$AAS?$AAT?$AAC?$AAT?$AAR?$AAL?$AA_?$AAE?$AAM?$AAU?$AA?$AA@| [ DATA ] ; `string'
	EXPORT	|??_C@_1BO@NJJHBBAA@?$AAC?$AAM?$AA_?$AAC?$AAL?$AAK?$AAS?$AAE?$AAL?$AA1?$AA_?$AAE?$AAM?$AAU?$AA?$AA@| [ DATA ] ; `string'
	EXPORT	|??_C@_1O@HGBLPNPO@?$AAE?$AAM?$AAU?$AA_?$AAC?$AAM?$AA?$AA@| [ DATA ] ; `string'
	EXPORT	|??_C@_1BO@FENAKIBG@?$AAC?$AAM?$AA_?$AAC?$AAL?$AAK?$AAS?$AAT?$AAS?$AAT?$AA_?$AAP?$AAE?$AAR?$AA?$AA@| [ DATA ] ; `string'
	EXPORT	|??_C@_1CC@JDFEJCPN@?$AAC?$AAM?$AA_?$AAC?$AAL?$AAK?$AAS?$AAT?$AAC?$AAT?$AAR?$AAL?$AA_?$AAP?$AAE?$AAR?$AA?$AA@| [ DATA ] ; `string'
	EXPORT	|??_C@_1CA@OCEIBJJL@?$AAC?$AAM?$AA_?$AAS?$AAL?$AAE?$AAE?$AAP?$AAD?$AAE?$AAP?$AA_?$AAP?$AAE?$AAR?$AA?$AA@| [ DATA ] ; `string'
	EXPORT	|??_C@_1BM@JGBOEBBM@?$AAC?$AAM?$AA_?$AAC?$AAL?$AAK?$AAS?$AAE?$AAL?$AA_?$AAP?$AAE?$AAR?$AA?$AA@| [ DATA ] ; `string'
	EXPORT	|??_C@_1CA@HEJEIAMO@?$AAC?$AAM?$AA_?$AAA?$AAU?$AAT?$AAO?$AAI?$AAD?$AAL?$AAE?$AA_?$AAP?$AAE?$AAR?$AA?$AA@| [ DATA ] ; `string'
	EXPORT	|??_C@_1BM@FMCKMJOI@?$AAC?$AAM?$AA_?$AAI?$AAD?$AAL?$AAE?$AAS?$AAT?$AA_?$AAP?$AAE?$AAR?$AA?$AA@| [ DATA ] ; `string'
	EXPORT	|??_C@_1BM@OFLDOLJH@?$AAC?$AAM?$AA_?$AAI?$AAC?$AAL?$AAK?$AAE?$AAN?$AA_?$AAP?$AAE?$AAR?$AA?$AA@| [ DATA ] ; `string'
	EXPORT	|??_C@_1BM@DJCJPDNH@?$AAC?$AAM?$AA_?$AAF?$AAC?$AAL?$AAK?$AAE?$AAN?$AA_?$AAP?$AAE?$AAR?$AA?$AA@| [ DATA ] ; `string'
	EXPORT	|??_C@_1O@HANKMCHI@?$AAP?$AAE?$AAR?$AA_?$AAC?$AAM?$AA?$AA@| [ DATA ] ; `string'
	EXPORT	|??_C@_1BO@DFAPJLAB@?$AAC?$AAM?$AA_?$AAC?$AAL?$AAK?$AAS?$AAT?$AAS?$AAT?$AA_?$AAC?$AAA?$AAM?$AA?$AA@| [ DATA ] ; `string'
	EXPORT	|??_C@_1CC@PCILKBOK@?$AAC?$AAM?$AA_?$AAC?$AAL?$AAK?$AAS?$AAT?$AAC?$AAT?$AAR?$AAL?$AA_?$AAC?$AAA?$AAM?$AA?$AA@| [ DATA ] ; `string'
	EXPORT	|??_C@_1CA@IDJHCKIM@?$AAC?$AAM?$AA_?$AAS?$AAL?$AAE?$AAE?$AAP?$AAD?$AAE?$AAP?$AA_?$AAC?$AAA?$AAM?$AA?$AA@| [ DATA ] ; `string'
	EXPORT	|??_C@_1BM@PHMBHCAL@?$AAC?$AAM?$AA_?$AAC?$AAL?$AAK?$AAS?$AAE?$AAL?$AA_?$AAC?$AAA?$AAM?$AA?$AA@| [ DATA ] ; `string'
	EXPORT	|??_C@_1CA@BFELLDNJ@?$AAC?$AAM?$AA_?$AAA?$AAU?$AAT?$AAO?$AAI?$AAD?$AAL?$AAE?$AA_?$AAC?$AAA?$AAM?$AA?$AA@| [ DATA ] ; `string'
	EXPORT	|??_C@_1BM@DNPFPKPP@?$AAC?$AAM?$AA_?$AAI?$AAD?$AAL?$AAE?$AAS?$AAT?$AA_?$AAC?$AAA?$AAM?$AA?$AA@| [ DATA ] ; `string'
	EXPORT	|??_C@_1BM@IEGMNIIA@?$AAC?$AAM?$AA_?$AAI?$AAC?$AAL?$AAK?$AAE?$AAN?$AA_?$AAC?$AAA?$AAM?$AA?$AA@| [ DATA ] ; `string'
	EXPORT	|??_C@_1BM@FIPGMAMA@?$AAC?$AAM?$AA_?$AAF?$AAC?$AAL?$AAK?$AAE?$AAN?$AA_?$AAC?$AAA?$AAM?$AA?$AA@| [ DATA ] ; `string'
	EXPORT	|??_C@_1O@LPKKDKNF@?$AAC?$AAA?$AAM?$AA_?$AAC?$AAM?$AA?$AA@| [ DATA ] ; `string'
	EXPORT	|??_C@_1BO@MBBCBBCE@?$AAC?$AAM?$AA_?$AAC?$AAL?$AAK?$AAS?$AAT?$AAS?$AAT?$AA_?$AAD?$AAS?$AAS?$AA?$AA@| [ DATA ] ; `string'
	EXPORT	|??_C@_1CC@GJGCLMP@?$AAC?$AAM?$AA_?$AAC?$AAL?$AAK?$AAS?$AAT?$AAC?$AAT?$AAR?$AAL?$AA_?$AAD?$AAS?$AAS?$AA?$AA@| [ DATA ] ; `string'
	EXPORT	|??_C@_1CA@HHIKKAKJ@?$AAC?$AAM?$AA_?$AAS?$AAL?$AAE?$AAE?$AAP?$AAD?$AAE?$AAP?$AA_?$AAD?$AAS?$AAS?$AA?$AA@| [ DATA ] ; `string'
	EXPORT	|??_C@_1BM@DNMPICO@?$AAC?$AAM?$AA_?$AAC?$AAL?$AAK?$AAS?$AAE?$AAL?$AA_?$AAD?$AAS?$AAS?$AA?$AA@| [ DATA ] ; `string'
	EXPORT	|??_C@_1CA@OBFGDJPM@?$AAC?$AAM?$AA_?$AAA?$AAU?$AAT?$AAO?$AAI?$AAD?$AAL?$AAE?$AA_?$AAD?$AAS?$AAS?$AA?$AA@| [ DATA ] ; `string'
	EXPORT	|??_C@_1BM@MJOIHANK@?$AAC?$AAM?$AA_?$AAI?$AAD?$AAL?$AAE?$AAS?$AAT?$AA_?$AAD?$AAS?$AAS?$AA?$AA@| [ DATA ] ; `string'
	EXPORT	|??_C@_1BM@HAHBFCKF@?$AAC?$AAM?$AA_?$AAI?$AAC?$AAL?$AAK?$AAE?$AAN?$AA_?$AAD?$AAS?$AAS?$AA?$AA@| [ DATA ] ; `string'
	EXPORT	|??_C@_1BM@KMOLEKOF@?$AAC?$AAM?$AA_?$AAF?$AAC?$AAL?$AAK?$AAE?$AAN?$AA_?$AAD?$AAS?$AAS?$AA?$AA@| [ DATA ] ; `string'
	EXPORT	|??_C@_1O@DCDFCCN@?$AAD?$AAS?$AAS?$AA_?$AAC?$AAM?$AA?$AA@| [ DATA ] ; `string'
	EXPORT	|??_C@_1BO@MLHAGPEI@?$AAC?$AAM?$AA_?$AAC?$AAL?$AAK?$AAO?$AAU?$AAT?$AA_?$AAC?$AAT?$AAR?$AAL?$AA?$AA@| [ DATA ] ; `string'
	EXPORT	|??_C@_1BO@IIHNOIA@?$AAC?$AAM?$AA_?$AAC?$AAL?$AAK?$AAS?$AAE?$AAL?$AA5?$AA_?$AAP?$AAL?$AAL?$AA?$AA@| [ DATA ] ; `string'
	EXPORT	|??_C@_1BO@JDCCJCOP@?$AAC?$AAM?$AA_?$AAC?$AAL?$AAK?$AAS?$AAE?$AAL?$AA4?$AA_?$AAP?$AAL?$AAL?$AA?$AA@| [ DATA ] ; `string'
	EXPORT	|??_C@_1BO@OHLKHLGA@?$AAC?$AAM?$AA_?$AAC?$AAL?$AAK?$AAS?$AAE?$AAL?$AA3?$AA_?$AAP?$AAL?$AAL?$AA?$AA@| [ DATA ] ; `string'
	EXPORT	|??_C@_1BO@HMBPDHAP@?$AAC?$AAM?$AA_?$AAC?$AAL?$AAK?$AAS?$AAE?$AAL?$AA2?$AA_?$AAP?$AAL?$AAL?$AA?$AA@| [ DATA ] ; `string'
	EXPORT	|??_C@_1BO@LIBOFPP@?$AAC?$AAM?$AA_?$AAC?$AAL?$AAK?$AAS?$AAE?$AAL?$AA1?$AA_?$AAP?$AAL?$AAL?$AA?$AA@| [ DATA ] ; `string'
	EXPORT	|??_C@_1CC@CDHCIADO@?$AAC?$AAM?$AA_?$AAA?$AAU?$AAT?$AAO?$AAI?$AAD?$AAL?$AAE?$AA2?$AA_?$AAP?$AAL?$AAL?$AA?$AA@| [ DATA ] ; `string'
	EXPORT	|??_C@_1CA@ODFNPBKK@?$AAC?$AAM?$AA_?$AAA?$AAU?$AAT?$AAO?$AAI?$AAD?$AAL?$AAE?$AA_?$AAP?$AAL?$AAL?$AA?$AA@| [ DATA ] ; `string'
	EXPORT	|??_C@_1CC@OBCEIAAE@?$AAC?$AAM?$AA_?$AAI?$AAD?$AAL?$AAE?$AAS?$AAT?$AA2?$AA_?$AAC?$AAK?$AAG?$AAE?$AAN?$AA?$AA@| [ DATA ] ; `string'
	EXPORT	|??_C@_1CA@PFEJJBMO@?$AAC?$AAM?$AA_?$AAI?$AAD?$AAL?$AAE?$AAS?$AAT?$AA_?$AAC?$AAK?$AAG?$AAE?$AAN?$AA?$AA@| [ DATA ] ; `string'
	EXPORT	|??_C@_1BM@DGCCAOAF@?$AAC?$AAM?$AA_?$AAC?$AAL?$AAK?$AAE?$AAN?$AA2?$AA_?$AAP?$AAL?$AAL?$AA?$AA@| [ DATA ] ; `string'
	EXPORT	|??_C@_1BK@CFOGEALB@?$AAC?$AAM?$AA_?$AAC?$AAL?$AAK?$AAE?$AAN?$AA_?$AAP?$AAL?$AAL?$AA?$AA@| [ DATA ] ; `string'
	EXPORT	|??_C@_1CK@OJMCKPMK@?$AAC?$AAl?$AAo?$AAc?$AAk?$AA_?$AAC?$AAo?$AAn?$AAt?$AAr?$AAo?$AAl?$AA_?$AAR?$AAe?$AAg?$AA_?$AAC?$AAM?$AA?$AA@| [ DATA ] ; `string'
	EXPORT	|??_C@_1BO@MGPCIMBE@?$AAC?$AAM?$AA_?$AAC?$AAL?$AAK?$AAS?$AAE?$AAL?$AA_?$AAW?$AAK?$AAU?$AAP?$AA?$AA@| [ DATA ] ; `string'
	EXPORT	|??_C@_1CC@JJJPDLCF@?$AAC?$AAM?$AA_?$AAA?$AAU?$AAT?$AAO?$AAI?$AAD?$AAL?$AAE?$AA_?$AAW?$AAK?$AAU?$AAP?$AA?$AA@| [ DATA ] ; `string'
	EXPORT	|??_C@_1BO@FFEBGJIL@?$AAC?$AAM?$AA_?$AAI?$AAD?$AAL?$AAE?$AAS?$AAT?$AA_?$AAW?$AAK?$AAU?$AAP?$AA?$AA@| [ DATA ] ; `string'
	EXPORT	|??_C@_1BO@CIIGPEMP@?$AAC?$AAM?$AA_?$AAI?$AAC?$AAL?$AAK?$AAE?$AAN?$AA_?$AAW?$AAK?$AAU?$AAP?$AA?$AA@| [ DATA ] ; `string'
	EXPORT	|??_C@_1BO@MLJDPPAG@?$AAC?$AAM?$AA_?$AAF?$AAC?$AAL?$AAK?$AAE?$AAN?$AA_?$AAW?$AAK?$AAU?$AAP?$AA?$AA@| [ DATA ] ; `string'
	EXPORT	|??_C@_1BA@FJBNPKLL@?$AAW?$AAK?$AAU?$AAP?$AA_?$AAC?$AAM?$AA?$AA@| [ DATA ] ; `string'
	EXPORT	|??_C@_1BO@PICKOOJK@?$AAC?$AAM?$AA_?$AAC?$AAL?$AAK?$AAS?$AAT?$AAS?$AAT?$AA_?$AAS?$AAG?$AAX?$AA?$AA@| [ DATA ] ; `string'
	EXPORT	|??_C@_1CC@DPKONEHB@?$AAC?$AAM?$AA_?$AAC?$AAL?$AAK?$AAS?$AAT?$AAC?$AAT?$AAR?$AAL?$AA_?$AAS?$AAG?$AAX?$AA?$AA@| [ DATA ] ; `string'
	EXPORT	|??_C@_1CA@EOLCFPBH@?$AAC?$AAM?$AA_?$AAS?$AAL?$AAE?$AAE?$AAP?$AAD?$AAE?$AAP?$AA_?$AAS?$AAG?$AAX?$AA?$AA@| [ DATA ] ; `string'
	EXPORT	|??_C@_1BM@DKOEAHJA@?$AAC?$AAM?$AA_?$AAC?$AAL?$AAK?$AAS?$AAE?$AAL?$AA_?$AAS?$AAG?$AAX?$AA?$AA@| [ DATA ] ; `string'
	EXPORT	|??_C@_1BM@PANAIPGE@?$AAC?$AAM?$AA_?$AAI?$AAD?$AAL?$AAE?$AAS?$AAT?$AA_?$AAS?$AAG?$AAX?$AA?$AA@| [ DATA ] ; `string'
	EXPORT	|??_C@_1BM@EJEJKNBL@?$AAC?$AAM?$AA_?$AAI?$AAC?$AAL?$AAK?$AAE?$AAN?$AA_?$AAS?$AAG?$AAX?$AA?$AA@| [ DATA ] ; `string'
	EXPORT	|??_C@_1BM@JFNDLFFL@?$AAC?$AAM?$AA_?$AAF?$AAC?$AAL?$AAK?$AAE?$AAN?$AA_?$AAS?$AAG?$AAX?$AA?$AA@| [ DATA ] ; `string'
	EXPORT	|??_C@_1O@PHKCOJPF@?$AAS?$AAG?$AAX?$AA_?$AAC?$AAM?$AA?$AA@| [ DATA ] ; `string'
	EXPORT	|??_C@_1CA@DFAGEEPB@?$AAC?$AAM?$AA_?$AAC?$AAL?$AAK?$AAS?$AAT?$AAS?$AAT?$AA_?$AAC?$AAO?$AAR?$AAE?$AA?$AA@| [ DATA ] ; `string'
	EXPORT	|??_C@_1CE@EOIAHAOA@?$AAC?$AAM?$AA_?$AAC?$AAL?$AAK?$AAS?$AAT?$AAC?$AAT?$AAR?$AAL?$AA_?$AAC?$AAO?$AAR?$AAE?$AA?$AA@| [ DATA ] ; `string'
	EXPORT	|??_C@_1BO@BGDPDEGJ@?$AAC?$AAM?$AA_?$AAC?$AAL?$AAK?$AAS?$AAE?$AAL?$AA_?$AAC?$AAO?$AAR?$AAE?$AA?$AA@| [ DATA ] ; `string'
	EXPORT	|??_C@_1CE@OGHCKMLF@?$AAC?$AAM?$AA_?$AAA?$AAU?$AAT?$AAO?$AAI?$AAD?$AAL?$AAE?$AA3?$AA_?$AAC?$AAO?$AAR?$AAE?$AA?$AA@| [ DATA ] ; `string'
	EXPORT	|??_C@_1CE@HLHNENMD@?$AAC?$AAM?$AA_?$AAA?$AAU?$AAT?$AAO?$AAI?$AAD?$AAL?$AAE?$AA2?$AA_?$AAC?$AAO?$AAR?$AAE?$AA?$AA@| [ DATA ] ; `string'
	EXPORT	|??_C@_1CE@HBMGIBI@?$AAC?$AAM?$AA_?$AAA?$AAU?$AAT?$AAO?$AAI?$AAD?$AAL?$AAE?$AA1?$AA_?$AAC?$AAO?$AAR?$AAE?$AA?$AA@| [ DATA ] ; `string'
	EXPORT	|??_C@_1CA@FDJDMBNE@?$AAC?$AAM?$AA_?$AAI?$AAD?$AAL?$AAE?$AAS?$AAT?$AA3?$AA_?$AAC?$AAO?$AAR?$AAE?$AA?$AA@| [ DATA ] ; `string'
	EXPORT	|??_C@_1CA@MOJMCAKC@?$AAC?$AAM?$AA_?$AAI?$AAD?$AAL?$AAE?$AAS?$AAT?$AA2?$AA_?$AAC?$AAO?$AAR?$AAE?$AA?$AA@| [ DATA ] ; `string'
	EXPORT	|??_C@_1CA@LCPNAFHJ@?$AAC?$AAM?$AA_?$AAI?$AAD?$AAL?$AAE?$AAS?$AAT?$AA1?$AA_?$AAC?$AAO?$AAR?$AAE?$AA?$AA@| [ DATA ] ; `string'
	EXPORT	|??_C@_1CA@EJDINJOL@?$AAC?$AAM?$AA_?$AAI?$AAC?$AAL?$AAK?$AAE?$AAN?$AA3?$AA_?$AAC?$AAO?$AAR?$AAE?$AA?$AA@| [ DATA ] ; `string'
	EXPORT	|??_C@_1CA@NEDHDIJN@?$AAC?$AAM?$AA_?$AAI?$AAC?$AAL?$AAK?$AAE?$AAN?$AA2?$AA_?$AAC?$AAO?$AAR?$AAE?$AA?$AA@| [ DATA ] ; `string'
	EXPORT	|??_C@_1CA@KIFGBNEG@?$AAC?$AAM?$AA_?$AAI?$AAC?$AAL?$AAK?$AAE?$AAN?$AA1?$AA_?$AAC?$AAO?$AAR?$AAE?$AA?$AA@| [ DATA ] ; `string'
	EXPORT	|??_C@_1CA@MENCIPHB@?$AAC?$AAM?$AA_?$AAF?$AAC?$AAL?$AAK?$AAE?$AAN?$AA3?$AA_?$AAC?$AAO?$AAR?$AAE?$AA?$AA@| [ DATA ] ; `string'
	EXPORT	|??_C@_1CA@CFLMELNM@?$AAC?$AAM?$AA_?$AAF?$AAC?$AAL?$AAK?$AAE?$AAN?$AA1?$AA_?$AAC?$AAO?$AAR?$AAE?$AA?$AA@| [ DATA ] ; `string'
	EXPORT	|??_C@_1BA@MHLIKEJK@?$AAC?$AAO?$AAR?$AAE?$AA_?$AAC?$AAM?$AA?$AA@| [ DATA ] ; `string'
	EXPORT	|??_C@_1BO@HNKCCHHN@?$AAC?$AAM?$AA_?$AAC?$AAL?$AAK?$AAS?$AAT?$AAS?$AAT?$AA_?$AAM?$AAP?$AAU?$AA?$AA@| [ DATA ] ; `string'
	EXPORT	|??_C@_1CC@LKCGBNJG@?$AAC?$AAM?$AA_?$AAC?$AAL?$AAK?$AAS?$AAT?$AAC?$AAT?$AAR?$AAL?$AA_?$AAM?$AAP?$AAU?$AA?$AA@| [ DATA ] ; `string'
	EXPORT	|??_C@_1CG@HAJMMJGO@?$AAC?$AAM?$AA_?$AAC?$AAL?$AAK?$AAS?$AAE?$AAL?$AA2?$AA_?$AAP?$AAL?$AAL?$AA_?$AAM?$AAP?$AAU?$AA?$AA@| [ DATA ] ; `string'
	EXPORT	|??_C@_1CG@NPDFIEKE@?$AAC?$AAM?$AA_?$AAC?$AAL?$AAK?$AAS?$AAE?$AAL?$AA1?$AA_?$AAP?$AAL?$AAL?$AA_?$AAM?$AAP?$AAU?$AA?$AA@| [ DATA ] ; `string'
	EXPORT	|??_C@_1CI@CMDKJBJB@?$AAC?$AAM?$AA_?$AAA?$AAU?$AAT?$AAO?$AAI?$AAD?$AAL?$AAE?$AA_?$AAP?$AAL?$AAL?$AA_?$AAM?$AAP?$AAU?$AA?$AA@| [ DATA ] ; `string'
	EXPORT	|??_C@_1CE@BDMBNMCK@?$AAC?$AAM?$AA_?$AAI?$AAD?$AAL?$AAE?$AAS?$AAT?$AA_?$AAP?$AAL?$AAL?$AA_?$AAM?$AAP?$AAU?$AA?$AA@| [ DATA ] ; `string'
	EXPORT	|??_C@_1BM@HFFIEGID@?$AAC?$AAM?$AA_?$AAI?$AAD?$AAL?$AAE?$AAS?$AAT?$AA_?$AAM?$AAP?$AAU?$AA?$AA@| [ DATA ] ; `string'
	EXPORT	|??_C@_1CC@JNLBAGDF@?$AAC?$AAM?$AA_?$AAC?$AAL?$AAK?$AAE?$AAN?$AA_?$AAP?$AAL?$AAL?$AA_?$AAM?$AAP?$AAU?$AA?$AA@| [ DATA ] ; `string'
	EXPORT	|??_C@_1O@NHPFAPNK@?$AAM?$AAP?$AAU?$AA_?$AAC?$AAM?$AA?$AA@| [ DATA ] ; `string'
	EXPORT	|??_C@_1BK@MFOLEKL@?$AAC?$AAM?$AA_?$AAS?$AAY?$AAS?$AAC?$AAO?$AAN?$AAF?$AAI?$AAG?$AA?$AA@| [ DATA ] ; `string'
	EXPORT	|??_C@_1BI@OFDDPNDA@?$AAC?$AAM?$AA_?$AAR?$AAE?$AAV?$AAI?$AAS?$AAI?$AAO?$AAN?$AA?$AA@| [ DATA ] ; `string'
	EXPORT	|??_C@_1CE@OMIMNBBB@?$AAO?$AAC?$AAP?$AA_?$AAS?$AAy?$AAs?$AAt?$AAe?$AAm?$AA_?$AAR?$AAe?$AAg?$AA_?$AAC?$AAM?$AA?$AA@| [ DATA ] ; `string'
	EXPORT	|??_C@_1CA@DCHKBGCI@?$AAC?$AAM?$AA_?$AAC?$AAL?$AAK?$AAS?$AAT?$AAS?$AAT?$AA_?$AAI?$AAV?$AAA?$AA2?$AA?$AA@| [ DATA ] ; `string'
	EXPORT	|??_C@_1CE@EJPMCCDJ@?$AAC?$AAM?$AA_?$AAC?$AAL?$AAK?$AAS?$AAT?$AAC?$AAT?$AAR?$AAL?$AA_?$AAI?$AAV?$AAA?$AA2?$AA?$AA@| [ DATA ] ; `string'
	EXPORT	|??_C@_1CI@BECHJFPL@?$AAC?$AAM?$AA_?$AAC?$AAL?$AAK?$AAS?$AAE?$AAL?$AA2?$AA_?$AAP?$AAL?$AAL?$AA_?$AAI?$AAV?$AAA?$AA2?$AA?$AA@| [ DATA ] ; `string'
	EXPORT	|??_C@_1CI@CNFPDILL@?$AAC?$AAM?$AA_?$AAC?$AAL?$AAK?$AAS?$AAE?$AAL?$AA1?$AA_?$AAP?$AAL?$AAL?$AA_?$AAI?$AAV?$AAA?$AA2?$AA?$AA@| [ DATA ] ; `string'
	EXPORT	|??_C@_1CK@OCLDONOJ@?$AAC?$AAM?$AA_?$AAA?$AAU?$AAT?$AAO?$AAI?$AAD?$AAL?$AAE?$AA_?$AAP?$AAL?$AAL?$AA_?$AAI?$AAV?$AAA?$AA2?$AA?$AA@| [ DATA ] ; `string'
	EXPORT	|??_C@_1CG@ONOPJIEM@?$AAC?$AAM?$AA_?$AAI?$AAD?$AAL?$AAE?$AAS?$AAT?$AA_?$AAP?$AAL?$AAL?$AA_?$AAI?$AAV?$AAA?$AA2?$AA?$AA@| [ DATA ] ; `string'
	EXPORT	|??_C@_1BO@ICPAIDCP@?$AAC?$AAM?$AA_?$AAI?$AAD?$AAL?$AAE?$AAS?$AAT?$AA_?$AAI?$AAV?$AAA?$AA2?$AA?$AA@| [ DATA ] ; `string'
	EXPORT	|??_C@_1CE@EGLDCDGI@?$AAC?$AAM?$AA_?$AAC?$AAL?$AAK?$AAE?$AAN?$AA_?$AAP?$AAL?$AAL?$AA_?$AAI?$AAV?$AAA?$AA2?$AA?$AA@| [ DATA ] ; `string'
	EXPORT	|??_C@_1BO@BMCCBFKC@?$AAC?$AAM?$AA_?$AAF?$AAC?$AAL?$AAK?$AAE?$AAN?$AA_?$AAI?$AAV?$AAA?$AA2?$AA?$AA@| [ DATA ] ; `string'
	EXPORT	|??_C@_1BA@JEPMHMHH@?$AAI?$AAV?$AAA?$AA2?$AA_?$AAC?$AAM?$AA?$AA@| [ DATA ] ; `string'
	EXPORT	|??_C@_1DA@EDKFOKOO@?$AAP?$AAO?$AAW?$AAE?$AAR?$AAD?$AAO?$AAM?$AAA?$AAI?$AAN?$AA_?$AAS?$AAM?$AAA?$AAR?$AAT?$AAR?$AAE?$AAF?$AAL?$AAE?$AAX?$AA?$AA@| [ DATA ] ; `string'
	EXPORT	|??_C@_1CE@NPBICAPK@?$AAP?$AAO?$AAW?$AAE?$AAR?$AAD?$AAO?$AAM?$AAA?$AAI?$AAN?$AA_?$AAE?$AAF?$AAU?$AAS?$AAE?$AA?$AA@| [ DATA ] ; `string'
	EXPORT	|??_C@_1CA@EPPNKFHH@?$AAP?$AAO?$AAW?$AAE?$AAR?$AAD?$AAO?$AAM?$AAA?$AAI?$AAN?$AA_?$AAS?$AAG?$AAX?$AA?$AA@| [ DATA ] ; `string'
	EXPORT	|??_C@_1CG@OKLBKABF@?$AAP?$AAO?$AAW?$AAE?$AAR?$AAD?$AAO?$AAM?$AAA?$AAI?$AAN?$AA_?$AAC?$AAA?$AAM?$AAE?$AAR?$AAA?$AA?$AA@| [ DATA ] ; `string'
	EXPORT	|??_C@_1CC@DIKELEEG@?$AAP?$AAO?$AAW?$AAE?$AAR?$AAD?$AAO?$AAM?$AAA?$AAI?$AAN?$AA_?$AAI?$AAV?$AAA?$AA2?$AA?$AA@| [ DATA ] ; `string'
	EXPORT	|??_C@_1CC@DDKPOHKD@?$AAP?$AAO?$AAW?$AAE?$AAR?$AAD?$AAO?$AAM?$AAA?$AAI?$AAN?$AA_?$AAN?$AAE?$AAO?$AAN?$AA?$AA@| [ DATA ] ; `string'
	EXPORT	|??_C@_1CA@HGMFFKMJ@?$AAP?$AAO?$AAW?$AAE?$AAR?$AAD?$AAO?$AAM?$AAA?$AAI?$AAN?$AA_?$AAD?$AAS?$AAS?$AA?$AA@| [ DATA ] ; `string'
	EXPORT	|??_C@_1CA@MKHFGMJA@?$AAP?$AAO?$AAW?$AAE?$AAR?$AAD?$AAO?$AAM?$AAA?$AAI?$AAN?$AA_?$AAM?$AAP?$AAU?$AA?$AA@| [ DATA ] ; `string'
	EXPORT	|??_C@_1CM@IICJPBKI@?$AAP?$AAO?$AAW?$AAE?$AAR?$AAD?$AAO?$AAM?$AAA?$AAI?$AAN?$AA_?$AAE?$AAM?$AAU?$AAL?$AAA?$AAT?$AAI?$AAO?$AAN?$AA?$AA@| [ DATA ] ; `string'
	EXPORT	|??_C@_1CI@LJKMALKI@?$AAP?$AAO?$AAW?$AAE?$AAR?$AAD?$AAO?$AAM?$AAA?$AAI?$AAN?$AA_?$AAU?$AAS?$AAB?$AAH?$AAO?$AAS?$AAT?$AA?$AA@| [ DATA ] ; `string'
	EXPORT	|??_C@_1CO@GHAPCMEA@?$AAP?$AAO?$AAW?$AAE?$AAR?$AAD?$AAO?$AAM?$AAA?$AAI?$AAN?$AA_?$AAP?$AAE?$AAR?$AAI?$AAP?$AAH?$AAE?$AAR?$AAA?$AAL?$AA?$AA@| [ DATA ] ; `string'
	EXPORT	|??_C@_1CC@DPNIOGJP@?$AAP?$AAO?$AAW?$AAE?$AAR?$AAD?$AAO?$AAM?$AAA?$AAI?$AAN?$AA_?$AAC?$AAO?$AAR?$AAE?$AA?$AA@| [ DATA ] ; `string'
	EXPORT	|??_C@_1CG@GNBBGDGH@?$AAP?$AAO?$AAW?$AAE?$AAR?$AAD?$AAO?$AAM?$AAA?$AAI?$AAN?$AA_?$AAW?$AAA?$AAK?$AAE?$AAU?$AAP?$AA?$AA@| [ DATA ] ; `string'
	EXPORT	|??_C@_1CI@CGCHDENN@?$AAO?$AAM?$AAA?$AAP?$AA_?$AAD?$AAE?$AAV?$AAI?$AAC?$AAE?$AA_?$AAG?$AAE?$AAN?$AAE?$AAR?$AAI?$AAC?$AA?$AA@| [ DATA ] ; `string'
	EXPORT	|??_C@_1CE@GFGBLIBN@?$AAO?$AAM?$AAA?$AAP?$AA_?$AAD?$AAE?$AAV?$AAI?$AAC?$AAE?$AA_?$AAU?$AAA?$AAR?$AAT?$AA4?$AA?$AA@| [ DATA ] ; `string'
	EXPORT	|??_C@_1CC@JFKAJPFG@?$AAO?$AAM?$AAA?$AAP?$AA_?$AAD?$AAE?$AAV?$AAI?$AAC?$AAE?$AA_?$AAV?$AAR?$AAF?$AAB?$AA?$AA@| [ DATA ] ; `string'
	EXPORT	|??_C@_1CK@PMNPNLDF@?$AAO?$AAM?$AAA?$AAP?$AA_?$AAD?$AAE?$AAV?$AAI?$AAC?$AAE?$AA_?$AAU?$AAS?$AAB?$AAH?$AAO?$AAS?$AAT?$AA3?$AA?$AA@| [ DATA ] ; `string'
	EXPORT	|??_C@_1CK@EEGDLMFA@?$AAO?$AAM?$AAA?$AAP?$AA_?$AAD?$AAE?$AAV?$AAI?$AAC?$AAE?$AA_?$AAU?$AAS?$AAB?$AAH?$AAO?$AAS?$AAT?$AA2?$AA?$AA@| [ DATA ] ; `string'
	EXPORT	|??_C@_1CK@FGNGBDLO@?$AAO?$AAM?$AAA?$AAP?$AA_?$AAD?$AAE?$AAV?$AAI?$AAC?$AAE?$AA_?$AAU?$AAS?$AAB?$AAH?$AAO?$AAS?$AAT?$AA1?$AA?$AA@| [ DATA ] ; `string'
	EXPORT	|??_C@_1CG@GEPNMBAB@?$AAO?$AAM?$AAA?$AAP?$AA_?$AAD?$AAE?$AAV?$AAI?$AAC?$AAE?$AA_?$AAH?$AAS?$AAU?$AAS?$AAB?$AA2?$AA?$AA@| [ DATA ] ; `string'
	EXPORT	|??_C@_1CG@HGEIGOOP@?$AAO?$AAM?$AAA?$AAP?$AA_?$AAD?$AAE?$AAV?$AAI?$AAC?$AAE?$AA_?$AAH?$AAS?$AAU?$AAS?$AAB?$AA1?$AA?$AA@| [ DATA ] ; `string'
	EXPORT	|??_C@_1CA@GGCFDGLE@?$AAO?$AAM?$AAA?$AAP?$AA_?$AAD?$AAE?$AAV?$AAI?$AAC?$AAE?$AA_?$AAS?$AAG?$AAX?$AA?$AA@| [ DATA ] ; `string'
	EXPORT	|??_C@_1BO@LMDKBCBP@?$AAO?$AAM?$AAA?$AAP?$AA_?$AAD?$AAE?$AAV?$AAI?$AAC?$AAE?$AA_?$AA3?$AAD?$AA?$AA@| [ DATA ] ; `string'
	EXPORT	|??_C@_1BO@HHGGMBLK@?$AAO?$AAM?$AAA?$AAP?$AA_?$AAD?$AAE?$AAV?$AAI?$AAC?$AAE?$AA_?$AA2?$AAD?$AA?$AA@| [ DATA ] ; `string'
	EXPORT	|??_C@_1CA@ENKIGGOE@?$AAO?$AAM?$AAA?$AAP?$AA_?$AAD?$AAE?$AAV?$AAI?$AAC?$AAE?$AA_?$AAD?$AAS?$AAP?$AA?$AA@| [ DATA ] ; `string'
	EXPORT	|??_C@_1CC@COEMHCN@?$AAO?$AAM?$AAA?$AAP?$AA_?$AAD?$AAE?$AAV?$AAI?$AAC?$AAE?$AA_?$AAC?$AAS?$AAI?$AA2?$AA?$AA@| [ DATA ] ; `string'
	EXPORT	|??_C@_1CG@DPBHHNNG@?$AAO?$AAM?$AAA?$AAP?$AA_?$AAD?$AAE?$AAV?$AAI?$AAC?$AAE?$AA_?$AAC?$AAA?$AAM?$AAE?$AAR?$AAA?$AA?$AA@| [ DATA ] ; `string'
	EXPORT	|??_C@_1CE@CMHCGOLP@?$AAO?$AAM?$AAA?$AAP?$AA_?$AAD?$AAE?$AAV?$AAI?$AAC?$AAE?$AA_?$AAT?$AAV?$AAO?$AAU?$AAT?$AA?$AA@| [ DATA ] ; `string'
	EXPORT	|??_C@_1CC@ECHFPNKJ@?$AAO?$AAM?$AAA?$AAP?$AA_?$AAD?$AAE?$AAV?$AAI?$AAC?$AAE?$AA_?$AAD?$AAS?$AAS?$AA2?$AA?$AA@| [ DATA ] ; `string'
	EXPORT	|??_C@_1CC@FAMAFCEH@?$AAO?$AAM?$AAA?$AAP?$AA_?$AAD?$AAE?$AAV?$AAI?$AAC?$AAE?$AA_?$AAD?$AAS?$AAS?$AA1?$AA?$AA@| [ DATA ] ; `string'
	EXPORT	|??_C@_1CA@FPBNMJAK@?$AAO?$AAM?$AAA?$AAP?$AA_?$AAD?$AAE?$AAV?$AAI?$AAC?$AAE?$AA_?$AAD?$AAS?$AAS?$AA?$AA@| [ DATA ] ; `string'
	EXPORT	|??_C@_1CC@FNCLKIKN@?$AAO?$AAM?$AAA?$AAP?$AA_?$AAD?$AAE?$AAV?$AAI?$AAC?$AAE?$AA_?$AAW?$AAD?$AAT?$AA3?$AA?$AA@| [ DATA ] ; `string'
	EXPORT	|??_C@_1CE@PILGIAKE@?$AAO?$AAM?$AAA?$AAP?$AA_?$AAD?$AAE?$AAV?$AAI?$AAC?$AAE?$AA_?$AAU?$AAA?$AAR?$AAT?$AA3?$AA?$AA@| [ DATA ] ; `string'
	EXPORT	|??_C@_1CK@PMHAIIAB@?$AAO?$AAM?$AAA?$AAP?$AA_?$AAD?$AAE?$AAV?$AAI?$AAC?$AAE?$AA_?$AAG?$AAP?$AAT?$AAI?$AAM?$AAE?$AAR?$AA9?$AA?$AA@| [ DATA ] ; `string'
	EXPORT	|??_C@_1CK@EEMMOPGE@?$AAO?$AAM?$AAA?$AAP?$AA_?$AAD?$AAE?$AAV?$AAI?$AAC?$AAE?$AA_?$AAG?$AAP?$AAT?$AAI?$AAM?$AAE?$AAR?$AA8?$AA?$AA@| [ DATA ] ; `string'
	EXPORT	|??_C@_1CK@BMKPPPDC@?$AAO?$AAM?$AAA?$AAP?$AA_?$AAD?$AAE?$AAV?$AAI?$AAC?$AAE?$AA_?$AAG?$AAP?$AAT?$AAI?$AAM?$AAE?$AAR?$AA7?$AA?$AA@| [ DATA ] ; `string'
	EXPORT	|??_C@_1CK@KEBDJIFH@?$AAO?$AAM?$AAA?$AAP?$AA_?$AAD?$AAE?$AAV?$AAI?$AAC?$AAE?$AA_?$AAG?$AAP?$AAT?$AAI?$AAM?$AAE?$AAR?$AA6?$AA?$AA@| [ DATA ] ; `string'
	EXPORT	|??_C@_1CK@LGKGDHLJ@?$AAO?$AAM?$AAA?$AAP?$AA_?$AAD?$AAE?$AAV?$AAI?$AAC?$AAE?$AA_?$AAG?$AAP?$AAT?$AAI?$AAM?$AAE?$AAR?$AA5?$AA?$AA@| [ DATA ] ; `string'
	EXPORT	|??_C@_1CK@OBKFANM@?$AAO?$AAM?$AAA?$AAP?$AA_?$AAD?$AAE?$AAV?$AAI?$AAC?$AAE?$AA_?$AAG?$AAP?$AAT?$AAI?$AAM?$AAE?$AAR?$AA4?$AA?$AA@| [ DATA ] ; `string'
	EXPORT	|??_C@_1CK@JDMNGIGF@?$AAO?$AAM?$AAA?$AAP?$AA_?$AAD?$AAE?$AAV?$AAI?$AAC?$AAE?$AA_?$AAG?$AAP?$AAT?$AAI?$AAM?$AAE?$AAR?$AA3?$AA?$AA@| [ DATA ] ; `string'
	EXPORT	|??_C@_1CK@CLHBAPAA@?$AAO?$AAM?$AAA?$AAP?$AA_?$AAD?$AAE?$AAV?$AAI?$AAC?$AAE?$AA_?$AAG?$AAP?$AAT?$AAI?$AAM?$AAE?$AAR?$AA2?$AA?$AA@| [ DATA ] ; `string'
	EXPORT	|??_C@_1CG@ECEBCEEN@?$AAO?$AAM?$AAA?$AAP?$AA_?$AAD?$AAE?$AAV?$AAI?$AAC?$AAE?$AA_?$AAM?$AAC?$AAB?$AAS?$AAP?$AA4?$AA?$AA@| [ DATA ] ; `string'
	EXPORT	|??_C@_1CG@NPJGBMPE@?$AAO?$AAM?$AAA?$AAP?$AA_?$AAD?$AAE?$AAV?$AAI?$AAC?$AAE?$AA_?$AAM?$AAC?$AAB?$AAS?$AAP?$AA3?$AA?$AA@| [ DATA ] ; `string'
	EXPORT	|??_C@_1CG@GHCKHLJB@?$AAO?$AAM?$AAA?$AAP?$AA_?$AAD?$AAE?$AAV?$AAI?$AAC?$AAE?$AA_?$AAM?$AAC?$AAB?$AAS?$AAP?$AA2?$AA?$AA@| [ DATA ] ; `string'
	EXPORT	|??_C@_1CE@KPOHDGAG@?$AAO?$AAM?$AAA?$AAP?$AA_?$AAD?$AAE?$AAV?$AAI?$AAC?$AAE?$AA_?$AAG?$AAP?$AAI?$AAO?$AA6?$AA?$AA@| [ DATA ] ; `string'
	EXPORT	|??_C@_1CE@LNFCJJOI@?$AAO?$AAM?$AAA?$AAP?$AA_?$AAD?$AAE?$AAV?$AAI?$AAC?$AAE?$AA_?$AAG?$AAP?$AAI?$AAO?$AA5?$AA?$AA@| [ DATA ] ; `string'
	EXPORT	|??_C@_1CE@FOOPOIN@?$AAO?$AAM?$AAA?$AAP?$AA_?$AAD?$AAE?$AAV?$AAI?$AAC?$AAE?$AA_?$AAG?$AAP?$AAI?$AAO?$AA4?$AA?$AA@| [ DATA ] ; `string'
	EXPORT	|??_C@_1CE@JIDJMGDE@?$AAO?$AAM?$AAA?$AAP?$AA_?$AAD?$AAE?$AAV?$AAI?$AAC?$AAE?$AA_?$AAG?$AAP?$AAI?$AAO?$AA3?$AA?$AA@| [ DATA ] ; `string'
	EXPORT	|??_C@_1CE@CAIFKBFB@?$AAO?$AAM?$AAA?$AAP?$AA_?$AAD?$AAE?$AAV?$AAI?$AAC?$AAE?$AA_?$AAG?$AAP?$AAI?$AAO?$AA2?$AA?$AA@| [ DATA ] ; `string'
	EXPORT	|??_C@_1CC@BLAIIGEI@?$AAO?$AAM?$AAA?$AAP?$AA_?$AAD?$AAE?$AAV?$AAI?$AAC?$AAE?$AA_?$AAU?$AAS?$AAI?$AAM?$AA?$AA@| [ DATA ] ; `string'
	EXPORT	|??_C@_1CA@GBKFLCPL@?$AAO?$AAM?$AAA?$AAP?$AA_?$AAD?$AAE?$AAV?$AAI?$AAC?$AAE?$AA_?$AAS?$AAR?$AA2?$AA?$AA@| [ DATA ] ; `string'
	EXPORT	|??_C@_1CA@HDBABNBF@?$AAO?$AAM?$AAA?$AAP?$AA_?$AAD?$AAE?$AAV?$AAI?$AAC?$AAE?$AA_?$AAS?$AAR?$AA1?$AA?$AA@| [ DATA ] ; `string'
	EXPORT	|??_C@_1CE@DCDAAOLP@?$AAO?$AAM?$AAA?$AAP?$AA_?$AAD?$AAE?$AAV?$AAI?$AAC?$AAE?$AA_?$AAG?$AAP?$AAI?$AAO?$AA1?$AA?$AA@| [ DATA ] ; `string'
	EXPORT	|??_C@_1CC@OFJHMPMI@?$AAO?$AAM?$AAA?$AAP?$AA_?$AAD?$AAE?$AAV?$AAI?$AAC?$AAE?$AA_?$AAW?$AAD?$AAT?$AA2?$AA?$AA@| [ DATA ] ; `string'
	EXPORT	|??_C@_1CC@PHCCGACG@?$AAO?$AAM?$AAA?$AAP?$AA_?$AAD?$AAE?$AAV?$AAI?$AAC?$AAE?$AA_?$AAW?$AAD?$AAT?$AA1?$AA?$AA@| [ DATA ] ; `string'
	EXPORT	|??_C@_1CI@FAKOHIJH@?$AAO?$AAM?$AAA?$AAP?$AA_?$AAD?$AAE?$AAV?$AAI?$AAC?$AAE?$AA_?$AA3?$AA2?$AAK?$AAS?$AAY?$AAN?$AAC?$AA?$AA@| [ DATA ] ; `string'
	EXPORT	|??_C@_1CM@EMAJHEGE@?$AAO?$AAM?$AAA?$AAP?$AA_?$AAD?$AAE?$AAV?$AAI?$AAC?$AAE?$AA_?$AAG?$AAP?$AAT?$AAI?$AAM?$AAE?$AAR?$AA1?$AA2?$AA?$AA@| [ DATA ] ; `string'
	EXPORT	|??_C@_1CK@DJMEKAOO@?$AAO?$AAM?$AAA?$AAP?$AA_?$AAD?$AAE?$AAV?$AAI?$AAC?$AAE?$AA_?$AAG?$AAP?$AAT?$AAI?$AAM?$AAE?$AAR?$AA1?$AA?$AA@| [ DATA ] ; `string'
	EXPORT	|??_C@_1CE@EPOGLAMA@?$AAO?$AAM?$AAA?$AAP?$AA_?$AAD?$AAE?$AAV?$AAI?$AAC?$AAE?$AA_?$AAE?$AAF?$AAU?$AAS?$AAE?$AA?$AA@| [ DATA ] ; `string'
	EXPORT	|??_C@_1BO@GEAFECNL@?$AAO?$AAM?$AAA?$AAP?$AA_?$AAD?$AAE?$AAV?$AAI?$AAC?$AAE?$AA_?$AAT?$AAS?$AA?$AA@| [ DATA ] ; `string'
	EXPORT	|??_C@_1CG@MLOIKIGB@?$AAO?$AAM?$AAA?$AAP?$AA_?$AAD?$AAE?$AAV?$AAI?$AAC?$AAE?$AA_?$AAU?$AAS?$AAB?$AAT?$AAL?$AAL?$AA?$AA@| [ DATA ] ; `string'
	EXPORT	|??_C@_1CA@LCHJOJDJ@?$AAO?$AAM?$AAA?$AAP?$AA_?$AAD?$AAE?$AAV?$AAI?$AAC?$AAE?$AA_?$AAP?$AAK?$AAA?$AA?$AA@| [ DATA ] ; `string'
	EXPORT	|??_C@_1CC@MDNKBKP@?$AAO?$AAM?$AAA?$AAP?$AA_?$AAD?$AAE?$AAV?$AAI?$AAC?$AAE?$AA_?$AAA?$AAE?$AAS?$AA1?$AA?$AA@| [ DATA ] ; `string'
	EXPORT	|??_C@_1CA@IFPKCACL@?$AAO?$AAM?$AAA?$AAP?$AA_?$AAD?$AAE?$AAV?$AAI?$AAC?$AAE?$AA_?$AAR?$AAN?$AAG?$AA?$AA@| [ DATA ] ; `string'
	EXPORT	|??_C@_1CE@OLJKGOCE@?$AAO?$AAM?$AAA?$AAP?$AA_?$AAD?$AAE?$AAV?$AAI?$AAC?$AAE?$AA_?$AAS?$AAH?$AAA?$AA1?$AA1?$AA?$AA@| [ DATA ] ; `string'
	EXPORT	|??_C@_1CC@OKBEGKOL@?$AAO?$AAM?$AAA?$AAP?$AA_?$AAD?$AAE?$AAV?$AAI?$AAC?$AAE?$AA_?$AAD?$AAE?$AAS?$AA1?$AA?$AA@| [ DATA ] ; `string'
	EXPORT	|??_C@_1CA@HPHCLJCF@?$AAO?$AAM?$AAA?$AAP?$AA_?$AAD?$AAE?$AAV?$AAI?$AAC?$AAE?$AA_?$AAI?$AAC?$AAR?$AA?$AA@| [ DATA ] ; `string'
	EXPORT	|??_C@_1CC@BOIIAOEB@?$AAO?$AAM?$AAA?$AAP?$AA_?$AAD?$AAE?$AAV?$AAI?$AAC?$AAE?$AA_?$AAA?$AAE?$AAS?$AA2?$AA?$AA@| [ DATA ] ; `string'
	EXPORT	|??_C@_1CE@PJCPMBMK@?$AAO?$AAM?$AAA?$AAP?$AA_?$AAD?$AAE?$AAV?$AAI?$AAC?$AAE?$AA_?$AAS?$AAH?$AAA?$AA1?$AA2?$AA?$AA@| [ DATA ] ; `string'
	EXPORT	|??_C@_1CC@PIKBMFAF@?$AAO?$AAM?$AAA?$AAP?$AA_?$AAD?$AAE?$AAV?$AAI?$AAC?$AAE?$AA_?$AAD?$AAE?$AAS?$AA2?$AA?$AA@| [ DATA ] ; `string'
	EXPORT	|??_C@_1CC@GMDLJAIE@?$AAO?$AAM?$AAA?$AAP?$AA_?$AAD?$AAE?$AAV?$AAI?$AAC?$AAE?$AA_?$AAM?$AAM?$AAC?$AA3?$AA?$AA@| [ DATA ] ; `string'
	EXPORT	|??_C@_1CC@NEIHPHOB@?$AAO?$AAM?$AAA?$AAP?$AA_?$AAD?$AAE?$AAV?$AAI?$AAC?$AAE?$AA_?$AAM?$AAM?$AAC?$AA2?$AA?$AA@| [ DATA ] ; `string'
	EXPORT	|??_C@_1CC@MGDCFIAP@?$AAO?$AAM?$AAA?$AAP?$AA_?$AAD?$AAE?$AAV?$AAI?$AAC?$AAE?$AA_?$AAM?$AAM?$AAC?$AA1?$AA?$AA@| [ DATA ] ; `string'
	EXPORT	|??_C@_1CE@GEGMLBDH@?$AAO?$AAM?$AAA?$AAP?$AA_?$AAD?$AAE?$AAV?$AAI?$AAC?$AAE?$AA_?$AAM?$AAS?$AAP?$AAR?$AAO?$AA?$AA@| [ DATA ] ; `string'
	EXPORT	|??_C@_1CA@LMGICGON@?$AAO?$AAM?$AAA?$AAP?$AA_?$AAD?$AAE?$AAV?$AAI?$AAC?$AAE?$AA_?$AAH?$AAD?$AAQ?$AA?$AA@| [ DATA ] ; `string'
	EXPORT	|??_C@_1CG@CAHLJKCL@?$AAO?$AAM?$AAA?$AAP?$AA_?$AAD?$AAE?$AAV?$AAI?$AAC?$AAE?$AA_?$AAM?$AAC?$AAS?$AAP?$AAI?$AA4?$AA?$AA@| [ DATA ] ; `string'
	EXPORT	|??_C@_1CG@LNKMKCJC@?$AAO?$AAM?$AAA?$AAP?$AA_?$AAD?$AAE?$AAV?$AAI?$AAC?$AAE?$AA_?$AAM?$AAC?$AAS?$AAP?$AAI?$AA3?$AA?$AA@| [ DATA ] ; `string'
	EXPORT	|??_C@_1CG@FBAMFPH@?$AAO?$AAM?$AAA?$AAP?$AA_?$AAD?$AAE?$AAV?$AAI?$AAC?$AAE?$AA_?$AAM?$AAC?$AAS?$AAP?$AAI?$AA2?$AA?$AA@| [ DATA ] ; `string'
	EXPORT	|??_C@_1CG@BHKFGKBJ@?$AAO?$AAM?$AAA?$AAP?$AA_?$AAD?$AAE?$AAV?$AAI?$AAC?$AAE?$AA_?$AAM?$AAC?$AAS?$AAP?$AAI?$AA1?$AA?$AA@| [ DATA ] ; `string'
	EXPORT	|??_C@_1CC@BAKALDMC@?$AAO?$AAM?$AAA?$AAP?$AA_?$AAD?$AAE?$AAV?$AAI?$AAC?$AAE?$AA_?$AAI?$AA2?$AAC?$AA3?$AA?$AA@| [ DATA ] ; `string'
	EXPORT	|??_C@_1CC@KIBMNEKH@?$AAO?$AAM?$AAA?$AAP?$AA_?$AAD?$AAE?$AAV?$AAI?$AAC?$AAE?$AA_?$AAI?$AA2?$AAC?$AA2?$AA?$AA@| [ DATA ] ; `string'
	EXPORT	|??_C@_1CC@LKKJHLEJ@?$AAO?$AAM?$AAA?$AAP?$AA_?$AAD?$AAE?$AAV?$AAI?$AAC?$AAE?$AA_?$AAI?$AA2?$AAC?$AA1?$AA?$AA@| [ DATA ] ; `string'
	EXPORT	|??_C@_1CE@EAAKOHMB@?$AAO?$AAM?$AAA?$AAP?$AA_?$AAD?$AAE?$AAV?$AAI?$AAC?$AAE?$AA_?$AAU?$AAA?$AAR?$AAT?$AA2?$AA?$AA@| [ DATA ] ; `string'
	EXPORT	|??_C@_1CE@FCLPEICP@?$AAO?$AAM?$AAA?$AAP?$AA_?$AAD?$AAE?$AAV?$AAI?$AAC?$AAE?$AA_?$AAU?$AAA?$AAR?$AAT?$AA1?$AA?$AA@| [ DATA ] ; `string'
	EXPORT	|??_C@_1CM@FOLMNLIK@?$AAO?$AAM?$AAA?$AAP?$AA_?$AAD?$AAE?$AAV?$AAI?$AAC?$AAE?$AA_?$AAG?$AAP?$AAT?$AAI?$AAM?$AAE?$AAR?$AA1?$AA1?$AA?$AA@| [ DATA ] ; `string'
	EXPORT	|??_C@_1CM@OGAALMOP@?$AAO?$AAM?$AAA?$AAP?$AA_?$AAD?$AAE?$AAV?$AAI?$AAC?$AAE?$AA_?$AAG?$AAP?$AAT?$AAI?$AAM?$AAE?$AAR?$AA1?$AA0?$AA?$AA@| [ DATA ] ; `string'
	EXPORT	|??_C@_1CG@PKPNEDCI@?$AAO?$AAM?$AAA?$AAP?$AA_?$AAD?$AAE?$AAV?$AAI?$AAC?$AAE?$AA_?$AAM?$AAC?$AAB?$AAS?$AAP?$AA5?$AA?$AA@| [ DATA ] ; `string'
	EXPORT	|??_C@_1CG@HFJPNEHP@?$AAO?$AAM?$AAA?$AAP?$AA_?$AAD?$AAE?$AAV?$AAI?$AAC?$AAE?$AA_?$AAM?$AAC?$AAB?$AAS?$AAP?$AA1?$AA?$AA@| [ DATA ] ; `string'
	EXPORT	|??_C@_1CM@FGHMOAMI@?$AAO?$AAM?$AAA?$AAP?$AA_?$AAD?$AAE?$AAV?$AAI?$AAC?$AAE?$AA_?$AAM?$AAA?$AAI?$AAL?$AAB?$AAO?$AAX?$AAE?$AAS?$AA?$AA@| [ DATA ] ; `string'
	EXPORT	|??_C@_1CK@IFNFIOAO@?$AAO?$AAM?$AAA?$AAP?$AA_?$AAD?$AAE?$AAV?$AAI?$AAC?$AAE?$AA_?$AAO?$AAM?$AAA?$AAP?$AAC?$AAT?$AAR?$AAL?$AA?$AA@| [ DATA ] ; `string'
	EXPORT	|??_C@_1CK@IEABCGNC@?$AAO?$AAM?$AAA?$AAP?$AA_?$AAD?$AAE?$AAV?$AAI?$AAC?$AAE?$AA_?$AAH?$AAS?$AAO?$AAT?$AAG?$AAU?$AAS?$AAB?$AA?$AA@| [ DATA ] ; `string'
	EXPORT	|??_C@_1CA@FBHLHKND@?$AAO?$AAM?$AAA?$AAP?$AA_?$AAD?$AAE?$AAV?$AAI?$AAC?$AAE?$AA_?$AAD?$AA2?$AAD?$AA?$AA@| [ DATA ] ; `string'
	EXPORT	|??_C@_1CC@OJKGELFG@?$AAO?$AAM?$AAA?$AAP?$AA_?$AAD?$AAE?$AAV?$AAI?$AAC?$AAE?$AA_?$AAS?$AAD?$AAR?$AAC?$AA?$AA@| [ DATA ] ; `string'
	EXPORT	|??_C@_1CI@JGKNPEFC@?$AAO?$AAM?$AAA?$AAP?$AA_?$AAD?$AAE?$AAV?$AAI?$AAC?$AAE?$AA_?$AAS?$AAS?$AAI?$AA?5?$AA?$DN?$AA?5?$AA0?$AA?$AA@| [ DATA ] ; `string'
	EXPORT	|??_C@_1BI@MMHHFKED@?$AAk?$AAG?$AAP?$AAT?$AA1?$AA1?$AA_?$AAF?$AAC?$AAL?$AAK?$AA?$AA@| [ DATA ] ; `string'
	EXPORT	|??_C@_1BI@FBHILLDF@?$AAk?$AAG?$AAP?$AAT?$AA1?$AA0?$AA_?$AAF?$AAC?$AAL?$AAK?$AA?$AA@| [ DATA ] ; `string'
	EXPORT	|??_C@_1CC@CDCMPIGB@?$AAk?$AAG?$AAP?$AAT?$AA9?$AA_?$AAA?$AAL?$AAW?$AAO?$AAN?$AA_?$AAF?$AAC?$AAL?$AAK?$AA?$AA@| [ DATA ] ; `string'
	EXPORT	|??_C@_1CC@MEDBFOPG@?$AAk?$AAG?$AAP?$AAT?$AA8?$AA_?$AAA?$AAL?$AAW?$AAO?$AAN?$AA_?$AAF?$AAC?$AAL?$AAK?$AA?$AA@| [ DATA ] ; `string'
	EXPORT	|??_C@_1CC@EJNLAIGM@?$AAk?$AAG?$AAP?$AAT?$AA7?$AA_?$AAA?$AAL?$AAW?$AAO?$AAN?$AA_?$AAF?$AAC?$AAL?$AAK?$AA?$AA@| [ DATA ] ; `string'
	EXPORT	|??_C@_1CC@KOMGKOPL@?$AAk?$AAG?$AAP?$AAT?$AA6?$AA_?$AAA?$AAL?$AAW?$AAO?$AAN?$AA_?$AAF?$AAC?$AAL?$AAK?$AA?$AA@| [ DATA ] ; `string'
	EXPORT	|??_C@_1CC@FMJBEDAD@?$AAk?$AAG?$AAP?$AAT?$AA5?$AA_?$AAA?$AAL?$AAW?$AAO?$AAN?$AA_?$AAF?$AAC?$AAL?$AAK?$AA?$AA@| [ DATA ] ; `string'
	EXPORT	|??_C@_1CC@LLIMOFJE@?$AAk?$AAG?$AAP?$AAT?$AA4?$AA_?$AAA?$AAL?$AAW?$AAO?$AAN?$AA_?$AAF?$AAC?$AAL?$AAK?$AA?$AA@| [ DATA ] ; `string'
	EXPORT	|??_C@_1CC@GDEPJOLC@?$AAk?$AAG?$AAP?$AAT?$AA3?$AA_?$AAA?$AAL?$AAW?$AAO?$AAN?$AA_?$AAF?$AAC?$AAL?$AAK?$AA?$AA@| [ DATA ] ; `string'
	EXPORT	|??_C@_1CC@IEFCDICF@?$AAk?$AAG?$AAP?$AAT?$AA2?$AA_?$AAA?$AAL?$AAW?$AAO?$AAN?$AA_?$AAF?$AAC?$AAL?$AAK?$AA?$AA@| [ DATA ] ; `string'
	EXPORT	|??_C@_1BG@LBMJBNDI@?$AAk?$AAG?$AAP?$AAT?$AA1?$AA_?$AAF?$AAC?$AAL?$AAK?$AA?$AA@| [ DATA ] ; `string'
	EXPORT	|??_C@_1BE@BKPHEHJG@?$AAk?$AAS?$AAG?$AAX?$AA_?$AAF?$AAC?$AAL?$AAK?$AA?$AA@| [ DATA ] ; `string'
	EXPORT	|??_C@_1BE@OHPPGGKJ@?$AAk?$AA5?$AA4?$AAM?$AA_?$AAF?$AAC?$AAL?$AAK?$AA?$AA@| [ DATA ] ; `string'
	EXPORT	|??_C@_1BE@KPIPADIA@?$AAk?$AA4?$AA8?$AAM?$AA_?$AAF?$AAC?$AAL?$AAK?$AA?$AA@| [ DATA ] ; `string'
	EXPORT	|??_C@_1BE@HMKGDKMA@?$AAk?$AA9?$AA6?$AAM?$AA_?$AAF?$AAC?$AAL?$AAK?$AA?$AA@| [ DATA ] ; `string'
	EXPORT	|??_C@_1BG@FOLAEDFM@?$AAk?$AAU?$AAS?$AAI?$AAM?$AA_?$AAF?$AAC?$AAL?$AAK?$AA?$AA@| [ DATA ] ; `string'
	EXPORT	|??_C@_1BK@FIGBAONF@?$AAk?$AAC?$AAM?$AA_?$AAU?$AAS?$AAI?$AAM?$AA_?$AAC?$AAL?$AAK?$AA?$AA@| [ DATA ] ; `string'
	EXPORT	|??_C@_1CG@INMPAIAN@?$AAk?$AAU?$AAS?$AAB?$AAH?$AAO?$AAS?$AAT?$AA_?$AA1?$AA2?$AA0?$AAM?$AA_?$AAF?$AAC?$AAL?$AAK?$AA?$AA@| [ DATA ] ; `string'
	EXPORT	|??_C@_1BK@DMMIFOKJ@?$AAk?$AAD?$AAS?$AAS?$AA_?$AAT?$AAV?$AA_?$AAF?$AAC?$AAL?$AAK?$AA?$AA@| [ DATA ] ; `string'
	EXPORT	|??_C@_1BO@KGNEDEAO@?$AAk?$AAC?$AAO?$AAR?$AAE?$AA_?$AA1?$AA2?$AAM?$AA_?$AAF?$AAC?$AAL?$AAK?$AA?$AA@| [ DATA ] ; `string'
	EXPORT	|??_C@_1BE@LPMGNIEL@?$AAk?$AA1?$AA2?$AAM?$AA_?$AAF?$AAC?$AAL?$AAK?$AA?$AA@| [ DATA ] ; `string'
	EXPORT	|??_C@_1BM@CNNCGJCM@?$AAk?$AAP?$AAE?$AAR?$AA_?$AA4?$AA8?$AAM?$AA_?$AAF?$AAC?$AAL?$AAK?$AA?$AA@| [ DATA ] ; `string'
	EXPORT	|??_C@_1CE@JDPIHICJ@?$AAk?$AAU?$AAS?$AAB?$AAH?$AAO?$AAS?$AAT?$AA_?$AA4?$AA8?$AAM?$AA_?$AAF?$AAC?$AAL?$AAK?$AA?$AA@| [ DATA ] ; `string'
	EXPORT	|??_C@_1BO@LGJNOPMF@?$AAk?$AAC?$AAO?$AAR?$AAE?$AA_?$AA4?$AA8?$AAM?$AA_?$AAF?$AAC?$AAL?$AAK?$AA?$AA@| [ DATA ] ; `string'
	EXPORT	|??_C@_1BO@MLNMBJDB@?$AAk?$AAC?$AAS?$AAI?$AA2?$AA_?$AA9?$AA6?$AAM?$AA_?$AAF?$AAC?$AAL?$AAK?$AA?$AA@| [ DATA ] ; `string'
	EXPORT	|??_C@_1BM@KGEDNEGH@?$AAk?$AAD?$AAS?$AAS?$AA_?$AA9?$AA6?$AAM?$AA_?$AAF?$AAC?$AAL?$AAK?$AA?$AA@| [ DATA ] ; `string'
	EXPORT	|??_C@_1BO@GFLENGIF@?$AAk?$AAC?$AAO?$AAR?$AAE?$AA_?$AA9?$AA6?$AAM?$AA_?$AAF?$AAC?$AAL?$AAK?$AA?$AA@| [ DATA ] ; `string'
	EXPORT	|??_C@_1BM@JEIEMPJK@?$AAk?$AAS?$AAS?$AAI?$AA_?$AAS?$AAS?$AAT?$AA_?$AAF?$AAC?$AAL?$AAK?$AA?$AA@| [ DATA ] ; `string'
	EXPORT	|??_C@_1BM@GMEGIECM@?$AAk?$AAS?$AAS?$AAI?$AA_?$AAS?$AAS?$AAR?$AA_?$AAF?$AAC?$AAL?$AAK?$AA?$AA@| [ DATA ] ; `string'
	EXPORT	|??_C@_1BI@KNLMECEA@?$AAk?$AAS?$AAR?$AA_?$AAL?$AA4?$AA_?$AAI?$AAC?$AAL?$AAK?$AA?$AA@| [ DATA ] ; `string'
	EXPORT	|??_C@_1BK@JNEICFJE@?$AAk?$AAP?$AAE?$AAR?$AA_?$AAL?$AA4?$AA_?$AAI?$AAC?$AAL?$AAK?$AA?$AA@| [ DATA ] ; `string'
	EXPORT	|??_C@_1CC@CIKJOCKA@?$AAk?$AAU?$AAS?$AAB?$AAH?$AAO?$AAS?$AAT?$AA_?$AAL?$AA4?$AA_?$AAI?$AAC?$AAL?$AAK?$AA?$AA@| [ DATA ] ; `string'
	EXPORT	|??_C@_1CC@ENGEEIGA@?$AAk?$AAU?$AAS?$AAB?$AAH?$AAO?$AAS?$AAT?$AA_?$AAL?$AA3?$AA_?$AAI?$AAC?$AAL?$AAK?$AA?$AA@| [ DATA ] ; `string'
	EXPORT	|??_C@_1BK@HKMFLLIF@?$AAk?$AAC?$AAA?$AAM?$AA_?$AAL?$AA4?$AA_?$AAI?$AAC?$AAL?$AAK?$AA?$AA@| [ DATA ] ; `string'
	EXPORT	|??_C@_1BK@BPAIBBEF@?$AAk?$AAC?$AAA?$AAM?$AA_?$AAL?$AA3?$AA_?$AAI?$AAC?$AAL?$AAK?$AA?$AA@| [ DATA ] ; `string'
	EXPORT	|??_C@_1BK@DFEEOPHB@?$AAk?$AAD?$AAS?$AAS?$AA_?$AAL?$AA4?$AA_?$AAI?$AAC?$AAL?$AAK?$AA?$AA@| [ DATA ] ; `string'
	EXPORT	|??_C@_1BK@FAIJEFLB@?$AAk?$AAD?$AAS?$AAS?$AA_?$AAL?$AA3?$AA_?$AAI?$AAC?$AAL?$AAK?$AA?$AA@| [ DATA ] ; `string'
	EXPORT	|??_C@_1BK@MMOEKMCA@?$AAk?$AAS?$AAS?$AAI?$AA_?$AAL?$AA4?$AA_?$AAI?$AAC?$AAL?$AAK?$AA?$AA@| [ DATA ] ; `string'
	EXPORT	|??_C@_1BK@NJNOEPMC@?$AAk?$AAS?$AAG?$AAX?$AA_?$AAL?$AA3?$AA_?$AAI?$AAC?$AAL?$AAK?$AA?$AA@| [ DATA ] ; `string'
	EXPORT	|??_C@_1CG@CFAPNILK@?$AAk?$AAS?$AAE?$AAC?$AAU?$AAR?$AAI?$AAT?$AAY?$AA_?$AAL?$AA4?$AA_?$AAI?$AAC?$AAL?$AAK?$AA2?$AA?$AA@| [ DATA ] ; `string'
	EXPORT	|??_C@_1CG@DHLKHHFE@?$AAk?$AAS?$AAE?$AAC?$AAU?$AAR?$AAI?$AAT?$AAY?$AA_?$AAL?$AA4?$AA_?$AAI?$AAC?$AAL?$AAK?$AA1?$AA?$AA@| [ DATA ] ; `string'
	EXPORT	|??_C@_1CE@DCCJJJCO@?$AAk?$AAS?$AAE?$AAC?$AAU?$AAR?$AAI?$AAT?$AAY?$AA_?$AAL?$AA3?$AA_?$AAI?$AAC?$AAL?$AAK?$AA?$AA@| [ DATA ] ; `string'
	EXPORT	|??_C@_1BM@GNELHHCO@?$AAk?$AAC?$AAO?$AAR?$AAE?$AA_?$AAL?$AA4?$AA_?$AAI?$AAC?$AAL?$AAK?$AA?$AA@| [ DATA ] ; `string'
	EXPORT	|??_C@_1BM@IIGNNOO@?$AAk?$AAC?$AAO?$AAR?$AAE?$AA_?$AAL?$AA3?$AA_?$AAI?$AAC?$AAL?$AAK?$AA?$AA@| [ DATA ] ; `string'
	EXPORT	|??_C@_1BI@GGLANBIM@?$AAk?$AAD?$AAP?$AAL?$AAL?$AA2?$AA_?$AAF?$AAC?$AAL?$AAK?$AA?$AA@| [ DATA ] ; `string'
	EXPORT	|??_C@_1BI@BKNBPEFH@?$AAk?$AAD?$AAP?$AAL?$AAL?$AA1?$AA_?$AAF?$AAC?$AAL?$AAK?$AA?$AA@| [ DATA ] ; `string'
	EXPORT	|??_C@_1BC@IEJPNIBD@?$AAk?$AAR?$AAM?$AA_?$AAI?$AAC?$AAL?$AAK?$AA?$AA@| [ DATA ] ; `string'
	EXPORT	|??_C@_1BK@EOKLGFAI@?$AAk?$AAU?$AAS?$AAB?$AA_?$AAL?$AA4?$AA_?$AAI?$AAC?$AAL?$AAK?$AA?$AA@| [ DATA ] ; `string'
	EXPORT	|??_C@_1BC@GADFMCD@?$AAk?$AAL?$AA4?$AA_?$AAI?$AAC?$AAL?$AAK?$AA?$AA@| [ DATA ] ; `string'
	EXPORT	|??_C@_1BC@GDMOPGOD@?$AAk?$AAL?$AA3?$AA_?$AAI?$AAC?$AAL?$AAK?$AA?$AA@| [ DATA ] ; `string'
	EXPORT	|??_C@_1CA@PCEHGMIB@?$AAk?$AA9?$AA6?$AAM?$AA_?$AAA?$AAL?$AAW?$AAO?$AAN?$AA_?$AAF?$AAC?$AAL?$AAK?$AA?$AA@| [ DATA ] ; `string'
	EXPORT	|??_C@_1BK@MCHPLJEE@?$AAk?$AAC?$AAM?$AA_?$AA9?$AA6?$AAM?$AA_?$AAF?$AAC?$AAL?$AAK?$AA?$AA@| [ DATA ] ; `string'
	EXPORT	|??_C@_1CA@BBGPJHGP@?$AAk?$AAC?$AAO?$AAR?$AAE?$AA_?$AA1?$AA2?$AA0?$AAM?$AA_?$AAF?$AAC?$AAL?$AAK?$AA?$AA@| [ DATA ] ; `string'
	EXPORT	|??_C@_1CI@EADHIPEB@?$AAk?$AAP?$AAE?$AAR?$AA_?$AA3?$AA2?$AAK?$AA_?$AAA?$AAL?$AAW?$AAO?$AAN?$AA_?$AAF?$AAC?$AAL?$AAK?$AA?$AA@| [ DATA ] ; `string'
	EXPORT	|??_C@_1BO@LPLICNLH@?$AAk?$AAW?$AAK?$AAU?$AAP?$AA_?$AA3?$AA2?$AAK?$AA_?$AAF?$AAC?$AAL?$AAK?$AA?$AA@| [ DATA ] ; `string'
	EXPORT	|??_C@_1BO@FLMCBEDL@?$AAk?$AAC?$AAO?$AAR?$AAE?$AA_?$AA3?$AA2?$AAK?$AA_?$AAF?$AAC?$AAL?$AAK?$AA?$AA@| [ DATA ] ; `string'
	EXPORT	|??_C@_1BI@BEPCGLLM@?$AAk?$AAC?$AAM?$AA_?$AA3?$AA2?$AAK?$AA_?$AAC?$AAL?$AAK?$AA?$AA@| [ DATA ] ; `string'
	EXPORT	|??_C@_1BM@CKBOGBKN@?$AAk?$AAW?$AAK?$AAU?$AAP?$AA_?$AAL?$AA4?$AA_?$AAI?$AAC?$AAL?$AAK?$AA?$AA@| [ DATA ] ; `string'
	EXPORT	|??_C@_1CC@NOFOGNB@?$AAk?$AAD?$AAS?$AAS?$AA2?$AA_?$AAA?$AAL?$AAW?$AAO?$AAN?$AA_?$AAF?$AAC?$AAL?$AAK?$AA?$AA@| [ DATA ] ; `string'
	EXPORT	|??_C@_1BI@OEECMJPN@?$AAk?$AAC?$AAM?$AA_?$AAS?$AAY?$AAS?$AA_?$AAC?$AAL?$AAK?$AA?$AA@| [ DATA ] ; `string'
	EXPORT	|??_C@_1CE@IKHPAHF@?$AAk?$AAD?$AAP?$AAL?$AAL?$AA5?$AA_?$AAA?$AAL?$AAW?$AAO?$AAN?$AA_?$AAF?$AAC?$AAL?$AAK?$AA?$AA@| [ DATA ] ; `string'
	EXPORT	|??_C@_1CE@OPLKFGOC@?$AAk?$AAD?$AAP?$AAL?$AAL?$AA4?$AA_?$AAA?$AAL?$AAW?$AAO?$AAN?$AA_?$AAF?$AAC?$AAL?$AAK?$AA?$AA@| [ DATA ] ; `string'
	EXPORT	|??_C@_1CE@DHHJCNME@?$AAk?$AAD?$AAP?$AAL?$AAL?$AA3?$AA_?$AAA?$AAL?$AAW?$AAO?$AAN?$AA_?$AAF?$AAC?$AAL?$AAK?$AA?$AA@| [ DATA ] ; `string'
	EXPORT	|??_C@_1CE@NAGEILFD@?$AAk?$AAD?$AAP?$AAL?$AAL?$AA2?$AA_?$AAA?$AAL?$AAW?$AAO?$AAN?$AA_?$AAF?$AAC?$AAL?$AAK?$AA?$AA@| [ DATA ] ; `string'
	EXPORT	|??_C@_1CE@CCDDGGKL@?$AAk?$AAD?$AAP?$AAL?$AAL?$AA1?$AA_?$AAA?$AAL?$AAW?$AAO?$AAN?$AA_?$AAF?$AAC?$AAL?$AAK?$AA?$AA@| [ DATA ] ; `string'
	EXPORT	|??_C@_1BO@OFGDLBDE@?$AAk?$AAS?$AAR?$AA_?$AAA?$AAL?$AAW?$AAO?$AAN?$AA_?$AAF?$AAC?$AAL?$AAK?$AA?$AA@| [ DATA ] ; `string'
	EXPORT	|??_C@_1CE@PPGNFPBP@?$AAk?$AAE?$AAF?$AAU?$AAS?$AAE?$AA_?$AAA?$AAL?$AAW?$AAO?$AAN?$AA_?$AAF?$AAC?$AAL?$AAK?$AA?$AA@| [ DATA ] ; `string'
	EXPORT	|??_C@_1CE@KHCGIPEA@?$AAk?$AAU?$AAS?$AAB?$AAH?$AAO?$AAS?$AAT?$AA_?$AAS?$AAA?$AAR?$AA_?$AAF?$AAC?$AAL?$AAK?$AA?$AA@| [ DATA ] ; `string'
	EXPORT	|??_C@_1CC@HCOAMGKK@?$AAk?$AAU?$AAS?$AAB?$AAT?$AAL?$AAL?$AA_?$AAS?$AAA?$AAR?$AA_?$AAF?$AAC?$AAL?$AAK?$AA?$AA@| [ DATA ] ; `string'
	EXPORT	|??_C@_1BI@CMEGODCK@?$AAk?$AAM?$AAC?$AAB?$AAS?$AAP?$AA_?$AAC?$AAL?$AAK?$AAS?$AA?$AA@| [ DATA ] ; `string'
	EXPORT	|??_C@_1CC@EOBIKDKJ@?$AAk?$AAS?$AAE?$AAC?$AAU?$AAR?$AAE?$AA_?$AA3?$AA2?$AAK?$AA_?$AAF?$AAC?$AAL?$AAK?$AA?$AA@| [ DATA ] ; `string'
	EXPORT	|??_C@_1BI@ILMCMCCC@?$AAk?$AAS?$AAY?$AAS?$AA_?$AAA?$AAL?$AAT?$AAC?$AAL?$AAK?$AA?$AA@| [ DATA ] ; `string'
	EXPORT	|??_C@_1BC@HKFDEGNL@?$AAk?$AAS?$AAY?$AAS?$AA_?$AAC?$AAL?$AAK?$AA?$AA@| [ DATA ] ; `string'
	EXPORT	|??_C@_1BE@ECNAPIHO@?$AAk?$AA3?$AA2?$AAK?$AA_?$AAF?$AAC?$AAL?$AAK?$AA?$AA@| [ DATA ] ; `string'
	EXPORT	|??_C@_1BG@DFNNJLGO@?$AAk?$AA1?$AA2?$AA0?$AAM?$AA_?$AAF?$AAC?$AAL?$AAK?$AA?$AA@| [ DATA ] ; `string'
	EXPORT	|??_C@_1CK@BAAFIMCG@?$AAk?$AAE?$AAM?$AAU?$AAL?$AA_?$AAP?$AAE?$AAR?$AA_?$AAA?$AAL?$AAW?$AAO?$AAN?$AA_?$AAC?$AAL?$AAK?$AA?5?$AA?$AA@| [ DATA ] ; `string'
	EXPORT	|??_C@_1BE@HNDENLJM@?$AAk?$AAC?$AAA?$AAM?$AA_?$AAM?$AAC?$AAL?$AAK?$AA?$AA@| [ DATA ] ; `string'
	EXPORT	|??_C@_1CC@PPLCALCJ@?$AAk?$AAD?$AAS?$AAS?$AA1?$AA_?$AAA?$AAL?$AAW?$AAO?$AAN?$AA_?$AAF?$AAC?$AAL?$AAK?$AA?$AA@| [ DATA ] ; `string'
	EXPORT	|??_C@_1CA@EIKHJGPJ@?$AAk?$AAD?$AAP?$AAL?$AAL?$AA4?$AA_?$AAM?$AA3?$AAX?$AA2?$AA_?$AAC?$AAL?$AAK?$AA?$AA@| [ DATA ] ; `string'
	EXPORT	|??_C@_1CG@DJDPLNE@?$AAk?$AAP?$AAR?$AAM?$AA_?$AA9?$AA6?$AAM?$AA_?$AAA?$AAL?$AAW?$AAO?$AAN?$AA_?$AAC?$AAL?$AAK?$AA?$AA@| [ DATA ] ; `string'
	EXPORT	|??_C@_1CK@NDKHMFDM@?$AAk?$AAE?$AAM?$AAU?$AAL?$AA_?$AAC?$AAO?$AAR?$AAE?$AA_?$AAA?$AAL?$AAW?$AAO?$AAN?$AA_?$AAC?$AAL?$AAK?$AA?$AA@| [ DATA ] ; `string'
	EXPORT	|??_C@_1BK@CKNHOHLE@?$AAk?$AAC?$AAO?$AAR?$AAE?$AAX?$AA2?$AA_?$AAF?$AAC?$AAL?$AAK?$AA?$AA@| [ DATA ] ; `string'
	EXPORT	|??_C@_1BE@KIOEPBOF@?$AAk?$AAC?$AAO?$AAR?$AAE?$AA_?$AAC?$AAL?$AAK?$AA?$AA@| [ DATA ] ; `string'
	EXPORT	|??_C@_1BM@LAPEPOFC@?$AAk?$AAD?$AAP?$AAL?$AAL?$AA2?$AA_?$AAM?$AA2?$AA_?$AAC?$AAL?$AAK?$AA?$AA@| [ DATA ] ; `string'
	EXPORT	|??_C@_1CA@KNEGPAKI@?$AAk?$AAD?$AAP?$AAL?$AAL?$AA1?$AA_?$AAM?$AA2?$AAX?$AA2?$AA_?$AAC?$AAL?$AAK?$AA?$AA@| [ DATA ] ; `string'
	EXPORT	|??_C@_1BC@HPLLDAKE@?$AAk?$AAI?$AAN?$AAT?$AA_?$AAO?$AAS?$AAC?$AA?$AA@| [ DATA ] ; `string'
	EXPORT	|??_C@_1BE@CGAEBABM@?$AAk?$AAE?$AAX?$AAT?$AA_?$AAM?$AAI?$AAS?$AAC?$AA?$AA@| [ DATA ] ; `string'
	EXPORT	|??_C@_1BC@GMCNFJOM@?$AAk?$AAE?$AAX?$AAT?$AA_?$AAA?$AAL?$AAT?$AA?$AA@| [ DATA ] ; `string'
	EXPORT	|??_C@_1BK@KJEOLNHN@?$AAk?$AAE?$AAX?$AAT?$AA_?$AAS?$AAY?$AAS?$AA_?$AAC?$AAL?$AAK?$AA?$AA@| [ DATA ] ; `string'
	EXPORT	|??_C@_1CC@LIKIOEDP@?$AAk?$AAD?$AAP?$AAL?$AAL?$AA5?$AA_?$AAC?$AAL?$AAK?$AAO?$AAU?$AAT?$AA_?$AAM?$AA2?$AA?$AA@| [ DATA ] ; `string'
	EXPORT	|??_C@_1CG@JKMHNEID@?$AAk?$AAD?$AAP?$AAL?$AAL?$AA4?$AA_?$AAC?$AAL?$AAK?$AAO?$AAU?$AAT?$AA_?$AAM?$AA6?$AAX?$AA2?$AA?$AA@| [ DATA ] ; `string'
	EXPORT	|??_C@_1CG@BEEINDGA@?$AAk?$AAD?$AAP?$AAL?$AAL?$AA4?$AA_?$AAC?$AAL?$AAK?$AAO?$AAU?$AAT?$AA_?$AAM?$AA5?$AAX?$AA2?$AA?$AA@| [ DATA ] ; `string'
	EXPORT	|??_C@_1CG@NIOCNDPO@?$AAk?$AAD?$AAP?$AAL?$AAL?$AA4?$AA_?$AAC?$AAL?$AAK?$AAO?$AAU?$AAT?$AA_?$AAM?$AA4?$AAX?$AA2?$AA?$AA@| [ DATA ] ; `string'
	EXPORT	|??_C@_1CG@NCCHNKOH@?$AAk?$AAD?$AAP?$AAL?$AAL?$AA4?$AA_?$AAC?$AAL?$AAK?$AAO?$AAU?$AAT?$AA_?$AAM?$AA3?$AAX?$AA2?$AA?$AA@| [ DATA ] ; `string'
	EXPORT	|??_C@_1CG@BOINNKHJ@?$AAk?$AAD?$AAP?$AAL?$AAL?$AA4?$AA_?$AAC?$AAL?$AAK?$AAO?$AAU?$AAT?$AA_?$AAM?$AA2?$AAX?$AA2?$AA?$AA@| [ DATA ] ; `string'
	EXPORT	|??_C@_1CG@NGCOCJLE@?$AAk?$AAD?$AAP?$AAL?$AAL?$AA3?$AA_?$AAC?$AAL?$AAK?$AAO?$AAU?$AAT?$AA_?$AAM?$AA3?$AAX?$AA2?$AA?$AA@| [ DATA ] ; `string'
	EXPORT	|??_C@_1CG@BKIECJCK@?$AAk?$AAD?$AAP?$AAL?$AAL?$AA3?$AA_?$AAC?$AAL?$AAK?$AAO?$AAU?$AAT?$AA_?$AAM?$AA2?$AAX?$AA2?$AA?$AA@| [ DATA ] ; `string'
	EXPORT	|??_C@_1CC@IJFLGGP@?$AAk?$AAD?$AAP?$AAL?$AAL?$AA3?$AA_?$AAC?$AAL?$AAK?$AAO?$AAU?$AAT?$AA_?$AAM?$AA2?$AA?$AA@| [ DATA ] ; `string'
	EXPORT	|??_C@_1CC@IJLANDEI@?$AAk?$AAD?$AAP?$AAL?$AAL?$AA2?$AA_?$AAC?$AAL?$AAK?$AAO?$AAU?$AAT?$AA_?$AAM?$AA2?$AA?$AA@| [ DATA ] ; `string'
	EXPORT	|??_C@_1CG@BJOPNDBA@?$AAk?$AAD?$AAP?$AAL?$AAL?$AA1?$AA_?$AAC?$AAL?$AAK?$AAO?$AAU?$AAT?$AA_?$AAM?$AA2?$AAX?$AA2?$AA?$AA@| [ DATA ] ; `string'
	EXPORT	|??_C@_1BG@FJDLHCCD@?$AAk?$AAE?$AAX?$AAT?$AA_?$AA3?$AA2?$AAK?$AAH?$AAZ?$AA?$AA@| [ DATA ] ; `string'
	EXPORT	|??_C@_1BE@EHNFPPJL@?$AAk?$AAD?$AAP?$AAL?$AAL?$AA_?$AAE?$AAX?$AAT?$AA?$AA@| [ DATA ] ; `string'
	EXPORT	|??_C@_1O@KGINCNBN@?$AAk?$AAD?$AAP?$AAL?$AAL?$AA5?$AA?$AA@| [ DATA ] ; `string'
	EXPORT	|??_C@_1O@BODBEKHI@?$AAk?$AAD?$AAP?$AAL?$AAL?$AA4?$AA?$AA@| [ DATA ] ; `string'
	EXPORT	|??_C@_1O@IDOGHCMB@?$AAk?$AAD?$AAP?$AAL?$AAL?$AA3?$AA?$AA@| [ DATA ] ; `string'
	EXPORT	|??_C@_1O@DLFKBFKE@?$AAk?$AAD?$AAP?$AAL?$AAL?$AA2?$AA?$AA@| [ DATA ] ; `string'
	EXPORT	|??_C@_1O@CJOPLKEK@?$AAk?$AAD?$AAP?$AAL?$AAL?$AA1?$AA?$AA@| [ DATA ] ; `string'
	EXPORT	|??_C@_1BE@KENFMBEG@?$AAk?$AAM?$AAM?$AAC?$AA_?$AAV?$AAD?$AAD?$AAS?$AA?$AA@| [ DATA ] ; `string'
	EXPORT	|??_C@_1BC@ODEKFAPK@?$AAk?$AAV?$AAD?$AAD?$AAA?$AAD?$AAA?$AAC?$AA?$AA@| [ DATA ] ; `string'
	EXPORT	|??_C@_1BA@PHFNGHLK@?$AAk?$AAV?$AAD?$AAD?$AAP?$AAL?$AAL?$AA?$AA@| [ DATA ] ; `string'
	EXPORT	|??_C@_1M@IJEGCDLI@?$AAk?$AAV?$AAD?$AAD?$AAS?$AA?$AA@| [ DATA ] ; `string'
	EXPORT	|??_C@_1BC@PPJANNEK@?$AAk?$AAV?$AAD?$AAD?$AA_?$AAE?$AAX?$AAT?$AA?$AA@| [ DATA ] ; `string'
	EXPORT	|??_C@_1M@JHALILGH@?$AAk?$AAV?$AAD?$AAD?$AA5?$AA?$AA@| [ DATA ] ; `string'
	EXPORT	|??_C@_1M@CPLHOMAC@?$AAk?$AAV?$AAD?$AAD?$AA4?$AA?$AA@| [ DATA ] ; `string'
	EXPORT	|??_C@_1M@LCGANELL@?$AAk?$AAV?$AAD?$AAD?$AA3?$AA?$AA@| [ DATA ] ; `string'
	EXPORT	|??_C@_1M@KNMLDNO@?$AAk?$AAV?$AAD?$AAD?$AA2?$AA?$AA@| [ DATA ] ; `string'
	EXPORT	|??_C@_1M@BIGJBMDA@?$AAk?$AAV?$AAD?$AAD?$AA1?$AA?$AA@| [ DATA ] ; `string'
	EXPORT	|_ssr_fclk| [ DATA ]
	EXPORT	|_cam_fclk| [ DATA ]
	EXPORT	|_dss1_fclk| [ DATA ]
	EXPORT	|_usim_fclk| [ DATA ]
	EXPORT	|_cm_usim_fclk| [ DATA ]
	EXPORT	|_sgx_fclk| [ DATA ]
	EXPORT	|_tv_fclk| [ DATA ]
	EXPORT	|s_VddTable| [ DATA ]
	EXPORT	|s_DpllTable| [ DATA ]
	EXPORT	|s_DpllClkOutTable| [ DATA ]
	EXPORT	|s_SrcClockTable| [ DATA ]
	EXPORT	|s_VddNameTable| [ DATA ]
	EXPORT	|s_DpllNameTable| [ DATA ]
	EXPORT	|s_DpllClkOutNameTable| [ DATA ]
	EXPORT	|s_SrcClockNameTable| [ DATA ]
	EXPORT	|DeviceNames| [ DATA ]
	EXPORT	|DumpRegArray| [ DATA ]

  00000			 AREA	 |.bss|, NOINIT
|s_VddTable| %	0x28

  00000			 AREA	 |.rdata|, DATA, READONLY
|??_C@_1CK@MFCDILAE@?$AAP?$AAM?$AA_?$AAP?$AAR?$AAE?$AAP?$AAW?$AAS?$AAT?$AAS?$AAT?$AA_?$AAU?$AAS?$AAB?$AAH?$AAO?$AAS?$AAT?$AA?$AA@| DCB "P"
	DCB	0x0, "M", 0x0, "_", 0x0, "P", 0x0, "R", 0x0, "E", 0x0, "P"
	DCB	0x0, "W", 0x0, "S", 0x0, "T", 0x0, "S", 0x0, "T", 0x0, "_"
	DCB	0x0, "U", 0x0, "S", 0x0, "B", 0x0, "H", 0x0, "O", 0x0, "S"
	DCB	0x0, "T", 0x0, 0x0, 0x0			; `string'

  00000			 AREA	 |.rdata|, DATA, READONLY
|??_C@_1CE@DINMMLDJ@?$AAP?$AAM?$AA_?$AAP?$AAW?$AAS?$AAT?$AAS?$AAT?$AA_?$AAU?$AAS?$AAB?$AAH?$AAO?$AAS?$AAT?$AA?$AA@| DCB "P"
	DCB	0x0, "M", 0x0, "_", 0x0, "P", 0x0, "W", 0x0, "S", 0x0, "T"
	DCB	0x0, "S", 0x0, "T", 0x0, "_", 0x0, "U", 0x0, "S", 0x0, "B"
	DCB	0x0, "H", 0x0, "O", 0x0, "S", 0x0, "T", 0x0, 0x0, 0x0 ; `string'

  00000			 AREA	 |.rdata|, DATA, READONLY
|??_C@_1CI@NFFMDMCO@?$AAP?$AAM?$AA_?$AAP?$AAW?$AAS?$AAT?$AAC?$AAT?$AAR?$AAL?$AA_?$AAU?$AAS?$AAB?$AAH?$AAO?$AAS?$AAT?$AA?$AA@| DCB "P"
	DCB	0x0, "M", 0x0, "_", 0x0, "P", 0x0, "W", 0x0, "S", 0x0, "T"
	DCB	0x0, "C", 0x0, "T", 0x0, "R", 0x0, "L", 0x0, "_", 0x0, "U"
	DCB	0x0, "S", 0x0, "B", 0x0, "H", 0x0, "O", 0x0, "S", 0x0, "T"
	DCB	0x0, 0x0, 0x0				; `string'

  00000			 AREA	 |.rdata|, DATA, READONLY
|??_C@_1CC@BANAFHHA@?$AAP?$AAM?$AA_?$AAW?$AAK?$AAD?$AAE?$AAP?$AA_?$AAU?$AAS?$AAB?$AAH?$AAO?$AAS?$AAT?$AA?$AA@| DCB "P"
	DCB	0x0, "M", 0x0, "_", 0x0, "W", 0x0, "K", 0x0, "D", 0x0, "E"
	DCB	0x0, "P", 0x0, "_", 0x0, "U", 0x0, "S", 0x0, "B", 0x0, "H"
	DCB	0x0, "O", 0x0, "S", 0x0, "T", 0x0, 0x0, 0x0 ; `string'

  00000			 AREA	 |.rdata|, DATA, READONLY
|??_C@_1CA@CDELFGFE@?$AAP?$AAM?$AA_?$AAW?$AAK?$AAS?$AAT?$AA_?$AAU?$AAS?$AAB?$AAH?$AAO?$AAS?$AAT?$AA?$AA@| DCB "P"
	DCB	0x0, "M", 0x0, "_", 0x0, "W", 0x0, "K", 0x0, "S", 0x0, "T"
	DCB	0x0, "_", 0x0, "U", 0x0, "S", 0x0, "B", 0x0, "H", 0x0, "O"
	DCB	0x0, "S", 0x0, "T", 0x0, 0x0, 0x0	; `string'

  00000			 AREA	 |.rdata|, DATA, READONLY
|??_C@_1CM@CGFHEIFF@?$AAP?$AAM?$AA_?$AAI?$AAV?$AAA?$AA2?$AAG?$AAR?$AAP?$AAS?$AAE?$AAL?$AA_?$AAU?$AAS?$AAB?$AAH?$AAO?$AAS?$AAT?$AA?$AA@| DCB "P"
	DCB	0x0, "M", 0x0, "_", 0x0, "I", 0x0, "V", 0x0, "A", 0x0, "2"
	DCB	0x0, "G", 0x0, "R", 0x0, "P", 0x0, "S", 0x0, "E", 0x0, "L"
	DCB	0x0, "_", 0x0, "U", 0x0, "S", 0x0, "B", 0x0, "H", 0x0, "O"
	DCB	0x0, "S", 0x0, "T", 0x0, 0x0, 0x0	; `string'

  00000			 AREA	 |.rdata|, DATA, READONLY
|??_C@_1CK@KEHDDHL@?$AAP?$AAM?$AA_?$AAM?$AAP?$AAU?$AAG?$AAR?$AAP?$AAS?$AAE?$AAL?$AA_?$AAU?$AAS?$AAB?$AAH?$AAO?$AAS?$AAT?$AA?$AA@| DCB "P"
	DCB	0x0, "M", 0x0, "_", 0x0, "M", 0x0, "P", 0x0, "U", 0x0, "G"
	DCB	0x0, "R", 0x0, "P", 0x0, "S", 0x0, "E", 0x0, "L", 0x0, "_"
	DCB	0x0, "U", 0x0, "S", 0x0, "B", 0x0, "H", 0x0, "O", 0x0, "S"
	DCB	0x0, "T", 0x0, 0x0, 0x0			; `string'

  00000			 AREA	 |.rdata|, DATA, READONLY
|??_C@_1CA@EPJOENIO@?$AAP?$AAM?$AA_?$AAW?$AAK?$AAE?$AAN?$AA_?$AAU?$AAS?$AAB?$AAH?$AAO?$AAS?$AAT?$AA?$AA@| DCB "P"
	DCB	0x0, "M", 0x0, "_", 0x0, "W", 0x0, "K", 0x0, "E", 0x0, "N"
	DCB	0x0, "_", 0x0, "U", 0x0, "S", 0x0, "B", 0x0, "H", 0x0, "O"
	DCB	0x0, "S", 0x0, "T", 0x0, 0x0, 0x0	; `string'

  00000			 AREA	 |.rdata|, DATA, READONLY
|??_C@_1CC@ELENAOBE@?$AAR?$AAM?$AA_?$AAR?$AAS?$AAT?$AAS?$AAT?$AA_?$AAU?$AAS?$AAB?$AAH?$AAO?$AAS?$AAT?$AA?$AA@| DCB "R"
	DCB	0x0, "M", 0x0, "_", 0x0, "R", 0x0, "S", 0x0, "T", 0x0, "S"
	DCB	0x0, "T", 0x0, "_", 0x0, "U", 0x0, "S", 0x0, "B", 0x0, "H"
	DCB	0x0, "O", 0x0, "S", 0x0, "T", 0x0, 0x0, 0x0 ; `string'

  00000			 AREA	 |.rdata|, DATA, READONLY
|??_C@_1BI@BEADJOPF@?$AAU?$AAS?$AAB?$AAH?$AAO?$AAS?$AAT?$AA_?$AAP?$AAR?$AAM?$AA?$AA@| DCB "U"
	DCB	0x0, "S", 0x0, "B", 0x0, "H", 0x0, "O", 0x0, "S", 0x0, "T"
	DCB	0x0, "_", 0x0, "P", 0x0, "R", 0x0, "M", 0x0, 0x0, 0x0 ; `string'

  00000			 AREA	 |.rdata|, DATA, READONLY
|??_C@_1CE@PAIDKKJJ@?$AAP?$AAM?$AA_?$AAP?$AAR?$AAE?$AAP?$AAW?$AAS?$AAT?$AAS?$AAT?$AA_?$AAN?$AAE?$AAO?$AAN?$AA?$AA@| DCB "P"
	DCB	0x0, "M", 0x0, "_", 0x0, "P", 0x0, "R", 0x0, "E", 0x0, "P"
	DCB	0x0, "W", 0x0, "S", 0x0, "T", 0x0, "S", 0x0, "T", 0x0, "_"
	DCB	0x0, "N", 0x0, "E", 0x0, "O", 0x0, "N", 0x0, 0x0, 0x0 ; `string'

  00000			 AREA	 |.rdata|, DATA, READONLY
|??_C@_1BO@FMNCDJII@?$AAP?$AAM?$AA_?$AAP?$AAW?$AAS?$AAT?$AAS?$AAT?$AA_?$AAN?$AAE?$AAO?$AAN?$AA?$AA@| DCB "P"
	DCB	0x0, "M", 0x0, "_", 0x0, "P", 0x0, "W", 0x0, "S", 0x0, "T"
	DCB	0x0, "S", 0x0, "T", 0x0, "_", 0x0, "N", 0x0, "E", 0x0, "O"
	DCB	0x0, "N", 0x0, 0x0, 0x0			; `string'

  00000			 AREA	 |.rdata|, DATA, READONLY
|??_C@_1CC@LCEDCBK@?$AAP?$AAM?$AA_?$AAP?$AAW?$AAS?$AAT?$AAC?$AAT?$AAR?$AAL?$AA_?$AAN?$AAE?$AAO?$AAN?$AA?$AA@| DCB "P"
	DCB	0x0, "M", 0x0, "_", 0x0, "P", 0x0, "W", 0x0, "S", 0x0, "T"
	DCB	0x0, "C", 0x0, "T", 0x0, "R", 0x0, "L", 0x0, "_", 0x0, "N"
	DCB	0x0, "E", 0x0, "O", 0x0, "N", 0x0, 0x0, 0x0 ; `string'

  00000			 AREA	 |.rdata|, DATA, READONLY
|??_C@_1BM@GLAGIPO@?$AAP?$AAM?$AA_?$AAW?$AAK?$AAD?$AAE?$AAP?$AA_?$AAN?$AAE?$AAO?$AAN?$AA?$AA@| DCB "P"
	DCB	0x0, "M", 0x0, "_", 0x0, "W", 0x0, "K", 0x0, "D", 0x0, "E"
	DCB	0x0, "P", 0x0, "_", 0x0, "N", 0x0, "E", 0x0, "O", 0x0, "N"
	DCB	0x0, 0x0, 0x0				; `string'

  00000			 AREA	 |.rdata|, DATA, READONLY
|??_C@_1BM@LBPGJMOK@?$AAR?$AAM?$AA_?$AAR?$AAS?$AAT?$AAS?$AAT?$AA_?$AAN?$AAE?$AAO?$AAN?$AA?$AA@| DCB "R"
	DCB	0x0, "M", 0x0, "_", 0x0, "R", 0x0, "S", 0x0, "T", 0x0, "S"
	DCB	0x0, "T", 0x0, "_", 0x0, "N", 0x0, "E", 0x0, "O", 0x0, "N"
	DCB	0x0, 0x0, 0x0				; `string'

  00000			 AREA	 |.rdata|, DATA, READONLY
|??_C@_1BC@JEBNFJEB@?$AAN?$AAE?$AAO?$AAN?$AA_?$AAP?$AAR?$AAM?$AA?$AA@| DCB "N"
	DCB	0x0, "E", 0x0, "O", 0x0, "N", 0x0, "_", 0x0, "P", 0x0, "R"
	DCB	0x0, "M", 0x0, 0x0, 0x0			; `string'

  00000			 AREA	 |.rdata|, DATA, READONLY
|??_C@_1BO@OOEJDAGP@?$AAP?$AAR?$AAM?$AA_?$AAV?$AAO?$AAL?$AAT?$AAS?$AAE?$AAT?$AAU?$AAP?$AA2?$AA?$AA@| DCB "P"
	DCB	0x0, "R", 0x0, "M", 0x0, "_", 0x0, "V", 0x0, "O", 0x0, "L"
	DCB	0x0, "T", 0x0, "S", 0x0, "E", 0x0, "T", 0x0, "U", 0x0, "P"
	DCB	0x0, "2", 0x0, 0x0, 0x0			; `string'

  00000			 AREA	 |.rdata|, DATA, READONLY
|??_C@_1BI@HHOAEAAO@?$AAP?$AAR?$AAM?$AA_?$AAP?$AAO?$AAL?$AAC?$AAT?$AAR?$AAL?$AA?$AA@| DCB "P"
	DCB	0x0, "R", 0x0, "M", 0x0, "_", 0x0, "P", 0x0, "O", 0x0, "L"
	DCB	0x0, "C", 0x0, "T", 0x0, "R", 0x0, "L", 0x0, 0x0, 0x0 ; `string'

  00000			 AREA	 |.rdata|, DATA, READONLY
|??_C@_1BK@INLANGOK@?$AAP?$AAR?$AAM?$AA_?$AAC?$AAL?$AAK?$AAS?$AAE?$AAT?$AAU?$AAP?$AA?$AA@| DCB "P"
	DCB	0x0, "R", 0x0, "M", 0x0, "_", 0x0, "C", 0x0, "L", 0x0, "K"
	DCB	0x0, "S", 0x0, "E", 0x0, "T", 0x0, "U", 0x0, "P", 0x0, 0x0
	DCB	0x0					; `string'

  00000			 AREA	 |.rdata|, DATA, READONLY
|??_C@_1BO@HNPCCMHL@?$AAP?$AAR?$AAM?$AA_?$AAV?$AAO?$AAL?$AAT?$AAO?$AAF?$AAF?$AAS?$AAE?$AAT?$AA?$AA@| DCB "P"
	DCB	0x0, "R", 0x0, "M", 0x0, "_", 0x0, "V", 0x0, "O", 0x0, "L"
	DCB	0x0, "T", 0x0, "O", 0x0, "F", 0x0, "F", 0x0, "S", 0x0, "E"
	DCB	0x0, "T", 0x0, 0x0, 0x0			; `string'

  00000			 AREA	 |.rdata|, DATA, READONLY
|??_C@_1BO@PMPMJPIB@?$AAP?$AAR?$AAM?$AA_?$AAV?$AAO?$AAL?$AAT?$AAS?$AAE?$AAT?$AAU?$AAP?$AA1?$AA?$AA@| DCB "P"
	DCB	0x0, "R", 0x0, "M", 0x0, "_", 0x0, "V", 0x0, "O", 0x0, "L"
	DCB	0x0, "T", 0x0, "S", 0x0, "E", 0x0, "T", 0x0, "U", 0x0, "P"
	DCB	0x0, "1", 0x0, 0x0, 0x0			; `string'

  00000			 AREA	 |.rdata|, DATA, READONLY
|??_C@_1BA@JADOMDEP@?$AAP?$AAR?$AAM?$AA_?$AAO?$AAB?$AAS?$AA?$AA@| DCB "P", 0x0
	DCB	"R", 0x0, "M", 0x0, "_", 0x0, "O", 0x0, "B", 0x0, "S", 0x0
	DCB	0x0, 0x0				; `string'

  00000			 AREA	 |.rdata|, DATA, READONLY
|??_C@_1CA@DKBCEFNM@?$AAP?$AAR?$AAM?$AA_?$AAC?$AAL?$AAK?$AAS?$AAR?$AAC?$AA_?$AAC?$AAT?$AAR?$AAL?$AA?$AA@| DCB "P"
	DCB	0x0, "R", 0x0, "M", 0x0, "_", 0x0, "C", 0x0, "L", 0x0, "K"
	DCB	0x0, "S", 0x0, "R", 0x0, "C", 0x0, "_", 0x0, "C", 0x0, "T"
	DCB	0x0, "R", 0x0, "L", 0x0, 0x0, 0x0	; `string'

  00000			 AREA	 |.rdata|, DATA, READONLY
|??_C@_1CC@PEAEBONP@?$AAP?$AAR?$AAM?$AA_?$AAS?$AAR?$AAA?$AAM?$AA_?$AAP?$AAC?$AAH?$AAA?$AAR?$AAG?$AAE?$AA?$AA@| DCB "P"
	DCB	0x0, "R", 0x0, "M", 0x0, "_", 0x0, "S", 0x0, "R", 0x0, "A"
	DCB	0x0, "M", 0x0, "_", 0x0, "P", 0x0, "C", 0x0, "H", 0x0, "A"
	DCB	0x0, "R", 0x0, "G", 0x0, "E", 0x0, 0x0, 0x0 ; `string'

  00000			 AREA	 |.rdata|, DATA, READONLY
|??_C@_1BK@HFKALEHA@?$AAP?$AAR?$AAM?$AA_?$AAV?$AAO?$AAL?$AAT?$AAC?$AAT?$AAR?$AAL?$AA?$AA@| DCB "P"
	DCB	0x0, "R", 0x0, "M", 0x0, "_", 0x0, "V", 0x0, "O", 0x0, "L"
	DCB	0x0, "T", 0x0, "C", 0x0, "T", 0x0, "R", 0x0, "L", 0x0, 0x0
	DCB	0x0					; `string'

  00000			 AREA	 |.rdata|, DATA, READONLY
|??_C@_1BE@HPDPAFDK@?$AAP?$AAR?$AAM?$AA_?$AAR?$AAS?$AAT?$AAS?$AAT?$AA?$AA@| DCB "P"
	DCB	0x0, "R", 0x0, "M", 0x0, "_", 0x0, "R", 0x0, "S", 0x0, "T"
	DCB	0x0, "S", 0x0, "T", 0x0, 0x0, 0x0	; `string'

  00000			 AREA	 |.rdata|, DATA, READONLY
|??_C@_1BI@BLFHBCIB@?$AAP?$AAR?$AAM?$AA_?$AAR?$AAS?$AAT?$AAT?$AAI?$AAM?$AAE?$AA?$AA@| DCB "P"
	DCB	0x0, "R", 0x0, "M", 0x0, "_", 0x0, "R", 0x0, "S", 0x0, "T"
	DCB	0x0, "T", 0x0, "I", 0x0, "M", 0x0, "E", 0x0, 0x0, 0x0 ; `string'

  00000			 AREA	 |.rdata|, DATA, READONLY
|??_C@_1BI@LGBDFDCO@?$AAP?$AAR?$AAM?$AA_?$AAR?$AAS?$AAT?$AAC?$AAT?$AAR?$AAL?$AA?$AA@| DCB "P"
	DCB	0x0, "R", 0x0, "M", 0x0, "_", 0x0, "R", 0x0, "S", 0x0, "T"
	DCB	0x0, "C", 0x0, "T", 0x0, "R", 0x0, "L", 0x0, 0x0, 0x0 ; `string'

  00000			 AREA	 |.rdata|, DATA, READONLY
|??_C@_1CE@LCNFDOGA@?$AAP?$AAR?$AAM?$AA_?$AAV?$AAC?$AA_?$AAB?$AAY?$AAP?$AAA?$AAS?$AAS?$AA_?$AAV?$AAA?$AAL?$AA?$AA@| DCB "P"
	DCB	0x0, "R", 0x0, "M", 0x0, "_", 0x0, "V", 0x0, "C", 0x0, "_"
	DCB	0x0, "B", 0x0, "Y", 0x0, "P", 0x0, "A", 0x0, "S", 0x0, "S"
	DCB	0x0, "_", 0x0, "V", 0x0, "A", 0x0, "L", 0x0, 0x0, 0x0 ; `string'

  00000			 AREA	 |.rdata|, DATA, READONLY
|??_C@_1BO@CDICEJPF@?$AAP?$AAR?$AAM?$AA_?$AAV?$AAC?$AA_?$AAI?$AA2?$AAC?$AA_?$AAC?$AAF?$AAG?$AA?$AA@| DCB "P"
	DCB	0x0, "R", 0x0, "M", 0x0, "_", 0x0, "V", 0x0, "C", 0x0, "_"
	DCB	0x0, "I", 0x0, "2", 0x0, "C", 0x0, "_", 0x0, "C", 0x0, "F"
	DCB	0x0, "G", 0x0, 0x0, 0x0			; `string'

  00000			 AREA	 |.rdata|, DATA, READONLY
|??_C@_1BO@NIKJKLFL@?$AAP?$AAR?$AAM?$AA_?$AAV?$AAC?$AA_?$AAC?$AAH?$AA_?$AAC?$AAO?$AAN?$AAF?$AA?$AA@| DCB "P"
	DCB	0x0, "R", 0x0, "M", 0x0, "_", 0x0, "V", 0x0, "C", 0x0, "_"
	DCB	0x0, "C", 0x0, "H", 0x0, "_", 0x0, "C", 0x0, "O", 0x0, "N"
	DCB	0x0, "F", 0x0, 0x0, 0x0			; `string'

  00000			 AREA	 |.rdata|, DATA, READONLY
|??_C@_1CC@GOJIALCP@?$AAP?$AAR?$AAM?$AA_?$AAV?$AAC?$AA_?$AAC?$AAM?$AAD?$AA_?$AAV?$AAA?$AAL?$AA_?$AA1?$AA?$AA@| DCB "P"
	DCB	0x0, "R", 0x0, "M", 0x0, "_", 0x0, "V", 0x0, "C", 0x0, "_"
	DCB	0x0, "C", 0x0, "M", 0x0, "D", 0x0, "_", 0x0, "V", 0x0, "A"
	DCB	0x0, "L", 0x0, "_", 0x0, "1", 0x0, 0x0, 0x0 ; `string'

  00000			 AREA	 |.rdata|, DATA, READONLY
|??_C@_1CC@NGCEGMEK@?$AAP?$AAR?$AAM?$AA_?$AAV?$AAC?$AA_?$AAC?$AAM?$AAD?$AA_?$AAV?$AAA?$AAL?$AA_?$AA0?$AA?$AA@| DCB "P"
	DCB	0x0, "R", 0x0, "M", 0x0, "_", 0x0, "V", 0x0, "C", 0x0, "_"
	DCB	0x0, "C", 0x0, "M", 0x0, "D", 0x0, "_", 0x0, "V", 0x0, "A"
	DCB	0x0, "L", 0x0, "_", 0x0, "0", 0x0, 0x0, 0x0 ; `string'

  00000			 AREA	 |.rdata|, DATA, READONLY
|??_C@_1CG@PFFOICKB@?$AAP?$AAR?$AAM?$AA_?$AAV?$AAC?$AA_?$AAS?$AAM?$AAP?$AAS?$AA_?$AAC?$AAM?$AAD?$AA_?$AAR?$AAA?$AA?$AA@| DCB "P"
	DCB	0x0, "R", 0x0, "M", 0x0, "_", 0x0, "V", 0x0, "C", 0x0, "_"
	DCB	0x0, "S", 0x0, "M", 0x0, "P", 0x0, "S", 0x0, "_", 0x0, "C"
	DCB	0x0, "M", 0x0, "D", 0x0, "_", 0x0, "R", 0x0, "A", 0x0, 0x0
	DCB	0x0					; `string'

  00000			 AREA	 |.rdata|, DATA, READONLY
|??_C@_1CG@OIKDAOML@?$AAP?$AAR?$AAM?$AA_?$AAV?$AAC?$AA_?$AAS?$AAM?$AAP?$AAS?$AA_?$AAV?$AAO?$AAL?$AA_?$AAR?$AAA?$AA?$AA@| DCB "P"
	DCB	0x0, "R", 0x0, "M", 0x0, "_", 0x0, "V", 0x0, "C", 0x0, "_"
	DCB	0x0, "S", 0x0, "M", 0x0, "P", 0x0, "S", 0x0, "_", 0x0, "V"
	DCB	0x0, "O", 0x0, "L", 0x0, "_", 0x0, "R", 0x0, "A", 0x0, 0x0
	DCB	0x0					; `string'

  00000			 AREA	 |.rdata|, DATA, READONLY
|??_C@_1BO@LBDDPNOG@?$AAP?$AAR?$AAM?$AA_?$AAV?$AAC?$AA_?$AAS?$AAM?$AAP?$AAS?$AA_?$AAS?$AAA?$AA?$AA@| DCB "P"
	DCB	0x0, "R", 0x0, "M", 0x0, "_", 0x0, "V", 0x0, "C", 0x0, "_"
	DCB	0x0, "S", 0x0, "M", 0x0, "P", 0x0, "S", 0x0, "_", 0x0, "S"
	DCB	0x0, "A", 0x0, 0x0, 0x0			; `string'

  00000			 AREA	 |.rdata|, DATA, READONLY
|??_C@_1BO@CAKCDBHG@?$AAG?$AAl?$AAo?$AAb?$AAa?$AAl?$AA_?$AAR?$AAe?$AAg?$AA_?$AAP?$AAR?$AAM?$AA?$AA@| DCB "G"
	DCB	0x0, "l", 0x0, "o", 0x0, "b", 0x0, "a", 0x0, "l", 0x0, "_"
	DCB	0x0, "R", 0x0, "e", 0x0, "g", 0x0, "_", 0x0, "P", 0x0, "R"
	DCB	0x0, "M", 0x0, 0x0, 0x0			; `string'

  00000			 AREA	 |.rdata|, DATA, READONLY
|??_C@_1BM@NIBECDJF@?$AAP?$AAM?$AA_?$AAP?$AAW?$AAS?$AAT?$AAS?$AAT?$AA_?$AAE?$AAM?$AAU?$AA?$AA@| DCB "P"
	DCB	0x0, "M", 0x0, "_", 0x0, "P", 0x0, "W", 0x0, "S", 0x0, "T"
	DCB	0x0, "S", 0x0, "T", 0x0, "_", 0x0, "E", 0x0, "M", 0x0, "U"
	DCB	0x0, 0x0, 0x0				; `string'

  00000			 AREA	 |.rdata|, DATA, READONLY
|??_C@_1BK@PHFAAKFB@?$AAR?$AAM?$AA_?$AAR?$AAS?$AAT?$AAS?$AAT?$AA_?$AAE?$AAM?$AAU?$AA?$AA@| DCB "R"
	DCB	0x0, "M", 0x0, "_", 0x0, "R", 0x0, "S", 0x0, "T", 0x0, "S"
	DCB	0x0, "T", 0x0, "_", 0x0, "E", 0x0, "M", 0x0, "U", 0x0, 0x0
	DCB	0x0					; `string'

  00000			 AREA	 |.rdata|, DATA, READONLY
|??_C@_1BA@CAPJDCOP@?$AAE?$AAM?$AAU?$AA_?$AAP?$AAR?$AAM?$AA?$AA@| DCB "E", 0x0
	DCB	"M", 0x0, "U", 0x0, "_", 0x0, "P", 0x0, "R", 0x0, "M", 0x0
	DCB	0x0, 0x0				; `string'

  00000			 AREA	 |.rdata|, DATA, READONLY
|??_C@_1CC@EPBJKNIO@?$AAP?$AAM?$AA_?$AAP?$AAR?$AAE?$AAP?$AAW?$AAS?$AAT?$AAS?$AAT?$AA_?$AAP?$AAE?$AAR?$AA?$AA@| DCB "P"
	DCB	0x0, "M", 0x0, "_", 0x0, "P", 0x0, "R", 0x0, "E", 0x0, "P"
	DCB	0x0, "W", 0x0, "S", 0x0, "T", 0x0, "S", 0x0, "T", 0x0, "_"
	DCB	0x0, "P", 0x0, "E", 0x0, "R", 0x0, 0x0, 0x0 ; `string'

  00000			 AREA	 |.rdata|, DATA, READONLY
|??_C@_1BM@JNMLKGAO@?$AAP?$AAM?$AA_?$AAP?$AAW?$AAS?$AAT?$AAS?$AAT?$AA_?$AAP?$AAE?$AAR?$AA?$AA@| DCB "P"
	DCB	0x0, "M", 0x0, "_", 0x0, "P", 0x0, "W", 0x0, "S", 0x0, "T"
	DCB	0x0, "S", 0x0, "T", 0x0, "_", 0x0, "P", 0x0, "E", 0x0, "R"
	DCB	0x0, 0x0, 0x0				; `string'

  00000			 AREA	 |.rdata|, DATA, READONLY
|??_C@_1CA@EHOJHBAJ@?$AAP?$AAM?$AA_?$AAP?$AAW?$AAS?$AAT?$AAC?$AAT?$AAR?$AAL?$AA_?$AAP?$AAE?$AAR?$AA?$AA@| DCB "P"
	DCB	0x0, "M", 0x0, "_", 0x0, "P", 0x0, "W", 0x0, "S", 0x0, "T"
	DCB	0x0, "C", 0x0, "T", 0x0, "R", 0x0, "L", 0x0, "_", 0x0, "P"
	DCB	0x0, "E", 0x0, "R", 0x0, 0x0, 0x0	; `string'

  00000			 AREA	 |.rdata|, DATA, READONLY
|??_C@_1BK@MOOMJEJF@?$AAP?$AAM?$AA_?$AAW?$AAK?$AAD?$AAE?$AAP?$AA_?$AAP?$AAE?$AAR?$AA?$AA@| DCB "P"
	DCB	0x0, "M", 0x0, "_", 0x0, "W", 0x0, "K", 0x0, "D", 0x0, "E"
	DCB	0x0, "P", 0x0, "_", 0x0, "P", 0x0, "E", 0x0, "R", 0x0, 0x0
	DCB	0x0					; `string'

  00000			 AREA	 |.rdata|, DATA, READONLY
|??_C@_1BI@NCLGDPNJ@?$AAP?$AAM?$AA_?$AAW?$AAK?$AAS?$AAT?$AA_?$AAP?$AAE?$AAR?$AA?$AA@| DCB "P"
	DCB	0x0, "M", 0x0, "_", 0x0, "W", 0x0, "K", 0x0, "S", 0x0, "T"
	DCB	0x0, "_", 0x0, "P", 0x0, "E", 0x0, "R", 0x0, 0x0, 0x0 ; `string'

  00000			 AREA	 |.rdata|, DATA, READONLY
|??_C@_1CE@KJGLJLDH@?$AAP?$AAM?$AA_?$AAI?$AAV?$AAA?$AA2?$AAG?$AAR?$AAP?$AAS?$AAE?$AAL?$AA_?$AAP?$AAE?$AAR?$AA?$AA@| DCB "P"
	DCB	0x0, "M", 0x0, "_", 0x0, "I", 0x0, "V", 0x0, "A", 0x0, "2"
	DCB	0x0, "G", 0x0, "R", 0x0, "P", 0x0, "S", 0x0, "E", 0x0, "L"
	DCB	0x0, "_", 0x0, "P", 0x0, "E", 0x0, "R", 0x0, 0x0, 0x0 ; `string'

  00000			 AREA	 |.rdata|, DATA, READONLY
|??_C@_1CC@FABFMEFM@?$AAP?$AAM?$AA_?$AAM?$AAP?$AAU?$AAG?$AAR?$AAP?$AAS?$AAE?$AAL?$AA_?$AAP?$AAE?$AAR?$AA?$AA@| DCB "P"
	DCB	0x0, "M", 0x0, "_", 0x0, "M", 0x0, "P", 0x0, "U", 0x0, "G"
	DCB	0x0, "R", 0x0, "P", 0x0, "S", 0x0, "E", 0x0, "L", 0x0, "_"
	DCB	0x0, "P", 0x0, "E", 0x0, "R", 0x0, 0x0, 0x0 ; `string'

  00000			 AREA	 |.rdata|, DATA, READONLY
|??_C@_1BI@KKOJENJO@?$AAP?$AAM?$AA_?$AAW?$AAK?$AAE?$AAN?$AA_?$AAP?$AAE?$AAR?$AA?$AA@| DCB "P"
	DCB	0x0, "M", 0x0, "_", 0x0, "W", 0x0, "K", 0x0, "E", 0x0, "N"
	DCB	0x0, "_", 0x0, "P", 0x0, "E", 0x0, "R", 0x0, 0x0, 0x0 ; `string'

  00000			 AREA	 |.rdata|, DATA, READONLY
|??_C@_1BK@LCIPIPMK@?$AAR?$AAM?$AA_?$AAR?$AAS?$AAT?$AAS?$AAT?$AA_?$AAP?$AAE?$AAR?$AA?$AA@| DCB "R"
	DCB	0x0, "M", 0x0, "_", 0x0, "R", 0x0, "S", 0x0, "T", 0x0, "S"
	DCB	0x0, "T", 0x0, "_", 0x0, "P", 0x0, "E", 0x0, "R", 0x0, 0x0
	DCB	0x0					; `string'

  00000			 AREA	 |.rdata|, DATA, READONLY
|??_C@_1BA@PLEGCGNO@?$AAP?$AAE?$AAR?$AA_?$AAP?$AAR?$AAM?$AA?$AA@| DCB "P", 0x0
	DCB	"E", 0x0, "R", 0x0, "_", 0x0, "P", 0x0, "R", 0x0, "M", 0x0
	DCB	0x0, 0x0				; `string'

  00000			 AREA	 |.rdata|, DATA, READONLY
|??_C@_1CC@COMGJOJJ@?$AAP?$AAM?$AA_?$AAP?$AAR?$AAE?$AAP?$AAW?$AAS?$AAT?$AAS?$AAT?$AA_?$AAC?$AAA?$AAM?$AA?$AA@| DCB "P"
	DCB	0x0, "M", 0x0, "_", 0x0, "P", 0x0, "R", 0x0, "E", 0x0, "P"
	DCB	0x0, "W", 0x0, "S", 0x0, "T", 0x0, "S", 0x0, "T", 0x0, "_"
	DCB	0x0, "C", 0x0, "A", 0x0, "M", 0x0, 0x0, 0x0 ; `string'

  00000			 AREA	 |.rdata|, DATA, READONLY
|??_C@_1BM@PMBEJFBJ@?$AAP?$AAM?$AA_?$AAP?$AAW?$AAS?$AAT?$AAS?$AAT?$AA_?$AAC?$AAA?$AAM?$AA?$AA@| DCB "P"
	DCB	0x0, "M", 0x0, "_", 0x0, "P", 0x0, "W", 0x0, "S", 0x0, "T"
	DCB	0x0, "S", 0x0, "T", 0x0, "_", 0x0, "C", 0x0, "A", 0x0, "M"
	DCB	0x0, 0x0, 0x0				; `string'

  00000			 AREA	 |.rdata|, DATA, READONLY
|??_C@_1CA@CGDGECBO@?$AAP?$AAM?$AA_?$AAP?$AAW?$AAS?$AAT?$AAC?$AAT?$AAR?$AAL?$AA_?$AAC?$AAA?$AAM?$AA?$AA@| DCB "P"
	DCB	0x0, "M", 0x0, "_", 0x0, "P", 0x0, "W", 0x0, "S", 0x0, "T"
	DCB	0x0, "C", 0x0, "T", 0x0, "R", 0x0, "L", 0x0, "_", 0x0, "C"
	DCB	0x0, "A", 0x0, "M", 0x0, 0x0, 0x0	; `string'

  00000			 AREA	 |.rdata|, DATA, READONLY
|??_C@_1BK@KPDDKHIC@?$AAP?$AAM?$AA_?$AAW?$AAK?$AAD?$AAE?$AAP?$AA_?$AAC?$AAA?$AAM?$AA?$AA@| DCB "P"
	DCB	0x0, "M", 0x0, "_", 0x0, "W", 0x0, "K", 0x0, "D", 0x0, "E"
	DCB	0x0, "P", 0x0, "_", 0x0, "C", 0x0, "A", 0x0, "M", 0x0, 0x0
	DCB	0x0					; `string'

  00000			 AREA	 |.rdata|, DATA, READONLY
|??_C@_1BK@NDFALMNN@?$AAR?$AAM?$AA_?$AAR?$AAS?$AAT?$AAS?$AAT?$AA_?$AAC?$AAA?$AAM?$AA?$AA@| DCB "R"
	DCB	0x0, "M", 0x0, "_", 0x0, "R", 0x0, "S", 0x0, "T", 0x0, "S"
	DCB	0x0, "T", 0x0, "_", 0x0, "C", 0x0, "A", 0x0, "M", 0x0, 0x0
	DCB	0x0					; `string'

  00000			 AREA	 |.rdata|, DATA, READONLY
|??_C@_1BA@FDIJFBCE@?$AAC?$AAA?$AAM?$AA_?$AAP?$AAR?$AAM?$AA?$AA@| DCB "C", 0x0
	DCB	"A", 0x0, "M", 0x0, "_", 0x0, "P", 0x0, "R", 0x0, "M", 0x0
	DCB	0x0, 0x0				; `string'

  00000			 AREA	 |.rdata|, DATA, READONLY
|??_C@_1CC@NKNLBELM@?$AAP?$AAM?$AA_?$AAP?$AAR?$AAE?$AAP?$AAW?$AAS?$AAT?$AAS?$AAT?$AA_?$AAD?$AAS?$AAS?$AA?$AA@| DCB "P"
	DCB	0x0, "M", 0x0, "_", 0x0, "P", 0x0, "R", 0x0, "E", 0x0, "P"
	DCB	0x0, "W", 0x0, "S", 0x0, "T", 0x0, "S", 0x0, "T", 0x0, "_"
	DCB	0x0, "D", 0x0, "S", 0x0, "S", 0x0, 0x0, 0x0 ; `string'

  00000			 AREA	 |.rdata|, DATA, READONLY
|??_C@_1BM@IAJBPDM@?$AAP?$AAM?$AA_?$AAP?$AAW?$AAS?$AAT?$AAS?$AAT?$AA_?$AAD?$AAS?$AAS?$AA?$AA@| DCB "P"
	DCB	0x0, "M", 0x0, "_", 0x0, "P", 0x0, "W", 0x0, "S", 0x0, "T"
	DCB	0x0, "S", 0x0, "T", 0x0, "_", 0x0, "D", 0x0, "S", 0x0, "S"
	DCB	0x0, 0x0, 0x0				; `string'

  00000			 AREA	 |.rdata|, DATA, READONLY
|??_C@_1CA@NCCLMIDL@?$AAP?$AAM?$AA_?$AAP?$AAW?$AAS?$AAT?$AAC?$AAT?$AAR?$AAL?$AA_?$AAD?$AAS?$AAS?$AA?$AA@| DCB "P"
	DCB	0x0, "M", 0x0, "_", 0x0, "P", 0x0, "W", 0x0, "S", 0x0, "T"
	DCB	0x0, "C", 0x0, "T", 0x0, "R", 0x0, "L", 0x0, "_", 0x0, "D"
	DCB	0x0, "S", 0x0, "S", 0x0, 0x0, 0x0	; `string'

  00000			 AREA	 |.rdata|, DATA, READONLY
|??_C@_1BK@FLCOCNKH@?$AAP?$AAM?$AA_?$AAW?$AAK?$AAD?$AAE?$AAP?$AA_?$AAD?$AAS?$AAS?$AA?$AA@| DCB "P"
	DCB	0x0, "M", 0x0, "_", 0x0, "W", 0x0, "K", 0x0, "D", 0x0, "E"
	DCB	0x0, "P", 0x0, "_", 0x0, "D", 0x0, "S", 0x0, "S", 0x0, 0x0
	DCB	0x0					; `string'

  00000			 AREA	 |.rdata|, DATA, READONLY
|??_C@_1BI@DPCLPEKM@?$AAP?$AAM?$AA_?$AAW?$AAK?$AAE?$AAN?$AA_?$AAD?$AAS?$AAS?$AA?$AA@| DCB "P"
	DCB	0x0, "M", 0x0, "_", 0x0, "W", 0x0, "K", 0x0, "E", 0x0, "N"
	DCB	0x0, "_", 0x0, "D", 0x0, "S", 0x0, "S", 0x0, 0x0, 0x0 ; `string'

  00000			 AREA	 |.rdata|, DATA, READONLY
|??_C@_1BK@CHENDGPI@?$AAR?$AAM?$AA_?$AAR?$AAS?$AAT?$AAS?$AAT?$AA_?$AAD?$AAS?$AAS?$AA?$AA@| DCB "R"
	DCB	0x0, "M", 0x0, "_", 0x0, "R", 0x0, "S", 0x0, "T", 0x0, "S"
	DCB	0x0, "T", 0x0, "_", 0x0, "D", 0x0, "S", 0x0, "S", 0x0, 0x0
	DCB	0x0					; `string'

  00000			 AREA	 |.rdata|, DATA, READONLY
|??_C@_1BA@MMIFGPHC@?$AAD?$AAS?$AAS?$AA_?$AAP?$AAR?$AAM?$AA?$AA@| DCB "D", 0x0
	DCB	"S", 0x0, "S", 0x0, "_", 0x0, "P", 0x0, "R", 0x0, "M", 0x0
	DCB	0x0, 0x0				; `string'

  00000			 AREA	 |.rdata|, DATA, READONLY
|??_C@_1CA@PGMOAOBH@?$AAP?$AAR?$AAM?$AA_?$AAC?$AAL?$AAK?$AAO?$AAU?$AAT?$AA_?$AAC?$AAT?$AAR?$AAL?$AA?$AA@| DCB "P"
	DCB	0x0, "R", 0x0, "M", 0x0, "_", 0x0, "C", 0x0, "L", 0x0, "K"
	DCB	0x0, "O", 0x0, "U", 0x0, "T", 0x0, "_", 0x0, "C", 0x0, "T"
	DCB	0x0, "R", 0x0, "L", 0x0, 0x0, 0x0	; `string'

  00000			 AREA	 |.rdata|, DATA, READONLY
|??_C@_1BG@BPBPBGIA@?$AAP?$AAR?$AAM?$AA_?$AAC?$AAL?$AAK?$AAS?$AAE?$AAL?$AA?$AA@| DCB "P"
	DCB	0x0, "R", 0x0, "M", 0x0, "_", 0x0, "C", 0x0, "L", 0x0, "K"
	DCB	0x0, "S", 0x0, "E", 0x0, "L", 0x0, 0x0, 0x0 ; `string'

  00000			 AREA	 |.rdata|, DATA, READONLY
|??_C@_1CM@BOLGGOBJ@?$AAC?$AAl?$AAo?$AAc?$AAk?$AA_?$AAC?$AAo?$AAn?$AAt?$AAr?$AAo?$AAl?$AA_?$AAR?$AAe?$AAg?$AA_?$AAP?$AAR?$AAM?$AA?$AA@| DCB "C"
	DCB	0x0, "l", 0x0, "o", 0x0, "c", 0x0, "k", 0x0, "_", 0x0, "C"
	DCB	0x0, "o", 0x0, "n", 0x0, "t", 0x0, "r", 0x0, "o", 0x0, "l"
	DCB	0x0, "_", 0x0, "R", 0x0, "e", 0x0, "g", 0x0, "_", 0x0, "P"
	DCB	0x0, "R", 0x0, "M", 0x0, 0x0, 0x0	; `string'

  00000			 AREA	 |.rdata|, DATA, READONLY
|??_C@_1BK@MHMCLHIM@?$AAP?$AAM?$AA_?$AAW?$AAK?$AAS?$AAT?$AA_?$AAW?$AAK?$AAU?$AAP?$AA?$AA@| DCB "P"
	DCB	0x0, "M", 0x0, "_", 0x0, "W", 0x0, "K", 0x0, "S", 0x0, "T"
	DCB	0x0, "_", 0x0, "W", 0x0, "K", 0x0, "U", 0x0, "P", 0x0, 0x0
	DCB	0x0					; `string'

  00000			 AREA	 |.rdata|, DATA, READONLY
|??_C@_1CG@NGIEHFMC@?$AAP?$AAM?$AA_?$AAI?$AAV?$AAA?$AA2?$AAG?$AAR?$AAP?$AAS?$AAE?$AAL?$AA_?$AAW?$AAK?$AAU?$AAP?$AA?$AA@| DCB "P"
	DCB	0x0, "M", 0x0, "_", 0x0, "I", 0x0, "V", 0x0, "A", 0x0, "2"
	DCB	0x0, "G", 0x0, "R", 0x0, "P", 0x0, "S", 0x0, "E", 0x0, "L"
	DCB	0x0, "_", 0x0, "W", 0x0, "K", 0x0, "U", 0x0, "P", 0x0, 0x0
	DCB	0x0					; `string'

  00000			 AREA	 |.rdata|, DATA, READONLY
|??_C@_1CE@KLFJHCLF@?$AAP?$AAM?$AA_?$AAM?$AAP?$AAU?$AAG?$AAR?$AAP?$AAS?$AAE?$AAL?$AA_?$AAW?$AAK?$AAU?$AAP?$AA?$AA@| DCB "P"
	DCB	0x0, "M", 0x0, "_", 0x0, "M", 0x0, "P", 0x0, "U", 0x0, "G"
	DCB	0x0, "R", 0x0, "P", 0x0, "S", 0x0, "E", 0x0, "L", 0x0, "_"
	DCB	0x0, "W", 0x0, "K", 0x0, "U", 0x0, "P", 0x0, 0x0, 0x0 ; `string'

  00000			 AREA	 |.rdata|, DATA, READONLY
|??_C@_1BK@MGPBAGAB@?$AAP?$AAM?$AA_?$AAW?$AAK?$AAE?$AAN?$AA_?$AAW?$AAK?$AAU?$AAP?$AA?$AA@| DCB "P"
	DCB	0x0, "M", 0x0, "_", 0x0, "W", 0x0, "K", 0x0, "E", 0x0, "N"
	DCB	0x0, "_", 0x0, "W", 0x0, "K", 0x0, "U", 0x0, "P", 0x0, 0x0
	DCB	0x0					; `string'

  00000			 AREA	 |.rdata|, DATA, READONLY
|??_C@_1BC@DDJDDDAK@?$AAW?$AAK?$AAU?$AAP?$AA_?$AAP?$AAR?$AAM?$AA?$AA@| DCB "W"
	DCB	0x0, "K", 0x0, "U", 0x0, "P", 0x0, "_", 0x0, "P", 0x0, "R"
	DCB	0x0, "M", 0x0, 0x0, 0x0			; `string'

  00000			 AREA	 |.rdata|, DATA, READONLY
|??_C@_1CC@ODODOLAC@?$AAP?$AAM?$AA_?$AAP?$AAR?$AAE?$AAP?$AAW?$AAS?$AAT?$AAS?$AAT?$AA_?$AAS?$AAG?$AAX?$AA?$AA@| DCB "P"
	DCB	0x0, "M", 0x0, "_", 0x0, "P", 0x0, "R", 0x0, "E", 0x0, "P"
	DCB	0x0, "W", 0x0, "S", 0x0, "T", 0x0, "S", 0x0, "T", 0x0, "_"
	DCB	0x0, "S", 0x0, "G", 0x0, "X", 0x0, 0x0, 0x0 ; `string'

  00000			 AREA	 |.rdata|, DATA, READONLY
|??_C@_1BM@DBDBOAIC@?$AAP?$AAM?$AA_?$AAP?$AAW?$AAS?$AAT?$AAS?$AAT?$AA_?$AAS?$AAG?$AAX?$AA?$AA@| DCB "P"
	DCB	0x0, "M", 0x0, "_", 0x0, "P", 0x0, "W", 0x0, "S", 0x0, "T"
	DCB	0x0, "S", 0x0, "T", 0x0, "_", 0x0, "S", 0x0, "G", 0x0, "X"
	DCB	0x0, 0x0, 0x0				; `string'

  00000			 AREA	 |.rdata|, DATA, READONLY
|??_C@_1CA@OLBDDHIF@?$AAP?$AAM?$AA_?$AAP?$AAW?$AAS?$AAT?$AAC?$AAT?$AAR?$AAL?$AA_?$AAS?$AAG?$AAX?$AA?$AA@| DCB "P"
	DCB	0x0, "M", 0x0, "_", 0x0, "P", 0x0, "W", 0x0, "S", 0x0, "T"
	DCB	0x0, "C", 0x0, "T", 0x0, "R", 0x0, "L", 0x0, "_", 0x0, "S"
	DCB	0x0, "G", 0x0, "X", 0x0, 0x0, 0x0	; `string'

  00000			 AREA	 |.rdata|, DATA, READONLY
|??_C@_1BK@GCBGNCBJ@?$AAP?$AAM?$AA_?$AAW?$AAK?$AAD?$AAE?$AAP?$AA_?$AAS?$AAG?$AAX?$AA?$AA@| DCB "P"
	DCB	0x0, "M", 0x0, "_", 0x0, "W", 0x0, "K", 0x0, "D", 0x0, "E"
	DCB	0x0, "P", 0x0, "_", 0x0, "S", 0x0, "G", 0x0, "X", 0x0, 0x0
	DCB	0x0					; `string'

  00000			 AREA	 |.rdata|, DATA, READONLY
|??_C@_1BK@BOHFMJEG@?$AAR?$AAM?$AA_?$AAR?$AAS?$AAT?$AAS?$AAT?$AA_?$AAS?$AAG?$AAX?$AA?$AA@| DCB "R"
	DCB	0x0, "M", 0x0, "_", 0x0, "R", 0x0, "S", 0x0, "T", 0x0, "S"
	DCB	0x0, "T", 0x0, "_", 0x0, "S", 0x0, "G", 0x0, "X", 0x0, 0x0
	DCB	0x0					; `string'

  00000			 AREA	 |.rdata|, DATA, READONLY
|??_C@_1BA@NJNHLOOA@?$AAS?$AAG?$AAX?$AA_?$AAP?$AAR?$AAM?$AA?$AA@| DCB "S", 0x0
	DCB	"G", 0x0, "X", 0x0, "_", 0x0, "P", 0x0, "R", 0x0, "M", 0x0
	DCB	0x0, 0x0				; `string'

  00000			 AREA	 |.rdata|, DATA, READONLY
|??_C@_1CG@JIDDONFN@?$AAP?$AAM?$AA_?$AAM?$AAP?$AAU?$AAG?$AAR?$AAP?$AAS?$AAE?$AAL?$AA3?$AA_?$AAC?$AAO?$AAR?$AAE?$AA?$AA@| DCB "P"
	DCB	0x0, "M", 0x0, "_", 0x0, "M", 0x0, "P", 0x0, "U", 0x0, "G"
	DCB	0x0, "R", 0x0, "P", 0x0, "S", 0x0, "E", 0x0, "L", 0x0, "3"
	DCB	0x0, "_", 0x0, "C", 0x0, "O", 0x0, "R", 0x0, "E", 0x0, 0x0
	DCB	0x0					; `string'

  00000			 AREA	 |.rdata|, DATA, READONLY
|??_C@_1CI@GGCJOKBC@?$AAP?$AAM?$AA_?$AAI?$AAV?$AAA?$AA2?$AAG?$AAR?$AAP?$AAS?$AAE?$AAL?$AA3?$AA_?$AAC?$AAO?$AAR?$AAE?$AA?$AA@| DCB "P"
	DCB	0x0, "M", 0x0, "_", 0x0, "I", 0x0, "V", 0x0, "A", 0x0, "2"
	DCB	0x0, "G", 0x0, "R", 0x0, "P", 0x0, "S", 0x0, "E", 0x0, "L"
	DCB	0x0, "3", 0x0, "_", 0x0, "C", 0x0, "O", 0x0, "R", 0x0, "E"
	DCB	0x0, 0x0, 0x0				; `string'

  00000			 AREA	 |.rdata|, DATA, READONLY
|??_C@_1BM@EPPCFOGM@?$AAP?$AAM?$AA_?$AAW?$AAK?$AAE?$AAN?$AA3?$AA_?$AAC?$AAO?$AAR?$AAE?$AA?$AA@| DCB "P"
	DCB	0x0, "M", 0x0, "_", 0x0, "W", 0x0, "K", 0x0, "E", 0x0, "N"
	DCB	0x0, "3", 0x0, "_", 0x0, "C", 0x0, "O", 0x0, "R", 0x0, "E"
	DCB	0x0, 0x0, 0x0				; `string'

  00000			 AREA	 |.rdata|, DATA, READONLY
|??_C@_1CE@PMPEKLKF@?$AAP?$AAM?$AA_?$AAP?$AAR?$AAE?$AAP?$AAW?$AAS?$AAT?$AAS?$AAT?$AA_?$AAC?$AAO?$AAR?$AAE?$AA?$AA@| DCB "P"
	DCB	0x0, "M", 0x0, "_", 0x0, "P", 0x0, "R", 0x0, "E", 0x0, "P"
	DCB	0x0, "W", 0x0, "S", 0x0, "T", 0x0, "S", 0x0, "T", 0x0, "_"
	DCB	0x0, "C", 0x0, "O", 0x0, "R", 0x0, "E", 0x0, 0x0, 0x0 ; `string'

  00000			 AREA	 |.rdata|, DATA, READONLY
|??_C@_1BO@FAKFDILE@?$AAP?$AAM?$AA_?$AAP?$AAW?$AAS?$AAT?$AAS?$AAT?$AA_?$AAC?$AAO?$AAR?$AAE?$AA?$AA@| DCB "P"
	DCB	0x0, "M", 0x0, "_", 0x0, "P", 0x0, "W", 0x0, "S", 0x0, "T"
	DCB	0x0, "S", 0x0, "T", 0x0, "_", 0x0, "C", 0x0, "O", 0x0, "R"
	DCB	0x0, "E", 0x0, 0x0, 0x0			; `string'

  00000			 AREA	 |.rdata|, DATA, READONLY
|??_C@_1CC@HFDDDCG@?$AAP?$AAM?$AA_?$AAP?$AAW?$AAS?$AAT?$AAC?$AAT?$AAR?$AAL?$AA_?$AAC?$AAO?$AAR?$AAE?$AA?$AA@| DCB "P"
	DCB	0x0, "M", 0x0, "_", 0x0, "P", 0x0, "W", 0x0, "S", 0x0, "T"
	DCB	0x0, "C", 0x0, "T", 0x0, "R", 0x0, "L", 0x0, "_", 0x0, "C"
	DCB	0x0, "O", 0x0, "R", 0x0, "E", 0x0, 0x0, 0x0 ; `string'

  00000			 AREA	 |.rdata|, DATA, READONLY
|??_C@_1BM@HNLJDKED@?$AAP?$AAM?$AA_?$AAW?$AAK?$AAS?$AAT?$AA3?$AA_?$AAC?$AAO?$AAR?$AAE?$AA?$AA@| DCB "P"
	DCB	0x0, "M", 0x0, "_", 0x0, "W", 0x0, "K", 0x0, "S", 0x0, "T"
	DCB	0x0, "3", 0x0, "_", 0x0, "C", 0x0, "O", 0x0, "R", 0x0, "E"
	DCB	0x0, 0x0, 0x0				; `string'

  00000			 AREA	 |.rdata|, DATA, READONLY
|??_C@_1BM@JMNHPOOO@?$AAP?$AAM?$AA_?$AAW?$AAK?$AAS?$AAT?$AA1?$AA_?$AAC?$AAO?$AAR?$AAE?$AA?$AA@| DCB "P"
	DCB	0x0, "M", 0x0, "_", 0x0, "W", 0x0, "K", 0x0, "S", 0x0, "T"
	DCB	0x0, "1", 0x0, "_", 0x0, "C", 0x0, "O", 0x0, "R", 0x0, "E"
	DCB	0x0, 0x0, 0x0				; `string'

  00000			 AREA	 |.rdata|, DATA, READONLY
|??_C@_1CI@IHEHCOLP@?$AAP?$AAM?$AA_?$AAI?$AAV?$AAA?$AA2?$AAG?$AAR?$AAP?$AAS?$AAE?$AAL?$AA1?$AA_?$AAC?$AAO?$AAR?$AAE?$AA?$AA@| DCB "P"
	DCB	0x0, "M", 0x0, "_", 0x0, "I", 0x0, "V", 0x0, "A", 0x0, "2"
	DCB	0x0, "G", 0x0, "R", 0x0, "P", 0x0, "S", 0x0, "E", 0x0, "L"
	DCB	0x0, "1", 0x0, "_", 0x0, "C", 0x0, "O", 0x0, "R", 0x0, "E"
	DCB	0x0, 0x0, 0x0				; `string'

  00000			 AREA	 |.rdata|, DATA, READONLY
|??_C@_1CG@HJFNCJPA@?$AAP?$AAM?$AA_?$AAM?$AAP?$AAU?$AAG?$AAR?$AAP?$AAS?$AAE?$AAL?$AA1?$AA_?$AAC?$AAO?$AAR?$AAE?$AA?$AA@| DCB "P"
	DCB	0x0, "M", 0x0, "_", 0x0, "M", 0x0, "P", 0x0, "U", 0x0, "G"
	DCB	0x0, "R", 0x0, "P", 0x0, "S", 0x0, "E", 0x0, "L", 0x0, "1"
	DCB	0x0, "_", 0x0, "C", 0x0, "O", 0x0, "R", 0x0, "E", 0x0, 0x0
	DCB	0x0					; `string'

  00000			 AREA	 |.rdata|, DATA, READONLY
|??_C@_1BM@KOJMJKMB@?$AAP?$AAM?$AA_?$AAW?$AAK?$AAE?$AAN?$AA1?$AA_?$AAC?$AAO?$AAR?$AAE?$AA?$AA@| DCB "P"
	DCB	0x0, "M", 0x0, "_", 0x0, "W", 0x0, "K", 0x0, "E", 0x0, "N"
	DCB	0x0, "1", 0x0, "_", 0x0, "C", 0x0, "O", 0x0, "R", 0x0, "E"
	DCB	0x0, 0x0, 0x0				; `string'

  00000			 AREA	 |.rdata|, DATA, READONLY
|??_C@_1BM@LNIBJNNG@?$AAR?$AAM?$AA_?$AAR?$AAS?$AAT?$AAS?$AAT?$AA_?$AAC?$AAO?$AAR?$AAE?$AA?$AA@| DCB "R"
	DCB	0x0, "M", 0x0, "_", 0x0, "R", 0x0, "S", 0x0, "T", 0x0, "S"
	DCB	0x0, "T", 0x0, "_", 0x0, "C", 0x0, "O", 0x0, "R", 0x0, "E"
	DCB	0x0, 0x0, 0x0				; `string'

  00000			 AREA	 |.rdata|, DATA, READONLY
|??_C@_1BC@DDNPMELP@?$AAC?$AAO?$AAR?$AAE?$AA_?$AAP?$AAR?$AAM?$AA?$AA@| DCB "C"
	DCB	0x0, "O", 0x0, "R", 0x0, "E", 0x0, "_", 0x0, "P", 0x0, "R"
	DCB	0x0, "M", 0x0, 0x0, 0x0			; `string'

  00000			 AREA	 |.rdata|, DATA, READONLY
|??_C@_1CC@GGGLCCOF@?$AAP?$AAM?$AA_?$AAP?$AAR?$AAE?$AAP?$AAW?$AAS?$AAT?$AAS?$AAT?$AA_?$AAM?$AAP?$AAU?$AA?$AA@| DCB "P"
	DCB	0x0, "M", 0x0, "_", 0x0, "P", 0x0, "R", 0x0, "E", 0x0, "P"
	DCB	0x0, "W", 0x0, "S", 0x0, "T", 0x0, "S", 0x0, "T", 0x0, "_"
	DCB	0x0, "M", 0x0, "P", 0x0, "U", 0x0, 0x0, 0x0 ; `string'

  00000			 AREA	 |.rdata|, DATA, READONLY
|??_C@_1BM@LELJCJGF@?$AAP?$AAM?$AA_?$AAP?$AAW?$AAS?$AAT?$AAS?$AAT?$AA_?$AAM?$AAP?$AAU?$AA?$AA@| DCB "P"
	DCB	0x0, "M", 0x0, "_", 0x0, "P", 0x0, "W", 0x0, "S", 0x0, "T"
	DCB	0x0, "S", 0x0, "T", 0x0, "_", 0x0, "M", 0x0, "P", 0x0, "U"
	DCB	0x0, 0x0, 0x0				; `string'

  00000			 AREA	 |.rdata|, DATA, READONLY
|??_C@_1CA@GOJLPOGC@?$AAP?$AAM?$AA_?$AAP?$AAW?$AAS?$AAT?$AAC?$AAT?$AAR?$AAL?$AA_?$AAM?$AAP?$AAU?$AA?$AA@| DCB "P"
	DCB	0x0, "M", 0x0, "_", 0x0, "P", 0x0, "W", 0x0, "S", 0x0, "T"
	DCB	0x0, "C", 0x0, "T", 0x0, "R", 0x0, "L", 0x0, "_", 0x0, "M"
	DCB	0x0, "P", 0x0, "U", 0x0, 0x0, 0x0	; `string'

  00000			 AREA	 |.rdata|, DATA, READONLY
|??_C@_1CG@EAPFPBNK@?$AAP?$AAM?$AA_?$AAE?$AAV?$AAG?$AAE?$AAN?$AAO?$AAF?$AAF?$AAT?$AAI?$AAM?$AA_?$AAM?$AAP?$AAU?$AA?$AA@| DCB "P"
	DCB	0x0, "M", 0x0, "_", 0x0, "E", 0x0, "V", 0x0, "G", 0x0, "E"
	DCB	0x0, "N", 0x0, "O", 0x0, "F", 0x0, "F", 0x0, "T", 0x0, "I"
	DCB	0x0, "M", 0x0, "_", 0x0, "M", 0x0, "P", 0x0, "U", 0x0, 0x0
	DCB	0x0					; `string'

  00000			 AREA	 |.rdata|, DATA, READONLY
|??_C@_1CE@GDJAJDKH@?$AAP?$AAM?$AA_?$AAE?$AAV?$AAG?$AAE?$AAN?$AAO?$AAN?$AAT?$AAI?$AAM?$AA_?$AAM?$AAP?$AAU?$AA?$AA@| DCB "P"
	DCB	0x0, "M", 0x0, "_", 0x0, "E", 0x0, "V", 0x0, "G", 0x0, "E"
	DCB	0x0, "N", 0x0, "O", 0x0, "N", 0x0, "T", 0x0, "I", 0x0, "M"
	DCB	0x0, "_", 0x0, "M", 0x0, "P", 0x0, "U", 0x0, 0x0, 0x0 ; `string'

  00000			 AREA	 |.rdata|, DATA, READONLY
|??_C@_1CC@MKEFHNLB@?$AAP?$AAM?$AA_?$AAE?$AAV?$AAG?$AAE?$AAN?$AAC?$AAT?$AAR?$AAL?$AA_?$AAM?$AAP?$AAU?$AA?$AA@| DCB "P"
	DCB	0x0, "M", 0x0, "_", 0x0, "E", 0x0, "V", 0x0, "G", 0x0, "E"
	DCB	0x0, "N", 0x0, "C", 0x0, "T", 0x0, "R", 0x0, "L", 0x0, "_"
	DCB	0x0, "M", 0x0, "P", 0x0, "U", 0x0, 0x0, 0x0 ; `string'

  00000			 AREA	 |.rdata|, DATA, READONLY
|??_C@_1BK@OHJOBLPO@?$AAP?$AAM?$AA_?$AAW?$AAK?$AAD?$AAE?$AAP?$AA_?$AAM?$AAP?$AAU?$AA?$AA@| DCB "P"
	DCB	0x0, "M", 0x0, "_", 0x0, "W", 0x0, "K", 0x0, "D", 0x0, "E"
	DCB	0x0, "P", 0x0, "_", 0x0, "M", 0x0, "P", 0x0, "U", 0x0, 0x0
	DCB	0x0					; `string'

  00000			 AREA	 |.rdata|, DATA, READONLY
|??_C@_1BK@JLPNAAKB@?$AAR?$AAM?$AA_?$AAR?$AAS?$AAT?$AAS?$AAT?$AA_?$AAM?$AAP?$AAU?$AA?$AA@| DCB "R"
	DCB	0x0, "M", 0x0, "_", 0x0, "R", 0x0, "S", 0x0, "T", 0x0, "S"
	DCB	0x0, "T", 0x0, "_", 0x0, "M", 0x0, "P", 0x0, "U", 0x0, 0x0
	DCB	0x0					; `string'

  00000			 AREA	 |.rdata|, DATA, READONLY
|??_C@_1BA@ICKCOBJH@?$AAM?$AAP?$AAU?$AA_?$AAP?$AAR?$AAM?$AA?$AA@| DCB "M", 0x0
	DCB	"P", 0x0, "U", 0x0, "_", 0x0, "P", 0x0, "R", 0x0, "M", 0x0
	DCB	0x0, 0x0				; `string'

  00000			 AREA	 |.rdata|, DATA, READONLY
|??_C@_1CE@BEHICOCH@?$AAP?$AAR?$AAM?$AA_?$AAI?$AAR?$AAQ?$AAE?$AAN?$AAA?$AAB?$AAL?$AAE?$AA_?$AAM?$AAP?$AAU?$AA?$AA@| DCB "P"
	DCB	0x0, "R", 0x0, "M", 0x0, "_", 0x0, "I", 0x0, "R", 0x0, "Q"
	DCB	0x0, "E", 0x0, "N", 0x0, "A", 0x0, "B", 0x0, "L", 0x0, "E"
	DCB	0x0, "_", 0x0, "M", 0x0, "P", 0x0, "U", 0x0, 0x0, 0x0 ; `string'

  00000			 AREA	 |.rdata|, DATA, READONLY
|??_C@_1CE@OGNKOJLH@?$AAP?$AAR?$AAM?$AA_?$AAI?$AAR?$AAQ?$AAS?$AAT?$AAA?$AAT?$AAU?$AAS?$AA_?$AAM?$AAP?$AAU?$AA?$AA@| DCB "P"
	DCB	0x0, "R", 0x0, "M", 0x0, "_", 0x0, "I", 0x0, "R", 0x0, "Q"
	DCB	0x0, "S", 0x0, "T", 0x0, "A", 0x0, "T", 0x0, "U", 0x0, "S"
	DCB	0x0, "_", 0x0, "M", 0x0, "P", 0x0, "U", 0x0, 0x0, 0x0 ; `string'

  00000			 AREA	 |.rdata|, DATA, READONLY
|??_C@_1BM@BIKNBGAP@?$AAP?$AAR?$AAM?$AA_?$AAS?$AAY?$AAS?$AAC?$AAO?$AAN?$AAF?$AAI?$AAG?$AA?$AA@| DCB "P"
	DCB	0x0, "R", 0x0, "M", 0x0, "_", 0x0, "S", 0x0, "Y", 0x0, "S"
	DCB	0x0, "C", 0x0, "O", 0x0, "N", 0x0, "F", 0x0, "I", 0x0, "G"
	DCB	0x0, 0x0, 0x0				; `string'

  00000			 AREA	 |.rdata|, DATA, READONLY
|??_C@_1BK@HJNIKPGD@?$AAP?$AAR?$AAM?$AA_?$AAR?$AAE?$AAV?$AAI?$AAS?$AAI?$AAO?$AAN?$AA?$AA@| DCB "P"
	DCB	0x0, "R", 0x0, "M", 0x0, "_", 0x0, "R", 0x0, "E", 0x0, "V"
	DCB	0x0, "I", 0x0, "S", 0x0, "I", 0x0, "O", 0x0, "N", 0x0, 0x0
	DCB	0x0					; `string'

  00000			 AREA	 |.rdata|, DATA, READONLY
|??_C@_1CG@MLMHCLLI@?$AAO?$AAC?$AAP?$AA_?$AAS?$AAy?$AAs?$AAt?$AAe?$AAm?$AA_?$AAR?$AAe?$AAg?$AA_?$AAP?$AAR?$AAM?$AA?$AA@| DCB "O"
	DCB	0x0, "C", 0x0, "P", 0x0, "_", 0x0, "S", 0x0, "y", 0x0, "s"
	DCB	0x0, "t", 0x0, "e", 0x0, "m", 0x0, "_", 0x0, "R", 0x0, "e"
	DCB	0x0, "g", 0x0, "_", 0x0, "P", 0x0, "R", 0x0, "M", 0x0, 0x0
	DCB	0x0					; `string'

  00000			 AREA	 |.rdata|, DATA, READONLY
|??_C@_1CG@LPCHCII@?$AAP?$AAR?$AAM?$AA_?$AAI?$AAR?$AAQ?$AAE?$AAN?$AAA?$AAB?$AAL?$AAE?$AA_?$AAI?$AAV?$AAA?$AA2?$AA?$AA@| DCB "P"
	DCB	0x0, "R", 0x0, "M", 0x0, "_", 0x0, "I", 0x0, "R", 0x0, "Q"
	DCB	0x0, "E", 0x0, "N", 0x0, "A", 0x0, "B", 0x0, "L", 0x0, "E"
	DCB	0x0, "_", 0x0, "I", 0x0, "V", 0x0, "A", 0x0, "2", 0x0, 0x0
	DCB	0x0					; `string'

  00000			 AREA	 |.rdata|, DATA, READONLY
|??_C@_1CG@HPLDFNCD@?$AAP?$AAR?$AAM?$AA_?$AAI?$AAR?$AAQ?$AAS?$AAT?$AAA?$AAT?$AAU?$AAS?$AA_?$AAI?$AAV?$AAA?$AA2?$AA?$AA@| DCB "P"
	DCB	0x0, "R", 0x0, "M", 0x0, "_", 0x0, "I", 0x0, "R", 0x0, "Q"
	DCB	0x0, "S", 0x0, "T", 0x0, "A", 0x0, "T", 0x0, "U", 0x0, "S"
	DCB	0x0, "_", 0x0, "I", 0x0, "V", 0x0, "A", 0x0, "2", 0x0, 0x0
	DCB	0x0					; `string'

  00000			 AREA	 |.rdata|, DATA, READONLY
|??_C@_1CE@PLIIPJHM@?$AAP?$AAM?$AA_?$AAP?$AAR?$AAE?$AAP?$AAW?$AAS?$AAT?$AAS?$AAT?$AA_?$AAI?$AAV?$AAA?$AA2?$AA?$AA@| DCB "P"
	DCB	0x0, "M", 0x0, "_", 0x0, "P", 0x0, "R", 0x0, "E", 0x0, "P"
	DCB	0x0, "W", 0x0, "S", 0x0, "T", 0x0, "S", 0x0, "T", 0x0, "_"
	DCB	0x0, "I", 0x0, "V", 0x0, "A", 0x0, "2", 0x0, 0x0, 0x0 ; `string'

  00000			 AREA	 |.rdata|, DATA, READONLY
|??_C@_1BO@FHNJGKGN@?$AAP?$AAM?$AA_?$AAP?$AAW?$AAS?$AAT?$AAS?$AAT?$AA_?$AAI?$AAV?$AAA?$AA2?$AA?$AA@| DCB "P"
	DCB	0x0, "M", 0x0, "_", 0x0, "P", 0x0, "W", 0x0, "S", 0x0, "T"
	DCB	0x0, "S", 0x0, "T", 0x0, "_", 0x0, "I", 0x0, "V", 0x0, "A"
	DCB	0x0, "2", 0x0, 0x0, 0x0			; `string'

  00000			 AREA	 |.rdata|, DATA, READONLY
|??_C@_1CC@CPGBPP@?$AAP?$AAM?$AA_?$AAP?$AAW?$AAS?$AAT?$AAC?$AAT?$AAR?$AAL?$AA_?$AAI?$AAV?$AAA?$AA2?$AA?$AA@| DCB "P"
	DCB	0x0, "M", 0x0, "_", 0x0, "P", 0x0, "W", 0x0, "S", 0x0, "T"
	DCB	0x0, "C", 0x0, "T", 0x0, "R", 0x0, "L", 0x0, "_", 0x0, "I"
	DCB	0x0, "V", 0x0, "A", 0x0, "2", 0x0, 0x0, 0x0 ; `string'

  00000			 AREA	 |.rdata|, DATA, READONLY
|??_C@_1BM@NLLDLBL@?$AAP?$AAM?$AA_?$AAW?$AAK?$AAD?$AAE?$AAP?$AA_?$AAI?$AAV?$AAA?$AA2?$AA?$AA@| DCB "P"
	DCB	0x0, "M", 0x0, "_", 0x0, "W", 0x0, "K", 0x0, "D", 0x0, "E"
	DCB	0x0, "P", 0x0, "_", 0x0, "I", 0x0, "V", 0x0, "A", 0x0, "2"
	DCB	0x0, 0x0, 0x0				; `string'

  00000			 AREA	 |.rdata|, DATA, READONLY
|??_C@_1BM@LKPNMPAP@?$AAR?$AAM?$AA_?$AAR?$AAS?$AAT?$AAS?$AAT?$AA_?$AAI?$AAV?$AAA?$AA2?$AA?$AA@| DCB "R"
	DCB	0x0, "M", 0x0, "_", 0x0, "R", 0x0, "S", 0x0, "T", 0x0, "S"
	DCB	0x0, "T", 0x0, "_", 0x0, "I", 0x0, "V", 0x0, "A", 0x0, "2"
	DCB	0x0, 0x0, 0x0				; `string'

  00000			 AREA	 |.rdata|, DATA, READONLY
|??_C@_1CA@GBOALOJP@?$AAR?$AAM?$AA_?$AAR?$AAS?$AAT?$AAC?$AAT?$AAR?$AAL?$AA_?$AAI?$AAV?$AAA?$AA2?$AA?$AA@| DCB "R"
	DCB	0x0, "M", 0x0, "_", 0x0, "R", 0x0, "S", 0x0, "T", 0x0, "C"
	DCB	0x0, "T", 0x0, "R", 0x0, "L", 0x0, "_", 0x0, "I", 0x0, "V"
	DCB	0x0, "A", 0x0, "2", 0x0, 0x0, 0x0	; `string'

  00000			 AREA	 |.rdata|, DATA, READONLY
|??_C@_1BC@FAAHEALM@?$AAI?$AAV?$AAA?$AA2?$AA_?$AAP?$AAR?$AAM?$AA?$AA@| DCB "I"
	DCB	0x0, "V", 0x0, "A", 0x0, "2", 0x0, "_", 0x0, "P", 0x0, "R"
	DCB	0x0, "M", 0x0, 0x0, 0x0			; `string'

  00000			 AREA	 |.rdata|, DATA, READONLY
|??_C@_1CG@EKKJOCAI@?$AAC?$AAM?$AA_?$AAC?$AAL?$AAK?$AAS?$AAT?$AAS?$AAT?$AA_?$AAU?$AAS?$AAB?$AAH?$AAO?$AAS?$AAT?$AA?$AA@| DCB "C"
	DCB	0x0, "M", 0x0, "_", 0x0, "C", 0x0, "L", 0x0, "K", 0x0, "S"
	DCB	0x0, "T", 0x0, "S", 0x0, "T", 0x0, "_", 0x0, "U", 0x0, "S"
	DCB	0x0, "B", 0x0, "H", 0x0, "O", 0x0, "S", 0x0, "T", 0x0, 0x0
	DCB	0x0					; `string'

  00000			 AREA	 |.rdata|, DATA, READONLY
|??_C@_1CK@EGBEEDCG@?$AAC?$AAM?$AA_?$AAC?$AAL?$AAK?$AAS?$AAT?$AAC?$AAT?$AAR?$AAL?$AA_?$AAU?$AAS?$AAB?$AAH?$AAO?$AAS?$AAT?$AA?$AA@| DCB "C"
	DCB	0x0, "M", 0x0, "_", 0x0, "C", 0x0, "L", 0x0, "K", 0x0, "S"
	DCB	0x0, "T", 0x0, "C", 0x0, "T", 0x0, "R", 0x0, "L", 0x0, "_"
	DCB	0x0, "U", 0x0, "S", 0x0, "B", 0x0, "H", 0x0, "O", 0x0, "S"
	DCB	0x0, "T", 0x0, 0x0, 0x0			; `string'

  00000			 AREA	 |.rdata|, DATA, READONLY
|??_C@_1CI@GKCHFPIN@?$AAC?$AAM?$AA_?$AAS?$AAL?$AAE?$AAE?$AAP?$AAD?$AAE?$AAP?$AA_?$AAU?$AAS?$AAB?$AAH?$AAO?$AAS?$AAT?$AA?$AA@| DCB "C"
	DCB	0x0, "M", 0x0, "_", 0x0, "S", 0x0, "L", 0x0, "E", 0x0, "E"
	DCB	0x0, "P", 0x0, "D", 0x0, "E", 0x0, "P", 0x0, "_", 0x0, "U"
	DCB	0x0, "S", 0x0, "B", 0x0, "H", 0x0, "O", 0x0, "S", 0x0, "T"
	DCB	0x0, 0x0, 0x0				; `string'

  00000			 AREA	 |.rdata|, DATA, READONLY
|??_C@_1CI@DGALJPCE@?$AAC?$AAM?$AA_?$AAA?$AAU?$AAT?$AAO?$AAI?$AAD?$AAL?$AAE?$AA_?$AAU?$AAS?$AAB?$AAH?$AAO?$AAS?$AAT?$AA?$AA@| DCB "C"
	DCB	0x0, "M", 0x0, "_", 0x0, "A", 0x0, "U", 0x0, "T", 0x0, "O"
	DCB	0x0, "I", 0x0, "D", 0x0, "L", 0x0, "E", 0x0, "_", 0x0, "U"
	DCB	0x0, "S", 0x0, "B", 0x0, "H", 0x0, "O", 0x0, "S", 0x0, "T"
	DCB	0x0, 0x0, 0x0				; `string'

  00000			 AREA	 |.rdata|, DATA, READONLY
|??_C@_1CE@JPANCJP@?$AAC?$AAM?$AA_?$AAI?$AAD?$AAL?$AAE?$AAS?$AAT?$AA_?$AAU?$AAS?$AAB?$AAH?$AAO?$AAS?$AAT?$AA?$AA@| DCB "C"
	DCB	0x0, "M", 0x0, "_", 0x0, "I", 0x0, "D", 0x0, "L", 0x0, "E"
	DCB	0x0, "S", 0x0, "T", 0x0, "_", 0x0, "U", 0x0, "S", 0x0, "B"
	DCB	0x0, "H", 0x0, "O", 0x0, "S", 0x0, "T", 0x0, 0x0, 0x0 ; `string'

  00000			 AREA	 |.rdata|, DATA, READONLY
|??_C@_1CE@DBMFEPI@?$AAC?$AAM?$AA_?$AAI?$AAC?$AAL?$AAK?$AAE?$AAN?$AA_?$AAU?$AAS?$AAB?$AAH?$AAO?$AAS?$AAT?$AA?$AA@| DCB "C"
	DCB	0x0, "M", 0x0, "_", 0x0, "I", 0x0, "C", 0x0, "L", 0x0, "K"
	DCB	0x0, "E", 0x0, "N", 0x0, "_", 0x0, "U", 0x0, "S", 0x0, "B"
	DCB	0x0, "H", 0x0, "O", 0x0, "S", 0x0, "T", 0x0, 0x0, 0x0 ; `string'

  00000			 AREA	 |.rdata|, DATA, READONLY
|??_C@_1CE@IOEIODMB@?$AAC?$AAM?$AA_?$AAF?$AAC?$AAL?$AAK?$AAE?$AAN?$AA_?$AAU?$AAS?$AAB?$AAH?$AAO?$AAS?$AAT?$AA?$AA@| DCB "C"
	DCB	0x0, "M", 0x0, "_", 0x0, "F", 0x0, "C", 0x0, "L", 0x0, "K"
	DCB	0x0, "E", 0x0, "N", 0x0, "_", 0x0, "U", 0x0, "S", 0x0, "B"
	DCB	0x0, "H", 0x0, "O", 0x0, "S", 0x0, "T", 0x0, 0x0, 0x0 ; `string'

  00000			 AREA	 |.rdata|, DATA, READONLY
|??_C@_1BG@GHMGBAHH@?$AAU?$AAS?$AAB?$AAH?$AAO?$AAS?$AAT?$AA_?$AAC?$AAM?$AA?$AA@| DCB "U"
	DCB	0x0, "S", 0x0, "B", 0x0, "H", 0x0, "O", 0x0, "S", 0x0, "T"
	DCB	0x0, "_", 0x0, "C", 0x0, "M", 0x0, 0x0, 0x0 ; `string'

  00000			 AREA	 |.rdata|, DATA, READONLY
|??_C@_1CE@ECPHHBNM@?$AAC?$AAM?$AA_?$AAC?$AAL?$AAK?$AAS?$AAT?$AAC?$AAT?$AAR?$AAL?$AA_?$AAN?$AAE?$AAO?$AAN?$AA?$AA@| DCB "C"
	DCB	0x0, "M", 0x0, "_", 0x0, "C", 0x0, "L", 0x0, "K", 0x0, "S"
	DCB	0x0, "T", 0x0, "C", 0x0, "T", 0x0, "R", 0x0, "L", 0x0, "_"
	DCB	0x0, "N", 0x0, "E", 0x0, "O", 0x0, "N", 0x0, 0x0, 0x0 ; `string'

  00000			 AREA	 |.rdata|, DATA, READONLY
|??_C@_1BO@IJPLNAMK@?$AAC?$AAM?$AA_?$AAI?$AAD?$AAL?$AAE?$AAS?$AAT?$AA_?$AAN?$AAE?$AAO?$AAN?$AA?$AA@| DCB "C"
	DCB	0x0, "M", 0x0, "_", 0x0, "I", 0x0, "D", 0x0, "L", 0x0, "E"
	DCB	0x0, "S", 0x0, "T", 0x0, "_", 0x0, "N", 0x0, "E", 0x0, "O"
	DCB	0x0, "N", 0x0, 0x0, 0x0			; `string'

  00000			 AREA	 |.rdata|, DATA, READONLY
|??_C@_1BA@HGJCCLLN@?$AAN?$AAE?$AAO?$AAN?$AA_?$AAC?$AAM?$AA?$AA@| DCB "N", 0x0
	DCB	"E", 0x0, "O", 0x0, "N", 0x0, "_", 0x0, "C", 0x0, "M", 0x0
	DCB	0x0, 0x0				; `string'

  00000			 AREA	 |.rdata|, DATA, READONLY
|??_C@_1BG@JLGAJAMH@?$AAC?$AAM?$AA_?$AAP?$AAO?$AAL?$AAC?$AAT?$AAR?$AAL?$AA?$AA@| DCB "C"
	DCB	0x0, "M", 0x0, "_", 0x0, "P", 0x0, "O", 0x0, "L", 0x0, "C"
	DCB	0x0, "T", 0x0, "R", 0x0, "L", 0x0, 0x0, 0x0 ; `string'

  00000			 AREA	 |.rdata|, DATA, READONLY
|??_C@_1BM@KLCMOAEB@?$AAG?$AAl?$AAo?$AAb?$AAa?$AAl?$AA_?$AAR?$AAe?$AAg?$AA_?$AAC?$AAM?$AA?$AA@| DCB "G"
	DCB	0x0, "l", 0x0, "o", 0x0, "b", 0x0, "a", 0x0, "l", 0x0, "_"
	DCB	0x0, "R", 0x0, "e", 0x0, "g", 0x0, "_", 0x0, "C", 0x0, "M"
	DCB	0x0, 0x0, 0x0				; `string'

  00000			 AREA	 |.rdata|, DATA, READONLY
|??_C@_1BO@DFKMIPJP@?$AAC?$AAM?$AA_?$AAC?$AAL?$AAK?$AAS?$AAE?$AAL?$AA3?$AA_?$AAE?$AAM?$AAU?$AA?$AA@| DCB "C"
	DCB	0x0, "M", 0x0, "_", 0x0, "C", 0x0, "L", 0x0, "K", 0x0, "S"
	DCB	0x0, "E", 0x0, "L", 0x0, "3", 0x0, "_", 0x0, "E", 0x0, "M"
	DCB	0x0, "U", 0x0, 0x0, 0x0			; `string'

  00000			 AREA	 |.rdata|, DATA, READONLY
|??_C@_1BO@KOAJMDPA@?$AAC?$AAM?$AA_?$AAC?$AAL?$AAK?$AAS?$AAE?$AAL?$AA2?$AA_?$AAE?$AAM?$AAU?$AA?$AA@| DCB "C"
	DCB	0x0, "M", 0x0, "_", 0x0, "C", 0x0, "L", 0x0, "K", 0x0, "S"
	DCB	0x0, "E", 0x0, "L", 0x0, "2", 0x0, "_", 0x0, "E", 0x0, "M"
	DCB	0x0, "U", 0x0, 0x0, 0x0			; `string'

  00000			 AREA	 |.rdata|, DATA, READONLY
|??_C@_1BO@BBAPCNIN@?$AAC?$AAM?$AA_?$AAC?$AAL?$AAK?$AAS?$AAT?$AAS?$AAT?$AA_?$AAE?$AAM?$AAU?$AA?$AA@| DCB "C"
	DCB	0x0, "M", 0x0, "_", 0x0, "C", 0x0, "L", 0x0, "K", 0x0, "S"
	DCB	0x0, "T", 0x0, "S", 0x0, "T", 0x0, "_", 0x0, "E", 0x0, "M"
	DCB	0x0, "U", 0x0, 0x0, 0x0			; `string'

  00000			 AREA	 |.rdata|, DATA, READONLY
|??_C@_1CC@NGILBHGG@?$AAC?$AAM?$AA_?$AAC?$AAL?$AAK?$AAS?$AAT?$AAC?$AAT?$AAR?$AAL?$AA_?$AAE?$AAM?$AAU?$AA?$AA@| DCB "C"
	DCB	0x0, "M", 0x0, "_", 0x0, "C", 0x0, "L", 0x0, "K", 0x0, "S"
	DCB	0x0, "T", 0x0, "C", 0x0, "T", 0x0, "R", 0x0, "L", 0x0, "_"
	DCB	0x0, "E", 0x0, "M", 0x0, "U", 0x0, 0x0, 0x0 ; `string'

  00000			 AREA	 |.rdata|, DATA, READONLY
|??_C@_1BO@NJJHBBAA@?$AAC?$AAM?$AA_?$AAC?$AAL?$AAK?$AAS?$AAE?$AAL?$AA1?$AA_?$AAE?$AAM?$AAU?$AA?$AA@| DCB "C"
	DCB	0x0, "M", 0x0, "_", 0x0, "C", 0x0, "L", 0x0, "K", 0x0, "S"
	DCB	0x0, "E", 0x0, "L", 0x0, "1", 0x0, "_", 0x0, "E", 0x0, "M"
	DCB	0x0, "U", 0x0, 0x0, 0x0			; `string'

  00000			 AREA	 |.rdata|, DATA, READONLY
|??_C@_1O@HGBLPNPO@?$AAE?$AAM?$AAU?$AA_?$AAC?$AAM?$AA?$AA@| DCB "E", 0x0, "M"
	DCB	0x0, "U", 0x0, "_", 0x0, "C", 0x0, "M", 0x0, 0x0, 0x0 ; `string'

  00000			 AREA	 |.rdata|, DATA, READONLY
|??_C@_1BO@FENAKIBG@?$AAC?$AAM?$AA_?$AAC?$AAL?$AAK?$AAS?$AAT?$AAS?$AAT?$AA_?$AAP?$AAE?$AAR?$AA?$AA@| DCB "C"
	DCB	0x0, "M", 0x0, "_", 0x0, "C", 0x0, "L", 0x0, "K", 0x0, "S"
	DCB	0x0, "T", 0x0, "S", 0x0, "T", 0x0, "_", 0x0, "P", 0x0, "E"
	DCB	0x0, "R", 0x0, 0x0, 0x0			; `string'

  00000			 AREA	 |.rdata|, DATA, READONLY
|??_C@_1CC@JDFEJCPN@?$AAC?$AAM?$AA_?$AAC?$AAL?$AAK?$AAS?$AAT?$AAC?$AAT?$AAR?$AAL?$AA_?$AAP?$AAE?$AAR?$AA?$AA@| DCB "C"
	DCB	0x0, "M", 0x0, "_", 0x0, "C", 0x0, "L", 0x0, "K", 0x0, "S"
	DCB	0x0, "T", 0x0, "C", 0x0, "T", 0x0, "R", 0x0, "L", 0x0, "_"
	DCB	0x0, "P", 0x0, "E", 0x0, "R", 0x0, 0x0, 0x0 ; `string'

  00000			 AREA	 |.rdata|, DATA, READONLY
|??_C@_1CA@OCEIBJJL@?$AAC?$AAM?$AA_?$AAS?$AAL?$AAE?$AAE?$AAP?$AAD?$AAE?$AAP?$AA_?$AAP?$AAE?$AAR?$AA?$AA@| DCB "C"
	DCB	0x0, "M", 0x0, "_", 0x0, "S", 0x0, "L", 0x0, "E", 0x0, "E"
	DCB	0x0, "P", 0x0, "D", 0x0, "E", 0x0, "P", 0x0, "_", 0x0, "P"
	DCB	0x0, "E", 0x0, "R", 0x0, 0x0, 0x0	; `string'

  00000			 AREA	 |.rdata|, DATA, READONLY
|??_C@_1BM@JGBOEBBM@?$AAC?$AAM?$AA_?$AAC?$AAL?$AAK?$AAS?$AAE?$AAL?$AA_?$AAP?$AAE?$AAR?$AA?$AA@| DCB "C"
	DCB	0x0, "M", 0x0, "_", 0x0, "C", 0x0, "L", 0x0, "K", 0x0, "S"
	DCB	0x0, "E", 0x0, "L", 0x0, "_", 0x0, "P", 0x0, "E", 0x0, "R"
	DCB	0x0, 0x0, 0x0				; `string'

  00000			 AREA	 |.rdata|, DATA, READONLY
|??_C@_1CA@HEJEIAMO@?$AAC?$AAM?$AA_?$AAA?$AAU?$AAT?$AAO?$AAI?$AAD?$AAL?$AAE?$AA_?$AAP?$AAE?$AAR?$AA?$AA@| DCB "C"
	DCB	0x0, "M", 0x0, "_", 0x0, "A", 0x0, "U", 0x0, "T", 0x0, "O"
	DCB	0x0, "I", 0x0, "D", 0x0, "L", 0x0, "E", 0x0, "_", 0x0, "P"
	DCB	0x0, "E", 0x0, "R", 0x0, 0x0, 0x0	; `string'

  00000			 AREA	 |.rdata|, DATA, READONLY
|??_C@_1BM@FMCKMJOI@?$AAC?$AAM?$AA_?$AAI?$AAD?$AAL?$AAE?$AAS?$AAT?$AA_?$AAP?$AAE?$AAR?$AA?$AA@| DCB "C"
	DCB	0x0, "M", 0x0, "_", 0x0, "I", 0x0, "D", 0x0, "L", 0x0, "E"
	DCB	0x0, "S", 0x0, "T", 0x0, "_", 0x0, "P", 0x0, "E", 0x0, "R"
	DCB	0x0, 0x0, 0x0				; `string'

  00000			 AREA	 |.rdata|, DATA, READONLY
|??_C@_1BM@OFLDOLJH@?$AAC?$AAM?$AA_?$AAI?$AAC?$AAL?$AAK?$AAE?$AAN?$AA_?$AAP?$AAE?$AAR?$AA?$AA@| DCB "C"
	DCB	0x0, "M", 0x0, "_", 0x0, "I", 0x0, "C", 0x0, "L", 0x0, "K"
	DCB	0x0, "E", 0x0, "N", 0x0, "_", 0x0, "P", 0x0, "E", 0x0, "R"
	DCB	0x0, 0x0, 0x0				; `string'

  00000			 AREA	 |.rdata|, DATA, READONLY
|??_C@_1BM@DJCJPDNH@?$AAC?$AAM?$AA_?$AAF?$AAC?$AAL?$AAK?$AAE?$AAN?$AA_?$AAP?$AAE?$AAR?$AA?$AA@| DCB "C"
	DCB	0x0, "M", 0x0, "_", 0x0, "F", 0x0, "C", 0x0, "L", 0x0, "K"
	DCB	0x0, "E", 0x0, "N", 0x0, "_", 0x0, "P", 0x0, "E", 0x0, "R"
	DCB	0x0, 0x0, 0x0				; `string'

  00000			 AREA	 |.rdata|, DATA, READONLY
|??_C@_1O@HANKMCHI@?$AAP?$AAE?$AAR?$AA_?$AAC?$AAM?$AA?$AA@| DCB "P", 0x0, "E"
	DCB	0x0, "R", 0x0, "_", 0x0, "C", 0x0, "M", 0x0, 0x0, 0x0 ; `string'

  00000			 AREA	 |.rdata|, DATA, READONLY
|??_C@_1BO@DFAPJLAB@?$AAC?$AAM?$AA_?$AAC?$AAL?$AAK?$AAS?$AAT?$AAS?$AAT?$AA_?$AAC?$AAA?$AAM?$AA?$AA@| DCB "C"
	DCB	0x0, "M", 0x0, "_", 0x0, "C", 0x0, "L", 0x0, "K", 0x0, "S"
	DCB	0x0, "T", 0x0, "S", 0x0, "T", 0x0, "_", 0x0, "C", 0x0, "A"
	DCB	0x0, "M", 0x0, 0x0, 0x0			; `string'

  00000			 AREA	 |.rdata|, DATA, READONLY
|??_C@_1CC@PCILKBOK@?$AAC?$AAM?$AA_?$AAC?$AAL?$AAK?$AAS?$AAT?$AAC?$AAT?$AAR?$AAL?$AA_?$AAC?$AAA?$AAM?$AA?$AA@| DCB "C"
	DCB	0x0, "M", 0x0, "_", 0x0, "C", 0x0, "L", 0x0, "K", 0x0, "S"
	DCB	0x0, "T", 0x0, "C", 0x0, "T", 0x0, "R", 0x0, "L", 0x0, "_"
	DCB	0x0, "C", 0x0, "A", 0x0, "M", 0x0, 0x0, 0x0 ; `string'

  00000			 AREA	 |.rdata|, DATA, READONLY
|??_C@_1CA@IDJHCKIM@?$AAC?$AAM?$AA_?$AAS?$AAL?$AAE?$AAE?$AAP?$AAD?$AAE?$AAP?$AA_?$AAC?$AAA?$AAM?$AA?$AA@| DCB "C"
	DCB	0x0, "M", 0x0, "_", 0x0, "S", 0x0, "L", 0x0, "E", 0x0, "E"
	DCB	0x0, "P", 0x0, "D", 0x0, "E", 0x0, "P", 0x0, "_", 0x0, "C"
	DCB	0x0, "A", 0x0, "M", 0x0, 0x0, 0x0	; `string'

  00000			 AREA	 |.rdata|, DATA, READONLY
|??_C@_1BM@PHMBHCAL@?$AAC?$AAM?$AA_?$AAC?$AAL?$AAK?$AAS?$AAE?$AAL?$AA_?$AAC?$AAA?$AAM?$AA?$AA@| DCB "C"
	DCB	0x0, "M", 0x0, "_", 0x0, "C", 0x0, "L", 0x0, "K", 0x0, "S"
	DCB	0x0, "E", 0x0, "L", 0x0, "_", 0x0, "C", 0x0, "A", 0x0, "M"
	DCB	0x0, 0x0, 0x0				; `string'

  00000			 AREA	 |.rdata|, DATA, READONLY
|??_C@_1CA@BFELLDNJ@?$AAC?$AAM?$AA_?$AAA?$AAU?$AAT?$AAO?$AAI?$AAD?$AAL?$AAE?$AA_?$AAC?$AAA?$AAM?$AA?$AA@| DCB "C"
	DCB	0x0, "M", 0x0, "_", 0x0, "A", 0x0, "U", 0x0, "T", 0x0, "O"
	DCB	0x0, "I", 0x0, "D", 0x0, "L", 0x0, "E", 0x0, "_", 0x0, "C"
	DCB	0x0, "A", 0x0, "M", 0x0, 0x0, 0x0	; `string'

  00000			 AREA	 |.rdata|, DATA, READONLY
|??_C@_1BM@DNPFPKPP@?$AAC?$AAM?$AA_?$AAI?$AAD?$AAL?$AAE?$AAS?$AAT?$AA_?$AAC?$AAA?$AAM?$AA?$AA@| DCB "C"
	DCB	0x0, "M", 0x0, "_", 0x0, "I", 0x0, "D", 0x0, "L", 0x0, "E"
	DCB	0x0, "S", 0x0, "T", 0x0, "_", 0x0, "C", 0x0, "A", 0x0, "M"
	DCB	0x0, 0x0, 0x0				; `string'

  00000			 AREA	 |.rdata|, DATA, READONLY
|??_C@_1BM@IEGMNIIA@?$AAC?$AAM?$AA_?$AAI?$AAC?$AAL?$AAK?$AAE?$AAN?$AA_?$AAC?$AAA?$AAM?$AA?$AA@| DCB "C"
	DCB	0x0, "M", 0x0, "_", 0x0, "I", 0x0, "C", 0x0, "L", 0x0, "K"
	DCB	0x0, "E", 0x0, "N", 0x0, "_", 0x0, "C", 0x0, "A", 0x0, "M"
	DCB	0x0, 0x0, 0x0				; `string'

  00000			 AREA	 |.rdata|, DATA, READONLY
|??_C@_1BM@FIPGMAMA@?$AAC?$AAM?$AA_?$AAF?$AAC?$AAL?$AAK?$AAE?$AAN?$AA_?$AAC?$AAA?$AAM?$AA?$AA@| DCB "C"
	DCB	0x0, "M", 0x0, "_", 0x0, "F", 0x0, "C", 0x0, "L", 0x0, "K"
	DCB	0x0, "E", 0x0, "N", 0x0, "_", 0x0, "C", 0x0, "A", 0x0, "M"
	DCB	0x0, 0x0, 0x0				; `string'

  00000			 AREA	 |.rdata|, DATA, READONLY
|??_C@_1O@LPKKDKNF@?$AAC?$AAA?$AAM?$AA_?$AAC?$AAM?$AA?$AA@| DCB "C", 0x0, "A"
	DCB	0x0, "M", 0x0, "_", 0x0, "C", 0x0, "M", 0x0, 0x0, 0x0 ; `string'

  00000			 AREA	 |.rdata|, DATA, READONLY
|??_C@_1BO@MBBCBBCE@?$AAC?$AAM?$AA_?$AAC?$AAL?$AAK?$AAS?$AAT?$AAS?$AAT?$AA_?$AAD?$AAS?$AAS?$AA?$AA@| DCB "C"
	DCB	0x0, "M", 0x0, "_", 0x0, "C", 0x0, "L", 0x0, "K", 0x0, "S"
	DCB	0x0, "T", 0x0, "S", 0x0, "T", 0x0, "_", 0x0, "D", 0x0, "S"
	DCB	0x0, "S", 0x0, 0x0, 0x0			; `string'

  00000			 AREA	 |.rdata|, DATA, READONLY
|??_C@_1CC@GJGCLMP@?$AAC?$AAM?$AA_?$AAC?$AAL?$AAK?$AAS?$AAT?$AAC?$AAT?$AAR?$AAL?$AA_?$AAD?$AAS?$AAS?$AA?$AA@| DCB "C"
	DCB	0x0, "M", 0x0, "_", 0x0, "C", 0x0, "L", 0x0, "K", 0x0, "S"
	DCB	0x0, "T", 0x0, "C", 0x0, "T", 0x0, "R", 0x0, "L", 0x0, "_"
	DCB	0x0, "D", 0x0, "S", 0x0, "S", 0x0, 0x0, 0x0 ; `string'

  00000			 AREA	 |.rdata|, DATA, READONLY
|??_C@_1CA@HHIKKAKJ@?$AAC?$AAM?$AA_?$AAS?$AAL?$AAE?$AAE?$AAP?$AAD?$AAE?$AAP?$AA_?$AAD?$AAS?$AAS?$AA?$AA@| DCB "C"
	DCB	0x0, "M", 0x0, "_", 0x0, "S", 0x0, "L", 0x0, "E", 0x0, "E"
	DCB	0x0, "P", 0x0, "D", 0x0, "E", 0x0, "P", 0x0, "_", 0x0, "D"
	DCB	0x0, "S", 0x0, "S", 0x0, 0x0, 0x0	; `string'

  00000			 AREA	 |.rdata|, DATA, READONLY
|??_C@_1BM@DNMPICO@?$AAC?$AAM?$AA_?$AAC?$AAL?$AAK?$AAS?$AAE?$AAL?$AA_?$AAD?$AAS?$AAS?$AA?$AA@| DCB "C"
	DCB	0x0, "M", 0x0, "_", 0x0, "C", 0x0, "L", 0x0, "K", 0x0, "S"
	DCB	0x0, "E", 0x0, "L", 0x0, "_", 0x0, "D", 0x0, "S", 0x0, "S"
	DCB	0x0, 0x0, 0x0				; `string'

  00000			 AREA	 |.rdata|, DATA, READONLY
|??_C@_1CA@OBFGDJPM@?$AAC?$AAM?$AA_?$AAA?$AAU?$AAT?$AAO?$AAI?$AAD?$AAL?$AAE?$AA_?$AAD?$AAS?$AAS?$AA?$AA@| DCB "C"
	DCB	0x0, "M", 0x0, "_", 0x0, "A", 0x0, "U", 0x0, "T", 0x0, "O"
	DCB	0x0, "I", 0x0, "D", 0x0, "L", 0x0, "E", 0x0, "_", 0x0, "D"
	DCB	0x0, "S", 0x0, "S", 0x0, 0x0, 0x0	; `string'

  00000			 AREA	 |.rdata|, DATA, READONLY
|??_C@_1BM@MJOIHANK@?$AAC?$AAM?$AA_?$AAI?$AAD?$AAL?$AAE?$AAS?$AAT?$AA_?$AAD?$AAS?$AAS?$AA?$AA@| DCB "C"
	DCB	0x0, "M", 0x0, "_", 0x0, "I", 0x0, "D", 0x0, "L", 0x0, "E"
	DCB	0x0, "S", 0x0, "T", 0x0, "_", 0x0, "D", 0x0, "S", 0x0, "S"
	DCB	0x0, 0x0, 0x0				; `string'

  00000			 AREA	 |.rdata|, DATA, READONLY
|??_C@_1BM@HAHBFCKF@?$AAC?$AAM?$AA_?$AAI?$AAC?$AAL?$AAK?$AAE?$AAN?$AA_?$AAD?$AAS?$AAS?$AA?$AA@| DCB "C"
	DCB	0x0, "M", 0x0, "_", 0x0, "I", 0x0, "C", 0x0, "L", 0x0, "K"
	DCB	0x0, "E", 0x0, "N", 0x0, "_", 0x0, "D", 0x0, "S", 0x0, "S"
	DCB	0x0, 0x0, 0x0				; `string'

  00000			 AREA	 |.rdata|, DATA, READONLY
|??_C@_1BM@KMOLEKOF@?$AAC?$AAM?$AA_?$AAF?$AAC?$AAL?$AAK?$AAE?$AAN?$AA_?$AAD?$AAS?$AAS?$AA?$AA@| DCB "C"
	DCB	0x0, "M", 0x0, "_", 0x0, "F", 0x0, "C", 0x0, "L", 0x0, "K"
	DCB	0x0, "E", 0x0, "N", 0x0, "_", 0x0, "D", 0x0, "S", 0x0, "S"
	DCB	0x0, 0x0, 0x0				; `string'

  00000			 AREA	 |.rdata|, DATA, READONLY
|??_C@_1O@DCDFCCN@?$AAD?$AAS?$AAS?$AA_?$AAC?$AAM?$AA?$AA@| DCB "D", 0x0, "S"
	DCB	0x0, "S", 0x0, "_", 0x0, "C", 0x0, "M", 0x0, 0x0, 0x0 ; `string'

  00000			 AREA	 |.rdata|, DATA, READONLY
|??_C@_1BO@MLHAGPEI@?$AAC?$AAM?$AA_?$AAC?$AAL?$AAK?$AAO?$AAU?$AAT?$AA_?$AAC?$AAT?$AAR?$AAL?$AA?$AA@| DCB "C"
	DCB	0x0, "M", 0x0, "_", 0x0, "C", 0x0, "L", 0x0, "K", 0x0, "O"
	DCB	0x0, "U", 0x0, "T", 0x0, "_", 0x0, "C", 0x0, "T", 0x0, "R"
	DCB	0x0, "L", 0x0, 0x0, 0x0			; `string'

  00000			 AREA	 |.rdata|, DATA, READONLY
|??_C@_1BO@IIHNOIA@?$AAC?$AAM?$AA_?$AAC?$AAL?$AAK?$AAS?$AAE?$AAL?$AA5?$AA_?$AAP?$AAL?$AAL?$AA?$AA@| DCB "C"
	DCB	0x0, "M", 0x0, "_", 0x0, "C", 0x0, "L", 0x0, "K", 0x0, "S"
	DCB	0x0, "E", 0x0, "L", 0x0, "5", 0x0, "_", 0x0, "P", 0x0, "L"
	DCB	0x0, "L", 0x0, 0x0, 0x0			; `string'

  00000			 AREA	 |.rdata|, DATA, READONLY
|??_C@_1BO@JDCCJCOP@?$AAC?$AAM?$AA_?$AAC?$AAL?$AAK?$AAS?$AAE?$AAL?$AA4?$AA_?$AAP?$AAL?$AAL?$AA?$AA@| DCB "C"
	DCB	0x0, "M", 0x0, "_", 0x0, "C", 0x0, "L", 0x0, "K", 0x0, "S"
	DCB	0x0, "E", 0x0, "L", 0x0, "4", 0x0, "_", 0x0, "P", 0x0, "L"
	DCB	0x0, "L", 0x0, 0x0, 0x0			; `string'

  00000			 AREA	 |.rdata|, DATA, READONLY
|??_C@_1BO@OHLKHLGA@?$AAC?$AAM?$AA_?$AAC?$AAL?$AAK?$AAS?$AAE?$AAL?$AA3?$AA_?$AAP?$AAL?$AAL?$AA?$AA@| DCB "C"
	DCB	0x0, "M", 0x0, "_", 0x0, "C", 0x0, "L", 0x0, "K", 0x0, "S"
	DCB	0x0, "E", 0x0, "L", 0x0, "3", 0x0, "_", 0x0, "P", 0x0, "L"
	DCB	0x0, "L", 0x0, 0x0, 0x0			; `string'

  00000			 AREA	 |.rdata|, DATA, READONLY
|??_C@_1BO@HMBPDHAP@?$AAC?$AAM?$AA_?$AAC?$AAL?$AAK?$AAS?$AAE?$AAL?$AA2?$AA_?$AAP?$AAL?$AAL?$AA?$AA@| DCB "C"
	DCB	0x0, "M", 0x0, "_", 0x0, "C", 0x0, "L", 0x0, "K", 0x0, "S"
	DCB	0x0, "E", 0x0, "L", 0x0, "2", 0x0, "_", 0x0, "P", 0x0, "L"
	DCB	0x0, "L", 0x0, 0x0, 0x0			; `string'

  00000			 AREA	 |.rdata|, DATA, READONLY
|??_C@_1BO@LIBOFPP@?$AAC?$AAM?$AA_?$AAC?$AAL?$AAK?$AAS?$AAE?$AAL?$AA1?$AA_?$AAP?$AAL?$AAL?$AA?$AA@| DCB "C"
	DCB	0x0, "M", 0x0, "_", 0x0, "C", 0x0, "L", 0x0, "K", 0x0, "S"
	DCB	0x0, "E", 0x0, "L", 0x0, "1", 0x0, "_", 0x0, "P", 0x0, "L"
	DCB	0x0, "L", 0x0, 0x0, 0x0			; `string'

  00000			 AREA	 |.rdata|, DATA, READONLY
|??_C@_1CC@CDHCIADO@?$AAC?$AAM?$AA_?$AAA?$AAU?$AAT?$AAO?$AAI?$AAD?$AAL?$AAE?$AA2?$AA_?$AAP?$AAL?$AAL?$AA?$AA@| DCB "C"
	DCB	0x0, "M", 0x0, "_", 0x0, "A", 0x0, "U", 0x0, "T", 0x0, "O"
	DCB	0x0, "I", 0x0, "D", 0x0, "L", 0x0, "E", 0x0, "2", 0x0, "_"
	DCB	0x0, "P", 0x0, "L", 0x0, "L", 0x0, 0x0, 0x0 ; `string'

  00000			 AREA	 |.rdata|, DATA, READONLY
|??_C@_1CA@ODFNPBKK@?$AAC?$AAM?$AA_?$AAA?$AAU?$AAT?$AAO?$AAI?$AAD?$AAL?$AAE?$AA_?$AAP?$AAL?$AAL?$AA?$AA@| DCB "C"
	DCB	0x0, "M", 0x0, "_", 0x0, "A", 0x0, "U", 0x0, "T", 0x0, "O"
	DCB	0x0, "I", 0x0, "D", 0x0, "L", 0x0, "E", 0x0, "_", 0x0, "P"
	DCB	0x0, "L", 0x0, "L", 0x0, 0x0, 0x0	; `string'

  00000			 AREA	 |.rdata|, DATA, READONLY
|??_C@_1CC@OBCEIAAE@?$AAC?$AAM?$AA_?$AAI?$AAD?$AAL?$AAE?$AAS?$AAT?$AA2?$AA_?$AAC?$AAK?$AAG?$AAE?$AAN?$AA?$AA@| DCB "C"
	DCB	0x0, "M", 0x0, "_", 0x0, "I", 0x0, "D", 0x0, "L", 0x0, "E"
	DCB	0x0, "S", 0x0, "T", 0x0, "2", 0x0, "_", 0x0, "C", 0x0, "K"
	DCB	0x0, "G", 0x0, "E", 0x0, "N", 0x0, 0x0, 0x0 ; `string'

  00000			 AREA	 |.rdata|, DATA, READONLY
|??_C@_1CA@PFEJJBMO@?$AAC?$AAM?$AA_?$AAI?$AAD?$AAL?$AAE?$AAS?$AAT?$AA_?$AAC?$AAK?$AAG?$AAE?$AAN?$AA?$AA@| DCB "C"
	DCB	0x0, "M", 0x0, "_", 0x0, "I", 0x0, "D", 0x0, "L", 0x0, "E"
	DCB	0x0, "S", 0x0, "T", 0x0, "_", 0x0, "C", 0x0, "K", 0x0, "G"
	DCB	0x0, "E", 0x0, "N", 0x0, 0x0, 0x0	; `string'

  00000			 AREA	 |.rdata|, DATA, READONLY
|??_C@_1BM@DGCCAOAF@?$AAC?$AAM?$AA_?$AAC?$AAL?$AAK?$AAE?$AAN?$AA2?$AA_?$AAP?$AAL?$AAL?$AA?$AA@| DCB "C"
	DCB	0x0, "M", 0x0, "_", 0x0, "C", 0x0, "L", 0x0, "K", 0x0, "E"
	DCB	0x0, "N", 0x0, "2", 0x0, "_", 0x0, "P", 0x0, "L", 0x0, "L"
	DCB	0x0, 0x0, 0x0				; `string'

  00000			 AREA	 |.rdata|, DATA, READONLY
|??_C@_1BK@CFOGEALB@?$AAC?$AAM?$AA_?$AAC?$AAL?$AAK?$AAE?$AAN?$AA_?$AAP?$AAL?$AAL?$AA?$AA@| DCB "C"
	DCB	0x0, "M", 0x0, "_", 0x0, "C", 0x0, "L", 0x0, "K", 0x0, "E"
	DCB	0x0, "N", 0x0, "_", 0x0, "P", 0x0, "L", 0x0, "L", 0x0, 0x0
	DCB	0x0					; `string'

  00000			 AREA	 |.rdata|, DATA, READONLY
|??_C@_1CK@OJMCKPMK@?$AAC?$AAl?$AAo?$AAc?$AAk?$AA_?$AAC?$AAo?$AAn?$AAt?$AAr?$AAo?$AAl?$AA_?$AAR?$AAe?$AAg?$AA_?$AAC?$AAM?$AA?$AA@| DCB "C"
	DCB	0x0, "l", 0x0, "o", 0x0, "c", 0x0, "k", 0x0, "_", 0x0, "C"
	DCB	0x0, "o", 0x0, "n", 0x0, "t", 0x0, "r", 0x0, "o", 0x0, "l"
	DCB	0x0, "_", 0x0, "R", 0x0, "e", 0x0, "g", 0x0, "_", 0x0, "C"
	DCB	0x0, "M", 0x0, 0x0, 0x0			; `string'

  00000			 AREA	 |.rdata|, DATA, READONLY
|??_C@_1BO@MGPCIMBE@?$AAC?$AAM?$AA_?$AAC?$AAL?$AAK?$AAS?$AAE?$AAL?$AA_?$AAW?$AAK?$AAU?$AAP?$AA?$AA@| DCB "C"
	DCB	0x0, "M", 0x0, "_", 0x0, "C", 0x0, "L", 0x0, "K", 0x0, "S"
	DCB	0x0, "E", 0x0, "L", 0x0, "_", 0x0, "W", 0x0, "K", 0x0, "U"
	DCB	0x0, "P", 0x0, 0x0, 0x0			; `string'

  00000			 AREA	 |.rdata|, DATA, READONLY
|??_C@_1CC@JJJPDLCF@?$AAC?$AAM?$AA_?$AAA?$AAU?$AAT?$AAO?$AAI?$AAD?$AAL?$AAE?$AA_?$AAW?$AAK?$AAU?$AAP?$AA?$AA@| DCB "C"
	DCB	0x0, "M", 0x0, "_", 0x0, "A", 0x0, "U", 0x0, "T", 0x0, "O"
	DCB	0x0, "I", 0x0, "D", 0x0, "L", 0x0, "E", 0x0, "_", 0x0, "W"
	DCB	0x0, "K", 0x0, "U", 0x0, "P", 0x0, 0x0, 0x0 ; `string'

  00000			 AREA	 |.rdata|, DATA, READONLY
|??_C@_1BO@FFEBGJIL@?$AAC?$AAM?$AA_?$AAI?$AAD?$AAL?$AAE?$AAS?$AAT?$AA_?$AAW?$AAK?$AAU?$AAP?$AA?$AA@| DCB "C"
	DCB	0x0, "M", 0x0, "_", 0x0, "I", 0x0, "D", 0x0, "L", 0x0, "E"
	DCB	0x0, "S", 0x0, "T", 0x0, "_", 0x0, "W", 0x0, "K", 0x0, "U"
	DCB	0x0, "P", 0x0, 0x0, 0x0			; `string'

  00000			 AREA	 |.rdata|, DATA, READONLY
|??_C@_1BO@CIIGPEMP@?$AAC?$AAM?$AA_?$AAI?$AAC?$AAL?$AAK?$AAE?$AAN?$AA_?$AAW?$AAK?$AAU?$AAP?$AA?$AA@| DCB "C"
	DCB	0x0, "M", 0x0, "_", 0x0, "I", 0x0, "C", 0x0, "L", 0x0, "K"
	DCB	0x0, "E", 0x0, "N", 0x0, "_", 0x0, "W", 0x0, "K", 0x0, "U"
	DCB	0x0, "P", 0x0, 0x0, 0x0			; `string'

  00000			 AREA	 |.rdata|, DATA, READONLY
|??_C@_1BO@MLJDPPAG@?$AAC?$AAM?$AA_?$AAF?$AAC?$AAL?$AAK?$AAE?$AAN?$AA_?$AAW?$AAK?$AAU?$AAP?$AA?$AA@| DCB "C"
	DCB	0x0, "M", 0x0, "_", 0x0, "F", 0x0, "C", 0x0, "L", 0x0, "K"
	DCB	0x0, "E", 0x0, "N", 0x0, "_", 0x0, "W", 0x0, "K", 0x0, "U"
	DCB	0x0, "P", 0x0, 0x0, 0x0			; `string'

  00000			 AREA	 |.rdata|, DATA, READONLY
|??_C@_1BA@FJBNPKLL@?$AAW?$AAK?$AAU?$AAP?$AA_?$AAC?$AAM?$AA?$AA@| DCB "W", 0x0
	DCB	"K", 0x0, "U", 0x0, "P", 0x0, "_", 0x0, "C", 0x0, "M", 0x0
	DCB	0x0, 0x0				; `string'

  00000			 AREA	 |.rdata|, DATA, READONLY
|??_C@_1BO@PICKOOJK@?$AAC?$AAM?$AA_?$AAC?$AAL?$AAK?$AAS?$AAT?$AAS?$AAT?$AA_?$AAS?$AAG?$AAX?$AA?$AA@| DCB "C"
	DCB	0x0, "M", 0x0, "_", 0x0, "C", 0x0, "L", 0x0, "K", 0x0, "S"
	DCB	0x0, "T", 0x0, "S", 0x0, "T", 0x0, "_", 0x0, "S", 0x0, "G"
	DCB	0x0, "X", 0x0, 0x0, 0x0			; `string'

  00000			 AREA	 |.rdata|, DATA, READONLY
|??_C@_1CC@DPKONEHB@?$AAC?$AAM?$AA_?$AAC?$AAL?$AAK?$AAS?$AAT?$AAC?$AAT?$AAR?$AAL?$AA_?$AAS?$AAG?$AAX?$AA?$AA@| DCB "C"
	DCB	0x0, "M", 0x0, "_", 0x0, "C", 0x0, "L", 0x0, "K", 0x0, "S"
	DCB	0x0, "T", 0x0, "C", 0x0, "T", 0x0, "R", 0x0, "L", 0x0, "_"
	DCB	0x0, "S", 0x0, "G", 0x0, "X", 0x0, 0x0, 0x0 ; `string'

  00000			 AREA	 |.rdata|, DATA, READONLY
|??_C@_1CA@EOLCFPBH@?$AAC?$AAM?$AA_?$AAS?$AAL?$AAE?$AAE?$AAP?$AAD?$AAE?$AAP?$AA_?$AAS?$AAG?$AAX?$AA?$AA@| DCB "C"
	DCB	0x0, "M", 0x0, "_", 0x0, "S", 0x0, "L", 0x0, "E", 0x0, "E"
	DCB	0x0, "P", 0x0, "D", 0x0, "E", 0x0, "P", 0x0, "_", 0x0, "S"
	DCB	0x0, "G", 0x0, "X", 0x0, 0x0, 0x0	; `string'

  00000			 AREA	 |.rdata|, DATA, READONLY
|??_C@_1BM@DKOEAHJA@?$AAC?$AAM?$AA_?$AAC?$AAL?$AAK?$AAS?$AAE?$AAL?$AA_?$AAS?$AAG?$AAX?$AA?$AA@| DCB "C"
	DCB	0x0, "M", 0x0, "_", 0x0, "C", 0x0, "L", 0x0, "K", 0x0, "S"
	DCB	0x0, "E", 0x0, "L", 0x0, "_", 0x0, "S", 0x0, "G", 0x0, "X"
	DCB	0x0, 0x0, 0x0				; `string'

  00000			 AREA	 |.rdata|, DATA, READONLY
|??_C@_1BM@PANAIPGE@?$AAC?$AAM?$AA_?$AAI?$AAD?$AAL?$AAE?$AAS?$AAT?$AA_?$AAS?$AAG?$AAX?$AA?$AA@| DCB "C"
	DCB	0x0, "M", 0x0, "_", 0x0, "I", 0x0, "D", 0x0, "L", 0x0, "E"
	DCB	0x0, "S", 0x0, "T", 0x0, "_", 0x0, "S", 0x0, "G", 0x0, "X"
	DCB	0x0, 0x0, 0x0				; `string'

  00000			 AREA	 |.rdata|, DATA, READONLY
|??_C@_1BM@EJEJKNBL@?$AAC?$AAM?$AA_?$AAI?$AAC?$AAL?$AAK?$AAE?$AAN?$AA_?$AAS?$AAG?$AAX?$AA?$AA@| DCB "C"
	DCB	0x0, "M", 0x0, "_", 0x0, "I", 0x0, "C", 0x0, "L", 0x0, "K"
	DCB	0x0, "E", 0x0, "N", 0x0, "_", 0x0, "S", 0x0, "G", 0x0, "X"
	DCB	0x0, 0x0, 0x0				; `string'

  00000			 AREA	 |.rdata|, DATA, READONLY
|??_C@_1BM@JFNDLFFL@?$AAC?$AAM?$AA_?$AAF?$AAC?$AAL?$AAK?$AAE?$AAN?$AA_?$AAS?$AAG?$AAX?$AA?$AA@| DCB "C"
	DCB	0x0, "M", 0x0, "_", 0x0, "F", 0x0, "C", 0x0, "L", 0x0, "K"
	DCB	0x0, "E", 0x0, "N", 0x0, "_", 0x0, "S", 0x0, "G", 0x0, "X"
	DCB	0x0, 0x0, 0x0				; `string'

  00000			 AREA	 |.rdata|, DATA, READONLY
|??_C@_1O@PHKCOJPF@?$AAS?$AAG?$AAX?$AA_?$AAC?$AAM?$AA?$AA@| DCB "S", 0x0, "G"
	DCB	0x0, "X", 0x0, "_", 0x0, "C", 0x0, "M", 0x0, 0x0, 0x0 ; `string'

  00000			 AREA	 |.rdata|, DATA, READONLY
|??_C@_1CA@DFAGEEPB@?$AAC?$AAM?$AA_?$AAC?$AAL?$AAK?$AAS?$AAT?$AAS?$AAT?$AA_?$AAC?$AAO?$AAR?$AAE?$AA?$AA@| DCB "C"
	DCB	0x0, "M", 0x0, "_", 0x0, "C", 0x0, "L", 0x0, "K", 0x0, "S"
	DCB	0x0, "T", 0x0, "S", 0x0, "T", 0x0, "_", 0x0, "C", 0x0, "O"
	DCB	0x0, "R", 0x0, "E", 0x0, 0x0, 0x0	; `string'

  00000			 AREA	 |.rdata|, DATA, READONLY
|??_C@_1CE@EOIAHAOA@?$AAC?$AAM?$AA_?$AAC?$AAL?$AAK?$AAS?$AAT?$AAC?$AAT?$AAR?$AAL?$AA_?$AAC?$AAO?$AAR?$AAE?$AA?$AA@| DCB "C"
	DCB	0x0, "M", 0x0, "_", 0x0, "C", 0x0, "L", 0x0, "K", 0x0, "S"
	DCB	0x0, "T", 0x0, "C", 0x0, "T", 0x0, "R", 0x0, "L", 0x0, "_"
	DCB	0x0, "C", 0x0, "O", 0x0, "R", 0x0, "E", 0x0, 0x0, 0x0 ; `string'

  00000			 AREA	 |.rdata|, DATA, READONLY
|??_C@_1BO@BGDPDEGJ@?$AAC?$AAM?$AA_?$AAC?$AAL?$AAK?$AAS?$AAE?$AAL?$AA_?$AAC?$AAO?$AAR?$AAE?$AA?$AA@| DCB "C"
	DCB	0x0, "M", 0x0, "_", 0x0, "C", 0x0, "L", 0x0, "K", 0x0, "S"
	DCB	0x0, "E", 0x0, "L", 0x0, "_", 0x0, "C", 0x0, "O", 0x0, "R"
	DCB	0x0, "E", 0x0, 0x0, 0x0			; `string'

  00000			 AREA	 |.rdata|, DATA, READONLY
|??_C@_1CE@OGHCKMLF@?$AAC?$AAM?$AA_?$AAA?$AAU?$AAT?$AAO?$AAI?$AAD?$AAL?$AAE?$AA3?$AA_?$AAC?$AAO?$AAR?$AAE?$AA?$AA@| DCB "C"
	DCB	0x0, "M", 0x0, "_", 0x0, "A", 0x0, "U", 0x0, "T", 0x0, "O"
	DCB	0x0, "I", 0x0, "D", 0x0, "L", 0x0, "E", 0x0, "3", 0x0, "_"
	DCB	0x0, "C", 0x0, "O", 0x0, "R", 0x0, "E", 0x0, 0x0, 0x0 ; `string'

  00000			 AREA	 |.rdata|, DATA, READONLY
|??_C@_1CE@HLHNENMD@?$AAC?$AAM?$AA_?$AAA?$AAU?$AAT?$AAO?$AAI?$AAD?$AAL?$AAE?$AA2?$AA_?$AAC?$AAO?$AAR?$AAE?$AA?$AA@| DCB "C"
	DCB	0x0, "M", 0x0, "_", 0x0, "A", 0x0, "U", 0x0, "T", 0x0, "O"
	DCB	0x0, "I", 0x0, "D", 0x0, "L", 0x0, "E", 0x0, "2", 0x0, "_"
	DCB	0x0, "C", 0x0, "O", 0x0, "R", 0x0, "E", 0x0, 0x0, 0x0 ; `string'

  00000			 AREA	 |.rdata|, DATA, READONLY
|??_C@_1CE@HBMGIBI@?$AAC?$AAM?$AA_?$AAA?$AAU?$AAT?$AAO?$AAI?$AAD?$AAL?$AAE?$AA1?$AA_?$AAC?$AAO?$AAR?$AAE?$AA?$AA@| DCB "C"
	DCB	0x0, "M", 0x0, "_", 0x0, "A", 0x0, "U", 0x0, "T", 0x0, "O"
	DCB	0x0, "I", 0x0, "D", 0x0, "L", 0x0, "E", 0x0, "1", 0x0, "_"
	DCB	0x0, "C", 0x0, "O", 0x0, "R", 0x0, "E", 0x0, 0x0, 0x0 ; `string'

  00000			 AREA	 |.rdata|, DATA, READONLY
|??_C@_1CA@FDJDMBNE@?$AAC?$AAM?$AA_?$AAI?$AAD?$AAL?$AAE?$AAS?$AAT?$AA3?$AA_?$AAC?$AAO?$AAR?$AAE?$AA?$AA@| DCB "C"
	DCB	0x0, "M", 0x0, "_", 0x0, "I", 0x0, "D", 0x0, "L", 0x0, "E"
	DCB	0x0, "S", 0x0, "T", 0x0, "3", 0x0, "_", 0x0, "C", 0x0, "O"
	DCB	0x0, "R", 0x0, "E", 0x0, 0x0, 0x0	; `string'

  00000			 AREA	 |.rdata|, DATA, READONLY
|??_C@_1CA@MOJMCAKC@?$AAC?$AAM?$AA_?$AAI?$AAD?$AAL?$AAE?$AAS?$AAT?$AA2?$AA_?$AAC?$AAO?$AAR?$AAE?$AA?$AA@| DCB "C"
	DCB	0x0, "M", 0x0, "_", 0x0, "I", 0x0, "D", 0x0, "L", 0x0, "E"
	DCB	0x0, "S", 0x0, "T", 0x0, "2", 0x0, "_", 0x0, "C", 0x0, "O"
	DCB	0x0, "R", 0x0, "E", 0x0, 0x0, 0x0	; `string'

  00000			 AREA	 |.rdata|, DATA, READONLY
|??_C@_1CA@LCPNAFHJ@?$AAC?$AAM?$AA_?$AAI?$AAD?$AAL?$AAE?$AAS?$AAT?$AA1?$AA_?$AAC?$AAO?$AAR?$AAE?$AA?$AA@| DCB "C"
	DCB	0x0, "M", 0x0, "_", 0x0, "I", 0x0, "D", 0x0, "L", 0x0, "E"
	DCB	0x0, "S", 0x0, "T", 0x0, "1", 0x0, "_", 0x0, "C", 0x0, "O"
	DCB	0x0, "R", 0x0, "E", 0x0, 0x0, 0x0	; `string'

  00000			 AREA	 |.rdata|, DATA, READONLY
|??_C@_1CA@EJDINJOL@?$AAC?$AAM?$AA_?$AAI?$AAC?$AAL?$AAK?$AAE?$AAN?$AA3?$AA_?$AAC?$AAO?$AAR?$AAE?$AA?$AA@| DCB "C"
	DCB	0x0, "M", 0x0, "_", 0x0, "I", 0x0, "C", 0x0, "L", 0x0, "K"
	DCB	0x0, "E", 0x0, "N", 0x0, "3", 0x0, "_", 0x0, "C", 0x0, "O"
	DCB	0x0, "R", 0x0, "E", 0x0, 0x0, 0x0	; `string'

  00000			 AREA	 |.rdata|, DATA, READONLY
|??_C@_1CA@NEDHDIJN@?$AAC?$AAM?$AA_?$AAI?$AAC?$AAL?$AAK?$AAE?$AAN?$AA2?$AA_?$AAC?$AAO?$AAR?$AAE?$AA?$AA@| DCB "C"
	DCB	0x0, "M", 0x0, "_", 0x0, "I", 0x0, "C", 0x0, "L", 0x0, "K"
	DCB	0x0, "E", 0x0, "N", 0x0, "2", 0x0, "_", 0x0, "C", 0x0, "O"
	DCB	0x0, "R", 0x0, "E", 0x0, 0x0, 0x0	; `string'

  00000			 AREA	 |.rdata|, DATA, READONLY
|??_C@_1CA@KIFGBNEG@?$AAC?$AAM?$AA_?$AAI?$AAC?$AAL?$AAK?$AAE?$AAN?$AA1?$AA_?$AAC?$AAO?$AAR?$AAE?$AA?$AA@| DCB "C"
	DCB	0x0, "M", 0x0, "_", 0x0, "I", 0x0, "C", 0x0, "L", 0x0, "K"
	DCB	0x0, "E", 0x0, "N", 0x0, "1", 0x0, "_", 0x0, "C", 0x0, "O"
	DCB	0x0, "R", 0x0, "E", 0x0, 0x0, 0x0	; `string'

  00000			 AREA	 |.rdata|, DATA, READONLY
|??_C@_1CA@MENCIPHB@?$AAC?$AAM?$AA_?$AAF?$AAC?$AAL?$AAK?$AAE?$AAN?$AA3?$AA_?$AAC?$AAO?$AAR?$AAE?$AA?$AA@| DCB "C"
	DCB	0x0, "M", 0x0, "_", 0x0, "F", 0x0, "C", 0x0, "L", 0x0, "K"
	DCB	0x0, "E", 0x0, "N", 0x0, "3", 0x0, "_", 0x0, "C", 0x0, "O"
	DCB	0x0, "R", 0x0, "E", 0x0, 0x0, 0x0	; `string'

  00000			 AREA	 |.rdata|, DATA, READONLY
|??_C@_1CA@CFLMELNM@?$AAC?$AAM?$AA_?$AAF?$AAC?$AAL?$AAK?$AAE?$AAN?$AA1?$AA_?$AAC?$AAO?$AAR?$AAE?$AA?$AA@| DCB "C"
	DCB	0x0, "M", 0x0, "_", 0x0, "F", 0x0, "C", 0x0, "L", 0x0, "K"
	DCB	0x0, "E", 0x0, "N", 0x0, "1", 0x0, "_", 0x0, "C", 0x0, "O"
	DCB	0x0, "R", 0x0, "E", 0x0, 0x0, 0x0	; `string'

  00000			 AREA	 |.rdata|, DATA, READONLY
|??_C@_1BA@MHLIKEJK@?$AAC?$AAO?$AAR?$AAE?$AA_?$AAC?$AAM?$AA?$AA@| DCB "C", 0x0
	DCB	"O", 0x0, "R", 0x0, "E", 0x0, "_", 0x0, "C", 0x0, "M", 0x0
	DCB	0x0, 0x0				; `string'

  00000			 AREA	 |.rdata|, DATA, READONLY
|??_C@_1BO@HNKCCHHN@?$AAC?$AAM?$AA_?$AAC?$AAL?$AAK?$AAS?$AAT?$AAS?$AAT?$AA_?$AAM?$AAP?$AAU?$AA?$AA@| DCB "C"
	DCB	0x0, "M", 0x0, "_", 0x0, "C", 0x0, "L", 0x0, "K", 0x0, "S"
	DCB	0x0, "T", 0x0, "S", 0x0, "T", 0x0, "_", 0x0, "M", 0x0, "P"
	DCB	0x0, "U", 0x0, 0x0, 0x0			; `string'

  00000			 AREA	 |.rdata|, DATA, READONLY
|??_C@_1CC@LKCGBNJG@?$AAC?$AAM?$AA_?$AAC?$AAL?$AAK?$AAS?$AAT?$AAC?$AAT?$AAR?$AAL?$AA_?$AAM?$AAP?$AAU?$AA?$AA@| DCB "C"
	DCB	0x0, "M", 0x0, "_", 0x0, "C", 0x0, "L", 0x0, "K", 0x0, "S"
	DCB	0x0, "T", 0x0, "C", 0x0, "T", 0x0, "R", 0x0, "L", 0x0, "_"
	DCB	0x0, "M", 0x0, "P", 0x0, "U", 0x0, 0x0, 0x0 ; `string'

  00000			 AREA	 |.rdata|, DATA, READONLY
|??_C@_1CG@HAJMMJGO@?$AAC?$AAM?$AA_?$AAC?$AAL?$AAK?$AAS?$AAE?$AAL?$AA2?$AA_?$AAP?$AAL?$AAL?$AA_?$AAM?$AAP?$AAU?$AA?$AA@| DCB "C"
	DCB	0x0, "M", 0x0, "_", 0x0, "C", 0x0, "L", 0x0, "K", 0x0, "S"
	DCB	0x0, "E", 0x0, "L", 0x0, "2", 0x0, "_", 0x0, "P", 0x0, "L"
	DCB	0x0, "L", 0x0, "_", 0x0, "M", 0x0, "P", 0x0, "U", 0x0, 0x0
	DCB	0x0					; `string'

  00000			 AREA	 |.rdata|, DATA, READONLY
|??_C@_1CG@NPDFIEKE@?$AAC?$AAM?$AA_?$AAC?$AAL?$AAK?$AAS?$AAE?$AAL?$AA1?$AA_?$AAP?$AAL?$AAL?$AA_?$AAM?$AAP?$AAU?$AA?$AA@| DCB "C"
	DCB	0x0, "M", 0x0, "_", 0x0, "C", 0x0, "L", 0x0, "K", 0x0, "S"
	DCB	0x0, "E", 0x0, "L", 0x0, "1", 0x0, "_", 0x0, "P", 0x0, "L"
	DCB	0x0, "L", 0x0, "_", 0x0, "M", 0x0, "P", 0x0, "U", 0x0, 0x0
	DCB	0x0					; `string'

  00000			 AREA	 |.rdata|, DATA, READONLY
|??_C@_1CI@CMDKJBJB@?$AAC?$AAM?$AA_?$AAA?$AAU?$AAT?$AAO?$AAI?$AAD?$AAL?$AAE?$AA_?$AAP?$AAL?$AAL?$AA_?$AAM?$AAP?$AAU?$AA?$AA@| DCB "C"
	DCB	0x0, "M", 0x0, "_", 0x0, "A", 0x0, "U", 0x0, "T", 0x0, "O"
	DCB	0x0, "I", 0x0, "D", 0x0, "L", 0x0, "E", 0x0, "_", 0x0, "P"
	DCB	0x0, "L", 0x0, "L", 0x0, "_", 0x0, "M", 0x0, "P", 0x0, "U"
	DCB	0x0, 0x0, 0x0				; `string'

  00000			 AREA	 |.rdata|, DATA, READONLY
|??_C@_1CE@BDMBNMCK@?$AAC?$AAM?$AA_?$AAI?$AAD?$AAL?$AAE?$AAS?$AAT?$AA_?$AAP?$AAL?$AAL?$AA_?$AAM?$AAP?$AAU?$AA?$AA@| DCB "C"
	DCB	0x0, "M", 0x0, "_", 0x0, "I", 0x0, "D", 0x0, "L", 0x0, "E"
	DCB	0x0, "S", 0x0, "T", 0x0, "_", 0x0, "P", 0x0, "L", 0x0, "L"
	DCB	0x0, "_", 0x0, "M", 0x0, "P", 0x0, "U", 0x0, 0x0, 0x0 ; `string'

  00000			 AREA	 |.rdata|, DATA, READONLY
|??_C@_1BM@HFFIEGID@?$AAC?$AAM?$AA_?$AAI?$AAD?$AAL?$AAE?$AAS?$AAT?$AA_?$AAM?$AAP?$AAU?$AA?$AA@| DCB "C"
	DCB	0x0, "M", 0x0, "_", 0x0, "I", 0x0, "D", 0x0, "L", 0x0, "E"
	DCB	0x0, "S", 0x0, "T", 0x0, "_", 0x0, "M", 0x0, "P", 0x0, "U"
	DCB	0x0, 0x0, 0x0				; `string'

  00000			 AREA	 |.rdata|, DATA, READONLY
|??_C@_1CC@JNLBAGDF@?$AAC?$AAM?$AA_?$AAC?$AAL?$AAK?$AAE?$AAN?$AA_?$AAP?$AAL?$AAL?$AA_?$AAM?$AAP?$AAU?$AA?$AA@| DCB "C"
	DCB	0x0, "M", 0x0, "_", 0x0, "C", 0x0, "L", 0x0, "K", 0x0, "E"
	DCB	0x0, "N", 0x0, "_", 0x0, "P", 0x0, "L", 0x0, "L", 0x0, "_"
	DCB	0x0, "M", 0x0, "P", 0x0, "U", 0x0, 0x0, 0x0 ; `string'

  00000			 AREA	 |.rdata|, DATA, READONLY
|??_C@_1O@NHPFAPNK@?$AAM?$AAP?$AAU?$AA_?$AAC?$AAM?$AA?$AA@| DCB "M", 0x0, "P"
	DCB	0x0, "U", 0x0, "_", 0x0, "C", 0x0, "M", 0x0, 0x0, 0x0 ; `string'

  00000			 AREA	 |.rdata|, DATA, READONLY
|??_C@_1BK@MFOLEKL@?$AAC?$AAM?$AA_?$AAS?$AAY?$AAS?$AAC?$AAO?$AAN?$AAF?$AAI?$AAG?$AA?$AA@| DCB "C"
	DCB	0x0, "M", 0x0, "_", 0x0, "S", 0x0, "Y", 0x0, "S", 0x0, "C"
	DCB	0x0, "O", 0x0, "N", 0x0, "F", 0x0, "I", 0x0, "G", 0x0, 0x0
	DCB	0x0					; `string'

  00000			 AREA	 |.rdata|, DATA, READONLY
|??_C@_1BI@OFDDPNDA@?$AAC?$AAM?$AA_?$AAR?$AAE?$AAV?$AAI?$AAS?$AAI?$AAO?$AAN?$AA?$AA@| DCB "C"
	DCB	0x0, "M", 0x0, "_", 0x0, "R", 0x0, "E", 0x0, "V", 0x0, "I"
	DCB	0x0, "S", 0x0, "I", 0x0, "O", 0x0, "N", 0x0, 0x0, 0x0 ; `string'

  00000			 AREA	 |.rdata|, DATA, READONLY
|??_C@_1CE@OMIMNBBB@?$AAO?$AAC?$AAP?$AA_?$AAS?$AAy?$AAs?$AAt?$AAe?$AAm?$AA_?$AAR?$AAe?$AAg?$AA_?$AAC?$AAM?$AA?$AA@| DCB "O"
	DCB	0x0, "C", 0x0, "P", 0x0, "_", 0x0, "S", 0x0, "y", 0x0, "s"
	DCB	0x0, "t", 0x0, "e", 0x0, "m", 0x0, "_", 0x0, "R", 0x0, "e"
	DCB	0x0, "g", 0x0, "_", 0x0, "C", 0x0, "M", 0x0, 0x0, 0x0 ; `string'

  00000			 AREA	 |.rdata|, DATA, READONLY
|??_C@_1CA@DCHKBGCI@?$AAC?$AAM?$AA_?$AAC?$AAL?$AAK?$AAS?$AAT?$AAS?$AAT?$AA_?$AAI?$AAV?$AAA?$AA2?$AA?$AA@| DCB "C"
	DCB	0x0, "M", 0x0, "_", 0x0, "C", 0x0, "L", 0x0, "K", 0x0, "S"
	DCB	0x0, "T", 0x0, "S", 0x0, "T", 0x0, "_", 0x0, "I", 0x0, "V"
	DCB	0x0, "A", 0x0, "2", 0x0, 0x0, 0x0	; `string'

  00000			 AREA	 |.rdata|, DATA, READONLY
|??_C@_1CE@EJPMCCDJ@?$AAC?$AAM?$AA_?$AAC?$AAL?$AAK?$AAS?$AAT?$AAC?$AAT?$AAR?$AAL?$AA_?$AAI?$AAV?$AAA?$AA2?$AA?$AA@| DCB "C"
	DCB	0x0, "M", 0x0, "_", 0x0, "C", 0x0, "L", 0x0, "K", 0x0, "S"
	DCB	0x0, "T", 0x0, "C", 0x0, "T", 0x0, "R", 0x0, "L", 0x0, "_"
	DCB	0x0, "I", 0x0, "V", 0x0, "A", 0x0, "2", 0x0, 0x0, 0x0 ; `string'

  00000			 AREA	 |.rdata|, DATA, READONLY
|??_C@_1CI@BECHJFPL@?$AAC?$AAM?$AA_?$AAC?$AAL?$AAK?$AAS?$AAE?$AAL?$AA2?$AA_?$AAP?$AAL?$AAL?$AA_?$AAI?$AAV?$AAA?$AA2?$AA?$AA@| DCB "C"
	DCB	0x0, "M", 0x0, "_", 0x0, "C", 0x0, "L", 0x0, "K", 0x0, "S"
	DCB	0x0, "E", 0x0, "L", 0x0, "2", 0x0, "_", 0x0, "P", 0x0, "L"
	DCB	0x0, "L", 0x0, "_", 0x0, "I", 0x0, "V", 0x0, "A", 0x0, "2"
	DCB	0x0, 0x0, 0x0				; `string'

  00000			 AREA	 |.rdata|, DATA, READONLY
|??_C@_1CI@CNFPDILL@?$AAC?$AAM?$AA_?$AAC?$AAL?$AAK?$AAS?$AAE?$AAL?$AA1?$AA_?$AAP?$AAL?$AAL?$AA_?$AAI?$AAV?$AAA?$AA2?$AA?$AA@| DCB "C"
	DCB	0x0, "M", 0x0, "_", 0x0, "C", 0x0, "L", 0x0, "K", 0x0, "S"
	DCB	0x0, "E", 0x0, "L", 0x0, "1", 0x0, "_", 0x0, "P", 0x0, "L"
	DCB	0x0, "L", 0x0, "_", 0x0, "I", 0x0, "V", 0x0, "A", 0x0, "2"
	DCB	0x0, 0x0, 0x0				; `string'

  00000			 AREA	 |.rdata|, DATA, READONLY
|??_C@_1CK@OCLDONOJ@?$AAC?$AAM?$AA_?$AAA?$AAU?$AAT?$AAO?$AAI?$AAD?$AAL?$AAE?$AA_?$AAP?$AAL?$AAL?$AA_?$AAI?$AAV?$AAA?$AA2?$AA?$AA@| DCB "C"
	DCB	0x0, "M", 0x0, "_", 0x0, "A", 0x0, "U", 0x0, "T", 0x0, "O"
	DCB	0x0, "I", 0x0, "D", 0x0, "L", 0x0, "E", 0x0, "_", 0x0, "P"
	DCB	0x0, "L", 0x0, "L", 0x0, "_", 0x0, "I", 0x0, "V", 0x0, "A"
	DCB	0x0, "2", 0x0, 0x0, 0x0			; `string'

  00000			 AREA	 |.rdata|, DATA, READONLY
|??_C@_1CG@ONOPJIEM@?$AAC?$AAM?$AA_?$AAI?$AAD?$AAL?$AAE?$AAS?$AAT?$AA_?$AAP?$AAL?$AAL?$AA_?$AAI?$AAV?$AAA?$AA2?$AA?$AA@| DCB "C"
	DCB	0x0, "M", 0x0, "_", 0x0, "I", 0x0, "D", 0x0, "L", 0x0, "E"
	DCB	0x0, "S", 0x0, "T", 0x0, "_", 0x0, "P", 0x0, "L", 0x0, "L"
	DCB	0x0, "_", 0x0, "I", 0x0, "V", 0x0, "A", 0x0, "2", 0x0, 0x0
	DCB	0x0					; `string'

  00000			 AREA	 |.rdata|, DATA, READONLY
|??_C@_1BO@ICPAIDCP@?$AAC?$AAM?$AA_?$AAI?$AAD?$AAL?$AAE?$AAS?$AAT?$AA_?$AAI?$AAV?$AAA?$AA2?$AA?$AA@| DCB "C"
	DCB	0x0, "M", 0x0, "_", 0x0, "I", 0x0, "D", 0x0, "L", 0x0, "E"
	DCB	0x0, "S", 0x0, "T", 0x0, "_", 0x0, "I", 0x0, "V", 0x0, "A"
	DCB	0x0, "2", 0x0, 0x0, 0x0			; `string'

  00000			 AREA	 |.rdata|, DATA, READONLY
|??_C@_1CE@EGLDCDGI@?$AAC?$AAM?$AA_?$AAC?$AAL?$AAK?$AAE?$AAN?$AA_?$AAP?$AAL?$AAL?$AA_?$AAI?$AAV?$AAA?$AA2?$AA?$AA@| DCB "C"
	DCB	0x0, "M", 0x0, "_", 0x0, "C", 0x0, "L", 0x0, "K", 0x0, "E"
	DCB	0x0, "N", 0x0, "_", 0x0, "P", 0x0, "L", 0x0, "L", 0x0, "_"
	DCB	0x0, "I", 0x0, "V", 0x0, "A", 0x0, "2", 0x0, 0x0, 0x0 ; `string'

  00000			 AREA	 |.rdata|, DATA, READONLY
|??_C@_1BO@BMCCBFKC@?$AAC?$AAM?$AA_?$AAF?$AAC?$AAL?$AAK?$AAE?$AAN?$AA_?$AAI?$AAV?$AAA?$AA2?$AA?$AA@| DCB "C"
	DCB	0x0, "M", 0x0, "_", 0x0, "F", 0x0, "C", 0x0, "L", 0x0, "K"
	DCB	0x0, "E", 0x0, "N", 0x0, "_", 0x0, "I", 0x0, "V", 0x0, "A"
	DCB	0x0, "2", 0x0, 0x0, 0x0			; `string'

  00000			 AREA	 |.rdata|, DATA, READONLY
|??_C@_1BA@JEPMHMHH@?$AAI?$AAV?$AAA?$AA2?$AA_?$AAC?$AAM?$AA?$AA@| DCB "I", 0x0
	DCB	"V", 0x0, "A", 0x0, "2", 0x0, "_", 0x0, "C", 0x0, "M", 0x0
	DCB	0x0, 0x0				; `string'

  00000			 AREA	 |.rdata|, DATA, READONLY
|??_C@_1DA@EDKFOKOO@?$AAP?$AAO?$AAW?$AAE?$AAR?$AAD?$AAO?$AAM?$AAA?$AAI?$AAN?$AA_?$AAS?$AAM?$AAA?$AAR?$AAT?$AAR?$AAE?$AAF?$AAL?$AAE?$AAX?$AA?$AA@| DCB "P"
	DCB	0x0, "O", 0x0, "W", 0x0, "E", 0x0, "R", 0x0, "D", 0x0, "O"
	DCB	0x0, "M", 0x0, "A", 0x0, "I", 0x0, "N", 0x0, "_", 0x0, "S"
	DCB	0x0, "M", 0x0, "A", 0x0, "R", 0x0, "T", 0x0, "R", 0x0, "E"
	DCB	0x0, "F", 0x0, "L", 0x0, "E", 0x0, "X", 0x0, 0x0, 0x0 ; `string'

  00000			 AREA	 |.rdata|, DATA, READONLY
|??_C@_1CE@NPBICAPK@?$AAP?$AAO?$AAW?$AAE?$AAR?$AAD?$AAO?$AAM?$AAA?$AAI?$AAN?$AA_?$AAE?$AAF?$AAU?$AAS?$AAE?$AA?$AA@| DCB "P"
	DCB	0x0, "O", 0x0, "W", 0x0, "E", 0x0, "R", 0x0, "D", 0x0, "O"
	DCB	0x0, "M", 0x0, "A", 0x0, "I", 0x0, "N", 0x0, "_", 0x0, "E"
	DCB	0x0, "F", 0x0, "U", 0x0, "S", 0x0, "E", 0x0, 0x0, 0x0 ; `string'

  00000			 AREA	 |.rdata|, DATA, READONLY
|??_C@_1CA@EPPNKFHH@?$AAP?$AAO?$AAW?$AAE?$AAR?$AAD?$AAO?$AAM?$AAA?$AAI?$AAN?$AA_?$AAS?$AAG?$AAX?$AA?$AA@| DCB "P"
	DCB	0x0, "O", 0x0, "W", 0x0, "E", 0x0, "R", 0x0, "D", 0x0, "O"
	DCB	0x0, "M", 0x0, "A", 0x0, "I", 0x0, "N", 0x0, "_", 0x0, "S"
	DCB	0x0, "G", 0x0, "X", 0x0, 0x0, 0x0	; `string'

  00000			 AREA	 |.rdata|, DATA, READONLY
|??_C@_1CG@OKLBKABF@?$AAP?$AAO?$AAW?$AAE?$AAR?$AAD?$AAO?$AAM?$AAA?$AAI?$AAN?$AA_?$AAC?$AAA?$AAM?$AAE?$AAR?$AAA?$AA?$AA@| DCB "P"
	DCB	0x0, "O", 0x0, "W", 0x0, "E", 0x0, "R", 0x0, "D", 0x0, "O"
	DCB	0x0, "M", 0x0, "A", 0x0, "I", 0x0, "N", 0x0, "_", 0x0, "C"
	DCB	0x0, "A", 0x0, "M", 0x0, "E", 0x0, "R", 0x0, "A", 0x0, 0x0
	DCB	0x0					; `string'

  00000			 AREA	 |.rdata|, DATA, READONLY
|??_C@_1CC@DIKELEEG@?$AAP?$AAO?$AAW?$AAE?$AAR?$AAD?$AAO?$AAM?$AAA?$AAI?$AAN?$AA_?$AAI?$AAV?$AAA?$AA2?$AA?$AA@| DCB "P"
	DCB	0x0, "O", 0x0, "W", 0x0, "E", 0x0, "R", 0x0, "D", 0x0, "O"
	DCB	0x0, "M", 0x0, "A", 0x0, "I", 0x0, "N", 0x0, "_", 0x0, "I"
	DCB	0x0, "V", 0x0, "A", 0x0, "2", 0x0, 0x0, 0x0 ; `string'

  00000			 AREA	 |.rdata|, DATA, READONLY
|??_C@_1CC@DDKPOHKD@?$AAP?$AAO?$AAW?$AAE?$AAR?$AAD?$AAO?$AAM?$AAA?$AAI?$AAN?$AA_?$AAN?$AAE?$AAO?$AAN?$AA?$AA@| DCB "P"
	DCB	0x0, "O", 0x0, "W", 0x0, "E", 0x0, "R", 0x0, "D", 0x0, "O"
	DCB	0x0, "M", 0x0, "A", 0x0, "I", 0x0, "N", 0x0, "_", 0x0, "N"
	DCB	0x0, "E", 0x0, "O", 0x0, "N", 0x0, 0x0, 0x0 ; `string'

  00000			 AREA	 |.rdata|, DATA, READONLY
|??_C@_1CA@HGMFFKMJ@?$AAP?$AAO?$AAW?$AAE?$AAR?$AAD?$AAO?$AAM?$AAA?$AAI?$AAN?$AA_?$AAD?$AAS?$AAS?$AA?$AA@| DCB "P"
	DCB	0x0, "O", 0x0, "W", 0x0, "E", 0x0, "R", 0x0, "D", 0x0, "O"
	DCB	0x0, "M", 0x0, "A", 0x0, "I", 0x0, "N", 0x0, "_", 0x0, "D"
	DCB	0x0, "S", 0x0, "S", 0x0, 0x0, 0x0	; `string'

  00000			 AREA	 |.rdata|, DATA, READONLY
|??_C@_1CA@MKHFGMJA@?$AAP?$AAO?$AAW?$AAE?$AAR?$AAD?$AAO?$AAM?$AAA?$AAI?$AAN?$AA_?$AAM?$AAP?$AAU?$AA?$AA@| DCB "P"
	DCB	0x0, "O", 0x0, "W", 0x0, "E", 0x0, "R", 0x0, "D", 0x0, "O"
	DCB	0x0, "M", 0x0, "A", 0x0, "I", 0x0, "N", 0x0, "_", 0x0, "M"
	DCB	0x0, "P", 0x0, "U", 0x0, 0x0, 0x0	; `string'

  00000			 AREA	 |.rdata|, DATA, READONLY
|??_C@_1CM@IICJPBKI@?$AAP?$AAO?$AAW?$AAE?$AAR?$AAD?$AAO?$AAM?$AAA?$AAI?$AAN?$AA_?$AAE?$AAM?$AAU?$AAL?$AAA?$AAT?$AAI?$AAO?$AAN?$AA?$AA@| DCB "P"
	DCB	0x0, "O", 0x0, "W", 0x0, "E", 0x0, "R", 0x0, "D", 0x0, "O"
	DCB	0x0, "M", 0x0, "A", 0x0, "I", 0x0, "N", 0x0, "_", 0x0, "E"
	DCB	0x0, "M", 0x0, "U", 0x0, "L", 0x0, "A", 0x0, "T", 0x0, "I"
	DCB	0x0, "O", 0x0, "N", 0x0, 0x0, 0x0	; `string'

  00000			 AREA	 |.rdata|, DATA, READONLY
|??_C@_1CI@LJKMALKI@?$AAP?$AAO?$AAW?$AAE?$AAR?$AAD?$AAO?$AAM?$AAA?$AAI?$AAN?$AA_?$AAU?$AAS?$AAB?$AAH?$AAO?$AAS?$AAT?$AA?$AA@| DCB "P"
	DCB	0x0, "O", 0x0, "W", 0x0, "E", 0x0, "R", 0x0, "D", 0x0, "O"
	DCB	0x0, "M", 0x0, "A", 0x0, "I", 0x0, "N", 0x0, "_", 0x0, "U"
	DCB	0x0, "S", 0x0, "B", 0x0, "H", 0x0, "O", 0x0, "S", 0x0, "T"
	DCB	0x0, 0x0, 0x0				; `string'

  00000			 AREA	 |.rdata|, DATA, READONLY
|??_C@_1CO@GHAPCMEA@?$AAP?$AAO?$AAW?$AAE?$AAR?$AAD?$AAO?$AAM?$AAA?$AAI?$AAN?$AA_?$AAP?$AAE?$AAR?$AAI?$AAP?$AAH?$AAE?$AAR?$AAA?$AAL?$AA?$AA@| DCB "P"
	DCB	0x0, "O", 0x0, "W", 0x0, "E", 0x0, "R", 0x0, "D", 0x0, "O"
	DCB	0x0, "M", 0x0, "A", 0x0, "I", 0x0, "N", 0x0, "_", 0x0, "P"
	DCB	0x0, "E", 0x0, "R", 0x0, "I", 0x0, "P", 0x0, "H", 0x0, "E"
	DCB	0x0, "R", 0x0, "A", 0x0, "L", 0x0, 0x0, 0x0 ; `string'

  00000			 AREA	 |.rdata|, DATA, READONLY
|??_C@_1CC@DPNIOGJP@?$AAP?$AAO?$AAW?$AAE?$AAR?$AAD?$AAO?$AAM?$AAA?$AAI?$AAN?$AA_?$AAC?$AAO?$AAR?$AAE?$AA?$AA@| DCB "P"
	DCB	0x0, "O", 0x0, "W", 0x0, "E", 0x0, "R", 0x0, "D", 0x0, "O"
	DCB	0x0, "M", 0x0, "A", 0x0, "I", 0x0, "N", 0x0, "_", 0x0, "C"
	DCB	0x0, "O", 0x0, "R", 0x0, "E", 0x0, 0x0, 0x0 ; `string'

  00000			 AREA	 |.rdata|, DATA, READONLY
|??_C@_1CG@GNBBGDGH@?$AAP?$AAO?$AAW?$AAE?$AAR?$AAD?$AAO?$AAM?$AAA?$AAI?$AAN?$AA_?$AAW?$AAA?$AAK?$AAE?$AAU?$AAP?$AA?$AA@| DCB "P"
	DCB	0x0, "O", 0x0, "W", 0x0, "E", 0x0, "R", 0x0, "D", 0x0, "O"
	DCB	0x0, "M", 0x0, "A", 0x0, "I", 0x0, "N", 0x0, "_", 0x0, "W"
	DCB	0x0, "A", 0x0, "K", 0x0, "E", 0x0, "U", 0x0, "P", 0x0, 0x0
	DCB	0x0					; `string'

  00000			 AREA	 |.rdata|, DATA, READONLY
|??_C@_1CI@CGCHDENN@?$AAO?$AAM?$AAA?$AAP?$AA_?$AAD?$AAE?$AAV?$AAI?$AAC?$AAE?$AA_?$AAG?$AAE?$AAN?$AAE?$AAR?$AAI?$AAC?$AA?$AA@| DCB "O"
	DCB	0x0, "M", 0x0, "A", 0x0, "P", 0x0, "_", 0x0, "D", 0x0, "E"
	DCB	0x0, "V", 0x0, "I", 0x0, "C", 0x0, "E", 0x0, "_", 0x0, "G"
	DCB	0x0, "E", 0x0, "N", 0x0, "E", 0x0, "R", 0x0, "I", 0x0, "C"
	DCB	0x0, 0x0, 0x0				; `string'

  00000			 AREA	 |.rdata|, DATA, READONLY
|??_C@_1CE@GFGBLIBN@?$AAO?$AAM?$AAA?$AAP?$AA_?$AAD?$AAE?$AAV?$AAI?$AAC?$AAE?$AA_?$AAU?$AAA?$AAR?$AAT?$AA4?$AA?$AA@| DCB "O"
	DCB	0x0, "M", 0x0, "A", 0x0, "P", 0x0, "_", 0x0, "D", 0x0, "E"
	DCB	0x0, "V", 0x0, "I", 0x0, "C", 0x0, "E", 0x0, "_", 0x0, "U"
	DCB	0x0, "A", 0x0, "R", 0x0, "T", 0x0, "4", 0x0, 0x0, 0x0 ; `string'

  00000			 AREA	 |.rdata|, DATA, READONLY
|??_C@_1CC@JFKAJPFG@?$AAO?$AAM?$AAA?$AAP?$AA_?$AAD?$AAE?$AAV?$AAI?$AAC?$AAE?$AA_?$AAV?$AAR?$AAF?$AAB?$AA?$AA@| DCB "O"
	DCB	0x0, "M", 0x0, "A", 0x0, "P", 0x0, "_", 0x0, "D", 0x0, "E"
	DCB	0x0, "V", 0x0, "I", 0x0, "C", 0x0, "E", 0x0, "_", 0x0, "V"
	DCB	0x0, "R", 0x0, "F", 0x0, "B", 0x0, 0x0, 0x0 ; `string'

  00000			 AREA	 |.rdata|, DATA, READONLY
|??_C@_1CK@PMNPNLDF@?$AAO?$AAM?$AAA?$AAP?$AA_?$AAD?$AAE?$AAV?$AAI?$AAC?$AAE?$AA_?$AAU?$AAS?$AAB?$AAH?$AAO?$AAS?$AAT?$AA3?$AA?$AA@| DCB "O"
	DCB	0x0, "M", 0x0, "A", 0x0, "P", 0x0, "_", 0x0, "D", 0x0, "E"
	DCB	0x0, "V", 0x0, "I", 0x0, "C", 0x0, "E", 0x0, "_", 0x0, "U"
	DCB	0x0, "S", 0x0, "B", 0x0, "H", 0x0, "O", 0x0, "S", 0x0, "T"
	DCB	0x0, "3", 0x0, 0x0, 0x0			; `string'

  00000			 AREA	 |.rdata|, DATA, READONLY
|??_C@_1CK@EEGDLMFA@?$AAO?$AAM?$AAA?$AAP?$AA_?$AAD?$AAE?$AAV?$AAI?$AAC?$AAE?$AA_?$AAU?$AAS?$AAB?$AAH?$AAO?$AAS?$AAT?$AA2?$AA?$AA@| DCB "O"
	DCB	0x0, "M", 0x0, "A", 0x0, "P", 0x0, "_", 0x0, "D", 0x0, "E"
	DCB	0x0, "V", 0x0, "I", 0x0, "C", 0x0, "E", 0x0, "_", 0x0, "U"
	DCB	0x0, "S", 0x0, "B", 0x0, "H", 0x0, "O", 0x0, "S", 0x0, "T"
	DCB	0x0, "2", 0x0, 0x0, 0x0			; `string'

  00000			 AREA	 |.rdata|, DATA, READONLY
|??_C@_1CK@FGNGBDLO@?$AAO?$AAM?$AAA?$AAP?$AA_?$AAD?$AAE?$AAV?$AAI?$AAC?$AAE?$AA_?$AAU?$AAS?$AAB?$AAH?$AAO?$AAS?$AAT?$AA1?$AA?$AA@| DCB "O"
	DCB	0x0, "M", 0x0, "A", 0x0, "P", 0x0, "_", 0x0, "D", 0x0, "E"
	DCB	0x0, "V", 0x0, "I", 0x0, "C", 0x0, "E", 0x0, "_", 0x0, "U"
	DCB	0x0, "S", 0x0, "B", 0x0, "H", 0x0, "O", 0x0, "S", 0x0, "T"
	DCB	0x0, "1", 0x0, 0x0, 0x0			; `string'

  00000			 AREA	 |.rdata|, DATA, READONLY
|??_C@_1CG@GEPNMBAB@?$AAO?$AAM?$AAA?$AAP?$AA_?$AAD?$AAE?$AAV?$AAI?$AAC?$AAE?$AA_?$AAH?$AAS?$AAU?$AAS?$AAB?$AA2?$AA?$AA@| DCB "O"
	DCB	0x0, "M", 0x0, "A", 0x0, "P", 0x0, "_", 0x0, "D", 0x0, "E"
	DCB	0x0, "V", 0x0, "I", 0x0, "C", 0x0, "E", 0x0, "_", 0x0, "H"
	DCB	0x0, "S", 0x0, "U", 0x0, "S", 0x0, "B", 0x0, "2", 0x0, 0x0
	DCB	0x0					; `string'

  00000			 AREA	 |.rdata|, DATA, READONLY
|??_C@_1CG@HGEIGOOP@?$AAO?$AAM?$AAA?$AAP?$AA_?$AAD?$AAE?$AAV?$AAI?$AAC?$AAE?$AA_?$AAH?$AAS?$AAU?$AAS?$AAB?$AA1?$AA?$AA@| DCB "O"
	DCB	0x0, "M", 0x0, "A", 0x0, "P", 0x0, "_", 0x0, "D", 0x0, "E"
	DCB	0x0, "V", 0x0, "I", 0x0, "C", 0x0, "E", 0x0, "_", 0x0, "H"
	DCB	0x0, "S", 0x0, "U", 0x0, "S", 0x0, "B", 0x0, "1", 0x0, 0x0
	DCB	0x0					; `string'

  00000			 AREA	 |.rdata|, DATA, READONLY
|??_C@_1CA@GGCFDGLE@?$AAO?$AAM?$AAA?$AAP?$AA_?$AAD?$AAE?$AAV?$AAI?$AAC?$AAE?$AA_?$AAS?$AAG?$AAX?$AA?$AA@| DCB "O"
	DCB	0x0, "M", 0x0, "A", 0x0, "P", 0x0, "_", 0x0, "D", 0x0, "E"
	DCB	0x0, "V", 0x0, "I", 0x0, "C", 0x0, "E", 0x0, "_", 0x0, "S"
	DCB	0x0, "G", 0x0, "X", 0x0, 0x0, 0x0	; `string'

  00000			 AREA	 |.rdata|, DATA, READONLY
|??_C@_1BO@LMDKBCBP@?$AAO?$AAM?$AAA?$AAP?$AA_?$AAD?$AAE?$AAV?$AAI?$AAC?$AAE?$AA_?$AA3?$AAD?$AA?$AA@| DCB "O"
	DCB	0x0, "M", 0x0, "A", 0x0, "P", 0x0, "_", 0x0, "D", 0x0, "E"
	DCB	0x0, "V", 0x0, "I", 0x0, "C", 0x0, "E", 0x0, "_", 0x0, "3"
	DCB	0x0, "D", 0x0, 0x0, 0x0			; `string'

  00000			 AREA	 |.rdata|, DATA, READONLY
|??_C@_1BO@HHGGMBLK@?$AAO?$AAM?$AAA?$AAP?$AA_?$AAD?$AAE?$AAV?$AAI?$AAC?$AAE?$AA_?$AA2?$AAD?$AA?$AA@| DCB "O"
	DCB	0x0, "M", 0x0, "A", 0x0, "P", 0x0, "_", 0x0, "D", 0x0, "E"
	DCB	0x0, "V", 0x0, "I", 0x0, "C", 0x0, "E", 0x0, "_", 0x0, "2"
	DCB	0x0, "D", 0x0, 0x0, 0x0			; `string'

  00000			 AREA	 |.rdata|, DATA, READONLY
|??_C@_1CA@ENKIGGOE@?$AAO?$AAM?$AAA?$AAP?$AA_?$AAD?$AAE?$AAV?$AAI?$AAC?$AAE?$AA_?$AAD?$AAS?$AAP?$AA?$AA@| DCB "O"
	DCB	0x0, "M", 0x0, "A", 0x0, "P", 0x0, "_", 0x0, "D", 0x0, "E"
	DCB	0x0, "V", 0x0, "I", 0x0, "C", 0x0, "E", 0x0, "_", 0x0, "D"
	DCB	0x0, "S", 0x0, "P", 0x0, 0x0, 0x0	; `string'

  00000			 AREA	 |.rdata|, DATA, READONLY
|??_C@_1CC@COEMHCN@?$AAO?$AAM?$AAA?$AAP?$AA_?$AAD?$AAE?$AAV?$AAI?$AAC?$AAE?$AA_?$AAC?$AAS?$AAI?$AA2?$AA?$AA@| DCB "O"
	DCB	0x0, "M", 0x0, "A", 0x0, "P", 0x0, "_", 0x0, "D", 0x0, "E"
	DCB	0x0, "V", 0x0, "I", 0x0, "C", 0x0, "E", 0x0, "_", 0x0, "C"
	DCB	0x0, "S", 0x0, "I", 0x0, "2", 0x0, 0x0, 0x0 ; `string'

  00000			 AREA	 |.rdata|, DATA, READONLY
|??_C@_1CG@DPBHHNNG@?$AAO?$AAM?$AAA?$AAP?$AA_?$AAD?$AAE?$AAV?$AAI?$AAC?$AAE?$AA_?$AAC?$AAA?$AAM?$AAE?$AAR?$AAA?$AA?$AA@| DCB "O"
	DCB	0x0, "M", 0x0, "A", 0x0, "P", 0x0, "_", 0x0, "D", 0x0, "E"
	DCB	0x0, "V", 0x0, "I", 0x0, "C", 0x0, "E", 0x0, "_", 0x0, "C"
	DCB	0x0, "A", 0x0, "M", 0x0, "E", 0x0, "R", 0x0, "A", 0x0, 0x0
	DCB	0x0					; `string'

  00000			 AREA	 |.rdata|, DATA, READONLY
|??_C@_1CE@CMHCGOLP@?$AAO?$AAM?$AAA?$AAP?$AA_?$AAD?$AAE?$AAV?$AAI?$AAC?$AAE?$AA_?$AAT?$AAV?$AAO?$AAU?$AAT?$AA?$AA@| DCB "O"
	DCB	0x0, "M", 0x0, "A", 0x0, "P", 0x0, "_", 0x0, "D", 0x0, "E"
	DCB	0x0, "V", 0x0, "I", 0x0, "C", 0x0, "E", 0x0, "_", 0x0, "T"
	DCB	0x0, "V", 0x0, "O", 0x0, "U", 0x0, "T", 0x0, 0x0, 0x0 ; `string'

  00000			 AREA	 |.rdata|, DATA, READONLY
|??_C@_1CC@ECHFPNKJ@?$AAO?$AAM?$AAA?$AAP?$AA_?$AAD?$AAE?$AAV?$AAI?$AAC?$AAE?$AA_?$AAD?$AAS?$AAS?$AA2?$AA?$AA@| DCB "O"
	DCB	0x0, "M", 0x0, "A", 0x0, "P", 0x0, "_", 0x0, "D", 0x0, "E"
	DCB	0x0, "V", 0x0, "I", 0x0, "C", 0x0, "E", 0x0, "_", 0x0, "D"
	DCB	0x0, "S", 0x0, "S", 0x0, "2", 0x0, 0x0, 0x0 ; `string'

  00000			 AREA	 |.rdata|, DATA, READONLY
|??_C@_1CC@FAMAFCEH@?$AAO?$AAM?$AAA?$AAP?$AA_?$AAD?$AAE?$AAV?$AAI?$AAC?$AAE?$AA_?$AAD?$AAS?$AAS?$AA1?$AA?$AA@| DCB "O"
	DCB	0x0, "M", 0x0, "A", 0x0, "P", 0x0, "_", 0x0, "D", 0x0, "E"
	DCB	0x0, "V", 0x0, "I", 0x0, "C", 0x0, "E", 0x0, "_", 0x0, "D"
	DCB	0x0, "S", 0x0, "S", 0x0, "1", 0x0, 0x0, 0x0 ; `string'

  00000			 AREA	 |.rdata|, DATA, READONLY
|??_C@_1CA@FPBNMJAK@?$AAO?$AAM?$AAA?$AAP?$AA_?$AAD?$AAE?$AAV?$AAI?$AAC?$AAE?$AA_?$AAD?$AAS?$AAS?$AA?$AA@| DCB "O"
	DCB	0x0, "M", 0x0, "A", 0x0, "P", 0x0, "_", 0x0, "D", 0x0, "E"
	DCB	0x0, "V", 0x0, "I", 0x0, "C", 0x0, "E", 0x0, "_", 0x0, "D"
	DCB	0x0, "S", 0x0, "S", 0x0, 0x0, 0x0	; `string'

  00000			 AREA	 |.rdata|, DATA, READONLY
|??_C@_1CC@FNCLKIKN@?$AAO?$AAM?$AAA?$AAP?$AA_?$AAD?$AAE?$AAV?$AAI?$AAC?$AAE?$AA_?$AAW?$AAD?$AAT?$AA3?$AA?$AA@| DCB "O"
	DCB	0x0, "M", 0x0, "A", 0x0, "P", 0x0, "_", 0x0, "D", 0x0, "E"
	DCB	0x0, "V", 0x0, "I", 0x0, "C", 0x0, "E", 0x0, "_", 0x0, "W"
	DCB	0x0, "D", 0x0, "T", 0x0, "3", 0x0, 0x0, 0x0 ; `string'

  00000			 AREA	 |.rdata|, DATA, READONLY
|??_C@_1CE@PILGIAKE@?$AAO?$AAM?$AAA?$AAP?$AA_?$AAD?$AAE?$AAV?$AAI?$AAC?$AAE?$AA_?$AAU?$AAA?$AAR?$AAT?$AA3?$AA?$AA@| DCB "O"
	DCB	0x0, "M", 0x0, "A", 0x0, "P", 0x0, "_", 0x0, "D", 0x0, "E"
	DCB	0x0, "V", 0x0, "I", 0x0, "C", 0x0, "E", 0x0, "_", 0x0, "U"
	DCB	0x0, "A", 0x0, "R", 0x0, "T", 0x0, "3", 0x0, 0x0, 0x0 ; `string'

  00000			 AREA	 |.rdata|, DATA, READONLY
|??_C@_1CK@PMHAIIAB@?$AAO?$AAM?$AAA?$AAP?$AA_?$AAD?$AAE?$AAV?$AAI?$AAC?$AAE?$AA_?$AAG?$AAP?$AAT?$AAI?$AAM?$AAE?$AAR?$AA9?$AA?$AA@| DCB "O"
	DCB	0x0, "M", 0x0, "A", 0x0, "P", 0x0, "_", 0x0, "D", 0x0, "E"
	DCB	0x0, "V", 0x0, "I", 0x0, "C", 0x0, "E", 0x0, "_", 0x0, "G"
	DCB	0x0, "P", 0x0, "T", 0x0, "I", 0x0, "M", 0x0, "E", 0x0, "R"
	DCB	0x0, "9", 0x0, 0x0, 0x0			; `string'

  00000			 AREA	 |.rdata|, DATA, READONLY
|??_C@_1CK@EEMMOPGE@?$AAO?$AAM?$AAA?$AAP?$AA_?$AAD?$AAE?$AAV?$AAI?$AAC?$AAE?$AA_?$AAG?$AAP?$AAT?$AAI?$AAM?$AAE?$AAR?$AA8?$AA?$AA@| DCB "O"
	DCB	0x0, "M", 0x0, "A", 0x0, "P", 0x0, "_", 0x0, "D", 0x0, "E"
	DCB	0x0, "V", 0x0, "I", 0x0, "C", 0x0, "E", 0x0, "_", 0x0, "G"
	DCB	0x0, "P", 0x0, "T", 0x0, "I", 0x0, "M", 0x0, "E", 0x0, "R"
	DCB	0x0, "8", 0x0, 0x0, 0x0			; `string'

  00000			 AREA	 |.rdata|, DATA, READONLY
|??_C@_1CK@BMKPPPDC@?$AAO?$AAM?$AAA?$AAP?$AA_?$AAD?$AAE?$AAV?$AAI?$AAC?$AAE?$AA_?$AAG?$AAP?$AAT?$AAI?$AAM?$AAE?$AAR?$AA7?$AA?$AA@| DCB "O"
	DCB	0x0, "M", 0x0, "A", 0x0, "P", 0x0, "_", 0x0, "D", 0x0, "E"
	DCB	0x0, "V", 0x0, "I", 0x0, "C", 0x0, "E", 0x0, "_", 0x0, "G"
	DCB	0x0, "P", 0x0, "T", 0x0, "I", 0x0, "M", 0x0, "E", 0x0, "R"
	DCB	0x0, "7", 0x0, 0x0, 0x0			; `string'

  00000			 AREA	 |.rdata|, DATA, READONLY
|??_C@_1CK@KEBDJIFH@?$AAO?$AAM?$AAA?$AAP?$AA_?$AAD?$AAE?$AAV?$AAI?$AAC?$AAE?$AA_?$AAG?$AAP?$AAT?$AAI?$AAM?$AAE?$AAR?$AA6?$AA?$AA@| DCB "O"
	DCB	0x0, "M", 0x0, "A", 0x0, "P", 0x0, "_", 0x0, "D", 0x0, "E"
	DCB	0x0, "V", 0x0, "I", 0x0, "C", 0x0, "E", 0x0, "_", 0x0, "G"
	DCB	0x0, "P", 0x0, "T", 0x0, "I", 0x0, "M", 0x0, "E", 0x0, "R"
	DCB	0x0, "6", 0x0, 0x0, 0x0			; `string'

  00000			 AREA	 |.rdata|, DATA, READONLY
|??_C@_1CK@LGKGDHLJ@?$AAO?$AAM?$AAA?$AAP?$AA_?$AAD?$AAE?$AAV?$AAI?$AAC?$AAE?$AA_?$AAG?$AAP?$AAT?$AAI?$AAM?$AAE?$AAR?$AA5?$AA?$AA@| DCB "O"
	DCB	0x0, "M", 0x0, "A", 0x0, "P", 0x0, "_", 0x0, "D", 0x0, "E"
	DCB	0x0, "V", 0x0, "I", 0x0, "C", 0x0, "E", 0x0, "_", 0x0, "G"
	DCB	0x0, "P", 0x0, "T", 0x0, "I", 0x0, "M", 0x0, "E", 0x0, "R"
	DCB	0x0, "5", 0x0, 0x0, 0x0			; `string'

  00000			 AREA	 |.rdata|, DATA, READONLY
|??_C@_1CK@OBKFANM@?$AAO?$AAM?$AAA?$AAP?$AA_?$AAD?$AAE?$AAV?$AAI?$AAC?$AAE?$AA_?$AAG?$AAP?$AAT?$AAI?$AAM?$AAE?$AAR?$AA4?$AA?$AA@| DCB "O"
	DCB	0x0, "M", 0x0, "A", 0x0, "P", 0x0, "_", 0x0, "D", 0x0, "E"
	DCB	0x0, "V", 0x0, "I", 0x0, "C", 0x0, "E", 0x0, "_", 0x0, "G"
	DCB	0x0, "P", 0x0, "T", 0x0, "I", 0x0, "M", 0x0, "E", 0x0, "R"
	DCB	0x0, "4", 0x0, 0x0, 0x0			; `string'

  00000			 AREA	 |.rdata|, DATA, READONLY
|??_C@_1CK@JDMNGIGF@?$AAO?$AAM?$AAA?$AAP?$AA_?$AAD?$AAE?$AAV?$AAI?$AAC?$AAE?$AA_?$AAG?$AAP?$AAT?$AAI?$AAM?$AAE?$AAR?$AA3?$AA?$AA@| DCB "O"
	DCB	0x0, "M", 0x0, "A", 0x0, "P", 0x0, "_", 0x0, "D", 0x0, "E"
	DCB	0x0, "V", 0x0, "I", 0x0, "C", 0x0, "E", 0x0, "_", 0x0, "G"
	DCB	0x0, "P", 0x0, "T", 0x0, "I", 0x0, "M", 0x0, "E", 0x0, "R"
	DCB	0x0, "3", 0x0, 0x0, 0x0			; `string'

  00000			 AREA	 |.rdata|, DATA, READONLY
|??_C@_1CK@CLHBAPAA@?$AAO?$AAM?$AAA?$AAP?$AA_?$AAD?$AAE?$AAV?$AAI?$AAC?$AAE?$AA_?$AAG?$AAP?$AAT?$AAI?$AAM?$AAE?$AAR?$AA2?$AA?$AA@| DCB "O"
	DCB	0x0, "M", 0x0, "A", 0x0, "P", 0x0, "_", 0x0, "D", 0x0, "E"
	DCB	0x0, "V", 0x0, "I", 0x0, "C", 0x0, "E", 0x0, "_", 0x0, "G"
	DCB	0x0, "P", 0x0, "T", 0x0, "I", 0x0, "M", 0x0, "E", 0x0, "R"
	DCB	0x0, "2", 0x0, 0x0, 0x0			; `string'

  00000			 AREA	 |.rdata|, DATA, READONLY
|??_C@_1CG@ECEBCEEN@?$AAO?$AAM?$AAA?$AAP?$AA_?$AAD?$AAE?$AAV?$AAI?$AAC?$AAE?$AA_?$AAM?$AAC?$AAB?$AAS?$AAP?$AA4?$AA?$AA@| DCB "O"
	DCB	0x0, "M", 0x0, "A", 0x0, "P", 0x0, "_", 0x0, "D", 0x0, "E"
	DCB	0x0, "V", 0x0, "I", 0x0, "C", 0x0, "E", 0x0, "_", 0x0, "M"
	DCB	0x0, "C", 0x0, "B", 0x0, "S", 0x0, "P", 0x0, "4", 0x0, 0x0
	DCB	0x0					; `string'

  00000			 AREA	 |.rdata|, DATA, READONLY
|??_C@_1CG@NPJGBMPE@?$AAO?$AAM?$AAA?$AAP?$AA_?$AAD?$AAE?$AAV?$AAI?$AAC?$AAE?$AA_?$AAM?$AAC?$AAB?$AAS?$AAP?$AA3?$AA?$AA@| DCB "O"
	DCB	0x0, "M", 0x0, "A", 0x0, "P", 0x0, "_", 0x0, "D", 0x0, "E"
	DCB	0x0, "V", 0x0, "I", 0x0, "C", 0x0, "E", 0x0, "_", 0x0, "M"
	DCB	0x0, "C", 0x0, "B", 0x0, "S", 0x0, "P", 0x0, "3", 0x0, 0x0
	DCB	0x0					; `string'

  00000			 AREA	 |.rdata|, DATA, READONLY
|??_C@_1CG@GHCKHLJB@?$AAO?$AAM?$AAA?$AAP?$AA_?$AAD?$AAE?$AAV?$AAI?$AAC?$AAE?$AA_?$AAM?$AAC?$AAB?$AAS?$AAP?$AA2?$AA?$AA@| DCB "O"
	DCB	0x0, "M", 0x0, "A", 0x0, "P", 0x0, "_", 0x0, "D", 0x0, "E"
	DCB	0x0, "V", 0x0, "I", 0x0, "C", 0x0, "E", 0x0, "_", 0x0, "M"
	DCB	0x0, "C", 0x0, "B", 0x0, "S", 0x0, "P", 0x0, "2", 0x0, 0x0
	DCB	0x0					; `string'

  00000			 AREA	 |.rdata|, DATA, READONLY
|??_C@_1CE@KPOHDGAG@?$AAO?$AAM?$AAA?$AAP?$AA_?$AAD?$AAE?$AAV?$AAI?$AAC?$AAE?$AA_?$AAG?$AAP?$AAI?$AAO?$AA6?$AA?$AA@| DCB "O"
	DCB	0x0, "M", 0x0, "A", 0x0, "P", 0x0, "_", 0x0, "D", 0x0, "E"
	DCB	0x0, "V", 0x0, "I", 0x0, "C", 0x0, "E", 0x0, "_", 0x0, "G"
	DCB	0x0, "P", 0x0, "I", 0x0, "O", 0x0, "6", 0x0, 0x0, 0x0 ; `string'

  00000			 AREA	 |.rdata|, DATA, READONLY
|??_C@_1CE@LNFCJJOI@?$AAO?$AAM?$AAA?$AAP?$AA_?$AAD?$AAE?$AAV?$AAI?$AAC?$AAE?$AA_?$AAG?$AAP?$AAI?$AAO?$AA5?$AA?$AA@| DCB "O"
	DCB	0x0, "M", 0x0, "A", 0x0, "P", 0x0, "_", 0x0, "D", 0x0, "E"
	DCB	0x0, "V", 0x0, "I", 0x0, "C", 0x0, "E", 0x0, "_", 0x0, "G"
	DCB	0x0, "P", 0x0, "I", 0x0, "O", 0x0, "5", 0x0, 0x0, 0x0 ; `string'

  00000			 AREA	 |.rdata|, DATA, READONLY
|??_C@_1CE@FOOPOIN@?$AAO?$AAM?$AAA?$AAP?$AA_?$AAD?$AAE?$AAV?$AAI?$AAC?$AAE?$AA_?$AAG?$AAP?$AAI?$AAO?$AA4?$AA?$AA@| DCB "O"
	DCB	0x0, "M", 0x0, "A", 0x0, "P", 0x0, "_", 0x0, "D", 0x0, "E"
	DCB	0x0, "V", 0x0, "I", 0x0, "C", 0x0, "E", 0x0, "_", 0x0, "G"
	DCB	0x0, "P", 0x0, "I", 0x0, "O", 0x0, "4", 0x0, 0x0, 0x0 ; `string'

  00000			 AREA	 |.rdata|, DATA, READONLY
|??_C@_1CE@JIDJMGDE@?$AAO?$AAM?$AAA?$AAP?$AA_?$AAD?$AAE?$AAV?$AAI?$AAC?$AAE?$AA_?$AAG?$AAP?$AAI?$AAO?$AA3?$AA?$AA@| DCB "O"
	DCB	0x0, "M", 0x0, "A", 0x0, "P", 0x0, "_", 0x0, "D", 0x0, "E"
	DCB	0x0, "V", 0x0, "I", 0x0, "C", 0x0, "E", 0x0, "_", 0x0, "G"
	DCB	0x0, "P", 0x0, "I", 0x0, "O", 0x0, "3", 0x0, 0x0, 0x0 ; `string'

  00000			 AREA	 |.rdata|, DATA, READONLY
|??_C@_1CE@CAIFKBFB@?$AAO?$AAM?$AAA?$AAP?$AA_?$AAD?$AAE?$AAV?$AAI?$AAC?$AAE?$AA_?$AAG?$AAP?$AAI?$AAO?$AA2?$AA?$AA@| DCB "O"
	DCB	0x0, "M", 0x0, "A", 0x0, "P", 0x0, "_", 0x0, "D", 0x0, "E"
	DCB	0x0, "V", 0x0, "I", 0x0, "C", 0x0, "E", 0x0, "_", 0x0, "G"
	DCB	0x0, "P", 0x0, "I", 0x0, "O", 0x0, "2", 0x0, 0x0, 0x0 ; `string'

  00000			 AREA	 |.rdata|, DATA, READONLY
|??_C@_1CC@BLAIIGEI@?$AAO?$AAM?$AAA?$AAP?$AA_?$AAD?$AAE?$AAV?$AAI?$AAC?$AAE?$AA_?$AAU?$AAS?$AAI?$AAM?$AA?$AA@| DCB "O"
	DCB	0x0, "M", 0x0, "A", 0x0, "P", 0x0, "_", 0x0, "D", 0x0, "E"
	DCB	0x0, "V", 0x0, "I", 0x0, "C", 0x0, "E", 0x0, "_", 0x0, "U"
	DCB	0x0, "S", 0x0, "I", 0x0, "M", 0x0, 0x0, 0x0 ; `string'

  00000			 AREA	 |.rdata|, DATA, READONLY
|??_C@_1CA@GBKFLCPL@?$AAO?$AAM?$AAA?$AAP?$AA_?$AAD?$AAE?$AAV?$AAI?$AAC?$AAE?$AA_?$AAS?$AAR?$AA2?$AA?$AA@| DCB "O"
	DCB	0x0, "M", 0x0, "A", 0x0, "P", 0x0, "_", 0x0, "D", 0x0, "E"
	DCB	0x0, "V", 0x0, "I", 0x0, "C", 0x0, "E", 0x0, "_", 0x0, "S"
	DCB	0x0, "R", 0x0, "2", 0x0, 0x0, 0x0	; `string'

  00000			 AREA	 |.rdata|, DATA, READONLY
|??_C@_1CA@HDBABNBF@?$AAO?$AAM?$AAA?$AAP?$AA_?$AAD?$AAE?$AAV?$AAI?$AAC?$AAE?$AA_?$AAS?$AAR?$AA1?$AA?$AA@| DCB "O"
	DCB	0x0, "M", 0x0, "A", 0x0, "P", 0x0, "_", 0x0, "D", 0x0, "E"
	DCB	0x0, "V", 0x0, "I", 0x0, "C", 0x0, "E", 0x0, "_", 0x0, "S"
	DCB	0x0, "R", 0x0, "1", 0x0, 0x0, 0x0	; `string'

  00000			 AREA	 |.rdata|, DATA, READONLY
|??_C@_1CE@DCDAAOLP@?$AAO?$AAM?$AAA?$AAP?$AA_?$AAD?$AAE?$AAV?$AAI?$AAC?$AAE?$AA_?$AAG?$AAP?$AAI?$AAO?$AA1?$AA?$AA@| DCB "O"
	DCB	0x0, "M", 0x0, "A", 0x0, "P", 0x0, "_", 0x0, "D", 0x0, "E"
	DCB	0x0, "V", 0x0, "I", 0x0, "C", 0x0, "E", 0x0, "_", 0x0, "G"
	DCB	0x0, "P", 0x0, "I", 0x0, "O", 0x0, "1", 0x0, 0x0, 0x0 ; `string'

  00000			 AREA	 |.rdata|, DATA, READONLY
|??_C@_1CC@OFJHMPMI@?$AAO?$AAM?$AAA?$AAP?$AA_?$AAD?$AAE?$AAV?$AAI?$AAC?$AAE?$AA_?$AAW?$AAD?$AAT?$AA2?$AA?$AA@| DCB "O"
	DCB	0x0, "M", 0x0, "A", 0x0, "P", 0x0, "_", 0x0, "D", 0x0, "E"
	DCB	0x0, "V", 0x0, "I", 0x0, "C", 0x0, "E", 0x0, "_", 0x0, "W"
	DCB	0x0, "D", 0x0, "T", 0x0, "2", 0x0, 0x0, 0x0 ; `string'

  00000			 AREA	 |.rdata|, DATA, READONLY
|??_C@_1CC@PHCCGACG@?$AAO?$AAM?$AAA?$AAP?$AA_?$AAD?$AAE?$AAV?$AAI?$AAC?$AAE?$AA_?$AAW?$AAD?$AAT?$AA1?$AA?$AA@| DCB "O"
	DCB	0x0, "M", 0x0, "A", 0x0, "P", 0x0, "_", 0x0, "D", 0x0, "E"
	DCB	0x0, "V", 0x0, "I", 0x0, "C", 0x0, "E", 0x0, "_", 0x0, "W"
	DCB	0x0, "D", 0x0, "T", 0x0, "1", 0x0, 0x0, 0x0 ; `string'

  00000			 AREA	 |.rdata|, DATA, READONLY
|??_C@_1CI@FAKOHIJH@?$AAO?$AAM?$AAA?$AAP?$AA_?$AAD?$AAE?$AAV?$AAI?$AAC?$AAE?$AA_?$AA3?$AA2?$AAK?$AAS?$AAY?$AAN?$AAC?$AA?$AA@| DCB "O"
	DCB	0x0, "M", 0x0, "A", 0x0, "P", 0x0, "_", 0x0, "D", 0x0, "E"
	DCB	0x0, "V", 0x0, "I", 0x0, "C", 0x0, "E", 0x0, "_", 0x0, "3"
	DCB	0x0, "2", 0x0, "K", 0x0, "S", 0x0, "Y", 0x0, "N", 0x0, "C"
	DCB	0x0, 0x0, 0x0				; `string'

  00000			 AREA	 |.rdata|, DATA, READONLY
|??_C@_1CM@EMAJHEGE@?$AAO?$AAM?$AAA?$AAP?$AA_?$AAD?$AAE?$AAV?$AAI?$AAC?$AAE?$AA_?$AAG?$AAP?$AAT?$AAI?$AAM?$AAE?$AAR?$AA1?$AA2?$AA?$AA@| DCB "O"
	DCB	0x0, "M", 0x0, "A", 0x0, "P", 0x0, "_", 0x0, "D", 0x0, "E"
	DCB	0x0, "V", 0x0, "I", 0x0, "C", 0x0, "E", 0x0, "_", 0x0, "G"
	DCB	0x0, "P", 0x0, "T", 0x0, "I", 0x0, "M", 0x0, "E", 0x0, "R"
	DCB	0x0, "1", 0x0, "2", 0x0, 0x0, 0x0	; `string'

  00000			 AREA	 |.rdata|, DATA, READONLY
|??_C@_1CK@DJMEKAOO@?$AAO?$AAM?$AAA?$AAP?$AA_?$AAD?$AAE?$AAV?$AAI?$AAC?$AAE?$AA_?$AAG?$AAP?$AAT?$AAI?$AAM?$AAE?$AAR?$AA1?$AA?$AA@| DCB "O"
	DCB	0x0, "M", 0x0, "A", 0x0, "P", 0x0, "_", 0x0, "D", 0x0, "E"
	DCB	0x0, "V", 0x0, "I", 0x0, "C", 0x0, "E", 0x0, "_", 0x0, "G"
	DCB	0x0, "P", 0x0, "T", 0x0, "I", 0x0, "M", 0x0, "E", 0x0, "R"
	DCB	0x0, "1", 0x0, 0x0, 0x0			; `string'

  00000			 AREA	 |.rdata|, DATA, READONLY
|??_C@_1CE@EPOGLAMA@?$AAO?$AAM?$AAA?$AAP?$AA_?$AAD?$AAE?$AAV?$AAI?$AAC?$AAE?$AA_?$AAE?$AAF?$AAU?$AAS?$AAE?$AA?$AA@| DCB "O"
	DCB	0x0, "M", 0x0, "A", 0x0, "P", 0x0, "_", 0x0, "D", 0x0, "E"
	DCB	0x0, "V", 0x0, "I", 0x0, "C", 0x0, "E", 0x0, "_", 0x0, "E"
	DCB	0x0, "F", 0x0, "U", 0x0, "S", 0x0, "E", 0x0, 0x0, 0x0 ; `string'

  00000			 AREA	 |.rdata|, DATA, READONLY
|??_C@_1BO@GEAFECNL@?$AAO?$AAM?$AAA?$AAP?$AA_?$AAD?$AAE?$AAV?$AAI?$AAC?$AAE?$AA_?$AAT?$AAS?$AA?$AA@| DCB "O"
	DCB	0x0, "M", 0x0, "A", 0x0, "P", 0x0, "_", 0x0, "D", 0x0, "E"
	DCB	0x0, "V", 0x0, "I", 0x0, "C", 0x0, "E", 0x0, "_", 0x0, "T"
	DCB	0x0, "S", 0x0, 0x0, 0x0			; `string'

  00000			 AREA	 |.rdata|, DATA, READONLY
|??_C@_1CG@MLOIKIGB@?$AAO?$AAM?$AAA?$AAP?$AA_?$AAD?$AAE?$AAV?$AAI?$AAC?$AAE?$AA_?$AAU?$AAS?$AAB?$AAT?$AAL?$AAL?$AA?$AA@| DCB "O"
	DCB	0x0, "M", 0x0, "A", 0x0, "P", 0x0, "_", 0x0, "D", 0x0, "E"
	DCB	0x0, "V", 0x0, "I", 0x0, "C", 0x0, "E", 0x0, "_", 0x0, "U"
	DCB	0x0, "S", 0x0, "B", 0x0, "T", 0x0, "L", 0x0, "L", 0x0, 0x0
	DCB	0x0					; `string'

  00000			 AREA	 |.rdata|, DATA, READONLY
|??_C@_1CA@LCHJOJDJ@?$AAO?$AAM?$AAA?$AAP?$AA_?$AAD?$AAE?$AAV?$AAI?$AAC?$AAE?$AA_?$AAP?$AAK?$AAA?$AA?$AA@| DCB "O"
	DCB	0x0, "M", 0x0, "A", 0x0, "P", 0x0, "_", 0x0, "D", 0x0, "E"
	DCB	0x0, "V", 0x0, "I", 0x0, "C", 0x0, "E", 0x0, "_", 0x0, "P"
	DCB	0x0, "K", 0x0, "A", 0x0, 0x0, 0x0	; `string'

  00000			 AREA	 |.rdata|, DATA, READONLY
|??_C@_1CC@MDNKBKP@?$AAO?$AAM?$AAA?$AAP?$AA_?$AAD?$AAE?$AAV?$AAI?$AAC?$AAE?$AA_?$AAA?$AAE?$AAS?$AA1?$AA?$AA@| DCB "O"
	DCB	0x0, "M", 0x0, "A", 0x0, "P", 0x0, "_", 0x0, "D", 0x0, "E"
	DCB	0x0, "V", 0x0, "I", 0x0, "C", 0x0, "E", 0x0, "_", 0x0, "A"
	DCB	0x0, "E", 0x0, "S", 0x0, "1", 0x0, 0x0, 0x0 ; `string'

  00000			 AREA	 |.rdata|, DATA, READONLY
|??_C@_1CA@IFPKCACL@?$AAO?$AAM?$AAA?$AAP?$AA_?$AAD?$AAE?$AAV?$AAI?$AAC?$AAE?$AA_?$AAR?$AAN?$AAG?$AA?$AA@| DCB "O"
	DCB	0x0, "M", 0x0, "A", 0x0, "P", 0x0, "_", 0x0, "D", 0x0, "E"
	DCB	0x0, "V", 0x0, "I", 0x0, "C", 0x0, "E", 0x0, "_", 0x0, "R"
	DCB	0x0, "N", 0x0, "G", 0x0, 0x0, 0x0	; `string'

  00000			 AREA	 |.rdata|, DATA, READONLY
|??_C@_1CE@OLJKGOCE@?$AAO?$AAM?$AAA?$AAP?$AA_?$AAD?$AAE?$AAV?$AAI?$AAC?$AAE?$AA_?$AAS?$AAH?$AAA?$AA1?$AA1?$AA?$AA@| DCB "O"
	DCB	0x0, "M", 0x0, "A", 0x0, "P", 0x0, "_", 0x0, "D", 0x0, "E"
	DCB	0x0, "V", 0x0, "I", 0x0, "C", 0x0, "E", 0x0, "_", 0x0, "S"
	DCB	0x0, "H", 0x0, "A", 0x0, "1", 0x0, "1", 0x0, 0x0, 0x0 ; `string'

  00000			 AREA	 |.rdata|, DATA, READONLY
|??_C@_1CC@OKBEGKOL@?$AAO?$AAM?$AAA?$AAP?$AA_?$AAD?$AAE?$AAV?$AAI?$AAC?$AAE?$AA_?$AAD?$AAE?$AAS?$AA1?$AA?$AA@| DCB "O"
	DCB	0x0, "M", 0x0, "A", 0x0, "P", 0x0, "_", 0x0, "D", 0x0, "E"
	DCB	0x0, "V", 0x0, "I", 0x0, "C", 0x0, "E", 0x0, "_", 0x0, "D"
	DCB	0x0, "E", 0x0, "S", 0x0, "1", 0x0, 0x0, 0x0 ; `string'

  00000			 AREA	 |.rdata|, DATA, READONLY
|??_C@_1CA@HPHCLJCF@?$AAO?$AAM?$AAA?$AAP?$AA_?$AAD?$AAE?$AAV?$AAI?$AAC?$AAE?$AA_?$AAI?$AAC?$AAR?$AA?$AA@| DCB "O"
	DCB	0x0, "M", 0x0, "A", 0x0, "P", 0x0, "_", 0x0, "D", 0x0, "E"
	DCB	0x0, "V", 0x0, "I", 0x0, "C", 0x0, "E", 0x0, "_", 0x0, "I"
	DCB	0x0, "C", 0x0, "R", 0x0, 0x0, 0x0	; `string'

  00000			 AREA	 |.rdata|, DATA, READONLY
|??_C@_1CC@BOIIAOEB@?$AAO?$AAM?$AAA?$AAP?$AA_?$AAD?$AAE?$AAV?$AAI?$AAC?$AAE?$AA_?$AAA?$AAE?$AAS?$AA2?$AA?$AA@| DCB "O"
	DCB	0x0, "M", 0x0, "A", 0x0, "P", 0x0, "_", 0x0, "D", 0x0, "E"
	DCB	0x0, "V", 0x0, "I", 0x0, "C", 0x0, "E", 0x0, "_", 0x0, "A"
	DCB	0x0, "E", 0x0, "S", 0x0, "2", 0x0, 0x0, 0x0 ; `string'

  00000			 AREA	 |.rdata|, DATA, READONLY
|??_C@_1CE@PJCPMBMK@?$AAO?$AAM?$AAA?$AAP?$AA_?$AAD?$AAE?$AAV?$AAI?$AAC?$AAE?$AA_?$AAS?$AAH?$AAA?$AA1?$AA2?$AA?$AA@| DCB "O"
	DCB	0x0, "M", 0x0, "A", 0x0, "P", 0x0, "_", 0x0, "D", 0x0, "E"
	DCB	0x0, "V", 0x0, "I", 0x0, "C", 0x0, "E", 0x0, "_", 0x0, "S"
	DCB	0x0, "H", 0x0, "A", 0x0, "1", 0x0, "2", 0x0, 0x0, 0x0 ; `string'

  00000			 AREA	 |.rdata|, DATA, READONLY
|??_C@_1CC@PIKBMFAF@?$AAO?$AAM?$AAA?$AAP?$AA_?$AAD?$AAE?$AAV?$AAI?$AAC?$AAE?$AA_?$AAD?$AAE?$AAS?$AA2?$AA?$AA@| DCB "O"
	DCB	0x0, "M", 0x0, "A", 0x0, "P", 0x0, "_", 0x0, "D", 0x0, "E"
	DCB	0x0, "V", 0x0, "I", 0x0, "C", 0x0, "E", 0x0, "_", 0x0, "D"
	DCB	0x0, "E", 0x0, "S", 0x0, "2", 0x0, 0x0, 0x0 ; `string'

  00000			 AREA	 |.rdata|, DATA, READONLY
|??_C@_1CC@GMDLJAIE@?$AAO?$AAM?$AAA?$AAP?$AA_?$AAD?$AAE?$AAV?$AAI?$AAC?$AAE?$AA_?$AAM?$AAM?$AAC?$AA3?$AA?$AA@| DCB "O"
	DCB	0x0, "M", 0x0, "A", 0x0, "P", 0x0, "_", 0x0, "D", 0x0, "E"
	DCB	0x0, "V", 0x0, "I", 0x0, "C", 0x0, "E", 0x0, "_", 0x0, "M"
	DCB	0x0, "M", 0x0, "C", 0x0, "3", 0x0, 0x0, 0x0 ; `string'

  00000			 AREA	 |.rdata|, DATA, READONLY
|??_C@_1CC@NEIHPHOB@?$AAO?$AAM?$AAA?$AAP?$AA_?$AAD?$AAE?$AAV?$AAI?$AAC?$AAE?$AA_?$AAM?$AAM?$AAC?$AA2?$AA?$AA@| DCB "O"
	DCB	0x0, "M", 0x0, "A", 0x0, "P", 0x0, "_", 0x0, "D", 0x0, "E"
	DCB	0x0, "V", 0x0, "I", 0x0, "C", 0x0, "E", 0x0, "_", 0x0, "M"
	DCB	0x0, "M", 0x0, "C", 0x0, "2", 0x0, 0x0, 0x0 ; `string'

  00000			 AREA	 |.rdata|, DATA, READONLY
|??_C@_1CC@MGDCFIAP@?$AAO?$AAM?$AAA?$AAP?$AA_?$AAD?$AAE?$AAV?$AAI?$AAC?$AAE?$AA_?$AAM?$AAM?$AAC?$AA1?$AA?$AA@| DCB "O"
	DCB	0x0, "M", 0x0, "A", 0x0, "P", 0x0, "_", 0x0, "D", 0x0, "E"
	DCB	0x0, "V", 0x0, "I", 0x0, "C", 0x0, "E", 0x0, "_", 0x0, "M"
	DCB	0x0, "M", 0x0, "C", 0x0, "1", 0x0, 0x0, 0x0 ; `string'

  00000			 AREA	 |.rdata|, DATA, READONLY
|??_C@_1CE@GEGMLBDH@?$AAO?$AAM?$AAA?$AAP?$AA_?$AAD?$AAE?$AAV?$AAI?$AAC?$AAE?$AA_?$AAM?$AAS?$AAP?$AAR?$AAO?$AA?$AA@| DCB "O"
	DCB	0x0, "M", 0x0, "A", 0x0, "P", 0x0, "_", 0x0, "D", 0x0, "E"
	DCB	0x0, "V", 0x0, "I", 0x0, "C", 0x0, "E", 0x0, "_", 0x0, "M"
	DCB	0x0, "S", 0x0, "P", 0x0, "R", 0x0, "O", 0x0, 0x0, 0x0 ; `string'

  00000			 AREA	 |.rdata|, DATA, READONLY
|??_C@_1CA@LMGICGON@?$AAO?$AAM?$AAA?$AAP?$AA_?$AAD?$AAE?$AAV?$AAI?$AAC?$AAE?$AA_?$AAH?$AAD?$AAQ?$AA?$AA@| DCB "O"
	DCB	0x0, "M", 0x0, "A", 0x0, "P", 0x0, "_", 0x0, "D", 0x0, "E"
	DCB	0x0, "V", 0x0, "I", 0x0, "C", 0x0, "E", 0x0, "_", 0x0, "H"
	DCB	0x0, "D", 0x0, "Q", 0x0, 0x0, 0x0	; `string'

  00000			 AREA	 |.rdata|, DATA, READONLY
|??_C@_1CG@CAHLJKCL@?$AAO?$AAM?$AAA?$AAP?$AA_?$AAD?$AAE?$AAV?$AAI?$AAC?$AAE?$AA_?$AAM?$AAC?$AAS?$AAP?$AAI?$AA4?$AA?$AA@| DCB "O"
	DCB	0x0, "M", 0x0, "A", 0x0, "P", 0x0, "_", 0x0, "D", 0x0, "E"
	DCB	0x0, "V", 0x0, "I", 0x0, "C", 0x0, "E", 0x0, "_", 0x0, "M"
	DCB	0x0, "C", 0x0, "S", 0x0, "P", 0x0, "I", 0x0, "4", 0x0, 0x0
	DCB	0x0					; `string'

  00000			 AREA	 |.rdata|, DATA, READONLY
|??_C@_1CG@LNKMKCJC@?$AAO?$AAM?$AAA?$AAP?$AA_?$AAD?$AAE?$AAV?$AAI?$AAC?$AAE?$AA_?$AAM?$AAC?$AAS?$AAP?$AAI?$AA3?$AA?$AA@| DCB "O"
	DCB	0x0, "M", 0x0, "A", 0x0, "P", 0x0, "_", 0x0, "D", 0x0, "E"
	DCB	0x0, "V", 0x0, "I", 0x0, "C", 0x0, "E", 0x0, "_", 0x0, "M"
	DCB	0x0, "C", 0x0, "S", 0x0, "P", 0x0, "I", 0x0, "3", 0x0, 0x0
	DCB	0x0					; `string'

  00000			 AREA	 |.rdata|, DATA, READONLY
|??_C@_1CG@FBAMFPH@?$AAO?$AAM?$AAA?$AAP?$AA_?$AAD?$AAE?$AAV?$AAI?$AAC?$AAE?$AA_?$AAM?$AAC?$AAS?$AAP?$AAI?$AA2?$AA?$AA@| DCB "O"
	DCB	0x0, "M", 0x0, "A", 0x0, "P", 0x0, "_", 0x0, "D", 0x0, "E"
	DCB	0x0, "V", 0x0, "I", 0x0, "C", 0x0, "E", 0x0, "_", 0x0, "M"
	DCB	0x0, "C", 0x0, "S", 0x0, "P", 0x0, "I", 0x0, "2", 0x0, 0x0
	DCB	0x0					; `string'

  00000			 AREA	 |.rdata|, DATA, READONLY
|??_C@_1CG@BHKFGKBJ@?$AAO?$AAM?$AAA?$AAP?$AA_?$AAD?$AAE?$AAV?$AAI?$AAC?$AAE?$AA_?$AAM?$AAC?$AAS?$AAP?$AAI?$AA1?$AA?$AA@| DCB "O"
	DCB	0x0, "M", 0x0, "A", 0x0, "P", 0x0, "_", 0x0, "D", 0x0, "E"
	DCB	0x0, "V", 0x0, "I", 0x0, "C", 0x0, "E", 0x0, "_", 0x0, "M"
	DCB	0x0, "C", 0x0, "S", 0x0, "P", 0x0, "I", 0x0, "1", 0x0, 0x0
	DCB	0x0					; `string'

  00000			 AREA	 |.rdata|, DATA, READONLY
|??_C@_1CC@BAKALDMC@?$AAO?$AAM?$AAA?$AAP?$AA_?$AAD?$AAE?$AAV?$AAI?$AAC?$AAE?$AA_?$AAI?$AA2?$AAC?$AA3?$AA?$AA@| DCB "O"
	DCB	0x0, "M", 0x0, "A", 0x0, "P", 0x0, "_", 0x0, "D", 0x0, "E"
	DCB	0x0, "V", 0x0, "I", 0x0, "C", 0x0, "E", 0x0, "_", 0x0, "I"
	DCB	0x0, "2", 0x0, "C", 0x0, "3", 0x0, 0x0, 0x0 ; `string'

  00000			 AREA	 |.rdata|, DATA, READONLY
|??_C@_1CC@KIBMNEKH@?$AAO?$AAM?$AAA?$AAP?$AA_?$AAD?$AAE?$AAV?$AAI?$AAC?$AAE?$AA_?$AAI?$AA2?$AAC?$AA2?$AA?$AA@| DCB "O"
	DCB	0x0, "M", 0x0, "A", 0x0, "P", 0x0, "_", 0x0, "D", 0x0, "E"
	DCB	0x0, "V", 0x0, "I", 0x0, "C", 0x0, "E", 0x0, "_", 0x0, "I"
	DCB	0x0, "2", 0x0, "C", 0x0, "2", 0x0, 0x0, 0x0 ; `string'

  00000			 AREA	 |.rdata|, DATA, READONLY
|??_C@_1CC@LKKJHLEJ@?$AAO?$AAM?$AAA?$AAP?$AA_?$AAD?$AAE?$AAV?$AAI?$AAC?$AAE?$AA_?$AAI?$AA2?$AAC?$AA1?$AA?$AA@| DCB "O"
	DCB	0x0, "M", 0x0, "A", 0x0, "P", 0x0, "_", 0x0, "D", 0x0, "E"
	DCB	0x0, "V", 0x0, "I", 0x0, "C", 0x0, "E", 0x0, "_", 0x0, "I"
	DCB	0x0, "2", 0x0, "C", 0x0, "1", 0x0, 0x0, 0x0 ; `string'

  00000			 AREA	 |.rdata|, DATA, READONLY
|??_C@_1CE@EAAKOHMB@?$AAO?$AAM?$AAA?$AAP?$AA_?$AAD?$AAE?$AAV?$AAI?$AAC?$AAE?$AA_?$AAU?$AAA?$AAR?$AAT?$AA2?$AA?$AA@| DCB "O"
	DCB	0x0, "M", 0x0, "A", 0x0, "P", 0x0, "_", 0x0, "D", 0x0, "E"
	DCB	0x0, "V", 0x0, "I", 0x0, "C", 0x0, "E", 0x0, "_", 0x0, "U"
	DCB	0x0, "A", 0x0, "R", 0x0, "T", 0x0, "2", 0x0, 0x0, 0x0 ; `string'

  00000			 AREA	 |.rdata|, DATA, READONLY
|??_C@_1CE@FCLPEICP@?$AAO?$AAM?$AAA?$AAP?$AA_?$AAD?$AAE?$AAV?$AAI?$AAC?$AAE?$AA_?$AAU?$AAA?$AAR?$AAT?$AA1?$AA?$AA@| DCB "O"
	DCB	0x0, "M", 0x0, "A", 0x0, "P", 0x0, "_", 0x0, "D", 0x0, "E"
	DCB	0x0, "V", 0x0, "I", 0x0, "C", 0x0, "E", 0x0, "_", 0x0, "U"
	DCB	0x0, "A", 0x0, "R", 0x0, "T", 0x0, "1", 0x0, 0x0, 0x0 ; `string'

  00000			 AREA	 |.rdata|, DATA, READONLY
|??_C@_1CM@FOLMNLIK@?$AAO?$AAM?$AAA?$AAP?$AA_?$AAD?$AAE?$AAV?$AAI?$AAC?$AAE?$AA_?$AAG?$AAP?$AAT?$AAI?$AAM?$AAE?$AAR?$AA1?$AA1?$AA?$AA@| DCB "O"
	DCB	0x0, "M", 0x0, "A", 0x0, "P", 0x0, "_", 0x0, "D", 0x0, "E"
	DCB	0x0, "V", 0x0, "I", 0x0, "C", 0x0, "E", 0x0, "_", 0x0, "G"
	DCB	0x0, "P", 0x0, "T", 0x0, "I", 0x0, "M", 0x0, "E", 0x0, "R"
	DCB	0x0, "1", 0x0, "1", 0x0, 0x0, 0x0	; `string'

  00000			 AREA	 |.rdata|, DATA, READONLY
|??_C@_1CM@OGAALMOP@?$AAO?$AAM?$AAA?$AAP?$AA_?$AAD?$AAE?$AAV?$AAI?$AAC?$AAE?$AA_?$AAG?$AAP?$AAT?$AAI?$AAM?$AAE?$AAR?$AA1?$AA0?$AA?$AA@| DCB "O"
	DCB	0x0, "M", 0x0, "A", 0x0, "P", 0x0, "_", 0x0, "D", 0x0, "E"
	DCB	0x0, "V", 0x0, "I", 0x0, "C", 0x0, "E", 0x0, "_", 0x0, "G"
	DCB	0x0, "P", 0x0, "T", 0x0, "I", 0x0, "M", 0x0, "E", 0x0, "R"
	DCB	0x0, "1", 0x0, "0", 0x0, 0x0, 0x0	; `string'

  00000			 AREA	 |.rdata|, DATA, READONLY
|??_C@_1CG@PKPNEDCI@?$AAO?$AAM?$AAA?$AAP?$AA_?$AAD?$AAE?$AAV?$AAI?$AAC?$AAE?$AA_?$AAM?$AAC?$AAB?$AAS?$AAP?$AA5?$AA?$AA@| DCB "O"
	DCB	0x0, "M", 0x0, "A", 0x0, "P", 0x0, "_", 0x0, "D", 0x0, "E"
	DCB	0x0, "V", 0x0, "I", 0x0, "C", 0x0, "E", 0x0, "_", 0x0, "M"
	DCB	0x0, "C", 0x0, "B", 0x0, "S", 0x0, "P", 0x0, "5", 0x0, 0x0
	DCB	0x0					; `string'

  00000			 AREA	 |.rdata|, DATA, READONLY
|??_C@_1CG@HFJPNEHP@?$AAO?$AAM?$AAA?$AAP?$AA_?$AAD?$AAE?$AAV?$AAI?$AAC?$AAE?$AA_?$AAM?$AAC?$AAB?$AAS?$AAP?$AA1?$AA?$AA@| DCB "O"
	DCB	0x0, "M", 0x0, "A", 0x0, "P", 0x0, "_", 0x0, "D", 0x0, "E"
	DCB	0x0, "V", 0x0, "I", 0x0, "C", 0x0, "E", 0x0, "_", 0x0, "M"
	DCB	0x0, "C", 0x0, "B", 0x0, "S", 0x0, "P", 0x0, "1", 0x0, 0x0
	DCB	0x0					; `string'

  00000			 AREA	 |.rdata|, DATA, READONLY
|??_C@_1CM@FGHMOAMI@?$AAO?$AAM?$AAA?$AAP?$AA_?$AAD?$AAE?$AAV?$AAI?$AAC?$AAE?$AA_?$AAM?$AAA?$AAI?$AAL?$AAB?$AAO?$AAX?$AAE?$AAS?$AA?$AA@| DCB "O"
	DCB	0x0, "M", 0x0, "A", 0x0, "P", 0x0, "_", 0x0, "D", 0x0, "E"
	DCB	0x0, "V", 0x0, "I", 0x0, "C", 0x0, "E", 0x0, "_", 0x0, "M"
	DCB	0x0, "A", 0x0, "I", 0x0, "L", 0x0, "B", 0x0, "O", 0x0, "X"
	DCB	0x0, "E", 0x0, "S", 0x0, 0x0, 0x0	; `string'

  00000			 AREA	 |.rdata|, DATA, READONLY
|??_C@_1CK@IFNFIOAO@?$AAO?$AAM?$AAA?$AAP?$AA_?$AAD?$AAE?$AAV?$AAI?$AAC?$AAE?$AA_?$AAO?$AAM?$AAA?$AAP?$AAC?$AAT?$AAR?$AAL?$AA?$AA@| DCB "O"
	DCB	0x0, "M", 0x0, "A", 0x0, "P", 0x0, "_", 0x0, "D", 0x0, "E"
	DCB	0x0, "V", 0x0, "I", 0x0, "C", 0x0, "E", 0x0, "_", 0x0, "O"
	DCB	0x0, "M", 0x0, "A", 0x0, "P", 0x0, "C", 0x0, "T", 0x0, "R"
	DCB	0x0, "L", 0x0, 0x0, 0x0			; `string'

  00000			 AREA	 |.rdata|, DATA, READONLY
|??_C@_1CK@IEABCGNC@?$AAO?$AAM?$AAA?$AAP?$AA_?$AAD?$AAE?$AAV?$AAI?$AAC?$AAE?$AA_?$AAH?$AAS?$AAO?$AAT?$AAG?$AAU?$AAS?$AAB?$AA?$AA@| DCB "O"
	DCB	0x0, "M", 0x0, "A", 0x0, "P", 0x0, "_", 0x0, "D", 0x0, "E"
	DCB	0x0, "V", 0x0, "I", 0x0, "C", 0x0, "E", 0x0, "_", 0x0, "H"
	DCB	0x0, "S", 0x0, "O", 0x0, "T", 0x0, "G", 0x0, "U", 0x0, "S"
	DCB	0x0, "B", 0x0, 0x0, 0x0			; `string'

  00000			 AREA	 |.rdata|, DATA, READONLY
|??_C@_1CA@FBHLHKND@?$AAO?$AAM?$AAA?$AAP?$AA_?$AAD?$AAE?$AAV?$AAI?$AAC?$AAE?$AA_?$AAD?$AA2?$AAD?$AA?$AA@| DCB "O"
	DCB	0x0, "M", 0x0, "A", 0x0, "P", 0x0, "_", 0x0, "D", 0x0, "E"
	DCB	0x0, "V", 0x0, "I", 0x0, "C", 0x0, "E", 0x0, "_", 0x0, "D"
	DCB	0x0, "2", 0x0, "D", 0x0, 0x0, 0x0	; `string'

  00000			 AREA	 |.rdata|, DATA, READONLY
|??_C@_1CC@OJKGELFG@?$AAO?$AAM?$AAA?$AAP?$AA_?$AAD?$AAE?$AAV?$AAI?$AAC?$AAE?$AA_?$AAS?$AAD?$AAR?$AAC?$AA?$AA@| DCB "O"
	DCB	0x0, "M", 0x0, "A", 0x0, "P", 0x0, "_", 0x0, "D", 0x0, "E"
	DCB	0x0, "V", 0x0, "I", 0x0, "C", 0x0, "E", 0x0, "_", 0x0, "S"
	DCB	0x0, "D", 0x0, "R", 0x0, "C", 0x0, 0x0, 0x0 ; `string'

  00000			 AREA	 |.rdata|, DATA, READONLY
|??_C@_1CI@JGKNPEFC@?$AAO?$AAM?$AAA?$AAP?$AA_?$AAD?$AAE?$AAV?$AAI?$AAC?$AAE?$AA_?$AAS?$AAS?$AAI?$AA?5?$AA?$DN?$AA?5?$AA0?$AA?$AA@| DCB "O"
	DCB	0x0, "M", 0x0, "A", 0x0, "P", 0x0, "_", 0x0, "D", 0x0, "E"
	DCB	0x0, "V", 0x0, "I", 0x0, "C", 0x0, "E", 0x0, "_", 0x0, "S"
	DCB	0x0, "S", 0x0, "I", 0x0, " ", 0x0, "=", 0x0, " ", 0x0, "0"
	DCB	0x0, 0x0, 0x0				; `string'

  00000			 AREA	 |.rdata|, DATA, READONLY
|??_C@_1BI@MMHHFKED@?$AAk?$AAG?$AAP?$AAT?$AA1?$AA1?$AA_?$AAF?$AAC?$AAL?$AAK?$AA?$AA@| DCB "k"
	DCB	0x0, "G", 0x0, "P", 0x0, "T", 0x0, "1", 0x0, "1", 0x0, "_"
	DCB	0x0, "F", 0x0, "C", 0x0, "L", 0x0, "K", 0x0, 0x0, 0x0 ; `string'

  00000			 AREA	 |.rdata|, DATA, READONLY
|??_C@_1BI@FBHILLDF@?$AAk?$AAG?$AAP?$AAT?$AA1?$AA0?$AA_?$AAF?$AAC?$AAL?$AAK?$AA?$AA@| DCB "k"
	DCB	0x0, "G", 0x0, "P", 0x0, "T", 0x0, "1", 0x0, "0", 0x0, "_"
	DCB	0x0, "F", 0x0, "C", 0x0, "L", 0x0, "K", 0x0, 0x0, 0x0 ; `string'

  00000			 AREA	 |.rdata|, DATA, READONLY
|??_C@_1CC@CDCMPIGB@?$AAk?$AAG?$AAP?$AAT?$AA9?$AA_?$AAA?$AAL?$AAW?$AAO?$AAN?$AA_?$AAF?$AAC?$AAL?$AAK?$AA?$AA@| DCB "k"
	DCB	0x0, "G", 0x0, "P", 0x0, "T", 0x0, "9", 0x0, "_", 0x0, "A"
	DCB	0x0, "L", 0x0, "W", 0x0, "O", 0x0, "N", 0x0, "_", 0x0, "F"
	DCB	0x0, "C", 0x0, "L", 0x0, "K", 0x0, 0x0, 0x0 ; `string'

  00000			 AREA	 |.rdata|, DATA, READONLY
|??_C@_1CC@MEDBFOPG@?$AAk?$AAG?$AAP?$AAT?$AA8?$AA_?$AAA?$AAL?$AAW?$AAO?$AAN?$AA_?$AAF?$AAC?$AAL?$AAK?$AA?$AA@| DCB "k"
	DCB	0x0, "G", 0x0, "P", 0x0, "T", 0x0, "8", 0x0, "_", 0x0, "A"
	DCB	0x0, "L", 0x0, "W", 0x0, "O", 0x0, "N", 0x0, "_", 0x0, "F"
	DCB	0x0, "C", 0x0, "L", 0x0, "K", 0x0, 0x0, 0x0 ; `string'

  00000			 AREA	 |.rdata|, DATA, READONLY
|??_C@_1CC@EJNLAIGM@?$AAk?$AAG?$AAP?$AAT?$AA7?$AA_?$AAA?$AAL?$AAW?$AAO?$AAN?$AA_?$AAF?$AAC?$AAL?$AAK?$AA?$AA@| DCB "k"
	DCB	0x0, "G", 0x0, "P", 0x0, "T", 0x0, "7", 0x0, "_", 0x0, "A"
	DCB	0x0, "L", 0x0, "W", 0x0, "O", 0x0, "N", 0x0, "_", 0x0, "F"
	DCB	0x0, "C", 0x0, "L", 0x0, "K", 0x0, 0x0, 0x0 ; `string'

  00000			 AREA	 |.rdata|, DATA, READONLY
|??_C@_1CC@KOMGKOPL@?$AAk?$AAG?$AAP?$AAT?$AA6?$AA_?$AAA?$AAL?$AAW?$AAO?$AAN?$AA_?$AAF?$AAC?$AAL?$AAK?$AA?$AA@| DCB "k"
	DCB	0x0, "G", 0x0, "P", 0x0, "T", 0x0, "6", 0x0, "_", 0x0, "A"
	DCB	0x0, "L", 0x0, "W", 0x0, "O", 0x0, "N", 0x0, "_", 0x0, "F"
	DCB	0x0, "C", 0x0, "L", 0x0, "K", 0x0, 0x0, 0x0 ; `string'

  00000			 AREA	 |.rdata|, DATA, READONLY
|??_C@_1CC@FMJBEDAD@?$AAk?$AAG?$AAP?$AAT?$AA5?$AA_?$AAA?$AAL?$AAW?$AAO?$AAN?$AA_?$AAF?$AAC?$AAL?$AAK?$AA?$AA@| DCB "k"
	DCB	0x0, "G", 0x0, "P", 0x0, "T", 0x0, "5", 0x0, "_", 0x0, "A"
	DCB	0x0, "L", 0x0, "W", 0x0, "O", 0x0, "N", 0x0, "_", 0x0, "F"
	DCB	0x0, "C", 0x0, "L", 0x0, "K", 0x0, 0x0, 0x0 ; `string'

  00000			 AREA	 |.rdata|, DATA, READONLY
|??_C@_1CC@LLIMOFJE@?$AAk?$AAG?$AAP?$AAT?$AA4?$AA_?$AAA?$AAL?$AAW?$AAO?$AAN?$AA_?$AAF?$AAC?$AAL?$AAK?$AA?$AA@| DCB "k"
	DCB	0x0, "G", 0x0, "P", 0x0, "T", 0x0, "4", 0x0, "_", 0x0, "A"
	DCB	0x0, "L", 0x0, "W", 0x0, "O", 0x0, "N", 0x0, "_", 0x0, "F"
	DCB	0x0, "C", 0x0, "L", 0x0, "K", 0x0, 0x0, 0x0 ; `string'

  00000			 AREA	 |.rdata|, DATA, READONLY
|??_C@_1CC@GDEPJOLC@?$AAk?$AAG?$AAP?$AAT?$AA3?$AA_?$AAA?$AAL?$AAW?$AAO?$AAN?$AA_?$AAF?$AAC?$AAL?$AAK?$AA?$AA@| DCB "k"
	DCB	0x0, "G", 0x0, "P", 0x0, "T", 0x0, "3", 0x0, "_", 0x0, "A"
	DCB	0x0, "L", 0x0, "W", 0x0, "O", 0x0, "N", 0x0, "_", 0x0, "F"
	DCB	0x0, "C", 0x0, "L", 0x0, "K", 0x0, 0x0, 0x0 ; `string'

  00000			 AREA	 |.rdata|, DATA, READONLY
|??_C@_1CC@IEFCDICF@?$AAk?$AAG?$AAP?$AAT?$AA2?$AA_?$AAA?$AAL?$AAW?$AAO?$AAN?$AA_?$AAF?$AAC?$AAL?$AAK?$AA?$AA@| DCB "k"
	DCB	0x0, "G", 0x0, "P", 0x0, "T", 0x0, "2", 0x0, "_", 0x0, "A"
	DCB	0x0, "L", 0x0, "W", 0x0, "O", 0x0, "N", 0x0, "_", 0x0, "F"
	DCB	0x0, "C", 0x0, "L", 0x0, "K", 0x0, 0x0, 0x0 ; `string'

  00000			 AREA	 |.rdata|, DATA, READONLY
|??_C@_1BG@LBMJBNDI@?$AAk?$AAG?$AAP?$AAT?$AA1?$AA_?$AAF?$AAC?$AAL?$AAK?$AA?$AA@| DCB "k"
	DCB	0x0, "G", 0x0, "P", 0x0, "T", 0x0, "1", 0x0, "_", 0x0, "F"
	DCB	0x0, "C", 0x0, "L", 0x0, "K", 0x0, 0x0, 0x0 ; `string'

  00000			 AREA	 |.rdata|, DATA, READONLY
|??_C@_1BE@BKPHEHJG@?$AAk?$AAS?$AAG?$AAX?$AA_?$AAF?$AAC?$AAL?$AAK?$AA?$AA@| DCB "k"
	DCB	0x0, "S", 0x0, "G", 0x0, "X", 0x0, "_", 0x0, "F", 0x0, "C"
	DCB	0x0, "L", 0x0, "K", 0x0, 0x0, 0x0	; `string'

  00000			 AREA	 |.rdata|, DATA, READONLY
|??_C@_1BE@OHPPGGKJ@?$AAk?$AA5?$AA4?$AAM?$AA_?$AAF?$AAC?$AAL?$AAK?$AA?$AA@| DCB "k"
	DCB	0x0, "5", 0x0, "4", 0x0, "M", 0x0, "_", 0x0, "F", 0x0, "C"
	DCB	0x0, "L", 0x0, "K", 0x0, 0x0, 0x0	; `string'

  00000			 AREA	 |.rdata|, DATA, READONLY
|??_C@_1BE@KPIPADIA@?$AAk?$AA4?$AA8?$AAM?$AA_?$AAF?$AAC?$AAL?$AAK?$AA?$AA@| DCB "k"
	DCB	0x0, "4", 0x0, "8", 0x0, "M", 0x0, "_", 0x0, "F", 0x0, "C"
	DCB	0x0, "L", 0x0, "K", 0x0, 0x0, 0x0	; `string'

  00000			 AREA	 |.rdata|, DATA, READONLY
|??_C@_1BE@HMKGDKMA@?$AAk?$AA9?$AA6?$AAM?$AA_?$AAF?$AAC?$AAL?$AAK?$AA?$AA@| DCB "k"
	DCB	0x0, "9", 0x0, "6", 0x0, "M", 0x0, "_", 0x0, "F", 0x0, "C"
	DCB	0x0, "L", 0x0, "K", 0x0, 0x0, 0x0	; `string'

  00000			 AREA	 |.rdata|, DATA, READONLY
|??_C@_1BG@FOLAEDFM@?$AAk?$AAU?$AAS?$AAI?$AAM?$AA_?$AAF?$AAC?$AAL?$AAK?$AA?$AA@| DCB "k"
	DCB	0x0, "U", 0x0, "S", 0x0, "I", 0x0, "M", 0x0, "_", 0x0, "F"
	DCB	0x0, "C", 0x0, "L", 0x0, "K", 0x0, 0x0, 0x0 ; `string'

  00000			 AREA	 |.rdata|, DATA, READONLY
|??_C@_1BK@FIGBAONF@?$AAk?$AAC?$AAM?$AA_?$AAU?$AAS?$AAI?$AAM?$AA_?$AAC?$AAL?$AAK?$AA?$AA@| DCB "k"
	DCB	0x0, "C", 0x0, "M", 0x0, "_", 0x0, "U", 0x0, "S", 0x0, "I"
	DCB	0x0, "M", 0x0, "_", 0x0, "C", 0x0, "L", 0x0, "K", 0x0, 0x0
	DCB	0x0					; `string'

  00000			 AREA	 |.rdata|, DATA, READONLY
|??_C@_1CG@INMPAIAN@?$AAk?$AAU?$AAS?$AAB?$AAH?$AAO?$AAS?$AAT?$AA_?$AA1?$AA2?$AA0?$AAM?$AA_?$AAF?$AAC?$AAL?$AAK?$AA?$AA@| DCB "k"
	DCB	0x0, "U", 0x0, "S", 0x0, "B", 0x0, "H", 0x0, "O", 0x0, "S"
	DCB	0x0, "T", 0x0, "_", 0x0, "1", 0x0, "2", 0x0, "0", 0x0, "M"
	DCB	0x0, "_", 0x0, "F", 0x0, "C", 0x0, "L", 0x0, "K", 0x0, 0x0
	DCB	0x0					; `string'

  00000			 AREA	 |.rdata|, DATA, READONLY
|??_C@_1BK@DMMIFOKJ@?$AAk?$AAD?$AAS?$AAS?$AA_?$AAT?$AAV?$AA_?$AAF?$AAC?$AAL?$AAK?$AA?$AA@| DCB "k"
	DCB	0x0, "D", 0x0, "S", 0x0, "S", 0x0, "_", 0x0, "T", 0x0, "V"
	DCB	0x0, "_", 0x0, "F", 0x0, "C", 0x0, "L", 0x0, "K", 0x0, 0x0
	DCB	0x0					; `string'

  00000			 AREA	 |.rdata|, DATA, READONLY
|??_C@_1BO@KGNEDEAO@?$AAk?$AAC?$AAO?$AAR?$AAE?$AA_?$AA1?$AA2?$AAM?$AA_?$AAF?$AAC?$AAL?$AAK?$AA?$AA@| DCB "k"
	DCB	0x0, "C", 0x0, "O", 0x0, "R", 0x0, "E", 0x0, "_", 0x0, "1"
	DCB	0x0, "2", 0x0, "M", 0x0, "_", 0x0, "F", 0x0, "C", 0x0, "L"
	DCB	0x0, "K", 0x0, 0x0, 0x0			; `string'

  00000			 AREA	 |.rdata|, DATA, READONLY
|??_C@_1BE@LPMGNIEL@?$AAk?$AA1?$AA2?$AAM?$AA_?$AAF?$AAC?$AAL?$AAK?$AA?$AA@| DCB "k"
	DCB	0x0, "1", 0x0, "2", 0x0, "M", 0x0, "_", 0x0, "F", 0x0, "C"
	DCB	0x0, "L", 0x0, "K", 0x0, 0x0, 0x0	; `string'

  00000			 AREA	 |.rdata|, DATA, READONLY
|??_C@_1BM@CNNCGJCM@?$AAk?$AAP?$AAE?$AAR?$AA_?$AA4?$AA8?$AAM?$AA_?$AAF?$AAC?$AAL?$AAK?$AA?$AA@| DCB "k"
	DCB	0x0, "P", 0x0, "E", 0x0, "R", 0x0, "_", 0x0, "4", 0x0, "8"
	DCB	0x0, "M", 0x0, "_", 0x0, "F", 0x0, "C", 0x0, "L", 0x0, "K"
	DCB	0x0, 0x0, 0x0				; `string'

  00000			 AREA	 |.rdata|, DATA, READONLY
|??_C@_1CE@JDPIHICJ@?$AAk?$AAU?$AAS?$AAB?$AAH?$AAO?$AAS?$AAT?$AA_?$AA4?$AA8?$AAM?$AA_?$AAF?$AAC?$AAL?$AAK?$AA?$AA@| DCB "k"
	DCB	0x0, "U", 0x0, "S", 0x0, "B", 0x0, "H", 0x0, "O", 0x0, "S"
	DCB	0x0, "T", 0x0, "_", 0x0, "4", 0x0, "8", 0x0, "M", 0x0, "_"
	DCB	0x0, "F", 0x0, "C", 0x0, "L", 0x0, "K", 0x0, 0x0, 0x0 ; `string'

  00000			 AREA	 |.rdata|, DATA, READONLY
|??_C@_1BO@LGJNOPMF@?$AAk?$AAC?$AAO?$AAR?$AAE?$AA_?$AA4?$AA8?$AAM?$AA_?$AAF?$AAC?$AAL?$AAK?$AA?$AA@| DCB "k"
	DCB	0x0, "C", 0x0, "O", 0x0, "R", 0x0, "E", 0x0, "_", 0x0, "4"
	DCB	0x0, "8", 0x0, "M", 0x0, "_", 0x0, "F", 0x0, "C", 0x0, "L"
	DCB	0x0, "K", 0x0, 0x0, 0x0			; `string'

  00000			 AREA	 |.rdata|, DATA, READONLY
|??_C@_1BO@MLNMBJDB@?$AAk?$AAC?$AAS?$AAI?$AA2?$AA_?$AA9?$AA6?$AAM?$AA_?$AAF?$AAC?$AAL?$AAK?$AA?$AA@| DCB "k"
	DCB	0x0, "C", 0x0, "S", 0x0, "I", 0x0, "2", 0x0, "_", 0x0, "9"
	DCB	0x0, "6", 0x0, "M", 0x0, "_", 0x0, "F", 0x0, "C", 0x0, "L"
	DCB	0x0, "K", 0x0, 0x0, 0x0			; `string'

  00000			 AREA	 |.rdata|, DATA, READONLY
|??_C@_1BM@KGEDNEGH@?$AAk?$AAD?$AAS?$AAS?$AA_?$AA9?$AA6?$AAM?$AA_?$AAF?$AAC?$AAL?$AAK?$AA?$AA@| DCB "k"
	DCB	0x0, "D", 0x0, "S", 0x0, "S", 0x0, "_", 0x0, "9", 0x0, "6"
	DCB	0x0, "M", 0x0, "_", 0x0, "F", 0x0, "C", 0x0, "L", 0x0, "K"
	DCB	0x0, 0x0, 0x0				; `string'

  00000			 AREA	 |.rdata|, DATA, READONLY
|??_C@_1BO@GFLENGIF@?$AAk?$AAC?$AAO?$AAR?$AAE?$AA_?$AA9?$AA6?$AAM?$AA_?$AAF?$AAC?$AAL?$AAK?$AA?$AA@| DCB "k"
	DCB	0x0, "C", 0x0, "O", 0x0, "R", 0x0, "E", 0x0, "_", 0x0, "9"
	DCB	0x0, "6", 0x0, "M", 0x0, "_", 0x0, "F", 0x0, "C", 0x0, "L"
	DCB	0x0, "K", 0x0, 0x0, 0x0			; `string'

  00000			 AREA	 |.rdata|, DATA, READONLY
|??_C@_1BM@JEIEMPJK@?$AAk?$AAS?$AAS?$AAI?$AA_?$AAS?$AAS?$AAT?$AA_?$AAF?$AAC?$AAL?$AAK?$AA?$AA@| DCB "k"
	DCB	0x0, "S", 0x0, "S", 0x0, "I", 0x0, "_", 0x0, "S", 0x0, "S"
	DCB	0x0, "T", 0x0, "_", 0x0, "F", 0x0, "C", 0x0, "L", 0x0, "K"
	DCB	0x0, 0x0, 0x0				; `string'

  00000			 AREA	 |.rdata|, DATA, READONLY
|??_C@_1BM@GMEGIECM@?$AAk?$AAS?$AAS?$AAI?$AA_?$AAS?$AAS?$AAR?$AA_?$AAF?$AAC?$AAL?$AAK?$AA?$AA@| DCB "k"
	DCB	0x0, "S", 0x0, "S", 0x0, "I", 0x0, "_", 0x0, "S", 0x0, "S"
	DCB	0x0, "R", 0x0, "_", 0x0, "F", 0x0, "C", 0x0, "L", 0x0, "K"
	DCB	0x0, 0x0, 0x0				; `string'

  00000			 AREA	 |.rdata|, DATA, READONLY
|??_C@_1BI@KNLMECEA@?$AAk?$AAS?$AAR?$AA_?$AAL?$AA4?$AA_?$AAI?$AAC?$AAL?$AAK?$AA?$AA@| DCB "k"
	DCB	0x0, "S", 0x0, "R", 0x0, "_", 0x0, "L", 0x0, "4", 0x0, "_"
	DCB	0x0, "I", 0x0, "C", 0x0, "L", 0x0, "K", 0x0, 0x0, 0x0 ; `string'

  00000			 AREA	 |.rdata|, DATA, READONLY
|??_C@_1BK@JNEICFJE@?$AAk?$AAP?$AAE?$AAR?$AA_?$AAL?$AA4?$AA_?$AAI?$AAC?$AAL?$AAK?$AA?$AA@| DCB "k"
	DCB	0x0, "P", 0x0, "E", 0x0, "R", 0x0, "_", 0x0, "L", 0x0, "4"
	DCB	0x0, "_", 0x0, "I", 0x0, "C", 0x0, "L", 0x0, "K", 0x0, 0x0
	DCB	0x0					; `string'

  00000			 AREA	 |.rdata|, DATA, READONLY
|??_C@_1CC@CIKJOCKA@?$AAk?$AAU?$AAS?$AAB?$AAH?$AAO?$AAS?$AAT?$AA_?$AAL?$AA4?$AA_?$AAI?$AAC?$AAL?$AAK?$AA?$AA@| DCB "k"
	DCB	0x0, "U", 0x0, "S", 0x0, "B", 0x0, "H", 0x0, "O", 0x0, "S"
	DCB	0x0, "T", 0x0, "_", 0x0, "L", 0x0, "4", 0x0, "_", 0x0, "I"
	DCB	0x0, "C", 0x0, "L", 0x0, "K", 0x0, 0x0, 0x0 ; `string'

  00000			 AREA	 |.rdata|, DATA, READONLY
|??_C@_1CC@ENGEEIGA@?$AAk?$AAU?$AAS?$AAB?$AAH?$AAO?$AAS?$AAT?$AA_?$AAL?$AA3?$AA_?$AAI?$AAC?$AAL?$AAK?$AA?$AA@| DCB "k"
	DCB	0x0, "U", 0x0, "S", 0x0, "B", 0x0, "H", 0x0, "O", 0x0, "S"
	DCB	0x0, "T", 0x0, "_", 0x0, "L", 0x0, "3", 0x0, "_", 0x0, "I"
	DCB	0x0, "C", 0x0, "L", 0x0, "K", 0x0, 0x0, 0x0 ; `string'

  00000			 AREA	 |.rdata|, DATA, READONLY
|??_C@_1BK@HKMFLLIF@?$AAk?$AAC?$AAA?$AAM?$AA_?$AAL?$AA4?$AA_?$AAI?$AAC?$AAL?$AAK?$AA?$AA@| DCB "k"
	DCB	0x0, "C", 0x0, "A", 0x0, "M", 0x0, "_", 0x0, "L", 0x0, "4"
	DCB	0x0, "_", 0x0, "I", 0x0, "C", 0x0, "L", 0x0, "K", 0x0, 0x0
	DCB	0x0					; `string'

  00000			 AREA	 |.rdata|, DATA, READONLY
|??_C@_1BK@BPAIBBEF@?$AAk?$AAC?$AAA?$AAM?$AA_?$AAL?$AA3?$AA_?$AAI?$AAC?$AAL?$AAK?$AA?$AA@| DCB "k"
	DCB	0x0, "C", 0x0, "A", 0x0, "M", 0x0, "_", 0x0, "L", 0x0, "3"
	DCB	0x0, "_", 0x0, "I", 0x0, "C", 0x0, "L", 0x0, "K", 0x0, 0x0
	DCB	0x0					; `string'

  00000			 AREA	 |.rdata|, DATA, READONLY
|??_C@_1BK@DFEEOPHB@?$AAk?$AAD?$AAS?$AAS?$AA_?$AAL?$AA4?$AA_?$AAI?$AAC?$AAL?$AAK?$AA?$AA@| DCB "k"
	DCB	0x0, "D", 0x0, "S", 0x0, "S", 0x0, "_", 0x0, "L", 0x0, "4"
	DCB	0x0, "_", 0x0, "I", 0x0, "C", 0x0, "L", 0x0, "K", 0x0, 0x0
	DCB	0x0					; `string'

  00000			 AREA	 |.rdata|, DATA, READONLY
|??_C@_1BK@FAIJEFLB@?$AAk?$AAD?$AAS?$AAS?$AA_?$AAL?$AA3?$AA_?$AAI?$AAC?$AAL?$AAK?$AA?$AA@| DCB "k"
	DCB	0x0, "D", 0x0, "S", 0x0, "S", 0x0, "_", 0x0, "L", 0x0, "3"
	DCB	0x0, "_", 0x0, "I", 0x0, "C", 0x0, "L", 0x0, "K", 0x0, 0x0
	DCB	0x0					; `string'

  00000			 AREA	 |.rdata|, DATA, READONLY
|??_C@_1BK@MMOEKMCA@?$AAk?$AAS?$AAS?$AAI?$AA_?$AAL?$AA4?$AA_?$AAI?$AAC?$AAL?$AAK?$AA?$AA@| DCB "k"
	DCB	0x0, "S", 0x0, "S", 0x0, "I", 0x0, "_", 0x0, "L", 0x0, "4"
	DCB	0x0, "_", 0x0, "I", 0x0, "C", 0x0, "L", 0x0, "K", 0x0, 0x0
	DCB	0x0					; `string'

  00000			 AREA	 |.rdata|, DATA, READONLY
|??_C@_1BK@NJNOEPMC@?$AAk?$AAS?$AAG?$AAX?$AA_?$AAL?$AA3?$AA_?$AAI?$AAC?$AAL?$AAK?$AA?$AA@| DCB "k"
	DCB	0x0, "S", 0x0, "G", 0x0, "X", 0x0, "_", 0x0, "L", 0x0, "3"
	DCB	0x0, "_", 0x0, "I", 0x0, "C", 0x0, "L", 0x0, "K", 0x0, 0x0
	DCB	0x0					; `string'

  00000			 AREA	 |.rdata|, DATA, READONLY
|??_C@_1CG@CFAPNILK@?$AAk?$AAS?$AAE?$AAC?$AAU?$AAR?$AAI?$AAT?$AAY?$AA_?$AAL?$AA4?$AA_?$AAI?$AAC?$AAL?$AAK?$AA2?$AA?$AA@| DCB "k"
	DCB	0x0, "S", 0x0, "E", 0x0, "C", 0x0, "U", 0x0, "R", 0x0, "I"
	DCB	0x0, "T", 0x0, "Y", 0x0, "_", 0x0, "L", 0x0, "4", 0x0, "_"
	DCB	0x0, "I", 0x0, "C", 0x0, "L", 0x0, "K", 0x0, "2", 0x0, 0x0
	DCB	0x0					; `string'

  00000			 AREA	 |.rdata|, DATA, READONLY
|??_C@_1CG@DHLKHHFE@?$AAk?$AAS?$AAE?$AAC?$AAU?$AAR?$AAI?$AAT?$AAY?$AA_?$AAL?$AA4?$AA_?$AAI?$AAC?$AAL?$AAK?$AA1?$AA?$AA@| DCB "k"
	DCB	0x0, "S", 0x0, "E", 0x0, "C", 0x0, "U", 0x0, "R", 0x0, "I"
	DCB	0x0, "T", 0x0, "Y", 0x0, "_", 0x0, "L", 0x0, "4", 0x0, "_"
	DCB	0x0, "I", 0x0, "C", 0x0, "L", 0x0, "K", 0x0, "1", 0x0, 0x0
	DCB	0x0					; `string'

  00000			 AREA	 |.rdata|, DATA, READONLY
|??_C@_1CE@DCCJJJCO@?$AAk?$AAS?$AAE?$AAC?$AAU?$AAR?$AAI?$AAT?$AAY?$AA_?$AAL?$AA3?$AA_?$AAI?$AAC?$AAL?$AAK?$AA?$AA@| DCB "k"
	DCB	0x0, "S", 0x0, "E", 0x0, "C", 0x0, "U", 0x0, "R", 0x0, "I"
	DCB	0x0, "T", 0x0, "Y", 0x0, "_", 0x0, "L", 0x0, "3", 0x0, "_"
	DCB	0x0, "I", 0x0, "C", 0x0, "L", 0x0, "K", 0x0, 0x0, 0x0 ; `string'

  00000			 AREA	 |.rdata|, DATA, READONLY
|??_C@_1BM@GNELHHCO@?$AAk?$AAC?$AAO?$AAR?$AAE?$AA_?$AAL?$AA4?$AA_?$AAI?$AAC?$AAL?$AAK?$AA?$AA@| DCB "k"
	DCB	0x0, "C", 0x0, "O", 0x0, "R", 0x0, "E", 0x0, "_", 0x0, "L"
	DCB	0x0, "4", 0x0, "_", 0x0, "I", 0x0, "C", 0x0, "L", 0x0, "K"
	DCB	0x0, 0x0, 0x0				; `string'

  00000			 AREA	 |.rdata|, DATA, READONLY
|??_C@_1BM@IIGNNOO@?$AAk?$AAC?$AAO?$AAR?$AAE?$AA_?$AAL?$AA3?$AA_?$AAI?$AAC?$AAL?$AAK?$AA?$AA@| DCB "k"
	DCB	0x0, "C", 0x0, "O", 0x0, "R", 0x0, "E", 0x0, "_", 0x0, "L"
	DCB	0x0, "3", 0x0, "_", 0x0, "I", 0x0, "C", 0x0, "L", 0x0, "K"
	DCB	0x0, 0x0, 0x0				; `string'

  00000			 AREA	 |.rdata|, DATA, READONLY
|??_C@_1BI@GGLANBIM@?$AAk?$AAD?$AAP?$AAL?$AAL?$AA2?$AA_?$AAF?$AAC?$AAL?$AAK?$AA?$AA@| DCB "k"
	DCB	0x0, "D", 0x0, "P", 0x0, "L", 0x0, "L", 0x0, "2", 0x0, "_"
	DCB	0x0, "F", 0x0, "C", 0x0, "L", 0x0, "K", 0x0, 0x0, 0x0 ; `string'

  00000			 AREA	 |.rdata|, DATA, READONLY
|??_C@_1BI@BKNBPEFH@?$AAk?$AAD?$AAP?$AAL?$AAL?$AA1?$AA_?$AAF?$AAC?$AAL?$AAK?$AA?$AA@| DCB "k"
	DCB	0x0, "D", 0x0, "P", 0x0, "L", 0x0, "L", 0x0, "1", 0x0, "_"
	DCB	0x0, "F", 0x0, "C", 0x0, "L", 0x0, "K", 0x0, 0x0, 0x0 ; `string'

  00000			 AREA	 |.rdata|, DATA, READONLY
|??_C@_1BC@IEJPNIBD@?$AAk?$AAR?$AAM?$AA_?$AAI?$AAC?$AAL?$AAK?$AA?$AA@| DCB "k"
	DCB	0x0, "R", 0x0, "M", 0x0, "_", 0x0, "I", 0x0, "C", 0x0, "L"
	DCB	0x0, "K", 0x0, 0x0, 0x0			; `string'

  00000			 AREA	 |.rdata|, DATA, READONLY
|??_C@_1BK@EOKLGFAI@?$AAk?$AAU?$AAS?$AAB?$AA_?$AAL?$AA4?$AA_?$AAI?$AAC?$AAL?$AAK?$AA?$AA@| DCB "k"
	DCB	0x0, "U", 0x0, "S", 0x0, "B", 0x0, "_", 0x0, "L", 0x0, "4"
	DCB	0x0, "_", 0x0, "I", 0x0, "C", 0x0, "L", 0x0, "K", 0x0, 0x0
	DCB	0x0					; `string'

  00000			 AREA	 |.rdata|, DATA, READONLY
|??_C@_1BC@GADFMCD@?$AAk?$AAL?$AA4?$AA_?$AAI?$AAC?$AAL?$AAK?$AA?$AA@| DCB "k"
	DCB	0x0, "L", 0x0, "4", 0x0, "_", 0x0, "I", 0x0, "C", 0x0, "L"
	DCB	0x0, "K", 0x0, 0x0, 0x0			; `string'

  00000			 AREA	 |.rdata|, DATA, READONLY
|??_C@_1BC@GDMOPGOD@?$AAk?$AAL?$AA3?$AA_?$AAI?$AAC?$AAL?$AAK?$AA?$AA@| DCB "k"
	DCB	0x0, "L", 0x0, "3", 0x0, "_", 0x0, "I", 0x0, "C", 0x0, "L"
	DCB	0x0, "K", 0x0, 0x0, 0x0			; `string'

  00000			 AREA	 |.rdata|, DATA, READONLY
|??_C@_1CA@PCEHGMIB@?$AAk?$AA9?$AA6?$AAM?$AA_?$AAA?$AAL?$AAW?$AAO?$AAN?$AA_?$AAF?$AAC?$AAL?$AAK?$AA?$AA@| DCB "k"
	DCB	0x0, "9", 0x0, "6", 0x0, "M", 0x0, "_", 0x0, "A", 0x0, "L"
	DCB	0x0, "W", 0x0, "O", 0x0, "N", 0x0, "_", 0x0, "F", 0x0, "C"
	DCB	0x0, "L", 0x0, "K", 0x0, 0x0, 0x0	; `string'

  00000			 AREA	 |.rdata|, DATA, READONLY
|??_C@_1BK@MCHPLJEE@?$AAk?$AAC?$AAM?$AA_?$AA9?$AA6?$AAM?$AA_?$AAF?$AAC?$AAL?$AAK?$AA?$AA@| DCB "k"
	DCB	0x0, "C", 0x0, "M", 0x0, "_", 0x0, "9", 0x0, "6", 0x0, "M"
	DCB	0x0, "_", 0x0, "F", 0x0, "C", 0x0, "L", 0x0, "K", 0x0, 0x0
	DCB	0x0					; `string'

  00000			 AREA	 |.rdata|, DATA, READONLY
|??_C@_1CA@BBGPJHGP@?$AAk?$AAC?$AAO?$AAR?$AAE?$AA_?$AA1?$AA2?$AA0?$AAM?$AA_?$AAF?$AAC?$AAL?$AAK?$AA?$AA@| DCB "k"
	DCB	0x0, "C", 0x0, "O", 0x0, "R", 0x0, "E", 0x0, "_", 0x0, "1"
	DCB	0x0, "2", 0x0, "0", 0x0, "M", 0x0, "_", 0x0, "F", 0x0, "C"
	DCB	0x0, "L", 0x0, "K", 0x0, 0x0, 0x0	; `string'

  00000			 AREA	 |.rdata|, DATA, READONLY
|??_C@_1CI@EADHIPEB@?$AAk?$AAP?$AAE?$AAR?$AA_?$AA3?$AA2?$AAK?$AA_?$AAA?$AAL?$AAW?$AAO?$AAN?$AA_?$AAF?$AAC?$AAL?$AAK?$AA?$AA@| DCB "k"
	DCB	0x0, "P", 0x0, "E", 0x0, "R", 0x0, "_", 0x0, "3", 0x0, "2"
	DCB	0x0, "K", 0x0, "_", 0x0, "A", 0x0, "L", 0x0, "W", 0x0, "O"
	DCB	0x0, "N", 0x0, "_", 0x0, "F", 0x0, "C", 0x0, "L", 0x0, "K"
	DCB	0x0, 0x0, 0x0				; `string'

  00000			 AREA	 |.rdata|, DATA, READONLY
|??_C@_1BO@LPLICNLH@?$AAk?$AAW?$AAK?$AAU?$AAP?$AA_?$AA3?$AA2?$AAK?$AA_?$AAF?$AAC?$AAL?$AAK?$AA?$AA@| DCB "k"
	DCB	0x0, "W", 0x0, "K", 0x0, "U", 0x0, "P", 0x0, "_", 0x0, "3"
	DCB	0x0, "2", 0x0, "K", 0x0, "_", 0x0, "F", 0x0, "C", 0x0, "L"
	DCB	0x0, "K", 0x0, 0x0, 0x0			; `string'

  00000			 AREA	 |.rdata|, DATA, READONLY
|??_C@_1BO@FLMCBEDL@?$AAk?$AAC?$AAO?$AAR?$AAE?$AA_?$AA3?$AA2?$AAK?$AA_?$AAF?$AAC?$AAL?$AAK?$AA?$AA@| DCB "k"
	DCB	0x0, "C", 0x0, "O", 0x0, "R", 0x0, "E", 0x0, "_", 0x0, "3"
	DCB	0x0, "2", 0x0, "K", 0x0, "_", 0x0, "F", 0x0, "C", 0x0, "L"
	DCB	0x0, "K", 0x0, 0x0, 0x0			; `string'

  00000			 AREA	 |.rdata|, DATA, READONLY
|??_C@_1BI@BEPCGLLM@?$AAk?$AAC?$AAM?$AA_?$AA3?$AA2?$AAK?$AA_?$AAC?$AAL?$AAK?$AA?$AA@| DCB "k"
	DCB	0x0, "C", 0x0, "M", 0x0, "_", 0x0, "3", 0x0, "2", 0x0, "K"
	DCB	0x0, "_", 0x0, "C", 0x0, "L", 0x0, "K", 0x0, 0x0, 0x0 ; `string'

  00000			 AREA	 |.rdata|, DATA, READONLY
|??_C@_1BM@CKBOGBKN@?$AAk?$AAW?$AAK?$AAU?$AAP?$AA_?$AAL?$AA4?$AA_?$AAI?$AAC?$AAL?$AAK?$AA?$AA@| DCB "k"
	DCB	0x0, "W", 0x0, "K", 0x0, "U", 0x0, "P", 0x0, "_", 0x0, "L"
	DCB	0x0, "4", 0x0, "_", 0x0, "I", 0x0, "C", 0x0, "L", 0x0, "K"
	DCB	0x0, 0x0, 0x0				; `string'

  00000			 AREA	 |.rdata|, DATA, READONLY
|??_C@_1CC@NOFOGNB@?$AAk?$AAD?$AAS?$AAS?$AA2?$AA_?$AAA?$AAL?$AAW?$AAO?$AAN?$AA_?$AAF?$AAC?$AAL?$AAK?$AA?$AA@| DCB "k"
	DCB	0x0, "D", 0x0, "S", 0x0, "S", 0x0, "2", 0x0, "_", 0x0, "A"
	DCB	0x0, "L", 0x0, "W", 0x0, "O", 0x0, "N", 0x0, "_", 0x0, "F"
	DCB	0x0, "C", 0x0, "L", 0x0, "K", 0x0, 0x0, 0x0 ; `string'

  00000			 AREA	 |.rdata|, DATA, READONLY
|??_C@_1BI@OEECMJPN@?$AAk?$AAC?$AAM?$AA_?$AAS?$AAY?$AAS?$AA_?$AAC?$AAL?$AAK?$AA?$AA@| DCB "k"
	DCB	0x0, "C", 0x0, "M", 0x0, "_", 0x0, "S", 0x0, "Y", 0x0, "S"
	DCB	0x0, "_", 0x0, "C", 0x0, "L", 0x0, "K", 0x0, 0x0, 0x0 ; `string'

  00000			 AREA	 |.rdata|, DATA, READONLY
|??_C@_1CE@IKHPAHF@?$AAk?$AAD?$AAP?$AAL?$AAL?$AA5?$AA_?$AAA?$AAL?$AAW?$AAO?$AAN?$AA_?$AAF?$AAC?$AAL?$AAK?$AA?$AA@| DCB "k"
	DCB	0x0, "D", 0x0, "P", 0x0, "L", 0x0, "L", 0x0, "5", 0x0, "_"
	DCB	0x0, "A", 0x0, "L", 0x0, "W", 0x0, "O", 0x0, "N", 0x0, "_"
	DCB	0x0, "F", 0x0, "C", 0x0, "L", 0x0, "K", 0x0, 0x0, 0x0 ; `string'

  00000			 AREA	 |.rdata|, DATA, READONLY
|??_C@_1CE@OPLKFGOC@?$AAk?$AAD?$AAP?$AAL?$AAL?$AA4?$AA_?$AAA?$AAL?$AAW?$AAO?$AAN?$AA_?$AAF?$AAC?$AAL?$AAK?$AA?$AA@| DCB "k"
	DCB	0x0, "D", 0x0, "P", 0x0, "L", 0x0, "L", 0x0, "4", 0x0, "_"
	DCB	0x0, "A", 0x0, "L", 0x0, "W", 0x0, "O", 0x0, "N", 0x0, "_"
	DCB	0x0, "F", 0x0, "C", 0x0, "L", 0x0, "K", 0x0, 0x0, 0x0 ; `string'

  00000			 AREA	 |.rdata|, DATA, READONLY
|??_C@_1CE@DHHJCNME@?$AAk?$AAD?$AAP?$AAL?$AAL?$AA3?$AA_?$AAA?$AAL?$AAW?$AAO?$AAN?$AA_?$AAF?$AAC?$AAL?$AAK?$AA?$AA@| DCB "k"
	DCB	0x0, "D", 0x0, "P", 0x0, "L", 0x0, "L", 0x0, "3", 0x0, "_"
	DCB	0x0, "A", 0x0, "L", 0x0, "W", 0x0, "O", 0x0, "N", 0x0, "_"
	DCB	0x0, "F", 0x0, "C", 0x0, "L", 0x0, "K", 0x0, 0x0, 0x0 ; `string'

  00000			 AREA	 |.rdata|, DATA, READONLY
|??_C@_1CE@NAGEILFD@?$AAk?$AAD?$AAP?$AAL?$AAL?$AA2?$AA_?$AAA?$AAL?$AAW?$AAO?$AAN?$AA_?$AAF?$AAC?$AAL?$AAK?$AA?$AA@| DCB "k"
	DCB	0x0, "D", 0x0, "P", 0x0, "L", 0x0, "L", 0x0, "2", 0x0, "_"
	DCB	0x0, "A", 0x0, "L", 0x0, "W", 0x0, "O", 0x0, "N", 0x0, "_"
	DCB	0x0, "F", 0x0, "C", 0x0, "L", 0x0, "K", 0x0, 0x0, 0x0 ; `string'

  00000			 AREA	 |.rdata|, DATA, READONLY
|??_C@_1CE@CCDDGGKL@?$AAk?$AAD?$AAP?$AAL?$AAL?$AA1?$AA_?$AAA?$AAL?$AAW?$AAO?$AAN?$AA_?$AAF?$AAC?$AAL?$AAK?$AA?$AA@| DCB "k"
	DCB	0x0, "D", 0x0, "P", 0x0, "L", 0x0, "L", 0x0, "1", 0x0, "_"
	DCB	0x0, "A", 0x0, "L", 0x0, "W", 0x0, "O", 0x0, "N", 0x0, "_"
	DCB	0x0, "F", 0x0, "C", 0x0, "L", 0x0, "K", 0x0, 0x0, 0x0 ; `string'

  00000			 AREA	 |.rdata|, DATA, READONLY
|??_C@_1BO@OFGDLBDE@?$AAk?$AAS?$AAR?$AA_?$AAA?$AAL?$AAW?$AAO?$AAN?$AA_?$AAF?$AAC?$AAL?$AAK?$AA?$AA@| DCB "k"
	DCB	0x0, "S", 0x0, "R", 0x0, "_", 0x0, "A", 0x0, "L", 0x0, "W"
	DCB	0x0, "O", 0x0, "N", 0x0, "_", 0x0, "F", 0x0, "C", 0x0, "L"
	DCB	0x0, "K", 0x0, 0x0, 0x0			; `string'

  00000			 AREA	 |.rdata|, DATA, READONLY
|??_C@_1CE@PPGNFPBP@?$AAk?$AAE?$AAF?$AAU?$AAS?$AAE?$AA_?$AAA?$AAL?$AAW?$AAO?$AAN?$AA_?$AAF?$AAC?$AAL?$AAK?$AA?$AA@| DCB "k"
	DCB	0x0, "E", 0x0, "F", 0x0, "U", 0x0, "S", 0x0, "E", 0x0, "_"
	DCB	0x0, "A", 0x0, "L", 0x0, "W", 0x0, "O", 0x0, "N", 0x0, "_"
	DCB	0x0, "F", 0x0, "C", 0x0, "L", 0x0, "K", 0x0, 0x0, 0x0 ; `string'

  00000			 AREA	 |.rdata|, DATA, READONLY
|??_C@_1CE@KHCGIPEA@?$AAk?$AAU?$AAS?$AAB?$AAH?$AAO?$AAS?$AAT?$AA_?$AAS?$AAA?$AAR?$AA_?$AAF?$AAC?$AAL?$AAK?$AA?$AA@| DCB "k"
	DCB	0x0, "U", 0x0, "S", 0x0, "B", 0x0, "H", 0x0, "O", 0x0, "S"
	DCB	0x0, "T", 0x0, "_", 0x0, "S", 0x0, "A", 0x0, "R", 0x0, "_"
	DCB	0x0, "F", 0x0, "C", 0x0, "L", 0x0, "K", 0x0, 0x0, 0x0 ; `string'

  00000			 AREA	 |.rdata|, DATA, READONLY
|??_C@_1CC@HCOAMGKK@?$AAk?$AAU?$AAS?$AAB?$AAT?$AAL?$AAL?$AA_?$AAS?$AAA?$AAR?$AA_?$AAF?$AAC?$AAL?$AAK?$AA?$AA@| DCB "k"
	DCB	0x0, "U", 0x0, "S", 0x0, "B", 0x0, "T", 0x0, "L", 0x0, "L"
	DCB	0x0, "_", 0x0, "S", 0x0, "A", 0x0, "R", 0x0, "_", 0x0, "F"
	DCB	0x0, "C", 0x0, "L", 0x0, "K", 0x0, 0x0, 0x0 ; `string'

  00000			 AREA	 |.rdata|, DATA, READONLY
|??_C@_1BI@CMEGODCK@?$AAk?$AAM?$AAC?$AAB?$AAS?$AAP?$AA_?$AAC?$AAL?$AAK?$AAS?$AA?$AA@| DCB "k"
	DCB	0x0, "M", 0x0, "C", 0x0, "B", 0x0, "S", 0x0, "P", 0x0, "_"
	DCB	0x0, "C", 0x0, "L", 0x0, "K", 0x0, "S", 0x0, 0x0, 0x0 ; `string'

  00000			 AREA	 |.rdata|, DATA, READONLY
|??_C@_1CC@EOBIKDKJ@?$AAk?$AAS?$AAE?$AAC?$AAU?$AAR?$AAE?$AA_?$AA3?$AA2?$AAK?$AA_?$AAF?$AAC?$AAL?$AAK?$AA?$AA@| DCB "k"
	DCB	0x0, "S", 0x0, "E", 0x0, "C", 0x0, "U", 0x0, "R", 0x0, "E"
	DCB	0x0, "_", 0x0, "3", 0x0, "2", 0x0, "K", 0x0, "_", 0x0, "F"
	DCB	0x0, "C", 0x0, "L", 0x0, "K", 0x0, 0x0, 0x0 ; `string'

  00000			 AREA	 |.rdata|, DATA, READONLY
|??_C@_1BI@ILMCMCCC@?$AAk?$AAS?$AAY?$AAS?$AA_?$AAA?$AAL?$AAT?$AAC?$AAL?$AAK?$AA?$AA@| DCB "k"
	DCB	0x0, "S", 0x0, "Y", 0x0, "S", 0x0, "_", 0x0, "A", 0x0, "L"
	DCB	0x0, "T", 0x0, "C", 0x0, "L", 0x0, "K", 0x0, 0x0, 0x0 ; `string'

  00000			 AREA	 |.rdata|, DATA, READONLY
|??_C@_1BC@HKFDEGNL@?$AAk?$AAS?$AAY?$AAS?$AA_?$AAC?$AAL?$AAK?$AA?$AA@| DCB "k"
	DCB	0x0, "S", 0x0, "Y", 0x0, "S", 0x0, "_", 0x0, "C", 0x0, "L"
	DCB	0x0, "K", 0x0, 0x0, 0x0			; `string'

  00000			 AREA	 |.rdata|, DATA, READONLY
|??_C@_1BE@ECNAPIHO@?$AAk?$AA3?$AA2?$AAK?$AA_?$AAF?$AAC?$AAL?$AAK?$AA?$AA@| DCB "k"
	DCB	0x0, "3", 0x0, "2", 0x0, "K", 0x0, "_", 0x0, "F", 0x0, "C"
	DCB	0x0, "L", 0x0, "K", 0x0, 0x0, 0x0	; `string'

  00000			 AREA	 |.rdata|, DATA, READONLY
|??_C@_1BG@DFNNJLGO@?$AAk?$AA1?$AA2?$AA0?$AAM?$AA_?$AAF?$AAC?$AAL?$AAK?$AA?$AA@| DCB "k"
	DCB	0x0, "1", 0x0, "2", 0x0, "0", 0x0, "M", 0x0, "_", 0x0, "F"
	DCB	0x0, "C", 0x0, "L", 0x0, "K", 0x0, 0x0, 0x0 ; `string'

  00000			 AREA	 |.rdata|, DATA, READONLY
|??_C@_1CK@BAAFIMCG@?$AAk?$AAE?$AAM?$AAU?$AAL?$AA_?$AAP?$AAE?$AAR?$AA_?$AAA?$AAL?$AAW?$AAO?$AAN?$AA_?$AAC?$AAL?$AAK?$AA?5?$AA?$AA@| DCB "k"
	DCB	0x0, "E", 0x0, "M", 0x0, "U", 0x0, "L", 0x0, "_", 0x0, "P"
	DCB	0x0, "E", 0x0, "R", 0x0, "_", 0x0, "A", 0x0, "L", 0x0, "W"
	DCB	0x0, "O", 0x0, "N", 0x0, "_", 0x0, "C", 0x0, "L", 0x0, "K"
	DCB	0x0, " ", 0x0, 0x0, 0x0			; `string'

  00000			 AREA	 |.rdata|, DATA, READONLY
|??_C@_1BE@HNDENLJM@?$AAk?$AAC?$AAA?$AAM?$AA_?$AAM?$AAC?$AAL?$AAK?$AA?$AA@| DCB "k"
	DCB	0x0, "C", 0x0, "A", 0x0, "M", 0x0, "_", 0x0, "M", 0x0, "C"
	DCB	0x0, "L", 0x0, "K", 0x0, 0x0, 0x0	; `string'

  00000			 AREA	 |.rdata|, DATA, READONLY
|??_C@_1CC@PPLCALCJ@?$AAk?$AAD?$AAS?$AAS?$AA1?$AA_?$AAA?$AAL?$AAW?$AAO?$AAN?$AA_?$AAF?$AAC?$AAL?$AAK?$AA?$AA@| DCB "k"
	DCB	0x0, "D", 0x0, "S", 0x0, "S", 0x0, "1", 0x0, "_", 0x0, "A"
	DCB	0x0, "L", 0x0, "W", 0x0, "O", 0x0, "N", 0x0, "_", 0x0, "F"
	DCB	0x0, "C", 0x0, "L", 0x0, "K", 0x0, 0x0, 0x0 ; `string'

  00000			 AREA	 |.rdata|, DATA, READONLY
|??_C@_1CA@EIKHJGPJ@?$AAk?$AAD?$AAP?$AAL?$AAL?$AA4?$AA_?$AAM?$AA3?$AAX?$AA2?$AA_?$AAC?$AAL?$AAK?$AA?$AA@| DCB "k"
	DCB	0x0, "D", 0x0, "P", 0x0, "L", 0x0, "L", 0x0, "4", 0x0, "_"
	DCB	0x0, "M", 0x0, "3", 0x0, "X", 0x0, "2", 0x0, "_", 0x0, "C"
	DCB	0x0, "L", 0x0, "K", 0x0, 0x0, 0x0	; `string'

  00000			 AREA	 |.rdata|, DATA, READONLY
|??_C@_1CG@DJDPLNE@?$AAk?$AAP?$AAR?$AAM?$AA_?$AA9?$AA6?$AAM?$AA_?$AAA?$AAL?$AAW?$AAO?$AAN?$AA_?$AAC?$AAL?$AAK?$AA?$AA@| DCB "k"
	DCB	0x0, "P", 0x0, "R", 0x0, "M", 0x0, "_", 0x0, "9", 0x0, "6"
	DCB	0x0, "M", 0x0, "_", 0x0, "A", 0x0, "L", 0x0, "W", 0x0, "O"
	DCB	0x0, "N", 0x0, "_", 0x0, "C", 0x0, "L", 0x0, "K", 0x0, 0x0
	DCB	0x0					; `string'

  00000			 AREA	 |.rdata|, DATA, READONLY
|??_C@_1CK@NDKHMFDM@?$AAk?$AAE?$AAM?$AAU?$AAL?$AA_?$AAC?$AAO?$AAR?$AAE?$AA_?$AAA?$AAL?$AAW?$AAO?$AAN?$AA_?$AAC?$AAL?$AAK?$AA?$AA@| DCB "k"
	DCB	0x0, "E", 0x0, "M", 0x0, "U", 0x0, "L", 0x0, "_", 0x0, "C"
	DCB	0x0, "O", 0x0, "R", 0x0, "E", 0x0, "_", 0x0, "A", 0x0, "L"
	DCB	0x0, "W", 0x0, "O", 0x0, "N", 0x0, "_", 0x0, "C", 0x0, "L"
	DCB	0x0, "K", 0x0, 0x0, 0x0			; `string'

  00000			 AREA	 |.rdata|, DATA, READONLY
|??_C@_1BK@CKNHOHLE@?$AAk?$AAC?$AAO?$AAR?$AAE?$AAX?$AA2?$AA_?$AAF?$AAC?$AAL?$AAK?$AA?$AA@| DCB "k"
	DCB	0x0, "C", 0x0, "O", 0x0, "R", 0x0, "E", 0x0, "X", 0x0, "2"
	DCB	0x0, "_", 0x0, "F", 0x0, "C", 0x0, "L", 0x0, "K", 0x0, 0x0
	DCB	0x0					; `string'

  00000			 AREA	 |.rdata|, DATA, READONLY
|??_C@_1BE@KIOEPBOF@?$AAk?$AAC?$AAO?$AAR?$AAE?$AA_?$AAC?$AAL?$AAK?$AA?$AA@| DCB "k"
	DCB	0x0, "C", 0x0, "O", 0x0, "R", 0x0, "E", 0x0, "_", 0x0, "C"
	DCB	0x0, "L", 0x0, "K", 0x0, 0x0, 0x0	; `string'

  00000			 AREA	 |.rdata|, DATA, READONLY
|??_C@_1BM@LAPEPOFC@?$AAk?$AAD?$AAP?$AAL?$AAL?$AA2?$AA_?$AAM?$AA2?$AA_?$AAC?$AAL?$AAK?$AA?$AA@| DCB "k"
	DCB	0x0, "D", 0x0, "P", 0x0, "L", 0x0, "L", 0x0, "2", 0x0, "_"
	DCB	0x0, "M", 0x0, "2", 0x0, "_", 0x0, "C", 0x0, "L", 0x0, "K"
	DCB	0x0, 0x0, 0x0				; `string'

  00000			 AREA	 |.rdata|, DATA, READONLY
|??_C@_1CA@KNEGPAKI@?$AAk?$AAD?$AAP?$AAL?$AAL?$AA1?$AA_?$AAM?$AA2?$AAX?$AA2?$AA_?$AAC?$AAL?$AAK?$AA?$AA@| DCB "k"
	DCB	0x0, "D", 0x0, "P", 0x0, "L", 0x0, "L", 0x0, "1", 0x0, "_"
	DCB	0x0, "M", 0x0, "2", 0x0, "X", 0x0, "2", 0x0, "_", 0x0, "C"
	DCB	0x0, "L", 0x0, "K", 0x0, 0x0, 0x0	; `string'

  00000			 AREA	 |.rdata|, DATA, READONLY
|??_C@_1BC@HPLLDAKE@?$AAk?$AAI?$AAN?$AAT?$AA_?$AAO?$AAS?$AAC?$AA?$AA@| DCB "k"
	DCB	0x0, "I", 0x0, "N", 0x0, "T", 0x0, "_", 0x0, "O", 0x0, "S"
	DCB	0x0, "C", 0x0, 0x0, 0x0			; `string'

  00000			 AREA	 |.rdata|, DATA, READONLY
|??_C@_1BE@CGAEBABM@?$AAk?$AAE?$AAX?$AAT?$AA_?$AAM?$AAI?$AAS?$AAC?$AA?$AA@| DCB "k"
	DCB	0x0, "E", 0x0, "X", 0x0, "T", 0x0, "_", 0x0, "M", 0x0, "I"
	DCB	0x0, "S", 0x0, "C", 0x0, 0x0, 0x0	; `string'

  00000			 AREA	 |.rdata|, DATA, READONLY
|??_C@_1BC@GMCNFJOM@?$AAk?$AAE?$AAX?$AAT?$AA_?$AAA?$AAL?$AAT?$AA?$AA@| DCB "k"
	DCB	0x0, "E", 0x0, "X", 0x0, "T", 0x0, "_", 0x0, "A", 0x0, "L"
	DCB	0x0, "T", 0x0, 0x0, 0x0			; `string'

  00000			 AREA	 |.rdata|, DATA, READONLY
|??_C@_1BK@KJEOLNHN@?$AAk?$AAE?$AAX?$AAT?$AA_?$AAS?$AAY?$AAS?$AA_?$AAC?$AAL?$AAK?$AA?$AA@| DCB "k"
	DCB	0x0, "E", 0x0, "X", 0x0, "T", 0x0, "_", 0x0, "S", 0x0, "Y"
	DCB	0x0, "S", 0x0, "_", 0x0, "C", 0x0, "L", 0x0, "K", 0x0, 0x0
	DCB	0x0					; `string'

  00000			 AREA	 |.rdata|, DATA, READONLY
|??_C@_1CC@LIKIOEDP@?$AAk?$AAD?$AAP?$AAL?$AAL?$AA5?$AA_?$AAC?$AAL?$AAK?$AAO?$AAU?$AAT?$AA_?$AAM?$AA2?$AA?$AA@| DCB "k"
	DCB	0x0, "D", 0x0, "P", 0x0, "L", 0x0, "L", 0x0, "5", 0x0, "_"
	DCB	0x0, "C", 0x0, "L", 0x0, "K", 0x0, "O", 0x0, "U", 0x0, "T"
	DCB	0x0, "_", 0x0, "M", 0x0, "2", 0x0, 0x0, 0x0 ; `string'

  00000			 AREA	 |.rdata|, DATA, READONLY
|??_C@_1CG@JKMHNEID@?$AAk?$AAD?$AAP?$AAL?$AAL?$AA4?$AA_?$AAC?$AAL?$AAK?$AAO?$AAU?$AAT?$AA_?$AAM?$AA6?$AAX?$AA2?$AA?$AA@| DCB "k"
	DCB	0x0, "D", 0x0, "P", 0x0, "L", 0x0, "L", 0x0, "4", 0x0, "_"
	DCB	0x0, "C", 0x0, "L", 0x0, "K", 0x0, "O", 0x0, "U", 0x0, "T"
	DCB	0x0, "_", 0x0, "M", 0x0, "6", 0x0, "X", 0x0, "2", 0x0, 0x0
	DCB	0x0					; `string'

  00000			 AREA	 |.rdata|, DATA, READONLY
|??_C@_1CG@BEEINDGA@?$AAk?$AAD?$AAP?$AAL?$AAL?$AA4?$AA_?$AAC?$AAL?$AAK?$AAO?$AAU?$AAT?$AA_?$AAM?$AA5?$AAX?$AA2?$AA?$AA@| DCB "k"
	DCB	0x0, "D", 0x0, "P", 0x0, "L", 0x0, "L", 0x0, "4", 0x0, "_"
	DCB	0x0, "C", 0x0, "L", 0x0, "K", 0x0, "O", 0x0, "U", 0x0, "T"
	DCB	0x0, "_", 0x0, "M", 0x0, "5", 0x0, "X", 0x0, "2", 0x0, 0x0
	DCB	0x0					; `string'

  00000			 AREA	 |.rdata|, DATA, READONLY
|??_C@_1CG@NIOCNDPO@?$AAk?$AAD?$AAP?$AAL?$AAL?$AA4?$AA_?$AAC?$AAL?$AAK?$AAO?$AAU?$AAT?$AA_?$AAM?$AA4?$AAX?$AA2?$AA?$AA@| DCB "k"
	DCB	0x0, "D", 0x0, "P", 0x0, "L", 0x0, "L", 0x0, "4", 0x0, "_"
	DCB	0x0, "C", 0x0, "L", 0x0, "K", 0x0, "O", 0x0, "U", 0x0, "T"
	DCB	0x0, "_", 0x0, "M", 0x0, "4", 0x0, "X", 0x0, "2", 0x0, 0x0
	DCB	0x0					; `string'

  00000			 AREA	 |.rdata|, DATA, READONLY
|??_C@_1CG@NCCHNKOH@?$AAk?$AAD?$AAP?$AAL?$AAL?$AA4?$AA_?$AAC?$AAL?$AAK?$AAO?$AAU?$AAT?$AA_?$AAM?$AA3?$AAX?$AA2?$AA?$AA@| DCB "k"
	DCB	0x0, "D", 0x0, "P", 0x0, "L", 0x0, "L", 0x0, "4", 0x0, "_"
	DCB	0x0, "C", 0x0, "L", 0x0, "K", 0x0, "O", 0x0, "U", 0x0, "T"
	DCB	0x0, "_", 0x0, "M", 0x0, "3", 0x0, "X", 0x0, "2", 0x0, 0x0
	DCB	0x0					; `string'

  00000			 AREA	 |.rdata|, DATA, READONLY
|??_C@_1CG@BOINNKHJ@?$AAk?$AAD?$AAP?$AAL?$AAL?$AA4?$AA_?$AAC?$AAL?$AAK?$AAO?$AAU?$AAT?$AA_?$AAM?$AA2?$AAX?$AA2?$AA?$AA@| DCB "k"
	DCB	0x0, "D", 0x0, "P", 0x0, "L", 0x0, "L", 0x0, "4", 0x0, "_"
	DCB	0x0, "C", 0x0, "L", 0x0, "K", 0x0, "O", 0x0, "U", 0x0, "T"
	DCB	0x0, "_", 0x0, "M", 0x0, "2", 0x0, "X", 0x0, "2", 0x0, 0x0
	DCB	0x0					; `string'

  00000			 AREA	 |.rdata|, DATA, READONLY
|??_C@_1CG@NGCOCJLE@?$AAk?$AAD?$AAP?$AAL?$AAL?$AA3?$AA_?$AAC?$AAL?$AAK?$AAO?$AAU?$AAT?$AA_?$AAM?$AA3?$AAX?$AA2?$AA?$AA@| DCB "k"
	DCB	0x0, "D", 0x0, "P", 0x0, "L", 0x0, "L", 0x0, "3", 0x0, "_"
	DCB	0x0, "C", 0x0, "L", 0x0, "K", 0x0, "O", 0x0, "U", 0x0, "T"
	DCB	0x0, "_", 0x0, "M", 0x0, "3", 0x0, "X", 0x0, "2", 0x0, 0x0
	DCB	0x0					; `string'

  00000			 AREA	 |.rdata|, DATA, READONLY
|??_C@_1CG@BKIECJCK@?$AAk?$AAD?$AAP?$AAL?$AAL?$AA3?$AA_?$AAC?$AAL?$AAK?$AAO?$AAU?$AAT?$AA_?$AAM?$AA2?$AAX?$AA2?$AA?$AA@| DCB "k"
	DCB	0x0, "D", 0x0, "P", 0x0, "L", 0x0, "L", 0x0, "3", 0x0, "_"
	DCB	0x0, "C", 0x0, "L", 0x0, "K", 0x0, "O", 0x0, "U", 0x0, "T"
	DCB	0x0, "_", 0x0, "M", 0x0, "2", 0x0, "X", 0x0, "2", 0x0, 0x0
	DCB	0x0					; `string'

  00000			 AREA	 |.rdata|, DATA, READONLY
|??_C@_1CC@IJFLGGP@?$AAk?$AAD?$AAP?$AAL?$AAL?$AA3?$AA_?$AAC?$AAL?$AAK?$AAO?$AAU?$AAT?$AA_?$AAM?$AA2?$AA?$AA@| DCB "k"
	DCB	0x0, "D", 0x0, "P", 0x0, "L", 0x0, "L", 0x0, "3", 0x0, "_"
	DCB	0x0, "C", 0x0, "L", 0x0, "K", 0x0, "O", 0x0, "U", 0x0, "T"
	DCB	0x0, "_", 0x0, "M", 0x0, "2", 0x0, 0x0, 0x0 ; `string'

  00000			 AREA	 |.rdata|, DATA, READONLY
|??_C@_1CC@IJLANDEI@?$AAk?$AAD?$AAP?$AAL?$AAL?$AA2?$AA_?$AAC?$AAL?$AAK?$AAO?$AAU?$AAT?$AA_?$AAM?$AA2?$AA?$AA@| DCB "k"
	DCB	0x0, "D", 0x0, "P", 0x0, "L", 0x0, "L", 0x0, "2", 0x0, "_"
	DCB	0x0, "C", 0x0, "L", 0x0, "K", 0x0, "O", 0x0, "U", 0x0, "T"
	DCB	0x0, "_", 0x0, "M", 0x0, "2", 0x0, 0x0, 0x0 ; `string'

  00000			 AREA	 |.rdata|, DATA, READONLY
|??_C@_1CG@BJOPNDBA@?$AAk?$AAD?$AAP?$AAL?$AAL?$AA1?$AA_?$AAC?$AAL?$AAK?$AAO?$AAU?$AAT?$AA_?$AAM?$AA2?$AAX?$AA2?$AA?$AA@| DCB "k"
	DCB	0x0, "D", 0x0, "P", 0x0, "L", 0x0, "L", 0x0, "1", 0x0, "_"
	DCB	0x0, "C", 0x0, "L", 0x0, "K", 0x0, "O", 0x0, "U", 0x0, "T"
	DCB	0x0, "_", 0x0, "M", 0x0, "2", 0x0, "X", 0x0, "2", 0x0, 0x0
	DCB	0x0					; `string'

  00000			 AREA	 |.rdata|, DATA, READONLY
|??_C@_1BG@FJDLHCCD@?$AAk?$AAE?$AAX?$AAT?$AA_?$AA3?$AA2?$AAK?$AAH?$AAZ?$AA?$AA@| DCB "k"
	DCB	0x0, "E", 0x0, "X", 0x0, "T", 0x0, "_", 0x0, "3", 0x0, "2"
	DCB	0x0, "K", 0x0, "H", 0x0, "Z", 0x0, 0x0, 0x0 ; `string'

  00000			 AREA	 |.rdata|, DATA, READONLY
|??_C@_1BE@EHNFPPJL@?$AAk?$AAD?$AAP?$AAL?$AAL?$AA_?$AAE?$AAX?$AAT?$AA?$AA@| DCB "k"
	DCB	0x0, "D", 0x0, "P", 0x0, "L", 0x0, "L", 0x0, "_", 0x0, "E"
	DCB	0x0, "X", 0x0, "T", 0x0, 0x0, 0x0	; `string'

  00000			 AREA	 |.rdata|, DATA, READONLY
|??_C@_1O@KGINCNBN@?$AAk?$AAD?$AAP?$AAL?$AAL?$AA5?$AA?$AA@| DCB "k", 0x0, "D"
	DCB	0x0, "P", 0x0, "L", 0x0, "L", 0x0, "5", 0x0, 0x0, 0x0 ; `string'

  00000			 AREA	 |.rdata|, DATA, READONLY
|??_C@_1O@BODBEKHI@?$AAk?$AAD?$AAP?$AAL?$AAL?$AA4?$AA?$AA@| DCB "k", 0x0, "D"
	DCB	0x0, "P", 0x0, "L", 0x0, "L", 0x0, "4", 0x0, 0x0, 0x0 ; `string'

  00000			 AREA	 |.rdata|, DATA, READONLY
|??_C@_1O@IDOGHCMB@?$AAk?$AAD?$AAP?$AAL?$AAL?$AA3?$AA?$AA@| DCB "k", 0x0, "D"
	DCB	0x0, "P", 0x0, "L", 0x0, "L", 0x0, "3", 0x0, 0x0, 0x0 ; `string'

  00000			 AREA	 |.rdata|, DATA, READONLY
|??_C@_1O@DLFKBFKE@?$AAk?$AAD?$AAP?$AAL?$AAL?$AA2?$AA?$AA@| DCB "k", 0x0, "D"
	DCB	0x0, "P", 0x0, "L", 0x0, "L", 0x0, "2", 0x0, 0x0, 0x0 ; `string'

  00000			 AREA	 |.rdata|, DATA, READONLY
|??_C@_1O@CJOPLKEK@?$AAk?$AAD?$AAP?$AAL?$AAL?$AA1?$AA?$AA@| DCB "k", 0x0, "D"
	DCB	0x0, "P", 0x0, "L", 0x0, "L", 0x0, "1", 0x0, 0x0, 0x0 ; `string'

  00000			 AREA	 |.rdata|, DATA, READONLY
|??_C@_1BE@KENFMBEG@?$AAk?$AAM?$AAM?$AAC?$AA_?$AAV?$AAD?$AAD?$AAS?$AA?$AA@| DCB "k"
	DCB	0x0, "M", 0x0, "M", 0x0, "C", 0x0, "_", 0x0, "V", 0x0, "D"
	DCB	0x0, "D", 0x0, "S", 0x0, 0x0, 0x0	; `string'

  00000			 AREA	 |.rdata|, DATA, READONLY
|??_C@_1BC@ODEKFAPK@?$AAk?$AAV?$AAD?$AAD?$AAA?$AAD?$AAA?$AAC?$AA?$AA@| DCB "k"
	DCB	0x0, "V", 0x0, "D", 0x0, "D", 0x0, "A", 0x0, "D", 0x0, "A"
	DCB	0x0, "C", 0x0, 0x0, 0x0			; `string'

  00000			 AREA	 |.rdata|, DATA, READONLY
|??_C@_1BA@PHFNGHLK@?$AAk?$AAV?$AAD?$AAD?$AAP?$AAL?$AAL?$AA?$AA@| DCB "k", 0x0
	DCB	"V", 0x0, "D", 0x0, "D", 0x0, "P", 0x0, "L", 0x0, "L", 0x0
	DCB	0x0, 0x0				; `string'

  00000			 AREA	 |.rdata|, DATA, READONLY
|??_C@_1M@IJEGCDLI@?$AAk?$AAV?$AAD?$AAD?$AAS?$AA?$AA@| DCB "k", 0x0, "V", 0x0
	DCB	"D", 0x0, "D", 0x0, "S", 0x0, 0x0, 0x0	; `string'

  00000			 AREA	 |.rdata|, DATA, READONLY
|??_C@_1BC@PPJANNEK@?$AAk?$AAV?$AAD?$AAD?$AA_?$AAE?$AAX?$AAT?$AA?$AA@| DCB "k"
	DCB	0x0, "V", 0x0, "D", 0x0, "D", 0x0, "_", 0x0, "E", 0x0, "X"
	DCB	0x0, "T", 0x0, 0x0, 0x0			; `string'

  00000			 AREA	 |.rdata|, DATA, READONLY
|??_C@_1M@JHALILGH@?$AAk?$AAV?$AAD?$AAD?$AA5?$AA?$AA@| DCB "k", 0x0, "V", 0x0
	DCB	"D", 0x0, "D", 0x0, "5", 0x0, 0x0, 0x0	; `string'

  00000			 AREA	 |.rdata|, DATA, READONLY
|??_C@_1M@CPLHOMAC@?$AAk?$AAV?$AAD?$AAD?$AA4?$AA?$AA@| DCB "k", 0x0, "V", 0x0
	DCB	"D", 0x0, "D", 0x0, "4", 0x0, 0x0, 0x0	; `string'

  00000			 AREA	 |.rdata|, DATA, READONLY
|??_C@_1M@LCGANELL@?$AAk?$AAV?$AAD?$AAD?$AA3?$AA?$AA@| DCB "k", 0x0, "V", 0x0
	DCB	"D", 0x0, "D", 0x0, "3", 0x0, 0x0, 0x0	; `string'

  00000			 AREA	 |.rdata|, DATA, READONLY
|??_C@_1M@KNMLDNO@?$AAk?$AAV?$AAD?$AAD?$AA2?$AA?$AA@| DCB "k", 0x0, "V", 0x0
	DCB	"D", 0x0, "D", 0x0, "2", 0x0, 0x0, 0x0	; `string'

  00000			 AREA	 |.rdata|, DATA, READONLY
|??_C@_1M@BIGJBMDA@?$AAk?$AAV?$AAD?$AAD?$AA1?$AA?$AA@| DCB "k", 0x0, "V", 0x0
	DCB	"D", 0x0, "D", 0x0, "1", 0x0, 0x0, 0x0	; `string'

  00000			 AREA	 |.data|, DATA
|_dpll_1| DCD	0x0
	DCD	0x0
	DCD	0x1
	DCD	0x0
	DCD	0x5
	DCD	0x1
	DCD	0x0
	DCD	0x0
	DCD	0x0
	DCD	0x1
|_dpll_2| DCD	0x0
	DCD	0x0
	DCD	0x1
	DCD	0x0
	DCD	0x1
	DCD	0x1
	DCD	0x0
	DCD	0x0
	DCD	0x0
	DCD	0x1
|_dpll_3| DCD	0x0
	DCD	0x0
	DCD	0x1
	DCD	0x0
	DCD	0x5
	DCD	0x1
	DCD	0x0
	DCD	0x0
	DCD	0x0
	DCD	0x1
|_dpll_4| DCD	0x0
	DCD	0x0
	DCD	0x1
	DCD	0x0
	DCD	0x1
	DCD	0x1
	DCD	0x0
	DCD	0x0
	DCD	0x0
	DCD	0x1
|_dpll_5| DCD	0x0
	DCD	0x0
	DCD	0x1
	DCD	0x0
	DCD	0x1
	DCD	0x1
	DCD	0x0
	DCD	0x0
	DCD	0x0
	DCD	0x1
|_ssr_fclk| DCD	0x1
	DCD	0x3
	DCD	0x1
|_cam_fclk| DCD	0x1
	DCD	0x9
	DCD	0x10
|_dss1_fclk| DCD 0x1
	DCD	0x8
	DCD	0x10
|_usim_fclk| DCD 0x2
	DCD	0xc
	DCD	0x2
	DCD	0x44
	DCD	0x0
|_cm_usim_fclk| DCD 0x2
	DCD	0x46
	DCD	0x0
	DCD	0xa
	DCD	0x0
|_sgx_fclk| DCD	0x4
	DCD	0x2
	DCD	0x0
	DCD	0x21
	DCD	0x3
	DCD	0x5
	DCD	0x4
	DCD	0x3
	DCD	0x6
|_tv_fclk| DCD	0x2
	DCD	0x6
	DCD	0x10
	DCD	0xd
	DCD	0x0
|?_usim_sysclk_map@?1??PrcmClockSetDivisor@@9@9| DCB 0xff ; `PrcmClockSetDivisor'::`2'::_usim_sysclk_map
	DCB	0x1
	DCB	0x2
	%	1
|s_DpllTable| DCD 0x0
	DCD	0x0
	DCD	|_dpll_1|
	DCD	0x0
	DCD	0x0
	DCD	|_dpll_2|
	DCD	0x1
	DCD	0x0
	DCD	|_dpll_3|
	DCD	0x3
	DCD	0x0
	DCD	|_dpll_4|
	DCD	0x4
	DCD	0x0
	DCD	|_dpll_5|
	DCD	0x5
	DCD	0x0
	DCD	0x0
|s_DpllClkOutTable| DCD 0x5
	DCD	0x0
	DCD	0x0
	DCD	0x0
	DCD	0x1
	DCD	0x0
	DCD	0x2
	DCD	0x0
	DCD	0x2
	DCD	0x0
	DCD	0x2
	DCD	0x0
	DCD	0x3
	DCD	0x0
	DCD	0x3
	DCD	0x0
	DCD	0x3
	DCD	0x0
	DCD	0x3
	DCD	0x0
	DCD	0x3
	DCD	0x0
	DCD	0x4
	DCD	0x0
	DCD	0x5
	DCD	0x0
	DCD	0x5
	DCD	0x0
	DCD	0x5
	DCD	0x0
	%	8
|s_SrcClockTable| DCD 0x1
	DCD	0x0
	DCD	0x1
	DCD	0x0
	DCD	0x0
	DCD	0x2
	DCD	0x0
	DCD	0x1
	DCD	0x0
	DCD	0x1
	DCD	0x3
	DCD	0x0
	DCD	0x1
	DCD	0x0
	DCD	0x2
	DCD	0x4
	DCD	0x0
	DCD	0x1
	DCD	0x0
	DCD	0x3
	DCD	0x5
	DCD	0x0
	DCD	0x1
	DCD	0x0
	DCD	0x4
	DCD	0x6
	DCD	0x0
	DCD	0x1
	DCD	0x0
	DCD	0x5
	DCD	0x7
	DCD	0x0
	DCD	0x1
	DCD	0x0
	DCD	0x6
	DCD	0x8
	DCD	0x0
	DCD	0x1
	DCD	|_dss1_fclk|
	DCD	0x7
	DCD	0x9
	DCD	0x0
	DCD	0x1
	DCD	|_cam_fclk|
	DCD	0x8
	DCD	0xa
	DCD	0x0
	DCD	0x1
	DCD	0x0
	DCD	0x9
	DCD	0xb
	DCD	0x0
	DCD	0x1
	DCD	0x0
	DCD	0xa
	DCD	0x0
	DCD	0x0
	DCD	0x1
	DCD	0x0
	DCD	0xb
	DCD	0xc
	DCD	0x0
	DCD	0x1
	DCD	0x0
	DCD	0xc
	DCD	0xd
	DCD	0x0
	DCD	0x1
	DCD	0x0
	DCD	0xd
	DCD	0xf
	DCD	0x0
	DCD	0x1
	DCD	0x0
	DCD	0xe
	DCD	0xe
	DCD	0x0
	DCD	0x1
	DCD	0x0
	DCD	0xf
	DCD	0xc
	DCD	0x0
	DCD	0x0
	DCD	0x0
	DCD	0x10
	DCD	0xc
	DCD	0x0
	DCD	0x0
	DCD	0x0
	DCD	0x11
	DCD	0xc
	DCD	0x0
	DCD	0x0
	DCD	0x0
	DCD	0x12
	DCD	0xc
	DCD	0x0
	DCD	0x0
	DCD	0x0
	DCD	0x13
	DCD	0xc
	DCD	0x0
	DCD	0x0
	DCD	0x0
	DCD	0x14
	DCD	0xc
	DCD	0x0
	DCD	0x0
	DCD	0x0
	DCD	0x15
	DCD	0xc
	DCD	0x0
	DCD	0x0
	DCD	0x0
	DCD	0x16
	DCD	0xc
	DCD	0x0
	DCD	0x0
	DCD	0x0
	DCD	0x17
	DCD	0xc
	DCD	0x0
	DCD	0x0
	DCD	0x0
	DCD	0x18
	DCD	0xc
	DCD	0x0
	DCD	0x0
	DCD	0x0
	DCD	0x19
	DCD	0xc
	DCD	0x0
	DCD	0x0
	DCD	0x0
	DCD	0x1a
	DCD	0xc
	DCD	0x0
	DCD	0x0
	DCD	0x0
	DCD	0x1b
	DCD	0xb
	DCD	0x0
	DCD	0x0
	DCD	0x0
	DCD	0x1c
	DCD	0x1c
	DCD	0x0
	DCD	0x0
	DCD	0x0
	DCD	0x1d
	DCD	0xb
	DCD	0x0
	DCD	0x0
	DCD	0x0
	DCD	0x1e
	DCD	0xb
	DCD	0x0
	DCD	0x0
	DCD	0x0
	DCD	0x1f
	DCD	0xa
	DCD	0x0
	DCD	0x0
	DCD	0x0
	DCD	0x20
	DCD	0x5
	DCD	0x0
	DCD	0x0
	DCD	0x0
	DCD	0x21
	DCD	0x5
	DCD	0x0
	DCD	0x0
	DCD	0x0
	DCD	0x22
	DCD	0x2
	DCD	0x0
	DCD	0x0
	DCD	0x0
	DCD	0x23
	DCD	0x23
	DCD	0x0
	DCD	0x0
	DCD	0x0
	DCD	0x24
	DCD	0x24
	DCD	0x0
	DCD	0x0
	DCD	0x0
	DCD	0x25
	DCD	0x24
	DCD	0x0
	DCD	0x0
	DCD	0x0
	DCD	0x26
	DCD	0x2
	DCD	0x0
	DCD	0x0
	DCD	0x0
	DCD	0x27
	DCD	0x2
	DCD	0x0
	DCD	0x0
	DCD	0x0
	DCD	0x28
	DCD	0x23
	DCD	0x0
	DCD	0x0
	DCD	0x0
	DCD	0x29
	DCD	0x24
	DCD	0x0
	DCD	0x0
	DCD	0x0
	DCD	0x2a
	DCD	0x23
	DCD	0x0
	DCD	0x0
	DCD	0x0
	DCD	0x2b
	DCD	0x24
	DCD	0x0
	DCD	0x0
	DCD	0x0
	DCD	0x2c
	DCD	0x24
	DCD	0x0
	DCD	0x0
	DCD	0x0
	DCD	0x2d
	DCD	0x23
	DCD	0x0
	DCD	0x0
	DCD	0x0
	DCD	0x2e
	DCD	0x24
	DCD	0x0
	DCD	0x0
	DCD	0x0
	DCD	0x2f
	DCD	0x23
	DCD	0x0
	DCD	0x0
	DCD	0x0
	DCD	0x30
	DCD	0x24
	DCD	0x0
	DCD	0x0
	DCD	0x0
	DCD	0x31
	DCD	0x23
	DCD	0x0
	DCD	0x0
	DCD	0x0
	DCD	0x32
	DCD	0x24
	DCD	0x0
	DCD	0x0
	DCD	0x0
	DCD	0x33
	DCD	0x23
	DCD	0x0
	DCD	0x0
	DCD	0x0
	DCD	0x34
	DCD	0x24
	DCD	0x0
	DCD	0x0
	DCD	0x0
	DCD	0x35
	DCD	0x24
	DCD	0x0
	DCD	0x0
	DCD	0x0
	DCD	0x36
	DCD	0x24
	DCD	0x0
	DCD	0x0
	DCD	0x0
	DCD	0x37
	DCD	0x3
	DCD	0x0
	DCD	0x0
	DCD	|_ssr_fclk|
	DCD	0x38
	DCD	0x3
	DCD	0x0
	DCD	0x0
	DCD	0x0
	DCD	0x39
	DCD	0x46
	DCD	0x0
	DCD	0x0
	DCD	0x0
	DCD	0x3a
	DCD	0x46
	DCD	0x0
	DCD	0x0
	DCD	0x0
	DCD	0x3b
	DCD	0x46
	DCD	0x0
	DCD	0x0
	DCD	0x0
	DCD	0x3c
	DCD	0x47
	DCD	0x0
	DCD	0x0
	DCD	0x0
	DCD	0x3d
	DCD	0x47
	DCD	0x0
	DCD	0x0
	DCD	0x0
	DCD	0x3e
	DCD	0x47
	DCD	0x0
	DCD	0x0
	DCD	0x0
	DCD	0x3f
	DCD	0x47
	DCD	0x0
	DCD	0x0
	DCD	0x0
	DCD	0x40
	DCD	0x40
	DCD	0x0
	DCD	0x0
	DCD	0x0
	DCD	0x41
	DCD	0x48
	DCD	0x0
	DCD	0x0
	DCD	0x0
	DCD	0x42
	DCD	0xa
	DCD	0x0
	DCD	0x0
	DCD	0x0
	DCD	0x43
	DCD	0x21
	DCD	0x0
	DCD	0x0
	DCD	|_cm_usim_fclk|
	DCD	0x44
	DCD	0xc
	DCD	0x0
	DCD	0x0
	DCD	|_usim_fclk|
	DCD	0x45
	DCD	0x21
	DCD	0x0
	DCD	0x0
	DCD	0x0
	DCD	0x46
	DCD	0x21
	DCD	0x0
	DCD	0x0
	DCD	0x0
	DCD	0x47
	DCD	0x6
	DCD	0x0
	DCD	0x0
	DCD	|_tv_fclk|
	DCD	0x48
	DCD	0x2
	DCD	0x0
	DCD	0x0
	DCD	|_sgx_fclk|
	DCD	0x49
	DCD	0xb
	DCD	0x0
	DCD	0x0
	DCD	0x0
	DCD	0x4a
	DCD	0xc
	DCD	0x0
	DCD	0x0
	DCD	0x0
	DCD	0x4b
	DCD	0xc
	DCD	0x0
	DCD	0x0
	DCD	0x0
	DCD	0x4c
	DCD	0xc
	DCD	0x0
	DCD	0x0
	DCD	0x0
	DCD	0x4d
	DCD	0xc
	DCD	0x0
	DCD	0x0
	DCD	0x0
	DCD	0x4e
	DCD	0xc
	DCD	0x0
	DCD	0x0
	DCD	0x0
	DCD	0x4f
	DCD	0xc
	DCD	0x0
	DCD	0x0
	DCD	0x0
	DCD	0x50
	DCD	0xc
	DCD	0x0
	DCD	0x0
	DCD	0x0
	DCD	0x51
	DCD	0xc
	DCD	0x0
	DCD	0x0
	DCD	0x0
	DCD	0x52
	DCD	0x19
	DCD	0x0
	DCD	0x0
	DCD	0x0
	DCD	0x53
	DCD	0x19
	DCD	0x0
	DCD	0x0
	DCD	0x0
	DCD	0x54
	DCD	0x3a
	DCD	0x0
	DCD	0x0
	DCD	0x0
	DCD	0x55
	DCD	0x22
	DCD	0x0
	DCD	0x0
	DCD	0x0
	DCD	0x56
	DCD	0x22
	DCD	0x0
	DCD	0x0
	DCD	0x0
	DCD	0x57
	DCD	0x22
	DCD	0x0
	DCD	0x0
	DCD	0x0
	DCD	0x58
	DCD	0x3a
	DCD	0x0
	DCD	0x0
	DCD	0x0
	DCD	0x59
|?_sgx_core_clk@?1??PrcmClockSetDivisor@@9@9| DCB 0xff	; `PrcmClockSetDivisor'::`2'::_sgx_core_clk
	DCB	0xff
	DCB	0x5
	DCB	0x0
	DCB	0x1
	DCB	0xff
	DCB	0x2
	%	1
|?_sgx_96M_fclk@?1??PrcmClockSetDivisor@@9@9| DCB 0xff	; `PrcmClockSetDivisor'::`2'::_sgx_96M_fclk
	DCB	0x3
	%	2
|?_sgx_96M_192_alwon_clk@?1??PrcmClockSetDivisor@@9@9| DCB 0xff ; `PrcmClockSetDivisor'::`2'::_sgx_96M_192_alwon_clk
	DCB	0x4
	%	2
|?_sgx_corex2_fclk@?1??PrcmClockSetDivisor@@9@9| DCB 0xff ; `PrcmClockSetDivisor'::`2'::_sgx_corex2_fclk
	DCB	0xff
	DCB	0xff
	DCB	0x6
	DCB	0xff
	DCB	0x7
	%	2
|?_usim_96m_map@?1??PrcmClockSetDivisor@@9@9| DCB 0xff	; `PrcmClockSetDivisor'::`2'::_usim_96m_map
	DCB	0xff
	DCB	0x3
	DCB	0xff
	DCB	0x4
	DCB	0xff
	DCB	0xff
	DCB	0xff
	DCB	0x5
	DCB	0xff
	DCB	0x6
	%	1
|?_usim_120m_map@?1??PrcmClockSetDivisor@@9@9| DCB 0xff	; `PrcmClockSetDivisor'::`2'::_usim_120m_map
	DCB	0xff
	DCB	0xff
	DCB	0xff
	DCB	0x7
	DCB	0xff
	DCB	0xff
	DCB	0xff
	DCB	0x8
	DCB	0xff
	DCB	0xff
	DCB	0xff
	DCB	0xff
	DCB	0xff
	DCB	0xff
	DCB	0xff
	DCB	0x9
	DCB	0xff
	DCB	0xff
	DCB	0xff
	DCB	0xa
	%	3
|?_rgSysClkTbl@?1??PrcmClockGetSystemClockFrequency@@9@9| DCD 0x41400000 ; 12 ; `PrcmClockGetSystemClockFrequency'::`2'::_rgSysClkTbl
	DCD	0x41500000				; 13
	DCD	0x4199999a				; 19.2
	DCD	0x41d00000				; 26
	DCD	0x4219999a				; 38.4
	DCD	0x41866666				; 16.8
|s_VddNameTable| DCD |??_C@_1M@BIGJBMDA@?$AAk?$AAV?$AAD?$AAD?$AA1?$AA?$AA@|
	DCD	|??_C@_1M@KNMLDNO@?$AAk?$AAV?$AAD?$AAD?$AA2?$AA?$AA@|
	DCD	|??_C@_1M@LCGANELL@?$AAk?$AAV?$AAD?$AAD?$AA3?$AA?$AA@|
	DCD	|??_C@_1M@CPLHOMAC@?$AAk?$AAV?$AAD?$AAD?$AA4?$AA?$AA@|
	DCD	|??_C@_1M@JHALILGH@?$AAk?$AAV?$AAD?$AAD?$AA5?$AA?$AA@|
	DCD	|??_C@_1BC@PPJANNEK@?$AAk?$AAV?$AAD?$AAD?$AA_?$AAE?$AAX?$AAT?$AA?$AA@|
	DCD	|??_C@_1M@IJEGCDLI@?$AAk?$AAV?$AAD?$AAD?$AAS?$AA?$AA@|
	DCD	|??_C@_1BA@PHFNGHLK@?$AAk?$AAV?$AAD?$AAD?$AAP?$AAL?$AAL?$AA?$AA@|
	DCD	|??_C@_1BC@ODEKFAPK@?$AAk?$AAV?$AAD?$AAD?$AAA?$AAD?$AAA?$AAC?$AA?$AA@|
	DCD	|??_C@_1BE@KENFMBEG@?$AAk?$AAM?$AAM?$AAC?$AA_?$AAV?$AAD?$AAD?$AAS?$AA?$AA@|
|s_DpllNameTable| DCD |??_C@_1O@CJOPLKEK@?$AAk?$AAD?$AAP?$AAL?$AAL?$AA1?$AA?$AA@|
	DCD	|??_C@_1O@DLFKBFKE@?$AAk?$AAD?$AAP?$AAL?$AAL?$AA2?$AA?$AA@|
	DCD	|??_C@_1O@IDOGHCMB@?$AAk?$AAD?$AAP?$AAL?$AAL?$AA3?$AA?$AA@|
	DCD	|??_C@_1O@BODBEKHI@?$AAk?$AAD?$AAP?$AAL?$AAL?$AA4?$AA?$AA@|
	DCD	|??_C@_1O@KGINCNBN@?$AAk?$AAD?$AAP?$AAL?$AAL?$AA5?$AA?$AA@|
	DCD	|??_C@_1BE@EHNFPPJL@?$AAk?$AAD?$AAP?$AAL?$AAL?$AA_?$AAE?$AAX?$AAT?$AA?$AA@|
|DomainNameTable| DCD |??_C@_1CG@GNBBGDGH@?$AAP?$AAO?$AAW?$AAE?$AAR?$AAD?$AAO?$AAM?$AAA?$AAI?$AAN?$AA_?$AAW?$AAA?$AAK?$AAE?$AAU?$AAP?$AA?$AA@|
	DCD	|??_C@_1CC@DPNIOGJP@?$AAP?$AAO?$AAW?$AAE?$AAR?$AAD?$AAO?$AAM?$AAA?$AAI?$AAN?$AA_?$AAC?$AAO?$AAR?$AAE?$AA?$AA@|
	DCD	|??_C@_1CO@GHAPCMEA@?$AAP?$AAO?$AAW?$AAE?$AAR?$AAD?$AAO?$AAM?$AAA?$AAI?$AAN?$AA_?$AAP?$AAE?$AAR?$AAI?$AAP?$AAH?$AAE?$AAR?$AAA?$AAL?$AA?$AA@|
	DCD	|??_C@_1CI@LJKMALKI@?$AAP?$AAO?$AAW?$AAE?$AAR?$AAD?$AAO?$AAM?$AAA?$AAI?$AAN?$AA_?$AAU?$AAS?$AAB?$AAH?$AAO?$AAS?$AAT?$AA?$AA@|
	DCD	|??_C@_1CM@IICJPBKI@?$AAP?$AAO?$AAW?$AAE?$AAR?$AAD?$AAO?$AAM?$AAA?$AAI?$AAN?$AA_?$AAE?$AAM?$AAU?$AAL?$AAA?$AAT?$AAI?$AAO?$AAN?$AA?$AA@|
	DCD	|??_C@_1CA@MKHFGMJA@?$AAP?$AAO?$AAW?$AAE?$AAR?$AAD?$AAO?$AAM?$AAA?$AAI?$AAN?$AA_?$AAM?$AAP?$AAU?$AA?$AA@|
	DCD	|??_C@_1CA@HGMFFKMJ@?$AAP?$AAO?$AAW?$AAE?$AAR?$AAD?$AAO?$AAM?$AAA?$AAI?$AAN?$AA_?$AAD?$AAS?$AAS?$AA?$AA@|
	DCD	|??_C@_1CC@DDKPOHKD@?$AAP?$AAO?$AAW?$AAE?$AAR?$AAD?$AAO?$AAM?$AAA?$AAI?$AAN?$AA_?$AAN?$AAE?$AAO?$AAN?$AA?$AA@|
	DCD	|??_C@_1CC@DIKELEEG@?$AAP?$AAO?$AAW?$AAE?$AAR?$AAD?$AAO?$AAM?$AAA?$AAI?$AAN?$AA_?$AAI?$AAV?$AAA?$AA2?$AA?$AA@|
	DCD	|??_C@_1CG@OKLBKABF@?$AAP?$AAO?$AAW?$AAE?$AAR?$AAD?$AAO?$AAM?$AAA?$AAI?$AAN?$AA_?$AAC?$AAA?$AAM?$AAE?$AAR?$AAA?$AA?$AA@|
	DCD	|??_C@_1CA@EPPNKFHH@?$AAP?$AAO?$AAW?$AAE?$AAR?$AAD?$AAO?$AAM?$AAA?$AAI?$AAN?$AA_?$AAS?$AAG?$AAX?$AA?$AA@|
	DCD	|??_C@_1CE@NPBICAPK@?$AAP?$AAO?$AAW?$AAE?$AAR?$AAD?$AAO?$AAM?$AAA?$AAI?$AAN?$AA_?$AAE?$AAF?$AAU?$AAS?$AAE?$AA?$AA@|
	DCD	|??_C@_1DA@EDKFOKOO@?$AAP?$AAO?$AAW?$AAE?$AAR?$AAD?$AAO?$AAM?$AAA?$AAI?$AAN?$AA_?$AAS?$AAM?$AAA?$AAR?$AAT?$AAR?$AAE?$AAF?$AAL?$AAE?$AAX?$AA?$AA@|
|s_DpllClkOutNameTable| DCD |??_C@_1BG@FJDLHCCD@?$AAk?$AAE?$AAX?$AAT?$AA_?$AA3?$AA2?$AAK?$AAH?$AAZ?$AA?$AA@|
	DCD	|??_C@_1CG@BJOPNDBA@?$AAk?$AAD?$AAP?$AAL?$AAL?$AA1?$AA_?$AAC?$AAL?$AAK?$AAO?$AAU?$AAT?$AA_?$AAM?$AA2?$AAX?$AA2?$AA?$AA@|
	DCD	|??_C@_1CC@IJLANDEI@?$AAk?$AAD?$AAP?$AAL?$AAL?$AA2?$AA_?$AAC?$AAL?$AAK?$AAO?$AAU?$AAT?$AA_?$AAM?$AA2?$AA?$AA@|
	DCD	|??_C@_1CC@IJFLGGP@?$AAk?$AAD?$AAP?$AAL?$AAL?$AA3?$AA_?$AAC?$AAL?$AAK?$AAO?$AAU?$AAT?$AA_?$AAM?$AA2?$AA?$AA@|
	DCD	|??_C@_1CG@BKIECJCK@?$AAk?$AAD?$AAP?$AAL?$AAL?$AA3?$AA_?$AAC?$AAL?$AAK?$AAO?$AAU?$AAT?$AA_?$AAM?$AA2?$AAX?$AA2?$AA?$AA@|
	DCD	|??_C@_1CG@NGCOCJLE@?$AAk?$AAD?$AAP?$AAL?$AAL?$AA3?$AA_?$AAC?$AAL?$AAK?$AAO?$AAU?$AAT?$AA_?$AAM?$AA3?$AAX?$AA2?$AA?$AA@|
	DCD	|??_C@_1CG@BOINNKHJ@?$AAk?$AAD?$AAP?$AAL?$AAL?$AA4?$AA_?$AAC?$AAL?$AAK?$AAO?$AAU?$AAT?$AA_?$AAM?$AA2?$AAX?$AA2?$AA?$AA@|
	DCD	|??_C@_1CG@NCCHNKOH@?$AAk?$AAD?$AAP?$AAL?$AAL?$AA4?$AA_?$AAC?$AAL?$AAK?$AAO?$AAU?$AAT?$AA_?$AAM?$AA3?$AAX?$AA2?$AA?$AA@|
	DCD	|??_C@_1CG@NIOCNDPO@?$AAk?$AAD?$AAP?$AAL?$AAL?$AA4?$AA_?$AAC?$AAL?$AAK?$AAO?$AAU?$AAT?$AA_?$AAM?$AA4?$AAX?$AA2?$AA?$AA@|
	DCD	|??_C@_1CG@BEEINDGA@?$AAk?$AAD?$AAP?$AAL?$AAL?$AA4?$AA_?$AAC?$AAL?$AAK?$AAO?$AAU?$AAT?$AA_?$AAM?$AA5?$AAX?$AA2?$AA?$AA@|
	DCD	|??_C@_1CG@JKMHNEID@?$AAk?$AAD?$AAP?$AAL?$AAL?$AA4?$AA_?$AAC?$AAL?$AAK?$AAO?$AAU?$AAT?$AA_?$AAM?$AA6?$AAX?$AA2?$AA?$AA@|
	DCD	|??_C@_1CC@LIKIOEDP@?$AAk?$AAD?$AAP?$AAL?$AAL?$AA5?$AA_?$AAC?$AAL?$AAK?$AAO?$AAU?$AAT?$AA_?$AAM?$AA2?$AA?$AA@|
	DCD	|??_C@_1BK@KJEOLNHN@?$AAk?$AAE?$AAX?$AAT?$AA_?$AAS?$AAY?$AAS?$AA_?$AAC?$AAL?$AAK?$AA?$AA@|
	DCD	|??_C@_1BC@GMCNFJOM@?$AAk?$AAE?$AAX?$AAT?$AA_?$AAA?$AAL?$AAT?$AA?$AA@|
	DCD	|??_C@_1BE@CGAEBABM@?$AAk?$AAE?$AAX?$AAT?$AA_?$AAM?$AAI?$AAS?$AAC?$AA?$AA@|
	DCD	|??_C@_1BC@HPLLDAKE@?$AAk?$AAI?$AAN?$AAT?$AA_?$AAO?$AAS?$AAC?$AA?$AA@|
|s_SrcClockNameTable| DCD |??_C@_1CA@KNEGPAKI@?$AAk?$AAD?$AAP?$AAL?$AAL?$AA1?$AA_?$AAM?$AA2?$AAX?$AA2?$AA_?$AAC?$AAL?$AAK?$AA?$AA@|
	DCD	|??_C@_1BM@LAPEPOFC@?$AAk?$AAD?$AAP?$AAL?$AAL?$AA2?$AA_?$AAM?$AA2?$AA_?$AAC?$AAL?$AAK?$AA?$AA@|
	DCD	|??_C@_1BE@KIOEPBOF@?$AAk?$AAC?$AAO?$AAR?$AAE?$AA_?$AAC?$AAL?$AAK?$AA?$AA@|
	DCD	|??_C@_1BK@CKNHOHLE@?$AAk?$AAC?$AAO?$AAR?$AAE?$AAX?$AA2?$AA_?$AAF?$AAC?$AAL?$AAK?$AA?$AA@|
	DCD	|??_C@_1CK@NDKHMFDM@?$AAk?$AAE?$AAM?$AAU?$AAL?$AA_?$AAC?$AAO?$AAR?$AAE?$AA_?$AAA?$AAL?$AAW?$AAO?$AAN?$AA_?$AAC?$AAL?$AAK?$AA?$AA@|
	DCD	|??_C@_1CG@DJDPLNE@?$AAk?$AAP?$AAR?$AAM?$AA_?$AA9?$AA6?$AAM?$AA_?$AAA?$AAL?$AAW?$AAO?$AAN?$AA_?$AAC?$AAL?$AAK?$AA?$AA@|
	DCD	|??_C@_1CA@EIKHJGPJ@?$AAk?$AAD?$AAP?$AAL?$AAL?$AA4?$AA_?$AAM?$AA3?$AAX?$AA2?$AA_?$AAC?$AAL?$AAK?$AA?$AA@|
	DCD	|??_C@_1CC@PPLCALCJ@?$AAk?$AAD?$AAS?$AAS?$AA1?$AA_?$AAA?$AAL?$AAW?$AAO?$AAN?$AA_?$AAF?$AAC?$AAL?$AAK?$AA?$AA@|
	DCD	|??_C@_1BE@HNDENLJM@?$AAk?$AAC?$AAA?$AAM?$AA_?$AAM?$AAC?$AAL?$AAK?$AA?$AA@|
	DCD	|??_C@_1CK@BAAFIMCG@?$AAk?$AAE?$AAM?$AAU?$AAL?$AA_?$AAP?$AAE?$AAR?$AA_?$AAA?$AAL?$AAW?$AAO?$AAN?$AA_?$AAC?$AAL?$AAK?$AA?5?$AA?$AA@|
	DCD	|??_C@_1BG@DFNNJLGO@?$AAk?$AA1?$AA2?$AA0?$AAM?$AA_?$AAF?$AAC?$AAL?$AAK?$AA?$AA@|
	DCD	|??_C@_1BE@ECNAPIHO@?$AAk?$AA3?$AA2?$AAK?$AA_?$AAF?$AAC?$AAL?$AAK?$AA?$AA@|
	DCD	|??_C@_1BC@HKFDEGNL@?$AAk?$AAS?$AAY?$AAS?$AA_?$AAC?$AAL?$AAK?$AA?$AA@|
	DCD	|??_C@_1BI@ILMCMCCC@?$AAk?$AAS?$AAY?$AAS?$AA_?$AAA?$AAL?$AAT?$AAC?$AAL?$AAK?$AA?$AA@|
	DCD	|??_C@_1CC@EOBIKDKJ@?$AAk?$AAS?$AAE?$AAC?$AAU?$AAR?$AAE?$AA_?$AA3?$AA2?$AAK?$AA_?$AAF?$AAC?$AAL?$AAK?$AA?$AA@|
	DCD	|??_C@_1BI@CMEGODCK@?$AAk?$AAM?$AAC?$AAB?$AAS?$AAP?$AA_?$AAC?$AAL?$AAK?$AAS?$AA?$AA@|
	DCD	|??_C@_1CC@HCOAMGKK@?$AAk?$AAU?$AAS?$AAB?$AAT?$AAL?$AAL?$AA_?$AAS?$AAA?$AAR?$AA_?$AAF?$AAC?$AAL?$AAK?$AA?$AA@|
	DCD	|??_C@_1CE@KHCGIPEA@?$AAk?$AAU?$AAS?$AAB?$AAH?$AAO?$AAS?$AAT?$AA_?$AAS?$AAA?$AAR?$AA_?$AAF?$AAC?$AAL?$AAK?$AA?$AA@|
	DCD	|??_C@_1CE@PPGNFPBP@?$AAk?$AAE?$AAF?$AAU?$AAS?$AAE?$AA_?$AAA?$AAL?$AAW?$AAO?$AAN?$AA_?$AAF?$AAC?$AAL?$AAK?$AA?$AA@|
	DCD	|??_C@_1BO@OFGDLBDE@?$AAk?$AAS?$AAR?$AA_?$AAA?$AAL?$AAW?$AAO?$AAN?$AA_?$AAF?$AAC?$AAL?$AAK?$AA?$AA@|
	DCD	|??_C@_1CE@CCDDGGKL@?$AAk?$AAD?$AAP?$AAL?$AAL?$AA1?$AA_?$AAA?$AAL?$AAW?$AAO?$AAN?$AA_?$AAF?$AAC?$AAL?$AAK?$AA?$AA@|
	DCD	|??_C@_1CE@NAGEILFD@?$AAk?$AAD?$AAP?$AAL?$AAL?$AA2?$AA_?$AAA?$AAL?$AAW?$AAO?$AAN?$AA_?$AAF?$AAC?$AAL?$AAK?$AA?$AA@|
	DCD	|??_C@_1CE@DHHJCNME@?$AAk?$AAD?$AAP?$AAL?$AAL?$AA3?$AA_?$AAA?$AAL?$AAW?$AAO?$AAN?$AA_?$AAF?$AAC?$AAL?$AAK?$AA?$AA@|
	DCD	|??_C@_1CE@OPLKFGOC@?$AAk?$AAD?$AAP?$AAL?$AAL?$AA4?$AA_?$AAA?$AAL?$AAW?$AAO?$AAN?$AA_?$AAF?$AAC?$AAL?$AAK?$AA?$AA@|
	DCD	|??_C@_1CE@IKHPAHF@?$AAk?$AAD?$AAP?$AAL?$AAL?$AA5?$AA_?$AAA?$AAL?$AAW?$AAO?$AAN?$AA_?$AAF?$AAC?$AAL?$AAK?$AA?$AA@|
	DCD	|??_C@_1BI@OEECMJPN@?$AAk?$AAC?$AAM?$AA_?$AAS?$AAY?$AAS?$AA_?$AAC?$AAL?$AAK?$AA?$AA@|
	DCD	|??_C@_1CC@NOFOGNB@?$AAk?$AAD?$AAS?$AAS?$AA2?$AA_?$AAA?$AAL?$AAW?$AAO?$AAN?$AA_?$AAF?$AAC?$AAL?$AAK?$AA?$AA@|
	DCD	|??_C@_1BM@CKBOGBKN@?$AAk?$AAW?$AAK?$AAU?$AAP?$AA_?$AAL?$AA4?$AA_?$AAI?$AAC?$AAL?$AAK?$AA?$AA@|
	DCD	|??_C@_1BI@BEPCGLLM@?$AAk?$AAC?$AAM?$AA_?$AA3?$AA2?$AAK?$AA_?$AAC?$AAL?$AAK?$AA?$AA@|
	DCD	|??_C@_1BO@FLMCBEDL@?$AAk?$AAC?$AAO?$AAR?$AAE?$AA_?$AA3?$AA2?$AAK?$AA_?$AAF?$AAC?$AAL?$AAK?$AA?$AA@|
	DCD	|??_C@_1BO@LPLICNLH@?$AAk?$AAW?$AAK?$AAU?$AAP?$AA_?$AA3?$AA2?$AAK?$AA_?$AAF?$AAC?$AAL?$AAK?$AA?$AA@|
	DCD	|??_C@_1CI@EADHIPEB@?$AAk?$AAP?$AAE?$AAR?$AA_?$AA3?$AA2?$AAK?$AA_?$AAA?$AAL?$AAW?$AAO?$AAN?$AA_?$AAF?$AAC?$AAL?$AAK?$AA?$AA@|
	DCD	|??_C@_1CA@BBGPJHGP@?$AAk?$AAC?$AAO?$AAR?$AAE?$AA_?$AA1?$AA2?$AA0?$AAM?$AA_?$AAF?$AAC?$AAL?$AAK?$AA?$AA@|
	DCD	|??_C@_1BK@MCHPLJEE@?$AAk?$AAC?$AAM?$AA_?$AA9?$AA6?$AAM?$AA_?$AAF?$AAC?$AAL?$AAK?$AA?$AA@|
	DCD	|??_C@_1CA@PCEHGMIB@?$AAk?$AA9?$AA6?$AAM?$AA_?$AAA?$AAL?$AAW?$AAO?$AAN?$AA_?$AAF?$AAC?$AAL?$AAK?$AA?$AA@|
	DCD	|??_C@_1BC@GDMOPGOD@?$AAk?$AAL?$AA3?$AA_?$AAI?$AAC?$AAL?$AAK?$AA?$AA@|
	DCD	|??_C@_1BC@GADFMCD@?$AAk?$AAL?$AA4?$AA_?$AAI?$AAC?$AAL?$AAK?$AA?$AA@|
	DCD	|??_C@_1BK@EOKLGFAI@?$AAk?$AAU?$AAS?$AAB?$AA_?$AAL?$AA4?$AA_?$AAI?$AAC?$AAL?$AAK?$AA?$AA@|
	DCD	|??_C@_1BC@IEJPNIBD@?$AAk?$AAR?$AAM?$AA_?$AAI?$AAC?$AAL?$AAK?$AA?$AA@|
	DCD	|??_C@_1BI@BKNBPEFH@?$AAk?$AAD?$AAP?$AAL?$AAL?$AA1?$AA_?$AAF?$AAC?$AAL?$AAK?$AA?$AA@|
	DCD	|??_C@_1BI@GGLANBIM@?$AAk?$AAD?$AAP?$AAL?$AAL?$AA2?$AA_?$AAF?$AAC?$AAL?$AAK?$AA?$AA@|
	DCD	|??_C@_1BM@IIGNNOO@?$AAk?$AAC?$AAO?$AAR?$AAE?$AA_?$AAL?$AA3?$AA_?$AAI?$AAC?$AAL?$AAK?$AA?$AA@|
	DCD	|??_C@_1BM@GNELHHCO@?$AAk?$AAC?$AAO?$AAR?$AAE?$AA_?$AAL?$AA4?$AA_?$AAI?$AAC?$AAL?$AAK?$AA?$AA@|
	DCD	|??_C@_1CE@DCCJJJCO@?$AAk?$AAS?$AAE?$AAC?$AAU?$AAR?$AAI?$AAT?$AAY?$AA_?$AAL?$AA3?$AA_?$AAI?$AAC?$AAL?$AAK?$AA?$AA@|
	DCD	|??_C@_1CG@DHLKHHFE@?$AAk?$AAS?$AAE?$AAC?$AAU?$AAR?$AAI?$AAT?$AAY?$AA_?$AAL?$AA4?$AA_?$AAI?$AAC?$AAL?$AAK?$AA1?$AA?$AA@|
	DCD	|??_C@_1CG@CFAPNILK@?$AAk?$AAS?$AAE?$AAC?$AAU?$AAR?$AAI?$AAT?$AAY?$AA_?$AAL?$AA4?$AA_?$AAI?$AAC?$AAL?$AAK?$AA2?$AA?$AA@|
	DCD	|??_C@_1BK@NJNOEPMC@?$AAk?$AAS?$AAG?$AAX?$AA_?$AAL?$AA3?$AA_?$AAI?$AAC?$AAL?$AAK?$AA?$AA@|
	DCD	|??_C@_1BK@MMOEKMCA@?$AAk?$AAS?$AAS?$AAI?$AA_?$AAL?$AA4?$AA_?$AAI?$AAC?$AAL?$AAK?$AA?$AA@|
	DCD	|??_C@_1BK@FAIJEFLB@?$AAk?$AAD?$AAS?$AAS?$AA_?$AAL?$AA3?$AA_?$AAI?$AAC?$AAL?$AAK?$AA?$AA@|
	DCD	|??_C@_1BK@DFEEOPHB@?$AAk?$AAD?$AAS?$AAS?$AA_?$AAL?$AA4?$AA_?$AAI?$AAC?$AAL?$AAK?$AA?$AA@|
	DCD	|??_C@_1BK@BPAIBBEF@?$AAk?$AAC?$AAA?$AAM?$AA_?$AAL?$AA3?$AA_?$AAI?$AAC?$AAL?$AAK?$AA?$AA@|
	DCD	|??_C@_1BK@HKMFLLIF@?$AAk?$AAC?$AAA?$AAM?$AA_?$AAL?$AA4?$AA_?$AAI?$AAC?$AAL?$AAK?$AA?$AA@|
	DCD	|??_C@_1CC@ENGEEIGA@?$AAk?$AAU?$AAS?$AAB?$AAH?$AAO?$AAS?$AAT?$AA_?$AAL?$AA3?$AA_?$AAI?$AAC?$AAL?$AAK?$AA?$AA@|
	DCD	|??_C@_1CC@CIKJOCKA@?$AAk?$AAU?$AAS?$AAB?$AAH?$AAO?$AAS?$AAT?$AA_?$AAL?$AA4?$AA_?$AAI?$AAC?$AAL?$AAK?$AA?$AA@|
	DCD	|??_C@_1BK@JNEICFJE@?$AAk?$AAP?$AAE?$AAR?$AA_?$AAL?$AA4?$AA_?$AAI?$AAC?$AAL?$AAK?$AA?$AA@|
	DCD	|??_C@_1BI@KNLMECEA@?$AAk?$AAS?$AAR?$AA_?$AAL?$AA4?$AA_?$AAI?$AAC?$AAL?$AAK?$AA?$AA@|
	DCD	|??_C@_1BM@GMEGIECM@?$AAk?$AAS?$AAS?$AAI?$AA_?$AAS?$AAS?$AAR?$AA_?$AAF?$AAC?$AAL?$AAK?$AA?$AA@|
	DCD	|??_C@_1BM@JEIEMPJK@?$AAk?$AAS?$AAS?$AAI?$AA_?$AAS?$AAS?$AAT?$AA_?$AAF?$AAC?$AAL?$AAK?$AA?$AA@|
	DCD	|??_C@_1BO@GFLENGIF@?$AAk?$AAC?$AAO?$AAR?$AAE?$AA_?$AA9?$AA6?$AAM?$AA_?$AAF?$AAC?$AAL?$AAK?$AA?$AA@|
	DCD	|??_C@_1BM@KGEDNEGH@?$AAk?$AAD?$AAS?$AAS?$AA_?$AA9?$AA6?$AAM?$AA_?$AAF?$AAC?$AAL?$AAK?$AA?$AA@|
	DCD	|??_C@_1BO@MLNMBJDB@?$AAk?$AAC?$AAS?$AAI?$AA2?$AA_?$AA9?$AA6?$AAM?$AA_?$AAF?$AAC?$AAL?$AAK?$AA?$AA@|
	DCD	|??_C@_1BO@LGJNOPMF@?$AAk?$AAC?$AAO?$AAR?$AAE?$AA_?$AA4?$AA8?$AAM?$AA_?$AAF?$AAC?$AAL?$AAK?$AA?$AA@|
	DCD	|??_C@_1CE@JDPIHICJ@?$AAk?$AAU?$AAS?$AAB?$AAH?$AAO?$AAS?$AAT?$AA_?$AA4?$AA8?$AAM?$AA_?$AAF?$AAC?$AAL?$AAK?$AA?$AA@|
	DCD	|??_C@_1BM@CNNCGJCM@?$AAk?$AAP?$AAE?$AAR?$AA_?$AA4?$AA8?$AAM?$AA_?$AAF?$AAC?$AAL?$AAK?$AA?$AA@|
	DCD	|??_C@_1BE@LPMGNIEL@?$AAk?$AA1?$AA2?$AAM?$AA_?$AAF?$AAC?$AAL?$AAK?$AA?$AA@|
	DCD	|??_C@_1BO@KGNEDEAO@?$AAk?$AAC?$AAO?$AAR?$AAE?$AA_?$AA1?$AA2?$AAM?$AA_?$AAF?$AAC?$AAL?$AAK?$AA?$AA@|
	DCD	|??_C@_1BK@DMMIFOKJ@?$AAk?$AAD?$AAS?$AAS?$AA_?$AAT?$AAV?$AA_?$AAF?$AAC?$AAL?$AAK?$AA?$AA@|
	DCD	|??_C@_1CG@INMPAIAN@?$AAk?$AAU?$AAS?$AAB?$AAH?$AAO?$AAS?$AAT?$AA_?$AA1?$AA2?$AA0?$AAM?$AA_?$AAF?$AAC?$AAL?$AAK?$AA?$AA@|
	DCD	|??_C@_1BK@FIGBAONF@?$AAk?$AAC?$AAM?$AA_?$AAU?$AAS?$AAI?$AAM?$AA_?$AAC?$AAL?$AAK?$AA?$AA@|
	DCD	|??_C@_1BG@FOLAEDFM@?$AAk?$AAU?$AAS?$AAI?$AAM?$AA_?$AAF?$AAC?$AAL?$AAK?$AA?$AA@|
	DCD	|??_C@_1BE@HMKGDKMA@?$AAk?$AA9?$AA6?$AAM?$AA_?$AAF?$AAC?$AAL?$AAK?$AA?$AA@|
	DCD	|??_C@_1BE@KPIPADIA@?$AAk?$AA4?$AA8?$AAM?$AA_?$AAF?$AAC?$AAL?$AAK?$AA?$AA@|
	DCD	|??_C@_1BE@OHPPGGKJ@?$AAk?$AA5?$AA4?$AAM?$AA_?$AAF?$AAC?$AAL?$AAK?$AA?$AA@|
	DCD	|??_C@_1BE@BKPHEHJG@?$AAk?$AAS?$AAG?$AAX?$AA_?$AAF?$AAC?$AAL?$AAK?$AA?$AA@|
	DCD	|??_C@_1BG@LBMJBNDI@?$AAk?$AAG?$AAP?$AAT?$AA1?$AA_?$AAF?$AAC?$AAL?$AAK?$AA?$AA@|
	DCD	|??_C@_1CC@IEFCDICF@?$AAk?$AAG?$AAP?$AAT?$AA2?$AA_?$AAA?$AAL?$AAW?$AAO?$AAN?$AA_?$AAF?$AAC?$AAL?$AAK?$AA?$AA@|
	DCD	|??_C@_1CC@GDEPJOLC@?$AAk?$AAG?$AAP?$AAT?$AA3?$AA_?$AAA?$AAL?$AAW?$AAO?$AAN?$AA_?$AAF?$AAC?$AAL?$AAK?$AA?$AA@|
	DCD	|??_C@_1CC@LLIMOFJE@?$AAk?$AAG?$AAP?$AAT?$AA4?$AA_?$AAA?$AAL?$AAW?$AAO?$AAN?$AA_?$AAF?$AAC?$AAL?$AAK?$AA?$AA@|
	DCD	|??_C@_1CC@FMJBEDAD@?$AAk?$AAG?$AAP?$AAT?$AA5?$AA_?$AAA?$AAL?$AAW?$AAO?$AAN?$AA_?$AAF?$AAC?$AAL?$AAK?$AA?$AA@|
	DCD	|??_C@_1CC@KOMGKOPL@?$AAk?$AAG?$AAP?$AAT?$AA6?$AA_?$AAA?$AAL?$AAW?$AAO?$AAN?$AA_?$AAF?$AAC?$AAL?$AAK?$AA?$AA@|
	DCD	|??_C@_1CC@EJNLAIGM@?$AAk?$AAG?$AAP?$AAT?$AA7?$AA_?$AAA?$AAL?$AAW?$AAO?$AAN?$AA_?$AAF?$AAC?$AAL?$AAK?$AA?$AA@|
	DCD	|??_C@_1CC@MEDBFOPG@?$AAk?$AAG?$AAP?$AAT?$AA8?$AA_?$AAA?$AAL?$AAW?$AAO?$AAN?$AA_?$AAF?$AAC?$AAL?$AAK?$AA?$AA@|
	DCD	|??_C@_1CC@CDCMPIGB@?$AAk?$AAG?$AAP?$AAT?$AA9?$AA_?$AAA?$AAL?$AAW?$AAO?$AAN?$AA_?$AAF?$AAC?$AAL?$AAK?$AA?$AA@|
	DCD	|??_C@_1BI@FBHILLDF@?$AAk?$AAG?$AAP?$AAT?$AA1?$AA0?$AA_?$AAF?$AAC?$AAL?$AAK?$AA?$AA@|
	DCD	|??_C@_1BI@MMHHFKED@?$AAk?$AAG?$AAP?$AAT?$AA1?$AA1?$AA_?$AAF?$AAC?$AAL?$AAK?$AA?$AA@|
	%	4
|DeviceNames| DCD |??_C@_1CI@JGKNPEFC@?$AAO?$AAM?$AAA?$AAP?$AA_?$AAD?$AAE?$AAV?$AAI?$AAC?$AAE?$AA_?$AAS?$AAS?$AAI?$AA?5?$AA?$DN?$AA?5?$AA0?$AA?$AA@|
	DCD	|??_C@_1CC@OJKGELFG@?$AAO?$AAM?$AAA?$AAP?$AA_?$AAD?$AAE?$AAV?$AAI?$AAC?$AAE?$AA_?$AAS?$AAD?$AAR?$AAC?$AA?$AA@|
	DCD	|??_C@_1CA@FBHLHKND@?$AAO?$AAM?$AAA?$AAP?$AA_?$AAD?$AAE?$AAV?$AAI?$AAC?$AAE?$AA_?$AAD?$AA2?$AAD?$AA?$AA@|
	DCD	|??_C@_1CK@IEABCGNC@?$AAO?$AAM?$AAA?$AAP?$AA_?$AAD?$AAE?$AAV?$AAI?$AAC?$AAE?$AA_?$AAH?$AAS?$AAO?$AAT?$AAG?$AAU?$AAS?$AAB?$AA?$AA@|
	DCD	|??_C@_1CK@IFNFIOAO@?$AAO?$AAM?$AAA?$AAP?$AA_?$AAD?$AAE?$AAV?$AAI?$AAC?$AAE?$AA_?$AAO?$AAM?$AAA?$AAP?$AAC?$AAT?$AAR?$AAL?$AA?$AA@|
	DCD	|??_C@_1CM@FGHMOAMI@?$AAO?$AAM?$AAA?$AAP?$AA_?$AAD?$AAE?$AAV?$AAI?$AAC?$AAE?$AA_?$AAM?$AAA?$AAI?$AAL?$AAB?$AAO?$AAX?$AAE?$AAS?$AA?$AA@|
	DCD	|??_C@_1CG@HFJPNEHP@?$AAO?$AAM?$AAA?$AAP?$AA_?$AAD?$AAE?$AAV?$AAI?$AAC?$AAE?$AA_?$AAM?$AAC?$AAB?$AAS?$AAP?$AA1?$AA?$AA@|
	DCD	|??_C@_1CG@PKPNEDCI@?$AAO?$AAM?$AAA?$AAP?$AA_?$AAD?$AAE?$AAV?$AAI?$AAC?$AAE?$AA_?$AAM?$AAC?$AAB?$AAS?$AAP?$AA5?$AA?$AA@|
	DCD	|??_C@_1CM@OGAALMOP@?$AAO?$AAM?$AAA?$AAP?$AA_?$AAD?$AAE?$AAV?$AAI?$AAC?$AAE?$AA_?$AAG?$AAP?$AAT?$AAI?$AAM?$AAE?$AAR?$AA1?$AA0?$AA?$AA@|
	DCD	|??_C@_1CM@FOLMNLIK@?$AAO?$AAM?$AAA?$AAP?$AA_?$AAD?$AAE?$AAV?$AAI?$AAC?$AAE?$AA_?$AAG?$AAP?$AAT?$AAI?$AAM?$AAE?$AAR?$AA1?$AA1?$AA?$AA@|
	DCD	|??_C@_1CE@FCLPEICP@?$AAO?$AAM?$AAA?$AAP?$AA_?$AAD?$AAE?$AAV?$AAI?$AAC?$AAE?$AA_?$AAU?$AAA?$AAR?$AAT?$AA1?$AA?$AA@|
	DCD	|??_C@_1CE@EAAKOHMB@?$AAO?$AAM?$AAA?$AAP?$AA_?$AAD?$AAE?$AAV?$AAI?$AAC?$AAE?$AA_?$AAU?$AAA?$AAR?$AAT?$AA2?$AA?$AA@|
	DCD	|??_C@_1CC@LKKJHLEJ@?$AAO?$AAM?$AAA?$AAP?$AA_?$AAD?$AAE?$AAV?$AAI?$AAC?$AAE?$AA_?$AAI?$AA2?$AAC?$AA1?$AA?$AA@|
	DCD	|??_C@_1CC@KIBMNEKH@?$AAO?$AAM?$AAA?$AAP?$AA_?$AAD?$AAE?$AAV?$AAI?$AAC?$AAE?$AA_?$AAI?$AA2?$AAC?$AA2?$AA?$AA@|
	DCD	|??_C@_1CC@BAKALDMC@?$AAO?$AAM?$AAA?$AAP?$AA_?$AAD?$AAE?$AAV?$AAI?$AAC?$AAE?$AA_?$AAI?$AA2?$AAC?$AA3?$AA?$AA@|
	DCD	|??_C@_1CG@BHKFGKBJ@?$AAO?$AAM?$AAA?$AAP?$AA_?$AAD?$AAE?$AAV?$AAI?$AAC?$AAE?$AA_?$AAM?$AAC?$AAS?$AAP?$AAI?$AA1?$AA?$AA@|
	DCD	|??_C@_1CG@FBAMFPH@?$AAO?$AAM?$AAA?$AAP?$AA_?$AAD?$AAE?$AAV?$AAI?$AAC?$AAE?$AA_?$AAM?$AAC?$AAS?$AAP?$AAI?$AA2?$AA?$AA@|
	DCD	|??_C@_1CG@LNKMKCJC@?$AAO?$AAM?$AAA?$AAP?$AA_?$AAD?$AAE?$AAV?$AAI?$AAC?$AAE?$AA_?$AAM?$AAC?$AAS?$AAP?$AAI?$AA3?$AA?$AA@|
	DCD	|??_C@_1CG@CAHLJKCL@?$AAO?$AAM?$AAA?$AAP?$AA_?$AAD?$AAE?$AAV?$AAI?$AAC?$AAE?$AA_?$AAM?$AAC?$AAS?$AAP?$AAI?$AA4?$AA?$AA@|
	DCD	|??_C@_1CA@LMGICGON@?$AAO?$AAM?$AAA?$AAP?$AA_?$AAD?$AAE?$AAV?$AAI?$AAC?$AAE?$AA_?$AAH?$AAD?$AAQ?$AA?$AA@|
	DCD	|??_C@_1CE@GEGMLBDH@?$AAO?$AAM?$AAA?$AAP?$AA_?$AAD?$AAE?$AAV?$AAI?$AAC?$AAE?$AA_?$AAM?$AAS?$AAP?$AAR?$AAO?$AA?$AA@|
	DCD	|??_C@_1CC@MGDCFIAP@?$AAO?$AAM?$AAA?$AAP?$AA_?$AAD?$AAE?$AAV?$AAI?$AAC?$AAE?$AA_?$AAM?$AAM?$AAC?$AA1?$AA?$AA@|
	DCD	|??_C@_1CC@NEIHPHOB@?$AAO?$AAM?$AAA?$AAP?$AA_?$AAD?$AAE?$AAV?$AAI?$AAC?$AAE?$AA_?$AAM?$AAM?$AAC?$AA2?$AA?$AA@|
	DCD	|??_C@_1CC@GMDLJAIE@?$AAO?$AAM?$AAA?$AAP?$AA_?$AAD?$AAE?$AAV?$AAI?$AAC?$AAE?$AA_?$AAM?$AAM?$AAC?$AA3?$AA?$AA@|
	DCD	|??_C@_1CC@PIKBMFAF@?$AAO?$AAM?$AAA?$AAP?$AA_?$AAD?$AAE?$AAV?$AAI?$AAC?$AAE?$AA_?$AAD?$AAE?$AAS?$AA2?$AA?$AA@|
	DCD	|??_C@_1CE@PJCPMBMK@?$AAO?$AAM?$AAA?$AAP?$AA_?$AAD?$AAE?$AAV?$AAI?$AAC?$AAE?$AA_?$AAS?$AAH?$AAA?$AA1?$AA2?$AA?$AA@|
	DCD	|??_C@_1CC@BOIIAOEB@?$AAO?$AAM?$AAA?$AAP?$AA_?$AAD?$AAE?$AAV?$AAI?$AAC?$AAE?$AA_?$AAA?$AAE?$AAS?$AA2?$AA?$AA@|
	DCD	|??_C@_1CA@HPHCLJCF@?$AAO?$AAM?$AAA?$AAP?$AA_?$AAD?$AAE?$AAV?$AAI?$AAC?$AAE?$AA_?$AAI?$AAC?$AAR?$AA?$AA@|
	DCD	|??_C@_1CC@OKBEGKOL@?$AAO?$AAM?$AAA?$AAP?$AA_?$AAD?$AAE?$AAV?$AAI?$AAC?$AAE?$AA_?$AAD?$AAE?$AAS?$AA1?$AA?$AA@|
	DCD	|??_C@_1CE@OLJKGOCE@?$AAO?$AAM?$AAA?$AAP?$AA_?$AAD?$AAE?$AAV?$AAI?$AAC?$AAE?$AA_?$AAS?$AAH?$AAA?$AA1?$AA1?$AA?$AA@|
	DCD	|??_C@_1CA@IFPKCACL@?$AAO?$AAM?$AAA?$AAP?$AA_?$AAD?$AAE?$AAV?$AAI?$AAC?$AAE?$AA_?$AAR?$AAN?$AAG?$AA?$AA@|
	DCD	|??_C@_1CC@MDNKBKP@?$AAO?$AAM?$AAA?$AAP?$AA_?$AAD?$AAE?$AAV?$AAI?$AAC?$AAE?$AA_?$AAA?$AAE?$AAS?$AA1?$AA?$AA@|
	DCD	|??_C@_1CA@LCHJOJDJ@?$AAO?$AAM?$AAA?$AAP?$AA_?$AAD?$AAE?$AAV?$AAI?$AAC?$AAE?$AA_?$AAP?$AAK?$AAA?$AA?$AA@|
	DCD	|??_C@_1CG@MLOIKIGB@?$AAO?$AAM?$AAA?$AAP?$AA_?$AAD?$AAE?$AAV?$AAI?$AAC?$AAE?$AA_?$AAU?$AAS?$AAB?$AAT?$AAL?$AAL?$AA?$AA@|
	DCD	|??_C@_1BO@GEAFECNL@?$AAO?$AAM?$AAA?$AAP?$AA_?$AAD?$AAE?$AAV?$AAI?$AAC?$AAE?$AA_?$AAT?$AAS?$AA?$AA@|
	DCD	|??_C@_1CE@EPOGLAMA@?$AAO?$AAM?$AAA?$AAP?$AA_?$AAD?$AAE?$AAV?$AAI?$AAC?$AAE?$AA_?$AAE?$AAF?$AAU?$AAS?$AAE?$AA?$AA@|
	DCD	|??_C@_1CK@DJMEKAOO@?$AAO?$AAM?$AAA?$AAP?$AA_?$AAD?$AAE?$AAV?$AAI?$AAC?$AAE?$AA_?$AAG?$AAP?$AAT?$AAI?$AAM?$AAE?$AAR?$AA1?$AA?$AA@|
	DCD	|??_C@_1CM@EMAJHEGE@?$AAO?$AAM?$AAA?$AAP?$AA_?$AAD?$AAE?$AAV?$AAI?$AAC?$AAE?$AA_?$AAG?$AAP?$AAT?$AAI?$AAM?$AAE?$AAR?$AA1?$AA2?$AA?$AA@|
	DCD	|??_C@_1CI@FAKOHIJH@?$AAO?$AAM?$AAA?$AAP?$AA_?$AAD?$AAE?$AAV?$AAI?$AAC?$AAE?$AA_?$AA3?$AA2?$AAK?$AAS?$AAY?$AAN?$AAC?$AA?$AA@|
	DCD	|??_C@_1CC@PHCCGACG@?$AAO?$AAM?$AAA?$AAP?$AA_?$AAD?$AAE?$AAV?$AAI?$AAC?$AAE?$AA_?$AAW?$AAD?$AAT?$AA1?$AA?$AA@|
	DCD	|??_C@_1CC@OFJHMPMI@?$AAO?$AAM?$AAA?$AAP?$AA_?$AAD?$AAE?$AAV?$AAI?$AAC?$AAE?$AA_?$AAW?$AAD?$AAT?$AA2?$AA?$AA@|
	DCD	|??_C@_1CE@DCDAAOLP@?$AAO?$AAM?$AAA?$AAP?$AA_?$AAD?$AAE?$AAV?$AAI?$AAC?$AAE?$AA_?$AAG?$AAP?$AAI?$AAO?$AA1?$AA?$AA@|
	DCD	|??_C@_1CA@HDBABNBF@?$AAO?$AAM?$AAA?$AAP?$AA_?$AAD?$AAE?$AAV?$AAI?$AAC?$AAE?$AA_?$AAS?$AAR?$AA1?$AA?$AA@|
	DCD	|??_C@_1CA@GBKFLCPL@?$AAO?$AAM?$AAA?$AAP?$AA_?$AAD?$AAE?$AAV?$AAI?$AAC?$AAE?$AA_?$AAS?$AAR?$AA2?$AA?$AA@|
	DCD	|??_C@_1CC@BLAIIGEI@?$AAO?$AAM?$AAA?$AAP?$AA_?$AAD?$AAE?$AAV?$AAI?$AAC?$AAE?$AA_?$AAU?$AAS?$AAI?$AAM?$AA?$AA@|
	DCD	|??_C@_1CE@CAIFKBFB@?$AAO?$AAM?$AAA?$AAP?$AA_?$AAD?$AAE?$AAV?$AAI?$AAC?$AAE?$AA_?$AAG?$AAP?$AAI?$AAO?$AA2?$AA?$AA@|
	DCD	|??_C@_1CE@JIDJMGDE@?$AAO?$AAM?$AAA?$AAP?$AA_?$AAD?$AAE?$AAV?$AAI?$AAC?$AAE?$AA_?$AAG?$AAP?$AAI?$AAO?$AA3?$AA?$AA@|
	DCD	|??_C@_1CE@FOOPOIN@?$AAO?$AAM?$AAA?$AAP?$AA_?$AAD?$AAE?$AAV?$AAI?$AAC?$AAE?$AA_?$AAG?$AAP?$AAI?$AAO?$AA4?$AA?$AA@|
	DCD	|??_C@_1CE@LNFCJJOI@?$AAO?$AAM?$AAA?$AAP?$AA_?$AAD?$AAE?$AAV?$AAI?$AAC?$AAE?$AA_?$AAG?$AAP?$AAI?$AAO?$AA5?$AA?$AA@|
	DCD	|??_C@_1CE@KPOHDGAG@?$AAO?$AAM?$AAA?$AAP?$AA_?$AAD?$AAE?$AAV?$AAI?$AAC?$AAE?$AA_?$AAG?$AAP?$AAI?$AAO?$AA6?$AA?$AA@|
	DCD	|??_C@_1CG@GHCKHLJB@?$AAO?$AAM?$AAA?$AAP?$AA_?$AAD?$AAE?$AAV?$AAI?$AAC?$AAE?$AA_?$AAM?$AAC?$AAB?$AAS?$AAP?$AA2?$AA?$AA@|
	DCD	|??_C@_1CG@NPJGBMPE@?$AAO?$AAM?$AAA?$AAP?$AA_?$AAD?$AAE?$AAV?$AAI?$AAC?$AAE?$AA_?$AAM?$AAC?$AAB?$AAS?$AAP?$AA3?$AA?$AA@|
	DCD	|??_C@_1CG@ECEBCEEN@?$AAO?$AAM?$AAA?$AAP?$AA_?$AAD?$AAE?$AAV?$AAI?$AAC?$AAE?$AA_?$AAM?$AAC?$AAB?$AAS?$AAP?$AA4?$AA?$AA@|
	DCD	|??_C@_1CK@CLHBAPAA@?$AAO?$AAM?$AAA?$AAP?$AA_?$AAD?$AAE?$AAV?$AAI?$AAC?$AAE?$AA_?$AAG?$AAP?$AAT?$AAI?$AAM?$AAE?$AAR?$AA2?$AA?$AA@|
	DCD	|??_C@_1CK@JDMNGIGF@?$AAO?$AAM?$AAA?$AAP?$AA_?$AAD?$AAE?$AAV?$AAI?$AAC?$AAE?$AA_?$AAG?$AAP?$AAT?$AAI?$AAM?$AAE?$AAR?$AA3?$AA?$AA@|
	DCD	|??_C@_1CK@OBKFANM@?$AAO?$AAM?$AAA?$AAP?$AA_?$AAD?$AAE?$AAV?$AAI?$AAC?$AAE?$AA_?$AAG?$AAP?$AAT?$AAI?$AAM?$AAE?$AAR?$AA4?$AA?$AA@|
	DCD	|??_C@_1CK@LGKGDHLJ@?$AAO?$AAM?$AAA?$AAP?$AA_?$AAD?$AAE?$AAV?$AAI?$AAC?$AAE?$AA_?$AAG?$AAP?$AAT?$AAI?$AAM?$AAE?$AAR?$AA5?$AA?$AA@|
	DCD	|??_C@_1CK@KEBDJIFH@?$AAO?$AAM?$AAA?$AAP?$AA_?$AAD?$AAE?$AAV?$AAI?$AAC?$AAE?$AA_?$AAG?$AAP?$AAT?$AAI?$AAM?$AAE?$AAR?$AA6?$AA?$AA@|
	DCD	|??_C@_1CK@BMKPPPDC@?$AAO?$AAM?$AAA?$AAP?$AA_?$AAD?$AAE?$AAV?$AAI?$AAC?$AAE?$AA_?$AAG?$AAP?$AAT?$AAI?$AAM?$AAE?$AAR?$AA7?$AA?$AA@|
	DCD	|??_C@_1CK@EEMMOPGE@?$AAO?$AAM?$AAA?$AAP?$AA_?$AAD?$AAE?$AAV?$AAI?$AAC?$AAE?$AA_?$AAG?$AAP?$AAT?$AAI?$AAM?$AAE?$AAR?$AA8?$AA?$AA@|
	DCD	|??_C@_1CK@PMHAIIAB@?$AAO?$AAM?$AAA?$AAP?$AA_?$AAD?$AAE?$AAV?$AAI?$AAC?$AAE?$AA_?$AAG?$AAP?$AAT?$AAI?$AAM?$AAE?$AAR?$AA9?$AA?$AA@|
	DCD	|??_C@_1CE@PILGIAKE@?$AAO?$AAM?$AAA?$AAP?$AA_?$AAD?$AAE?$AAV?$AAI?$AAC?$AAE?$AA_?$AAU?$AAA?$AAR?$AAT?$AA3?$AA?$AA@|
	DCD	|??_C@_1CC@FNCLKIKN@?$AAO?$AAM?$AAA?$AAP?$AA_?$AAD?$AAE?$AAV?$AAI?$AAC?$AAE?$AA_?$AAW?$AAD?$AAT?$AA3?$AA?$AA@|
	DCD	|??_C@_1CA@FPBNMJAK@?$AAO?$AAM?$AAA?$AAP?$AA_?$AAD?$AAE?$AAV?$AAI?$AAC?$AAE?$AA_?$AAD?$AAS?$AAS?$AA?$AA@|
	DCD	|??_C@_1CC@FAMAFCEH@?$AAO?$AAM?$AAA?$AAP?$AA_?$AAD?$AAE?$AAV?$AAI?$AAC?$AAE?$AA_?$AAD?$AAS?$AAS?$AA1?$AA?$AA@|
	DCD	|??_C@_1CC@ECHFPNKJ@?$AAO?$AAM?$AAA?$AAP?$AA_?$AAD?$AAE?$AAV?$AAI?$AAC?$AAE?$AA_?$AAD?$AAS?$AAS?$AA2?$AA?$AA@|
	DCD	|??_C@_1CE@CMHCGOLP@?$AAO?$AAM?$AAA?$AAP?$AA_?$AAD?$AAE?$AAV?$AAI?$AAC?$AAE?$AA_?$AAT?$AAV?$AAO?$AAU?$AAT?$AA?$AA@|
	DCD	|??_C@_1CG@DPBHHNNG@?$AAO?$AAM?$AAA?$AAP?$AA_?$AAD?$AAE?$AAV?$AAI?$AAC?$AAE?$AA_?$AAC?$AAA?$AAM?$AAE?$AAR?$AAA?$AA?$AA@|
	DCD	|??_C@_1CC@COEMHCN@?$AAO?$AAM?$AAA?$AAP?$AA_?$AAD?$AAE?$AAV?$AAI?$AAC?$AAE?$AA_?$AAC?$AAS?$AAI?$AA2?$AA?$AA@|
	DCD	|??_C@_1CA@ENKIGGOE@?$AAO?$AAM?$AAA?$AAP?$AA_?$AAD?$AAE?$AAV?$AAI?$AAC?$AAE?$AA_?$AAD?$AAS?$AAP?$AA?$AA@|
	DCD	|??_C@_1BO@HHGGMBLK@?$AAO?$AAM?$AAA?$AAP?$AA_?$AAD?$AAE?$AAV?$AAI?$AAC?$AAE?$AA_?$AA2?$AAD?$AA?$AA@|
	DCD	|??_C@_1BO@LMDKBCBP@?$AAO?$AAM?$AAA?$AAP?$AA_?$AAD?$AAE?$AAV?$AAI?$AAC?$AAE?$AA_?$AA3?$AAD?$AA?$AA@|
	DCD	|??_C@_1CA@GGCFDGLE@?$AAO?$AAM?$AAA?$AAP?$AA_?$AAD?$AAE?$AAV?$AAI?$AAC?$AAE?$AA_?$AAS?$AAG?$AAX?$AA?$AA@|
	DCD	|??_C@_1CG@HGEIGOOP@?$AAO?$AAM?$AAA?$AAP?$AA_?$AAD?$AAE?$AAV?$AAI?$AAC?$AAE?$AA_?$AAH?$AAS?$AAU?$AAS?$AAB?$AA1?$AA?$AA@|
	DCD	|??_C@_1CG@GEPNMBAB@?$AAO?$AAM?$AAA?$AAP?$AA_?$AAD?$AAE?$AAV?$AAI?$AAC?$AAE?$AA_?$AAH?$AAS?$AAU?$AAS?$AAB?$AA2?$AA?$AA@|
	DCD	|??_C@_1CK@FGNGBDLO@?$AAO?$AAM?$AAA?$AAP?$AA_?$AAD?$AAE?$AAV?$AAI?$AAC?$AAE?$AA_?$AAU?$AAS?$AAB?$AAH?$AAO?$AAS?$AAT?$AA1?$AA?$AA@|
	DCD	|??_C@_1CK@EEGDLMFA@?$AAO?$AAM?$AAA?$AAP?$AA_?$AAD?$AAE?$AAV?$AAI?$AAC?$AAE?$AA_?$AAU?$AAS?$AAB?$AAH?$AAO?$AAS?$AAT?$AA2?$AA?$AA@|
	DCD	|??_C@_1CK@PMNPNLDF@?$AAO?$AAM?$AAA?$AAP?$AA_?$AAD?$AAE?$AAV?$AAI?$AAC?$AAE?$AA_?$AAU?$AAS?$AAB?$AAH?$AAO?$AAS?$AAT?$AA3?$AA?$AA@|
	DCD	|??_C@_1CC@JFKAJPFG@?$AAO?$AAM?$AAA?$AAP?$AA_?$AAD?$AAE?$AAV?$AAI?$AAC?$AAE?$AA_?$AAV?$AAR?$AAF?$AAB?$AA?$AA@|
	DCD	|??_C@_1CE@GFGBLIBN@?$AAO?$AAM?$AAA?$AAP?$AA_?$AAD?$AAE?$AAV?$AAI?$AAC?$AAE?$AA_?$AAU?$AAA?$AAR?$AAT?$AA4?$AA?$AA@|
	DCD	|??_C@_1CI@CGCHDENN@?$AAO?$AAM?$AAA?$AAP?$AA_?$AAD?$AAE?$AAV?$AAI?$AAC?$AAE?$AA_?$AAG?$AAE?$AAN?$AAE?$AAR?$AAI?$AAC?$AA?$AA@|
	%	4
|DumpRegArray| DCD |??_C@_1BA@JEPMHMHH@?$AAI?$AAV?$AAA?$AA2?$AA_?$AAC?$AAM?$AA?$AA@|
	DCD	0x0
	DCD	0x0
	DCD	0x0
	DCD	|??_C@_1BO@BMCCBFKC@?$AAC?$AAM?$AA_?$AAF?$AAC?$AAL?$AAK?$AAE?$AAN?$AA_?$AAI?$AAV?$AAA?$AA2?$AA?$AA@|
	DCD	0x20
	DCD	0x48004000
	DCD	0x0
	DCD	|??_C@_1CE@EGLDCDGI@?$AAC?$AAM?$AA_?$AAC?$AAL?$AAK?$AAE?$AAN?$AA_?$AAP?$AAL?$AAL?$AA_?$AAI?$AAV?$AAA?$AA2?$AA?$AA@|
	DCD	0x20
	DCD	0x48004004
	DCD	0x0
	DCD	|??_C@_1BO@ICPAIDCP@?$AAC?$AAM?$AA_?$AAI?$AAD?$AAL?$AAE?$AAS?$AAT?$AA_?$AAI?$AAV?$AAA?$AA2?$AA?$AA@|
	DCD	0x20
	DCD	0x48004020
	DCD	0x0
	DCD	|??_C@_1CG@ONOPJIEM@?$AAC?$AAM?$AA_?$AAI?$AAD?$AAL?$AAE?$AAS?$AAT?$AA_?$AAP?$AAL?$AAL?$AA_?$AAI?$AAV?$AAA?$AA2?$AA?$AA@|
	DCD	0x20
	DCD	0x48004024
	DCD	0x0
	DCD	|??_C@_1CK@OCLDONOJ@?$AAC?$AAM?$AA_?$AAA?$AAU?$AAT?$AAO?$AAI?$AAD?$AAL?$AAE?$AA_?$AAP?$AAL?$AAL?$AA_?$AAI?$AAV?$AAA?$AA2?$AA?$AA@|
	DCD	0x20
	DCD	0x48004034
	DCD	0x0
	DCD	|??_C@_1CI@CNFPDILL@?$AAC?$AAM?$AA_?$AAC?$AAL?$AAK?$AAS?$AAE?$AAL?$AA1?$AA_?$AAP?$AAL?$AAL?$AA_?$AAI?$AAV?$AAA?$AA2?$AA?$AA@|
	DCD	0x20
	DCD	0x48004040
	DCD	0x0
	DCD	|??_C@_1CI@BECHJFPL@?$AAC?$AAM?$AA_?$AAC?$AAL?$AAK?$AAS?$AAE?$AAL?$AA2?$AA_?$AAP?$AAL?$AAL?$AA_?$AAI?$AAV?$AAA?$AA2?$AA?$AA@|
	DCD	0x20
	DCD	0x48004044
	DCD	0x0
	DCD	|??_C@_1CE@EJPMCCDJ@?$AAC?$AAM?$AA_?$AAC?$AAL?$AAK?$AAS?$AAT?$AAC?$AAT?$AAR?$AAL?$AA_?$AAI?$AAV?$AAA?$AA2?$AA?$AA@|
	DCD	0x20
	DCD	0x48004048
	DCD	0x0
	DCD	|??_C@_1CA@DCHKBGCI@?$AAC?$AAM?$AA_?$AAC?$AAL?$AAK?$AAS?$AAT?$AAS?$AAT?$AA_?$AAI?$AAV?$AAA?$AA2?$AA?$AA@|
	DCD	0x20
	DCD	0x4800404c
	DCD	0x0
	DCD	|??_C@_1CE@OMIMNBBB@?$AAO?$AAC?$AAP?$AA_?$AAS?$AAy?$AAs?$AAt?$AAe?$AAm?$AA_?$AAR?$AAe?$AAg?$AA_?$AAC?$AAM?$AA?$AA@|
	DCD	0x20
	DCD	0x0
	DCD	0x0
	DCD	|??_C@_1BI@OFDDPNDA@?$AAC?$AAM?$AA_?$AAR?$AAE?$AAV?$AAI?$AAS?$AAI?$AAO?$AAN?$AA?$AA@|
	DCD	0x20
	DCD	0x48004800
	DCD	0x0
	DCD	|??_C@_1BK@MFOLEKL@?$AAC?$AAM?$AA_?$AAS?$AAY?$AAS?$AAC?$AAO?$AAN?$AAF?$AAI?$AAG?$AA?$AA@|
	DCD	0x20
	DCD	0x48004810
	DCD	0x0
	DCD	|??_C@_1O@NHPFAPNK@?$AAM?$AAP?$AAU?$AA_?$AAC?$AAM?$AA?$AA@|
	DCD	0x0
	DCD	0x0
	DCD	0x0
	DCD	|??_C@_1CC@JNLBAGDF@?$AAC?$AAM?$AA_?$AAC?$AAL?$AAK?$AAE?$AAN?$AA_?$AAP?$AAL?$AAL?$AA_?$AAM?$AAP?$AAU?$AA?$AA@|
	DCD	0x20
	DCD	0x48004904
	DCD	0x0
	DCD	|??_C@_1BM@HFFIEGID@?$AAC?$AAM?$AA_?$AAI?$AAD?$AAL?$AAE?$AAS?$AAT?$AA_?$AAM?$AAP?$AAU?$AA?$AA@|
	DCD	0x20
	DCD	0x48004920
	DCD	0x0
	DCD	|??_C@_1CE@BDMBNMCK@?$AAC?$AAM?$AA_?$AAI?$AAD?$AAL?$AAE?$AAS?$AAT?$AA_?$AAP?$AAL?$AAL?$AA_?$AAM?$AAP?$AAU?$AA?$AA@|
	DCD	0x20
	DCD	0x48004924
	DCD	0x0
	DCD	|??_C@_1CI@CMDKJBJB@?$AAC?$AAM?$AA_?$AAA?$AAU?$AAT?$AAO?$AAI?$AAD?$AAL?$AAE?$AA_?$AAP?$AAL?$AAL?$AA_?$AAM?$AAP?$AAU?$AA?$AA@|
	DCD	0x20
	DCD	0x48004934
	DCD	0x0
	DCD	|??_C@_1CG@NPDFIEKE@?$AAC?$AAM?$AA_?$AAC?$AAL?$AAK?$AAS?$AAE?$AAL?$AA1?$AA_?$AAP?$AAL?$AAL?$AA_?$AAM?$AAP?$AAU?$AA?$AA@|
	DCD	0x20
	DCD	0x48004940
	DCD	0x0
	DCD	|??_C@_1CG@HAJMMJGO@?$AAC?$AAM?$AA_?$AAC?$AAL?$AAK?$AAS?$AAE?$AAL?$AA2?$AA_?$AAP?$AAL?$AAL?$AA_?$AAM?$AAP?$AAU?$AA?$AA@|
	DCD	0x20
	DCD	0x48004944
	DCD	0x0
	DCD	|??_C@_1CC@LKCGBNJG@?$AAC?$AAM?$AA_?$AAC?$AAL?$AAK?$AAS?$AAT?$AAC?$AAT?$AAR?$AAL?$AA_?$AAM?$AAP?$AAU?$AA?$AA@|
	DCD	0x20
	DCD	0x48004948
	DCD	0x0
	DCD	|??_C@_1BO@HNKCCHHN@?$AAC?$AAM?$AA_?$AAC?$AAL?$AAK?$AAS?$AAT?$AAS?$AAT?$AA_?$AAM?$AAP?$AAU?$AA?$AA@|
	DCD	0x20
	DCD	0x4800494c
	DCD	0x0
	DCD	|??_C@_1BA@MHLIKEJK@?$AAC?$AAO?$AAR?$AAE?$AA_?$AAC?$AAM?$AA?$AA@|
	DCD	0x0
	DCD	0x0
	DCD	0x0
	DCD	|??_C@_1CA@CFLMELNM@?$AAC?$AAM?$AA_?$AAF?$AAC?$AAL?$AAK?$AAE?$AAN?$AA1?$AA_?$AAC?$AAO?$AAR?$AAE?$AA?$AA@|
	DCD	0x20
	DCD	0x48004a00
	DCD	0x0
	DCD	|??_C@_1CA@MENCIPHB@?$AAC?$AAM?$AA_?$AAF?$AAC?$AAL?$AAK?$AAE?$AAN?$AA3?$AA_?$AAC?$AAO?$AAR?$AAE?$AA?$AA@|
	DCD	0x20
	DCD	0x48004a08
	DCD	0x0
	DCD	|??_C@_1CA@KIFGBNEG@?$AAC?$AAM?$AA_?$AAI?$AAC?$AAL?$AAK?$AAE?$AAN?$AA1?$AA_?$AAC?$AAO?$AAR?$AAE?$AA?$AA@|
	DCD	0x20
	DCD	0x48004a10
	DCD	0x0
	DCD	|??_C@_1CA@NEDHDIJN@?$AAC?$AAM?$AA_?$AAI?$AAC?$AAL?$AAK?$AAE?$AAN?$AA2?$AA_?$AAC?$AAO?$AAR?$AAE?$AA?$AA@|
	DCD	0x20
	DCD	0x48004a14
	DCD	0x0
	DCD	|??_C@_1CA@EJDINJOL@?$AAC?$AAM?$AA_?$AAI?$AAC?$AAL?$AAK?$AAE?$AAN?$AA3?$AA_?$AAC?$AAO?$AAR?$AAE?$AA?$AA@|
	DCD	0x20
	DCD	0x48004a18
	DCD	0x0
	DCD	|??_C@_1CA@LCPNAFHJ@?$AAC?$AAM?$AA_?$AAI?$AAD?$AAL?$AAE?$AAS?$AAT?$AA1?$AA_?$AAC?$AAO?$AAR?$AAE?$AA?$AA@|
	DCD	0x20
	DCD	0x48004a20
	DCD	0x0
	DCD	|??_C@_1CA@MOJMCAKC@?$AAC?$AAM?$AA_?$AAI?$AAD?$AAL?$AAE?$AAS?$AAT?$AA2?$AA_?$AAC?$AAO?$AAR?$AAE?$AA?$AA@|
	DCD	0x20
	DCD	0x48004a24
	DCD	0x0
	DCD	|??_C@_1CA@FDJDMBNE@?$AAC?$AAM?$AA_?$AAI?$AAD?$AAL?$AAE?$AAS?$AAT?$AA3?$AA_?$AAC?$AAO?$AAR?$AAE?$AA?$AA@|
	DCD	0x20
	DCD	0x48004a28
	DCD	0x0
	DCD	|??_C@_1CE@HBMGIBI@?$AAC?$AAM?$AA_?$AAA?$AAU?$AAT?$AAO?$AAI?$AAD?$AAL?$AAE?$AA1?$AA_?$AAC?$AAO?$AAR?$AAE?$AA?$AA@|
	DCD	0x20
	DCD	0x48004a30
	DCD	0x0
	DCD	|??_C@_1CE@HLHNENMD@?$AAC?$AAM?$AA_?$AAA?$AAU?$AAT?$AAO?$AAI?$AAD?$AAL?$AAE?$AA2?$AA_?$AAC?$AAO?$AAR?$AAE?$AA?$AA@|
	DCD	0x20
	DCD	0x48004a34
	DCD	0x0
	DCD	|??_C@_1CE@OGHCKMLF@?$AAC?$AAM?$AA_?$AAA?$AAU?$AAT?$AAO?$AAI?$AAD?$AAL?$AAE?$AA3?$AA_?$AAC?$AAO?$AAR?$AAE?$AA?$AA@|
	DCD	0x20
	DCD	0x48004a38
	DCD	0x0
	DCD	|??_C@_1BO@BGDPDEGJ@?$AAC?$AAM?$AA_?$AAC?$AAL?$AAK?$AAS?$AAE?$AAL?$AA_?$AAC?$AAO?$AAR?$AAE?$AA?$AA@|
	DCD	0x20
	DCD	0x48004a40
	DCD	0x0
	DCD	|??_C@_1CE@EOIAHAOA@?$AAC?$AAM?$AA_?$AAC?$AAL?$AAK?$AAS?$AAT?$AAC?$AAT?$AAR?$AAL?$AA_?$AAC?$AAO?$AAR?$AAE?$AA?$AA@|
	DCD	0x20
	DCD	0x48004a48
	DCD	0x0
	DCD	|??_C@_1CA@DFAGEEPB@?$AAC?$AAM?$AA_?$AAC?$AAL?$AAK?$AAS?$AAT?$AAS?$AAT?$AA_?$AAC?$AAO?$AAR?$AAE?$AA?$AA@|
	DCD	0x20
	DCD	0x48004a4c
	DCD	0x0
	DCD	|??_C@_1O@PHKCOJPF@?$AAS?$AAG?$AAX?$AA_?$AAC?$AAM?$AA?$AA@|
	DCD	0x0
	DCD	0x0
	DCD	0x0
	DCD	|??_C@_1BM@JFNDLFFL@?$AAC?$AAM?$AA_?$AAF?$AAC?$AAL?$AAK?$AAE?$AAN?$AA_?$AAS?$AAG?$AAX?$AA?$AA@|
	DCD	0x20
	DCD	0x48004b00
	DCD	0x0
	DCD	|??_C@_1BM@EJEJKNBL@?$AAC?$AAM?$AA_?$AAI?$AAC?$AAL?$AAK?$AAE?$AAN?$AA_?$AAS?$AAG?$AAX?$AA?$AA@|
	DCD	0x20
	DCD	0x48004b10
	DCD	0x0
	DCD	|??_C@_1BM@PANAIPGE@?$AAC?$AAM?$AA_?$AAI?$AAD?$AAL?$AAE?$AAS?$AAT?$AA_?$AAS?$AAG?$AAX?$AA?$AA@|
	DCD	0x20
	DCD	0x48004b20
	DCD	0x0
	DCD	|??_C@_1BM@DKOEAHJA@?$AAC?$AAM?$AA_?$AAC?$AAL?$AAK?$AAS?$AAE?$AAL?$AA_?$AAS?$AAG?$AAX?$AA?$AA@|
	DCD	0x20
	DCD	0x48004b40
	DCD	0x0
	DCD	|??_C@_1CA@EOLCFPBH@?$AAC?$AAM?$AA_?$AAS?$AAL?$AAE?$AAE?$AAP?$AAD?$AAE?$AAP?$AA_?$AAS?$AAG?$AAX?$AA?$AA@|
	DCD	0x20
	DCD	0x48004b44
	DCD	0x0
	DCD	|??_C@_1CC@DPKONEHB@?$AAC?$AAM?$AA_?$AAC?$AAL?$AAK?$AAS?$AAT?$AAC?$AAT?$AAR?$AAL?$AA_?$AAS?$AAG?$AAX?$AA?$AA@|
	DCD	0x20
	DCD	0x48004b48
	DCD	0x0
	DCD	|??_C@_1BO@PICKOOJK@?$AAC?$AAM?$AA_?$AAC?$AAL?$AAK?$AAS?$AAT?$AAS?$AAT?$AA_?$AAS?$AAG?$AAX?$AA?$AA@|
	DCD	0x20
	DCD	0x48004b4c
	DCD	0x0
	DCD	|??_C@_1BA@FJBNPKLL@?$AAW?$AAK?$AAU?$AAP?$AA_?$AAC?$AAM?$AA?$AA@|
	DCD	0x0
	DCD	0x0
	DCD	0x0
	DCD	|??_C@_1BO@MLJDPPAG@?$AAC?$AAM?$AA_?$AAF?$AAC?$AAL?$AAK?$AAE?$AAN?$AA_?$AAW?$AAK?$AAU?$AAP?$AA?$AA@|
	DCD	0x20
	DCD	0x48004c00
	DCD	0x0
	DCD	|??_C@_1BO@CIIGPEMP@?$AAC?$AAM?$AA_?$AAI?$AAC?$AAL?$AAK?$AAE?$AAN?$AA_?$AAW?$AAK?$AAU?$AAP?$AA?$AA@|
	DCD	0x20
	DCD	0x48004c10
	DCD	0x0
	DCD	|??_C@_1BO@FFEBGJIL@?$AAC?$AAM?$AA_?$AAI?$AAD?$AAL?$AAE?$AAS?$AAT?$AA_?$AAW?$AAK?$AAU?$AAP?$AA?$AA@|
	DCD	0x20
	DCD	0x48004c20
	DCD	0x0
	DCD	|??_C@_1CC@JJJPDLCF@?$AAC?$AAM?$AA_?$AAA?$AAU?$AAT?$AAO?$AAI?$AAD?$AAL?$AAE?$AA_?$AAW?$AAK?$AAU?$AAP?$AA?$AA@|
	DCD	0x20
	DCD	0x48004c30
	DCD	0x0
	DCD	|??_C@_1BO@MGPCIMBE@?$AAC?$AAM?$AA_?$AAC?$AAL?$AAK?$AAS?$AAE?$AAL?$AA_?$AAW?$AAK?$AAU?$AAP?$AA?$AA@|
	DCD	0x20
	DCD	0x48004c40
	DCD	0x0
	DCD	|??_C@_1CK@OJMCKPMK@?$AAC?$AAl?$AAo?$AAc?$AAk?$AA_?$AAC?$AAo?$AAn?$AAt?$AAr?$AAo?$AAl?$AA_?$AAR?$AAe?$AAg?$AA_?$AAC?$AAM?$AA?$AA@|
	DCD	0x20
	DCD	0x0
	DCD	0x0
	DCD	|??_C@_1BK@CFOGEALB@?$AAC?$AAM?$AA_?$AAC?$AAL?$AAK?$AAE?$AAN?$AA_?$AAP?$AAL?$AAL?$AA?$AA@|
	DCD	0x20
	DCD	0x48004d00
	DCD	0x0
	DCD	|??_C@_1BM@DGCCAOAF@?$AAC?$AAM?$AA_?$AAC?$AAL?$AAK?$AAE?$AAN?$AA2?$AA_?$AAP?$AAL?$AAL?$AA?$AA@|
	DCD	0x20
	DCD	0x48004d04
	DCD	0x0
	DCD	|??_C@_1CA@PFEJJBMO@?$AAC?$AAM?$AA_?$AAI?$AAD?$AAL?$AAE?$AAS?$AAT?$AA_?$AAC?$AAK?$AAG?$AAE?$AAN?$AA?$AA@|
	DCD	0x20
	DCD	0x48004d20
	DCD	0x0
	DCD	|??_C@_1CC@OBCEIAAE@?$AAC?$AAM?$AA_?$AAI?$AAD?$AAL?$AAE?$AAS?$AAT?$AA2?$AA_?$AAC?$AAK?$AAG?$AAE?$AAN?$AA?$AA@|
	DCD	0x20
	DCD	0x48004d24
	DCD	0x0
	DCD	|??_C@_1CA@ODFNPBKK@?$AAC?$AAM?$AA_?$AAA?$AAU?$AAT?$AAO?$AAI?$AAD?$AAL?$AAE?$AA_?$AAP?$AAL?$AAL?$AA?$AA@|
	DCD	0x20
	DCD	0x48004d30
	DCD	0x0
	DCD	|??_C@_1CC@CDHCIADO@?$AAC?$AAM?$AA_?$AAA?$AAU?$AAT?$AAO?$AAI?$AAD?$AAL?$AAE?$AA2?$AA_?$AAP?$AAL?$AAL?$AA?$AA@|
	DCD	0x20
	DCD	0x48004d34
	DCD	0x0
	DCD	|??_C@_1BO@LIBOFPP@?$AAC?$AAM?$AA_?$AAC?$AAL?$AAK?$AAS?$AAE?$AAL?$AA1?$AA_?$AAP?$AAL?$AAL?$AA?$AA@|
	DCD	0x20
	DCD	0x48004d40
	DCD	0x0
	DCD	|??_C@_1BO@HMBPDHAP@?$AAC?$AAM?$AA_?$AAC?$AAL?$AAK?$AAS?$AAE?$AAL?$AA2?$AA_?$AAP?$AAL?$AAL?$AA?$AA@|
	DCD	0x20
	DCD	0x48004d44
	DCD	0x0
	DCD	|??_C@_1BO@OHLKHLGA@?$AAC?$AAM?$AA_?$AAC?$AAL?$AAK?$AAS?$AAE?$AAL?$AA3?$AA_?$AAP?$AAL?$AAL?$AA?$AA@|
	DCD	0x20
	DCD	0x48004d48
	DCD	0x0
	DCD	|??_C@_1BO@JDCCJCOP@?$AAC?$AAM?$AA_?$AAC?$AAL?$AAK?$AAS?$AAE?$AAL?$AA4?$AA_?$AAP?$AAL?$AAL?$AA?$AA@|
	DCD	0x20
	DCD	0x48004d4c
	DCD	0x0
	DCD	|??_C@_1BO@IIHNOIA@?$AAC?$AAM?$AA_?$AAC?$AAL?$AAK?$AAS?$AAE?$AAL?$AA5?$AA_?$AAP?$AAL?$AAL?$AA?$AA@|
	DCD	0x20
	DCD	0x48004d50
	DCD	0x0
	DCD	|??_C@_1BO@MLHAGPEI@?$AAC?$AAM?$AA_?$AAC?$AAL?$AAK?$AAO?$AAU?$AAT?$AA_?$AAC?$AAT?$AAR?$AAL?$AA?$AA@|
	DCD	0x20
	DCD	0x48004d70
	DCD	0x0
	DCD	|??_C@_1O@DCDFCCN@?$AAD?$AAS?$AAS?$AA_?$AAC?$AAM?$AA?$AA@|
	DCD	0x0
	DCD	0x0
	DCD	0x0
	DCD	|??_C@_1BM@KMOLEKOF@?$AAC?$AAM?$AA_?$AAF?$AAC?$AAL?$AAK?$AAE?$AAN?$AA_?$AAD?$AAS?$AAS?$AA?$AA@|
	DCD	0x20
	DCD	0x48004e00
	DCD	0x0
	DCD	|??_C@_1BM@HAHBFCKF@?$AAC?$AAM?$AA_?$AAI?$AAC?$AAL?$AAK?$AAE?$AAN?$AA_?$AAD?$AAS?$AAS?$AA?$AA@|
	DCD	0x20
	DCD	0x48004e10
	DCD	0x0
	DCD	|??_C@_1BM@MJOIHANK@?$AAC?$AAM?$AA_?$AAI?$AAD?$AAL?$AAE?$AAS?$AAT?$AA_?$AAD?$AAS?$AAS?$AA?$AA@|
	DCD	0x20
	DCD	0x48004e20
	DCD	0x0
	DCD	|??_C@_1CA@OBFGDJPM@?$AAC?$AAM?$AA_?$AAA?$AAU?$AAT?$AAO?$AAI?$AAD?$AAL?$AAE?$AA_?$AAD?$AAS?$AAS?$AA?$AA@|
	DCD	0x20
	DCD	0x48004e30
	DCD	0x0
	DCD	|??_C@_1BM@DNMPICO@?$AAC?$AAM?$AA_?$AAC?$AAL?$AAK?$AAS?$AAE?$AAL?$AA_?$AAD?$AAS?$AAS?$AA?$AA@|
	DCD	0x20
	DCD	0x48004e40
	DCD	0x0
	DCD	|??_C@_1CA@HHIKKAKJ@?$AAC?$AAM?$AA_?$AAS?$AAL?$AAE?$AAE?$AAP?$AAD?$AAE?$AAP?$AA_?$AAD?$AAS?$AAS?$AA?$AA@|
	DCD	0x20
	DCD	0x48004e44
	DCD	0x0
	DCD	|??_C@_1CC@GJGCLMP@?$AAC?$AAM?$AA_?$AAC?$AAL?$AAK?$AAS?$AAT?$AAC?$AAT?$AAR?$AAL?$AA_?$AAD?$AAS?$AAS?$AA?$AA@|
	DCD	0x20
	DCD	0x48004e48
	DCD	0x0
	DCD	|??_C@_1BO@MBBCBBCE@?$AAC?$AAM?$AA_?$AAC?$AAL?$AAK?$AAS?$AAT?$AAS?$AAT?$AA_?$AAD?$AAS?$AAS?$AA?$AA@|
	DCD	0x20
	DCD	0x48004e4c
	DCD	0x0
	DCD	|??_C@_1O@LPKKDKNF@?$AAC?$AAA?$AAM?$AA_?$AAC?$AAM?$AA?$AA@|
	DCD	0x0
	DCD	0x0
	DCD	0x0
	DCD	|??_C@_1BM@FIPGMAMA@?$AAC?$AAM?$AA_?$AAF?$AAC?$AAL?$AAK?$AAE?$AAN?$AA_?$AAC?$AAA?$AAM?$AA?$AA@|
	DCD	0x20
	DCD	0x48004f00
	DCD	0x0
	DCD	|??_C@_1BM@IEGMNIIA@?$AAC?$AAM?$AA_?$AAI?$AAC?$AAL?$AAK?$AAE?$AAN?$AA_?$AAC?$AAA?$AAM?$AA?$AA@|
	DCD	0x20
	DCD	0x48004f10
	DCD	0x0
	DCD	|??_C@_1BM@DNPFPKPP@?$AAC?$AAM?$AA_?$AAI?$AAD?$AAL?$AAE?$AAS?$AAT?$AA_?$AAC?$AAA?$AAM?$AA?$AA@|
	DCD	0x20
	DCD	0x48004f20
	DCD	0x0
	DCD	|??_C@_1CA@BFELLDNJ@?$AAC?$AAM?$AA_?$AAA?$AAU?$AAT?$AAO?$AAI?$AAD?$AAL?$AAE?$AA_?$AAC?$AAA?$AAM?$AA?$AA@|
	DCD	0x20
	DCD	0x48004f30
	DCD	0x0
	DCD	|??_C@_1BM@PHMBHCAL@?$AAC?$AAM?$AA_?$AAC?$AAL?$AAK?$AAS?$AAE?$AAL?$AA_?$AAC?$AAA?$AAM?$AA?$AA@|
	DCD	0x20
	DCD	0x48004f40
	DCD	0x0
	DCD	|??_C@_1CA@IDJHCKIM@?$AAC?$AAM?$AA_?$AAS?$AAL?$AAE?$AAE?$AAP?$AAD?$AAE?$AAP?$AA_?$AAC?$AAA?$AAM?$AA?$AA@|
	DCD	0x20
	DCD	0x48004f44
	DCD	0x0
	DCD	|??_C@_1CC@PCILKBOK@?$AAC?$AAM?$AA_?$AAC?$AAL?$AAK?$AAS?$AAT?$AAC?$AAT?$AAR?$AAL?$AA_?$AAC?$AAA?$AAM?$AA?$AA@|
	DCD	0x20
	DCD	0x48004f48
	DCD	0x0
	DCD	|??_C@_1BO@DFAPJLAB@?$AAC?$AAM?$AA_?$AAC?$AAL?$AAK?$AAS?$AAT?$AAS?$AAT?$AA_?$AAC?$AAA?$AAM?$AA?$AA@|
	DCD	0x20
	DCD	0x48004f4c
	DCD	0x0
	DCD	|??_C@_1O@HANKMCHI@?$AAP?$AAE?$AAR?$AA_?$AAC?$AAM?$AA?$AA@|
	DCD	0x0
	DCD	0x0
	DCD	0x0
	DCD	|??_C@_1BM@DJCJPDNH@?$AAC?$AAM?$AA_?$AAF?$AAC?$AAL?$AAK?$AAE?$AAN?$AA_?$AAP?$AAE?$AAR?$AA?$AA@|
	DCD	0x20
	DCD	0x48005000
	DCD	0x0
	DCD	|??_C@_1BM@OFLDOLJH@?$AAC?$AAM?$AA_?$AAI?$AAC?$AAL?$AAK?$AAE?$AAN?$AA_?$AAP?$AAE?$AAR?$AA?$AA@|
	DCD	0x20
	DCD	0x48005010
	DCD	0x0
	DCD	|??_C@_1BM@FMCKMJOI@?$AAC?$AAM?$AA_?$AAI?$AAD?$AAL?$AAE?$AAS?$AAT?$AA_?$AAP?$AAE?$AAR?$AA?$AA@|
	DCD	0x20
	DCD	0x48005020
	DCD	0x0
	DCD	|??_C@_1CA@HEJEIAMO@?$AAC?$AAM?$AA_?$AAA?$AAU?$AAT?$AAO?$AAI?$AAD?$AAL?$AAE?$AA_?$AAP?$AAE?$AAR?$AA?$AA@|
	DCD	0x20
	DCD	0x48005030
	DCD	0x0
	DCD	|??_C@_1BM@JGBOEBBM@?$AAC?$AAM?$AA_?$AAC?$AAL?$AAK?$AAS?$AAE?$AAL?$AA_?$AAP?$AAE?$AAR?$AA?$AA@|
	DCD	0x20
	DCD	0x48005040
	DCD	0x0
	DCD	|??_C@_1CA@OCEIBJJL@?$AAC?$AAM?$AA_?$AAS?$AAL?$AAE?$AAE?$AAP?$AAD?$AAE?$AAP?$AA_?$AAP?$AAE?$AAR?$AA?$AA@|
	DCD	0x20
	DCD	0x48005044
	DCD	0x0
	DCD	|??_C@_1CC@JDFEJCPN@?$AAC?$AAM?$AA_?$AAC?$AAL?$AAK?$AAS?$AAT?$AAC?$AAT?$AAR?$AAL?$AA_?$AAP?$AAE?$AAR?$AA?$AA@|
	DCD	0x20
	DCD	0x48005048
	DCD	0x0
	DCD	|??_C@_1BO@FENAKIBG@?$AAC?$AAM?$AA_?$AAC?$AAL?$AAK?$AAS?$AAT?$AAS?$AAT?$AA_?$AAP?$AAE?$AAR?$AA?$AA@|
	DCD	0x20
	DCD	0x4800504c
	DCD	0x0
	DCD	|??_C@_1O@HGBLPNPO@?$AAE?$AAM?$AAU?$AA_?$AAC?$AAM?$AA?$AA@|
	DCD	0x0
	DCD	0x0
	DCD	0x0
	DCD	|??_C@_1BO@NJJHBBAA@?$AAC?$AAM?$AA_?$AAC?$AAL?$AAK?$AAS?$AAE?$AAL?$AA1?$AA_?$AAE?$AAM?$AAU?$AA?$AA@|
	DCD	0x20
	DCD	0x48005140
	DCD	0x0
	DCD	|??_C@_1CC@NGILBHGG@?$AAC?$AAM?$AA_?$AAC?$AAL?$AAK?$AAS?$AAT?$AAC?$AAT?$AAR?$AAL?$AA_?$AAE?$AAM?$AAU?$AA?$AA@|
	DCD	0x20
	DCD	0x48005148
	DCD	0x0
	DCD	|??_C@_1BO@BBAPCNIN@?$AAC?$AAM?$AA_?$AAC?$AAL?$AAK?$AAS?$AAT?$AAS?$AAT?$AA_?$AAE?$AAM?$AAU?$AA?$AA@|
	DCD	0x20
	DCD	0x4800514c
	DCD	0x0
	DCD	|??_C@_1BO@KOAJMDPA@?$AAC?$AAM?$AA_?$AAC?$AAL?$AAK?$AAS?$AAE?$AAL?$AA2?$AA_?$AAE?$AAM?$AAU?$AA?$AA@|
	DCD	0x20
	DCD	0x48005150
	DCD	0x0
	DCD	|??_C@_1BO@DFKMIPJP@?$AAC?$AAM?$AA_?$AAC?$AAL?$AAK?$AAS?$AAE?$AAL?$AA3?$AA_?$AAE?$AAM?$AAU?$AA?$AA@|
	DCD	0x20
	DCD	0x48005154
	DCD	0x0
	DCD	|??_C@_1BM@KLCMOAEB@?$AAG?$AAl?$AAo?$AAb?$AAa?$AAl?$AA_?$AAR?$AAe?$AAg?$AA_?$AAC?$AAM?$AA?$AA@|
	DCD	0x0
	DCD	0x0
	DCD	0x0
	DCD	|??_C@_1BG@JLGAJAMH@?$AAC?$AAM?$AA_?$AAP?$AAO?$AAL?$AAC?$AAT?$AAR?$AAL?$AA?$AA@|
	DCD	0x20
	DCD	0x4800529c
	DCD	0x0
	DCD	|??_C@_1BA@HGJCCLLN@?$AAN?$AAE?$AAO?$AAN?$AA_?$AAC?$AAM?$AA?$AA@|
	DCD	0x0
	DCD	0x0
	DCD	0x0
	DCD	|??_C@_1BO@IJPLNAMK@?$AAC?$AAM?$AA_?$AAI?$AAD?$AAL?$AAE?$AAS?$AAT?$AA_?$AAN?$AAE?$AAO?$AAN?$AA?$AA@|
	DCD	0x20
	DCD	0x48005320
	DCD	0x0
	DCD	|??_C@_1CE@ECPHHBNM@?$AAC?$AAM?$AA_?$AAC?$AAL?$AAK?$AAS?$AAT?$AAC?$AAT?$AAR?$AAL?$AA_?$AAN?$AAE?$AAO?$AAN?$AA?$AA@|
	DCD	0x20
	DCD	0x48005348
	DCD	0x0
	DCD	|??_C@_1BG@GHMGBAHH@?$AAU?$AAS?$AAB?$AAH?$AAO?$AAS?$AAT?$AA_?$AAC?$AAM?$AA?$AA@|
	DCD	0x0
	DCD	0x0
	DCD	0x0
	DCD	|??_C@_1CE@IOEIODMB@?$AAC?$AAM?$AA_?$AAF?$AAC?$AAL?$AAK?$AAE?$AAN?$AA_?$AAU?$AAS?$AAB?$AAH?$AAO?$AAS?$AAT?$AA?$AA@|
	DCD	0x20
	DCD	0x48005400
	DCD	0x0
	DCD	|??_C@_1CE@DBMFEPI@?$AAC?$AAM?$AA_?$AAI?$AAC?$AAL?$AAK?$AAE?$AAN?$AA_?$AAU?$AAS?$AAB?$AAH?$AAO?$AAS?$AAT?$AA?$AA@|
	DCD	0x20
	DCD	0x48005410
	DCD	0x0
	DCD	|??_C@_1CE@JPANCJP@?$AAC?$AAM?$AA_?$AAI?$AAD?$AAL?$AAE?$AAS?$AAT?$AA_?$AAU?$AAS?$AAB?$AAH?$AAO?$AAS?$AAT?$AA?$AA@|
	DCD	0x20
	DCD	0x48005420
	DCD	0x0
	DCD	|??_C@_1CI@DGALJPCE@?$AAC?$AAM?$AA_?$AAA?$AAU?$AAT?$AAO?$AAI?$AAD?$AAL?$AAE?$AA_?$AAU?$AAS?$AAB?$AAH?$AAO?$AAS?$AAT?$AA?$AA@|
	DCD	0x20
	DCD	0x48005430
	DCD	0x0
	DCD	|??_C@_1CI@GKCHFPIN@?$AAC?$AAM?$AA_?$AAS?$AAL?$AAE?$AAE?$AAP?$AAD?$AAE?$AAP?$AA_?$AAU?$AAS?$AAB?$AAH?$AAO?$AAS?$AAT?$AA?$AA@|
	DCD	0x20
	DCD	0x48005444
	DCD	0x0
	DCD	|??_C@_1CK@EGBEEDCG@?$AAC?$AAM?$AA_?$AAC?$AAL?$AAK?$AAS?$AAT?$AAC?$AAT?$AAR?$AAL?$AA_?$AAU?$AAS?$AAB?$AAH?$AAO?$AAS?$AAT?$AA?$AA@|
	DCD	0x20
	DCD	0x48005448
	DCD	0x0
	DCD	|??_C@_1CG@EKKJOCAI@?$AAC?$AAM?$AA_?$AAC?$AAL?$AAK?$AAS?$AAT?$AAS?$AAT?$AA_?$AAU?$AAS?$AAB?$AAH?$AAO?$AAS?$AAT?$AA?$AA@|
	DCD	0x20
	DCD	0x4800544c
	DCD	0x0
	DCD	|??_C@_1BC@FAAHEALM@?$AAI?$AAV?$AAA?$AA2?$AA_?$AAP?$AAR?$AAM?$AA?$AA@|
	DCD	0x0
	DCD	0x0
	DCD	0x0
	DCD	|??_C@_1CA@GBOALOJP@?$AAR?$AAM?$AA_?$AAR?$AAS?$AAT?$AAC?$AAT?$AAR?$AAL?$AA_?$AAI?$AAV?$AAA?$AA2?$AA?$AA@|
	DCD	0x20
	DCD	0x48306050
	DCD	0x0
	DCD	|??_C@_1BM@LKPNMPAP@?$AAR?$AAM?$AA_?$AAR?$AAS?$AAT?$AAS?$AAT?$AA_?$AAI?$AAV?$AAA?$AA2?$AA?$AA@|
	DCD	0x20
	DCD	0x48306058
	DCD	0x0
	DCD	|??_C@_1BM@NLLDLBL@?$AAP?$AAM?$AA_?$AAW?$AAK?$AAD?$AAE?$AAP?$AA_?$AAI?$AAV?$AAA?$AA2?$AA?$AA@|
	DCD	0x20
	DCD	0x483060c8
	DCD	0x0
	DCD	|??_C@_1CC@CPGBPP@?$AAP?$AAM?$AA_?$AAP?$AAW?$AAS?$AAT?$AAC?$AAT?$AAR?$AAL?$AA_?$AAI?$AAV?$AAA?$AA2?$AA?$AA@|
	DCD	0x20
	DCD	0x483060e0
	DCD	0x0
	DCD	|??_C@_1BO@FHNJGKGN@?$AAP?$AAM?$AA_?$AAP?$AAW?$AAS?$AAT?$AAS?$AAT?$AA_?$AAI?$AAV?$AAA?$AA2?$AA?$AA@|
	DCD	0x20
	DCD	0x483060e4
	DCD	0x0
	DCD	|??_C@_1CE@PLIIPJHM@?$AAP?$AAM?$AA_?$AAP?$AAR?$AAE?$AAP?$AAW?$AAS?$AAT?$AAS?$AAT?$AA_?$AAI?$AAV?$AAA?$AA2?$AA?$AA@|
	DCD	0x20
	DCD	0x483060e8
	DCD	0x0
	DCD	|??_C@_1CG@HPLDFNCD@?$AAP?$AAR?$AAM?$AA_?$AAI?$AAR?$AAQ?$AAS?$AAT?$AAA?$AAT?$AAU?$AAS?$AA_?$AAI?$AAV?$AAA?$AA2?$AA?$AA@|
	DCD	0x20
	DCD	0x483060f8
	DCD	0x0
	DCD	|??_C@_1CG@LPCHCII@?$AAP?$AAR?$AAM?$AA_?$AAI?$AAR?$AAQ?$AAE?$AAN?$AAA?$AAB?$AAL?$AAE?$AA_?$AAI?$AAV?$AAA?$AA2?$AA?$AA@|
	DCD	0x20
	DCD	0x483060fc
	DCD	0x0
	DCD	|??_C@_1CG@MLMHCLLI@?$AAO?$AAC?$AAP?$AA_?$AAS?$AAy?$AAs?$AAt?$AAe?$AAm?$AA_?$AAR?$AAe?$AAg?$AA_?$AAP?$AAR?$AAM?$AA?$AA@|
	DCD	0x0
	DCD	0x0
	DCD	0x0
	DCD	|??_C@_1BK@HJNIKPGD@?$AAP?$AAR?$AAM?$AA_?$AAR?$AAE?$AAV?$AAI?$AAS?$AAI?$AAO?$AAN?$AA?$AA@|
	DCD	0x20
	DCD	0x48306804
	DCD	0x0
	DCD	|??_C@_1BM@BIKNBGAP@?$AAP?$AAR?$AAM?$AA_?$AAS?$AAY?$AAS?$AAC?$AAO?$AAN?$AAF?$AAI?$AAG?$AA?$AA@|
	DCD	0x20
	DCD	0x48306814
	DCD	0x0
	DCD	|??_C@_1CE@OGNKOJLH@?$AAP?$AAR?$AAM?$AA_?$AAI?$AAR?$AAQ?$AAS?$AAT?$AAA?$AAT?$AAU?$AAS?$AA_?$AAM?$AAP?$AAU?$AA?$AA@|
	DCD	0x20
	DCD	0x48306818
	DCD	0x0
	DCD	|??_C@_1CE@BEHICOCH@?$AAP?$AAR?$AAM?$AA_?$AAI?$AAR?$AAQ?$AAE?$AAN?$AAA?$AAB?$AAL?$AAE?$AA_?$AAM?$AAP?$AAU?$AA?$AA@|
	DCD	0x20
	DCD	0x4830681c
	DCD	0x0
	DCD	|??_C@_1BA@ICKCOBJH@?$AAM?$AAP?$AAU?$AA_?$AAP?$AAR?$AAM?$AA?$AA@|
	DCD	0x0
	DCD	0x0
	DCD	0x0
	DCD	|??_C@_1BK@JLPNAAKB@?$AAR?$AAM?$AA_?$AAR?$AAS?$AAT?$AAS?$AAT?$AA_?$AAM?$AAP?$AAU?$AA?$AA@|
	DCD	0x20
	DCD	0x48306958
	DCD	0x0
	DCD	|??_C@_1BK@OHJOBLPO@?$AAP?$AAM?$AA_?$AAW?$AAK?$AAD?$AAE?$AAP?$AA_?$AAM?$AAP?$AAU?$AA?$AA@|
	DCD	0x20
	DCD	0x483069c8
	DCD	0x0
	DCD	|??_C@_1CC@MKEFHNLB@?$AAP?$AAM?$AA_?$AAE?$AAV?$AAG?$AAE?$AAN?$AAC?$AAT?$AAR?$AAL?$AA_?$AAM?$AAP?$AAU?$AA?$AA@|
	DCD	0x20
	DCD	0x483069d4
	DCD	0x0
	DCD	|??_C@_1CE@GDJAJDKH@?$AAP?$AAM?$AA_?$AAE?$AAV?$AAG?$AAE?$AAN?$AAO?$AAN?$AAT?$AAI?$AAM?$AA_?$AAM?$AAP?$AAU?$AA?$AA@|
	DCD	0x20
	DCD	0x483069d8
	DCD	0x0
	DCD	|??_C@_1CG@EAPFPBNK@?$AAP?$AAM?$AA_?$AAE?$AAV?$AAG?$AAE?$AAN?$AAO?$AAF?$AAF?$AAT?$AAI?$AAM?$AA_?$AAM?$AAP?$AAU?$AA?$AA@|
	DCD	0x20
	DCD	0x483069dc
	DCD	0x0
	DCD	|??_C@_1CA@GOJLPOGC@?$AAP?$AAM?$AA_?$AAP?$AAW?$AAS?$AAT?$AAC?$AAT?$AAR?$AAL?$AA_?$AAM?$AAP?$AAU?$AA?$AA@|
	DCD	0x20
	DCD	0x483069e0
	DCD	0x0
	DCD	|??_C@_1BM@LELJCJGF@?$AAP?$AAM?$AA_?$AAP?$AAW?$AAS?$AAT?$AAS?$AAT?$AA_?$AAM?$AAP?$AAU?$AA?$AA@|
	DCD	0x20
	DCD	0x483069e4
	DCD	0x0
	DCD	|??_C@_1CC@GGGLCCOF@?$AAP?$AAM?$AA_?$AAP?$AAR?$AAE?$AAP?$AAW?$AAS?$AAT?$AAS?$AAT?$AA_?$AAM?$AAP?$AAU?$AA?$AA@|
	DCD	0x20
	DCD	0x483069e8
	DCD	0x0
	DCD	|??_C@_1BC@DDNPMELP@?$AAC?$AAO?$AAR?$AAE?$AA_?$AAP?$AAR?$AAM?$AA?$AA@|
	DCD	0x0
	DCD	0x0
	DCD	0x0
	DCD	|??_C@_1BM@LNIBJNNG@?$AAR?$AAM?$AA_?$AAR?$AAS?$AAT?$AAS?$AAT?$AA_?$AAC?$AAO?$AAR?$AAE?$AA?$AA@|
	DCD	0x20
	DCD	0x48306a58
	DCD	0x0
	DCD	|??_C@_1BM@KOJMJKMB@?$AAP?$AAM?$AA_?$AAW?$AAK?$AAE?$AAN?$AA1?$AA_?$AAC?$AAO?$AAR?$AAE?$AA?$AA@|
	DCD	0x20
	DCD	0x48306aa0
	DCD	0x0
	DCD	|??_C@_1CG@HJFNCJPA@?$AAP?$AAM?$AA_?$AAM?$AAP?$AAU?$AAG?$AAR?$AAP?$AAS?$AAE?$AAL?$AA1?$AA_?$AAC?$AAO?$AAR?$AAE?$AA?$AA@|
	DCD	0x20
	DCD	0x48306aa4
	DCD	0x0
	DCD	|??_C@_1CI@IHEHCOLP@?$AAP?$AAM?$AA_?$AAI?$AAV?$AAA?$AA2?$AAG?$AAR?$AAP?$AAS?$AAE?$AAL?$AA1?$AA_?$AAC?$AAO?$AAR?$AAE?$AA?$AA@|
	DCD	0x20
	DCD	0x48306aa8
	DCD	0x0
	DCD	|??_C@_1BM@JMNHPOOO@?$AAP?$AAM?$AA_?$AAW?$AAK?$AAS?$AAT?$AA1?$AA_?$AAC?$AAO?$AAR?$AAE?$AA?$AA@|
	DCD	0x20
	DCD	0x48306ab0
	DCD	0x0
	DCD	|??_C@_1BM@HNLJDKED@?$AAP?$AAM?$AA_?$AAW?$AAK?$AAS?$AAT?$AA3?$AA_?$AAC?$AAO?$AAR?$AAE?$AA?$AA@|
	DCD	0x20
	DCD	0x48306ab8
	DCD	0x0
	DCD	|??_C@_1CC@HFDDDCG@?$AAP?$AAM?$AA_?$AAP?$AAW?$AAS?$AAT?$AAC?$AAT?$AAR?$AAL?$AA_?$AAC?$AAO?$AAR?$AAE?$AA?$AA@|
	DCD	0x20
	DCD	0x48306ae0
	DCD	0x0
	DCD	|??_C@_1BO@FAKFDILE@?$AAP?$AAM?$AA_?$AAP?$AAW?$AAS?$AAT?$AAS?$AAT?$AA_?$AAC?$AAO?$AAR?$AAE?$AA?$AA@|
	DCD	0x20
	DCD	0x48306ae4
	DCD	0x0
	DCD	|??_C@_1CE@PMPEKLKF@?$AAP?$AAM?$AA_?$AAP?$AAR?$AAE?$AAP?$AAW?$AAS?$AAT?$AAS?$AAT?$AA_?$AAC?$AAO?$AAR?$AAE?$AA?$AA@|
	DCD	0x20
	DCD	0x48306ae8
	DCD	0x0
	DCD	|??_C@_1BM@EPPCFOGM@?$AAP?$AAM?$AA_?$AAW?$AAK?$AAE?$AAN?$AA3?$AA_?$AAC?$AAO?$AAR?$AAE?$AA?$AA@|
	DCD	0x20
	DCD	0x48306af0
	DCD	0x0
	DCD	|??_C@_1CI@GGCJOKBC@?$AAP?$AAM?$AA_?$AAI?$AAV?$AAA?$AA2?$AAG?$AAR?$AAP?$AAS?$AAE?$AAL?$AA3?$AA_?$AAC?$AAO?$AAR?$AAE?$AA?$AA@|
	DCD	0x20
	DCD	0x48306af4
	DCD	0x0
	DCD	|??_C@_1CG@JIDDONFN@?$AAP?$AAM?$AA_?$AAM?$AAP?$AAU?$AAG?$AAR?$AAP?$AAS?$AAE?$AAL?$AA3?$AA_?$AAC?$AAO?$AAR?$AAE?$AA?$AA@|
	DCD	0x20
	DCD	0x48306af8
	DCD	0x0
	DCD	|??_C@_1BA@NJNHLOOA@?$AAS?$AAG?$AAX?$AA_?$AAP?$AAR?$AAM?$AA?$AA@|
	DCD	0x0
	DCD	0x0
	DCD	0x0
	DCD	|??_C@_1BK@BOHFMJEG@?$AAR?$AAM?$AA_?$AAR?$AAS?$AAT?$AAS?$AAT?$AA_?$AAS?$AAG?$AAX?$AA?$AA@|
	DCD	0x20
	DCD	0x48306b58
	DCD	0x0
	DCD	|??_C@_1BK@GCBGNCBJ@?$AAP?$AAM?$AA_?$AAW?$AAK?$AAD?$AAE?$AAP?$AA_?$AAS?$AAG?$AAX?$AA?$AA@|
	DCD	0x20
	DCD	0x48306bc8
	DCD	0x0
	DCD	|??_C@_1CA@OLBDDHIF@?$AAP?$AAM?$AA_?$AAP?$AAW?$AAS?$AAT?$AAC?$AAT?$AAR?$AAL?$AA_?$AAS?$AAG?$AAX?$AA?$AA@|
	DCD	0x20
	DCD	0x48306be0
	DCD	0x0
	DCD	|??_C@_1BM@DBDBOAIC@?$AAP?$AAM?$AA_?$AAP?$AAW?$AAS?$AAT?$AAS?$AAT?$AA_?$AAS?$AAG?$AAX?$AA?$AA@|
	DCD	0x20
	DCD	0x48306be4
	DCD	0x0
	DCD	|??_C@_1CC@ODODOLAC@?$AAP?$AAM?$AA_?$AAP?$AAR?$AAE?$AAP?$AAW?$AAS?$AAT?$AAS?$AAT?$AA_?$AAS?$AAG?$AAX?$AA?$AA@|
	DCD	0x20
	DCD	0x48306be8
	DCD	0x0
	DCD	|??_C@_1BC@DDJDDDAK@?$AAW?$AAK?$AAU?$AAP?$AA_?$AAP?$AAR?$AAM?$AA?$AA@|
	DCD	0x0
	DCD	0x0
	DCD	0x0
	DCD	|??_C@_1BK@MGPBAGAB@?$AAP?$AAM?$AA_?$AAW?$AAK?$AAE?$AAN?$AA_?$AAW?$AAK?$AAU?$AAP?$AA?$AA@|
	DCD	0x20
	DCD	0x48306ca0
	DCD	0x0
	DCD	|??_C@_1CE@KLFJHCLF@?$AAP?$AAM?$AA_?$AAM?$AAP?$AAU?$AAG?$AAR?$AAP?$AAS?$AAE?$AAL?$AA_?$AAW?$AAK?$AAU?$AAP?$AA?$AA@|
	DCD	0x20
	DCD	0x48306ca4
	DCD	0x0
	DCD	|??_C@_1CG@NGIEHFMC@?$AAP?$AAM?$AA_?$AAI?$AAV?$AAA?$AA2?$AAG?$AAR?$AAP?$AAS?$AAE?$AAL?$AA_?$AAW?$AAK?$AAU?$AAP?$AA?$AA@|
	DCD	0x20
	DCD	0x48306ca8
	DCD	0x0
	DCD	|??_C@_1BK@MHMCLHIM@?$AAP?$AAM?$AA_?$AAW?$AAK?$AAS?$AAT?$AA_?$AAW?$AAK?$AAU?$AAP?$AA?$AA@|
	DCD	0x20
	DCD	0x48306cb0
	DCD	0x0
	DCD	|??_C@_1CM@BOLGGOBJ@?$AAC?$AAl?$AAo?$AAc?$AAk?$AA_?$AAC?$AAo?$AAn?$AAt?$AAr?$AAo?$AAl?$AA_?$AAR?$AAe?$AAg?$AA_?$AAP?$AAR?$AAM?$AA?$AA@|
	DCD	0x0
	DCD	0x0
	DCD	0x0
	DCD	|??_C@_1BG@BPBPBGIA@?$AAP?$AAR?$AAM?$AA_?$AAC?$AAL?$AAK?$AAS?$AAE?$AAL?$AA?$AA@|
	DCD	0x20
	DCD	0x48306d40
	DCD	0x0
	DCD	|??_C@_1CA@PGMOAOBH@?$AAP?$AAR?$AAM?$AA_?$AAC?$AAL?$AAK?$AAO?$AAU?$AAT?$AA_?$AAC?$AAT?$AAR?$AAL?$AA?$AA@|
	DCD	0x20
	DCD	0x48306d70
	DCD	0x0
	DCD	|??_C@_1BA@MMIFGPHC@?$AAD?$AAS?$AAS?$AA_?$AAP?$AAR?$AAM?$AA?$AA@|
	DCD	0x0
	DCD	0x0
	DCD	0x0
	DCD	|??_C@_1BK@CHENDGPI@?$AAR?$AAM?$AA_?$AAR?$AAS?$AAT?$AAS?$AAT?$AA_?$AAD?$AAS?$AAS?$AA?$AA@|
	DCD	0x20
	DCD	0x48306e58
	DCD	0x0
	DCD	|??_C@_1BI@DPCLPEKM@?$AAP?$AAM?$AA_?$AAW?$AAK?$AAE?$AAN?$AA_?$AAD?$AAS?$AAS?$AA?$AA@|
	DCD	0x20
	DCD	0x48306ea0
	DCD	0x0
	DCD	|??_C@_1BK@FLCOCNKH@?$AAP?$AAM?$AA_?$AAW?$AAK?$AAD?$AAE?$AAP?$AA_?$AAD?$AAS?$AAS?$AA?$AA@|
	DCD	0x20
	DCD	0x48306ec8
	DCD	0x0
	DCD	|??_C@_1CA@NCCLMIDL@?$AAP?$AAM?$AA_?$AAP?$AAW?$AAS?$AAT?$AAC?$AAT?$AAR?$AAL?$AA_?$AAD?$AAS?$AAS?$AA?$AA@|
	DCD	0x20
	DCD	0x48306ee0
	DCD	0x0
	DCD	|??_C@_1BM@IAJBPDM@?$AAP?$AAM?$AA_?$AAP?$AAW?$AAS?$AAT?$AAS?$AAT?$AA_?$AAD?$AAS?$AAS?$AA?$AA@|
	DCD	0x20
	DCD	0x48306ee4
	DCD	0x0
	DCD	|??_C@_1CC@NKNLBELM@?$AAP?$AAM?$AA_?$AAP?$AAR?$AAE?$AAP?$AAW?$AAS?$AAT?$AAS?$AAT?$AA_?$AAD?$AAS?$AAS?$AA?$AA@|
	DCD	0x20
	DCD	0x48306ee8
	DCD	0x0
	DCD	|??_C@_1BA@FDIJFBCE@?$AAC?$AAA?$AAM?$AA_?$AAP?$AAR?$AAM?$AA?$AA@|
	DCD	0x0
	DCD	0x0
	DCD	0x0
	DCD	|??_C@_1BK@NDFALMNN@?$AAR?$AAM?$AA_?$AAR?$AAS?$AAT?$AAS?$AAT?$AA_?$AAC?$AAA?$AAM?$AA?$AA@|
	DCD	0x20
	DCD	0x48306f58
	DCD	0x0
	DCD	|??_C@_1BK@KPDDKHIC@?$AAP?$AAM?$AA_?$AAW?$AAK?$AAD?$AAE?$AAP?$AA_?$AAC?$AAA?$AAM?$AA?$AA@|
	DCD	0x20
	DCD	0x48306fc8
	DCD	0x0
	DCD	|??_C@_1CA@CGDGECBO@?$AAP?$AAM?$AA_?$AAP?$AAW?$AAS?$AAT?$AAC?$AAT?$AAR?$AAL?$AA_?$AAC?$AAA?$AAM?$AA?$AA@|
	DCD	0x20
	DCD	0x48306fe0
	DCD	0x0
	DCD	|??_C@_1BM@PMBEJFBJ@?$AAP?$AAM?$AA_?$AAP?$AAW?$AAS?$AAT?$AAS?$AAT?$AA_?$AAC?$AAA?$AAM?$AA?$AA@|
	DCD	0x20
	DCD	0x48306fe4
	DCD	0x0
	DCD	|??_C@_1CC@COMGJOJJ@?$AAP?$AAM?$AA_?$AAP?$AAR?$AAE?$AAP?$AAW?$AAS?$AAT?$AAS?$AAT?$AA_?$AAC?$AAA?$AAM?$AA?$AA@|
	DCD	0x20
	DCD	0x48306fe8
	DCD	0x0
	DCD	|??_C@_1BA@PLEGCGNO@?$AAP?$AAE?$AAR?$AA_?$AAP?$AAR?$AAM?$AA?$AA@|
	DCD	0x0
	DCD	0x0
	DCD	0x0
	DCD	|??_C@_1BK@LCIPIPMK@?$AAR?$AAM?$AA_?$AAR?$AAS?$AAT?$AAS?$AAT?$AA_?$AAP?$AAE?$AAR?$AA?$AA@|
	DCD	0x20
	DCD	0x48307058
	DCD	0x0
	DCD	|??_C@_1BI@KKOJENJO@?$AAP?$AAM?$AA_?$AAW?$AAK?$AAE?$AAN?$AA_?$AAP?$AAE?$AAR?$AA?$AA@|
	DCD	0x20
	DCD	0x483070a0
	DCD	0x0
	DCD	|??_C@_1CC@FABFMEFM@?$AAP?$AAM?$AA_?$AAM?$AAP?$AAU?$AAG?$AAR?$AAP?$AAS?$AAE?$AAL?$AA_?$AAP?$AAE?$AAR?$AA?$AA@|
	DCD	0x20
	DCD	0x483070a4
	DCD	0x0
	DCD	|??_C@_1CE@KJGLJLDH@?$AAP?$AAM?$AA_?$AAI?$AAV?$AAA?$AA2?$AAG?$AAR?$AAP?$AAS?$AAE?$AAL?$AA_?$AAP?$AAE?$AAR?$AA?$AA@|
	DCD	0x20
	DCD	0x483070a8
	DCD	0x0
	DCD	|??_C@_1BI@NCLGDPNJ@?$AAP?$AAM?$AA_?$AAW?$AAK?$AAS?$AAT?$AA_?$AAP?$AAE?$AAR?$AA?$AA@|
	DCD	0x20
	DCD	0x483070b0
	DCD	0x0
	DCD	|??_C@_1BK@MOOMJEJF@?$AAP?$AAM?$AA_?$AAW?$AAK?$AAD?$AAE?$AAP?$AA_?$AAP?$AAE?$AAR?$AA?$AA@|
	DCD	0x20
	DCD	0x483070c8
	DCD	0x0
	DCD	|??_C@_1CA@EHOJHBAJ@?$AAP?$AAM?$AA_?$AAP?$AAW?$AAS?$AAT?$AAC?$AAT?$AAR?$AAL?$AA_?$AAP?$AAE?$AAR?$AA?$AA@|
	DCD	0x20
	DCD	0x483070e0
	DCD	0x0
	DCD	|??_C@_1BM@JNMLKGAO@?$AAP?$AAM?$AA_?$AAP?$AAW?$AAS?$AAT?$AAS?$AAT?$AA_?$AAP?$AAE?$AAR?$AA?$AA@|
	DCD	0x20
	DCD	0x483070e4
	DCD	0x0
	DCD	|??_C@_1CC@EPBJKNIO@?$AAP?$AAM?$AA_?$AAP?$AAR?$AAE?$AAP?$AAW?$AAS?$AAT?$AAS?$AAT?$AA_?$AAP?$AAE?$AAR?$AA?$AA@|
	DCD	0x20
	DCD	0x483070e8
	DCD	0x0
	DCD	|??_C@_1BA@CAPJDCOP@?$AAE?$AAM?$AAU?$AA_?$AAP?$AAR?$AAM?$AA?$AA@|
	DCD	0x0
	DCD	0x0
	DCD	0x0
	DCD	|??_C@_1BK@PHFAAKFB@?$AAR?$AAM?$AA_?$AAR?$AAS?$AAT?$AAS?$AAT?$AA_?$AAE?$AAM?$AAU?$AA?$AA@|
	DCD	0x20
	DCD	0x48307158
	DCD	0x0
	DCD	|??_C@_1BM@NIBECDJF@?$AAP?$AAM?$AA_?$AAP?$AAW?$AAS?$AAT?$AAS?$AAT?$AA_?$AAE?$AAM?$AAU?$AA?$AA@|
	DCD	0x20
	DCD	0x483071e4
	DCD	0x0
	DCD	|??_C@_1BO@CAKCDBHG@?$AAG?$AAl?$AAo?$AAb?$AAa?$AAl?$AA_?$AAR?$AAe?$AAg?$AA_?$AAP?$AAR?$AAM?$AA?$AA@|
	DCD	0x0
	DCD	0x0
	DCD	0x0
	DCD	|??_C@_1BO@LBDDPNOG@?$AAP?$AAR?$AAM?$AA_?$AAV?$AAC?$AA_?$AAS?$AAM?$AAP?$AAS?$AA_?$AAS?$AAA?$AA?$AA@|
	DCD	0x20
	DCD	0x48307220
	DCD	0x0
	DCD	|??_C@_1CG@OIKDAOML@?$AAP?$AAR?$AAM?$AA_?$AAV?$AAC?$AA_?$AAS?$AAM?$AAP?$AAS?$AA_?$AAV?$AAO?$AAL?$AA_?$AAR?$AAA?$AA?$AA@|
	DCD	0x20
	DCD	0x48307224
	DCD	0x0
	DCD	|??_C@_1CG@PFFOICKB@?$AAP?$AAR?$AAM?$AA_?$AAV?$AAC?$AA_?$AAS?$AAM?$AAP?$AAS?$AA_?$AAC?$AAM?$AAD?$AA_?$AAR?$AAA?$AA?$AA@|
	DCD	0x20
	DCD	0x48307228
	DCD	0x0
	DCD	|??_C@_1CC@NGCEGMEK@?$AAP?$AAR?$AAM?$AA_?$AAV?$AAC?$AA_?$AAC?$AAM?$AAD?$AA_?$AAV?$AAA?$AAL?$AA_?$AA0?$AA?$AA@|
	DCD	0x20
	DCD	0x4830722c
	DCD	0x0
	DCD	|??_C@_1CC@GOJIALCP@?$AAP?$AAR?$AAM?$AA_?$AAV?$AAC?$AA_?$AAC?$AAM?$AAD?$AA_?$AAV?$AAA?$AAL?$AA_?$AA1?$AA?$AA@|
	DCD	0x20
	DCD	0x48307230
	DCD	0x0
	DCD	|??_C@_1BO@NIKJKLFL@?$AAP?$AAR?$AAM?$AA_?$AAV?$AAC?$AA_?$AAC?$AAH?$AA_?$AAC?$AAO?$AAN?$AAF?$AA?$AA@|
	DCD	0x20
	DCD	0x48307234
	DCD	0x0
	DCD	|??_C@_1BO@CDICEJPF@?$AAP?$AAR?$AAM?$AA_?$AAV?$AAC?$AA_?$AAI?$AA2?$AAC?$AA_?$AAC?$AAF?$AAG?$AA?$AA@|
	DCD	0x20
	DCD	0x48307238
	DCD	0x0
	DCD	|??_C@_1CE@LCNFDOGA@?$AAP?$AAR?$AAM?$AA_?$AAV?$AAC?$AA_?$AAB?$AAY?$AAP?$AAA?$AAS?$AAS?$AA_?$AAV?$AAA?$AAL?$AA?$AA@|
	DCD	0x20
	DCD	0x4830723c
	DCD	0x0
	DCD	|??_C@_1BI@LGBDFDCO@?$AAP?$AAR?$AAM?$AA_?$AAR?$AAS?$AAT?$AAC?$AAT?$AAR?$AAL?$AA?$AA@|
	DCD	0x20
	DCD	0x48307250
	DCD	0x0
	DCD	|??_C@_1BI@BLFHBCIB@?$AAP?$AAR?$AAM?$AA_?$AAR?$AAS?$AAT?$AAT?$AAI?$AAM?$AAE?$AA?$AA@|
	DCD	0x20
	DCD	0x48307254
	DCD	0x0
	DCD	|??_C@_1BE@HPDPAFDK@?$AAP?$AAR?$AAM?$AA_?$AAR?$AAS?$AAT?$AAS?$AAT?$AA?$AA@|
	DCD	0x20
	DCD	0x48307258
	DCD	0x0
	DCD	|??_C@_1BK@HFKALEHA@?$AAP?$AAR?$AAM?$AA_?$AAV?$AAO?$AAL?$AAT?$AAC?$AAT?$AAR?$AAL?$AA?$AA@|
	DCD	0x20
	DCD	0x48307260
	DCD	0x0
	DCD	|??_C@_1CC@PEAEBONP@?$AAP?$AAR?$AAM?$AA_?$AAS?$AAR?$AAA?$AAM?$AA_?$AAP?$AAC?$AAH?$AAA?$AAR?$AAG?$AAE?$AA?$AA@|
	DCD	0x20
	DCD	0x48307264
	DCD	0x0
	DCD	|??_C@_1CA@DKBCEFNM@?$AAP?$AAR?$AAM?$AA_?$AAC?$AAL?$AAK?$AAS?$AAR?$AAC?$AA_?$AAC?$AAT?$AAR?$AAL?$AA?$AA@|
	DCD	0x20
	DCD	0x48307270
	DCD	0x0
	DCD	|??_C@_1BA@JADOMDEP@?$AAP?$AAR?$AAM?$AA_?$AAO?$AAB?$AAS?$AA?$AA@|
	DCD	0x20
	DCD	0x48307280
	DCD	0x0
	DCD	|??_C@_1BO@PMPMJPIB@?$AAP?$AAR?$AAM?$AA_?$AAV?$AAO?$AAL?$AAT?$AAS?$AAE?$AAT?$AAU?$AAP?$AA1?$AA?$AA@|
	DCD	0x20
	DCD	0x48307290
	DCD	0x0
	DCD	|??_C@_1BO@HNPCCMHL@?$AAP?$AAR?$AAM?$AA_?$AAV?$AAO?$AAL?$AAT?$AAO?$AAF?$AAF?$AAS?$AAE?$AAT?$AA?$AA@|
	DCD	0x20
	DCD	0x48307294
	DCD	0x0
	DCD	|??_C@_1BK@INLANGOK@?$AAP?$AAR?$AAM?$AA_?$AAC?$AAL?$AAK?$AAS?$AAE?$AAT?$AAU?$AAP?$AA?$AA@|
	DCD	0x20
	DCD	0x48307298
	DCD	0x0
	DCD	|??_C@_1BI@HHOAEAAO@?$AAP?$AAR?$AAM?$AA_?$AAP?$AAO?$AAL?$AAC?$AAT?$AAR?$AAL?$AA?$AA@|
	DCD	0x20
	DCD	0x4830729c
	DCD	0x0
	DCD	|??_C@_1BO@OOEJDAGP@?$AAP?$AAR?$AAM?$AA_?$AAV?$AAO?$AAL?$AAT?$AAS?$AAE?$AAT?$AAU?$AAP?$AA2?$AA?$AA@|
	DCD	0x20
	DCD	0x483072a0
	DCD	0x0
	DCD	|??_C@_1BC@JEBNFJEB@?$AAN?$AAE?$AAO?$AAN?$AA_?$AAP?$AAR?$AAM?$AA?$AA@|
	DCD	0x0
	DCD	0x0
	DCD	0x0
	DCD	|??_C@_1BM@LBPGJMOK@?$AAR?$AAM?$AA_?$AAR?$AAS?$AAT?$AAS?$AAT?$AA_?$AAN?$AAE?$AAO?$AAN?$AA?$AA@|
	DCD	0x20
	DCD	0x48307358
	DCD	0x0
	DCD	|??_C@_1BM@GLAGIPO@?$AAP?$AAM?$AA_?$AAW?$AAK?$AAD?$AAE?$AAP?$AA_?$AAN?$AAE?$AAO?$AAN?$AA?$AA@|
	DCD	0x20
	DCD	0x483073c8
	DCD	0x0
	DCD	|??_C@_1CC@LCEDCBK@?$AAP?$AAM?$AA_?$AAP?$AAW?$AAS?$AAT?$AAC?$AAT?$AAR?$AAL?$AA_?$AAN?$AAE?$AAO?$AAN?$AA?$AA@|
	DCD	0x20
	DCD	0x483073e0
	DCD	0x0
	DCD	|??_C@_1BO@FMNCDJII@?$AAP?$AAM?$AA_?$AAP?$AAW?$AAS?$AAT?$AAS?$AAT?$AA_?$AAN?$AAE?$AAO?$AAN?$AA?$AA@|
	DCD	0x20
	DCD	0x483073e4
	DCD	0x0
	DCD	|??_C@_1CE@PAIDKKJJ@?$AAP?$AAM?$AA_?$AAP?$AAR?$AAE?$AAP?$AAW?$AAS?$AAT?$AAS?$AAT?$AA_?$AAN?$AAE?$AAO?$AAN?$AA?$AA@|
	DCD	0x20
	DCD	0x483073e8
	DCD	0x0
	DCD	|??_C@_1BI@BEADJOPF@?$AAU?$AAS?$AAB?$AAH?$AAO?$AAS?$AAT?$AA_?$AAP?$AAR?$AAM?$AA?$AA@|
	DCD	0x0
	DCD	0x0
	DCD	0x0
	DCD	|??_C@_1CC@ELENAOBE@?$AAR?$AAM?$AA_?$AAR?$AAS?$AAT?$AAS?$AAT?$AA_?$AAU?$AAS?$AAB?$AAH?$AAO?$AAS?$AAT?$AA?$AA@|
	DCD	0x20
	DCD	0x48307458
	DCD	0x0
	DCD	|??_C@_1CA@EPJOENIO@?$AAP?$AAM?$AA_?$AAW?$AAK?$AAE?$AAN?$AA_?$AAU?$AAS?$AAB?$AAH?$AAO?$AAS?$AAT?$AA?$AA@|
	DCD	0x20
	DCD	0x483074a0
	DCD	0x0
	DCD	|??_C@_1CK@KEHDDHL@?$AAP?$AAM?$AA_?$AAM?$AAP?$AAU?$AAG?$AAR?$AAP?$AAS?$AAE?$AAL?$AA_?$AAU?$AAS?$AAB?$AAH?$AAO?$AAS?$AAT?$AA?$AA@|
	DCD	0x20
	DCD	0x483074a4
	DCD	0x0
	DCD	|??_C@_1CM@CGFHEIFF@?$AAP?$AAM?$AA_?$AAI?$AAV?$AAA?$AA2?$AAG?$AAR?$AAP?$AAS?$AAE?$AAL?$AA_?$AAU?$AAS?$AAB?$AAH?$AAO?$AAS?$AAT?$AA?$AA@|
	DCD	0x20
	DCD	0x483074a8
	DCD	0x0
	DCD	|??_C@_1CA@CDELFGFE@?$AAP?$AAM?$AA_?$AAW?$AAK?$AAS?$AAT?$AA_?$AAU?$AAS?$AAB?$AAH?$AAO?$AAS?$AAT?$AA?$AA@|
	DCD	0x20
	DCD	0x483074b0
	DCD	0x0
	DCD	|??_C@_1CC@BANAFHHA@?$AAP?$AAM?$AA_?$AAW?$AAK?$AAD?$AAE?$AAP?$AA_?$AAU?$AAS?$AAB?$AAH?$AAO?$AAS?$AAT?$AA?$AA@|
	DCD	0x20
	DCD	0x483074c8
	DCD	0x0
	DCD	|??_C@_1CI@NFFMDMCO@?$AAP?$AAM?$AA_?$AAP?$AAW?$AAS?$AAT?$AAC?$AAT?$AAR?$AAL?$AA_?$AAU?$AAS?$AAB?$AAH?$AAO?$AAS?$AAT?$AA?$AA@|
	DCD	0x20
	DCD	0x483074e0
	DCD	0x0
	DCD	|??_C@_1CE@DINMMLDJ@?$AAP?$AAM?$AA_?$AAP?$AAW?$AAS?$AAT?$AAS?$AAT?$AA_?$AAU?$AAS?$AAB?$AAH?$AAO?$AAS?$AAT?$AA?$AA@|
	DCD	0x20
	DCD	0x483074e4
	DCD	0x0
	DCD	|??_C@_1CK@MFCDILAE@?$AAP?$AAM?$AA_?$AAP?$AAR?$AAE?$AAP?$AAW?$AAS?$AAT?$AAS?$AAT?$AA_?$AAU?$AAS?$AAB?$AAH?$AAO?$AAS?$AAT?$AA?$AA@|
	DCD	0x20
	DCD	0x483074e8
	DCD	0x0
	DCD	0x0
	DCD	0x0
	DCD	0x0
	DCD	0x0

  00000			 AREA	 |.rdata|, DATA, READONLY
|EdbgVendorIds| DCW 0x0
	DCW	0x0
	DCD	0x4033
	DCB	0x1
	DCB	"AD", 0x0
	DCW	0x1050
	DCW	0x940
	DCD	0x4005
	DCB	0x1
	DCB	"LS", 0x0
	DCW	0x1050
	DCW	0x940
	DCD	0x2078
	DCB	0x1
	DCB	"LS", 0x0
	DCW	0x10ec
	DCW	0x8029
	DCD	0xc0f0
	DCB	0x1
	DCB	"KS", 0x0
	DCW	0x10ec
	DCW	0x8129
	DCD	0x0
	DCB	0x4
	DCB	"RT", 0x0
	DCW	0x10ec
	DCW	0x8139
	DCD	0x900b
	DCB	0x4
	DCB	"RT", 0x0
	DCW	0x10ec
	DCW	0x8139
	DCD	0xd0c9
	DCB	0x4
	DCB	"RT", 0x0
	DCW	0x10ec
	DCW	0x8139
	DCD	0xe04c
	DCB	0x4
	DCB	"RT", 0x0
	DCW	0x1186
	DCW	0x1300
	DCD	0x50ba
	DCB	0x4
	DCB	"DL", 0x0
	DCW	0x100b
	DCW	0x20
	DCD	0xa0cc
	DCB	0x5
	DCB	"NG", 0x0
	DCW	0x10b7
	DCW	0x9050
	DCD	0x6008
	DCB	0x6
	DCB	"3C", 0x0
	DCW	0x10b7
	DCW	0x9200
	DCD	0x476
	DCB	0x6
	DCB	"3C", 0x0
	EXPORT	|Lock|
	IMPORT	|EnterCriticalSection|
	IMPORT	|g_bSingleThreaded|
	IMPORT	|g_PrcmPostInit|
	IMPORT	|g_rgPrcmMutex|
; File c:\wince600\platform\common\src\soc\common_ti_v1\omap3530\oal\prcm\prcm_priv.h

  00000			 AREA	 |.pdata|, PDATA
|$T49334| DCD	|$LN6@Lock|
	DCD	0x40001101
; Function compile flags: /Ogspy

  00000			 AREA	 |.text|, CODE, ARM

  00000		 |Lock|	 PROC

; 266  : {

  00000		 |$LN6@Lock|
  00000	e52de004	 str         lr, [sp, #-4]!
  00004		 |$M49331|

; 267  :     if (g_PrcmPostInit && !g_bSingleThreaded) 

  00004	e59f3034	 ldr         r3, [pc, #0x34]
  00008	e5933000	 ldr         r3, [r3]
  0000c	e3530000	 cmp         r3, #0
  00010	0a000006	 beq         |$LN1@Lock|
  00014	e59f3020	 ldr         r3, [pc, #0x20]
  00018	e5933000	 ldr         r3, [r3]
  0001c	e3530000	 cmp         r3, #0

; 268  :         {
; 269  :         EnterCriticalSection(&g_rgPrcmMutex[mutexId]);

  00020	059f2010	 ldreq       r2, [pc, #0x10]
  00024	00803100	 addeq       r3, r0, r0, lsl #2
  00028	00820103	 addeq       r0, r2, r3, lsl #2
  0002c	0b000000	 bleq        EnterCriticalSection
  00030		 |$LN1@Lock|

; 270  :         }
; 271  : }

  00030	e49de004	 ldr         lr, [sp], #4
  00034	e12fff1e	 bx          lr
  00038		 |$LN7@Lock|
  00038		 |$LN8@Lock|
  00038	00000000	 DCD         |g_rgPrcmMutex|
  0003c		 |$LN9@Lock|
  0003c	00000000	 DCD         |g_bSingleThreaded|
  00040		 |$LN10@Lock|
  00040	00000000	 DCD         |g_PrcmPostInit|
  00044		 |$M49332|

			 ENDP  ; |Lock|

	EXPORT	|Unlock|
	IMPORT	|LeaveCriticalSection|

  00000			 AREA	 |.pdata|, PDATA
|$T49346| DCD	|$LN6@Unlock|
	DCD	0x40001101
; Function compile flags: /Ogspy

  00000			 AREA	 |.text|, CODE, ARM

  00000		 |Unlock| PROC

; 277  : {

  00000		 |$LN6@Unlock|
  00000	e52de004	 str         lr, [sp, #-4]!
  00004		 |$M49343|

; 278  :     if (g_PrcmPostInit && !g_bSingleThreaded)

  00004	e59f3034	 ldr         r3, [pc, #0x34]
  00008	e5933000	 ldr         r3, [r3]
  0000c	e3530000	 cmp         r3, #0
  00010	0a000006	 beq         |$LN1@Unlock|
  00014	e59f3020	 ldr         r3, [pc, #0x20]
  00018	e5933000	 ldr         r3, [r3]
  0001c	e3530000	 cmp         r3, #0

; 279  :         {
; 280  :         LeaveCriticalSection(&g_rgPrcmMutex[mutexId]);

  00020	059f2010	 ldreq       r2, [pc, #0x10]
  00024	00803100	 addeq       r3, r0, r0, lsl #2
  00028	00820103	 addeq       r0, r2, r3, lsl #2
  0002c	0b000000	 bleq        LeaveCriticalSection
  00030		 |$LN1@Unlock|

; 281  :         }
; 282  : }

  00030	e49de004	 ldr         lr, [sp], #4
  00034	e12fff1e	 bx          lr
  00038		 |$LN7@Unlock|
  00038		 |$LN8@Unlock|
  00038	00000000	 DCD         |g_rgPrcmMutex|
  0003c		 |$LN9@Unlock|
  0003c	00000000	 DCD         |g_bSingleThreaded|
  00040		 |$LN10@Unlock|
  00040	00000000	 DCD         |g_PrcmPostInit|
  00044		 |$M49344|

			 ENDP  ; |Unlock|

	EXPORT	|??_C@_1EE@LONBGGII@?$AA?9?$AA_?$AAC?$AAl?$AAo?$AAc?$AAk?$AAH?$AAw?$AAU?$AAp?$AAd?$AAa?$AAt?$AAe?$AAP?$AAa?$AAr?$AAe?$AAn?$AAt?$AAC?$AAl?$AAo?$AAc?$AAk?$AA?$CI?$AA?$CJ?$AA?$DN?$AA?$CF?$AAd?$AA?$AN@| [ DATA ] ; `string'
	EXPORT	|??_C@_1FC@MLOGNJBG@?$AA?$CL?$AA_?$AAC?$AAl?$AAo?$AAc?$AAk?$AAH?$AAw?$AAU?$AAp?$AAd?$AAa?$AAt?$AAe?$AAP?$AAa?$AAr?$AAe?$AAn?$AAt?$AAC?$AAl?$AAo?$AAc?$AAk?$AA?$CI?$AAc?$AAl?$AAo?$AAc?$AAk@| [ DATA ] ; `string'
	IMPORT	|g_pSysCtrlGenReg|
	IMPORT	|g_pPrcmRestore|
	IMPORT	|g_pPrcmCm|
	IMPORT	|NKDbgPrintfW|
; File c:\wince600\platform\common\src\soc\common_ti_v1\omap3530\oal\prcm\prcm_clock.c

  00000			 AREA	 |.pdata|, PDATA
|$T49407| DCD	|$LN163@ClockHwUpd|
	DCD	0x40022601

  00000			 AREA	 |.rdata|, DATA, READONLY
|??_C@_1EE@LONBGGII@?$AA?9?$AA_?$AAC?$AAl?$AAo?$AAc?$AAk?$AAH?$AAw?$AAU?$AAp?$AAd?$AAa?$AAt?$AAe?$AAP?$AAa?$AAr?$AAe?$AAn?$AAt?$AAC?$AAl?$AAo?$AAc?$AAk?$AA?$CI?$AA?$CJ?$AA?$DN?$AA?$CF?$AAd?$AA?$AN@| DCB "-"
	DCB	0x0, "_", 0x0, "C", 0x0, "l", 0x0, "o", 0x0, "c", 0x0, "k"
	DCB	0x0, "H", 0x0, "w", 0x0, "U", 0x0, "p", 0x0, "d", 0x0, "a"
	DCB	0x0, "t", 0x0, "e", 0x0, "P", 0x0, "a", 0x0, "r", 0x0, "e"
	DCB	0x0, "n", 0x0, "t", 0x0, "C", 0x0, "l", 0x0, "o", 0x0, "c"
	DCB	0x0, "k", 0x0, "(", 0x0, ")", 0x0, "=", 0x0, "%", 0x0, "d"
	DCB	0x0, 0xd, 0x0, 0xa, 0x0, 0x0, 0x0	; `string'

  00000			 AREA	 |.rdata|, DATA, READONLY
|??_C@_1FC@MLOGNJBG@?$AA?$CL?$AA_?$AAC?$AAl?$AAo?$AAc?$AAk?$AAH?$AAw?$AAU?$AAp?$AAd?$AAa?$AAt?$AAe?$AAP?$AAa?$AAr?$AAe?$AAn?$AAt?$AAC?$AAl?$AAo?$AAc?$AAk?$AA?$CI?$AAc?$AAl?$AAo?$AAc?$AAk@| DCB "+"
	DCB	0x0, "_", 0x0, "C", 0x0, "l", 0x0, "o", 0x0, "c", 0x0, "k"
	DCB	0x0, "H", 0x0, "w", 0x0, "U", 0x0, "p", 0x0, "d", 0x0, "a"
	DCB	0x0, "t", 0x0, "e", 0x0, "P", 0x0, "a", 0x0, "r", 0x0, "e"
	DCB	0x0, "n", 0x0, "t", 0x0, "C", 0x0, "l", 0x0, "o", 0x0, "c"
	DCB	0x0, "k", 0x0, "(", 0x0, "c", 0x0, "l", 0x0, "o", 0x0, "c"
	DCB	0x0, "k", 0x0, "I", 0x0, "d", 0x0, "=", 0x0, "%", 0x0, "d"
	DCB	0x0, ")", 0x0, 0xd, 0x0, 0xa, 0x0, 0x0, 0x0 ; `string'
; Function compile flags: /Ogspy

  00000			 AREA	 |.text|, CODE, ARM

  00000		 |_ClockHwUpdateParentClock| PROC

; 453  : {

  00000		 |$LN163@ClockHwUpd|
  00000	e92d4030	 stmdb       sp!, {r4, r5, lr}
  00004		 |$M49404|
  00004	e1a04000	 mov         r4, r0

; 454  :     UINT i;
; 455  :     UINT val;
; 456  :     BOOL rc = FALSE;
; 457  :     UINT parentClock;
; 458  :     SrcClockDivisorTable_t *pDivisors;
; 459  :     OALMSG(1, (L"+_ClockHwUpdateParentClock(clockId=%d)\r\n", clockId));

  00008	e59f0884	 ldr         r0, [pc, #0x884]
  0000c	e1a01004	 mov         r1, r4
  00010	e3a05000	 mov         r5, #0
  00014	eb000000	 bl          NKDbgPrintfW

; 460  : 
; 461  :     // quick check for valid source clock id's
; 462  :     if (clockId > kSOURCE_CLOCK_COUNT) goto cleanUp;

  00018	e354005a	 cmp         r4, #0x5A
  0001c	8a000211	 bhi         |$cleanUp$47080|

; 463  : 
; 464  :     // initialize local var.
; 465  :     pDivisors = s_SrcClockTable[clockId].pDivisors;

  00020	e59f0868	 ldr         r0, [pc, #0x868]
  00024	e0842104	 add         r2, r4, r4, lsl #2

; 466  :     parentClock = s_SrcClockTable[clockId].parentClk;
; 467  : 
; 468  :     switch (clockId)

  00028	e354004e	 cmp         r4, #0x4E
  0002c	e0803102	 add         r3, r0, r2, lsl #2
  00030	e593100c	 ldr         r1, [r3, #0xC]
  00034	e7902102	 ldr         r2, [r0, +r2, lsl #2]
  00038	8a000132	 bhi         |$LN130@ClockHwUpd|
  0003c	0a00011f	 beq         |$LN106@ClockHwUpd|
  00040	e3540048	 cmp         r4, #0x48
  00044	8a0000a9	 bhi         |$LN131@ClockHwUpd|
  00048	0a000084	 beq         |$LN38@ClockHwUpd|
  0004c	e3540007	 cmp         r4, #7
  00050	0a00007d	 beq         |$LN45@ClockHwUpd|
  00054	e3540008	 cmp         r4, #8
  00058	0a000071	 beq         |$LN46@ClockHwUpd|
  0005c	e3540038	 cmp         r4, #0x38
  00060	0a000062	 beq         |$LN44@ClockHwUpd|
  00064	e3540043	 cmp         r4, #0x43
  00068	9a0001fd	 bls         |$LN3@ClockHwUpd|
  0006c	e3540045	 cmp         r4, #0x45
  00070	9a00003b	 bls         |$LN32@ClockHwUpd|
  00074	e3540046	 cmp         r4, #0x46
  00078	0a00001d	 beq         |$LN52@ClockHwUpd|
  0007c	e3540047	 cmp         r4, #0x47
  00080	1a0001f7	 bne         |$LN3@ClockHwUpd|

; 656  :                     break;
; 657  : 
; 658  :                 default:
; 659  :                     goto cleanUp;
; 660  :                 }
; 661  :             break;
; 662  : 
; 663  :         case k48M_FCLK:                
; 664  :             // verify parent clock is valid
; 665  :             switch(parentClock)

  00084	e352000d	 cmp         r2, #0xD
  00088	0a00000d	 beq         |$LN54@ClockHwUpd|
  0008c	e3520021	 cmp         r2, #0x21
  00090	1a0001f4	 bne         |$cleanUp$47080|

; 666  :                 {
; 667  :                 case kCM_96M_FCLK:
; 668  :                     CLRREG32(&g_pPrcmCm->pOMAP_CLOCK_CONTROL_CM->CM_CLKSEL1_PLL, SOURCE_48M);

  00094	e59f37f0	 ldr         r3, [pc, #0x7F0]

; 669  :                     CLRREG32(&g_pPrcmRestore->CM_CLKSEL1_PLL, SOURCE_48M);

  00098	e59f17e8	 ldr         r1, [pc, #0x7E8]
  0009c	e5933000	 ldr         r3, [r3]
  000a0	e5932034	 ldr         r2, [r3, #0x34]
  000a4	e5923040	 ldr         r3, [r2, #0x40]
  000a8	e3c33008	 bic         r3, r3, #8
  000ac	e5823040	 str         r3, [r2, #0x40]
  000b0	e5912000	 ldr         r2, [r1]
  000b4	e5923018	 ldr         r3, [r2, #0x18]
  000b8	e3c33008	 bic         r3, r3, #8

; 674  :                     SETREG32(&g_pPrcmRestore->CM_CLKSEL1_PLL, SOURCE_48M);

  000bc	e5823018	 str         r3, [r2, #0x18]

; 675  :                     break;
; 676  : 
; 677  :                 default:
; 678  :                     goto cleanUp;
; 679  :                 }
; 680  :             break;

  000c0	ea0001e7	 b           |$LN3@ClockHwUpd|
  000c4		 |$LN54@ClockHwUpd|

; 670  :                     break;
; 671  : 
; 672  :                 case kSYS_ALTCLK:
; 673  :                     SETREG32(&g_pPrcmCm->pOMAP_CLOCK_CONTROL_CM->CM_CLKSEL1_PLL, SOURCE_48M);

  000c4	e59f37c0	 ldr         r3, [pc, #0x7C0]

; 674  :                     SETREG32(&g_pPrcmRestore->CM_CLKSEL1_PLL, SOURCE_48M);

  000c8	e59f17b8	 ldr         r1, [pc, #0x7B8]
  000cc	e5933000	 ldr         r3, [r3]
  000d0	e5932034	 ldr         r2, [r3, #0x34]
  000d4	e5923040	 ldr         r3, [r2, #0x40]
  000d8	e3833008	 orr         r3, r3, #8
  000dc	e5823040	 str         r3, [r2, #0x40]
  000e0	e5912000	 ldr         r2, [r1]
  000e4	e5923018	 ldr         r3, [r2, #0x18]
  000e8	e3833008	 orr         r3, r3, #8
  000ec	e5823018	 str         r3, [r2, #0x18]

; 675  :                     break;
; 676  : 
; 677  :                 default:
; 678  :                     goto cleanUp;
; 679  :                 }
; 680  :             break;

  000f0	ea0001db	 b           |$LN3@ClockHwUpd|
  000f4		 |$LN52@ClockHwUpd|

; 681  : 
; 682  :         case k96M_FCLK:
; 683  :             // verify parent clock is valid
; 684  :             switch(parentClock)

  000f4	e3520019	 cmp         r2, #0x19
  000f8	0a00000d	 beq         |$LN48@ClockHwUpd|
  000fc	e3520021	 cmp         r2, #0x21
  00100	1a0001d8	 bne         |$cleanUp$47080|

; 685  :                 {
; 686  :                 case kCM_96M_FCLK:
; 687  :                     CLRREG32(&g_pPrcmCm->pOMAP_CLOCK_CONTROL_CM->CM_CLKSEL1_PLL, SOURCE_96M);

  00104	e59f3780	 ldr         r3, [pc, #0x780]

; 688  :                     CLRREG32(&g_pPrcmRestore->CM_CLKSEL1_PLL, SOURCE_96M);

  00108	e59f1778	 ldr         r1, [pc, #0x778]
  0010c	e5933000	 ldr         r3, [r3]
  00110	e5932034	 ldr         r2, [r3, #0x34]
  00114	e5923040	 ldr         r3, [r2, #0x40]
  00118	e3c33040	 bic         r3, r3, #0x40
  0011c	e5823040	 str         r3, [r2, #0x40]
  00120	e5912000	 ldr         r2, [r1]
  00124	e5923018	 ldr         r3, [r2, #0x18]
  00128	e3c33040	 bic         r3, r3, #0x40
  0012c	e5823018	 str         r3, [r2, #0x18]
  00130	ea0001cb	 b           |$LN3@ClockHwUpd|
  00134		 |$LN48@ClockHwUpd|

; 689  :                     break;
; 690  : 
; 691  :                 case kCM_SYS_CLK:
; 692  :                     SETREG32(&g_pPrcmCm->pOMAP_CLOCK_CONTROL_CM->CM_CLKSEL1_PLL, SOURCE_96M);

  00134	e59f3750	 ldr         r3, [pc, #0x750]

; 693  :                     SETREG32(&g_pPrcmRestore->CM_CLKSEL1_PLL, SOURCE_96M);

  00138	e59f1748	 ldr         r1, [pc, #0x748]
  0013c	e5933000	 ldr         r3, [r3]
  00140	e5932034	 ldr         r2, [r3, #0x34]
  00144	e5923040	 ldr         r3, [r2, #0x40]
  00148	e3833040	 orr         r3, r3, #0x40
  0014c	e5823040	 str         r3, [r2, #0x40]
  00150	e5912000	 ldr         r2, [r1]
  00154	e5923018	 ldr         r3, [r2, #0x18]
  00158	e3833040	 orr         r3, r3, #0x40
  0015c	e5823018	 str         r3, [r2, #0x18]
  00160	ea0001bf	 b           |$LN3@ClockHwUpd|
  00164		 |$LN32@ClockHwUpd|

; 769  :                     break;
; 770  : 
; 771  :                 default:
; 772  :                     goto cleanUp;
; 773  :                 }
; 774  :             break;
; 775  : 
; 776  :         case kUSIM_FCLK:
; 777  :         case kCM_USIM_CLK:
; 778  :             // ignore if parent clock *is not* the CM_USIM_CLK
; 779  :             if (s_SrcClockTable[kUSIM_FCLK].parentClk == kCM_USIM_CLK)

  00164	e5903564	 ldr         r3, [r0, #0x564]
  00168	e3530044	 cmp         r3, #0x44
  0016c	1a000012	 bne         |$LN31@ClockHwUpd|

; 780  :                 {   
; 781  :                 // make sure divisor pointer points to kCM_USIM_CLK divisor;
; 782  :                 pDivisors = s_SrcClockTable[kCM_USIM_CLK].pDivisors;

  00170	e590e55c	 ldr         lr, [r0, #0x55C]

; 783  :                 
; 784  :                 // verify parent clock is valid
; 785  :                 for (i = 0; i < pDivisors->count; ++i)

  00174	e3a01000	 mov         r1, #0
  00178	e59e3000	 ldr         r3, [lr]
  0017c	e1b04003	 movs        r4, r3
  00180	0a0001b7	 beq         |$LN3@ClockHwUpd|

; 780  :                 {   
; 781  :                 // make sure divisor pointer points to kCM_USIM_CLK divisor;
; 782  :                 pDivisors = s_SrcClockTable[kCM_USIM_CLK].pDivisors;

  00184	e1a0000e	 mov         r0, lr
  00188		 |$LL30@ClockHwUpd|

; 786  :                     {
; 787  :                     if (parentClock == pDivisors->SourceClock[i].id)

  00188	e5903004	 ldr         r3, [r0, #4]
  0018c	e1520003	 cmp         r2, r3
  00190	0a000004	 beq         |$LN134@ClockHwUpd|
  00194	e2811001	 add         r1, r1, #1
  00198	e1510004	 cmp         r1, r4
  0019c	e2800008	 add         r0, r0, #8
  001a0	3afffff8	 bcc         |$LL30@ClockHwUpd|

; 735  :                 {
; 736  :                 if (parentClock == pDivisors->SourceClock[i].id)

  001a4	ea0001ae	 b           |$LN3@ClockHwUpd|
  001a8		 |$LN134@ClockHwUpd|

; 788  :                         {
; 789  :                         // format divider
; 790  :                         val = INREG32(&g_pPrcmCm->pOMAP_WKUP_CM->CM_CLKSEL_WKUP);

  001a8	e59f26dc	 ldr         r2, [pc, #0x6DC]

; 791  :                         val = (val & ~CLKSEL_USIMOCP_MASK);
; 792  :                         val |= CLKSEL_USIMOCP(pDivisors->SourceClock[i].divisor);

  001ac	e08e3181	 add         r3, lr, r1, lsl #3
  001b0	e5930008	 ldr         r0, [r3, #8]
  001b4	e5923000	 ldr         r3, [r2]

; 793  : 
; 794  :                         // write to hw
; 795  :                         OUTREG32(&g_pPrcmCm->pOMAP_WKUP_CM->CM_CLKSEL_WKUP, val);
; 796  :                         OUTREG32(&g_pPrcmRestore->CM_CLKSEL_WKUP, val);
; 797  :                         break;
; 798  :                         }
; 799  :                     }
; 800  :                 }
; 801  :             else

  001b8	ea000002	 b           |$LN146@ClockHwUpd|
  001bc		 |$LN31@ClockHwUpd|

; 802  :                 {
; 803  :                  // format divider
; 804  :                 val = INREG32(&g_pPrcmCm->pOMAP_WKUP_CM->CM_CLKSEL_WKUP);

  001bc	e59f36c8	 ldr         r3, [pc, #0x6C8]

; 805  :                 val = (val & ~CLKSEL_USIMOCP_MASK);
; 806  :                 val |= CLKSEL_USIMOCP(pDivisors->SourceClock[0].divisor);

  001c0	e5910008	 ldr         r0, [r1, #8]

; 807  : 
; 808  :                 // write to hw
; 809  :                 OUTREG32(&g_pPrcmCm->pOMAP_WKUP_CM->CM_CLKSEL_WKUP, val);
; 810  :                 OUTREG32(&g_pPrcmRestore->CM_CLKSEL_WKUP, val);

  001c4	e5933000	 ldr         r3, [r3]
  001c8		 |$LN146@ClockHwUpd|
  001c8	e5931000	 ldr         r1, [r3]
  001cc	e59fe6b4	 ldr         lr, [pc, #0x6B4]
  001d0	e5912040	 ldr         r2, [r1, #0x40]
  001d4	e0223180	 eor         r3, r2, r0, lsl #3
  001d8	e2033078	 and         r3, r3, #0x78
  001dc	e0232002	 eor         r2, r3, r2
  001e0	e5812040	 str         r2, [r1, #0x40]
  001e4	e59e3000	 ldr         r3, [lr]
  001e8	e583200c	 str         r2, [r3, #0xC]

; 811  :                 }
; 812  :             break;

  001ec	ea00019c	 b           |$LN3@ClockHwUpd|
  001f0		 |$LN44@ClockHwUpd|

; 720  : 
; 721  :         case kSSI_SSR_FCLK:
; 722  :             // format divider
; 723  :             val = INREG32(&g_pPrcmCm->pOMAP_CORE_CM->CM_CLKSEL_CORE);

  001f0	e59f3694	 ldr         r3, [pc, #0x694]

; 724  :             val = (val & ~CLKSEL_SSI_MASK);
; 725  :             val |= CLKSEL_SSI(pDivisors->SourceClock[0].divisor);

  001f4	e5910008	 ldr         r0, [r1, #8]

; 726  : 
; 727  :             // write to hw
; 728  :             OUTREG32(&g_pPrcmCm->pOMAP_CORE_CM->CM_CLKSEL_CORE, val);
; 729  :             OUTREG32(&g_pPrcmRestore->CM_CLKSEL_CORE, val);

  001f8	e59fe688	 ldr         lr, [pc, #0x688]
  001fc	e5933000	 ldr         r3, [r3]
  00200	e5931004	 ldr         r1, [r3, #4]
  00204	e5912040	 ldr         r2, [r1, #0x40]
  00208	e0223400	 eor         r3, r2, r0, lsl #8
  0020c	e2033c0f	 and         r3, r3, #0xF, 24
  00210	e0232002	 eor         r2, r3, r2
  00214	e5812040	 str         r2, [r1, #0x40]
  00218	e59e3000	 ldr         r3, [lr]
  0021c	e5832008	 str         r2, [r3, #8]

; 730  :             break;

  00220	ea00018f	 b           |$LN3@ClockHwUpd|
  00224		 |$LN46@ClockHwUpd|

; 694  :                     break;
; 695  : 
; 696  :                 default:
; 697  :                     goto cleanUp;
; 698  :                 }
; 699  :             break;
; 700  : 
; 701  :         case kCAM_MCLK:
; 702  :             // format divider
; 703  :             val = INREG32(&g_pPrcmCm->pOMAP_CAM_CM->CM_CLKSEL_CAM);

  00224	e59f3660	 ldr         r3, [pc, #0x660]

; 704  :             val = (val & ~CLKSEL_CAM_MASK);
; 705  :             val |= CLKSEL_CAM(pDivisors->SourceClock[0].divisor);
; 706  : 
; 707  :             // write to hw
; 708  :             OUTREG32(&g_pPrcmCm->pOMAP_CAM_CM->CM_CLKSEL_CAM, val);

  00228	e5912008	 ldr         r2, [r1, #8]
  0022c	e5933000	 ldr         r3, [r3]
  00230	e5931024	 ldr         r1, [r3, #0x24]
  00234		 |$LN147@ClockHwUpd|
  00234	e5913040	 ldr         r3, [r1, #0x40]
  00238	e202201f	 and         r2, r2, #0x1F
  0023c	e3c3301f	 bic         r3, r3, #0x1F
  00240	e1833002	 orr         r3, r3, r2
  00244	e5813040	 str         r3, [r1, #0x40]

; 709  :             break;

  00248	ea000185	 b           |$LN3@ClockHwUpd|
  0024c		 |$LN45@ClockHwUpd|

; 710  : 
; 711  :         case kDSS1_ALWON_FCLK:
; 712  :             // format divider
; 713  :             val = INREG32(&g_pPrcmCm->pOMAP_DSS_CM->CM_CLKSEL_DSS);

  0024c	e59f3638	 ldr         r3, [pc, #0x638]

; 714  :             val = (val & ~CLKSEL_DSS1_MASK);
; 715  :             val |= CLKSEL_DSS1(pDivisors->SourceClock[0].divisor);
; 716  : 
; 717  :             // write to hw
; 718  :             OUTREG32(&g_pPrcmCm->pOMAP_DSS_CM->CM_CLKSEL_DSS, val);

  00250	e5912008	 ldr         r2, [r1, #8]
  00254	e5933000	 ldr         r3, [r3]
  00258	e5931018	 ldr         r1, [r3, #0x18]

; 719  :             break;

  0025c	eafffff4	 b           |$LN147@ClockHwUpd|
  00260		 |$LN38@ClockHwUpd|

; 745  :                     break;
; 746  :                     }
; 747  :                 }
; 748  :             break;
; 749  : 
; 750  :         case k54M_FCLK:
; 751  :             switch (parentClock)

  00260	e3520006	 cmp         r2, #6
  00264	0a00000d	 beq         |$LN35@ClockHwUpd|
  00268	e352000d	 cmp         r2, #0xD
  0026c	1a00017d	 bne         |$cleanUp$47080|

; 763  :                     break;
; 764  : 
; 765  :                 case kSYS_ALTCLK:
; 766  :                     // write to hw
; 767  :                     SETREG32(&g_pPrcmCm->pOMAP_CLOCK_CONTROL_CM->CM_CLKSEL1_PLL, SOURCE_54M);

  00270	e59f3614	 ldr         r3, [pc, #0x614]

; 768  :                     SETREG32(&g_pPrcmRestore->CM_CLKSEL1_PLL, SOURCE_54M);

  00274	e59f160c	 ldr         r1, [pc, #0x60C]
  00278	e5933000	 ldr         r3, [r3]
  0027c	e5932034	 ldr         r2, [r3, #0x34]
  00280	e5923040	 ldr         r3, [r2, #0x40]
  00284	e3833020	 orr         r3, r3, #0x20
  00288	e5823040	 str         r3, [r2, #0x40]
  0028c	e5912000	 ldr         r2, [r1]
  00290	e5923018	 ldr         r3, [r2, #0x18]
  00294	e3833020	 orr         r3, r3, #0x20
  00298	e5823018	 str         r3, [r2, #0x18]
  0029c	ea000170	 b           |$LN3@ClockHwUpd|
  002a0		 |$LN35@ClockHwUpd|

; 752  :                 {
; 753  :                 case kDPLL4_M3X2_CLK:
; 754  :                     // format divider
; 755  :                     val = INREG32(&g_pPrcmCm->pOMAP_DSS_CM->CM_CLKSEL_DSS);

  002a0	e59fe5e4	 ldr         lr, [pc, #0x5E4]

; 756  :                     val = (val & ~CLKSEL_TV_MASK);
; 757  :                     val |= CLKSEL_TV(pDivisors->SourceClock[0].divisor);
; 758  : 
; 759  :                     // write to hw
; 760  :                     OUTREG32(&g_pPrcmCm->pOMAP_DSS_CM->CM_CLKSEL_DSS, val);

  002a4	e5910008	 ldr         r0, [r1, #8]

; 761  :                     CLRREG32(&g_pPrcmCm->pOMAP_CLOCK_CONTROL_CM->CM_CLKSEL1_PLL, SOURCE_54M);
; 762  :                     CLRREG32(&g_pPrcmRestore->CM_CLKSEL1_PLL, SOURCE_54M);

  002a8	e59f45d8	 ldr         r4, [pc, #0x5D8]
  002ac	e59e3000	 ldr         r3, [lr]
  002b0	e5931018	 ldr         r1, [r3, #0x18]
  002b4	e5912040	 ldr         r2, [r1, #0x40]
  002b8	e0223400	 eor         r3, r2, r0, lsl #8
  002bc	e2033c1f	 and         r3, r3, #0x1F, 24
  002c0	e0233002	 eor         r3, r3, r2
  002c4	e5813040	 str         r3, [r1, #0x40]
  002c8	e59e3000	 ldr         r3, [lr]
  002cc	e5932034	 ldr         r2, [r3, #0x34]
  002d0	e5923040	 ldr         r3, [r2, #0x40]
  002d4	e3c33020	 bic         r3, r3, #0x20
  002d8	e5823040	 str         r3, [r2, #0x40]
  002dc	e5942000	 ldr         r2, [r4]
  002e0	e5923018	 ldr         r3, [r2, #0x18]
  002e4	e3c33020	 bic         r3, r3, #0x20
  002e8	e5823018	 str         r3, [r2, #0x18]
  002ec	ea00015c	 b           |$LN3@ClockHwUpd|
  002f0		 |$LN131@ClockHwUpd|

; 466  :     parentClock = s_SrcClockTable[clockId].parentClk;
; 467  : 
; 468  :     switch (clockId)

  002f0	e3540049	 cmp         r4, #0x49
  002f4	0a000059	 beq         |$LN43@ClockHwUpd|
  002f8	e354004a	 cmp         r4, #0x4A
  002fc	0a00003b	 beq         |$LN76@ClockHwUpd|
  00300	e354004b	 cmp         r4, #0x4B
  00304	0a000027	 beq         |$LN124@ClockHwUpd|
  00308	e354004c	 cmp         r4, #0x4C
  0030c	0a000013	 beq         |$LN118@ClockHwUpd|
  00310	e354004d	 cmp         r4, #0x4D
  00314	1a000152	 bne         |$LN3@ClockHwUpd|

; 497  :                     break;
; 498  : 
; 499  :                 default:
; 500  :                     goto cleanUp;
; 501  :                 }
; 502  :             break;
; 503  : 
; 504  :         case kGPT4_ALWON_FCLK:
; 505  :             // verify parent clock is valid
; 506  :             switch(parentClock)

  00318	e352000b	 cmp         r2, #0xB
  0031c	0a000008	 beq         |$LN108@ClockHwUpd|
  00320	e352000c	 cmp         r2, #0xC
  00324	1a00014f	 bne         |$cleanUp$47080|

; 507  :                 {
; 508  :                 case kSYS_CLK:
; 509  :                     SETREG32(&g_pPrcmCm->pOMAP_PER_CM->CM_CLKSEL_PER, CLKSEL_GPT4);

  00328	e59f355c	 ldr         r3, [pc, #0x55C]
  0032c	e5933000	 ldr         r3, [r3]
  00330	e5932008	 ldr         r2, [r3, #8]
  00334	e5923040	 ldr         r3, [r2, #0x40]
  00338	e3833004	 orr         r3, r3, #4
  0033c	e5823040	 str         r3, [r2, #0x40]
  00340	ea000147	 b           |$LN3@ClockHwUpd|
  00344		 |$LN108@ClockHwUpd|

; 510  :                     break;
; 511  : 
; 512  :                 case k32K_FCLK:
; 513  :                     CLRREG32(&g_pPrcmCm->pOMAP_PER_CM->CM_CLKSEL_PER, CLKSEL_GPT4);

  00344	e59f3540	 ldr         r3, [pc, #0x540]
  00348	e5933000	 ldr         r3, [r3]
  0034c	e5932008	 ldr         r2, [r3, #8]
  00350	e5923040	 ldr         r3, [r2, #0x40]
  00354	e3c33004	 bic         r3, r3, #4
  00358	e5823040	 str         r3, [r2, #0x40]
  0035c	ea000140	 b           |$LN3@ClockHwUpd|
  00360		 |$LN118@ClockHwUpd|

; 486  : 
; 487  :         case kGPT3_ALWON_FCLK:
; 488  :             // verify parent clock is valid
; 489  :             switch(parentClock)

  00360	e352000b	 cmp         r2, #0xB
  00364	0a000008	 beq         |$LN114@ClockHwUpd|
  00368	e352000c	 cmp         r2, #0xC
  0036c	1a00013d	 bne         |$cleanUp$47080|

; 490  :                 {
; 491  :                 case kSYS_CLK:
; 492  :                     SETREG32(&g_pPrcmCm->pOMAP_PER_CM->CM_CLKSEL_PER, CLKSEL_GPT3);

  00370	e59f3514	 ldr         r3, [pc, #0x514]
  00374	e5933000	 ldr         r3, [r3]
  00378	e5932008	 ldr         r2, [r3, #8]
  0037c	e5923040	 ldr         r3, [r2, #0x40]
  00380	e3833002	 orr         r3, r3, #2
  00384	e5823040	 str         r3, [r2, #0x40]
  00388	ea000135	 b           |$LN3@ClockHwUpd|
  0038c		 |$LN114@ClockHwUpd|

; 493  :                     break;
; 494  : 
; 495  :                 case k32K_FCLK:
; 496  :                     CLRREG32(&g_pPrcmCm->pOMAP_PER_CM->CM_CLKSEL_PER, CLKSEL_GPT3);

  0038c	e59f34f8	 ldr         r3, [pc, #0x4F8]
  00390	e5933000	 ldr         r3, [r3]
  00394	e5932008	 ldr         r2, [r3, #8]
  00398	e5923040	 ldr         r3, [r2, #0x40]
  0039c	e3c33002	 bic         r3, r3, #2
  003a0	e5823040	 str         r3, [r2, #0x40]
  003a4	ea00012e	 b           |$LN3@ClockHwUpd|
  003a8		 |$LN124@ClockHwUpd|

; 469  :         {
; 470  :         case kGPT2_ALWON_FCLK:
; 471  :             // verify parent clock is valid
; 472  :             switch(parentClock)

  003a8	e352000b	 cmp         r2, #0xB
  003ac	0a000008	 beq         |$LN120@ClockHwUpd|
  003b0	e352000c	 cmp         r2, #0xC
  003b4	1a00012b	 bne         |$cleanUp$47080|

; 473  :                 {
; 474  :                 case kSYS_CLK:
; 475  :                     SETREG32(&g_pPrcmCm->pOMAP_PER_CM->CM_CLKSEL_PER, CLKSEL_GPT2);

  003b8	e59f34cc	 ldr         r3, [pc, #0x4CC]
  003bc	e5933000	 ldr         r3, [r3]
  003c0	e5932008	 ldr         r2, [r3, #8]
  003c4	e5923040	 ldr         r3, [r2, #0x40]
  003c8	e3833001	 orr         r3, r3, #1

; 476  :                     break;
; 477  : 
; 478  :                 case k32K_FCLK:
; 479  :                     CLRREG32(&g_pPrcmCm->pOMAP_PER_CM->CM_CLKSEL_PER, CLKSEL_GPT2);

  003cc	e5823040	 str         r3, [r2, #0x40]

; 480  :                     break;
; 481  : 
; 482  :                 default:
; 483  :                     goto cleanUp;
; 484  :                 }
; 485  :             break;

  003d0	ea000123	 b           |$LN3@ClockHwUpd|
  003d4		 |$LN120@ClockHwUpd|

; 476  :                     break;
; 477  : 
; 478  :                 case k32K_FCLK:
; 479  :                     CLRREG32(&g_pPrcmCm->pOMAP_PER_CM->CM_CLKSEL_PER, CLKSEL_GPT2);

  003d4	e59f34b0	 ldr         r3, [pc, #0x4B0]
  003d8	e5933000	 ldr         r3, [r3]
  003dc	e5932008	 ldr         r2, [r3, #8]
  003e0	e5923040	 ldr         r3, [r2, #0x40]
  003e4	e3c33001	 bic         r3, r3, #1
  003e8	e5823040	 str         r3, [r2, #0x40]

; 480  :                     break;
; 481  : 
; 482  :                 default:
; 483  :                     goto cleanUp;
; 484  :                 }
; 485  :             break;

  003ec	ea00011c	 b           |$LN3@ClockHwUpd|
  003f0		 |$LN76@ClockHwUpd|

; 599  :                     break;
; 600  : 
; 601  :                 default:
; 602  :                     goto cleanUp;
; 603  :                 }
; 604  :             break;
; 605  :             
; 606  :         case kGPT1_FCLK:
; 607  :             // verify parent clock is valid
; 608  :             switch(parentClock)

  003f0	e352000b	 cmp         r2, #0xB
  003f4	0a00000d	 beq         |$LN72@ClockHwUpd|
  003f8	e352000c	 cmp         r2, #0xC
  003fc	1a000119	 bne         |$cleanUp$47080|

; 609  :                 {
; 610  :                 case kSYS_CLK:
; 611  :                     SETREG32(&g_pPrcmCm->pOMAP_WKUP_CM->CM_CLKSEL_WKUP, CLKSEL_GPT1);

  00400	e59f3484	 ldr         r3, [pc, #0x484]

; 612  :                     SETREG32(&g_pPrcmRestore->CM_CLKSEL_WKUP, CLKSEL_GPT1);

  00404	e59f147c	 ldr         r1, [pc, #0x47C]
  00408	e5933000	 ldr         r3, [r3]
  0040c	e5932000	 ldr         r2, [r3]
  00410	e5923040	 ldr         r3, [r2, #0x40]
  00414	e3833001	 orr         r3, r3, #1
  00418	e5823040	 str         r3, [r2, #0x40]
  0041c	e5912000	 ldr         r2, [r1]
  00420	e592300c	 ldr         r3, [r2, #0xC]
  00424	e3833001	 orr         r3, r3, #1

; 617  :                     CLRREG32(&g_pPrcmRestore->CM_CLKSEL_WKUP, CLKSEL_GPT1);

  00428	e582300c	 str         r3, [r2, #0xC]

; 618  :                     break;
; 619  : 
; 620  :                 default:
; 621  :                     goto cleanUp;
; 622  :                 }
; 623  :             break;

  0042c	ea00010c	 b           |$LN3@ClockHwUpd|
  00430		 |$LN72@ClockHwUpd|

; 613  :                     break;
; 614  : 
; 615  :                 case k32K_FCLK:
; 616  :                     CLRREG32(&g_pPrcmCm->pOMAP_WKUP_CM->CM_CLKSEL_WKUP, CLKSEL_GPT1);

  00430	e59f3454	 ldr         r3, [pc, #0x454]

; 617  :                     CLRREG32(&g_pPrcmRestore->CM_CLKSEL_WKUP, CLKSEL_GPT1);

  00434	e59f144c	 ldr         r1, [pc, #0x44C]
  00438	e5933000	 ldr         r3, [r3]
  0043c	e5932000	 ldr         r2, [r3]
  00440	e5923040	 ldr         r3, [r2, #0x40]
  00444	e3c33001	 bic         r3, r3, #1
  00448	e5823040	 str         r3, [r2, #0x40]
  0044c	e5912000	 ldr         r2, [r1]
  00450	e592300c	 ldr         r3, [r2, #0xC]
  00454	e3c33001	 bic         r3, r3, #1
  00458	e582300c	 str         r3, [r2, #0xC]

; 618  :                     break;
; 619  : 
; 620  :                 default:
; 621  :                     goto cleanUp;
; 622  :                 }
; 623  :             break;

  0045c	ea000100	 b           |$LN3@ClockHwUpd|
  00460		 |$LN43@ClockHwUpd|

; 731  : 
; 732  :         case kSGX_FCLK:
; 733  :             // verify parent clock is valid            
; 734  :             for (i = 0; i < pDivisors->count; ++i)

  00460	e5913000	 ldr         r3, [r1]
  00464	e3a00000	 mov         r0, #0
  00468	e1b04003	 movs        r4, r3
  0046c	0a0000fc	 beq         |$LN3@ClockHwUpd|
  00470	e1a0e001	 mov         lr, r1
  00474		 |$LL42@ClockHwUpd|

; 735  :                 {
; 736  :                 if (parentClock == pDivisors->SourceClock[i].id)

  00474	e59e3004	 ldr         r3, [lr, #4]
  00478	e1520003	 cmp         r2, r3
  0047c	0a000004	 beq         |$LN135@ClockHwUpd|
  00480	e2800001	 add         r0, r0, #1
  00484	e1500004	 cmp         r0, r4
  00488	e28ee008	 add         lr, lr, #8
  0048c	3afffff8	 bcc         |$LL42@ClockHwUpd|
  00490	ea0000f3	 b           |$LN3@ClockHwUpd|
  00494		 |$LN135@ClockHwUpd|

; 737  :                     {
; 738  :                     // format divider
; 739  :                     val = INREG32(&g_pPrcmCm->pOMAP_SGX_CM->CM_CLKSEL_SGX);

  00494	e59f23f0	 ldr         r2, [pc, #0x3F0]

; 740  :                     val = (val & ~CLKSEL_SGX_MASK);
; 741  :                     val |= CLKSEL_SGX(pDivisors->SourceClock[i].divisor);
; 742  : 
; 743  :                     // write to hw
; 744  :                     OUTREG32(&g_pPrcmCm->pOMAP_SGX_CM->CM_CLKSEL_SGX, val);

  00498	e0813180	 add         r3, r1, r0, lsl #3
  0049c	e5933008	 ldr         r3, [r3, #8]
  004a0	e5922000	 ldr         r2, [r2]
  004a4	e2031007	 and         r1, r3, #7
  004a8	e5922028	 ldr         r2, [r2, #0x28]
  004ac	e5923040	 ldr         r3, [r2, #0x40]
  004b0	e3c33007	 bic         r3, r3, #7
  004b4	e1833001	 orr         r3, r3, r1
  004b8	e5823040	 str         r3, [r2, #0x40]
  004bc	ea0000e8	 b           |$LN3@ClockHwUpd|
  004c0		 |$LN106@ClockHwUpd|

; 514  :                     break;
; 515  : 
; 516  :                 default:
; 517  :                     goto cleanUp;
; 518  :                 }
; 519  :             break;
; 520  :             
; 521  :         case kGPT5_ALWON_FCLK:
; 522  :             // verify parent clock is valid
; 523  :             switch(parentClock)

  004c0	e352000b	 cmp         r2, #0xB
  004c4	0a000008	 beq         |$LN102@ClockHwUpd|
  004c8	e352000c	 cmp         r2, #0xC
  004cc	1a0000e5	 bne         |$cleanUp$47080|

; 524  :                 {
; 525  :                 case kSYS_CLK:
; 526  :                     SETREG32(&g_pPrcmCm->pOMAP_PER_CM->CM_CLKSEL_PER, CLKSEL_GPT5);

  004d0	e59f33b4	 ldr         r3, [pc, #0x3B4]
  004d4	e5933000	 ldr         r3, [r3]
  004d8	e5932008	 ldr         r2, [r3, #8]
  004dc	e5923040	 ldr         r3, [r2, #0x40]
  004e0	e3833008	 orr         r3, r3, #8
  004e4	e5823040	 str         r3, [r2, #0x40]
  004e8	ea0000dd	 b           |$LN3@ClockHwUpd|
  004ec		 |$LN102@ClockHwUpd|

; 527  :                     break;
; 528  : 
; 529  :                 case k32K_FCLK:
; 530  :                     CLRREG32(&g_pPrcmCm->pOMAP_PER_CM->CM_CLKSEL_PER, CLKSEL_GPT5);

  004ec	e59f3398	 ldr         r3, [pc, #0x398]
  004f0	e5933000	 ldr         r3, [r3]
  004f4	e5932008	 ldr         r2, [r3, #8]
  004f8	e5923040	 ldr         r3, [r2, #0x40]
  004fc	e3c33008	 bic         r3, r3, #8
  00500	e5823040	 str         r3, [r2, #0x40]
  00504	ea0000d6	 b           |$LN3@ClockHwUpd|
  00508		 |$LN130@ClockHwUpd|

; 466  :     parentClock = s_SrcClockTable[clockId].parentClk;
; 467  : 
; 468  :     switch (clockId)

  00508	e244104f	 sub         r1, r4, #0x4F
  0050c	e351000a	 cmp         r1, #0xA
  00510	8a0000d3	 bhi         |$LN3@ClockHwUpd|
  00514	e1a03081	 mov         r3, r1, lsl #1
  00518	e083300f	 add         r3, r3, pc
  0051c	e1d330b4	 ldrh        r3, [r3, #4]
  00520	e08ff003	 add         pc, pc, r3
  00524		 |$LN149@ClockHwUpd|
  00524		 |$LN148@ClockHwUpd|
  00524		 |$LN150@ClockHwUpd|
  00524	0014		 DCW         0x14
  00526		 |$LN151@ClockHwUpd|
  00526	005c		 DCW         0x5c
  00528		 |$LN152@ClockHwUpd|
  00528	00a4		 DCW         0xa4
  0052a		 |$LN153@ClockHwUpd|
  0052a	00ec		 DCW         0xec
  0052c		 |$LN154@ClockHwUpd|
  0052c	0134		 DCW         0x134
  0052e		 |$LN155@ClockHwUpd|
  0052e	01a4		 DCW         0x1a4
  00530		 |$LN156@ClockHwUpd|
  00530	0214		 DCW         0x214
  00532		 |$LN157@ClockHwUpd|
  00532	0254		 DCW         0x254
  00534		 |$LN158@ClockHwUpd|
  00534	0294		 DCW         0x294
  00536		 |$LN159@ClockHwUpd|
  00536	02cc		 DCW         0x2cc
  00538		 |$LN160@ClockHwUpd|
  00538	0304		 DCW         0x304
  0053a		 |$LN171@ClockHwUpd|

; 899  :     return rc;
; 900  : }

  0053a	0304		 DCW         0x304
  0053c		 |$LN100@ClockHwUpd|

; 531  :                     break;
; 532  : 
; 533  :                 default:
; 534  :                     goto cleanUp;
; 535  :                 }
; 536  :             break;
; 537  :             
; 538  :         case kGPT6_ALWON_FCLK:
; 539  :             // verify parent clock is valid
; 540  :             switch(parentClock)

  0053c	e352000b	 cmp         r2, #0xB
  00540	0a000008	 beq         |$LN96@ClockHwUpd|
  00544	e352000c	 cmp         r2, #0xC
  00548	1a0000c6	 bne         |$cleanUp$47080|

; 541  :                 {
; 542  :                 case kSYS_CLK:
; 543  :                     SETREG32(&g_pPrcmCm->pOMAP_PER_CM->CM_CLKSEL_PER, CLKSEL_GPT6);

  0054c	e59f3338	 ldr         r3, [pc, #0x338]
  00550	e5933000	 ldr         r3, [r3]
  00554	e5932008	 ldr         r2, [r3, #8]
  00558	e5923040	 ldr         r3, [r2, #0x40]
  0055c	e3833010	 orr         r3, r3, #0x10
  00560	e5823040	 str         r3, [r2, #0x40]
  00564	ea0000be	 b           |$LN3@ClockHwUpd|
  00568		 |$LN96@ClockHwUpd|

; 544  :                     break;
; 545  : 
; 546  :                 case k32K_FCLK:
; 547  :                     CLRREG32(&g_pPrcmCm->pOMAP_PER_CM->CM_CLKSEL_PER, CLKSEL_GPT6);

  00568	e59f331c	 ldr         r3, [pc, #0x31C]
  0056c	e5933000	 ldr         r3, [r3]
  00570	e5932008	 ldr         r2, [r3, #8]
  00574	e5923040	 ldr         r3, [r2, #0x40]
  00578	e3c33010	 bic         r3, r3, #0x10
  0057c	e5823040	 str         r3, [r2, #0x40]
  00580	ea0000b7	 b           |$LN3@ClockHwUpd|
  00584		 |$LN94@ClockHwUpd|

; 548  :                     break;
; 549  : 
; 550  :                 default:
; 551  :                     goto cleanUp;
; 552  :                 }
; 553  :             break;
; 554  :             
; 555  :         case kGPT7_ALWON_FCLK:
; 556  :             // verify parent clock is valid
; 557  :             switch(parentClock)

  00584	e352000b	 cmp         r2, #0xB
  00588	0a000008	 beq         |$LN90@ClockHwUpd|
  0058c	e352000c	 cmp         r2, #0xC
  00590	1a0000b4	 bne         |$cleanUp$47080|

; 558  :                 {
; 559  :                 case kSYS_CLK:
; 560  :                     SETREG32(&g_pPrcmCm->pOMAP_PER_CM->CM_CLKSEL_PER, CLKSEL_GPT7);

  00594	e59f32f0	 ldr         r3, [pc, #0x2F0]
  00598	e5933000	 ldr         r3, [r3]
  0059c	e5932008	 ldr         r2, [r3, #8]
  005a0	e5923040	 ldr         r3, [r2, #0x40]
  005a4	e3833020	 orr         r3, r3, #0x20
  005a8	e5823040	 str         r3, [r2, #0x40]
  005ac	ea0000ac	 b           |$LN3@ClockHwUpd|
  005b0		 |$LN90@ClockHwUpd|

; 561  :                     break;
; 562  : 
; 563  :                 case k32K_FCLK:
; 564  :                     CLRREG32(&g_pPrcmCm->pOMAP_PER_CM->CM_CLKSEL_PER, CLKSEL_GPT7);

  005b0	e59f32d4	 ldr         r3, [pc, #0x2D4]
  005b4	e5933000	 ldr         r3, [r3]
  005b8	e5932008	 ldr         r2, [r3, #8]
  005bc	e5923040	 ldr         r3, [r2, #0x40]
  005c0	e3c33020	 bic         r3, r3, #0x20
  005c4	e5823040	 str         r3, [r2, #0x40]
  005c8	ea0000a5	 b           |$LN3@ClockHwUpd|
  005cc		 |$LN88@ClockHwUpd|

; 565  :                     break;
; 566  : 
; 567  :                 default:
; 568  :                     goto cleanUp;
; 569  :                 }
; 570  :             break;
; 571  :             
; 572  :         case kGPT8_ALWON_FCLK:
; 573  :             // verify parent clock is valid
; 574  :             switch(parentClock)

  005cc	e352000b	 cmp         r2, #0xB
  005d0	0a000008	 beq         |$LN84@ClockHwUpd|
  005d4	e352000c	 cmp         r2, #0xC
  005d8	1a0000a2	 bne         |$cleanUp$47080|

; 575  :                 {
; 576  :                 case kSYS_CLK:
; 577  :                     SETREG32(&g_pPrcmCm->pOMAP_PER_CM->CM_CLKSEL_PER, CLKSEL_GPT8);

  005dc	e59f32a8	 ldr         r3, [pc, #0x2A8]
  005e0	e5933000	 ldr         r3, [r3]
  005e4	e5932008	 ldr         r2, [r3, #8]
  005e8	e5923040	 ldr         r3, [r2, #0x40]
  005ec	e3833040	 orr         r3, r3, #0x40
  005f0	e5823040	 str         r3, [r2, #0x40]
  005f4	ea00009a	 b           |$LN3@ClockHwUpd|
  005f8		 |$LN84@ClockHwUpd|

; 578  :                     break;
; 579  : 
; 580  :                 case k32K_FCLK:
; 581  :                     CLRREG32(&g_pPrcmCm->pOMAP_PER_CM->CM_CLKSEL_PER, CLKSEL_GPT8);

  005f8	e59f328c	 ldr         r3, [pc, #0x28C]
  005fc	e5933000	 ldr         r3, [r3]
  00600	e5932008	 ldr         r2, [r3, #8]
  00604	e5923040	 ldr         r3, [r2, #0x40]
  00608	e3c33040	 bic         r3, r3, #0x40
  0060c	e5823040	 str         r3, [r2, #0x40]
  00610	ea000093	 b           |$LN3@ClockHwUpd|
  00614		 |$LN82@ClockHwUpd|

; 582  :                     break;
; 583  : 
; 584  :                 default:
; 585  :                     goto cleanUp;
; 586  :                 }
; 587  :             break;
; 588  :             
; 589  :         case kGPT9_ALWON_FCLK:
; 590  :             // verify parent clock is valid
; 591  :             switch(parentClock)

  00614	e352000b	 cmp         r2, #0xB
  00618	0a000008	 beq         |$LN78@ClockHwUpd|
  0061c	e352000c	 cmp         r2, #0xC
  00620	1a000090	 bne         |$cleanUp$47080|

; 592  :                 {
; 593  :                 case kSYS_CLK:
; 594  :                     SETREG32(&g_pPrcmCm->pOMAP_PER_CM->CM_CLKSEL_PER, CLKSEL_GPT9);

  00624	e59f3260	 ldr         r3, [pc, #0x260]
  00628	e5933000	 ldr         r3, [r3]
  0062c	e5932008	 ldr         r2, [r3, #8]
  00630	e5923040	 ldr         r3, [r2, #0x40]
  00634	e3833080	 orr         r3, r3, #0x80
  00638	e5823040	 str         r3, [r2, #0x40]
  0063c	ea000088	 b           |$LN3@ClockHwUpd|
  00640		 |$LN78@ClockHwUpd|

; 595  :                     break;
; 596  : 
; 597  :                 case k32K_FCLK:
; 598  :                     CLRREG32(&g_pPrcmCm->pOMAP_PER_CM->CM_CLKSEL_PER, CLKSEL_GPT9);

  00640	e59f3244	 ldr         r3, [pc, #0x244]
  00644	e5933000	 ldr         r3, [r3]
  00648	e5932008	 ldr         r2, [r3, #8]
  0064c	e5923040	 ldr         r3, [r2, #0x40]
  00650	e3c33080	 bic         r3, r3, #0x80
  00654	e5823040	 str         r3, [r2, #0x40]
  00658	ea000081	 b           |$LN3@ClockHwUpd|
  0065c		 |$LN70@ClockHwUpd|

; 624  :             
; 625  :         case kGPT10_FCLK:
; 626  :             // verify parent clock is valid
; 627  :             switch(parentClock)

  0065c	e3520019	 cmp         r2, #0x19
  00660	0a00000d	 beq         |$LN67@ClockHwUpd|
  00664	e352001c	 cmp         r2, #0x1C
  00668	1a00007e	 bne         |$cleanUp$47080|

; 632  :                     break;
; 633  : 
; 634  :                 case kCM_32K_CLK:
; 635  :                     CLRREG32(&g_pPrcmCm->pOMAP_CORE_CM->CM_CLKSEL_CORE, CLKSEL_GPT10);

  0066c	e59f3218	 ldr         r3, [pc, #0x218]

; 636  :                     CLRREG32(&g_pPrcmRestore->CM_CLKSEL_CORE, CLKSEL_GPT10);

  00670	e59f1210	 ldr         r1, [pc, #0x210]
  00674	e5933000	 ldr         r3, [r3]
  00678	e5932004	 ldr         r2, [r3, #4]
  0067c	e5923040	 ldr         r3, [r2, #0x40]
  00680	e3c33040	 bic         r3, r3, #0x40
  00684	e5823040	 str         r3, [r2, #0x40]
  00688	e5912000	 ldr         r2, [r1]
  0068c	e5923008	 ldr         r3, [r2, #8]
  00690	e3c33040	 bic         r3, r3, #0x40
  00694	e5823008	 str         r3, [r2, #8]

; 637  :                     break;
; 638  : 
; 639  :                 default:
; 640  :                     goto cleanUp;
; 641  :                 }
; 642  :             break;

  00698	ea000071	 b           |$LN3@ClockHwUpd|
  0069c		 |$LN67@ClockHwUpd|

; 628  :                 {
; 629  :                 case kCM_SYS_CLK:
; 630  :                     SETREG32(&g_pPrcmCm->pOMAP_CORE_CM->CM_CLKSEL_CORE, CLKSEL_GPT10);

  0069c	e59f31e8	 ldr         r3, [pc, #0x1E8]

; 631  :                     SETREG32(&g_pPrcmRestore->CM_CLKSEL_CORE, CLKSEL_GPT10);

  006a0	e59f11e0	 ldr         r1, [pc, #0x1E0]
  006a4	e5933000	 ldr         r3, [r3]
  006a8	e5932004	 ldr         r2, [r3, #4]
  006ac	e5923040	 ldr         r3, [r2, #0x40]
  006b0	e3833040	 orr         r3, r3, #0x40
  006b4	e5823040	 str         r3, [r2, #0x40]
  006b8	e5912000	 ldr         r2, [r1]
  006bc	e5923008	 ldr         r3, [r2, #8]
  006c0	e3833040	 orr         r3, r3, #0x40
  006c4	e5823008	 str         r3, [r2, #8]

; 637  :                     break;
; 638  : 
; 639  :                 default:
; 640  :                     goto cleanUp;
; 641  :                 }
; 642  :             break;

  006c8	ea000065	 b           |$LN3@ClockHwUpd|
  006cc		 |$LN64@ClockHwUpd|

; 643  :             
; 644  :         case kGPT11_FCLK:
; 645  :             // verify parent clock is valid
; 646  :             switch(parentClock)

  006cc	e3520019	 cmp         r2, #0x19
  006d0	0a00000d	 beq         |$LN61@ClockHwUpd|
  006d4	e352001c	 cmp         r2, #0x1C
  006d8	1a000062	 bne         |$cleanUp$47080|

; 651  :                     break;
; 652  : 
; 653  :                 case kCM_32K_CLK:
; 654  :                     CLRREG32(&g_pPrcmCm->pOMAP_CORE_CM->CM_CLKSEL_CORE, CLKSEL_GPT11);

  006dc	e59f31a8	 ldr         r3, [pc, #0x1A8]

; 655  :                     CLRREG32(&g_pPrcmRestore->CM_CLKSEL_CORE, CLKSEL_GPT11);

  006e0	e59f11a0	 ldr         r1, [pc, #0x1A0]
  006e4	e5933000	 ldr         r3, [r3]
  006e8	e5932004	 ldr         r2, [r3, #4]
  006ec	e5923040	 ldr         r3, [r2, #0x40]
  006f0	e3c33080	 bic         r3, r3, #0x80
  006f4	e5823040	 str         r3, [r2, #0x40]
  006f8	e5912000	 ldr         r2, [r1]
  006fc	e5923008	 ldr         r3, [r2, #8]
  00700	e3c33080	 bic         r3, r3, #0x80
  00704	e5823008	 str         r3, [r2, #8]
  00708	ea000055	 b           |$LN3@ClockHwUpd|
  0070c		 |$LN61@ClockHwUpd|

; 647  :                 {
; 648  :                 case kCM_SYS_CLK:
; 649  :                     SETREG32(&g_pPrcmCm->pOMAP_CORE_CM->CM_CLKSEL_CORE, CLKSEL_GPT11);

  0070c	e59f3178	 ldr         r3, [pc, #0x178]

; 650  :                     SETREG32(&g_pPrcmRestore->CM_CLKSEL_CORE, CLKSEL_GPT11);

  00710	e59f1170	 ldr         r1, [pc, #0x170]
  00714	e5933000	 ldr         r3, [r3]
  00718	e5932004	 ldr         r2, [r3, #4]
  0071c	e5923040	 ldr         r3, [r2, #0x40]
  00720	e3833080	 orr         r3, r3, #0x80
  00724	e5823040	 str         r3, [r2, #0x40]
  00728	e5912000	 ldr         r2, [r1]
  0072c	e5923008	 ldr         r3, [r2, #8]
  00730	e3833080	 orr         r3, r3, #0x80
  00734	e5823008	 str         r3, [r2, #8]
  00738	ea000049	 b           |$LN3@ClockHwUpd|
  0073c		 |$LN25@ClockHwUpd|

; 813  : 
; 814  :         case kMCBSP1_CLKS:
; 815  :             // verify parent clock is valid
; 816  :             switch(parentClock)

  0073c	e352000f	 cmp         r2, #0xF
  00740	0a000007	 beq         |$LN21@ClockHwUpd|
  00744	e352003a	 cmp         r2, #0x3A
  00748	1a000045	 bne         |$LN3@ClockHwUpd|

; 817  :                 {
; 818  :                 case kCORE_96M_FCLK:
; 819  :                     CLRREG32(&g_pSysCtrlGenReg->CONTROL_DEVCONF0, DEVCONF0_MCBSP1_CLKS);

  0074c	e59f3130	 ldr         r3, [pc, #0x130]
  00750	e5932000	 ldr         r2, [r3]
  00754	e5923004	 ldr         r3, [r2, #4]
  00758	e3c33004	 bic         r3, r3, #4

; 820  :                     break;
; 821  : 
; 822  :                 case kMCBSP_CLKS:
; 823  :                     SETREG32(&g_pSysCtrlGenReg->CONTROL_DEVCONF0, DEVCONF0_MCBSP1_CLKS);

  0075c	e5823004	 str         r3, [r2, #4]

; 824  :                     break;
; 825  :                 }
; 826  :             break;

  00760	ea00003f	 b           |$LN3@ClockHwUpd|
  00764		 |$LN21@ClockHwUpd|

; 820  :                     break;
; 821  : 
; 822  :                 case kMCBSP_CLKS:
; 823  :                     SETREG32(&g_pSysCtrlGenReg->CONTROL_DEVCONF0, DEVCONF0_MCBSP1_CLKS);

  00764	e59f3118	 ldr         r3, [pc, #0x118]
  00768	e5932000	 ldr         r2, [r3]
  0076c	e5923004	 ldr         r3, [r2, #4]
  00770	e3833004	 orr         r3, r3, #4
  00774	e5823004	 str         r3, [r2, #4]

; 824  :                     break;
; 825  :                 }
; 826  :             break;

  00778	ea000039	 b           |$LN3@ClockHwUpd|
  0077c		 |$LN20@ClockHwUpd|

; 827  : 
; 828  :        case kMCBSP2_CLKS:
; 829  :             // verify parent clock is valid
; 830  :             switch(parentClock)

  0077c	e352000f	 cmp         r2, #0xF
  00780	0a000007	 beq         |$LN16@ClockHwUpd|
  00784	e3520022	 cmp         r2, #0x22
  00788	1a000035	 bne         |$LN3@ClockHwUpd|

; 831  :                 {
; 832  :                 case k96M_ALWON_FCLK:
; 833  :                     CLRREG32(&g_pSysCtrlGenReg->CONTROL_DEVCONF0, DEVCONF0_MCBSP2_CLKS);

  0078c	e59f30f0	 ldr         r3, [pc, #0xF0]
  00790	e5932000	 ldr         r2, [r3]
  00794	e5923004	 ldr         r3, [r2, #4]
  00798	e3c33040	 bic         r3, r3, #0x40
  0079c	e5823004	 str         r3, [r2, #4]
  007a0	ea00002f	 b           |$LN3@ClockHwUpd|
  007a4		 |$LN16@ClockHwUpd|

; 834  :                     break;
; 835  : 
; 836  :                 case kMCBSP_CLKS:
; 837  :                     SETREG32(&g_pSysCtrlGenReg->CONTROL_DEVCONF0, DEVCONF0_MCBSP2_CLKS);

  007a4	e59f30d8	 ldr         r3, [pc, #0xD8]
  007a8	e5932000	 ldr         r2, [r3]
  007ac	e5923004	 ldr         r3, [r2, #4]
  007b0	e3833040	 orr         r3, r3, #0x40
  007b4	e5823004	 str         r3, [r2, #4]
  007b8	ea000029	 b           |$LN3@ClockHwUpd|
  007bc		 |$LN15@ClockHwUpd|

; 838  :                     break;
; 839  :                 }
; 840  :             break;
; 841  : 
; 842  :         case kMCBSP3_CLKS:
; 843  :             // verify parent clock is valid
; 844  :             switch(parentClock)

  007bc	e352000f	 cmp         r2, #0xF
  007c0	0a000006	 beq         |$LN11@ClockHwUpd|
  007c4	e3520022	 cmp         r2, #0x22
  007c8	1a000025	 bne         |$LN3@ClockHwUpd|

; 845  :                 {
; 846  :                 case k96M_ALWON_FCLK:
; 847  :                     CLRREG32(&g_pSysCtrlGenReg->CONTROL_DEVCONF1, DEVCONF1_MCBSP3_CLKS);

  007cc	e59f30b0	 ldr         r3, [pc, #0xB0]
  007d0	e5932000	 ldr         r2, [r3]
  007d4	e5923068	 ldr         r3, [r2, #0x68]
  007d8	e3c33001	 bic         r3, r3, #1

; 848  :                     break;

  007dc	ea00001f	 b           |$LN138@ClockHwUpd|
  007e0		 |$LN11@ClockHwUpd|

; 849  : 
; 850  :                 case kMCBSP_CLKS:
; 851  :                     SETREG32(&g_pSysCtrlGenReg->CONTROL_DEVCONF1, DEVCONF1_MCBSP3_CLKS);

  007e0	e59f309c	 ldr         r3, [pc, #0x9C]
  007e4	e5932000	 ldr         r2, [r3]
  007e8	e5923068	 ldr         r3, [r2, #0x68]
  007ec	e3833001	 orr         r3, r3, #1

; 852  :                     break;
; 853  :                 }
; 854  :             break;

  007f0	ea00001a	 b           |$LN138@ClockHwUpd|
  007f4		 |$LN10@ClockHwUpd|

; 855  : 
; 856  :         case kMCBSP4_CLKS:
; 857  :             // verify parent clock is valid
; 858  :             switch(parentClock)

  007f4	e352000f	 cmp         r2, #0xF
  007f8	0a000006	 beq         |$LN6@ClockHwUpd|
  007fc	e3520022	 cmp         r2, #0x22
  00800	1a000017	 bne         |$LN3@ClockHwUpd|

; 859  :                 {
; 860  :                 case k96M_ALWON_FCLK:
; 861  :                     CLRREG32(&g_pSysCtrlGenReg->CONTROL_DEVCONF1, DEVCONF1_MCBSP4_CLKS);

  00804	e59f3078	 ldr         r3, [pc, #0x78]
  00808	e5932000	 ldr         r2, [r3]
  0080c	e5923068	 ldr         r3, [r2, #0x68]
  00810	e3c33004	 bic         r3, r3, #4

; 862  :                     break;

  00814	ea000011	 b           |$LN138@ClockHwUpd|
  00818		 |$LN6@ClockHwUpd|

; 863  : 
; 864  :                 case kMCBSP_CLKS:
; 865  :                     SETREG32(&g_pSysCtrlGenReg->CONTROL_DEVCONF1, DEVCONF1_MCBSP4_CLKS);

  00818	e59f3064	 ldr         r3, [pc, #0x64]
  0081c	e5932000	 ldr         r2, [r3]
  00820	e5923068	 ldr         r3, [r2, #0x68]
  00824	e3833004	 orr         r3, r3, #4

; 866  :                     break;
; 867  :                 }
; 868  :             break;

  00828	ea00000c	 b           |$LN138@ClockHwUpd|
  0082c		 |$LN5@ClockHwUpd|

; 869  : 
; 870  :         case kMCBSP5_CLKS:
; 871  :             // verify parent clock is valid
; 872  :             switch(parentClock)

  0082c	e352000f	 cmp         r2, #0xF
  00830	0a000006	 beq         |$LN1@ClockHwUpd|
  00834	e352003a	 cmp         r2, #0x3A
  00838	1a000009	 bne         |$LN3@ClockHwUpd|

; 873  :                 {
; 874  :                 case kCORE_96M_FCLK:
; 875  :                     CLRREG32(&g_pSysCtrlGenReg->CONTROL_DEVCONF1, DEVCONF1_MCBSP5_CLKS);

  0083c	e59f3040	 ldr         r3, [pc, #0x40]
  00840	e5932000	 ldr         r2, [r3]
  00844	e5923068	 ldr         r3, [r2, #0x68]
  00848	e3c33010	 bic         r3, r3, #0x10

; 876  :                     break;

  0084c	ea000003	 b           |$LN138@ClockHwUpd|
  00850		 |$LN1@ClockHwUpd|

; 877  : 
; 878  :                 case kMCBSP_CLKS:
; 879  :                     SETREG32(&g_pSysCtrlGenReg->CONTROL_DEVCONF1, DEVCONF1_MCBSP5_CLKS);

  00850	e59f302c	 ldr         r3, [pc, #0x2C]
  00854	e5932000	 ldr         r2, [r3]
  00858	e5923068	 ldr         r3, [r2, #0x68]
  0085c	e3833010	 orr         r3, r3, #0x10
  00860		 |$LN138@ClockHwUpd|
  00860	e5823068	 str         r3, [r2, #0x68]
  00864		 |$LN3@ClockHwUpd|

; 880  :                     break;
; 881  :                 }
; 882  :             break;
; 883  : 
; 884  : #if 0
; 885  :         case kIVA2_CLK:  
; 886  :             kDPLL2_M2_CLK/*DPLL2_FCLK*/
; 887  :             break;
; 888  : 
; 889  :         case kMPU_CLK:    
; 890  :             kDPLL1_M2X2_CLK/*DPLL1_FCLK*/
; 891  :             break;
; 892  : #endif            
; 893  :         }
; 894  : 
; 895  :     rc = TRUE;

  00864	e3a05001	 mov         r5, #1
  00868		 |$cleanUp$47080|

; 896  :             
; 897  : cleanUp:    
; 898  :     OALMSG(1, (L"-_ClockHwUpdateParentClock()=%d\r\n", rc));

  00868	e59f0010	 ldr         r0, [pc, #0x10]
  0086c	e1a01005	 mov         r1, r5
  00870	eb000000	 bl          NKDbgPrintfW

; 899  :     return rc;
; 900  : }

  00874	e1a00005	 mov         r0, r5
  00878	e8bd4030	 ldmia       sp!, {r4, r5, lr}
  0087c	e12fff1e	 bx          lr
  00880		 |$LN164@ClockHwUpd|
  00880		 |$LN165@ClockHwUpd|
  00880	00000000	 DCD         |??_C@_1EE@LONBGGII@?$AA?9?$AA_?$AAC?$AAl?$AAo?$AAc?$AAk?$AAH?$AAw?$AAU?$AAp?$AAd?$AAa?$AAt?$AAe?$AAP?$AAa?$AAr?$AAe?$AAn?$AAt?$AAC?$AAl?$AAo?$AAc?$AAk?$AA?$CI?$AA?$CJ?$AA?$DN?$AA?$CF?$AAd?$AA?$AN@|
  00884		 |$LN166@ClockHwUpd|
  00884	00000000	 DCD         |g_pSysCtrlGenReg|
  00888		 |$LN167@ClockHwUpd|
  00888	00000000	 DCD         |g_pPrcmRestore|
  0088c		 |$LN168@ClockHwUpd|
  0088c	00000000	 DCD         |g_pPrcmCm|
  00890		 |$LN169@ClockHwUpd|
  00890	00000000	 DCD         |s_SrcClockTable|
  00894		 |$LN170@ClockHwUpd|
  00894	00000000	 DCD         |??_C@_1FC@MLOGNJBG@?$AA?$CL?$AA_?$AAC?$AAl?$AAo?$AAc?$AAk?$AAH?$AAw?$AAU?$AAp?$AAd?$AAa?$AAt?$AAe?$AAP?$AAa?$AAr?$AAe?$AAn?$AAt?$AAC?$AAl?$AAo?$AAc?$AAk?$AA?$CI?$AAc?$AAl?$AAo?$AAc?$AAk@|
  00898		 |$M49405|

			 ENDP  ; |_ClockHwUpdateParentClock|

	IMPORT	|g_dwCpuFamily|
	IMPORT	|OutShadowReg32|

  00000			 AREA	 |.pdata|, PDATA
|$T49437| DCD	|$LN40@ClockHwUpd@2|
	DCD	0x4000c001
; Function compile flags: /Ogspy

  00000			 AREA	 |.text|, CODE, ARM

  00000		 |_ClockHwUpdateDpllState| PROC

; 909  : {

  00000		 |$LN40@ClockHwUpd@2|
  00000	e92d40f0	 stmdb       sp!, {r4 - r7, lr}
  00004		 |$M49434|
  00004	e3500000	 cmp         r0, #0

; 910  :     BOOL rc = TRUE;

  00008	e3a07001	 mov         r7, #1

; 911  :     UINT cm_clken_pll;
; 912  :     UINT cm_autoidle_pll;
; 913  :     
; 914  :     // update the following hw registers
; 915  :     // CM_AUTOIDLE_PLL_xxx
; 916  :     // CM_CLKEN_PLL_xxx
; 917  :     // CM_CLKSELn_PLL_xxx
; 918  :     // CM_CLKSTCTRL_xxx
; 919  : 
; 920  : 
; 921  :     switch (dpll)

  0000c	0a000091	 beq         |$LN33@ClockHwUpd@2|
  00010	e3500001	 cmp         r0, #1
  00014	0a000070	 beq         |$LN27@ClockHwUpd@2|
  00018	e3500002	 cmp         r0, #2
  0001c	0a00004a	 beq         |$LN21@ClockHwUpd@2|
  00020	e3500003	 cmp         r0, #3
  00024	0a000029	 beq         |$LN15@ClockHwUpd@2|
  00028	e3500004	 cmp         r0, #4
  0002c	0a000003	 beq         |$LN8@ClockHwUpd@2|
  00030	e3500005	 cmp         r0, #5
  00034	0a0000aa	 beq         |$LN34@ClockHwUpd@2|

; 1122 : 
; 1123 :         case kDPLL_EXT:
; 1124 :             break;
; 1125 : 
; 1126 :         default:
; 1127 :             rc = FALSE;

  00038	e3a07000	 mov         r7, #0
  0003c	ea0000a8	 b           |$LN34@ClockHwUpd@2|
  00040		 |$LN8@ClockHwUpd@2|

; 1081 : 
; 1082 :         case kDPLL5:
; 1083 :             cm_clken_pll = INREG32(&g_pPrcmCm->pOMAP_CLOCK_CONTROL_CM->CM_CLKEN2_PLL);

  00040	e59f32b0	 ldr         r3, [pc, #0x2B0]

; 1084 :             cm_autoidle_pll = INREG32(&g_pPrcmCm->pOMAP_CLOCK_CONTROL_CM->CM_AUTOIDLE2_PLL);
; 1085 :             if (ffMask & DPLL_UPDATE_LPMODE)

  00044	e59f02a8	 ldr         r0, [pc, #0x2A8]
  00048	e3110002	 tst         r1, #2
  0004c	e5933000	 ldr         r3, [r3]

; 1086 :                 {
; 1087 :                 cm_clken_pll &= ~EN_DPLL_LPMODE;
; 1088 :                 cm_clken_pll |= _dpll_5.lowPowerEnabled << EN_DPLL_LPMODE_SHIFT;

  00050	159020a0	 ldrne       r2, [r0, #0xA0]

; 1089 :                 }
; 1090 : 
; 1091 :             if (ffMask & DPLL_UPDATE_DRIFTGUARD)
; 1092 :                 {
; 1093 :                 cm_clken_pll &= ~EN_DPLL_DRIFTGUARD;
; 1094 :                 cm_clken_pll |= _dpll_5.driftGuard << EN_DPLL_DRIFTGUARD_SHIFT;                
; 1095 :                 }
; 1096 : 
; 1097 :             if (ffMask & DPLL_UPDATE_RAMPTIME)
; 1098 :                 {
; 1099 :                 cm_clken_pll &= ~DPLL_RAMPTIME_MASK;
; 1100 :                 cm_clken_pll |= _dpll_5.rampTime << DPLL_RAMPTIME_SHIFT;                
; 1101 :                 }
; 1102 : 
; 1103 :             if (ffMask & DPLL_UPDATE_DPLLMODE)
; 1104 :                 {
; 1105 :                 cm_clken_pll &= ~DPLL_MODE_MASK;
; 1106 :                 cm_clken_pll |= _dpll_5.dpllMode << DPLL_MODE_SHIFT; 
; 1107 :                 }
; 1108 : 
; 1109 :             if (ffMask & DPLL_UPDATE_AUTOIDLEMODE)
; 1110 :                 {
; 1111 :                 cm_autoidle_pll &= ~DPLL_AUTOIDLE_MASK;
; 1112 :                 cm_autoidle_pll |= _dpll_5.dpllAutoidleState << DPLL_AUTOIDLE_SHIFT;
; 1113 :                 }
; 1114 :             
; 1115 :             OUTSYSREG32(OMAP_PRCM_CLOCK_CONTROL_CM_REGS, CM_CLKEN2_PLL, cm_clken_pll);

  00054	e3a05312	 mov         r5, #0x12, 6
  00058	e5933034	 ldr         r3, [r3, #0x34]
  0005c	e593e004	 ldr         lr, [r3, #4]
  00060	e5934034	 ldr         r4, [r3, #0x34]
  00064	13ce3b01	 bicne       r3, lr, #1, 22
  00068	1183e502	 orrne       lr, r3, r2, lsl #10
  0006c	e3110004	 tst         r1, #4
  00070	159020ac	 ldrne       r2, [r0, #0xAC]
  00074	13ce3008	 bicne       r3, lr, #8
  00078	1183e182	 orrne       lr, r3, r2, lsl #3
  0007c	e3110008	 tst         r1, #8
  00080	159020a4	 ldrne       r2, [r0, #0xA4]
  00084	13ce3c03	 bicne       r3, lr, #3, 24
  00088	1183e402	 orrne       lr, r3, r2, lsl #8
  0008c	e3110001	 tst         r1, #1
  00090	159020b0	 ldrne       r2, [r0, #0xB0]
  00094	13ce3007	 bicne       r3, lr, #7
  00098	1183e002	 orrne       lr, r3, r2
  0009c	e3110010	 tst         r1, #0x10
  000a0	159010c0	 ldrne       r1, [r0, #0xC0]
  000a4	13c43007	 bicne       r3, r4, #7
  000a8	e3850c4d	 orr         r0, r5, #0x4D, 24
  000ac	11834001	 orrne       r4, r3, r1
  000b0	e3a01004	 mov         r1, #4
  000b4	e1a0200e	 mov         r2, lr
  000b8	eb000000	 bl          OutShadowReg32

; 1116 : 
; 1117 :             // CM_AUTOIDLE_PLL is shadowed for CORE OFF support, so OUTSYSREG32 is used
; 1118 :             // instead of OUTREG32
; 1119 :             OUTSYSREG32(OMAP_PRCM_CLOCK_CONTROL_CM_REGS, CM_AUTOIDLE2_PLL, cm_autoidle_pll);

  000bc	e1a02004	 mov         r2, r4
  000c0	e3a01034	 mov         r1, #0x34
  000c4	e3850c4d	 orr         r0, r5, #0x4D, 24
  000c8	eb000000	 bl          OutShadowReg32

; 1120 : 
; 1121 :             break;

  000cc	ea000084	 b           |$LN34@ClockHwUpd@2|
  000d0		 |$LN15@ClockHwUpd@2|

; 1040 : 
; 1041 :         case kDPLL4:
; 1042 :             cm_clken_pll = INREG32(&g_pPrcmCm->pOMAP_CLOCK_CONTROL_CM->CM_CLKEN_PLL);

  000d0	e59f3220	 ldr         r3, [pc, #0x220]

; 1043 :             cm_autoidle_pll = INREG32(&g_pPrcmCm->pOMAP_CLOCK_CONTROL_CM->CM_AUTOIDLE_PLL);
; 1044 :             if (ffMask & DPLL_UPDATE_LPMODE)

  000d4	e59f0218	 ldr         r0, [pc, #0x218]
  000d8	e3110002	 tst         r1, #2
  000dc	e5933000	 ldr         r3, [r3]

; 1045 :                 {
; 1046 :                 cm_clken_pll &= ~(EN_DPLL_LPMODE << DPLL_PER_MODE_SHIFT);
; 1047 :                 cm_clken_pll |= (_dpll_4.lowPowerEnabled << EN_DPLL_LPMODE_SHIFT) << DPLL_PER_MODE_SHIFT;

  000e0	15902078	 ldrne       r2, [r0, #0x78]
  000e4	e593e034	 ldr         lr, [r3, #0x34]
  000e8	e59e4000	 ldr         r4, [lr]
  000ec	e59e5030	 ldr         r5, [lr, #0x30]
  000f0	13c43301	 bicne       r3, r4, #1, 6
  000f4	11834d02	 orrne       r4, r3, r2, lsl #26

; 1048 :                 }
; 1049 : 
; 1050 :             if (ffMask & DPLL_UPDATE_DRIFTGUARD)

  000f8	e3110004	 tst         r1, #4

; 1051 :                 {
; 1052 :                 cm_clken_pll &= ~(EN_DPLL_DRIFTGUARD << DPLL_PER_MODE_SHIFT);
; 1053 :                 cm_clken_pll |= (_dpll_4.driftGuard << EN_DPLL_DRIFTGUARD_SHIFT) << DPLL_PER_MODE_SHIFT;                

  000fc	15902084	 ldrne       r2, [r0, #0x84]
  00100	13c43702	 bicne       r3, r4, #2, 14
  00104	11834982	 orrne       r4, r3, r2, lsl #19

; 1054 :                 }
; 1055 : 
; 1056 :             if (g_dwCpuFamily != CPU_FAMILY_DM37XX)

  00108	e59f31ec	 ldr         r3, [pc, #0x1EC]
  0010c	e5933000	 ldr         r3, [r3]
  00110	e3530001	 cmp         r3, #1

; 1057 :             if (ffMask & DPLL_UPDATE_RAMPTIME)

  00114	13110008	 tstne       r1, #8

; 1058 :                 {
; 1059 :                 cm_clken_pll &= ~(DPLL_RAMPTIME_MASK << DPLL_PER_MODE_SHIFT);
; 1060 :                 cm_clken_pll |= (_dpll_4.rampTime << DPLL_RAMPTIME_SHIFT) << DPLL_PER_MODE_SHIFT;                

  00118	1590207c	 ldrne       r2, [r0, #0x7C]
  0011c	13c43403	 bicne       r3, r4, #3, 8
  00120	11834c02	 orrne       r4, r3, r2, lsl #24

; 1061 :                 }
; 1062 : 
; 1063 :             if (ffMask & DPLL_UPDATE_DPLLMODE)

  00124	e3110001	 tst         r1, #1

; 1064 :                 {
; 1065 :                 cm_clken_pll &= ~(DPLL_MODE_MASK << DPLL_PER_MODE_SHIFT);
; 1066 :                 cm_clken_pll |= (_dpll_4.dpllMode << DPLL_MODE_SHIFT) << DPLL_PER_MODE_SHIFT; 

  00128	15902088	 ldrne       r2, [r0, #0x88]
  0012c	13c43807	 bicne       r3, r4, #7, 16
  00130	11834802	 orrne       r4, r3, r2, lsl #16

; 1067 :                 }
; 1068 : 
; 1069 :             if (ffMask & DPLL_UPDATE_AUTOIDLEMODE)

  00134	e3110010	 tst         r1, #0x10
  00138	0a00001d	 beq         |$LN16@ClockHwUpd@2|

; 1070 :                 {
; 1071 :                 cm_autoidle_pll &= ~(DPLL_AUTOIDLE_MASK << DPLL_PER_IDLE_SHIFT);
; 1072 :                 cm_autoidle_pll |= (_dpll_4.dpllAutoidleState << DPLL_AUTOIDLE_SHIFT) << DPLL_PER_IDLE_SHIFT;

  0013c	e5902098	 ldr         r2, [r0, #0x98]
  00140	e3c53038	 bic         r3, r5, #0x38
  00144	e1835182	 orr         r5, r3, r2, lsl #3

; 1073 :                 }
; 1074 : 
; 1075 :             OUTREG32(&g_pPrcmCm->pOMAP_CLOCK_CONTROL_CM->CM_CLKEN_PLL, cm_clken_pll);
; 1076 :             OUTSYSREG32(OMAP_PRCM_CLOCK_CONTROL_CM_REGS, CM_AUTOIDLE_PLL, cm_autoidle_pll);
; 1077 : 
; 1078 :             // Save modifications to scratchpad register as well
; 1079 :             OUTREG32(&g_pPrcmRestore->CM_CLKEN_PLL, cm_clken_pll);
; 1080 :             break;

  00148	ea000019	 b           |$LN16@ClockHwUpd@2|
  0014c		 |$LN21@ClockHwUpd@2|

; 1000 : 
; 1001 :         case kDPLL3:
; 1002 :             cm_clken_pll = INREG32(&g_pPrcmCm->pOMAP_CLOCK_CONTROL_CM->CM_CLKEN_PLL);

  0014c	e59f31a4	 ldr         r3, [pc, #0x1A4]

; 1003 :             cm_autoidle_pll = INREG32(&g_pPrcmCm->pOMAP_CLOCK_CONTROL_CM->CM_AUTOIDLE_PLL);
; 1004 :             if (ffMask & DPLL_UPDATE_LPMODE)

  00150	e59f019c	 ldr         r0, [pc, #0x19C]
  00154	e3110002	 tst         r1, #2
  00158	e5933000	 ldr         r3, [r3]

; 1005 :                 {
; 1006 :                 cm_clken_pll &= ~EN_DPLL_LPMODE;
; 1007 :                 cm_clken_pll |= _dpll_3.lowPowerEnabled << EN_DPLL_LPMODE_SHIFT;

  0015c	15902050	 ldrne       r2, [r0, #0x50]
  00160	e593e034	 ldr         lr, [r3, #0x34]
  00164	e59e4000	 ldr         r4, [lr]
  00168	e59e5030	 ldr         r5, [lr, #0x30]
  0016c	13c43b01	 bicne       r3, r4, #1, 22
  00170	11834502	 orrne       r4, r3, r2, lsl #10

; 1008 :                 }
; 1009 : 
; 1010 :             if (ffMask & DPLL_UPDATE_DRIFTGUARD)

  00174	e3110004	 tst         r1, #4

; 1011 :                 {
; 1012 :                 cm_clken_pll &= ~EN_DPLL_DRIFTGUARD;
; 1013 :                 cm_clken_pll |= _dpll_3.driftGuard << EN_DPLL_DRIFTGUARD_SHIFT;

  00178	1590205c	 ldrne       r2, [r0, #0x5C]
  0017c	13c43008	 bicne       r3, r4, #8
  00180	11834182	 orrne       r4, r3, r2, lsl #3

; 1014 :                 }
; 1015 : 
; 1016 :             if (ffMask & DPLL_UPDATE_RAMPTIME)

  00184	e3110008	 tst         r1, #8

; 1017 :                 {
; 1018 :                 cm_clken_pll &= ~DPLL_RAMPTIME_MASK;
; 1019 :                 cm_clken_pll |= _dpll_3.rampTime << DPLL_RAMPTIME_SHIFT;

  00188	15902054	 ldrne       r2, [r0, #0x54]
  0018c	13c43c03	 bicne       r3, r4, #3, 24
  00190	11834402	 orrne       r4, r3, r2, lsl #8

; 1020 :                 }
; 1021 : 
; 1022 :             if (ffMask & DPLL_UPDATE_DPLLMODE)

  00194	e3110001	 tst         r1, #1

; 1023 :                 {
; 1024 :                 cm_clken_pll &= ~DPLL_MODE_MASK;
; 1025 :                 cm_clken_pll |= _dpll_3.dpllMode << DPLL_MODE_SHIFT; 

  00198	15902060	 ldrne       r2, [r0, #0x60]
  0019c	13c43007	 bicne       r3, r4, #7
  001a0	11834002	 orrne       r4, r3, r2

; 1026 :                 }
; 1027 : 
; 1028 :             if (ffMask & DPLL_UPDATE_AUTOIDLEMODE)

  001a4	e3110010	 tst         r1, #0x10

; 1029 :                 {
; 1030 :                 cm_autoidle_pll &= ~DPLL_AUTOIDLE_MASK;
; 1031 :                 cm_autoidle_pll |= _dpll_3.dpllAutoidleState << DPLL_AUTOIDLE_SHIFT;

  001a8	15902070	 ldrne       r2, [r0, #0x70]
  001ac	13c53007	 bicne       r3, r5, #7
  001b0	11835002	 orrne       r5, r3, r2
  001b4		 |$LN16@ClockHwUpd@2|
  001b4	e3a03312	 mov         r3, #0x12, 6

; 1032 :                 }
; 1033 : 
; 1034 :             OUTREG32(&g_pPrcmCm->pOMAP_CLOCK_CONTROL_CM->CM_CLKEN_PLL, cm_clken_pll);
; 1035 :             OUTSYSREG32(OMAP_PRCM_CLOCK_CONTROL_CM_REGS, CM_AUTOIDLE_PLL, cm_autoidle_pll);

  001b8	e3830c4d	 orr         r0, r3, #0x4D, 24
  001bc	e1a02005	 mov         r2, r5
  001c0	e3a01030	 mov         r1, #0x30
  001c4	e58e4000	 str         r4, [lr]
  001c8	eb000000	 bl          OutShadowReg32

; 1036 : 
; 1037 :             // Save modifications to scratchpad register as well
; 1038 :             OUTREG32(&g_pPrcmRestore->CM_CLKEN_PLL, cm_clken_pll);

  001cc	e59f311c	 ldr         r3, [pc, #0x11C]
  001d0	e5933000	 ldr         r3, [r3]
  001d4	e5834010	 str         r4, [r3, #0x10]

; 1039 :             break;

  001d8	ea000041	 b           |$LN34@ClockHwUpd@2|
  001dc		 |$LN27@ClockHwUpd@2|

; 962  :             break;
; 963  : 
; 964  :         case kDPLL2:
; 965  :             cm_clken_pll = INREG32(&g_pPrcmCm->pOMAP_IVA2_CM->CM_CLKEN_PLL_IVA2);

  001dc	e59f6114	 ldr         r6, [pc, #0x114]

; 966  :             cm_autoidle_pll = INREG32(&g_pPrcmCm->pOMAP_IVA2_CM->CM_AUTOIDLE_PLL_IVA2);
; 967  :             if (ffMask & DPLL_UPDATE_LPMODE)

  001e0	e59fe10c	 ldr         lr, [pc, #0x10C]
  001e4	e3110002	 tst         r1, #2
  001e8	e5963000	 ldr         r3, [r6]

; 968  :                 {
; 969  :                 cm_clken_pll &= ~EN_DPLL_LPMODE;
; 970  :                 cm_clken_pll |= _dpll_2.lowPowerEnabled << EN_DPLL_LPMODE_SHIFT;

  001ec	159e2028	 ldrne       r2, [lr, #0x28]
  001f0	e5935020	 ldr         r5, [r3, #0x20]
  001f4	e5950004	 ldr         r0, [r5, #4]
  001f8	e5954034	 ldr         r4, [r5, #0x34]
  001fc	13c03b01	 bicne       r3, r0, #1, 22
  00200	11830502	 orrne       r0, r3, r2, lsl #10

; 971  :                 }
; 972  : 
; 973  :             if (ffMask & DPLL_UPDATE_DRIFTGUARD)

  00204	e3110004	 tst         r1, #4

; 974  :                 {
; 975  :                 cm_clken_pll &= ~EN_DPLL_DRIFTGUARD;
; 976  :                 cm_clken_pll |= _dpll_2.driftGuard << EN_DPLL_DRIFTGUARD_SHIFT;                

  00208	159e2034	 ldrne       r2, [lr, #0x34]
  0020c	13c03008	 bicne       r3, r0, #8
  00210	11830182	 orrne       r0, r3, r2, lsl #3

; 977  :                 }
; 978  : 
; 979  :             if (ffMask & DPLL_UPDATE_RAMPTIME)

  00214	e3110008	 tst         r1, #8

; 980  :                 {
; 981  :                 cm_clken_pll &= ~DPLL_RAMPTIME_MASK;
; 982  :                 cm_clken_pll |= _dpll_2.rampTime << DPLL_RAMPTIME_SHIFT;                

  00218	159e202c	 ldrne       r2, [lr, #0x2C]
  0021c	13c03c03	 bicne       r3, r0, #3, 24
  00220	11830402	 orrne       r0, r3, r2, lsl #8

; 983  :                 }
; 984  : 
; 985  :             if (ffMask & DPLL_UPDATE_DPLLMODE)

  00224	e3110001	 tst         r1, #1

; 986  :                 {
; 987  :                 cm_clken_pll &= ~DPLL_MODE_MASK;
; 988  :                 cm_clken_pll |= _dpll_2.dpllMode << DPLL_MODE_SHIFT; 

  00228	159e2038	 ldrne       r2, [lr, #0x38]
  0022c	13c03007	 bicne       r3, r0, #7
  00230	11830002	 orrne       r0, r3, r2

; 989  :                 }
; 990  : 
; 991  :             if (ffMask & DPLL_UPDATE_AUTOIDLEMODE)

  00234	e3110010	 tst         r1, #0x10

; 992  :                 {
; 993  :                 cm_autoidle_pll &= ~DPLL_AUTOIDLE_MASK;
; 994  :                 cm_autoidle_pll |= _dpll_2.dpllAutoidleState << DPLL_AUTOIDLE_SHIFT;

  00238	159e2048	 ldrne       r2, [lr, #0x48]
  0023c	13c43007	 bicne       r3, r4, #7

; 995  :                 }
; 996  :             
; 997  :             OUTREG32(&g_pPrcmCm->pOMAP_IVA2_CM->CM_CLKEN_PLL_IVA2, cm_clken_pll);

  00240	e5850004	 str         r0, [r5, #4]
  00244	11834002	 orrne       r4, r3, r2

; 998  :             OUTREG32(&g_pPrcmCm->pOMAP_IVA2_CM->CM_AUTOIDLE_PLL_IVA2, cm_autoidle_pll);

  00248	e5963000	 ldr         r3, [r6]
  0024c	e5933020	 ldr         r3, [r3, #0x20]
  00250	e5834034	 str         r4, [r3, #0x34]

; 999  :             break;

  00254	ea000022	 b           |$LN34@ClockHwUpd@2|
  00258		 |$LN33@ClockHwUpd@2|

; 922  :         {
; 923  :         case kDPLL1:               
; 924  :             cm_clken_pll = INREG32(&g_pPrcmCm->pOMAP_MPU_CM->CM_CLKEN_PLL_MPU);

  00258	e59f6098	 ldr         r6, [pc, #0x98]

; 925  :             cm_autoidle_pll = INREG32(&g_pPrcmCm->pOMAP_MPU_CM->CM_AUTOIDLE_PLL_MPU);
; 926  :             if (ffMask & DPLL_UPDATE_LPMODE)

  0025c	e59fe090	 ldr         lr, [pc, #0x90]
  00260	e3110002	 tst         r1, #2
  00264	e5963000	 ldr         r3, [r6]

; 927  :                 {
; 928  :                 cm_clken_pll &= ~EN_DPLL_LPMODE_MASK;
; 929  :                 cm_clken_pll |= _dpll_1.lowPowerEnabled << EN_DPLL_LPMODE_SHIFT;

  00268	159e2000	 ldrne       r2, [lr]
  0026c	e5935014	 ldr         r5, [r3, #0x14]
  00270	e5950004	 ldr         r0, [r5, #4]
  00274	e5954034	 ldr         r4, [r5, #0x34]
  00278	13c03b01	 bicne       r3, r0, #1, 22
  0027c	11830502	 orrne       r0, r3, r2, lsl #10

; 930  :                 }
; 931  : 
; 932  :             if (ffMask & DPLL_UPDATE_DRIFTGUARD)

  00280	e3110004	 tst         r1, #4

; 933  :                 {
; 934  :                 cm_clken_pll &= ~EN_DPLL_DRIFTGUARD_MASK;
; 935  :                 cm_clken_pll |= _dpll_1.driftGuard << EN_DPLL_DRIFTGUARD_SHIFT;

  00284	159e200c	 ldrne       r2, [lr, #0xC]
  00288	13c03008	 bicne       r3, r0, #8
  0028c	11830182	 orrne       r0, r3, r2, lsl #3

; 936  :                 }
; 937  : 
; 938  :             if (ffMask & DPLL_UPDATE_RAMPTIME)

  00290	e3110008	 tst         r1, #8

; 939  :                 {
; 940  :                 cm_clken_pll &= ~DPLL_RAMPTIME_MASK;
; 941  :                 cm_clken_pll |= _dpll_1.rampTime << DPLL_RAMPTIME_SHIFT;                

  00294	159e2004	 ldrne       r2, [lr, #4]
  00298	13c03c03	 bicne       r3, r0, #3, 24
  0029c	11830402	 orrne       r0, r3, r2, lsl #8

; 942  :                 }
; 943  : 
; 944  :             if (ffMask & DPLL_UPDATE_DPLLMODE)

  002a0	e3110001	 tst         r1, #1

; 945  :                 {
; 946  :                 cm_clken_pll &= ~DPLL_MODE_MASK;
; 947  :                 cm_clken_pll |= _dpll_1.dpllMode << DPLL_MODE_SHIFT; 

  002a4	159e2010	 ldrne       r2, [lr, #0x10]
  002a8	13c03007	 bicne       r3, r0, #7
  002ac	11830002	 orrne       r0, r3, r2

; 948  :                 }
; 949  : 
; 950  :             if (ffMask & DPLL_UPDATE_AUTOIDLEMODE)

  002b0	e3110010	 tst         r1, #0x10

; 951  :                 {
; 952  :                 cm_autoidle_pll &= ~DPLL_AUTOIDLE_MASK;
; 953  :                 cm_autoidle_pll |= _dpll_1.dpllAutoidleState << DPLL_AUTOIDLE_SHIFT;

  002b4	159e2020	 ldrne       r2, [lr, #0x20]
  002b8	13c43007	 bicne       r3, r4, #7

; 954  :                 }
; 955  : 
; 956  :             OUTREG32(&g_pPrcmCm->pOMAP_MPU_CM->CM_CLKEN_PLL_MPU, cm_clken_pll);

  002bc	e5850004	 str         r0, [r5, #4]
  002c0	11834002	 orrne       r4, r3, r2

; 957  :             OUTREG32(&g_pPrcmCm->pOMAP_MPU_CM->CM_AUTOIDLE_PLL_MPU, cm_autoidle_pll);

  002c4	e5963000	 ldr         r3, [r6]

; 958  : 
; 959  :             // Save modifications to scratchpad register as well
; 960  :             OUTREG32(&g_pPrcmRestore->CM_CLKEN_PLL_MPU, cm_clken_pll);        

  002c8	e59f2020	 ldr         r2, [pc, #0x20]
  002cc	e5933014	 ldr         r3, [r3, #0x14]
  002d0	e5834034	 str         r4, [r3, #0x34]
  002d4	e5923000	 ldr         r3, [r2]
  002d8	e5830024	 str         r0, [r3, #0x24]

; 961  :             OUTREG32(&g_pPrcmRestore->CM_AUTOIDLE_PLL_MPU, cm_autoidle_pll);

  002dc	e5923000	 ldr         r3, [r2]
  002e0	e5834028	 str         r4, [r3, #0x28]
  002e4		 |$LN34@ClockHwUpd@2|

; 1128 :         }
; 1129 : 
; 1130 :     return rc;
; 1131 : }

  002e4	e1a00007	 mov         r0, r7
  002e8	e8bd40f0	 ldmia       sp!, {r4 - r7, lr}
  002ec	e12fff1e	 bx          lr
  002f0		 |$LN41@ClockHwUpd@2|
  002f0		 |$LN42@ClockHwUpd@2|
  002f0	00000000	 DCD         |g_pPrcmRestore|
  002f4		 |$LN43@ClockHwUpd@2|
  002f4	00000000	 DCD         |_dpll_1|
  002f8		 |$LN44@ClockHwUpd@2|
  002f8	00000000	 DCD         |g_pPrcmCm|
  002fc		 |$LN45@ClockHwUpd@2|
  002fc	00000000	 DCD         |g_dwCpuFamily|
  00300		 |$M49435|

			 ENDP  ; |_ClockHwUpdateDpllState|

	EXPORT	|??_C@_1DO@BLFNJPIJ@?$AA?9?$AA_?$AAC?$AAl?$AAo?$AAc?$AAk?$AAU?$AAp?$AAd?$AAa?$AAt?$AAe?$AAD?$AAp?$AAl?$AAl?$AAO?$AAu?$AAt?$AAp?$AAu?$AAt?$AA?$CI?$AA?$CJ?$AA?$DN?$AA?$CF?$AAd?$AA?$AN?$AA?6?$AA?$AA@| [ DATA ] ; `string'
	EXPORT	|??_C@_1GG@DBFCOCMC@?$AA?$CL?$AA_?$AAC?$AAl?$AAo?$AAc?$AAk?$AAU?$AAp?$AAd?$AAa?$AAt?$AAe?$AAD?$AAp?$AAl?$AAl?$AAO?$AAu?$AAt?$AAp?$AAu?$AAt?$AA?$CI?$AAs?$AAr?$AAc?$AAC?$AAl?$AAk?$AAI?$AAd@| [ DATA ] ; `string'
	IMPORT	|dpCurSettings|

  00000			 AREA	 |.pdata|, PDATA
|$T49463| DCD	|$LN21@ClockUpdat|
	DCD	0x40004701

  00000			 AREA	 |.rdata|, DATA, READONLY
|??_C@_1DO@BLFNJPIJ@?$AA?9?$AA_?$AAC?$AAl?$AAo?$AAc?$AAk?$AAU?$AAp?$AAd?$AAa?$AAt?$AAe?$AAD?$AAp?$AAl?$AAl?$AAO?$AAu?$AAt?$AAp?$AAu?$AAt?$AA?$CI?$AA?$CJ?$AA?$DN?$AA?$CF?$AAd?$AA?$AN?$AA?6?$AA?$AA@| DCB "-"
	DCB	0x0, "_", 0x0, "C", 0x0, "l", 0x0, "o", 0x0, "c", 0x0, "k"
	DCB	0x0, "U", 0x0, "p", 0x0, "d", 0x0, "a", 0x0, "t", 0x0, "e"
	DCB	0x0, "D", 0x0, "p", 0x0, "l", 0x0, "l", 0x0, "O", 0x0, "u"
	DCB	0x0, "t", 0x0, "p", 0x0, "u", 0x0, "t", 0x0, "(", 0x0, ")"
	DCB	0x0, "=", 0x0, "%", 0x0, "d", 0x0, 0xd, 0x0, 0xa, 0x0, 0x0
	DCB	0x0					; `string'

  00000			 AREA	 |.rdata|, DATA, READONLY
|??_C@_1GG@DBFCOCMC@?$AA?$CL?$AA_?$AAC?$AAl?$AAo?$AAc?$AAk?$AAU?$AAp?$AAd?$AAa?$AAt?$AAe?$AAD?$AAp?$AAl?$AAl?$AAO?$AAu?$AAt?$AAp?$AAu?$AAt?$AA?$CI?$AAs?$AAr?$AAc?$AAC?$AAl?$AAk?$AAI?$AAd@| DCB "+"
	DCB	0x0, "_", 0x0, "C", 0x0, "l", 0x0, "o", 0x0, "c", 0x0, "k"
	DCB	0x0, "U", 0x0, "p", 0x0, "d", 0x0, "a", 0x0, "t", 0x0, "e"
	DCB	0x0, "D", 0x0, "p", 0x0, "l", 0x0, "l", 0x0, "O", 0x0, "u"
	DCB	0x0, "t", 0x0, "p", 0x0, "u", 0x0, "t", 0x0, "(", 0x0, "s"
	DCB	0x0, "r", 0x0, "c", 0x0, "C", 0x0, "l", 0x0, "k", 0x0, "I"
	DCB	0x0, "d", 0x0, "=", 0x0, "%", 0x0, "d", 0x0, ",", 0x0, " "
	DCB	0x0, "b", 0x0, "E", 0x0, "n", 0x0, "a", 0x0, "b", 0x0, "l"
	DCB	0x0, "e", 0x0, "=", 0x0, "%", 0x0, "d", 0x0, ")", 0x0, 0xd
	DCB	0x0, 0xa, 0x0, 0x0, 0x0			; `string'
; Function compile flags: /Ogspy

  00000			 AREA	 |.text|, CODE, ARM

  00000		 |_ClockUpdateDpllOutput| PROC

; 1140 : {

  00000		 |$LN21@ClockUpdat|
  00000	e92d43f0	 stmdb       sp!, {r4 - r9, lr}
  00004		 |$M49460|
  00004	e1a04001	 mov         r4, r1
  00008	e1a05000	 mov         r5, r0

; 1141 :     int addRef;
; 1142 :     if (!g_bSingleThreaded)

  0000c	e59f6104	 ldr         r6, [pc, #0x104]
  00010	e59f70fc	 ldr         r7, [pc, #0xFC]
  00014	e5960000	 ldr         r0, [r6]
  00018	e3500000	 cmp         r0, #0
  0001c	1a000007	 bne         |$LN18@ClockUpdat|

; 1143 :         OALMSG(OAL_FUNC, (L"+_ClockUpdateDpllOutput"
; 1144 :             L"(srcClkId=%d, bEnable=%d)\r\n", dpllClkId, bEnable)
; 1145 :             );

  00020	e5973440	 ldr         r3, [r7, #0x440]
  00024	e3130004	 tst         r3, #4
  00028	0a000004	 beq         |$LN18@ClockUpdat|
  0002c	e59f00dc	 ldr         r0, [pc, #0xDC]
  00030	e1a02004	 mov         r2, r4
  00034	e1a01005	 mov         r1, r5
  00038	eb000000	 bl          NKDbgPrintfW
  0003c	e5960000	 ldr         r0, [r6]
  00040		 |$LN18@ClockUpdat|

; 1146 : 
; 1147 :     // quick check for valid dpll source clock id's
; 1148 :     if ((UINT)dpllClkId > kDPLL_CLKOUT_COUNT) goto cleanUp;

  00040	e3550010	 cmp         r5, #0x10
  00044	8a000024	 bhi         |$cleanUp$47530|

; 1149 : 
; 1150 :     // setup increment value
; 1151 :     addRef = (bEnable != FALSE) ? 1 : -1;
; 1152 : 
; 1153 :     // update dpll refCount
; 1154 :     if ((s_DpllClkOutTable[dpllClkId].refCount == 0 && bEnable == TRUE) ||
; 1155 :         (s_DpllClkOutTable[dpllClkId].refCount == 1 && bEnable == FALSE))

  00048	e59f20bc	 ldr         r2, [pc, #0xBC]
  0004c	e3540000	 cmp         r4, #0
  00050	13a01001	 movne       r1, #1
  00054	e2823048	 add         r3, r2, #0x48
  00058	e0836185	 add         r6, r3, r5, lsl #3
  0005c	e5963004	 ldr         r3, [r6, #4]
  00060	03e01000	 mvneq       r1, #0
  00064	e1b0e003	 movs        lr, r3
  00068	1a000001	 bne         |$LN5@ClockUpdat|
  0006c	e3540001	 cmp         r4, #1
  00070	0a000003	 beq         |$LN6@ClockUpdat|
  00074		 |$LN5@ClockUpdat|
  00074	e35e0001	 cmp         lr, #1
  00078	1a000015	 bne         |$LN7@ClockUpdat|
  0007c	e3540000	 cmp         r4, #0
  00080	1a000013	 bne         |$LN7@ClockUpdat|
  00084		 |$LN6@ClockUpdat|

; 1156 :         {
; 1157 :         int dpllId = s_DpllClkOutTable[dpllClkId].dpllDomain;

  00084	e2823048	 add         r3, r2, #0x48
  00088	e7933185	 ldr         r3, [r3, +r5, lsl #3]

; 1158 : 
; 1159 :         // update vdd refCount
; 1160 :         if ((s_DpllTable[dpllId].refCount == 0 && bEnable == TRUE) ||
; 1161 :             (s_DpllTable[dpllId].refCount == 1 && bEnable == FALSE))

  0008c	e0839083	 add         r9, r3, r3, lsl #1
  00090	e0828109	 add         r8, r2, r9, lsl #2
  00094	e5983004	 ldr         r3, [r8, #4]
  00098	e1b05003	 movs        r5, r3
  0009c	1a000001	 bne         |$LN2@ClockUpdat|
  000a0	e3540001	 cmp         r4, #1
  000a4	0a000003	 beq         |$LN3@ClockUpdat|
  000a8		 |$LN2@ClockUpdat|
  000a8	e3550001	 cmp         r5, #1
  000ac	1a000006	 bne         |$LN4@ClockUpdat|
  000b0	e3540000	 cmp         r4, #0
  000b4	1a000004	 bne         |$LN4@ClockUpdat|
  000b8		 |$LN3@ClockUpdat|

; 1162 :             {
; 1163 :             // increment vdd refCount
; 1164 :             int vddId = s_DpllTable[dpllId].vddDomain;            

  000b8	e7923109	 ldr         r3, [r2, +r9, lsl #2]

; 1165 :             s_VddTable[vddId] += addRef;   

  000bc	e59f2044	 ldr         r2, [pc, #0x44]
  000c0	e7b23103	 ldr         r3, [r2, +r3, lsl #2]!
  000c4	e0833001	 add         r3, r3, r1
  000c8	e5823000	 str         r3, [r2]
  000cc		 |$LN4@ClockUpdat|

; 1166 :             }
; 1167 : 
; 1168 :         // incrment dpll refCount
; 1169 :         s_DpllTable[dpllId].refCount += addRef;

  000cc	e0853001	 add         r3, r5, r1
  000d0	e5883004	 str         r3, [r8, #4]
  000d4		 |$LN7@ClockUpdat|

; 1170 :         }
; 1171 : 
; 1172 :     // increment dpllClkSrc refCount
; 1173 :     s_DpllClkOutTable[dpllClkId].refCount += addRef;    

  000d4	e08e3001	 add         r3, lr, r1
  000d8	e5863004	 str         r3, [r6, #4]
  000dc		 |$cleanUp$47530|

; 1174 : 
; 1175 : cleanUp:    
; 1176 :     if (!g_bSingleThreaded)

  000dc	e3500000	 cmp         r0, #0
  000e0	1a000004	 bne         |$LN16@ClockUpdat|
  000e4	e5973440	 ldr         r3, [r7, #0x440]

; 1177 :         OALMSG(OAL_FUNC, (L"-_ClockUpdateDpllOutput()=%d\r\n", TRUE));

  000e8	e3130004	 tst         r3, #4
  000ec	159f0010	 ldrne       r0, [pc, #0x10]
  000f0	13a01001	 movne       r1, #1
  000f4	1b000000	 blne        NKDbgPrintfW
  000f8		 |$LN16@ClockUpdat|

; 1178 :     return TRUE;

  000f8	e3a00001	 mov         r0, #1

; 1179 : }

  000fc	e8bd43f0	 ldmia       sp!, {r4 - r9, lr}
  00100	e12fff1e	 bx          lr
  00104		 |$LN22@ClockUpdat|
  00104		 |$LN23@ClockUpdat|
  00104	00000000	 DCD         |??_C@_1DO@BLFNJPIJ@?$AA?9?$AA_?$AAC?$AAl?$AAo?$AAc?$AAk?$AAU?$AAp?$AAd?$AAa?$AAt?$AAe?$AAD?$AAp?$AAl?$AAl?$AAO?$AAu?$AAt?$AAp?$AAu?$AAt?$AA?$CI?$AA?$CJ?$AA?$DN?$AA?$CF?$AAd?$AA?$AN?$AA?6?$AA?$AA@|
  00108		 |$LN24@ClockUpdat|
  00108	00000000	 DCD         |s_VddTable|
  0010c		 |$LN25@ClockUpdat|
  0010c	00000000	 DCD         |s_DpllTable|
  00110		 |$LN26@ClockUpdat|
  00110	00000000	 DCD         |??_C@_1GG@DBFCOCMC@?$AA?$CL?$AA_?$AAC?$AAl?$AAo?$AAc?$AAk?$AAU?$AAp?$AAd?$AAa?$AAt?$AAe?$AAD?$AAp?$AAl?$AAl?$AAO?$AAu?$AAt?$AAp?$AAu?$AAt?$AA?$CI?$AAs?$AAr?$AAc?$AAC?$AAl?$AAk?$AAI?$AAd@|
  00114		 |$LN27@ClockUpdat|
  00114	00000000	 DCD         |dpCurSettings|
  00118		 |$LN28@ClockUpdat|
  00118	00000000	 DCD         |g_bSingleThreaded|
  0011c		 |$M49461|

			 ENDP  ; |_ClockUpdateDpllOutput|

	EXPORT	|_ClockHwUpdateDpllFrequency|
	IMPORT	|g_pSdrcRestore|
	IMPORT	|OmapProfilerMark|
	IMPORT	|g_pCPUInfo|
	IMPORT	|g_pSDRCRegs|
	IMPORT	|INTERRUPTS_ENABLE|
	IMPORT	|fnOALUpdateCoreFreq|

  00000			 AREA	 |.pdata|, PDATA
|$T49503| DCD	|$LN18@ClockHwUpd@3|
	DCD	0x40010401
; Function compile flags: /Ogspy

  00000			 AREA	 |.text|, CODE, ARM

  00000		 |_ClockHwUpdateDpllFrequency| PROC

; 1186 : {

  00000		 |$LN18@ClockHwUpd@3|
  00000	e92d4ff0	 stmdb       sp!, {r4 - r11, lr}
  00004		 |$M49500|
  00004	e3500000	 cmp         r0, #0

; 1187 :     BOOL bEnable;
; 1188 :     UINT cm_clken_pll;
; 1189 :     UINT cm_clksel_pll;
; 1190 :     UINT outputDivisor;
; 1191 :     UINT sdrcRfrCtrl0, sdrcRfrCtrl1;
; 1192 :     
; 1193 :     switch (dpllId)

  00008	0a0000cf	 beq         |$LN11@ClockHwUpd@3|
  0000c	e3500001	 cmp         r0, #1
  00010	0a0000ab	 beq         |$LN10@ClockHwUpd@3|
  00014	e3500002	 cmp         r0, #2
  00018	0a000047	 beq         |$LN9@ClockHwUpd@3|
  0001c	e3500003	 cmp         r0, #3
  00020	0a000022	 beq         |$LN4@ClockHwUpd@3|
  00024	e3500004	 cmp         r0, #4
  00028	1a0000ee	 bne         |$LN12@ClockHwUpd@3|

; 1316 :             break;
; 1317 : 
; 1318 :         case kDPLL5:
; 1319 :             cm_clken_pll = INREG32(&g_pPrcmCm->pOMAP_CLOCK_CONTROL_CM->CM_CLKEN2_PLL);

  0002c	e59f53c4	 ldr         r5, [pc, #0x3C4]

; 1320 :             cm_clksel_pll = INREG32(&g_pPrcmCm->pOMAP_CLOCK_CONTROL_CM->CM_CLKSEL4_PLL);
; 1321 : 
; 1322 :             // update frequency selection and frequency
; 1323 :             if (g_dwCpuFamily != CPU_FAMILY_DM37XX)

  00030	e59f33d4	 ldr         r3, [pc, #0x3D4]
  00034	e59fe3b8	 ldr         lr, [pc, #0x3B8]
  00038	e5952000	 ldr         r2, [r5]
  0003c	e5933000	 ldr         r3, [r3]

; 1324 : 			    {
; 1325 :                 cm_clken_pll &= ~(DPLL_FREQSEL_MASK);
; 1326 :                 cm_clken_pll |= DPLL_FREQSEL(_dpll_5.freqSelection);
; 1327 :                 }
; 1328 :             cm_clksel_pll &= ~(DPLL_MULT_MASK | DPLL_DIV_MASK);
; 1329 :             cm_clksel_pll |= DPLL_MULT(_dpll_5.multiplier) | DPLL_DIV(_dpll_5.divisor);

  00040	e3a00080	 mov         r0, #0x80
  00044	e5921034	 ldr         r1, [r2, #0x34]
  00048	e3530001	 cmp         r3, #1
  0004c	159e30a8	 ldrne       r3, [lr, #0xA8]
  00050	e5912004	 ldr         r2, [r1, #4]
  00054	e591404c	 ldr         r4, [r1, #0x4C]
  00058	e59e10b8	 ldr         r1, [lr, #0xB8]
  0005c	10223203	 eorne       r3, r2, r3, lsl #4
  00060	120330f0	 andne       r3, r3, #0xF0
  00064	10232002	 eorne       r2, r3, r2
  00068	e3a03c07	 mov         r3, #7, 24
  0006c	e38330ff	 orr         r3, r3, #0xFF
  00070	e59ee0bc	 ldr         lr, [lr, #0xBC]
  00074	e2400702	 sub         r0, r0, #2, 14
  00078	e0011003	 and         r1, r1, r3
  0007c	e0043000	 and         r3, r4, r0
  00080	e1831401	 orr         r1, r3, r1, lsl #8
  00084	e20e307f	 and         r3, lr, #0x7F
  00088	e3a00312	 mov         r0, #0x12, 6
  0008c	e1814003	 orr         r4, r1, r3

; 1330 : 
; 1331 :             OUTSYSREG32(OMAP_PRCM_CLOCK_CONTROL_CM_REGS, CM_CLKEN2_PLL, cm_clken_pll);

  00090	e3a01004	 mov         r1, #4
  00094	e3800c4d	 orr         r0, r0, #0x4D, 24
  00098	eb000000	 bl          OutShadowReg32

; 1332 :             OUTREG32(&g_pPrcmCm->pOMAP_CLOCK_CONTROL_CM->CM_CLKSEL4_PLL, cm_clksel_pll);

  0009c	e5953000	 ldr         r3, [r5]
  000a0	e5933034	 ldr         r3, [r3, #0x34]
  000a4	e583404c	 str         r4, [r3, #0x4C]

; 1333 :             // OMAP_PRCM_RESTORE_REGS does not have element for CM_CLKSEL4_PLL
; 1334 :             //OUTREG32(&g_pPrcmRestore->CM_CLKSEL4_PLL, cm_clksel_pll);
; 1335 :             break;
; 1336 :         }
; 1337 : }

  000a8	e8bd4ff0	 ldmia       sp!, {r4 - r11, lr}
  000ac	e12fff1e	 bx          lr
  000b0		 |$LN4@ClockHwUpd@3|

; 1296 :             break;
; 1297 : 
; 1298 :         case kDPLL4:
; 1299 :             cm_clken_pll = INREG32(&g_pPrcmCm->pOMAP_CLOCK_CONTROL_CM->CM_CLKEN_PLL);

  000b0	e59f0340	 ldr         r0, [pc, #0x340]

; 1300 :             cm_clksel_pll = INREG32(&g_pPrcmCm->pOMAP_CLOCK_CONTROL_CM->CM_CLKSEL2_PLL);
; 1301 : 
; 1302 :             // update frequency selection and frequency
; 1303 :             if (g_dwCpuFamily != CPU_FAMILY_DM37XX)

  000b4	e59f3350	 ldr         r3, [pc, #0x350]
  000b8	e59f1334	 ldr         r1, [pc, #0x334]
  000bc	e5902000	 ldr         r2, [r0]
  000c0	e5933000	 ldr         r3, [r3]

; 1304 : 			    {
; 1305 :             cm_clken_pll &= ~(DPLL_FREQSEL_MASK << DPLL_PER_MODE_SHIFT);
; 1306 :             cm_clken_pll |= DPLL_FREQSEL(_dpll_4.freqSelection) << DPLL_PER_MODE_SHIFT;
; 1307 :                 }
; 1308 :             cm_clksel_pll &= ~(DPLL_MULT_MASK | DPLL_DIV_MASK);
; 1309 :             cm_clksel_pll |= DPLL_MULT(_dpll_4.multiplier) | DPLL_DIV(_dpll_4.divisor);

  000c4	e591e090	 ldr         lr, [r1, #0x90]
  000c8	e5922034	 ldr         r2, [r2, #0x34]
  000cc	e3530001	 cmp         r3, #1
  000d0	15913080	 ldrne       r3, [r1, #0x80]
  000d4	e5925000	 ldr         r5, [r2]
  000d8	e5926044	 ldr         r6, [r2, #0x44]
  000dc	e5914094	 ldr         r4, [r1, #0x94]
  000e0	10253a03	 eorne       r3, r5, r3, lsl #20
  000e4	1203360f	 andne       r3, r3, #0xF, 12
  000e8	10235005	 eorne       r5, r3, r5

; 1310 : 
; 1311 :             OUTREG32(&g_pPrcmCm->pOMAP_CLOCK_CONTROL_CM->CM_CLKEN_PLL, cm_clken_pll);            

  000ec	e5825000	 str         r5, [r2]

; 1312 :             OUTREG32(&g_pPrcmCm->pOMAP_CLOCK_CONTROL_CM->CM_CLKSEL2_PLL, cm_clksel_pll);

  000f0	e5902000	 ldr         r2, [r0]
  000f4	e3a03c07	 mov         r3, #7, 24
  000f8	e3a01080	 mov         r1, #0x80
  000fc	e5920034	 ldr         r0, [r2, #0x34]
  00100	e38330ff	 orr         r3, r3, #0xFF
  00104	e2411702	 sub         r1, r1, #2, 14
  00108	e00e2003	 and         r2, lr, r3
  0010c	e0063001	 and         r3, r6, r1
  00110	e1832402	 orr         r2, r3, r2, lsl #8

; 1313 : 
; 1314 :             OUTREG32(&g_pPrcmRestore->CM_CLKEN_PLL, cm_clken_pll);

  00114	e59f12d4	 ldr         r1, [pc, #0x2D4]
  00118	e204307f	 and         r3, r4, #0x7F
  0011c	e1822003	 orr         r2, r2, r3
  00120	e5802044	 str         r2, [r0, #0x44]
  00124	e5913000	 ldr         r3, [r1]
  00128	e5835010	 str         r5, [r3, #0x10]

; 1315 :             OUTREG32(&g_pPrcmRestore->CM_CLKSEL2_PLL, cm_clksel_pll);

  0012c	e5913000	 ldr         r3, [r1]
  00130	e583201c	 str         r2, [r3, #0x1C]

; 1333 :             // OMAP_PRCM_RESTORE_REGS does not have element for CM_CLKSEL4_PLL
; 1334 :             //OUTREG32(&g_pPrcmRestore->CM_CLKSEL4_PLL, cm_clksel_pll);
; 1335 :             break;
; 1336 :         }
; 1337 : }

  00134	e8bd4ff0	 ldmia       sp!, {r4 - r11, lr}
  00138	e12fff1e	 bx          lr
  0013c		 |$LN9@ClockHwUpd@3|

; 1231 :             break;
; 1232 : 
; 1233 :         case kDPLL3:
; 1234 :             cm_clken_pll = INREG32(&g_pPrcmCm->pOMAP_CLOCK_CONTROL_CM->CM_CLKEN_PLL);

  0013c	e59f32b4	 ldr         r3, [pc, #0x2B4]

; 1235 :             cm_clksel_pll = INREG32(&g_pPrcmCm->pOMAP_CLOCK_CONTROL_CM->CM_CLKSEL1_PLL);
; 1236 : 
; 1237 :             // update frequency selection and frequency
; 1238 :             if (g_dwCpuFamily != CPU_FAMILY_DM37XX)

  00140	e59f22c4	 ldr         r2, [pc, #0x2C4]
  00144	e59f62a8	 ldr         r6, [pc, #0x2A8]
  00148	e5931000	 ldr         r1, [r3]
  0014c	e5923000	 ldr         r3, [r2]

; 1239 : 			    {
; 1240 :             cm_clken_pll &= ~DPLL_FREQSEL_MASK;
; 1241 :             cm_clken_pll |= DPLL_FREQSEL(_dpll_3.freqSelection)  /*|(0x3 << 8) | (1 << 3)*/;
; 1242 :                 }
; 1243 :             cm_clksel_pll &= ~DPLL_CORE_CLKOUT_DIV_MASK;
; 1244 :             cm_clksel_pll &= ~((DPLL_MULT_MASK | DPLL_DIV_MASK) << DPLL_CORE_CLKSEL_SHIFT);
; 1245 :             cm_clksel_pll |= (DPLL_MULT(_dpll_3.multiplier) | DPLL_DIV(_dpll_3.divisor)) << DPLL_CORE_CLKSEL_SHIFT;
; 1246 :             cm_clksel_pll |= _dpll_3.outputDivisor << DPLL_CORE_CLKOUT_DIV_SHIFT;

  00150	e5960068	 ldr         r0, [r6, #0x68]
  00154	e5912034	 ldr         r2, [r1, #0x34]
  00158	e3530001	 cmp         r3, #1
  0015c	15963058	 ldrne       r3, [r6, #0x58]
  00160	e5925000	 ldr         r5, [r2]
  00164	e592e040	 ldr         lr, [r2, #0x40]
  00168	e5961074	 ldr         r1, [r6, #0x74]
  0016c	10253203	 eorne       r3, r5, r3, lsl #4
  00170	120330f0	 andne       r3, r3, #0xF0
  00174	10235005	 eorne       r5, r3, r5
  00178	e3a03c07	 mov         r3, #7, 24
  0017c	e596206c	 ldr         r2, [r6, #0x6C]
  00180	e38330ff	 orr         r3, r3, #0xFF
  00184	e0003003	 and         r3, r0, r3
  00188	e1831581	 orr         r1, r3, r1, lsl #11
  0018c	e3a00902	 mov         r0, #2, 18
  00190	e202307f	 and         r3, r2, #0x7F
  00194	e38020ff	 orr         r2, r0, #0xFF
  00198	e1831401	 orr         r1, r3, r1, lsl #8
  0019c	e00e3002	 and         r3, lr, r2

; 1247 : 
; 1248 :             //  Need to perform this in SRAM
; 1249 :             bEnable = INTERRUPTS_ENABLE(FALSE);   

  001a0	e3a00000	 mov         r0, #0
  001a4	e183a401	 orr         r10, r3, r1, lsl #8
  001a8	eb000000	 bl          INTERRUPTS_ENABLE

; 1250 : 
; 1251 :             sdrcRfrCtrl0 = INREG32(&g_pSDRCRegs->SDRC_RFR_CTRL_0);

  001ac	e59f4254	 ldr         r4, [pc, #0x254]

; 1252 :             sdrcRfrCtrl1 = INREG32(&g_pSDRCRegs->SDRC_RFR_CTRL_1);
; 1253 : 
; 1254 :             sdrcRfrCtrl0 &= ~SDRC_RFR_CTRL_ARCV_MASK;
; 1255 :             sdrcRfrCtrl1 &= ~SDRC_RFR_CTRL_ARCV_MASK;
; 1256 :             
; 1257 :             // Update the ARCV before updating the core frequency
; 1258 :             if (_dpll_3.outputDivisor == 1)

  001b0	e5962074	 ldr         r2, [r6, #0x74]
  001b4	e3a034ff	 mov         r3, #0xFF, 8
  001b8	e38310ff	 orr         r1, r3, #0xFF
  001bc	e5943000	 ldr         r3, [r4]
  001c0	e3520001	 cmp         r2, #1

; 1259 :                 {
; 1260 :                 // Core @ 332 MHZ
; 1261 :                 sdrcRfrCtrl0 |= (g_pCPUInfo->SDRC_HIGH_RFR_FREQ << SDRC_RFR_CTRL_ARCV_SHIFT);

  001c4	e59f7238	 ldr         r7, [pc, #0x238]
  001c8	e59320a4	 ldr         r2, [r3, #0xA4]
  001cc	e59330d4	 ldr         r3, [r3, #0xD4]
  001d0	e1a0b000	 mov         r11, r0
  001d4	e002e001	 and         lr, r2, r1
  001d8	e0031001	 and         r1, r3, r1

; 1262 :                 sdrcRfrCtrl1 |= (g_pCPUInfo->SDRC_HIGH_RFR_FREQ << SDRC_RFR_CTRL_ARCV_SHIFT);
; 1263 :                 g_pCPUInfo->DPLL_ARGS[0] = DVFS_HIGH_OPP_STALL;

  001dc	e5973000	 ldr         r3, [r7]
  001e0	1a000009	 bne         |$LN7@ClockHwUpd@3|
  001e4	e5932028	 ldr         r2, [r3, #0x28]
  001e8	e3a00010	 mov         r0, #0x10
  001ec	e5830038	 str         r0, [r3, #0x38]

; 1264 :                 OUTREG32(&g_pSDRCRegs->SDRC_RFR_CTRL_0, sdrcRfrCtrl0);

  001f0	e5943000	 ldr         r3, [r4]
  001f4	e18e8402	 orr         r8, lr, r2, lsl #8
  001f8	e1819402	 orr         r9, r1, r2, lsl #8
  001fc	e58380a4	 str         r8, [r3, #0xA4]

; 1265 :                 OUTREG32(&g_pSDRCRegs->SDRC_RFR_CTRL_1, sdrcRfrCtrl1);

  00200	e5943000	 ldr         r3, [r4]
  00204	e58390d4	 str         r9, [r3, #0xD4]

; 1266 : 				
; 1267 :                 }
; 1268 :             else

  00208	ea000004	 b           |$LN6@ClockHwUpd@3|
  0020c		 |$LN7@ClockHwUpd@3|

; 1269 :                 {
; 1270 :                 // Core @ 166 MHZ
; 1271 :                 sdrcRfrCtrl0 |= (g_pCPUInfo->SDRC_LOW_RFR_FREQ << SDRC_RFR_CTRL_ARCV_SHIFT);
; 1272 :                 sdrcRfrCtrl1 |= (g_pCPUInfo->SDRC_LOW_RFR_FREQ << SDRC_RFR_CTRL_ARCV_SHIFT);
; 1273 :                 g_pCPUInfo->DPLL_ARGS[0] = DVFS_LOW_OPP_STALL;

  0020c	e593202c	 ldr         r2, [r3, #0x2C]
  00210	e3a00000	 mov         r0, #0
  00214	e5830038	 str         r0, [r3, #0x38]
  00218	e18e8402	 orr         r8, lr, r2, lsl #8
  0021c	e1819402	 orr         r9, r1, r2, lsl #8
  00220		 |$LN6@ClockHwUpd@3|

; 1274 :                 }
; 1275 :             
; 1276 : 
; 1277 :             OMAP_PROFILE_MARK(PROFILE_CORE1_DVFS_BEGIN, 0);

  00220	e3a01000	 mov         r1, #0
  00224	e3a00000	 mov         r0, #0
  00228	eb000000	 bl          OmapProfilerMark

; 1278 :             fnOALUpdateCoreFreq(g_pCPUInfo, cm_clken_pll, cm_clksel_pll);

  0022c	e59f31cc	 ldr         r3, [pc, #0x1CC]
  00230	e5970000	 ldr         r0, [r7]
  00234	e1a0200a	 mov         r2, r10
  00238	e5933000	 ldr         r3, [r3]
  0023c	e1a01005	 mov         r1, r5
  00240	e1a0e00f	 mov         lr, pc
  00244	e12fff13	 bx          r3

; 1279 :             OMAP_PROFILE_MARK(PROFILE_CORE1_DVFS_END, 0);

  00248	e3a01000	 mov         r1, #0
  0024c	e3a00001	 mov         r0, #1
  00250	eb000000	 bl          OmapProfilerMark

; 1280 :             INTERRUPTS_ENABLE(bEnable);

  00254	e1a0000b	 mov         r0, r11
  00258	eb000000	 bl          INTERRUPTS_ENABLE

; 1281 : 
; 1282 :             if (_dpll_3.outputDivisor != 1)

  0025c	e5963074	 ldr         r3, [r6, #0x74]

; 1283 :             {
; 1284 :                 OUTREG32(&g_pSDRCRegs->SDRC_RFR_CTRL_0, sdrcRfrCtrl0);
; 1285 :                 OUTREG32(&g_pSDRCRegs->SDRC_RFR_CTRL_1, sdrcRfrCtrl1);	
; 1286 :             }
; 1287 : 
; 1288 :             // save updated frequencies
; 1289 :             OUTREG32(&g_pPrcmRestore->CM_CLKEN_PLL, cm_clken_pll);

  00260	e59f2188	 ldr         r2, [pc, #0x188]

; 1290 :             OUTREG32(&g_pPrcmRestore->CM_CLKSEL1_PLL, cm_clksel_pll);
; 1291 : 
; 1292 :             // save updated sdram timings
; 1293 :             OUTREG32(&g_pSdrcRestore->DLLA_CTRL, INREG32(&g_pSDRCRegs->SDRC_DLLA_CTRL));

  00264	e59f1190	 ldr         r1, [pc, #0x190]
  00268	e3530001	 cmp         r3, #1
  0026c	15943000	 ldrne       r3, [r4]
  00270	158380a4	 strne       r8, [r3, #0xA4]
  00274	15943000	 ldrne       r3, [r4]
  00278	158390d4	 strne       r9, [r3, #0xD4]
  0027c	e5923000	 ldr         r3, [r2]
  00280	e5835010	 str         r5, [r3, #0x10]
  00284	e5923000	 ldr         r3, [r2]
  00288	e583a018	 str         r10, [r3, #0x18]
  0028c	e5943000	 ldr         r3, [r4]
  00290	e5912000	 ldr         r2, [r1]
  00294	e5933060	 ldr         r3, [r3, #0x60]
  00298	e5823008	 str         r3, [r2, #8]

; 1294 :             OUTREG32(&g_pSdrcRestore->RFR_CTRL_0, INREG32(&g_pSDRCRegs->SDRC_RFR_CTRL_0));

  0029c	e5943000	 ldr         r3, [r4]
  002a0	e5912000	 ldr         r2, [r1]
  002a4	e59330a4	 ldr         r3, [r3, #0xA4]
  002a8	e582302c	 str         r3, [r2, #0x2C]

; 1295 :             OUTREG32(&g_pSdrcRestore->RFR_CTRL_1, INREG32(&g_pSDRCRegs->SDRC_RFR_CTRL_1));

  002ac	e5943000	 ldr         r3, [r4]
  002b0	e5912000	 ldr         r2, [r1]
  002b4	e59330d4	 ldr         r3, [r3, #0xD4]
  002b8	e5823048	 str         r3, [r2, #0x48]

; 1333 :             // OMAP_PRCM_RESTORE_REGS does not have element for CM_CLKSEL4_PLL
; 1334 :             //OUTREG32(&g_pPrcmRestore->CM_CLKSEL4_PLL, cm_clksel_pll);
; 1335 :             break;
; 1336 :         }
; 1337 : }

  002bc	e8bd4ff0	 ldmia       sp!, {r4 - r11, lr}
  002c0	e12fff1e	 bx          lr
  002c4		 |$LN10@ClockHwUpd@3|

; 1214 :             break;
; 1215 : 
; 1216 :         case kDPLL2:
; 1217 :             cm_clken_pll = INREG32(&g_pPrcmCm->pOMAP_IVA2_CM->CM_CLKEN_PLL_IVA2);

  002c4	e59f812c	 ldr         r8, [pc, #0x12C]

; 1218 :             cm_clksel_pll = INREG32(&g_pPrcmCm->pOMAP_IVA2_CM->CM_CLKSEL1_PLL_IVA2);
; 1219 : 
; 1220 :             // update frequency selection and frequency
; 1221 :             cm_clken_pll &= ~DPLL_FREQSEL_MASK;
; 1222 :             cm_clken_pll |= DPLL_FREQSEL(_dpll_2.freqSelection); 
; 1223 :             cm_clksel_pll &= ~(DPLL_CLK_SRC_MASK | DPLL_MULT_MASK | DPLL_DIV_MASK);
; 1224 :             cm_clksel_pll |= DPLL_CLK_SRC(_dpll_2.sourceDivisor);
; 1225 :             cm_clksel_pll |= DPLL_MULT(_dpll_2.multiplier) | DPLL_DIV(_dpll_2.divisor);

  002c8	e59f5124	 ldr         r5, [pc, #0x124]
  002cc	e3a09c07	 mov         r9, #7, 24
  002d0	e5983000	 ldr         r3, [r8]

; 1226 :             outputDivisor = _dpll_2.outputDivisor << DPLL_IVA2_CLKOUT_DIV_SHIFT;
; 1227 : 
; 1228 :             OUTREG32(&g_pPrcmCm->pOMAP_IVA2_CM->CM_CLKEN_PLL_IVA2, cm_clken_pll);

  002d4	e5951030	 ldr         r1, [r5, #0x30]
  002d8	e595603c	 ldr         r6, [r5, #0x3C]
  002dc	e5930020	 ldr         r0, [r3, #0x20]
  002e0	e5954040	 ldr         r4, [r5, #0x40]
  002e4	e5957044	 ldr         r7, [r5, #0x44]
  002e8	e5902004	 ldr         r2, [r0, #4]
  002ec	e590e040	 ldr         lr, [r0, #0x40]
  002f0	e595504c	 ldr         r5, [r5, #0x4C]
  002f4	e0223201	 eor         r3, r2, r1, lsl #4
  002f8	e20330f0	 and         r3, r3, #0xF0
  002fc	e0233002	 eor         r3, r3, r2
  00300	e5803004	 str         r3, [r0, #4]

; 1229 :             OUTREG32(&g_pPrcmCm->pOMAP_IVA2_CM->CM_CLKSEL1_PLL_IVA2, cm_clksel_pll);

  00304	e38930ff	 orr         r3, r9, #0xFF
  00308	e3a014ff	 mov         r1, #0xFF, 8
  0030c	e0043003	 and         r3, r4, r3
  00310	e5980000	 ldr         r0, [r8]
  00314	e206201f	 and         r2, r6, #0x1F
  00318	e3811080	 orr         r1, r1, #0x80
  0031c	e1832582	 orr         r2, r3, r2, lsl #11
  00320	e00e3001	 and         r3, lr, r1
  00324	e5900020	 ldr         r0, [r0, #0x20]
  00328	e1832402	 orr         r2, r3, r2, lsl #8
  0032c	e207307f	 and         r3, r7, #0x7F
  00330	e1823003	 orr         r3, r2, r3
  00334	e5803040	 str         r3, [r0, #0x40]

; 1230 :             OUTREG32(&g_pPrcmCm->pOMAP_IVA2_CM->CM_CLKSEL2_PLL_IVA2, outputDivisor);

  00338	e5983000	 ldr         r3, [r8]
  0033c	e5933020	 ldr         r3, [r3, #0x20]
  00340	e5835044	 str         r5, [r3, #0x44]

; 1333 :             // OMAP_PRCM_RESTORE_REGS does not have element for CM_CLKSEL4_PLL
; 1334 :             //OUTREG32(&g_pPrcmRestore->CM_CLKSEL4_PLL, cm_clksel_pll);
; 1335 :             break;
; 1336 :         }
; 1337 : }

  00344	e8bd4ff0	 ldmia       sp!, {r4 - r11, lr}
  00348	e12fff1e	 bx          lr
  0034c		 |$LN11@ClockHwUpd@3|

; 1194 :         {
; 1195 :         case kDPLL1:
; 1196 :             cm_clken_pll = INREG32(&g_pPrcmCm->pOMAP_MPU_CM->CM_CLKEN_PLL_MPU);

  0034c	e59f90a4	 ldr         r9, [pc, #0xA4]

; 1197 :             cm_clksel_pll = INREG32(&g_pPrcmCm->pOMAP_MPU_CM->CM_CLKSEL1_PLL_MPU);
; 1198 : 
; 1199 :             // update frequency selection and frequency
; 1200 :             cm_clken_pll &= ~DPLL_FREQSEL_MASK;
; 1201 :             cm_clken_pll |= DPLL_FREQSEL(_dpll_1.freqSelection); 

  00350	e59f509c	 ldr         r5, [pc, #0x9C]
  00354	e3a0ac07	 mov         r10, #7, 24
  00358	e5993000	 ldr         r3, [r9]
  0035c	e5951008	 ldr         r1, [r5, #8]

; 1202 :             cm_clksel_pll &= ~(DPLL_CLK_SRC_MASK | DPLL_MULT_MASK | DPLL_DIV_MASK);
; 1203 :             cm_clksel_pll |= DPLL_CLK_SRC(_dpll_1.sourceDivisor);
; 1204 :             cm_clksel_pll |= DPLL_MULT(_dpll_1.multiplier) | DPLL_DIV(_dpll_1.divisor);

  00360	e5956014	 ldr         r6, [r5, #0x14]
  00364	e5930014	 ldr         r0, [r3, #0x14]
  00368	e5954018	 ldr         r4, [r5, #0x18]
  0036c	e595701c	 ldr         r7, [r5, #0x1C]
  00370	e5902004	 ldr         r2, [r0, #4]
  00374	e590e040	 ldr         lr, [r0, #0x40]

; 1205 :             outputDivisor = _dpll_1.outputDivisor << DPLL_MPU_CLKOUT_DIV_SHIFT;

  00378	e5955024	 ldr         r5, [r5, #0x24]
  0037c	e0223201	 eor         r3, r2, r1, lsl #4
  00380	e20330f0	 and         r3, r3, #0xF0
  00384	e0238002	 eor         r8, r3, r2

; 1206 : 
; 1207 :             OUTREG32(&g_pPrcmCm->pOMAP_MPU_CM->CM_CLKEN_PLL_MPU, cm_clken_pll);            
; 1208 :             OUTREG32(&g_pPrcmCm->pOMAP_MPU_CM->CM_CLKSEL1_PLL_MPU, cm_clksel_pll);

  00388	e38a30ff	 orr         r3, r10, #0xFF
  0038c	e3a014ff	 mov         r1, #0xFF, 8
  00390	e0043003	 and         r3, r4, r3
  00394	e206201f	 and         r2, r6, #0x1F
  00398	e5808004	 str         r8, [r0, #4]
  0039c	e5990000	 ldr         r0, [r9]
  003a0	e3811080	 orr         r1, r1, #0x80
  003a4	e1832582	 orr         r2, r3, r2, lsl #11
  003a8	e00e3001	 and         r3, lr, r1
  003ac	e5900014	 ldr         r0, [r0, #0x14]
  003b0	e1832402	 orr         r2, r3, r2, lsl #8
  003b4	e207307f	 and         r3, r7, #0x7F
  003b8	e1821003	 orr         r1, r2, r3
  003bc	e5801040	 str         r1, [r0, #0x40]

; 1209 :             OUTREG32(&g_pPrcmCm->pOMAP_MPU_CM->CM_CLKSEL2_PLL_MPU, outputDivisor);

  003c0	e5993000	 ldr         r3, [r9]

; 1210 : 
; 1211 :             OUTREG32(&g_pPrcmRestore->CM_CLKEN_PLL_MPU, cm_clken_pll);

  003c4	e59f2024	 ldr         r2, [pc, #0x24]
  003c8	e5933014	 ldr         r3, [r3, #0x14]
  003cc	e5835044	 str         r5, [r3, #0x44]
  003d0	e5923000	 ldr         r3, [r2]
  003d4	e5838024	 str         r8, [r3, #0x24]

; 1212 :             OUTREG32(&g_pPrcmRestore->CM_CLKSEL1_PLL_MPU, cm_clksel_pll);

  003d8	e5923000	 ldr         r3, [r2]
  003dc	e583102c	 str         r1, [r3, #0x2C]

; 1213 :             OUTREG32(&g_pPrcmRestore->CM_CLKSEL2_PLL_MPU, outputDivisor);

  003e0	e5923000	 ldr         r3, [r2]
  003e4	e5835030	 str         r5, [r3, #0x30]
  003e8		 |$LN12@ClockHwUpd@3|

; 1333 :             // OMAP_PRCM_RESTORE_REGS does not have element for CM_CLKSEL4_PLL
; 1334 :             //OUTREG32(&g_pPrcmRestore->CM_CLKSEL4_PLL, cm_clksel_pll);
; 1335 :             break;
; 1336 :         }
; 1337 : }

  003e8	e8bd4ff0	 ldmia       sp!, {r4 - r11, lr}
  003ec	e12fff1e	 bx          lr
  003f0		 |$LN19@ClockHwUpd@3|
  003f0		 |$LN20@ClockHwUpd@3|
  003f0	00000000	 DCD         |g_pPrcmRestore|
  003f4		 |$LN21@ClockHwUpd@3|
  003f4	00000000	 DCD         |_dpll_1|
  003f8		 |$LN22@ClockHwUpd@3|
  003f8	00000000	 DCD         |g_pPrcmCm|
  003fc		 |$LN23@ClockHwUpd@3|
  003fc	00000000	 DCD         |g_pSdrcRestore|
  00400		 |$LN24@ClockHwUpd@3|
  00400	00000000	 DCD         |fnOALUpdateCoreFreq|
  00404		 |$LN25@ClockHwUpd@3|
  00404	00000000	 DCD         |g_pCPUInfo|
  00408		 |$LN26@ClockHwUpd@3|
  00408	00000000	 DCD         |g_pSDRCRegs|
  0040c		 |$LN27@ClockHwUpd@3|
  0040c	00000000	 DCD         |g_dwCpuFamily|
  00410		 |$M49501|

			 ENDP  ; |_ClockHwUpdateDpllFrequency|

	EXPORT	|ClockInitialize|
	EXPORT	|??_C@_1DA@BGHIJONJ@?$AA?9?$AAC?$AAl?$AAo?$AAc?$AAk?$AAI?$AAn?$AAi?$AAt?$AAi?$AAa?$AAl?$AAi?$AAz?$AAe?$AA?$CI?$AA?$CJ?$AA?$DN?$AA?$CF?$AAd?$AA?$AN?$AA?6?$AA?$AA@| [ DATA ] ; `string'
	EXPORT	|??_C@_1CK@FHFJABDF@?$AA?$CL?$AAC?$AAl?$AAo?$AAc?$AAk?$AAI?$AAn?$AAi?$AAt?$AAi?$AAa?$AAl?$AAi?$AAz?$AAe?$AA?$CI?$AA?$CJ?$AA?$AN?$AA?6?$AA?$AA@| [ DATA ] ; `string'

  00000			 AREA	 |.pdata|, PDATA
|$T49564| DCD	|$LN56@ClockIniti|
	DCD	0x40006001

  00000			 AREA	 |.rdata|, DATA, READONLY
|??_C@_1DA@BGHIJONJ@?$AA?9?$AAC?$AAl?$AAo?$AAc?$AAk?$AAI?$AAn?$AAi?$AAt?$AAi?$AAa?$AAl?$AAi?$AAz?$AAe?$AA?$CI?$AA?$CJ?$AA?$DN?$AA?$CF?$AAd?$AA?$AN?$AA?6?$AA?$AA@| DCB "-"
	DCB	0x0, "C", 0x0, "l", 0x0, "o", 0x0, "c", 0x0, "k", 0x0, "I"
	DCB	0x0, "n", 0x0, "i", 0x0, "t", 0x0, "i", 0x0, "a", 0x0, "l"
	DCB	0x0, "i", 0x0, "z", 0x0, "e", 0x0, "(", 0x0, ")", 0x0, "="
	DCB	0x0, "%", 0x0, "d", 0x0, 0xd, 0x0, 0xa, 0x0, 0x0, 0x0 ; `string'

  00000			 AREA	 |.rdata|, DATA, READONLY
|??_C@_1CK@FHFJABDF@?$AA?$CL?$AAC?$AAl?$AAo?$AAc?$AAk?$AAI?$AAn?$AAi?$AAt?$AAi?$AAa?$AAl?$AAi?$AAz?$AAe?$AA?$CI?$AA?$CJ?$AA?$AN?$AA?6?$AA?$AA@| DCB "+"
	DCB	0x0, "C", 0x0, "l", 0x0, "o", 0x0, "c", 0x0, "k", 0x0, "I"
	DCB	0x0, "n", 0x0, "i", 0x0, "t", 0x0, "i", 0x0, "a", 0x0, "l"
	DCB	0x0, "i", 0x0, "z", 0x0, "e", 0x0, "(", 0x0, ")", 0x0, 0xd
	DCB	0x0, 0xa, 0x0, 0x0, 0x0			; `string'
; Function compile flags: /Ogspy

  00000			 AREA	 |.text|, CODE, ARM

  00000		 |ClockInitialize| PROC

; 1342 : {

  00000		 |$LN56@ClockIniti|
  00000	e92d4070	 stmdb       sp!, {r4 - r6, lr}
  00004		 |$M49561|

; 1343 :     BOOL rc = TRUE;
; 1344 :     UINT i;
; 1345 :    // UINT cm_clken_pll;
; 1346 :     UINT cm_clksel_pll;
; 1347 :    // UINT cm_autoidle_pll;
; 1348 :     UINT outputDivisor;
; 1349 :     UINT cm_clksel_per;
; 1350 :     UINT parentClock = 0;
; 1351 :     SrcClockDivisorTable_t *pDivisors;
; 1352 : 
; 1353 :     OALMSG(1, (L"+ClockInitialize()\r\n"));

  00004	e59f0170	 ldr         r0, [pc, #0x170]
  00008	e3a04000	 mov         r4, #0
  0000c	eb000000	 bl          NKDbgPrintfW

; 1354 : 
; 1355 :     // initialize dpll settings with what's current set in hw
; 1356 : /*
; 1357 :     // dpll 1    
; 1358 :     cm_clken_pll = INREG32(&g_pPrcmCm->pOMAP_MPU_CM->CM_CLKEN_PLL_MPU);
; 1359 :     cm_clksel_pll = INREG32(&g_pPrcmCm->pOMAP_MPU_CM->CM_CLKSEL1_PLL_MPU);
; 1360 :     cm_autoidle_pll = INREG32(&g_pPrcmCm->pOMAP_MPU_CM->CM_AUTOIDLE_PLL_MPU);
; 1361 :     outputDivisor = INREG32(&g_pPrcmCm->pOMAP_MPU_CM->CM_CLKSEL2_PLL_MPU) >> DPLL_MPU_CLKOUT_DIV_SHIFT;
; 1362 :     _ClockInitialize(&_dpll_1, cm_clken_pll, cm_clksel_pll, cm_autoidle_pll, outputDivisor);
; 1363 : 
; 1364 :     // dpll 2    
; 1365 :     cm_clken_pll = INREG32(&g_pPrcmCm->pOMAP_IVA2_CM->CM_CLKEN_PLL_IVA2);
; 1366 :     cm_clksel_pll = INREG32(&g_pPrcmCm->pOMAP_IVA2_CM->CM_CLKSEL1_PLL_IVA2);
; 1367 :     cm_autoidle_pll = INREG32(&g_pPrcmCm->pOMAP_IVA2_CM->CM_AUTOIDLE_PLL_IVA2);
; 1368 :     outputDivisor = INREG32(&g_pPrcmCm->pOMAP_IVA2_CM->CM_CLKSEL2_PLL_IVA2) >> DPLL_IVA2_CLKOUT_DIV_SHIFT;
; 1369 :     _ClockInitialize(&_dpll_2, cm_clken_pll, cm_clksel_pll, cm_autoidle_pll, outputDivisor);
; 1370 : 
; 1371 :     // dpll 3
; 1372 :     cm_clken_pll = INREG32(&g_pPrcmCm->pOMAP_CLOCK_CONTROL_CM->CM_CLKEN_PLL);
; 1373 :     cm_clksel_pll = INREG32(&g_pPrcmCm->pOMAP_CLOCK_CONTROL_CM->CM_CLKSEL1_PLL) >> DPLL_CORE_CLKSEL_SHIFT;
; 1374 :     cm_autoidle_pll = INREG32(&g_pPrcmCm->pOMAP_CLOCK_CONTROL_CM->CM_AUTOIDLE_PLL);
; 1375 :     outputDivisor = INREG32(&g_pPrcmCm->pOMAP_CLOCK_CONTROL_CM->CM_CLKSEL1_PLL) >> DPLL_CORE_CLKOUT_DIV_SHIFT;
; 1376 :     _ClockInitialize(&_dpll_3, cm_clken_pll, cm_clksel_pll, cm_autoidle_pll, outputDivisor);
; 1377 : 
; 1378 :     // dpll 4
; 1379 :     outputDivisor = (UINT)-1;
; 1380 :     cm_clken_pll = INREG32(&g_pPrcmCm->pOMAP_CLOCK_CONTROL_CM->CM_CLKEN_PLL) >> DPLL_PER_MODE_SHIFT;
; 1381 :     cm_clksel_pll = INREG32(&g_pPrcmCm->pOMAP_CLOCK_CONTROL_CM->CM_CLKSEL2_PLL);
; 1382 :     cm_autoidle_pll = INREG32(&g_pPrcmCm->pOMAP_CLOCK_CONTROL_CM->CM_AUTOIDLE_PLL) >> DPLL_PER_MODE_SHIFT;
; 1383 :     _ClockInitialize(&_dpll_4, cm_clken_pll, cm_clksel_pll, cm_autoidle_pll, outputDivisor);
; 1384 : 
; 1385 :     // dpll 5
; 1386 :     outputDivisor = (UINT)-1;
; 1387 :     cm_clken_pll = INREG32(&g_pPrcmCm->pOMAP_CLOCK_CONTROL_CM->CM_CLKEN2_PLL);
; 1388 :     cm_clksel_pll = INREG32(&g_pPrcmCm->pOMAP_CLOCK_CONTROL_CM->CM_CLKSEL4_PLL);
; 1389 :     cm_autoidle_pll = INREG32(&g_pPrcmCm->pOMAP_CLOCK_CONTROL_CM->CM_AUTOIDLE2_PLL);
; 1390 :     _ClockInitialize(&_dpll_5, cm_clken_pll, cm_clksel_pll, cm_autoidle_pll, outputDivisor);
; 1391 : */
; 1392 :     // Save dss clksel configuration
; 1393 :     pDivisors = s_SrcClockTable[kDSS1_ALWON_FCLK].pDivisors;
; 1394 :     pDivisors->SourceClock[0].divisor = CLKSEL_DSS1(INREG32(&g_pPrcmCm->pOMAP_DSS_CM->CM_CLKSEL_DSS));

  00010	e59f1160	 ldr         r1, [pc, #0x160]
  00014	e59f0158	 ldr         r0, [pc, #0x158]
  00018	e5913000	 ldr         r3, [r1]
  0001c	e5902098	 ldr         r2, [r0, #0x98]
  00020	e5933018	 ldr         r3, [r3, #0x18]
  00024	e5933040	 ldr         r3, [r3, #0x40]
  00028	e203301f	 and         r3, r3, #0x1F
  0002c	e5823008	 str         r3, [r2, #8]

; 1395 : 
; 1396 :     // Save Tv out clksel configuration
; 1397 :     //brian pDivisors = s_SrcClockTable[k54M_FCLK].pDivisors;
; 1398 :     //brian pDivisors->SourceClock[0].divisor = CLKSEL_TV(INREG32(&g_pPrcmCm->pOMAP_DSS_CM->CM_CLKSEL_DSS));
; 1399 : 
; 1400 :     // set GPTimer2(used as high perfomance timer)  to use SYSCLK
; 1401 :     SETREG32(&g_pPrcmCm->pOMAP_PER_CM->CM_CLKSEL_PER, CLKSEL_GPT2);

  00030	e5913000	 ldr         r3, [r1]
  00034	e5932008	 ldr         r2, [r3, #8]
  00038	e5923040	 ldr         r3, [r2, #0x40]
  0003c	e3833001	 orr         r3, r3, #1
  00040	e5823040	 str         r3, [r2, #0x40]

; 1402 : 	
; 1403 :     // Save  PER CLKSEL configuration    
; 1404 :     cm_clksel_per = INREG32(&g_pPrcmCm->pOMAP_PER_CM->CM_CLKSEL_PER);

  00044	e5912000	 ldr         r2, [r1]
  00048	e5923008	 ldr         r3, [r2, #8]
  0004c	e5933040	 ldr         r3, [r3, #0x40]

; 1405 :     s_SrcClockTable[kGPT2_ALWON_FCLK].parentClk = (cm_clksel_per & CLKSEL_GPT2) ? kSYS_CLK : k32K_FCLK;

  00050	e3130001	 tst         r3, #1
  00054	13a0100c	 movne       r1, #0xC
  00058	03a0100b	 moveq       r1, #0xB

; 1406 :     s_SrcClockTable[kGPT3_ALWON_FCLK].parentClk = (cm_clksel_per & CLKSEL_GPT3) ? kSYS_CLK : k32K_FCLK;

  0005c	e3130002	 tst         r3, #2
  00060	e58015dc	 str         r1, [r0, #0x5DC]
  00064	13a0100c	 movne       r1, #0xC
  00068	03a0100b	 moveq       r1, #0xB

; 1407 :     s_SrcClockTable[kGPT4_ALWON_FCLK].parentClk = (cm_clksel_per & CLKSEL_GPT4) ? kSYS_CLK : k32K_FCLK;

  0006c	e3130004	 tst         r3, #4
  00070	e58015f0	 str         r1, [r0, #0x5F0]
  00074	13a0100c	 movne       r1, #0xC
  00078	03a0100b	 moveq       r1, #0xB

; 1408 :     s_SrcClockTable[kGPT5_ALWON_FCLK].parentClk = (cm_clksel_per & CLKSEL_GPT5) ? kSYS_CLK : k32K_FCLK;

  0007c	e3130008	 tst         r3, #8
  00080	e5801604	 str         r1, [r0, #0x604]
  00084	13a0100c	 movne       r1, #0xC
  00088	03a0100b	 moveq       r1, #0xB

; 1409 :     s_SrcClockTable[kGPT6_ALWON_FCLK].parentClk = (cm_clksel_per & CLKSEL_GPT6) ? kSYS_CLK : k32K_FCLK;

  0008c	e3130010	 tst         r3, #0x10
  00090	e5801618	 str         r1, [r0, #0x618]
  00094	13a0100c	 movne       r1, #0xC
  00098	03a0100b	 moveq       r1, #0xB

; 1410 :     s_SrcClockTable[kGPT7_ALWON_FCLK].parentClk = (cm_clksel_per & CLKSEL_GPT7) ? kSYS_CLK : k32K_FCLK;

  0009c	e3130020	 tst         r3, #0x20
  000a0	e580162c	 str         r1, [r0, #0x62C]
  000a4	13a0100c	 movne       r1, #0xC
  000a8	03a0100b	 moveq       r1, #0xB

; 1411 :     s_SrcClockTable[kGPT8_ALWON_FCLK].parentClk = (cm_clksel_per & CLKSEL_GPT8) ? kSYS_CLK : k32K_FCLK;

  000ac	e3130040	 tst         r3, #0x40
  000b0	e5801640	 str         r1, [r0, #0x640]
  000b4	13a0100c	 movne       r1, #0xC
  000b8	03a0100b	 moveq       r1, #0xB

; 1412 :     s_SrcClockTable[kGPT9_ALWON_FCLK].parentClk = (cm_clksel_per & CLKSEL_GPT9) ? kSYS_CLK : k32K_FCLK;    

  000bc	e3130080	 tst         r3, #0x80
  000c0	13a0300c	 movne       r3, #0xC
  000c4	03a0300b	 moveq       r3, #0xB
  000c8	e5801654	 str         r1, [r0, #0x654]
  000cc	e5803668	 str         r3, [r0, #0x668]

; 1413 : 
; 1414 :     // Save camera clksel configuration
; 1415 :     //brian pDivisors = s_SrcClockTable[kCAM_MCLK].pDivisors;
; 1416 :     //brian pDivisors->SourceClock[0].divisor = CLKSEL_CAM(INREG32(&g_pPrcmCm->pOMAP_CAM_CM->CM_CLKSEL_CAM));
; 1417 : 
; 1418 :     // Save Sgx clksel configuration
; 1419 :     cm_clksel_pll = INREG32(&g_pPrcmCm->pOMAP_SGX_CM->CM_CLKSEL_SGX);

  000d0	e5923028	 ldr         r3, [r2, #0x28]
  000d4	e5933040	 ldr         r3, [r3, #0x40]

; 1420 :     switch (cm_clksel_pll & CLKSEL_SGX_MASK)

  000d8	e203e007	 and         lr, r3, #7
  000dc	e35e0007	 cmp         lr, #7
  000e0	8a00000b	 bhi         |$LN13@ClockIniti|
  000e4	e28f3004	 add         r3, pc, #4
  000e8	e7d3300e	 ldrb        r3, [r3, +lr]
  000ec	e08ff003	 add         pc, pc, r3
  000f0		 |$LN45@ClockIniti|
  000f0		 |$LN44@ClockIniti|
  000f0		 |$LN46@ClockIniti|
  000f0	04ed		 DCB         0x4
  000f1		 |$LN47@ClockIniti|
  000f1	04ed		 DCB         0x4
  000f2		 |$LN48@ClockIniti|
  000f2	04ed		 DCB         0x4
  000f3		 |$LN49@ClockIniti|
  000f3	0ced		 DCB         0xc
  000f4		 |$LN50@ClockIniti|
  000f4	14ed		 DCB         0x14
  000f5		 |$LN51@ClockIniti|
  000f5	04ed		 DCB         0x4
  000f6		 |$LN52@ClockIniti|
  000f6	1ced		 DCB         0x1c
  000f7		 |$LN53@ClockIniti|
  000f7	1ced		 DCB         0x1c
  000f8		 |$LN12@ClockIniti|

; 1421 : 	{
; 1422 :         case 0:
; 1423 :             parentClock = kCORE_CLK;

  000f8	e3a04002	 mov         r4, #2

; 1424 :             outputDivisor = 3;
; 1425 :             break;

  000fc	ea000004	 b           |$LN13@ClockIniti|
  00100		 |$LN9@ClockIniti|

; 1426 : 
; 1427 :         case 1:
; 1428 :             parentClock = kCORE_CLK;
; 1429 :             outputDivisor = 4;
; 1430 :             break;
; 1431 : 
; 1432 :         case 2:
; 1433 :             parentClock = kCORE_CLK;
; 1434 :             outputDivisor = 6;
; 1435 :             break;
; 1436 : 
; 1437 :         case 3:
; 1438 :             parentClock = kCM_96M_FCLK;

  00100	e3a04021	 mov         r4, #0x21

; 1439 :             outputDivisor = 1;
; 1440 :             break;

  00104	ea000002	 b           |$LN13@ClockIniti|
  00108		 |$LN8@ClockIniti|

; 1441 : 
; 1442 :         case 4:
; 1443 :             parentClock = kPRM_96M_192M_ALWON_CLK;

  00108	e3a04005	 mov         r4, #5

; 1444 :             outputDivisor = 1;
; 1445 :             break;

  0010c	ea000000	 b           |$LN13@ClockIniti|
  00110		 |$LN5@ClockIniti|

; 1446 : 
; 1447 :         case 5:
; 1448 :             parentClock = kCORE_CLK;
; 1449 :             outputDivisor = 2;
; 1450 :             break;
; 1451 : 
; 1452 :         case 6:
; 1453 :             parentClock = kCOREX2_FCLK;
; 1454 :             outputDivisor = 3;
; 1455 :             break;
; 1456 : 
; 1457 :         case 7:
; 1458 :             parentClock = kCOREX2_FCLK;

  00110	e3a04003	 mov         r4, #3
  00114		 |$LN13@ClockIniti|

; 1459 :             outputDivisor = 5;
; 1460 :             break;
; 1461 : 	}
; 1462 : 
; 1463 :     pDivisors = s_SrcClockTable[kSGX_FCLK].pDivisors;

  00114	e59055c0	 ldr         r5, [r0, #0x5C0]

; 1464 :     for (i = 0; i < pDivisors->count; ++i)

  00118	e3a02000	 mov         r2, #0
  0011c	e5953000	 ldr         r3, [r5]
  00120	e1b06003	 movs        r6, r3
  00124	0a00000b	 beq         |$LN2@ClockIniti|

; 1459 :             outputDivisor = 5;
; 1460 :             break;
; 1461 : 	}
; 1462 : 
; 1463 :     pDivisors = s_SrcClockTable[kSGX_FCLK].pDivisors;

  00128	e1a01005	 mov         r1, r5
  0012c		 |$LL4@ClockIniti|

; 1465 : 	{
; 1466 :         if (parentClock == pDivisors->SourceClock[i].id)

  0012c	e5913004	 ldr         r3, [r1, #4]
  00130	e1540003	 cmp         r4, r3
  00134	0a000004	 beq         |$LN34@ClockIniti|
  00138	e2822001	 add         r2, r2, #1
  0013c	e1520006	 cmp         r2, r6
  00140	e2811008	 add         r1, r1, #8
  00144	3afffff8	 bcc         |$LL4@ClockIniti|
  00148	ea000002	 b           |$LN2@ClockIniti|
  0014c		 |$LN34@ClockIniti|

; 1467 : 		{
; 1468 :             s_SrcClockTable[kSGX_FCLK].parentClk = parentClock;
; 1469 :             pDivisors->SourceClock[i].divisor = cm_clksel_pll & CLKSEL_SGX_MASK;

  0014c	e0853182	 add         r3, r5, r2, lsl #3
  00150	e58045b4	 str         r4, [r0, #0x5B4]
  00154	e583e008	 str         lr, [r3, #8]
  00158		 |$LN2@ClockIniti|

; 1470 :             break;
; 1471 : 		}
; 1472 : 	}
; 1473 : 
; 1474 :     OALMSG(1, (L"-ClockInitialize()=%d\r\n", rc));

  00158	e59f0010	 ldr         r0, [pc, #0x10]
  0015c	e3a01001	 mov         r1, #1
  00160	eb000000	 bl          NKDbgPrintfW

; 1475 :     return rc;    

  00164	e3a00001	 mov         r0, #1

; 1476 : }

  00168	e8bd4070	 ldmia       sp!, {r4 - r6, lr}
  0016c	e12fff1e	 bx          lr
  00170		 |$LN57@ClockIniti|
  00170		 |$LN58@ClockIniti|
  00170	00000000	 DCD         |??_C@_1DA@BGHIJONJ@?$AA?9?$AAC?$AAl?$AAo?$AAc?$AAk?$AAI?$AAn?$AAi?$AAt?$AAi?$AAa?$AAl?$AAi?$AAz?$AAe?$AA?$CI?$AA?$CJ?$AA?$DN?$AA?$CF?$AAd?$AA?$AN?$AA?6?$AA?$AA@|
  00174		 |$LN59@ClockIniti|
  00174	00000000	 DCD         |s_SrcClockTable|
  00178		 |$LN60@ClockIniti|
  00178	00000000	 DCD         |g_pPrcmCm|
  0017c		 |$LN61@ClockIniti|
  0017c	00000000	 DCD         |??_C@_1CK@FHFJABDF@?$AA?$CL?$AAC?$AAl?$AAo?$AAc?$AAk?$AAI?$AAn?$AAi?$AAt?$AAi?$AAa?$AAl?$AAi?$AAz?$AAe?$AA?$CI?$AA?$CJ?$AA?$AN?$AA?6?$AA?$AA@|
  00180		 |$M49562|

			 ENDP  ; |ClockInitialize|

	EXPORT	|ClockUpdateParentClock|
	EXPORT	|??_C@_1DO@ELKPCHFC@?$AA?9?$AAC?$AAl?$AAo?$AAc?$AAk?$AAU?$AAp?$AAd?$AAa?$AAt?$AAe?$AAP?$AAa?$AAr?$AAe?$AAn?$AAt?$AAC?$AAl?$AAo?$AAc?$AAk?$AA?$CI?$AA?$CJ?$AA?$DN?$AA?$CF?$AAd?$AA?$AN?$AA?6?$AA?$AA@| [ DATA ] ; `string'
	EXPORT	|??_C@_1GG@NDNOIECG@?$AA?$CL?$AAC?$AAl?$AAo?$AAc?$AAk?$AAU?$AAp?$AAd?$AAa?$AAt?$AAe?$AAP?$AAa?$AAr?$AAe?$AAn?$AAt?$AAC?$AAl?$AAo?$AAc?$AAk?$AA?$CI?$AAs?$AAr?$AAc?$AAC?$AAl?$AAk?$AAI?$AAd@| [ DATA ] ; `string'

  00000			 AREA	 |.pdata|, PDATA
|$T49589| DCD	|$LN21@ClockUpdat@2|
	DCD	0x40003e01

  00000			 AREA	 |.rdata|, DATA, READONLY
|??_C@_1DO@ELKPCHFC@?$AA?9?$AAC?$AAl?$AAo?$AAc?$AAk?$AAU?$AAp?$AAd?$AAa?$AAt?$AAe?$AAP?$AAa?$AAr?$AAe?$AAn?$AAt?$AAC?$AAl?$AAo?$AAc?$AAk?$AA?$CI?$AA?$CJ?$AA?$DN?$AA?$CF?$AAd?$AA?$AN?$AA?6?$AA?$AA@| DCB "-"
	DCB	0x0, "C", 0x0, "l", 0x0, "o", 0x0, "c", 0x0, "k", 0x0, "U"
	DCB	0x0, "p", 0x0, "d", 0x0, "a", 0x0, "t", 0x0, "e", 0x0, "P"
	DCB	0x0, "a", 0x0, "r", 0x0, "e", 0x0, "n", 0x0, "t", 0x0, "C"
	DCB	0x0, "l", 0x0, "o", 0x0, "c", 0x0, "k", 0x0, "(", 0x0, ")"
	DCB	0x0, "=", 0x0, "%", 0x0, "d", 0x0, 0xd, 0x0, 0xa, 0x0, 0x0
	DCB	0x0					; `string'

  00000			 AREA	 |.rdata|, DATA, READONLY
|??_C@_1GG@NDNOIECG@?$AA?$CL?$AAC?$AAl?$AAo?$AAc?$AAk?$AAU?$AAp?$AAd?$AAa?$AAt?$AAe?$AAP?$AAa?$AAr?$AAe?$AAn?$AAt?$AAC?$AAl?$AAo?$AAc?$AAk?$AA?$CI?$AAs?$AAr?$AAc?$AAC?$AAl?$AAk?$AAI?$AAd@| DCB "+"
	DCB	0x0, "C", 0x0, "l", 0x0, "o", 0x0, "c", 0x0, "k", 0x0, "U"
	DCB	0x0, "p", 0x0, "d", 0x0, "a", 0x0, "t", 0x0, "e", 0x0, "P"
	DCB	0x0, "a", 0x0, "r", 0x0, "e", 0x0, "n", 0x0, "t", 0x0, "C"
	DCB	0x0, "l", 0x0, "o", 0x0, "c", 0x0, "k", 0x0, "(", 0x0, "s"
	DCB	0x0, "r", 0x0, "c", 0x0, "C", 0x0, "l", 0x0, "k", 0x0, "I"
	DCB	0x0, "d", 0x0, "=", 0x0, "%", 0x0, "d", 0x0, ",", 0x0, " "
	DCB	0x0, "b", 0x0, "E", 0x0, "n", 0x0, "a", 0x0, "b", 0x0, "l"
	DCB	0x0, "e", 0x0, "=", 0x0, "%", 0x0, "d", 0x0, ")", 0x0, 0xd
	DCB	0x0, 0xa, 0x0, 0x0, 0x0			; `string'
; Function compile flags: /Ogspy

  00000			 AREA	 |.text|, CODE, ARM

  00000		 |ClockUpdateParentClock| PROC

; 1484 : {

  00000		 |$LN21@ClockUpdat@2|
  00000	e92d41f0	 stmdb       sp!, {r4 - r8, lr}
  00004		 |$M49586|
  00004	e1a04001	 mov         r4, r1
  00008	e1a06000	 mov         r6, r0

; 1485 :     BOOL rc = FALSE;
; 1486 :     if (!g_bSingleThreaded)

  0000c	e59f80e0	 ldr         r8, [pc, #0xE0]
  00010	e59f70d8	 ldr         r7, [pc, #0xD8]
  00014	e3a05000	 mov         r5, #0
  00018	e5983000	 ldr         r3, [r8]
  0001c	e3530000	 cmp         r3, #0
  00020	1a000005	 bne         |$LN18@ClockUpdat@2|

; 1487 :         OALMSG(OAL_FUNC, (L"+ClockUpdateParentClock"
; 1488 :             L"(srcClkId=%d, bEnable=%d)\r\n", srcClkId, bEnable)
; 1489 :             );

  00024	e5973440	 ldr         r3, [r7, #0x440]
  00028	e3130004	 tst         r3, #4
  0002c	159f00b8	 ldrne       r0, [pc, #0xB8]
  00030	11a02004	 movne       r2, r4
  00034	11a01006	 movne       r1, r6
  00038	1b000000	 blne        NKDbgPrintfW
  0003c		 |$LN18@ClockUpdat@2|

; 1490 : 
; 1491 :     // quick check for valid source clock id's
; 1492 :     if ((UINT)srcClkId > kSOURCE_CLOCK_COUNT) goto cleanUp;

  0003c	e356005a	 cmp         r6, #0x5A
  00040	8a00001c	 bhi         |$cleanUp$47679|

; 1493 :     // check if clock is being enabled/disabled
; 1494 :     if ((s_SrcClockTable[srcClkId].refCount == 0 && bEnable == TRUE) ||
; 1495 :         (s_SrcClockTable[srcClkId].refCount == 1 && bEnable == FALSE))

  00044	e59f209c	 ldr         r2, [pc, #0x9C]
  00048	e0861106	 add         r1, r6, r6, lsl #2
  0004c	e0826101	 add         r6, r2, r1, lsl #2
  00050	e5963004	 ldr         r3, [r6, #4]
  00054	e3530000	 cmp         r3, #0
  00058	1a000001	 bne         |$LN4@ClockUpdat@2|
  0005c	e3540001	 cmp         r4, #1
  00060	0a000003	 beq         |$LN5@ClockUpdat@2|
  00064		 |$LN4@ClockUpdat@2|
  00064	e3530001	 cmp         r3, #1
  00068	1a000009	 bne         |$LN2@ClockUpdat@2|
  0006c	e3540000	 cmp         r4, #0
  00070	1a000009	 bne         |$LN17@ClockUpdat@2|
  00074		 |$LN5@ClockUpdat@2|

; 1496 : 	{         
; 1497 :         if (s_SrcClockTable[srcClkId].bIsDpllSrcClk == TRUE)

  00074	e5963008	 ldr         r3, [r6, #8]

; 1498 : 		{
; 1499 :             // update dpll output clocks
; 1500 :             _ClockUpdateDpllOutput(s_SrcClockTable[srcClkId].parentClk, bEnable);

  00078	e7920101	 ldr         r0, [r2, +r1, lsl #2]
  0007c	e1a01004	 mov         r1, r4
  00080	e3530001	 cmp         r3, #1
  00084	1a000001	 bne         |$LN3@ClockUpdat@2|
  00088	eb000000	 bl          _ClockUpdateDpllOutput

; 1501 : 		}
; 1502 :         else

  0008c	ea000000	 b           |$LN2@ClockUpdat@2|
  00090		 |$LN3@ClockUpdat@2|

; 1503 : 		{
; 1504 :             ClockUpdateParentClock(s_SrcClockTable[srcClkId].parentClk, bEnable);

  00090	eb000000	 bl          ClockUpdateParentClock
  00094		 |$LN2@ClockUpdat@2|

; 1505 : 		}
; 1506 : 	}
; 1507 :     // increment src clk refCount
; 1508 :     s_SrcClockTable[srcClkId].refCount += (bEnable != FALSE) ? 1 : -1;

  00094	e3540000	 cmp         r4, #0
  00098	0a000001	 beq         |$LN13@ClockUpdat@2|
  0009c		 |$LN17@ClockUpdat@2|
  0009c	e3a02001	 mov         r2, #1
  000a0	ea000000	 b           |$LN14@ClockUpdat@2|
  000a4		 |$LN13@ClockUpdat@2|
  000a4	e3e02000	 mvn         r2, #0
  000a8		 |$LN14@ClockUpdat@2|
  000a8	e5963004	 ldr         r3, [r6, #4]

; 1509 :     
; 1510 :     rc = TRUE;

  000ac	e3a05001	 mov         r5, #1
  000b0	e0833002	 add         r3, r3, r2
  000b4	e5863004	 str         r3, [r6, #4]
  000b8		 |$cleanUp$47679|
  000b8	e5983000	 ldr         r3, [r8]

; 1511 : cleanUp:    
; 1512 :     if (!g_bSingleThreaded)

  000bc	e3530000	 cmp         r3, #0
  000c0	1a000004	 bne         |$LN15@ClockUpdat@2|
  000c4	e5973440	 ldr         r3, [r7, #0x440]

; 1513 :         OALMSG(OAL_FUNC, (L"-ClockUpdateParentClock()=%d\r\n", rc));

  000c8	e3130004	 tst         r3, #4
  000cc	159f0010	 ldrne       r0, [pc, #0x10]
  000d0	11a01005	 movne       r1, r5
  000d4	1b000000	 blne        NKDbgPrintfW
  000d8		 |$LN15@ClockUpdat@2|

; 1514 :     return rc;
; 1515 : }

  000d8	e1a00005	 mov         r0, r5
  000dc	e8bd41f0	 ldmia       sp!, {r4 - r8, lr}
  000e0	e12fff1e	 bx          lr
  000e4		 |$LN22@ClockUpdat@2|
  000e4		 |$LN23@ClockUpdat@2|
  000e4	00000000	 DCD         |??_C@_1DO@ELKPCHFC@?$AA?9?$AAC?$AAl?$AAo?$AAc?$AAk?$AAU?$AAp?$AAd?$AAa?$AAt?$AAe?$AAP?$AAa?$AAr?$AAe?$AAn?$AAt?$AAC?$AAl?$AAo?$AAc?$AAk?$AA?$CI?$AA?$CJ?$AA?$DN?$AA?$CF?$AAd?$AA?$AN?$AA?6?$AA?$AA@|
  000e8		 |$LN24@ClockUpdat@2|
  000e8	00000000	 DCD         |s_SrcClockTable|
  000ec		 |$LN25@ClockUpdat@2|
  000ec	00000000	 DCD         |??_C@_1GG@NDNOIECG@?$AA?$CL?$AAC?$AAl?$AAo?$AAc?$AAk?$AAU?$AAp?$AAd?$AAa?$AAt?$AAe?$AAP?$AAa?$AAr?$AAe?$AAn?$AAt?$AAC?$AAl?$AAo?$AAc?$AAk?$AA?$CI?$AAs?$AAr?$AAc?$AAC?$AAl?$AAk?$AAI?$AAd@|
  000f0		 |$LN26@ClockUpdat@2|
  000f0	00000000	 DCD         |dpCurSettings|
  000f4		 |$LN27@ClockUpdat@2|
  000f4	00000000	 DCD         |g_bSingleThreaded|
  000f8		 |$M49587|

			 ENDP  ; |ClockUpdateParentClock|

	EXPORT	|PrcmClockSetDivisor|
	EXPORT	|??_C@_1DI@KBLNPMLI@?$AA?9?$AAP?$AAr?$AAc?$AAm?$AAC?$AAl?$AAo?$AAc?$AAk?$AAS?$AAe?$AAt?$AAD?$AAi?$AAv?$AAi?$AAs?$AAo?$AAr?$AA?$CI?$AA?$CJ?$AA?$DN?$AA?$CF?$AAd?$AA?$AN?$AA?6?$AA?$AA@| [ DATA ] ; `string'
	EXPORT	|??_C@_1IC@LGPONKMO@?$AA?$CL?$AAP?$AAr?$AAc?$AAm?$AAC?$AAl?$AAo?$AAc?$AAk?$AAS?$AAe?$AAt?$AAD?$AAi?$AAv?$AAi?$AAs?$AAo?$AAr?$AA?$CI?$AAc?$AAl?$AAo?$AAc?$AAk?$AAI?$AAd?$AA?$DN?$AA?$CF?$AAd?$AA?0@| [ DATA ] ; `string'

  00000			 AREA	 |.pdata|, PDATA
|$T49618| DCD	|$LN57@PrcmClockS|
	DCD	0x40009901

  00000			 AREA	 |.rdata|, DATA, READONLY
|??_C@_1DI@KBLNPMLI@?$AA?9?$AAP?$AAr?$AAc?$AAm?$AAC?$AAl?$AAo?$AAc?$AAk?$AAS?$AAe?$AAt?$AAD?$AAi?$AAv?$AAi?$AAs?$AAo?$AAr?$AA?$CI?$AA?$CJ?$AA?$DN?$AA?$CF?$AAd?$AA?$AN?$AA?6?$AA?$AA@| DCB "-"
	DCB	0x0, "P", 0x0, "r", 0x0, "c", 0x0, "m", 0x0, "C", 0x0, "l"
	DCB	0x0, "o", 0x0, "c", 0x0, "k", 0x0, "S", 0x0, "e", 0x0, "t"
	DCB	0x0, "D", 0x0, "i", 0x0, "v", 0x0, "i", 0x0, "s", 0x0, "o"
	DCB	0x0, "r", 0x0, "(", 0x0, ")", 0x0, "=", 0x0, "%", 0x0, "d"
	DCB	0x0, 0xd, 0x0, 0xa, 0x0, 0x0, 0x0	; `string'

  00000			 AREA	 |.rdata|, DATA, READONLY
|??_C@_1IC@LGPONKMO@?$AA?$CL?$AAP?$AAr?$AAc?$AAm?$AAC?$AAl?$AAo?$AAc?$AAk?$AAS?$AAe?$AAt?$AAD?$AAi?$AAv?$AAi?$AAs?$AAo?$AAr?$AA?$CI?$AAc?$AAl?$AAo?$AAc?$AAk?$AAI?$AAd?$AA?$DN?$AA?$CF?$AAd?$AA?0@| DCB "+"
	DCB	0x0, "P", 0x0, "r", 0x0, "c", 0x0, "m", 0x0, "C", 0x0, "l"
	DCB	0x0, "o", 0x0, "c", 0x0, "k", 0x0, "S", 0x0, "e", 0x0, "t"
	DCB	0x0, "D", 0x0, "i", 0x0, "v", 0x0, "i", 0x0, "s", 0x0, "o"
	DCB	0x0, "r", 0x0, "(", 0x0, "c", 0x0, "l", 0x0, "o", 0x0, "c"
	DCB	0x0, "k", 0x0, "I", 0x0, "d", 0x0, "=", 0x0, "%", 0x0, "d"
	DCB	0x0, ",", 0x0, " ", 0x0, "p", 0x0, "a", 0x0, "r", 0x0, "e"
	DCB	0x0, "n", 0x0, "t", 0x0, "C", 0x0, "l", 0x0, "o", 0x0, "c"
	DCB	0x0, "k", 0x0, "I", 0x0, "d", 0x0, "=", 0x0, "%", 0x0, "d"
	DCB	0x0, ",", 0x0, " ", 0x0, "d", 0x0, "i", 0x0, "v", 0x0, "i"
	DCB	0x0, "s", 0x0, "o", 0x0, "r", 0x0, "=", 0x0, "%", 0x0, "d"
	DCB	0x0, ")", 0x0, 0xd, 0x0, 0xa, 0x0, 0x0, 0x0 ; `string'
; Function compile flags: /Ogspy

  00000			 AREA	 |.text|, CODE, ARM

  00000		 |PrcmClockSetDivisor| PROC

; 1524 : {

  00000		 |$LN57@PrcmClockS|
  00000	e92d47f0	 stmdb       sp!, {r4 - r10, lr}
  00004		 |$M49615|
  00004	e1a04002	 mov         r4, r2
  00008	e1a06001	 mov         r6, r1
  0000c	e1a09000	 mov         r9, r0

; 1525 :     static BYTE _usim_sysclk_map[] = {(BYTE)-1, (BYTE)1, (BYTE)2};
; 1526 :     static BYTE _sgx_core_clk[]             = {(BYTE)-1, (BYTE)-1, (BYTE)5, (BYTE)0, (BYTE)1, (BYTE)-1, (BYTE)2};
; 1527 :     static BYTE _sgx_96M_fclk[]             = {(BYTE)-1, (BYTE)3};
; 1528 :     static BYTE _sgx_96M_192_alwon_clk[]    = {(BYTE)-1, (BYTE)4};
; 1529 :     static BYTE _sgx_corex2_fclk[]          = {(BYTE)-1, (BYTE)-1, (BYTE)-1, (BYTE)6, (BYTE)-1, (BYTE)7};
; 1530 :     static BYTE _usim_96m_map[] =    {(BYTE)-1, (BYTE)-1, (BYTE)3, (BYTE)-1, (BYTE)4, (BYTE)-1, (BYTE)-1, (BYTE)-1, (BYTE)5, (BYTE)-1, (BYTE)6};
; 1531 :     static BYTE _usim_120m_map[] =   {(BYTE)-1, (BYTE)-1, (BYTE)-1, (BYTE)-1,  (BYTE)7, (BYTE)-1, (BYTE)-1, (BYTE)-1,  (BYTE)8, (BYTE)-1, 
; 1532 :                                       (BYTE)-1, (BYTE)-1, (BYTE)-1, (BYTE)-1, (BYTE)-1, (BYTE)-1,  (BYTE)9, (BYTE)-1, (BYTE)-1, (BYTE)-1,
; 1533 :                                       (BYTE)10};
; 1534 : 
; 1535 :     UINT i;
; 1536 :     BYTE real_divisor = 0;
; 1537 :     BOOL rc = FALSE;
; 1538 :     SrcClockDivisorTable_t *pDivisors;
; 1539 :     
; 1540 :     OALMSG(1, (L"+PrcmClockSetDivisor"
; 1541 :         L"(clockId=%d, parentClockId=%d, divisor=%d)\r\n", 
; 1542 :         clockId, parentClockId, divisor)
; 1543 :         );

  00010	e59f0248	 ldr         r0, [pc, #0x248]
  00014	e1a03004	 mov         r3, r4
  00018	e1a02006	 mov         r2, r6
  0001c	e1a01009	 mov         r1, r9
  00020	e3a08000	 mov         r8, #0
  00024	e3a07000	 mov         r7, #0
  00028	eb000000	 bl          NKDbgPrintfW

; 1544 : 
; 1545 :     pDivisors = s_SrcClockTable[clockId].pDivisors;

  0002c	e59fa228	 ldr         r10, [pc, #0x228]
  00030	e089e109	 add         lr, r9, r9, lsl #2

; 1546 : 
; 1547 :     // get sync handle
; 1548 :     Lock(Mutex_Clock);

  00034	e3a00001	 mov         r0, #1
  00038	e28a30cc	 add         r3, r10, #0xCC
  0003c	e083310e	 add         r3, r3, lr, lsl #2
  00040	e593500c	 ldr         r5, [r3, #0xC]
  00044	eb000000	 bl          Lock

; 1549 :     
; 1550 :     switch (clockId)

  00048	e3590007	 cmp         r9, #7
  0004c	0a00006b	 beq         |$LN37@PrcmClockS|
  00050	e3590008	 cmp         r9, #8
  00054	0a000062	 beq         |$LN40@PrcmClockS|
  00058	e3590038	 cmp         r9, #0x38
  0005c	0a000059	 beq         |$LN43@PrcmClockS|
  00060	e3590044	 cmp         r9, #0x44
  00064	0a000044	 beq         |$LN9@PrcmClockS|
  00068	e3590045	 cmp         r9, #0x45
  0006c	0a000037	 beq         |$LN12@PrcmClockS|
  00070	e3590048	 cmp         r9, #0x48
  00074	0a00002e	 beq         |$LN34@PrcmClockS|
  00078	e3590049	 cmp         r9, #0x49
  0007c	1a000068	 bne         |$cleanUp$47774|

; 1587 : 
; 1588 :         case kSGX_FCLK:
; 1589 :             switch (parentClockId)

  00080	e3560002	 cmp         r6, #2
  00084	0a000011	 beq         |$LN28@PrcmClockS|
  00088	e3560003	 cmp         r6, #3
  0008c	0a00000b	 beq         |$LN19@PrcmClockS|
  00090	e3560005	 cmp         r6, #5
  00094	0a000005	 beq         |$LN22@PrcmClockS|
  00098	e3560021	 cmp         r6, #0x21
  0009c	1a000011	 bne         |$LN29@PrcmClockS|

; 1593 :                     real_divisor = _sgx_core_clk[divisor];
; 1594 :                     break;
; 1595 : 
; 1596 :                 case kCM_96M_FCLK:
; 1597 :                     if (divisor >= sizeof(_sgx_96M_fclk) || _sgx_96M_fclk[divisor] == -1) goto cleanUp;

  000a0	e3540002	 cmp         r4, #2
  000a4	2a00005e	 bcs         |$cleanUp$47774|
  000a8	e59f31a8	 ldr         r3, [pc, #0x1A8]

; 1598 :                      real_divisor = _sgx_96M_fclk[divisor];
; 1599 :                     break;

  000ac	ea00000a	 b           |$LN51@PrcmClockS|
  000b0		 |$LN22@PrcmClockS|

; 1600 : 
; 1601 :                 case kPRM_96M_192M_ALWON_CLK:
; 1602 :                     if (divisor >= sizeof(_sgx_96M_192_alwon_clk) || _sgx_96M_192_alwon_clk[divisor] == -1) goto cleanUp;

  000b0	e3540002	 cmp         r4, #2
  000b4	2a00005a	 bcs         |$cleanUp$47774|
  000b8	e28a3e7e	 add         r3, r10, #0x7E, 28

; 1603 :                     real_divisor = _sgx_96M_192_alwon_clk[divisor];
; 1604 :                     break;

  000bc	ea000006	 b           |$LN51@PrcmClockS|
  000c0		 |$LN19@PrcmClockS|

; 1605 : 
; 1606 :                 case kCOREX2_FCLK:
; 1607 :                     if (divisor >= sizeof(_sgx_corex2_fclk) || _sgx_corex2_fclk[divisor] == -1) goto cleanUp;

  000c0	e3540006	 cmp         r4, #6
  000c4	2a000056	 bcs         |$cleanUp$47774|
  000c8	e59f3184	 ldr         r3, [pc, #0x184]

; 1608 :                     real_divisor = _sgx_corex2_fclk[divisor];
; 1609 :                     break;

  000cc	ea000002	 b           |$LN51@PrcmClockS|
  000d0		 |$LN28@PrcmClockS|

; 1590 :                 {
; 1591 :                 case kCORE_CLK:
; 1592 :                     if (divisor >= sizeof(_sgx_core_clk) || _sgx_core_clk[divisor] == -1) goto cleanUp;

  000d0	e3540007	 cmp         r4, #7
  000d4	2a000052	 bcs         |$cleanUp$47774|
  000d8	e59f3170	 ldr         r3, [pc, #0x170]
  000dc		 |$LN51@PrcmClockS|
  000dc	e7d38004	 ldrb        r8, [r3, +r4]
  000e0	e3780001	 cmn         r8, #1
  000e4	0a00004e	 beq         |$cleanUp$47774|
  000e8		 |$LN29@PrcmClockS|

; 1610 :                 }
; 1611 : 
; 1612 :             // store divisor settings
; 1613 :             for (i = 0; i < pDivisors->count; ++i)

  000e8	e5953000	 ldr         r3, [r5]
  000ec	e3a02000	 mov         r2, #0
  000f0	e3530000	 cmp         r3, #0
  000f4	9a00000c	 bls         |$LN14@PrcmClockS|
  000f8	e1a01005	 mov         r1, r5
  000fc		 |$LL16@PrcmClockS|

; 1614 :                 {
; 1615 :                 if (parentClockId == pDivisors->SourceClock[i].id)

  000fc	e5913004	 ldr         r3, [r1, #4]
  00100	e1560003	 cmp         r6, r3
  00104	0a000006	 beq         |$LN49@PrcmClockS|
  00108	e5953000	 ldr         r3, [r5]
  0010c	e2822001	 add         r2, r2, #1
  00110	e2811008	 add         r1, r1, #8
  00114	e1520003	 cmp         r2, r3
  00118	3afffff7	 bcc         |$LL16@PrcmClockS|

; 1618 :                     break;
; 1619 :                     }
; 1620 :                 }
; 1621 :             rc = _ClockHwUpdateParentClock(clockId);

  0011c	e3a00049	 mov         r0, #0x49

; 1622 :             break;

  00120	ea00003d	 b           |$LN52@PrcmClockS|
  00124		 |$LN49@PrcmClockS|

; 1616 :                     {
; 1617 :                     pDivisors->SourceClock[i].divisor = real_divisor;

  00124	e0853182	 add         r3, r5, r2, lsl #3
  00128	e5838008	 str         r8, [r3, #8]
  0012c		 |$LN14@PrcmClockS|

; 1618 :                     break;
; 1619 :                     }
; 1620 :                 }
; 1621 :             rc = _ClockHwUpdateParentClock(clockId);

  0012c	e3a00049	 mov         r0, #0x49

; 1622 :             break;

  00130	ea000039	 b           |$LN52@PrcmClockS|
  00134		 |$LN34@PrcmClockS|

; 1577 :             break;
; 1578 : 
; 1579 :         case k54M_FCLK:
; 1580 :             // validate parameters
; 1581 :             if (parentClockId != pDivisors->SourceClock[0].id || divisor > 16) goto cleanUp;

  00134	e5953004	 ldr         r3, [r5, #4]
  00138	e1560003	 cmp         r6, r3
  0013c	1a000038	 bne         |$cleanUp$47774|
  00140	e3540010	 cmp         r4, #0x10
  00144	8a000036	 bhi         |$cleanUp$47774|

; 1582 : 
; 1583 :             // store divisor settings
; 1584 :             pDivisors->SourceClock[0].divisor = divisor;
; 1585 :             rc = _ClockHwUpdateParentClock(clockId);

  00148	e3a00048	 mov         r0, #0x48

; 1586 :             break;

  0014c	ea000031	 b           |$LN53@PrcmClockS|
  00150		 |$LN12@PrcmClockS|

; 1623 : 
; 1624 :         case kUSIM_FCLK:
; 1625 :             // validate parameters
; 1626 :             if (parentClockId != pDivisors->SourceClock[0].id || 
; 1627 :                 divisor >= sizeof(_usim_sysclk_map) || 
; 1628 :                 _usim_sysclk_map[divisor] == -1) 

  00150	e5953004	 ldr         r3, [r5, #4]
  00154	e1560003	 cmp         r6, r3
  00158	1a000031	 bne         |$cleanUp$47774|
  0015c	e3540003	 cmp         r4, #3
  00160	2a00002f	 bcs         |$cleanUp$47774|
  00164	e7da3004	 ldrb        r3, [r10, +r4]
  00168	e3730001	 cmn         r3, #1
  0016c	0a00002c	 beq         |$cleanUp$47774|

; 1629 :                 {
; 1630 :                 goto cleanUp;
; 1631 :                 }
; 1632 : 
; 1633 :             // store divisor settings
; 1634 :             pDivisors->SourceClock[0].divisor = _usim_sysclk_map[divisor];
; 1635 :             rc = _ClockHwUpdateParentClock(clockId);

  00170	e3a00045	 mov         r0, #0x45
  00174	e5853008	 str         r3, [r5, #8]

; 1636 :             break;

  00178	ea000027	 b           |$LN52@PrcmClockS|
  0017c		 |$LN9@PrcmClockS|

; 1637 : 
; 1638 :         case kCM_USIM_CLK:
; 1639 : 
; 1640 :             if (parentClockId == pDivisors->SourceClock[0].id)

  0017c	e5953004	 ldr         r3, [r5, #4]
  00180	e1560003	 cmp         r6, r3
  00184	1a000003	 bne         |$LN8@PrcmClockS|

; 1641 :                 {
; 1642 :                 if (divisor >= sizeof(_usim_96m_map) || _usim_96m_map[divisor] == -1) goto cleanUp;

  00188	e354000b	 cmp         r4, #0xB
  0018c	2a000024	 bcs         |$cleanUp$47774|
  00190	e59f30b4	 ldr         r3, [pc, #0xB4]

; 1643 : 
; 1644 :                 pDivisors->SourceClock[0].divisor = _usim_96m_map[divisor];

  00194	ea000005	 b           |$LN54@PrcmClockS|
  00198		 |$LN8@PrcmClockS|

; 1645 :                 }
; 1646 :             else if (parentClockId == pDivisors->SourceClock[1].id)

  00198	e595300c	 ldr         r3, [r5, #0xC]
  0019c	e1560003	 cmp         r6, r3
  001a0	1a00001f	 bne         |$cleanUp$47774|

; 1647 :                 {
; 1648 :                 if (divisor >= sizeof(_usim_120m_map) || _usim_120m_map[divisor] == -1) goto cleanUp;

  001a4	e3540015	 cmp         r4, #0x15
  001a8	2a00001d	 bcs         |$cleanUp$47774|
  001ac	e59f3094	 ldr         r3, [pc, #0x94]
  001b0		 |$LN54@PrcmClockS|
  001b0	e7d33004	 ldrb        r3, [r3, +r4]
  001b4	e3730001	 cmn         r3, #1
  001b8	0a000019	 beq         |$cleanUp$47774|

; 1649 : 
; 1650 :                 pDivisors->SourceClock[0].divisor = _usim_120m_map[divisor];

  001bc	e5853008	 str         r3, [r5, #8]

; 1651 :                 }
; 1652 :             else
; 1653 :                 {
; 1654 :                 goto cleanUp;
; 1655 :                 }
; 1656 :             
; 1657 :             rc = _ClockHwUpdateParentClock(clockId);

  001c0	e3a00044	 mov         r0, #0x44

; 1658 :             break;            

  001c4	ea000014	 b           |$LN52@PrcmClockS|
  001c8		 |$LN43@PrcmClockS|

; 1551 :         {            
; 1552 :         case kSSI_SSR_FCLK:
; 1553 :             // validate parameters
; 1554 :             if (parentClockId != pDivisors->SourceClock[0].id || divisor > 8) goto cleanUp;

  001c8	e5953004	 ldr         r3, [r5, #4]
  001cc	e1560003	 cmp         r6, r3
  001d0	1a000013	 bne         |$cleanUp$47774|
  001d4	e3540008	 cmp         r4, #8
  001d8	8a000011	 bhi         |$cleanUp$47774|

; 1555 : 
; 1556 :             // store divisor settings
; 1557 :             pDivisors->SourceClock[0].divisor = divisor;
; 1558 :             rc = _ClockHwUpdateParentClock(clockId);

  001dc	e3a00038	 mov         r0, #0x38

; 1559 :             break;

  001e0	ea00000c	 b           |$LN53@PrcmClockS|
  001e4		 |$LN40@PrcmClockS|

; 1560 : 
; 1561 :         case kCAM_MCLK:            
; 1562 :             // validate parameters
; 1563 :             if (parentClockId != pDivisors->SourceClock[0].id || divisor > 16) goto cleanUp;

  001e4	e5953004	 ldr         r3, [r5, #4]
  001e8	e1560003	 cmp         r6, r3
  001ec	1a00000c	 bne         |$cleanUp$47774|
  001f0	e3540010	 cmp         r4, #0x10
  001f4	8a00000a	 bhi         |$cleanUp$47774|

; 1564 :             
; 1565 :             // store divisor settings
; 1566 :             pDivisors->SourceClock[0].divisor = divisor;
; 1567 :             rc = _ClockHwUpdateParentClock(clockId);

  001f8	e3a00008	 mov         r0, #8

; 1568 :             break;

  001fc	ea000005	 b           |$LN53@PrcmClockS|
  00200		 |$LN37@PrcmClockS|

; 1569 : 
; 1570 :         case kDSS1_ALWON_FCLK:
; 1571 :             // validate parameters
; 1572 :             if (parentClockId != pDivisors->SourceClock[0].id || divisor > 16) goto cleanUp;

  00200	e5953004	 ldr         r3, [r5, #4]
  00204	e1560003	 cmp         r6, r3
  00208	1a000005	 bne         |$cleanUp$47774|
  0020c	e3540010	 cmp         r4, #0x10
  00210	8a000003	 bhi         |$cleanUp$47774|

; 1573 : 
; 1574 :             // store divisor settings
; 1575 :             pDivisors->SourceClock[0].divisor = divisor;
; 1576 :             rc = _ClockHwUpdateParentClock(clockId);

  00214	e3a00007	 mov         r0, #7
  00218		 |$LN53@PrcmClockS|
  00218	e5854008	 str         r4, [r5, #8]
  0021c		 |$LN52@PrcmClockS|
  0021c	eb000000	 bl          _ClockHwUpdateParentClock
  00220	e1a07000	 mov         r7, r0
  00224		 |$cleanUp$47774|

; 1659 :         }    
; 1660 : 
; 1661 : cleanUp: 
; 1662 :     // release sync handle    
; 1663 :     Unlock(Mutex_Clock);

  00224	e3a00001	 mov         r0, #1
  00228	eb000000	 bl          Unlock

; 1664 :     OALMSG(1, (L"-PrcmClockSetDivisor()=%d\r\n", rc));

  0022c	e59f0010	 ldr         r0, [pc, #0x10]
  00230	e1a01007	 mov         r1, r7
  00234	eb000000	 bl          NKDbgPrintfW

; 1665 :     return rc;
; 1666 : }

  00238	e1a00007	 mov         r0, r7
  0023c	e8bd47f0	 ldmia       sp!, {r4 - r10, lr}
  00240	e12fff1e	 bx          lr
  00244		 |$LN58@PrcmClockS|
  00244		 |$LN59@PrcmClockS|
  00244	00000000	 DCD         |??_C@_1DI@KBLNPMLI@?$AA?9?$AAP?$AAr?$AAc?$AAm?$AAC?$AAl?$AAo?$AAc?$AAk?$AAS?$AAe?$AAt?$AAD?$AAi?$AAv?$AAi?$AAs?$AAo?$AAr?$AA?$CI?$AA?$CJ?$AA?$DN?$AA?$CF?$AAd?$AA?$AN?$AA?6?$AA?$AA@|
  00248		 |$LN60@PrcmClockS|
  00248	00000000	 DCD         |?_usim_120m_map@?1??PrcmClockSetDivisor@@9@9|
  0024c		 |$LN61@PrcmClockS|
  0024c	00000000	 DCD         |?_usim_96m_map@?1??PrcmClockSetDivisor@@9@9|
  00250		 |$LN62@PrcmClockS|
  00250	00000000	 DCD         |?_sgx_core_clk@?1??PrcmClockSetDivisor@@9@9|
  00254		 |$LN63@PrcmClockS|
  00254	00000000	 DCD         |?_sgx_corex2_fclk@?1??PrcmClockSetDivisor@@9@9|
  00258		 |$LN64@PrcmClockS|
  00258	00000000	 DCD         |?_sgx_96M_fclk@?1??PrcmClockSetDivisor@@9@9|
  0025c		 |$LN65@PrcmClockS|
  0025c	00000000	 DCD         |?_usim_sysclk_map@?1??PrcmClockSetDivisor@@9@9|
  00260		 |$LN66@PrcmClockS|
  00260	00000000	 DCD         |??_C@_1IC@LGPONKMO@?$AA?$CL?$AAP?$AAr?$AAc?$AAm?$AAC?$AAl?$AAo?$AAc?$AAk?$AAS?$AAe?$AAt?$AAD?$AAi?$AAv?$AAi?$AAs?$AAo?$AAr?$AA?$CI?$AAc?$AAl?$AAo?$AAc?$AAk?$AAI?$AAd?$AA?$DN?$AA?$CF?$AAd?$AA?0@|
  00264		 |$M49616|

			 ENDP  ; |PrcmClockSetDivisor|

	EXPORT	|PrcmClockSetParent|
	EXPORT	|??_C@_1DG@BPIDCFJO@?$AA?9?$AAP?$AAr?$AAc?$AAm?$AAC?$AAl?$AAo?$AAc?$AAk?$AAS?$AAe?$AAt?$AAP?$AAa?$AAr?$AAe?$AAn?$AAt?$AA?$CI?$AA?$CJ?$AA?$DN?$AA?$CF?$AAd?$AA?$AN?$AA?6?$AA?$AA@| [ DATA ] ; `string'
	EXPORT	|??_C@_1GO@JOGENMOG@?$AA?$CL?$AAP?$AAr?$AAc?$AAm?$AAC?$AAl?$AAo?$AAc?$AAk?$AAS?$AAe?$AAt?$AAP?$AAa?$AAr?$AAe?$AAn?$AAt?$AA?$CI?$AAc?$AAl?$AAo?$AAc?$AAk?$AAI?$AAd?$AA?$DN?$AA?$CF?$AAd?$AA?0?$AA?5@| [ DATA ] ; `string'

  00000			 AREA	 |.pdata|, PDATA
|$T49665| DCD	|$LN85@PrcmClockS@2|
	DCD	0x40005a01

  00000			 AREA	 |.rdata|, DATA, READONLY
|??_C@_1DG@BPIDCFJO@?$AA?9?$AAP?$AAr?$AAc?$AAm?$AAC?$AAl?$AAo?$AAc?$AAk?$AAS?$AAe?$AAt?$AAP?$AAa?$AAr?$AAe?$AAn?$AAt?$AA?$CI?$AA?$CJ?$AA?$DN?$AA?$CF?$AAd?$AA?$AN?$AA?6?$AA?$AA@| DCB "-"
	DCB	0x0, "P", 0x0, "r", 0x0, "c", 0x0, "m", 0x0, "C", 0x0, "l"
	DCB	0x0, "o", 0x0, "c", 0x0, "k", 0x0, "S", 0x0, "e", 0x0, "t"
	DCB	0x0, "P", 0x0, "a", 0x0, "r", 0x0, "e", 0x0, "n", 0x0, "t"
	DCB	0x0, "(", 0x0, ")", 0x0, "=", 0x0, "%", 0x0, "d", 0x0, 0xd
	DCB	0x0, 0xa, 0x0, 0x0, 0x0			; `string'

  00000			 AREA	 |.rdata|, DATA, READONLY
|??_C@_1GO@JOGENMOG@?$AA?$CL?$AAP?$AAr?$AAc?$AAm?$AAC?$AAl?$AAo?$AAc?$AAk?$AAS?$AAe?$AAt?$AAP?$AAa?$AAr?$AAe?$AAn?$AAt?$AA?$CI?$AAc?$AAl?$AAo?$AAc?$AAk?$AAI?$AAd?$AA?$DN?$AA?$CF?$AAd?$AA?0?$AA?5@| DCB "+"
	DCB	0x0, "P", 0x0, "r", 0x0, "c", 0x0, "m", 0x0, "C", 0x0, "l"
	DCB	0x0, "o", 0x0, "c", 0x0, "k", 0x0, "S", 0x0, "e", 0x0, "t"
	DCB	0x0, "P", 0x0, "a", 0x0, "r", 0x0, "e", 0x0, "n", 0x0, "t"
	DCB	0x0, "(", 0x0, "c", 0x0, "l", 0x0, "o", 0x0, "c", 0x0, "k"
	DCB	0x0, "I", 0x0, "d", 0x0, "=", 0x0, "%", 0x0, "d", 0x0, ","
	DCB	0x0, " ", 0x0, "n", 0x0, "e", 0x0, "w", 0x0, "P", 0x0, "a"
	DCB	0x0, "r", 0x0, "e", 0x0, "n", 0x0, "t", 0x0, "C", 0x0, "l"
	DCB	0x0, "o", 0x0, "c", 0x0, "k", 0x0, "I", 0x0, "d", 0x0, "="
	DCB	0x0, "%", 0x0, "d", 0x0, ")", 0x0, 0xd, 0x0, 0xa, 0x0, 0x0
	DCB	0x0					; `string'
; Function compile flags: /Ogspy

  00000			 AREA	 |.text|, CODE, ARM

  00000		 |PrcmClockSetParent| PROC

; 1674 : {    

  00000		 |$LN85@PrcmClockS@2|
  00000	e92d40f0	 stmdb       sp!, {r4 - r7, lr}
  00004		 |$M49662|
  00004	e1a04001	 mov         r4, r1
  00008	e1a05000	 mov         r5, r0

; 1675 :     BOOL rc = FALSE;
; 1676 :     UINT oldParentClockId;
; 1677 :     OALMSG(1, (L"+PrcmClockSetParent"
; 1678 :         L"(clockId=%d, newParentClockId=%d)\r\n", clockId, newParentClockId)
; 1679 :         );

  0000c	e59f0150	 ldr         r0, [pc, #0x150]
  00010	e1a02004	 mov         r2, r4
  00014	e1a01005	 mov         r1, r5
  00018	eb000000	 bl          NKDbgPrintfW

; 1680 : 
; 1681 :     // quick check for valid source clock id's
; 1682 :     if (clockId > kSOURCE_CLOCK_COUNT) goto cleanUp;

  0001c	e355005a	 cmp         r5, #0x5A
  00020	8a000045	 bhi         |$cleanUp$47829|

; 1683 : 
; 1684 :     // get sync handle
; 1685 :     Lock(Mutex_Clock);

  00024	e3a00001	 mov         r0, #1
  00028	eb000000	 bl          Lock

; 1686 :     oldParentClockId = s_SrcClockTable[clockId].parentClk;

  0002c	e59f012c	 ldr         r0, [pc, #0x12C]
  00030	e0851105	 add         r1, r5, r5, lsl #2
  00034	e1a06101	 mov         r6, r1, lsl #2

; 1687 :     switch (clockId)

  00038	e7b67000	 ldr         r7, [r6, +r0]!
  0003c	e2452044	 sub         r2, r5, #0x44
  00040	e3520015	 cmp         r2, #0x15
  00044	8a00002f	 bhi         |$LN3@PrcmClockS@2|
  00048	e28f3004	 add         r3, pc, #4
  0004c	e7d33002	 ldrb        r3, [r3, +r2]
  00050	e08ff003	 add         pc, pc, r3
  00054		 |$LN60@PrcmClockS@2|
  00054		 |$LN59@PrcmClockS@2|
  00054		 |$LN61@PrcmClockS@2|
  00054	88ed		 DCB         0x88
  00055		 |$LN62@PrcmClockS@2|
  00055	78ed		 DCB         0x78
  00056		 |$LN63@PrcmClockS@2|
  00056	70ed		 DCB         0x70
  00057		 |$LN64@PrcmClockS@2|
  00057	68ed		 DCB         0x68
  00058		 |$LN65@PrcmClockS@2|
  00058	58ed		 DCB         0x58
  00059		 |$LN66@PrcmClockS@2|
  00059	38ed		 DCB         0x38
  0005a		 |$LN67@PrcmClockS@2|
  0005a	14ed		 DCB         0x14
  0005b		 |$LN68@PrcmClockS@2|
  0005b	14ed		 DCB         0x14
  0005c		 |$LN69@PrcmClockS@2|
  0005c	14ed		 DCB         0x14
  0005d		 |$LN70@PrcmClockS@2|
  0005d	14ed		 DCB         0x14
  0005e		 |$LN71@PrcmClockS@2|
  0005e	14ed		 DCB         0x14
  0005f		 |$LN72@PrcmClockS@2|
  0005f	14ed		 DCB         0x14
  00060		 |$LN73@PrcmClockS@2|
  00060	14ed		 DCB         0x14
  00061		 |$LN74@PrcmClockS@2|
  00061	14ed		 DCB         0x14
  00062		 |$LN75@PrcmClockS@2|
  00062	14ed		 DCB         0x14
  00063		 |$LN76@PrcmClockS@2|
  00063	28ed		 DCB         0x28
  00064		 |$LN77@PrcmClockS@2|
  00064	28ed		 DCB         0x28
  00065		 |$LN78@PrcmClockS@2|
  00065	90ed		 DCB         0x90
  00066		 |$LN79@PrcmClockS@2|
  00066	a0ed		 DCB         0xa0
  00067		 |$LN80@PrcmClockS@2|
  00067	a0ed		 DCB         0xa0
  00068		 |$LN81@PrcmClockS@2|
  00068	a0ed		 DCB         0xa0
  00069		 |$LN82@PrcmClockS@2|
  00069	90ed		 DCB         0x90
  0006a		 |$LN90@PrcmClockS@2|

; 1853 : }

  0006a	90ed		 DCB         0x90
  0006b		 |$LN91@PrcmClockS@2|
  0006b	90ed		 DCB         0x90
  0006c		 |$LN51@PrcmClockS@2|

; 1688 :         {
; 1689 :         case kGPT1_FCLK:
; 1690 :         case kGPT2_ALWON_FCLK:
; 1691 :         case kGPT3_ALWON_FCLK:
; 1692 :         case kGPT4_ALWON_FCLK:
; 1693 :         case kGPT5_ALWON_FCLK:
; 1694 :         case kGPT6_ALWON_FCLK:
; 1695 :         case kGPT7_ALWON_FCLK:
; 1696 :         case kGPT8_ALWON_FCLK:
; 1697 :         case kGPT9_ALWON_FCLK:
; 1698 :             // verify parent clock is valid
; 1699 :             switch(newParentClockId)

  0006c	e354000b	 cmp         r4, #0xB
  00070	3a000031	 bcc         |$cleanUp$47829|
  00074	e354000c	 cmp         r4, #0xC
  00078	9a000022	 bls         |$LN3@PrcmClockS@2|

; 1700 :                 {
; 1701 :                 case kSYS_CLK:
; 1702 :                 case k32K_FCLK:                    
; 1703 :                     break;
; 1704 : 
; 1705 :                 default: 
; 1706 :                     goto cleanUp;

  0007c	ea00002e	 b           |$cleanUp$47829|
  00080		 |$LN46@PrcmClockS@2|

; 1707 :                 }
; 1708 :             break;
; 1709 :             
; 1710 :         case kGPT10_FCLK:
; 1711 :         case kGPT11_FCLK:
; 1712 :             // verify parent clock is valid
; 1713 :             switch(newParentClockId)

  00080	e3540019	 cmp         r4, #0x19
  00084	0a00001f	 beq         |$LN3@PrcmClockS@2|
  00088	e354001c	 cmp         r4, #0x1C

; 1714 :                 {
; 1715 :                 case kCM_SYS_CLK:
; 1716 :                 case kCM_32K_CLK:                    
; 1717 :                     break;
; 1718 : 
; 1719 :                 default: 
; 1720 :                     goto cleanUp;
; 1721 :                 }
; 1722 :             break;

  0008c	ea00001c	 b           |$LN57@PrcmClockS@2|
  00090		 |$LN41@PrcmClockS@2|

; 1723 : 
; 1724 :         case kSGX_FCLK:
; 1725 :             // verify parent clock is valid
; 1726 :             switch(newParentClockId)

  00090	e3540002	 cmp         r4, #2
  00094	3a000028	 bcc         |$cleanUp$47829|
  00098	e3540003	 cmp         r4, #3
  0009c	9a000019	 bls         |$LN3@PrcmClockS@2|
  000a0	e3540005	 cmp         r4, #5
  000a4		 |$LN58@PrcmClockS@2|
  000a4	0a000017	 beq         |$LN3@PrcmClockS@2|
  000a8	e3540021	 cmp         r4, #0x21

; 1727 :                 {
; 1728 :                 case kCORE_CLK:
; 1729 :                 case kCM_96M_FCLK:                    
; 1730 :                 case kCOREX2_FCLK:
; 1731 :                 case kPRM_96M_192M_ALWON_CLK:
; 1732 :                     break;
; 1733 : 
; 1734 :                 default: 
; 1735 :                     goto cleanUp;
; 1736 :                 }
; 1737 :             break;

  000ac	ea000014	 b           |$LN57@PrcmClockS@2|
  000b0		 |$LN36@PrcmClockS@2|

; 1738 : 
; 1739 :         case k54M_FCLK:
; 1740 :             // verify parent clock is valid
; 1741 :             switch(newParentClockId)

  000b0	e3540006	 cmp         r4, #6
  000b4	0a000013	 beq         |$LN3@PrcmClockS@2|
  000b8	e354000d	 cmp         r4, #0xD

; 1742 :                 {
; 1743 :                 case kDPLL4_M3X2_CLK:
; 1744 :                 case kSYS_ALTCLK:                    
; 1745 :                     break;
; 1746 : 
; 1747 :                 default: 
; 1748 :                     goto cleanUp;
; 1749 :                 }
; 1750 :             break;

  000bc	ea000010	 b           |$LN57@PrcmClockS@2|
  000c0		 |$LN31@PrcmClockS@2|

; 1751 : 
; 1752 :         case k48M_FCLK:
; 1753 :             // verify parent clock is valid
; 1754 :             switch(newParentClockId)

  000c0	e354000d	 cmp         r4, #0xD

; 1755 :                 {
; 1756 :                 case kCM_96M_FCLK:
; 1757 :                 case kSYS_ALTCLK:                    
; 1758 :                     break;
; 1759 : 
; 1760 :                 default: 
; 1761 :                     goto cleanUp;
; 1762 :                 }
; 1763 :             break;

  000c4	eafffff6	 b           |$LN58@PrcmClockS@2|
  000c8		 |$LN26@PrcmClockS@2|

; 1764 : 
; 1765 :         case k96M_FCLK:
; 1766 :             // verify parent clock is valid
; 1767 :             switch(newParentClockId)

  000c8	e3540019	 cmp         r4, #0x19

; 1768 :                 {
; 1769 :                 case kCM_96M_FCLK:
; 1770 :                 case kCM_SYS_CLK:                    
; 1771 :                     break;
; 1772 : 
; 1773 :                 default:
; 1774 :                     goto cleanUp;
; 1775 :                 }
; 1776 :             break;

  000cc	eafffff4	 b           |$LN58@PrcmClockS@2|
  000d0		 |$LN21@PrcmClockS@2|

; 1777 : 
; 1778 :         case kUSIM_FCLK:  
; 1779 :             // verify parent clock is valid
; 1780 :             switch(newParentClockId)

  000d0	e354000c	 cmp         r4, #0xC
  000d4	0a00000b	 beq         |$LN3@PrcmClockS@2|
  000d8	e3540044	 cmp         r4, #0x44

; 1781 :                 {
; 1782 :                 case kSYS_CLK:
; 1783 :                 case kCM_USIM_CLK:                    
; 1784 :                     break;
; 1785 : 
; 1786 :                 default: 
; 1787 :                     goto cleanUp;
; 1788 :                 }
; 1789 :             break;

  000dc	ea000008	 b           |$LN57@PrcmClockS@2|
  000e0		 |$LN16@PrcmClockS@2|

; 1790 : 
; 1791 :         case kCM_USIM_CLK:  
; 1792 :             // verify parent clock is valid
; 1793 :             switch(newParentClockId)

  000e0	e354000a	 cmp         r4, #0xA

; 1794 :                 {
; 1795 :                 case kCM_96M_FCLK:
; 1796 :                 case k120M_FCLK:                    
; 1797 :                     break;
; 1798 : 
; 1799 :                 default: 
; 1800 :                     goto cleanUp;
; 1801 :                 }
; 1802 :             break;

  000e4	eaffffee	 b           |$LN58@PrcmClockS@2|
  000e8		 |$LN11@PrcmClockS@2|

; 1803 : 
; 1804 :         case kMCBSP1_CLKS:
; 1805 :         case kMCBSP5_CLKS:
; 1806 :             // verify parent clock is valid
; 1807 :             switch(newParentClockId)

  000e8	e354000f	 cmp         r4, #0xF
  000ec	0a000005	 beq         |$LN3@PrcmClockS@2|
  000f0	e354003a	 cmp         r4, #0x3A

; 1808 :                 {
; 1809 :                 case kCORE_96M_FCLK:
; 1810 :                 case kMCBSP_CLKS:
; 1811 :                     break;
; 1812 : 
; 1813 :                 default:
; 1814 :                     goto cleanUp;
; 1815 :                 }
; 1816 :             break;

  000f4	ea000002	 b           |$LN57@PrcmClockS@2|
  000f8		 |$LN6@PrcmClockS@2|

; 1817 : 
; 1818 :         case kMCBSP2_CLKS:
; 1819 :         case kMCBSP3_CLKS:
; 1820 :         case kMCBSP4_CLKS:
; 1821 :             // verify parent clock is valid
; 1822 :             switch(newParentClockId)

  000f8	e354000f	 cmp         r4, #0xF
  000fc	0a000001	 beq         |$LN3@PrcmClockS@2|
  00100	e3540022	 cmp         r4, #0x22
  00104		 |$LN57@PrcmClockS@2|
  00104	1a00000c	 bne         |$cleanUp$47829|
  00108		 |$LN3@PrcmClockS@2|

; 1823 :                 {
; 1824 :                 case k96M_ALWON_FCLK:
; 1825 :                 case kMCBSP_CLKS:
; 1826 :                     break;
; 1827 : 
; 1828 :                 default:
; 1829 :                     goto cleanUp;
; 1830 :                 }
; 1831 :             break;
; 1832 : 
; 1833 :         }
; 1834 : 
; 1835 :     // check if clock is enabled.  If so then release old src clocks
; 1836 :     // and enable new ones
; 1837 :     if (s_SrcClockTable[clockId].refCount > 0)

  00108	e0803101	 add         r3, r0, r1, lsl #2
  0010c	e5933004	 ldr         r3, [r3, #4]
  00110	e3530000	 cmp         r3, #0
  00114	da000005	 ble         |$LN1@PrcmClockS@2|

; 1838 :         {
; 1839 :         ClockUpdateParentClock(newParentClockId, TRUE);

  00118	e3a01001	 mov         r1, #1
  0011c	e1a00004	 mov         r0, r4
  00120	eb000000	 bl          ClockUpdateParentClock

; 1840 :         ClockUpdateParentClock(oldParentClockId, FALSE);

  00124	e3a01000	 mov         r1, #0
  00128	e1a00007	 mov         r0, r7
  0012c	eb000000	 bl          ClockUpdateParentClock
  00130		 |$LN1@PrcmClockS@2|

; 1841 :         }
; 1842 : 
; 1843 :     // update state tree
; 1844 :     s_SrcClockTable[clockId].parentClk = newParentClockId;
; 1845 :     rc = _ClockHwUpdateParentClock(clockId);

  00130	e1a00005	 mov         r0, r5
  00134	e5864000	 str         r4, [r6]
  00138	eb000000	 bl          _ClockHwUpdateParentClock
  0013c		 |$cleanUp$47829|

; 1846 :     
; 1847 :             
; 1848 : cleanUp:    
; 1849 :     // release sync handle    
; 1850 :     Unlock(Mutex_Clock);

  0013c	e3a00001	 mov         r0, #1
  00140	eb000000	 bl          Unlock

; 1851 :     OALMSG(1, (L"-PrcmClockSetParent()=%d\r\n", TRUE));

  00144	e59f0010	 ldr         r0, [pc, #0x10]
  00148	e3a01001	 mov         r1, #1
  0014c	eb000000	 bl          NKDbgPrintfW

; 1852 :     return TRUE;

  00150	e3a00001	 mov         r0, #1

; 1853 : }

  00154	e8bd40f0	 ldmia       sp!, {r4 - r7, lr}
  00158	e12fff1e	 bx          lr
  0015c		 |$LN86@PrcmClockS@2|
  0015c		 |$LN87@PrcmClockS@2|
  0015c	00000000	 DCD         |??_C@_1DG@BPIDCFJO@?$AA?9?$AAP?$AAr?$AAc?$AAm?$AAC?$AAl?$AAo?$AAc?$AAk?$AAS?$AAe?$AAt?$AAP?$AAa?$AAr?$AAe?$AAn?$AAt?$AA?$CI?$AA?$CJ?$AA?$DN?$AA?$CF?$AAd?$AA?$AN?$AA?6?$AA?$AA@|
  00160		 |$LN88@PrcmClockS@2|
  00160	00000000	 DCD         |s_SrcClockTable|
  00164		 |$LN89@PrcmClockS@2|
  00164	00000000	 DCD         |??_C@_1GO@JOGENMOG@?$AA?$CL?$AAP?$AAr?$AAc?$AAm?$AAC?$AAl?$AAo?$AAc?$AAk?$AAS?$AAe?$AAt?$AAP?$AAa?$AAr?$AAe?$AAn?$AAt?$AA?$CI?$AAc?$AAl?$AAo?$AAc?$AAk?$AAI?$AAd?$AA?$DN?$AA?$CF?$AAd?$AA?0?$AA?5@|
  00168		 |$M49663|

			 ENDP  ; |PrcmClockSetParent|

	EXPORT	|PrcmClockGetParentClockRefcount|
	EXPORT	|??_C@_1FA@MJCKPJCC@?$AA?$CL?$AAP?$AAr?$AAc?$AAm?$AAC?$AAl?$AAo?$AAc?$AAk?$AAG?$AAe?$AAt?$AAP?$AAa?$AAr?$AAe?$AAn?$AAt?$AAC?$AAl?$AAo?$AAc?$AAk?$AAR?$AAe?$AAf?$AAc?$AAo?$AAu?$AAn?$AAt@| [ DATA ] ; `string'
	EXPORT	|??_C@_1HE@MOBKNDOK@?$AA?$CL?$AAP?$AAr?$AAc?$AAm?$AAC?$AAl?$AAo?$AAc?$AAk?$AAG?$AAe?$AAt?$AAP?$AAa?$AAr?$AAe?$AAn?$AAt?$AAC?$AAl?$AAo?$AAc?$AAk?$AAR?$AAe?$AAf?$AAc?$AAo?$AAu?$AAn?$AAt@| [ DATA ] ; `string'

  00000			 AREA	 |.pdata|, PDATA
|$T49686| DCD	|$LN17@PrcmClockG|
	DCD	0x40003501

  00000			 AREA	 |.rdata|, DATA, READONLY
|??_C@_1FA@MJCKPJCC@?$AA?$CL?$AAP?$AAr?$AAc?$AAm?$AAC?$AAl?$AAo?$AAc?$AAk?$AAG?$AAe?$AAt?$AAP?$AAa?$AAr?$AAe?$AAn?$AAt?$AAC?$AAl?$AAo?$AAc?$AAk?$AAR?$AAe?$AAf?$AAc?$AAo?$AAu?$AAn?$AAt@| DCB "+"
	DCB	0x0, "P", 0x0, "r", 0x0, "c", 0x0, "m", 0x0, "C", 0x0, "l"
	DCB	0x0, "o", 0x0, "c", 0x0, "k", 0x0, "G", 0x0, "e", 0x0, "t"
	DCB	0x0, "P", 0x0, "a", 0x0, "r", 0x0, "e", 0x0, "n", 0x0, "t"
	DCB	0x0, "C", 0x0, "l", 0x0, "o", 0x0, "c", 0x0, "k", 0x0, "R"
	DCB	0x0, "e", 0x0, "f", 0x0, "c", 0x0, "o", 0x0, "u", 0x0, "n"
	DCB	0x0, "t", 0x0, "(", 0x0, ")", 0x0, "=", 0x0, "%", 0x0, "d"
	DCB	0x0, 0xd, 0x0, 0xa, 0x0, 0x0, 0x0	; `string'

  00000			 AREA	 |.rdata|, DATA, READONLY
|??_C@_1HE@MOBKNDOK@?$AA?$CL?$AAP?$AAr?$AAc?$AAm?$AAC?$AAl?$AAo?$AAc?$AAk?$AAG?$AAe?$AAt?$AAP?$AAa?$AAr?$AAe?$AAn?$AAt?$AAC?$AAl?$AAo?$AAc?$AAk?$AAR?$AAe?$AAf?$AAc?$AAo?$AAu?$AAn?$AAt@| DCB "+"
	DCB	0x0, "P", 0x0, "r", 0x0, "c", 0x0, "m", 0x0, "C", 0x0, "l"
	DCB	0x0, "o", 0x0, "c", 0x0, "k", 0x0, "G", 0x0, "e", 0x0, "t"
	DCB	0x0, "P", 0x0, "a", 0x0, "r", 0x0, "e", 0x0, "n", 0x0, "t"
	DCB	0x0, "C", 0x0, "l", 0x0, "o", 0x0, "c", 0x0, "k", 0x0, "R"
	DCB	0x0, "e", 0x0, "f", 0x0, "c", 0x0, "o", 0x0, "u", 0x0, "n"
	DCB	0x0, "t", 0x0, "(", 0x0, "c", 0x0, "l", 0x0, "o", 0x0, "c"
	DCB	0x0, "k", 0x0, "I", 0x0, "d", 0x0, "=", 0x0, "%", 0x0, "d"
	DCB	0x0, ",", 0x0, " ", 0x0, "n", 0x0, "L", 0x0, "e", 0x0, "v"
	DCB	0x0, "e", 0x0, "l", 0x0, "=", 0x0, "%", 0x0, "d", 0x0, ")"
	DCB	0x0, 0xd, 0x0, 0xa, 0x0, 0x0, 0x0	; `string'
; Function compile flags: /Ogspy

  00000			 AREA	 |.text|, CODE, ARM

  00000		 |PrcmClockGetParentClockRefcount| PROC

; 1862 : {

  00000		 |$LN17@PrcmClockG|
  00000	e92d40f0	 stmdb       sp!, {r4 - r7, lr}
  00004		 |$M49683|
  00004	e1a07002	 mov         r7, r2
  00008	e1a06001	 mov         r6, r1
  0000c	e1a04000	 mov         r4, r0

; 1863 :     BOOL rc = FALSE;
; 1864 :     OALMSG(1, (L"+PrcmClockGetParentClockRefcount"
; 1865 :         L"(clockId=%d, nLevel=%d)\r\n", clockId, nLevel)
; 1866 :         );

  00010	e59f00b8	 ldr         r0, [pc, #0xB8]
  00014	e1a02006	 mov         r2, r6
  00018	e1a01004	 mov         r1, r4
  0001c	e3a05000	 mov         r5, #0
  00020	eb000000	 bl          NKDbgPrintfW

; 1867 : 
; 1868 :     switch (nLevel)

  00024	e3560001	 cmp         r6, #1
  00028	0a000016	 beq         |$LN8@PrcmClockG|
  0002c	e3560002	 cmp         r6, #2
  00030	0a00000e	 beq         |$LN6@PrcmClockG|
  00034	e3560003	 cmp         r6, #3
  00038	0a000006	 beq         |$LN4@PrcmClockG|
  0003c	e3560004	 cmp         r6, #4
  00040	1a000019	 bne         |$LN7@PrcmClockG|

; 1893 : 
; 1894 :         case 4:
; 1895 :             if (clockId < kVDD_COUNT)

  00044	e354000a	 cmp         r4, #0xA
  00048	2a000017	 bcs         |$LN7@PrcmClockG|

; 1896 :                 {
; 1897 :                 *pRefCount = s_VddTable[clockId];

  0004c	e59f3078	 ldr         r3, [pc, #0x78]

; 1898 :                 rc = TRUE;

  00050	e7933104	 ldr         r3, [r3, +r4, lsl #2]

; 1899 :                 }
; 1900 :             break;

  00054	ea000012	 b           |$LN13@PrcmClockG|
  00058		 |$LN4@PrcmClockG|

; 1885 : 
; 1886 :         case 3:
; 1887 :             if (clockId < kDPLL_COUNT)

  00058	e3540006	 cmp         r4, #6
  0005c	2a000012	 bcs         |$LN7@PrcmClockG|

; 1888 :                 {
; 1889 :                 *pRefCount = s_DpllTable[clockId].refCount;

  00060	e59f2060	 ldr         r2, [pc, #0x60]
  00064	e0843084	 add         r3, r4, r4, lsl #1

; 1890 :                 rc = TRUE;

  00068	e0823103	 add         r3, r2, r3, lsl #2

; 1891 :                 }
; 1892 :             break;

  0006c	ea00000b	 b           |$LN14@PrcmClockG|
  00070		 |$LN6@PrcmClockG|

; 1875 :                 }
; 1876 :             break;
; 1877 : 
; 1878 :         case 2:
; 1879 :             if (clockId < kDPLL_CLKOUT_COUNT)

  00070	e3540010	 cmp         r4, #0x10
  00074	2a00000c	 bcs         |$LN7@PrcmClockG|

; 1880 :                 {
; 1881 :                 *pRefCount = s_DpllClkOutTable[clockId].refCount;

  00078	e59f3048	 ldr         r3, [pc, #0x48]

; 1882 :                 rc = TRUE;

  0007c	e2833048	 add         r3, r3, #0x48
  00080	e0833184	 add         r3, r3, r4, lsl #3

; 1883 :                 }
; 1884 :             break;

  00084	ea000005	 b           |$LN14@PrcmClockG|
  00088		 |$LN8@PrcmClockG|

; 1869 :         {
; 1870 :         case 1:
; 1871 :             if (clockId < kSOURCE_CLOCK_COUNT)

  00088	e354005a	 cmp         r4, #0x5A
  0008c	2a000006	 bcs         |$LN7@PrcmClockG|

; 1872 :                 {
; 1873 :                 *pRefCount = s_SrcClockTable[clockId].refCount;

  00090	e59f3030	 ldr         r3, [pc, #0x30]
  00094	e0842104	 add         r2, r4, r4, lsl #2

; 1874 :                 rc = TRUE;

  00098	e28330c8	 add         r3, r3, #0xC8
  0009c	e0833102	 add         r3, r3, r2, lsl #2
  000a0		 |$LN14@PrcmClockG|
  000a0	e5933004	 ldr         r3, [r3, #4]
  000a4		 |$LN13@PrcmClockG|
  000a4	e5873000	 str         r3, [r7]
  000a8	e3a05001	 mov         r5, #1
  000ac		 |$LN7@PrcmClockG|

; 1901 :         }
; 1902 :     
; 1903 : 
; 1904 :     OALMSG(1, (L"+PrcmClockGetParentClockRefcount()=%d\r\n", rc));

  000ac	e59f0010	 ldr         r0, [pc, #0x10]
  000b0	e1a01005	 mov         r1, r5
  000b4	eb000000	 bl          NKDbgPrintfW

; 1905 :     return rc;
; 1906 : }

  000b8	e1a00005	 mov         r0, r5
  000bc	e8bd40f0	 ldmia       sp!, {r4 - r7, lr}
  000c0	e12fff1e	 bx          lr
  000c4		 |$LN18@PrcmClockG|
  000c4		 |$LN19@PrcmClockG|
  000c4	00000000	 DCD         |??_C@_1FA@MJCKPJCC@?$AA?$CL?$AAP?$AAr?$AAc?$AAm?$AAC?$AAl?$AAo?$AAc?$AAk?$AAG?$AAe?$AAt?$AAP?$AAa?$AAr?$AAe?$AAn?$AAt?$AAC?$AAl?$AAo?$AAc?$AAk?$AAR?$AAe?$AAf?$AAc?$AAo?$AAu?$AAn?$AAt@|
  000c8		 |$LN20@PrcmClockG|
  000c8	00000000	 DCD         |s_DpllTable|
  000cc		 |$LN21@PrcmClockG|
  000cc	00000000	 DCD         |s_VddTable|
  000d0		 |$LN22@PrcmClockG|
  000d0	00000000	 DCD         |??_C@_1HE@MOBKNDOK@?$AA?$CL?$AAP?$AAr?$AAc?$AAm?$AAC?$AAl?$AAo?$AAc?$AAk?$AAG?$AAe?$AAt?$AAP?$AAa?$AAr?$AAe?$AAn?$AAt?$AAC?$AAl?$AAo?$AAc?$AAk?$AAR?$AAe?$AAf?$AAc?$AAo?$AAu?$AAn?$AAt@|
  000d4		 |$M49684|

			 ENDP  ; |PrcmClockGetParentClockRefcount|

	EXPORT	|PrcmClockGetParentClockInfo|
	EXPORT	|??_C@_1EI@CFCAKHBD@?$AA?$CL?$AAP?$AAr?$AAc?$AAm?$AAC?$AAl?$AAo?$AAc?$AAk?$AAG?$AAe?$AAt?$AAP?$AAa?$AAr?$AAe?$AAn?$AAt?$AAC?$AAl?$AAo?$AAc?$AAk?$AAI?$AAn?$AAf?$AAo?$AA?$CI?$AA?$CJ?$AA?$DN?$AA?$CF@| [ DATA ] ; `string'
	EXPORT	|??_C@_1II@JECHHBME@?$AA?$CL?$AAP?$AAr?$AAc?$AAm?$AAC?$AAl?$AAo?$AAc?$AAk?$AAG?$AAe?$AAt?$AAP?$AAa?$AAr?$AAe?$AAn?$AAt?$AAC?$AAl?$AAo?$AAc?$AAk?$AAI?$AAn?$AAf?$AAo?$AA?$CI?$AAc?$AAl?$AAo@| [ DATA ] ; `string'

  00000			 AREA	 |.pdata|, PDATA
|$T49705| DCD	|$LN18@PrcmClockG@2|
	DCD	0x40003801

  00000			 AREA	 |.rdata|, DATA, READONLY
|??_C@_1EI@CFCAKHBD@?$AA?$CL?$AAP?$AAr?$AAc?$AAm?$AAC?$AAl?$AAo?$AAc?$AAk?$AAG?$AAe?$AAt?$AAP?$AAa?$AAr?$AAe?$AAn?$AAt?$AAC?$AAl?$AAo?$AAc?$AAk?$AAI?$AAn?$AAf?$AAo?$AA?$CI?$AA?$CJ?$AA?$DN?$AA?$CF@| DCB "+"
	DCB	0x0, "P", 0x0, "r", 0x0, "c", 0x0, "m", 0x0, "C", 0x0, "l"
	DCB	0x0, "o", 0x0, "c", 0x0, "k", 0x0, "G", 0x0, "e", 0x0, "t"
	DCB	0x0, "P", 0x0, "a", 0x0, "r", 0x0, "e", 0x0, "n", 0x0, "t"
	DCB	0x0, "C", 0x0, "l", 0x0, "o", 0x0, "c", 0x0, "k", 0x0, "I"
	DCB	0x0, "n", 0x0, "f", 0x0, "o", 0x0, "(", 0x0, ")", 0x0, "="
	DCB	0x0, "%", 0x0, "d", 0x0, 0xd, 0x0, 0xa, 0x0, 0x0, 0x0 ; `string'

  00000			 AREA	 |.rdata|, DATA, READONLY
|??_C@_1II@JECHHBME@?$AA?$CL?$AAP?$AAr?$AAc?$AAm?$AAC?$AAl?$AAo?$AAc?$AAk?$AAG?$AAe?$AAt?$AAP?$AAa?$AAr?$AAe?$AAn?$AAt?$AAC?$AAl?$AAo?$AAc?$AAk?$AAI?$AAn?$AAf?$AAo?$AA?$CI?$AAc?$AAl?$AAo@| DCB "+"
	DCB	0x0, "P", 0x0, "r", 0x0, "c", 0x0, "m", 0x0, "C", 0x0, "l"
	DCB	0x0, "o", 0x0, "c", 0x0, "k", 0x0, "G", 0x0, "e", 0x0, "t"
	DCB	0x0, "P", 0x0, "a", 0x0, "r", 0x0, "e", 0x0, "n", 0x0, "t"
	DCB	0x0, "C", 0x0, "l", 0x0, "o", 0x0, "c", 0x0, "k", 0x0, "I"
	DCB	0x0, "n", 0x0, "f", 0x0, "o", 0x0, "(", 0x0, "c", 0x0, "l"
	DCB	0x0, "o", 0x0, "c", 0x0, "k", 0x0, "I", 0x0, "d", 0x0, "="
	DCB	0x0, "%", 0x0, "d", 0x0, ",", 0x0, " ", 0x0, "n", 0x0, "L"
	DCB	0x0, "e", 0x0, "v", 0x0, "e", 0x0, "l", 0x0, "=", 0x0, "%"
	DCB	0x0, "d", 0x0, ",", 0x0, " ", 0x0, "p", 0x0, "I", 0x0, "n"
	DCB	0x0, "f", 0x0, "o", 0x0, "=", 0x0, "0", 0x0, "x", 0x0, "%"
	DCB	0x0, "0", 0x0, "8", 0x0, "X", 0x0, ")", 0x0, 0xd, 0x0, 0xa
	DCB	0x0, 0x0, 0x0				; `string'
; Function compile flags: /Ogspy

  00000			 AREA	 |.text|, CODE, ARM

  00000		 |PrcmClockGetParentClockInfo| PROC

; 1915 : {

  00000		 |$LN18@PrcmClockG@2|
  00000	e92d40f0	 stmdb       sp!, {r4 - r7, lr}
  00004		 |$M49702|
  00004	e1a07002	 mov         r7, r2
  00008	e1a05001	 mov         r5, r1
  0000c	e1a04000	 mov         r4, r0

; 1916 :     BOOL rc = FALSE;
; 1917 :     UINT parentClock;
; 1918 :     OALMSG(1, (L"+PrcmClockGetParentClockInfo"
; 1919 :         L"(clockId=%d, nLevel=%d, pInfo=0x%08X)\r\n", clockId, nLevel, pInfo)
; 1920 :         );

  00010	e59f00c4	 ldr         r0, [pc, #0xC4]
  00014	e1a03007	 mov         r3, r7
  00018	e1a02005	 mov         r2, r5
  0001c	e1a01004	 mov         r1, r4
  00020	e3a06000	 mov         r6, #0
  00024	eb000000	 bl          NKDbgPrintfW

; 1921 : 
; 1922 :     // get parent clock
; 1923 :     switch (nLevel)

  00028	e3550001	 cmp         r5, #1
  0002c	0a000011	 beq         |$LN11@PrcmClockG@2|
  00030	e3550002	 cmp         r5, #2
  00034	0a000008	 beq         |$LN7@PrcmClockG@2|
  00038	e3550003	 cmp         r5, #3
  0003c	1a00001e	 bne         |$cleanUp$47950|

; 1948 : 
; 1949 :         case 3:
; 1950 :             if (clockId < kDPLL_COUNT)

  00040	e3540006	 cmp         r4, #6
  00044	2a00001c	 bcs         |$cleanUp$47950|

; 1951 :                 {
; 1952 :                 parentClock = s_DpllTable[clockId].vddDomain;

  00048	e59f1088	 ldr         r1, [pc, #0x88]
  0004c	e0843084	 add         r3, r4, r4, lsl #1

; 1953 :                 ++nLevel;                    

  00050	e3a05004	 mov         r5, #4
  00054	e7910103	 ldr         r0, [r1, +r3, lsl #2]

; 1954 :                 }
; 1955 :             else
; 1956 :                 {
; 1957 :                 goto cleanUp;
; 1958 :                 }
; 1959 :             break;

  00058	ea000011	 b           |$LN9@PrcmClockG@2|
  0005c		 |$LN7@PrcmClockG@2|

; 1930 :                 }
; 1931 :             else
; 1932 :                 {
; 1933 :                 goto cleanUp;
; 1934 :                 }
; 1935 :             break;
; 1936 : 
; 1937 :         case 2:
; 1938 :             if (clockId < kDPLL_CLKOUT_COUNT)

  0005c	e3540010	 cmp         r4, #0x10
  00060	2a000015	 bcs         |$cleanUp$47950|

; 1939 :                 {
; 1940 :                 parentClock = s_DpllClkOutTable[clockId].dpllDomain;

  00064	e59f306c	 ldr         r3, [pc, #0x6C]

; 1941 :                 ++nLevel;                    

  00068	e3a05003	 mov         r5, #3
  0006c	e2833048	 add         r3, r3, #0x48
  00070	e7930184	 ldr         r0, [r3, +r4, lsl #3]

; 1942 :                 }
; 1943 :             else
; 1944 :                 {
; 1945 :                 goto cleanUp;
; 1946 :                 }
; 1947 :             break;

  00074	ea00000a	 b           |$LN9@PrcmClockG@2|
  00078		 |$LN11@PrcmClockG@2|

; 1924 :         {
; 1925 :         case 1:            
; 1926 :             if (clockId < kSOURCE_CLOCK_COUNT)

  00078	e354005a	 cmp         r4, #0x5A
  0007c	2a00000e	 bcs         |$cleanUp$47950|

; 1927 :                 {
; 1928 :                 parentClock = s_SrcClockTable[clockId].parentClk;

  00080	e59f1050	 ldr         r1, [pc, #0x50]
  00084	e0840104	 add         r0, r4, r4, lsl #2

; 1929 :                 if (s_SrcClockTable[clockId].bIsDpllSrcClk) ++nLevel;                    

  00088	e28130c8	 add         r3, r1, #0xC8
  0008c	e0833100	 add         r3, r3, r0, lsl #2
  00090	e5932008	 ldr         r2, [r3, #8]
  00094	e28130c8	 add         r3, r1, #0xC8
  00098	e7930100	 ldr         r0, [r3, +r0, lsl #2]
  0009c	e3520000	 cmp         r2, #0
  000a0	13a05002	 movne       r5, #2
  000a4		 |$LN9@PrcmClockG@2|

; 1960 : 
; 1961 :         default:
; 1962 :             goto cleanUp;
; 1963 :         }
; 1964 : 
; 1965 : 
; 1966 :     // get parent information
; 1967 :     //
; 1968 :     pInfo->nLevel = nLevel;
; 1969 :     pInfo->clockId = parentClock;
; 1970 :     rc = PrcmClockGetParentClockRefcount(parentClock, nLevel, &pInfo->refCount);

  000a4	e1a02007	 mov         r2, r7
  000a8	e4820004	 str         r0, [r2], #4
  000ac	e1a01005	 mov         r1, r5
  000b0	e5875008	 str         r5, [r7, #8]
  000b4	eb000000	 bl          PrcmClockGetParentClockRefcount
  000b8	e1a06000	 mov         r6, r0
  000bc		 |$cleanUp$47950|

; 1971 : 
; 1972 : cleanUp:    
; 1973 :     OALMSG(1, (L"+PrcmClockGetParentClockInfo()=%d\r\n", rc));

  000bc	e59f0010	 ldr         r0, [pc, #0x10]
  000c0	e1a01006	 mov         r1, r6
  000c4	eb000000	 bl          NKDbgPrintfW

; 1974 :     return rc;
; 1975 : }

  000c8	e1a00006	 mov         r0, r6
  000cc	e8bd40f0	 ldmia       sp!, {r4 - r7, lr}
  000d0	e12fff1e	 bx          lr
  000d4		 |$LN19@PrcmClockG@2|
  000d4		 |$LN20@PrcmClockG@2|
  000d4	00000000	 DCD         |??_C@_1EI@CFCAKHBD@?$AA?$CL?$AAP?$AAr?$AAc?$AAm?$AAC?$AAl?$AAo?$AAc?$AAk?$AAG?$AAe?$AAt?$AAP?$AAa?$AAr?$AAe?$AAn?$AAt?$AAC?$AAl?$AAo?$AAc?$AAk?$AAI?$AAn?$AAf?$AAo?$AA?$CI?$AA?$CJ?$AA?$DN?$AA?$CF@|
  000d8		 |$LN21@PrcmClockG@2|
  000d8	00000000	 DCD         |s_DpllTable|
  000dc		 |$LN22@PrcmClockG@2|
  000dc	00000000	 DCD         |??_C@_1II@JECHHBME@?$AA?$CL?$AAP?$AAr?$AAc?$AAm?$AAC?$AAl?$AAo?$AAc?$AAk?$AAG?$AAe?$AAt?$AAP?$AAa?$AAr?$AAe?$AAn?$AAt?$AAC?$AAl?$AAo?$AAc?$AAk?$AAI?$AAn?$AAf?$AAo?$AA?$CI?$AAc?$AAl?$AAo@|
  000e0		 |$M49703|

			 ENDP  ; |PrcmClockGetParentClockInfo|

	EXPORT	|PrcmClockSetDpllState|
	EXPORT	|??_C@_1DM@GILJKCEA@?$AA?$CL?$AAP?$AAr?$AAc?$AAm?$AAC?$AAl?$AAo?$AAc?$AAk?$AAS?$AAe?$AAt?$AAD?$AAp?$AAl?$AAl?$AAS?$AAt?$AAa?$AAt?$AAe?$AA?$CI?$AA?$CJ?$AA?$DN?$AA?$CF?$AAd?$AA?$AN?$AA?6?$AA?$AA@| [ DATA ] ; `string'
	EXPORT	|??_C@_1EO@FILIAOBC@?$AA?$CL?$AAP?$AAr?$AAc?$AAm?$AAC?$AAl?$AAo?$AAc?$AAk?$AAS?$AAe?$AAt?$AAD?$AAp?$AAl?$AAl?$AAS?$AAt?$AAa?$AAt?$AAe?$AA?$CI?$AAp?$AAI?$AAn?$AAf?$AAo?$AA?$DN?$AA0?$AAx?$AA?$CF@| [ DATA ] ; `string'

  00000			 AREA	 |.pdata|, PDATA
|$T49725| DCD	|$LN16@PrcmClockS@3|
	DCD	0x40004001

  00000			 AREA	 |.rdata|, DATA, READONLY
|??_C@_1DM@GILJKCEA@?$AA?$CL?$AAP?$AAr?$AAc?$AAm?$AAC?$AAl?$AAo?$AAc?$AAk?$AAS?$AAe?$AAt?$AAD?$AAp?$AAl?$AAl?$AAS?$AAt?$AAa?$AAt?$AAe?$AA?$CI?$AA?$CJ?$AA?$DN?$AA?$CF?$AAd?$AA?$AN?$AA?6?$AA?$AA@| DCB "+"
	DCB	0x0, "P", 0x0, "r", 0x0, "c", 0x0, "m", 0x0, "C", 0x0, "l"
	DCB	0x0, "o", 0x0, "c", 0x0, "k", 0x0, "S", 0x0, "e", 0x0, "t"
	DCB	0x0, "D", 0x0, "p", 0x0, "l", 0x0, "l", 0x0, "S", 0x0, "t"
	DCB	0x0, "a", 0x0, "t", 0x0, "e", 0x0, "(", 0x0, ")", 0x0, "="
	DCB	0x0, "%", 0x0, "d", 0x0, 0xd, 0x0, 0xa, 0x0, 0x0, 0x0 ; `string'

  00000			 AREA	 |.rdata|, DATA, READONLY
|??_C@_1EO@FILIAOBC@?$AA?$CL?$AAP?$AAr?$AAc?$AAm?$AAC?$AAl?$AAo?$AAc?$AAk?$AAS?$AAe?$AAt?$AAD?$AAp?$AAl?$AAl?$AAS?$AAt?$AAa?$AAt?$AAe?$AA?$CI?$AAp?$AAI?$AAn?$AAf?$AAo?$AA?$DN?$AA0?$AAx?$AA?$CF@| DCB "+"
	DCB	0x0, "P", 0x0, "r", 0x0, "c", 0x0, "m", 0x0, "C", 0x0, "l"
	DCB	0x0, "o", 0x0, "c", 0x0, "k", 0x0, "S", 0x0, "e", 0x0, "t"
	DCB	0x0, "D", 0x0, "p", 0x0, "l", 0x0, "l", 0x0, "S", 0x0, "t"
	DCB	0x0, "a", 0x0, "t", 0x0, "e", 0x0, "(", 0x0, "p", 0x0, "I"
	DCB	0x0, "n", 0x0, "f", 0x0, "o", 0x0, "=", 0x0, "0", 0x0, "x"
	DCB	0x0, "%", 0x0, "0", 0x0, "8", 0x0, "X", 0x0, ")", 0x0, 0xd
	DCB	0x0, 0xa, 0x0, 0x0, 0x0			; `string'
; Function compile flags: /Ogspy

  00000			 AREA	 |.text|, CODE, ARM

  00000		 |PrcmClockSetDpllState| PROC

; 1982 : {

  00000		 |$LN16@PrcmClockS@3|
  00000	e92d4030	 stmdb       sp!, {r4, r5, lr}
  00004		 |$M49722|
  00004	e1a04000	 mov         r4, r0

; 1983 :     BOOL rc = FALSE;
; 1984 :     DpllState_t *pDpll;
; 1985 :     OALMSG(1, (L"+PrcmClockSetDpllState(pInfo=0x%08X)\r\n", pInfo));

  00008	e59f00ec	 ldr         r0, [pc, #0xEC]
  0000c	e1a01004	 mov         r1, r4
  00010	e3a05000	 mov         r5, #0
  00014	eb000000	 bl          NKDbgPrintfW

; 1986 : 
; 1987 :     Lock(Mutex_DeviceClock);

  00018	e3a00000	 mov         r0, #0
  0001c	eb000000	 bl          Lock

; 1988 :     if (pInfo->dpllId > kDPLL5) goto cleanUp;

  00020	e5943004	 ldr         r3, [r4, #4]
  00024	e3530004	 cmp         r3, #4
  00028	8a000029	 bhi         |$cleanUp$47968|

; 1989 : 
; 1990 :     // get dpll pointer
; 1991 :     pDpll = s_DpllTable[pInfo->dpllId].pDpllInfo;

  0002c	e59f20c4	 ldr         r2, [pc, #0xC4]
  00030	e0833083	 add         r3, r3, r3, lsl #1
  00034	e0823103	 add         r3, r2, r3, lsl #2
  00038	e5933008	 ldr         r3, [r3, #8]
  0003c	e1b02003	 movs        r2, r3

; 1992 :     if (pDpll == NULL) goto cleanUp;

  00040	0a000023	 beq         |$cleanUp$47968|

; 1993 : 
; 1994 :     if (pInfo->ffMask & DPLL_UPDATE_LPMODE)

  00044	e5943008	 ldr         r3, [r4, #8]
  00048	e3130002	 tst         r3, #2
  0004c	0a000004	 beq         |$LN5@PrcmClockS@3|

; 1995 :         {
; 1996 :         pDpll->lowPowerEnabled = pInfo->lowPowerEnabled ? 0x01 : 0;

  00050	e594300c	 ldr         r3, [r4, #0xC]
  00054	e3530000	 cmp         r3, #0
  00058	13a03001	 movne       r3, #1
  0005c	03a03000	 moveq       r3, #0
  00060	e5823000	 str         r3, [r2]
  00064		 |$LN5@PrcmClockS@3|

; 1997 :         }
; 1998 : 
; 1999 :     if (pInfo->ffMask & DPLL_UPDATE_DRIFTGUARD)

  00064	e5943008	 ldr         r3, [r4, #8]
  00068	e3130004	 tst         r3, #4
  0006c	0a000004	 beq         |$LN4@PrcmClockS@3|

; 2000 :         {
; 2001 :         pDpll->driftGuard = pInfo->driftGuardEnabled ? 0x01 : 0;    

  00070	e5943014	 ldr         r3, [r4, #0x14]
  00074	e3530000	 cmp         r3, #0
  00078	13a03001	 movne       r3, #1
  0007c	03a03000	 moveq       r3, #0
  00080	e582300c	 str         r3, [r2, #0xC]
  00084		 |$LN4@PrcmClockS@3|

; 2002 :         }
; 2003 : 
; 2004 :     if (pInfo->ffMask & DPLL_UPDATE_RAMPTIME)

  00084	e5943008	 ldr         r3, [r4, #8]
  00088	e3130008	 tst         r3, #8

; 2005 :         {
; 2006 :         pDpll->rampTime = (pInfo->rampTime & DPLL_RAMPTIME_MASK) >> DPLL_RAMPTIME_SHIFT;               

  0008c	15943010	 ldrne       r3, [r4, #0x10]
  00090	11a03b03	 movne       r3, r3, lsl #22
  00094	11a03f23	 movne       r3, r3, lsr #30
  00098	15823004	 strne       r3, [r2, #4]

; 2007 :         }
; 2008 : 
; 2009 :     if (pInfo->ffMask & DPLL_UPDATE_DPLLMODE)

  0009c	e5943008	 ldr         r3, [r4, #8]
  000a0	e3130001	 tst         r3, #1

; 2010 :         {
; 2011 :         pDpll->dpllMode = (pInfo->dpllMode & DPLL_MODE_MASK) >> DPLL_MODE_SHIFT;

  000a4	15943018	 ldrne       r3, [r4, #0x18]
  000a8	12033007	 andne       r3, r3, #7
  000ac	15823010	 strne       r3, [r2, #0x10]

; 2012 :         }
; 2013 : 
; 2014 :     if (pInfo->ffMask & DPLL_UPDATE_AUTOIDLEMODE)

  000b0	e5943008	 ldr         r3, [r4, #8]
  000b4	e3130010	 tst         r3, #0x10

; 2015 :         {
; 2016 :         pDpll->dpllAutoidleState = (pInfo->dpllAutoidleState & DPLL_AUTOIDLE_MASK) >> DPLL_AUTOIDLE_SHIFT;

  000b8	1594301c	 ldrne       r3, [r4, #0x1C]
  000bc	12033007	 andne       r3, r3, #7
  000c0	15823020	 strne       r3, [r2, #0x20]

; 2017 :         }
; 2018 :     
; 2019 :     rc = _ClockHwUpdateDpllState(pInfo->dpllId, pInfo->ffMask);

  000c4	e5941008	 ldr         r1, [r4, #8]
  000c8	e5940004	 ldr         r0, [r4, #4]
  000cc	eb000000	 bl          _ClockHwUpdateDpllState
  000d0	e1a05000	 mov         r5, r0
  000d4		 |$cleanUp$47968|

; 2020 :     
; 2021 : 
; 2022 : cleanUp:    
; 2023 :     Unlock(Mutex_DeviceClock);

  000d4	e3a00000	 mov         r0, #0
  000d8	eb000000	 bl          Unlock

; 2024 :     OALMSG(1, (L"+PrcmClockSetDpllState()=%d\r\n", rc));

  000dc	e59f0010	 ldr         r0, [pc, #0x10]
  000e0	e1a01005	 mov         r1, r5
  000e4	eb000000	 bl          NKDbgPrintfW

; 2025 :     return rc;
; 2026 : }

  000e8	e1a00005	 mov         r0, r5
  000ec	e8bd4030	 ldmia       sp!, {r4, r5, lr}
  000f0	e12fff1e	 bx          lr
  000f4		 |$LN17@PrcmClockS@3|
  000f4		 |$LN18@PrcmClockS@3|
  000f4	00000000	 DCD         |??_C@_1DM@GILJKCEA@?$AA?$CL?$AAP?$AAr?$AAc?$AAm?$AAC?$AAl?$AAo?$AAc?$AAk?$AAS?$AAe?$AAt?$AAD?$AAp?$AAl?$AAl?$AAS?$AAt?$AAa?$AAt?$AAe?$AA?$CI?$AA?$CJ?$AA?$DN?$AA?$CF?$AAd?$AA?$AN?$AA?6?$AA?$AA@|
  000f8		 |$LN19@PrcmClockS@3|
  000f8	00000000	 DCD         |s_DpllTable|
  000fc		 |$LN20@PrcmClockS@3|
  000fc	00000000	 DCD         |??_C@_1EO@FILIAOBC@?$AA?$CL?$AAP?$AAr?$AAc?$AAm?$AAC?$AAl?$AAo?$AAc?$AAk?$AAS?$AAe?$AAt?$AAD?$AAp?$AAl?$AAl?$AAS?$AAt?$AAa?$AAt?$AAe?$AA?$CI?$AAp?$AAI?$AAn?$AAf?$AAo?$AA?$DN?$AA0?$AAx?$AA?$CF@|
  00100		 |$M49723|

			 ENDP  ; |PrcmClockSetDpllState|

	EXPORT	|PrcmClockSetDpllFrequency|
	EXPORT	|??_C@_1EE@PEIBGBP@?$AA?$CL?$AAP?$AAr?$AAc?$AAm?$AAC?$AAl?$AAo?$AAc?$AAk?$AAS?$AAe?$AAt?$AAD?$AAp?$AAl?$AAl?$AAF?$AAr?$AAe?$AAq?$AAu?$AAe?$AAn?$AAc?$AAy?$AA?$CI?$AA?$CJ?$AA?$DN?$AA?$CF?$AAd?$AA?$AN@| [ DATA ] ; `string'
	EXPORT	|??_C@_1IA@OGENNGBC@?$AA?$CL?$AAP?$AAr?$AAc?$AAm?$AAC?$AAl?$AAo?$AAc?$AAk?$AAS?$AAe?$AAt?$AAD?$AAp?$AAl?$AAl?$AAF?$AAr?$AAe?$AAq?$AAu?$AAe?$AAn?$AAc?$AAy?$AA?$CI?$AAd?$AAp?$AAl?$AAl?$AAI@| [ DATA ] ; `string'

  00000			 AREA	 |.pdata|, PDATA
|$T49745| DCD	|$LN8@PrcmClockS@4|
	DCD	0x40003502

  00000			 AREA	 |.rdata|, DATA, READONLY
|??_C@_1EE@PEIBGBP@?$AA?$CL?$AAP?$AAr?$AAc?$AAm?$AAC?$AAl?$AAo?$AAc?$AAk?$AAS?$AAe?$AAt?$AAD?$AAp?$AAl?$AAl?$AAF?$AAr?$AAe?$AAq?$AAu?$AAe?$AAn?$AAc?$AAy?$AA?$CI?$AA?$CJ?$AA?$DN?$AA?$CF?$AAd?$AA?$AN@| DCB "+"
	DCB	0x0, "P", 0x0, "r", 0x0, "c", 0x0, "m", 0x0, "C", 0x0, "l"
	DCB	0x0, "o", 0x0, "c", 0x0, "k", 0x0, "S", 0x0, "e", 0x0, "t"
	DCB	0x0, "D", 0x0, "p", 0x0, "l", 0x0, "l", 0x0, "F", 0x0, "r"
	DCB	0x0, "e", 0x0, "q", 0x0, "u", 0x0, "e", 0x0, "n", 0x0, "c"
	DCB	0x0, "y", 0x0, "(", 0x0, ")", 0x0, "=", 0x0, "%", 0x0, "d"
	DCB	0x0, 0xd, 0x0, 0xa, 0x0, 0x0, 0x0	; `string'

  00000			 AREA	 |.rdata|, DATA, READONLY
|??_C@_1IA@OGENNGBC@?$AA?$CL?$AAP?$AAr?$AAc?$AAm?$AAC?$AAl?$AAo?$AAc?$AAk?$AAS?$AAe?$AAt?$AAD?$AAp?$AAl?$AAl?$AAF?$AAr?$AAe?$AAq?$AAu?$AAe?$AAn?$AAc?$AAy?$AA?$CI?$AAd?$AAp?$AAl?$AAl?$AAI@| DCB "+"
	DCB	0x0, "P", 0x0, "r", 0x0, "c", 0x0, "m", 0x0, "C", 0x0, "l"
	DCB	0x0, "o", 0x0, "c", 0x0, "k", 0x0, "S", 0x0, "e", 0x0, "t"
	DCB	0x0, "D", 0x0, "p", 0x0, "l", 0x0, "l", 0x0, "F", 0x0, "r"
	DCB	0x0, "e", 0x0, "q", 0x0, "u", 0x0, "e", 0x0, "n", 0x0, "c"
	DCB	0x0, "y", 0x0, "(", 0x0, "d", 0x0, "p", 0x0, "l", 0x0, "l"
	DCB	0x0, "I", 0x0, "d", 0x0, "=", 0x0, "%", 0x0, "d", 0x0, ","
	DCB	0x0, " ", 0x0, "m", 0x0, "=", 0x0, "%", 0x0, "d", 0x0, ","
	DCB	0x0, " ", 0x0, "n", 0x0, "=", 0x0, "%", 0x0, "d", 0x0, ","
	DCB	0x0, " ", 0x0, "f", 0x0, "r", 0x0, "e", 0x0, "q", 0x0, "S"
	DCB	0x0, "e", 0x0, "l", 0x0, "=", 0x0, "%", 0x0, "d", 0x0, ")"
	DCB	0x0, 0xd, 0x0, 0xa, 0x0, 0x0, 0x0	; `string'
; Function compile flags: /Ogspy

  00000			 AREA	 |.text|, CODE, ARM

  00000		 |PrcmClockSetDpllFrequency| PROC

; 2037 : {

  00000		 |$LN8@PrcmClockS@4|
  00000	e92d43f0	 stmdb       sp!, {r4 - r9, lr}
  00004	e24dd004	 sub         sp, sp, #4
  00008		 |$M49742|
  00008	e1a09003	 mov         r9, r3
  0000c	e1a07002	 mov         r7, r2
  00010	e1a08001	 mov         r8, r1
  00014	e1a06000	 mov         r6, r0

; 2038 :     BOOL rc = FALSE;
; 2039 :     DpllState_t *pDpll;
; 2040 :     OALMSG(1, (L"+PrcmClockSetDpllFrequency"
; 2041 :         L"(dpllId=%d, m=%d, n=%d, freqSel=%d)\r\n", 
; 2042 :         dpllId, m, n, freqSel
; 2043 :         ));

  00018	e59f00b0	 ldr         r0, [pc, #0xB0]
  0001c	e1a03007	 mov         r3, r7
  00020	e1a02008	 mov         r2, r8
  00024	e1a01006	 mov         r1, r6
  00028	e3a04000	 mov         r4, #0
  0002c	e58d9000	 str         r9, [sp]
  00030	eb000000	 bl          NKDbgPrintfW

; 2044 : 
; 2045 :     Lock(Mutex_DeviceClock);

  00034	e3a00000	 mov         r0, #0
  00038	eb000000	 bl          Lock

; 2046 :     if (dpllId > kDPLL5) goto cleanUp;

  0003c	e3560004	 cmp         r6, #4
  00040	8a000017	 bhi         |$cleanUp$47994|

; 2047 :     pDpll = s_DpllTable[dpllId].pDpllInfo;

  00044	e59f4080	 ldr         r4, [pc, #0x80]
  00048	e086e086	 add         lr, r6, r6, lsl #1

; 2048 : 
; 2049 :     // check if parameters are already set
; 2050 :     if (pDpll->freqSelection != freqSel ||
; 2051 :         pDpll->divisor != n             ||
; 2052 :         pDpll->multiplier != m          ||
; 2053 :         pDpll->outputDivisor != outputDivisor)

  0004c	e59d5020	 ldr         r5, [sp, #0x20]
  00050	e084e10e	 add         lr, r4, lr, lsl #2
  00054	e59e4008	 ldr         r4, [lr, #8]
  00058	e594e008	 ldr         lr, [r4, #8]
  0005c	e15e0009	 cmp         lr, r9
  00060	1a000008	 bne         |$LN1@PrcmClockS@4|
  00064	e594301c	 ldr         r3, [r4, #0x1C]
  00068	e1530007	 cmp         r3, r7
  0006c	1a000005	 bne         |$LN1@PrcmClockS@4|
  00070	e5943018	 ldr         r3, [r4, #0x18]
  00074	e1530008	 cmp         r3, r8
  00078	1a000002	 bne         |$LN1@PrcmClockS@4|
  0007c	e5943024	 ldr         r3, [r4, #0x24]
  00080	e1530005	 cmp         r3, r5
  00084	0a000005	 beq         |$LN2@PrcmClockS@4|
  00088		 |$LN1@PrcmClockS@4|

; 2054 :         {
; 2055 :         // frequency info
; 2056 :         pDpll->freqSelection = freqSel;
; 2057 :         pDpll->divisor = n;
; 2058 :         pDpll->multiplier = m;
; 2059 :         pDpll->outputDivisor = outputDivisor;
; 2060 :     
; 2061 :         _ClockHwUpdateDpllFrequency(dpllId);

  00088	e1a00006	 mov         r0, r6
  0008c	e5849008	 str         r9, [r4, #8]
  00090	e584701c	 str         r7, [r4, #0x1C]
  00094	e5848018	 str         r8, [r4, #0x18]
  00098	e5845024	 str         r5, [r4, #0x24]
  0009c	eb000000	 bl          _ClockHwUpdateDpllFrequency
  000a0		 |$LN2@PrcmClockS@4|

; 2062 :         }
; 2063 : 
; 2064 :     rc = TRUE;

  000a0	e3a04001	 mov         r4, #1
  000a4		 |$cleanUp$47994|

; 2065 :     
; 2066 : cleanUp:    
; 2067 :     Unlock(Mutex_DeviceClock);

  000a4	e3a00000	 mov         r0, #0
  000a8	eb000000	 bl          Unlock

; 2068 :     OALMSG(1, (L"+PrcmClockSetDpllFrequency()=%d\r\n", rc));

  000ac	e59f0014	 ldr         r0, [pc, #0x14]
  000b0	e1a01004	 mov         r1, r4
  000b4	eb000000	 bl          NKDbgPrintfW

; 2069 :     return rc;
; 2070 : }    

  000b8	e1a00004	 mov         r0, r4
  000bc	e28dd004	 add         sp, sp, #4
  000c0	e8bd43f0	 ldmia       sp!, {r4 - r9, lr}
  000c4	e12fff1e	 bx          lr
  000c8		 |$LN9@PrcmClockS@4|
  000c8		 |$LN10@PrcmClockS@4|
  000c8	00000000	 DCD         |??_C@_1EE@PEIBGBP@?$AA?$CL?$AAP?$AAr?$AAc?$AAm?$AAC?$AAl?$AAo?$AAc?$AAk?$AAS?$AAe?$AAt?$AAD?$AAp?$AAl?$AAl?$AAF?$AAr?$AAe?$AAq?$AAu?$AAe?$AAn?$AAc?$AAy?$AA?$CI?$AA?$CJ?$AA?$DN?$AA?$CF?$AAd?$AA?$AN@|
  000cc		 |$LN11@PrcmClockS@4|
  000cc	00000000	 DCD         |s_DpllTable|
  000d0		 |$LN12@PrcmClockS@4|
  000d0	00000000	 DCD         |??_C@_1IA@OGENNGBC@?$AA?$CL?$AAP?$AAr?$AAc?$AAm?$AAC?$AAl?$AAo?$AAc?$AAk?$AAS?$AAe?$AAt?$AAD?$AAp?$AAl?$AAl?$AAF?$AAr?$AAe?$AAq?$AAu?$AAe?$AAn?$AAc?$AAy?$AA?$CI?$AAd?$AAp?$AAl?$AAl?$AAI@|
  000d4		 |$M49743|

			 ENDP  ; |PrcmClockSetDpllFrequency|

	EXPORT	|PrcmClockSetDpllAutoIdleState|
	EXPORT	|??_C@_1EM@DOKMKDJO@?$AA?$CL?$AAP?$AAr?$AAc?$AAm?$AAC?$AAl?$AAo?$AAc?$AAk?$AAS?$AAe?$AAt?$AAD?$AAp?$AAl?$AAl?$AAA?$AAu?$AAt?$AAo?$AAI?$AAd?$AAl?$AAe?$AAS?$AAt?$AAa?$AAt?$AAe?$AA?$CI?$AA?$CJ@| [ DATA ] ; `string'
	EXPORT	|??_C@_1IM@JIIHLGCG@?$AA?$CL?$AAP?$AAr?$AAc?$AAm?$AAC?$AAl?$AAo?$AAc?$AAk?$AAS?$AAe?$AAt?$AAD?$AAp?$AAl?$AAl?$AAA?$AAu?$AAt?$AAo?$AAI?$AAd?$AAl?$AAe?$AAS?$AAt?$AAa?$AAt?$AAe?$AA?$CI?$AAd@| [ DATA ] ; `string'

  00000			 AREA	 |.pdata|, PDATA
|$T49761| DCD	|$LN6@PrcmClockS@5|
	DCD	0x40002101

  00000			 AREA	 |.rdata|, DATA, READONLY
|??_C@_1EM@DOKMKDJO@?$AA?$CL?$AAP?$AAr?$AAc?$AAm?$AAC?$AAl?$AAo?$AAc?$AAk?$AAS?$AAe?$AAt?$AAD?$AAp?$AAl?$AAl?$AAA?$AAu?$AAt?$AAo?$AAI?$AAd?$AAl?$AAe?$AAS?$AAt?$AAa?$AAt?$AAe?$AA?$CI?$AA?$CJ@| DCB "+"
	DCB	0x0, "P", 0x0, "r", 0x0, "c", 0x0, "m", 0x0, "C", 0x0, "l"
	DCB	0x0, "o", 0x0, "c", 0x0, "k", 0x0, "S", 0x0, "e", 0x0, "t"
	DCB	0x0, "D", 0x0, "p", 0x0, "l", 0x0, "l", 0x0, "A", 0x0, "u"
	DCB	0x0, "t", 0x0, "o", 0x0, "I", 0x0, "d", 0x0, "l", 0x0, "e"
	DCB	0x0, "S", 0x0, "t", 0x0, "a", 0x0, "t", 0x0, "e", 0x0, "("
	DCB	0x0, ")", 0x0, "=", 0x0, "%", 0x0, "d", 0x0, 0xd, 0x0, 0xa
	DCB	0x0, 0x0, 0x0				; `string'

  00000			 AREA	 |.rdata|, DATA, READONLY
|??_C@_1IM@JIIHLGCG@?$AA?$CL?$AAP?$AAr?$AAc?$AAm?$AAC?$AAl?$AAo?$AAc?$AAk?$AAS?$AAe?$AAt?$AAD?$AAp?$AAl?$AAl?$AAA?$AAu?$AAt?$AAo?$AAI?$AAd?$AAl?$AAe?$AAS?$AAt?$AAa?$AAt?$AAe?$AA?$CI?$AAd@| DCB "+"
	DCB	0x0, "P", 0x0, "r", 0x0, "c", 0x0, "m", 0x0, "C", 0x0, "l"
	DCB	0x0, "o", 0x0, "c", 0x0, "k", 0x0, "S", 0x0, "e", 0x0, "t"
	DCB	0x0, "D", 0x0, "p", 0x0, "l", 0x0, "l", 0x0, "A", 0x0, "u"
	DCB	0x0, "t", 0x0, "o", 0x0, "I", 0x0, "d", 0x0, "l", 0x0, "e"
	DCB	0x0, "S", 0x0, "t", 0x0, "a", 0x0, "t", 0x0, "e", 0x0, "("
	DCB	0x0, "d", 0x0, "p", 0x0, "l", 0x0, "l", 0x0, "I", 0x0, "d"
	DCB	0x0, "=", 0x0, "%", 0x0, "d", 0x0, ",", 0x0, " ", 0x0, "d"
	DCB	0x0, "p", 0x0, "l", 0x0, "l", 0x0, "A", 0x0, "u", 0x0, "t"
	DCB	0x0, "o", 0x0, "i", 0x0, "d", 0x0, "l", 0x0, "e", 0x0, "S"
	DCB	0x0, "t", 0x0, "a", 0x0, "t", 0x0, "e", 0x0, "=", 0x0, "0"
	DCB	0x0, "x", 0x0, "%", 0x0, "0", 0x0, "8", 0x0, "X", 0x0, ")"
	DCB	0x0, 0xd, 0x0, 0xa, 0x0, 0x0, 0x0	; `string'
; Function compile flags: /Ogspy

  00000			 AREA	 |.text|, CODE, ARM

  00000		 |PrcmClockSetDpllAutoIdleState| PROC

; 2078 : {

  00000		 |$LN6@PrcmClockS@5|
  00000	e92d4070	 stmdb       sp!, {r4 - r6, lr}
  00004		 |$M49758|
  00004	e1a06001	 mov         r6, r1
  00008	e1a05000	 mov         r5, r0

; 2079 :     BOOL rc = FALSE;
; 2080 :     DpllState_t *pDpll;
; 2081 :     OALMSG(1, (L"+PrcmClockSetDpllAutoIdleState"
; 2082 :         L"(dpllId=%d, dpllAutoidleState=0x%08X)\r\n", 
; 2083 :         dpllId, dpllAutoidleState)
; 2084 :         );

  0000c	e59f006c	 ldr         r0, [pc, #0x6C]
  00010	e1a02006	 mov         r2, r6
  00014	e1a01005	 mov         r1, r5
  00018	e3a04000	 mov         r4, #0
  0001c	eb000000	 bl          NKDbgPrintfW

; 2085 : 
; 2086 :     if (dpllId > kVDD5) goto cleanUp;

  00020	e3550004	 cmp         r5, #4
  00024	8a00000d	 bhi         |$cleanUp$48009|

; 2087 :     
; 2088 :     Lock(Mutex_DeviceClock);

  00028	e3a00000	 mov         r0, #0
  0002c	eb000000	 bl          Lock

; 2089 :     pDpll = s_DpllTable[dpllId].pDpllInfo;
; 2090 :     pDpll->dpllAutoidleState = (dpllAutoidleState & DPLL_AUTOIDLE_MASK) >> DPLL_AUTOIDLE_SHIFT;

  00030	e59f2044	 ldr         r2, [pc, #0x44]
  00034	e0853085	 add         r3, r5, r5, lsl #1
  00038	e206e007	 and         lr, r6, #7
  0003c	e0823103	 add         r3, r2, r3, lsl #2
  00040	e5933008	 ldr         r3, [r3, #8]

; 2091 :     rc = _ClockHwUpdateDpllState(dpllId, DPLL_UPDATE_AUTOIDLEMODE);    

  00044	e3a01010	 mov         r1, #0x10
  00048	e1a00005	 mov         r0, r5
  0004c	e583e020	 str         lr, [r3, #0x20]
  00050	eb000000	 bl          _ClockHwUpdateDpllState
  00054	e1a04000	 mov         r4, r0

; 2092 :     Unlock(Mutex_DeviceClock);

  00058	e3a00000	 mov         r0, #0
  0005c	eb000000	 bl          Unlock
  00060		 |$cleanUp$48009|

; 2093 :     
; 2094 : cleanUp:    
; 2095 :     
; 2096 :     OALMSG(1, (L"+PrcmClockSetDpllAutoIdleState()=%d\r\n", rc));

  00060	e59f0010	 ldr         r0, [pc, #0x10]
  00064	e1a01004	 mov         r1, r4
  00068	eb000000	 bl          NKDbgPrintfW

; 2097 :     return rc;
; 2098 : }

  0006c	e1a00004	 mov         r0, r4
  00070	e8bd4070	 ldmia       sp!, {r4 - r6, lr}
  00074	e12fff1e	 bx          lr
  00078		 |$LN7@PrcmClockS@5|
  00078		 |$LN8@PrcmClockS@5|
  00078	00000000	 DCD         |??_C@_1EM@DOKMKDJO@?$AA?$CL?$AAP?$AAr?$AAc?$AAm?$AAC?$AAl?$AAo?$AAc?$AAk?$AAS?$AAe?$AAt?$AAD?$AAp?$AAl?$AAl?$AAA?$AAu?$AAt?$AAo?$AAI?$AAd?$AAl?$AAe?$AAS?$AAt?$AAa?$AAt?$AAe?$AA?$CI?$AA?$CJ@|
  0007c		 |$LN9@PrcmClockS@5|
  0007c	00000000	 DCD         |s_DpllTable|
  00080		 |$LN10@PrcmClockS@5|
  00080	00000000	 DCD         |??_C@_1IM@JIIHLGCG@?$AA?$CL?$AAP?$AAr?$AAc?$AAm?$AAC?$AAl?$AAo?$AAc?$AAk?$AAS?$AAe?$AAt?$AAD?$AAp?$AAl?$AAl?$AAA?$AAu?$AAt?$AAo?$AAI?$AAd?$AAl?$AAe?$AAS?$AAt?$AAa?$AAt?$AAe?$AA?$CI?$AAd@|
  00084		 |$M49759|

			 ENDP  ; |PrcmClockSetDpllAutoIdleState|

	EXPORT	|PrcmClockSetExternalClockRequestMode|
	IMPORT	|g_pPrcmPrm|

  00000			 AREA	 |.pdata|, PDATA
|$T49777| DCD	|$LN5@PrcmClockS@6|
	DCD	0x40001601
; Function compile flags: /Ogspy

  00000			 AREA	 |.text|, CODE, ARM

  00000		 |PrcmClockSetExternalClockRequestMode| PROC

; 2105 : {    

  00000		 |$LN5@PrcmClockS@6|
  00000	e92d4010	 stmdb       sp!, {r4, lr}
  00004		 |$M49774|
  00004	e1a04000	 mov         r4, r0

; 2106 :     UINT val;
; 2107 :     
; 2108 :     // acquire sync handle   
; 2109 :     Lock(Mutex_Clock);

  00008	e3a00001	 mov         r0, #1
  0000c	eb000000	 bl          Lock

; 2110 : 
; 2111 :     extClkReqMode &= AUTOEXTCLKMODE_MASK;
; 2112 :     val = INREG32(&g_pPrcmPrm->pOMAP_GLOBAL_PRM->PRM_CLKSRC_CTRL) & ~AUTOEXTCLKMODE_MASK;

  00010	e59f303c	 ldr         r3, [pc, #0x3C]

; 2113 :     val |= extClkReqMode;
; 2114 :     OUTREG32(&g_pPrcmPrm->pOMAP_GLOBAL_PRM->PRM_CLKSRC_CTRL, val);
; 2115 :     
; 2116 :     OUTREG32(&g_pPrcmRestore->PRM_CLKSRC_CTRL, val);

  00014	e59fe034	 ldr         lr, [pc, #0x34]
  00018	e2042018	 and         r2, r4, #0x18
  0001c	e5933000	 ldr         r3, [r3]

; 2117 :     
; 2118 :     // release sync handle    
; 2119 :     Unlock(Mutex_Clock);

  00020	e3a00001	 mov         r0, #1
  00024	e593102c	 ldr         r1, [r3, #0x2C]
  00028	e5913070	 ldr         r3, [r1, #0x70]
  0002c	e3c33018	 bic         r3, r3, #0x18
  00030	e1822003	 orr         r2, r2, r3
  00034	e5812070	 str         r2, [r1, #0x70]
  00038	e59e3000	 ldr         r3, [lr]
  0003c	e5832000	 str         r2, [r3]
  00040	eb000000	 bl          Unlock

; 2120 :     
; 2121 :     return TRUE;

  00044	e3a00001	 mov         r0, #1

; 2122 : }

  00048	e8bd4010	 ldmia       sp!, {r4, lr}
  0004c	e12fff1e	 bx          lr
  00050		 |$LN6@PrcmClockS@6|
  00050		 |$LN7@PrcmClockS@6|
  00050	00000000	 DCD         |g_pPrcmRestore|
  00054		 |$LN8@PrcmClockS@6|
  00054	00000000	 DCD         |g_pPrcmPrm|
  00058		 |$M49775|

			 ENDP  ; |PrcmClockSetExternalClockRequestMode|

	EXPORT	|PrcmClockSetSystemClockSetupTime|

  00000			 AREA	 |.pdata|, PDATA
|$T49791| DCD	|$LN5@PrcmClockS@7|
	DCD	0x40001301
; Function compile flags: /Ogspy

  00000			 AREA	 |.text|, CODE, ARM

  00000		 |PrcmClockSetSystemClockSetupTime| PROC

; 2129 : {    

  00000		 |$LN5@PrcmClockS@7|
  00000	e92d4010	 stmdb       sp!, {r4, lr}
  00004		 |$M49788|
  00004	e1a04000	 mov         r4, r0

; 2130 :     UINT val;
; 2131 :     
; 2132 :     // acquire sync handle   
; 2133 :     Lock(Mutex_Clock);

  00008	e3a00001	 mov         r0, #1
  0000c	eb000000	 bl          Lock

; 2134 : 
; 2135 :     setupTime &= SETUPTIME_MASK;
; 2136 :     val = INREG32(&g_pPrcmPrm->pOMAP_GLOBAL_PRM->PRM_CLKSETUP) & ~SETUPTIME_MASK;

  00010	e59f3030	 ldr         r3, [pc, #0x30]
  00014	e3e02cff	 mvn         r2, #0xFF, 24
  00018	e22210ff	 eor         r1, r2, #0xFF
  0001c	e5933000	 ldr         r3, [r3]

; 2137 :     val |= setupTime;
; 2138 :     OUTREG32(&g_pPrcmPrm->pOMAP_GLOBAL_PRM->PRM_CLKSETUP, val);
; 2139 :     
; 2140 :     // release sync handle    
; 2141 :     Unlock(Mutex_Clock);

  00020	e3a00001	 mov         r0, #1
  00024	e593202c	 ldr         r2, [r3, #0x2C]
  00028	e5923098	 ldr         r3, [r2, #0x98]
  0002c	e0033001	 and         r3, r3, r1
  00030	e1843003	 orr         r3, r4, r3
  00034	e5823098	 str         r3, [r2, #0x98]
  00038	eb000000	 bl          Unlock

; 2142 :     
; 2143 :     return TRUE;

  0003c	e3a00001	 mov         r0, #1

; 2144 : }

  00040	e8bd4010	 ldmia       sp!, {r4, lr}
  00044	e12fff1e	 bx          lr
  00048		 |$LN6@PrcmClockS@7|
  00048		 |$LN7@PrcmClockS@7|
  00048	00000000	 DCD         |g_pPrcmPrm|
  0004c		 |$M49789|

			 ENDP  ; |PrcmClockSetSystemClockSetupTime|

	EXPORT	|PrcmClockGetSystemClockFrequency|
	IMPORT	|__muls|

  00000			 AREA	 |.pdata|, PDATA
|$T49803| DCD	|$LN5@PrcmClockG@3|
	DCD	0x40000e01
; Function compile flags: /Ogspy

  00000			 AREA	 |.text|, CODE, ARM

  00000		 |PrcmClockGetSystemClockFrequency| PROC

; 2149 : {

  00000		 |$LN5@PrcmClockG@3|
  00000	e52de004	 str         lr, [sp, #-4]!
  00004		 |$M49800|

; 2150 :     static float _rgSysClkTbl[6] = {12.0f, 13.0f, 19.2f, 26.0f, 38.4f, 16.8f};
; 2151 :     return _rgSysClkTbl[INREG32(&g_pPrcmPrm->pOMAP_CLOCK_CONTROL_PRM->PRM_CLKSEL)] * 1000000.0f;

  00004	e59f3028	 ldr         r3, [pc, #0x28]
  00008	e59f2020	 ldr         r2, [pc, #0x20]
  0000c	e59f1018	 ldr         r1, [pc, #0x18]
  00010	e5933000	 ldr         r3, [r3]
  00014	e5933034	 ldr         r3, [r3, #0x34]
  00018	e5933040	 ldr         r3, [r3, #0x40]
  0001c	e7920103	 ldr         r0, [r2, +r3, lsl #2]
  00020	eb000000	 bl          __muls

; 2152 : }

  00024	e49de004	 ldr         lr, [sp], #4
  00028	e12fff1e	 bx          lr
  0002c		 |$LN6@PrcmClockG@3|
  0002c		 |$LN7@PrcmClockG@3|
  0002c	49742400	 DCD         0x49742400
  00030		 |$LN8@PrcmClockG@3|
  00030	00000000	 DCD         |?_rgSysClkTbl@?1??PrcmClockGetSystemClockFrequency@@9@9|
  00034		 |$LN9@PrcmClockG@3|
  00034	00000000	 DCD         |g_pPrcmPrm|
  00038		 |$M49801|

			 ENDP  ; |PrcmClockGetSystemClockFrequency|

	EXPORT	|PrcmClockGetDpllState|
	EXPORT	|??_C@_1EE@NGFCOLAD@?$AA?9?$AAP?$AAr?$AAc?$AAm?$AAC?$AAl?$AAo?$AAc?$AAk?$AAG?$AAe?$AAt?$AAD?$AAp?$AAl?$AAl?$AAS?$AAt?$AAa?$AAt?$AAe?$AA?$CI?$AA?$CJ?$AA?$DN?$AA0?$AAx?$AA?$CF?$AA0?$AA8?$AAX?$AA?$AN@| [ DATA ] ; `string'
	EXPORT	|??_C@_1EI@DKCKIEEG@?$AA?$CL?$AAP?$AAr?$AAc?$AAm?$AAC?$AAl?$AAo?$AAc?$AAk?$AAG?$AAe?$AAt?$AAD?$AAp?$AAl?$AAl?$AAS?$AAt?$AAa?$AAt?$AAe?$AA?$CI?$AAd?$AAp?$AAl?$AAl?$AAI?$AAd?$AA?$DN?$AA?$CF?$AAd@| [ DATA ] ; `string'
	IMPORT	|GetCmRegisterSet|

  00000			 AREA	 |.pdata|, PDATA
|$T49820| DCD	|$LN11@PrcmClockG@4|
	DCD	0x40001701

  00000			 AREA	 |.rdata|, DATA, READONLY
|??_C@_1EE@NGFCOLAD@?$AA?9?$AAP?$AAr?$AAc?$AAm?$AAC?$AAl?$AAo?$AAc?$AAk?$AAG?$AAe?$AAt?$AAD?$AAp?$AAl?$AAl?$AAS?$AAt?$AAa?$AAt?$AAe?$AA?$CI?$AA?$CJ?$AA?$DN?$AA0?$AAx?$AA?$CF?$AA0?$AA8?$AAX?$AA?$AN@| DCB "-"
	DCB	0x0, "P", 0x0, "r", 0x0, "c", 0x0, "m", 0x0, "C", 0x0, "l"
	DCB	0x0, "o", 0x0, "c", 0x0, "k", 0x0, "G", 0x0, "e", 0x0, "t"
	DCB	0x0, "D", 0x0, "p", 0x0, "l", 0x0, "l", 0x0, "S", 0x0, "t"
	DCB	0x0, "a", 0x0, "t", 0x0, "e", 0x0, "(", 0x0, ")", 0x0, "="
	DCB	0x0, "0", 0x0, "x", 0x0, "%", 0x0, "0", 0x0, "8", 0x0, "X"
	DCB	0x0, 0xd, 0x0, 0xa, 0x0, 0x0, 0x0	; `string'

  00000			 AREA	 |.rdata|, DATA, READONLY
|??_C@_1EI@DKCKIEEG@?$AA?$CL?$AAP?$AAr?$AAc?$AAm?$AAC?$AAl?$AAo?$AAc?$AAk?$AAG?$AAe?$AAt?$AAD?$AAp?$AAl?$AAl?$AAS?$AAt?$AAa?$AAt?$AAe?$AA?$CI?$AAd?$AAp?$AAl?$AAl?$AAI?$AAd?$AA?$DN?$AA?$CF?$AAd@| DCB "+"
	DCB	0x0, "P", 0x0, "r", 0x0, "c", 0x0, "m", 0x0, "C", 0x0, "l"
	DCB	0x0, "o", 0x0, "c", 0x0, "k", 0x0, "G", 0x0, "e", 0x0, "t"
	DCB	0x0, "D", 0x0, "p", 0x0, "l", 0x0, "l", 0x0, "S", 0x0, "t"
	DCB	0x0, "a", 0x0, "t", 0x0, "e", 0x0, "(", 0x0, "d", 0x0, "p"
	DCB	0x0, "l", 0x0, "l", 0x0, "I", 0x0, "d", 0x0, "=", 0x0, "%"
	DCB	0x0, "d", 0x0, ")", 0x0, 0xd, 0x0, 0xa, 0x0, 0x0, 0x0 ; `string'
; Function compile flags: /Ogspy

  00000			 AREA	 |.text|, CODE, ARM

  00000		 |PrcmClockGetDpllState| PROC

; 2159 : {

  00000		 |$LN11@PrcmClockG@4|
  00000	e92d4030	 stmdb       sp!, {r4, r5, lr}
  00004		 |$M49817|
  00004	e1a05000	 mov         r5, r0

; 2160 :     UINT val = 0; 
; 2161 :     OMAP_CM_REGS *pPrcmCm;
; 2162 :     OALMSG(1, (L"+PrcmClockGetDpllState(dpllId=%d)\r\n", dpllId));

  00008	e59f0048	 ldr         r0, [pc, #0x48]
  0000c	e1a01005	 mov         r1, r5
  00010	e3a04000	 mov         r4, #0
  00014	eb000000	 bl          NKDbgPrintfW

; 2163 : 
; 2164 :     switch (dpllId)

  00018	e3550000	 cmp         r5, #0
  0001c	0a000003	 beq         |$LN3@PrcmClockG@4|
  00020	e3550001	 cmp         r5, #1
  00024	1a000004	 bne         |$cleanUp$48046|

; 2168 :             break;
; 2169 : 
; 2170 :         case kDPLL2:
; 2171 :             pPrcmCm = GetCmRegisterSet(POWERDOMAIN_IVA2);

  00028	e3a00008	 mov         r0, #8

; 2172 :             break;

  0002c	ea000000	 b           |$LN8@PrcmClockG@4|
  00030		 |$LN3@PrcmClockG@4|

; 2165 :         {
; 2166 :         case kDPLL1:
; 2167 :             pPrcmCm = GetCmRegisterSet(POWERDOMAIN_MPU);

  00030	e3a00005	 mov         r0, #5
  00034		 |$LN8@PrcmClockG@4|
  00034	eb000000	 bl          GetCmRegisterSet

; 2173 : 
; 2174 :         default:
; 2175 :             goto cleanUp;
; 2176 :         }
; 2177 : 
; 2178 :     val = INREG32(&pPrcmCm->CM_IDLEST_PLL_xxx);

  00038	e5904024	 ldr         r4, [r0, #0x24]
  0003c		 |$cleanUp$48046|

; 2179 : 
; 2180 : cleanUp:
; 2181 :     OALMSG(1, (L"-PrcmClockGetDpllState()=0x%08X\r\n", val));

  0003c	e59f0010	 ldr         r0, [pc, #0x10]
  00040	e1a01004	 mov         r1, r4
  00044	eb000000	 bl          NKDbgPrintfW

; 2182 :     return val;
; 2183 : }

  00048	e1a00004	 mov         r0, r4
  0004c	e8bd4030	 ldmia       sp!, {r4, r5, lr}
  00050	e12fff1e	 bx          lr
  00054		 |$LN12@PrcmClockG@4|
  00054		 |$LN13@PrcmClockG@4|
  00054	00000000	 DCD         |??_C@_1EE@NGFCOLAD@?$AA?9?$AAP?$AAr?$AAc?$AAm?$AAC?$AAl?$AAo?$AAc?$AAk?$AAG?$AAe?$AAt?$AAD?$AAp?$AAl?$AAl?$AAS?$AAt?$AAa?$AAt?$AAe?$AA?$CI?$AA?$CJ?$AA?$DN?$AA0?$AAx?$AA?$CF?$AA0?$AA8?$AAX?$AA?$AN@|
  00058		 |$LN14@PrcmClockG@4|
  00058	00000000	 DCD         |??_C@_1EI@DKCKIEEG@?$AA?$CL?$AAP?$AAr?$AAc?$AAm?$AAC?$AAl?$AAo?$AAc?$AAk?$AAG?$AAe?$AAt?$AAD?$AAp?$AAl?$AAl?$AAS?$AAt?$AAa?$AAt?$AAe?$AA?$CI?$AAd?$AAp?$AAl?$AAl?$AAI?$AAd?$AA?$DN?$AA?$CF?$AAd@|
  0005c		 |$M49818|

			 ENDP  ; |PrcmClockGetDpllState|

	EXPORT	|PrcmClockRestoreDpllState|

  00000			 AREA	 |.pdata|, PDATA
|$T49831| DCD	|$LN5@PrcmClockR|
	DCD	0x40000801
; Function compile flags: /Ogspy

  00000			 AREA	 |.text|, CODE, ARM

  00000		 |PrcmClockRestoreDpllState| PROC

; 2190 : {

  00000		 |$LN5@PrcmClockR|
  00000	e92d4010	 stmdb       sp!, {r4, lr}
  00004		 |$M49828|
  00004	e1a04000	 mov         r4, r0

; 2191 :     // Set the DPLL frequency
; 2192 :     _ClockHwUpdateDpllFrequency(dpll);

  00008	eb000000	 bl          _ClockHwUpdateDpllFrequency

; 2193 : 
; 2194 :     // Update the dpll state
; 2195 :     _ClockHwUpdateDpllState(dpll, DPLL_UPDATE_ALL);

  0000c	e3a0101f	 mov         r1, #0x1F
  00010	e1a00004	 mov         r0, r4
  00014	eb000000	 bl          _ClockHwUpdateDpllState

; 2196 : }

  00018	e8bd4010	 ldmia       sp!, {r4, lr}
  0001c	e12fff1e	 bx          lr
  00020		 |$M49829|

			 ENDP  ; |PrcmClockRestoreDpllState|

	EXPORT	|PrcmClockGetClockRate|
	IMPORT	|__adds|
	IMPORT	|__utos|
	IMPORT	|__divs|
	IMPORT	|__stou|

  00000			 AREA	 |.pdata|, PDATA
|$T49869| DCD	|$LN47@PrcmClockG@5|
	DCD	0x4000a501
; Function compile flags: /Ogspy

  00000			 AREA	 |.text|, CODE, ARM

  00000		 |PrcmClockGetClockRate| PROC

; 2203 : {

  00000		 |$LN47@PrcmClockG@5|
  00000	e92d40f0	 stmdb       sp!, {r4 - r7, lr}
  00004		 |$M49866|

; 2204 :     DWORD val;
; 2205 :     DWORD val2;
; 2206 :     float sys_clk, freq=0, core_clk;
; 2207 : 
; 2208 :     // get virtual address mapping to register
; 2209 :     val = INREG32(&g_pPrcmPrm->pOMAP_CLOCK_CONTROL_PRM->PRM_CLKSEL);

  00004	e59f3284	 ldr         r3, [pc, #0x284]
  00008	e3a07000	 mov         r7, #0
  0000c	e5933000	 ldr         r3, [r3]
  00010	e5933034	 ldr         r3, [r3, #0x34]
  00014	e5933040	 ldr         r3, [r3, #0x40]
  00018	e3530000	 cmp         r3, #0

; 2210 :     switch (val)

  0001c	0a000015	 beq         |$LN25@PrcmClockG@5|
  00020	e3530001	 cmp         r3, #1
  00024	0a000010	 beq         |$LN24@PrcmClockG@5|
  00028	e3530002	 cmp         r3, #2
  0002c	0a00000c	 beq         |$LN23@PrcmClockG@5|
  00030	e3530003	 cmp         r3, #3
  00034	0a000007	 beq         |$LN22@PrcmClockG@5|
  00038	e3530004	 cmp         r3, #4
  0003c	0a000003	 beq         |$LN21@PrcmClockG@5|
  00040	e3530005	 cmp         r3, #5
  00044	1a000089	 bne         |$cleanUp$48073|

; 2231 : 
; 2232 :         case 5:
; 2233 :             sys_clk = 16.8f;

  00048	e59f423c	 ldr         r4, [pc, #0x23C]

; 2234 :             break;

  0004c	ea00000b	 b           |$LN26@PrcmClockG@5|
  00050		 |$LN21@PrcmClockG@5|

; 2223 : 
; 2224 :         case 3:
; 2225 :             sys_clk = 26.0f;
; 2226 :             break;
; 2227 : 
; 2228 :         case 4:
; 2229 :             sys_clk = 38.4f;

  00050	e59f4230	 ldr         r4, [pc, #0x230]

; 2230 :             break;

  00054	ea000009	 b           |$LN26@PrcmClockG@5|
  00058		 |$LN22@PrcmClockG@5|
  00058	e3a03441	 mov         r3, #0x41, 8
  0005c	e383460d	 orr         r4, r3, #0xD, 12
  00060	ea000006	 b           |$LN26@PrcmClockG@5|
  00064		 |$LN23@PrcmClockG@5|

; 2219 : 
; 2220 :         case 2:
; 2221 :             sys_clk = 19.2f;

  00064	e59f4218	 ldr         r4, [pc, #0x218]

; 2222 :             break;

  00068	ea000004	 b           |$LN26@PrcmClockG@5|
  0006c		 |$LN24@PrcmClockG@5|
  0006c	e3a03441	 mov         r3, #0x41, 8
  00070	e3834605	 orr         r4, r3, #5, 12
  00074	ea000001	 b           |$LN26@PrcmClockG@5|
  00078		 |$LN25@PrcmClockG@5|

; 2211 :     {
; 2212 :         case 0:
; 2213 :             sys_clk = 12.0f;
; 2214 :             break;
; 2215 : 
; 2216 :         case 1:
; 2217 :             sys_clk = 13.0f;
; 2218 :             break;

  00078	e3a03441	 mov         r3, #0x41, 8
  0007c	e3834501	 orr         r4, r3, #1, 10
  00080		 |$LN26@PrcmClockG@5|

; 2235 : 
; 2236 :         default:
; 2237 :             goto cleanUp;                
; 2238 :     }
; 2239 :     
; 2240 :     switch(clock_id)

  00080	e3500000	 cmp         r0, #0
  00084	0a000078	 beq         |$LN16@PrcmClockG@5|
  00088	e3500001	 cmp         r0, #1
  0008c	0a00005c	 beq         |$LN15@PrcmClockG@5|
  00090	e3500002	 cmp         r0, #2
  00094	0a000054	 beq         |$LN14@PrcmClockG@5|
  00098	e3500003	 cmp         r0, #3
  0009c	0a00003d	 beq         |$LN13@PrcmClockG@5|
  000a0	e3500004	 cmp         r0, #4

; 2316 : 		
; 2317 : 	default:
; 2318 : 	    freq = 0;
; 2319 : 	    break;

  000a4	1a000071	 bne         |$cleanUp$48073|
  000a8	e59f31d0	 ldr         r3, [pc, #0x1D0]
  000ac	e5936000	 ldr         r6, [r3]
  000b0	e5963034	 ldr         r3, [r6, #0x34]
  000b4	e5933040	 ldr         r3, [r3, #0x40]
  000b8	e1a05423	 mov         r5, r3, lsr #8
  000bc	e1a03685	 mov         r3, r5, lsl #13
  000c0	e1a00aa3	 mov         r0, r3, lsr #21
  000c4	eb000000	 bl          __utos
  000c8	e1a01004	 mov         r1, r4
  000cc	eb000000	 bl          __muls
  000d0	e1a04000	 mov         r4, r0
  000d4	e205007f	 and         r0, r5, #0x7F
  000d8	eb000000	 bl          __utos
  000dc	e3a015fe	 mov         r1, #0xFE, 10
  000e0	eb000000	 bl          __adds
  000e4	e1a01000	 mov         r1, r0
  000e8	e1a00004	 mov         r0, r4
  000ec	eb000000	 bl          __divs
  000f0	e1a04000	 mov         r4, r0
  000f4	e1a009a5	 mov         r0, r5, lsr #19
  000f8	eb000000	 bl          __utos
  000fc	e1a01000	 mov         r1, r0
  00100	e1a00004	 mov         r0, r4
  00104	eb000000	 bl          __divs
  00108	e5963028	 ldr         r3, [r6, #0x28]
  0010c	e5933040	 ldr         r3, [r3, #0x40]
  00110	e2032007	 and         r2, r3, #7
  00114	e3520007	 cmp         r2, #7
  00118	8a000054	 bhi         |$cleanUp$48073|

; 2271 : 
; 2272 : 	 case SGX_CLK:
; 2273 : 	    val = INREG32(&g_pPrcmCm->pOMAP_CLOCK_CONTROL_CM->CM_CLKSEL1_PLL) >> 8;
; 2274 : 	    core_clk = ((float)((val & DPLL_MULT_MASK)>>DPLL_MULT_SHIFT) * sys_clk) /
; 2275 : 	                    ((float)((val & DPLL_DIV_MASK) >> DPLL_DIV_SHIFT) + 1.0f);
; 2276 : 	    core_clk = core_clk / ((float)(val >> (DPLL_CORE_CLKOUT_DIV_SHIFT - 8)));
; 2277 : 		
; 2278 : 	    // get core frequency
; 2279 : 	    val = INREG32(&g_pPrcmCm->pOMAP_SGX_CM->CM_CLKSEL_SGX) & 0x7;
; 2280 :            switch(val){

  0011c	e28f3004	 add         r3, pc, #4
  00120	e7d33002	 ldrb        r3, [r3, +r2]
  00124	e08ff003	 add         pc, pc, r3
  00128		 |$LN36@PrcmClockG@5|
  00128		 |$LN35@PrcmClockG@5|
  00128		 |$LN37@PrcmClockG@5|
  00128	04ed		 DCB         0x4
  00129		 |$LN38@PrcmClockG@5|
  00129	10ed		 DCB         0x10
  0012a		 |$LN39@PrcmClockG@5|
  0012a	20ed		 DCB         0x20
  0012b		 |$LN40@PrcmClockG@5|
  0012b	2ced		 DCB         0x2c
  0012c		 |$LN41@PrcmClockG@5|
  0012c	38ed		 DCB         0x38
  0012d		 |$LN42@PrcmClockG@5|
  0012d	44ed		 DCB         0x44
  0012e		 |$LN43@PrcmClockG@5|
  0012e	4ced		 DCB         0x4c
  0012f		 |$LN44@PrcmClockG@5|
  0012f	58ed		 DCB         0x58
  00130		 |$LN9@PrcmClockG@5|
  00130	e3a03101	 mov         r3, #1, 2

; 2281 : 		case 0: 
; 2282 : 		/* CORE_CLK / 3*/
; 2283 : 		    freq = core_clk/3;

  00134	e3831501	 orr         r1, r3, #1, 10

; 2284 : 		    break;

  00138	ea000048	 b           |$LN32@PrcmClockG@5|
  0013c		 |$LN8@PrcmClockG@5|

; 2285 : 		case 1:
; 2286 : 		/* CORE_CLK / 4 */
; 2287 : 		    freq = core_clk/4;

  0013c	e3a015fa	 mov         r1, #0xFA, 10
  00140		 |$LN34@PrcmClockG@5|
  00140	eb000000	 bl          __muls
  00144	e1a07000	 mov         r7, r0
  00148	ea000048	 b           |$cleanUp$48073|
  0014c		 |$LN7@PrcmClockG@5|

; 2288 : 		    break;

  0014c	e3a03101	 mov         r3, #1, 2

; 2289 : 		case 2:
; 2290 : 		/* CORE_CLK / 6 */
; 2291 : 		    freq = core_clk/6;

  00150	e3831503	 orr         r1, r3, #3, 10

; 2292 : 		    break;

  00154	ea000041	 b           |$LN32@PrcmClockG@5|
  00158		 |$LN6@PrcmClockG@5|
  00158	e3a03442	 mov         r3, #0x42, 8

; 2293 : 		case 3:
; 2294 : 		/* CM_96M_FCLK */
; 2295 : 		    freq = 96;

  0015c	e3837503	 orr         r7, r3, #3, 10

; 2296 : 		    break;

  00160	ea000042	 b           |$cleanUp$48073|
  00164		 |$LN5@PrcmClockG@5|
  00164	e3a03443	 mov         r3, #0x43, 8

; 2297 : 		case 4:
; 2298 : 		/* SGX_192M_FCLK */
; 2299 : 		    freq = 192;

  00168	e3837501	 orr         r7, r3, #1, 10

; 2300 : 		    break;			

  0016c	ea00003f	 b           |$cleanUp$48073|
  00170		 |$LN4@PrcmClockG@5|

; 2301 : 		case 5:
; 2302 : 		/* CORE_CLK / 2 */
; 2303 : 		    freq = core_clk/2;

  00170	e3a0143f	 mov         r1, #0x3F, 8

; 2304 : 		    break;

  00174	eafffff1	 b           |$LN34@PrcmClockG@5|
  00178		 |$LN3@PrcmClockG@5|

; 2305 : 		case 6:
; 2306 : 		/* CORE_CLK * 2 / 3 */
; 2307 : 		    freq = core_clk * 2 / 3;

  00178	e3a01101	 mov         r1, #1, 2
  0017c	eb000000	 bl          __muls

; 2308 : 		    break;

  00180	eaffffea	 b           |$LN9@PrcmClockG@5|
  00184		 |$LN2@PrcmClockG@5|

; 2309 : 		case 7:
; 2310 : 		/* CORE_CLK * 2 / 5 */
; 2311 : 		    freq = core_clk * 2 /5;

  00184	e3a01101	 mov         r1, #1, 2
  00188	eb000000	 bl          __muls
  0018c	e3a03101	 mov         r3, #1, 2
  00190	e383160a	 orr         r1, r3, #0xA, 12

; 2312 : 		    break;
; 2313 : 			
; 2314 :            	}
; 2315 : 	    break;

  00194	ea000031	 b           |$LN32@PrcmClockG@5|
  00198		 |$LN13@PrcmClockG@5|

; 2263 : 		
; 2264 : 	 case CORE_CLK:
; 2265 : 	    // get core frequency
; 2266 : 	    val = INREG32(&g_pPrcmCm->pOMAP_CLOCK_CONTROL_CM->CM_CLKSEL1_PLL) >> 8;

  00198	e59f30e0	 ldr         r3, [pc, #0xE0]
  0019c	e5933000	 ldr         r3, [r3]
  001a0	e5933034	 ldr         r3, [r3, #0x34]
  001a4	e5933040	 ldr         r3, [r3, #0x40]
  001a8	e1a05423	 mov         r5, r3, lsr #8

; 2267 : 	    freq = ((float)((val & DPLL_MULT_MASK)>>DPLL_MULT_SHIFT) * sys_clk) /
; 2268 : 	                    ((float)((val & DPLL_DIV_MASK) >> DPLL_DIV_SHIFT) + 1.0f);
; 2269 : 	    freq = freq / ((float)(val >> (DPLL_CORE_CLKOUT_DIV_SHIFT - 8)));

  001ac	e1a03685	 mov         r3, r5, lsl #13
  001b0	e1a00aa3	 mov         r0, r3, lsr #21
  001b4	eb000000	 bl          __utos
  001b8	e1a01004	 mov         r1, r4
  001bc	eb000000	 bl          __muls
  001c0	e1a04000	 mov         r4, r0
  001c4	e205007f	 and         r0, r5, #0x7F
  001c8	eb000000	 bl          __utos
  001cc	e3a015fe	 mov         r1, #0xFE, 10
  001d0	eb000000	 bl          __adds
  001d4	e1a01000	 mov         r1, r0
  001d8	e1a00004	 mov         r0, r4
  001dc	eb000000	 bl          __divs
  001e0	e1a04000	 mov         r4, r0
  001e4	e1a009a5	 mov         r0, r5, lsr #19

; 2270 : 	    break;

  001e8	ea000019	 b           |$LN31@PrcmClockG@5|
  001ec		 |$LN14@PrcmClockG@5|

; 2254 : 		
; 2255 : 	 case IVA_CLK:
; 2256 : 	    // get iva frequency
; 2257 : 	    val = INREG32(&g_pPrcmCm->pOMAP_IVA2_CM->CM_CLKSEL1_PLL_IVA2);

  001ec	e59f308c	 ldr         r3, [pc, #0x8C]
  001f0	e5933000	 ldr         r3, [r3]
  001f4	e5933020	 ldr         r3, [r3, #0x20]
  001f8	e5935040	 ldr         r5, [r3, #0x40]

; 2258 : 	    val2 = INREG32(&g_pPrcmCm->pOMAP_IVA2_CM->CM_CLKSEL1_PLL_IVA2);

  001fc	e5936040	 ldr         r6, [r3, #0x40]

; 2259 : 	    freq = ((float)((val & DPLL_MULT_MASK)>>DPLL_MULT_SHIFT) * sys_clk) /
; 2260 : 	                    ((float)((val & DPLL_DIV_MASK) >> DPLL_DIV_SHIFT) + 1.0f);
; 2261 : 	    freq = freq / ((float)(val2 >> DPLL_IVA2_CLKOUT_DIV_SHIFT));
; 2262 :            break;

  00200	ea000004	 b           |$LN30@PrcmClockG@5|
  00204		 |$LN15@PrcmClockG@5|

; 2244 : 		break;
; 2245 : 		
; 2246 : 	 case MPU_CLK:
; 2247 : 	       // get mpu frequency
; 2248 : 	       val = INREG32(&g_pPrcmCm->pOMAP_MPU_CM->CM_CLKSEL1_PLL_MPU);

  00204	e59f3074	 ldr         r3, [pc, #0x74]
  00208	e5933000	 ldr         r3, [r3]
  0020c	e5933014	 ldr         r3, [r3, #0x14]
  00210	e5935040	 ldr         r5, [r3, #0x40]

; 2249 : 	       val2 = INREG32(&g_pPrcmCm->pOMAP_MPU_CM->CM_CLKSEL2_PLL_MPU);

  00214	e5936044	 ldr         r6, [r3, #0x44]
  00218		 |$LN30@PrcmClockG@5|

; 2250 : 	       freq = ((float)((val & DPLL_MULT_MASK)>>DPLL_MULT_SHIFT) * sys_clk) /
; 2251 : 	                    ((float)((val & DPLL_DIV_MASK) >> DPLL_DIV_SHIFT) + 1.0f);
; 2252 : 	       freq = freq / ((float)(val2 >> DPLL_MPU_CLKOUT_DIV_SHIFT));

  00218	e1a03685	 mov         r3, r5, lsl #13
  0021c	e1a00aa3	 mov         r0, r3, lsr #21
  00220	eb000000	 bl          __utos
  00224	e1a01004	 mov         r1, r4
  00228	eb000000	 bl          __muls
  0022c	e1a04000	 mov         r4, r0
  00230	e205007f	 and         r0, r5, #0x7F
  00234	eb000000	 bl          __utos
  00238	e3a015fe	 mov         r1, #0xFE, 10
  0023c	eb000000	 bl          __adds
  00240	e1a01000	 mov         r1, r0
  00244	e1a00004	 mov         r0, r4
  00248	eb000000	 bl          __divs
  0024c	e1a04000	 mov         r4, r0
  00250	e1a00006	 mov         r0, r6
  00254		 |$LN31@PrcmClockG@5|
  00254	eb000000	 bl          __utos
  00258	e1a01000	 mov         r1, r0
  0025c	e1a00004	 mov         r0, r4
  00260		 |$LN32@PrcmClockG@5|
  00260	eb000000	 bl          __divs
  00264	e1a07000	 mov         r7, r0

; 2253 : 		break;

  00268	ea000000	 b           |$cleanUp$48073|
  0026c		 |$LN16@PrcmClockG@5|

; 2241 :     {
; 2242 :         case SYS_CLK:
; 2243 : 		freq = sys_clk;

  0026c	e1a07004	 mov         r7, r4
  00270		 |$cleanUp$48073|

; 2320 :     }
; 2321 : 	
; 2322 : cleanUp:	
; 2323 :     return (UINT32)freq;

  00270	e1a00007	 mov         r0, r7
  00274	eb000000	 bl          __stou

; 2324 : }

  00278	e8bd40f0	 ldmia       sp!, {r4 - r7, lr}
  0027c	e12fff1e	 bx          lr
  00280		 |$LN48@PrcmClockG@5|
  00280		 |$LN49@PrcmClockG@5|
  00280	00000000	 DCD         |g_pPrcmCm|
  00284		 |$LN50@PrcmClockG@5|
  00284	4199999a	 DCD         0x4199999a
  00288		 |$LN51@PrcmClockG@5|
  00288	4219999a	 DCD         0x4219999a
  0028c		 |$LN52@PrcmClockG@5|
  0028c	41866666	 DCD         0x41866666
  00290		 |$LN53@PrcmClockG@5|
  00290	00000000	 DCD         |g_pPrcmPrm|
  00294		 |$M49867|

			 ENDP  ; |PrcmClockGetClockRate|

	EXPORT	|PrcmDumpRefCounts|
	EXPORT	|??_C@_1DE@MNKDAJMB@?$AA?$AN?$AA?6?$AAS?$AAR?$AAC?$AA?5?$AAC?$AAL?$AAO?$AAC?$AAK?$AA?5?$AAr?$AAe?$AAf?$AA?5?$AAc?$AAo?$AAu?$AAn?$AAt?$AAs?$AA?3?$AA?$AN?$AA?6?$AA?$AA@| [ DATA ] ; `string'
	EXPORT	|??_C@_1DI@PIJNCBJB@?$AA?$AN?$AA?6?$AAD?$AAP?$AAL?$AAL?$AA?5?$AAC?$AAL?$AAK?$AAO?$AAU?$AAT?$AA?5?$AAr?$AAe?$AAf?$AA?5?$AAc?$AAo?$AAu?$AAn?$AAt?$AAs?$AA?3?$AA?$AN?$AA?6?$AA?$AA@| [ DATA ] ; `string'
	EXPORT	|??_C@_1CK@MBLFPBCE@?$AA?$AN?$AA?6?$AAD?$AAP?$AAL?$AAL?$AA?5?$AAr?$AAe?$AAf?$AA?5?$AAc?$AAo?$AAu?$AAn?$AAt?$AAs?$AA?3?$AA?$AN?$AA?6?$AA?$AA@| [ DATA ] ; `string'
	EXPORT	|??_C@_1BA@NOOLMKMI@?$AA?$CF?$AAs?$AA?5?$AA?$CF?$AAd?$AA?$AN?$AA?6?$AA?$AA@| [ DATA ] ; `string'
	EXPORT	|??_C@_1CI@DFICMPGN@?$AA?$AN?$AA?6?$AAV?$AAD?$AAD?$AA?5?$AAr?$AAe?$AAf?$AA?5?$AAc?$AAo?$AAu?$AAn?$AAt?$AAs?$AA?3?$AA?$AN?$AA?6?$AA?$AA@| [ DATA ] ; `string'
	IMPORT	|s_DomainTable|

  00000			 AREA	 |.pdata|, PDATA
|$T49892| DCD	|$LN35@PrcmDumpRe|
	DCD	0x40005901

  00000			 AREA	 |.rdata|, DATA, READONLY
|??_C@_1DE@MNKDAJMB@?$AA?$AN?$AA?6?$AAS?$AAR?$AAC?$AA?5?$AAC?$AAL?$AAO?$AAC?$AAK?$AA?5?$AAr?$AAe?$AAf?$AA?5?$AAc?$AAo?$AAu?$AAn?$AAt?$AAs?$AA?3?$AA?$AN?$AA?6?$AA?$AA@| DCB 0xd
	DCB	0x0, 0xa, 0x0, "S", 0x0, "R", 0x0, "C", 0x0, " ", 0x0, "C"
	DCB	0x0, "L", 0x0, "O", 0x0, "C", 0x0, "K", 0x0, " ", 0x0, "r"
	DCB	0x0, "e", 0x0, "f", 0x0, " ", 0x0, "c", 0x0, "o", 0x0, "u"
	DCB	0x0, "n", 0x0, "t", 0x0, "s", 0x0, ":", 0x0, 0xd, 0x0, 0xa
	DCB	0x0, 0x0, 0x0				; `string'

  00000			 AREA	 |.rdata|, DATA, READONLY
|??_C@_1DI@PIJNCBJB@?$AA?$AN?$AA?6?$AAD?$AAP?$AAL?$AAL?$AA?5?$AAC?$AAL?$AAK?$AAO?$AAU?$AAT?$AA?5?$AAr?$AAe?$AAf?$AA?5?$AAc?$AAo?$AAu?$AAn?$AAt?$AAs?$AA?3?$AA?$AN?$AA?6?$AA?$AA@| DCB 0xd
	DCB	0x0, 0xa, 0x0, "D", 0x0, "P", 0x0, "L", 0x0, "L", 0x0, " "
	DCB	0x0, "C", 0x0, "L", 0x0, "K", 0x0, "O", 0x0, "U", 0x0, "T"
	DCB	0x0, " ", 0x0, "r", 0x0, "e", 0x0, "f", 0x0, " ", 0x0, "c"
	DCB	0x0, "o", 0x0, "u", 0x0, "n", 0x0, "t", 0x0, "s", 0x0, ":"
	DCB	0x0, 0xd, 0x0, 0xa, 0x0, 0x0, 0x0	; `string'

  00000			 AREA	 |.rdata|, DATA, READONLY
|??_C@_1CK@MBLFPBCE@?$AA?$AN?$AA?6?$AAD?$AAP?$AAL?$AAL?$AA?5?$AAr?$AAe?$AAf?$AA?5?$AAc?$AAo?$AAu?$AAn?$AAt?$AAs?$AA?3?$AA?$AN?$AA?6?$AA?$AA@| DCB 0xd
	DCB	0x0, 0xa, 0x0, "D", 0x0, "P", 0x0, "L", 0x0, "L", 0x0, " "
	DCB	0x0, "r", 0x0, "e", 0x0, "f", 0x0, " ", 0x0, "c", 0x0, "o"
	DCB	0x0, "u", 0x0, "n", 0x0, "t", 0x0, "s", 0x0, ":", 0x0, 0xd
	DCB	0x0, 0xa, 0x0, 0x0, 0x0			; `string'

  00000			 AREA	 |.rdata|, DATA, READONLY
|??_C@_1BA@NOOLMKMI@?$AA?$CF?$AAs?$AA?5?$AA?$CF?$AAd?$AA?$AN?$AA?6?$AA?$AA@| DCB "%"
	DCB	0x0, "s", 0x0, " ", 0x0, "%", 0x0, "d", 0x0, 0xd, 0x0, 0xa
	DCB	0x0, 0x0, 0x0				; `string'

  00000			 AREA	 |.rdata|, DATA, READONLY
|??_C@_1CI@DFICMPGN@?$AA?$AN?$AA?6?$AAV?$AAD?$AAD?$AA?5?$AAr?$AAe?$AAf?$AA?5?$AAc?$AAo?$AAu?$AAn?$AAt?$AAs?$AA?3?$AA?$AN?$AA?6?$AA?$AA@| DCB 0xd
	DCB	0x0, 0xa, 0x0, "V", 0x0, "D", 0x0, "D", 0x0, " ", 0x0, "r"
	DCB	0x0, "e", 0x0, "f", 0x0, " ", 0x0, "c", 0x0, "o", 0x0, "u"
	DCB	0x0, "n", 0x0, "t", 0x0, "s", 0x0, ":", 0x0, 0xd, 0x0, 0xa
	DCB	0x0, 0x0, 0x0				; `string'
; Function compile flags: /Ogspy

  00000			 AREA	 |.text|, CODE, ARM

  00000		 |PrcmDumpRefCounts| PROC

; 2580 : {

  00000		 |$LN35@PrcmDumpRe|
  00000	e92d40f0	 stmdb       sp!, {r4 - r7, lr}
  00004		 |$M49889|

; 2581 :     int i;
; 2582 : 	
; 2583 :     // dump s_VddTable
; 2584 :     OALMSG(1, (L"\r\nVDD ref counts:\r\n"));

  00004	e59f0154	 ldr         r0, [pc, #0x154]
  00008	eb000000	 bl          NKDbgPrintfW

; 2585 :     for (i = 0; i < kVDD_COUNT; i++)

  0000c	e59f6148	 ldr         r6, [pc, #0x148]
  00010	e59f5140	 ldr         r5, [pc, #0x140]
  00014	e3a04000	 mov         r4, #0
  00018		 |$LL20@PrcmDumpRe|

; 2586 :         if (s_VddTable[i])

  00018	e7943005	 ldr         r3, [r4, +r5]
  0001c	e3530000	 cmp         r3, #0

; 2587 : 		    OALMSG(1, (L"%s %d\r\n", s_VddNameTable[i], s_VddTable[i]));

  00020	17941006	 ldrne       r1, [r4, +r6]
  00024	159f0104	 ldrne       r0, [pc, #0x104]
  00028	11a02003	 movne       r2, r3
  0002c	1b000000	 blne        NKDbgPrintfW
  00030	e2844004	 add         r4, r4, #4
  00034	e3540028	 cmp         r4, #0x28
  00038	bafffff6	 blt         |$LL20@PrcmDumpRe|

; 2588 : 
; 2589 : 	// dump s_DpllTable ref count field
; 2590 :     OALMSG(1, (L"\r\nDPLL ref counts:\r\n"));

  0003c	e59f0110	 ldr         r0, [pc, #0x110]
  00040	eb000000	 bl          NKDbgPrintfW
  00044	e59f7104	 ldr         r7, [pc, #0x104]
  00048	e59f50fc	 ldr         r5, [pc, #0xFC]
  0004c	e3a06006	 mov         r6, #6
  00050	e1a04007	 mov         r4, r7
  00054		 |$LL16@PrcmDumpRe|

; 2591 :     for (i = 0; i < kDPLL_COUNT; i++)
; 2592 :         if (s_DpllTable[i].refCount)

  00054	e5943004	 ldr         r3, [r4, #4]
  00058	e3530000	 cmp         r3, #0

; 2593 :             OALMSG(1, (L"%s %d\r\n", s_DpllNameTable[i], s_DpllTable[i].refCount));

  0005c	15951000	 ldrne       r1, [r5]
  00060	159f00c8	 ldrne       r0, [pc, #0xC8]
  00064	11a02003	 movne       r2, r3
  00068	1b000000	 blne        NKDbgPrintfW
  0006c	e284400c	 add         r4, r4, #0xC
  00070	e2855004	 add         r5, r5, #4
  00074	e2566001	 subs        r6, r6, #1
  00078	1afffff5	 bne         |$LL16@PrcmDumpRe|

; 2594 : 
; 2595 :     // dump s_DpllClkOutTable ref count field
; 2596 :     OALMSG(1, (L"\r\nDPLL CLKOUT ref counts:\r\n"));

  0007c	e59f00c4	 ldr         r0, [pc, #0xC4]
  00080	eb000000	 bl          NKDbgPrintfW
  00084	e59f50b8	 ldr         r5, [pc, #0xB8]
  00088	e2874048	 add         r4, r7, #0x48
  0008c	e3a06010	 mov         r6, #0x10
  00090		 |$LL12@PrcmDumpRe|

; 2597 :     for (i = 0; i < kDPLL_CLKOUT_COUNT; i++)
; 2598 :         if (s_DpllClkOutTable[i].refCount)

  00090	e5943004	 ldr         r3, [r4, #4]
  00094	e3530000	 cmp         r3, #0

; 2599 :             OALMSG(1, (L"%s %d\r\n", s_DpllClkOutNameTable[i], s_DpllClkOutTable[i].refCount));

  00098	15951000	 ldrne       r1, [r5]
  0009c	159f008c	 ldrne       r0, [pc, #0x8C]
  000a0	11a02003	 movne       r2, r3
  000a4	1b000000	 blne        NKDbgPrintfW
  000a8	e2844008	 add         r4, r4, #8
  000ac	e2855004	 add         r5, r5, #4
  000b0	e2566001	 subs        r6, r6, #1
  000b4	1afffff5	 bne         |$LL12@PrcmDumpRe|

; 2600 : 
; 2601 : 	// dump s_SrcClockTable ref count field
; 2602 :     OALMSG(1, (L"\r\nSRC CLOCK ref counts:\r\n"));

  000b8	e59f0080	 ldr         r0, [pc, #0x80]
  000bc	eb000000	 bl          NKDbgPrintfW
  000c0	e59f5074	 ldr         r5, [pc, #0x74]
  000c4	e28740c8	 add         r4, r7, #0xC8
  000c8	e3a0605a	 mov         r6, #0x5A
  000cc		 |$LL8@PrcmDumpRe|

; 2603 :     for (i = 0; i < kSOURCE_CLOCK_COUNT; i++)
; 2604 :         if (s_SrcClockTable[i].refCount)

  000cc	e5943004	 ldr         r3, [r4, #4]
  000d0	e3530000	 cmp         r3, #0

; 2605 :             OALMSG(1, (L"%s %d\r\n", s_SrcClockNameTable[i], s_SrcClockTable[i].refCount));

  000d4	15951000	 ldrne       r1, [r5]
  000d8	159f0050	 ldrne       r0, [pc, #0x50]
  000dc	11a02003	 movne       r2, r3
  000e0	1b000000	 blne        NKDbgPrintfW
  000e4	e2844014	 add         r4, r4, #0x14
  000e8	e2855004	 add         r5, r5, #4
  000ec	e2566001	 subs        r6, r6, #1
  000f0	1afffff5	 bne         |$LL8@PrcmDumpRe|

; 2606 : 
; 2607 :     // domain refCount
; 2608 :     for (i = 0; i < POWERDOMAIN_COUNT; i++)

  000f4	e59f503c	 ldr         r5, [pc, #0x3C]
  000f8	e59f4034	 ldr         r4, [pc, #0x34]
  000fc	e3a0600d	 mov         r6, #0xD
  00100		 |$LL4@PrcmDumpRe|

; 2609 :         if (s_DomainTable[i].refCount)

  00100	e5943000	 ldr         r3, [r4]
  00104	e3530000	 cmp         r3, #0

; 2610 :             OALMSG(1, (L"%s %d\r\n", DomainNameTable[i], s_DomainTable[i].refCount));

  00108	15951000	 ldrne       r1, [r5]
  0010c	159f001c	 ldrne       r0, [pc, #0x1C]
  00110	11a02003	 movne       r2, r3
  00114	1b000000	 blne        NKDbgPrintfW
  00118	e284401c	 add         r4, r4, #0x1C
  0011c	e2855004	 add         r5, r5, #4
  00120	e2566001	 subs        r6, r6, #1
  00124	1afffff5	 bne         |$LL4@PrcmDumpRe|

; 2611 : }

  00128	e8bd40f0	 ldmia       sp!, {r4 - r7, lr}
  0012c	e12fff1e	 bx          lr
  00130		 |$LN36@PrcmDumpRe|
  00130		 |$LN37@PrcmDumpRe|
  00130	00000000	 DCD         |??_C@_1BA@NOOLMKMI@?$AA?$CF?$AAs?$AA?5?$AA?$CF?$AAd?$AA?$AN?$AA?6?$AA?$AA@|
  00134		 |$LN38@PrcmDumpRe|
  00134	00000000	 DCD         |s_DomainTable|
  00138		 |$LN39@PrcmDumpRe|
  00138	00000000	 DCD         |DomainNameTable|
  0013c		 |$LN40@PrcmDumpRe|
  0013c	00000000	 DCD         |s_SrcClockNameTable|
  00140		 |$LN41@PrcmDumpRe|
  00140	00000000	 DCD         |??_C@_1DE@MNKDAJMB@?$AA?$AN?$AA?6?$AAS?$AAR?$AAC?$AA?5?$AAC?$AAL?$AAO?$AAC?$AAK?$AA?5?$AAr?$AAe?$AAf?$AA?5?$AAc?$AAo?$AAu?$AAn?$AAt?$AAs?$AA?3?$AA?$AN?$AA?6?$AA?$AA@|
  00144		 |$LN42@PrcmDumpRe|
  00144	00000000	 DCD         |s_DpllClkOutNameTable|
  00148		 |$LN43@PrcmDumpRe|
  00148	00000000	 DCD         |??_C@_1DI@PIJNCBJB@?$AA?$AN?$AA?6?$AAD?$AAP?$AAL?$AAL?$AA?5?$AAC?$AAL?$AAK?$AAO?$AAU?$AAT?$AA?5?$AAr?$AAe?$AAf?$AA?5?$AAc?$AAo?$AAu?$AAn?$AAt?$AAs?$AA?3?$AA?$AN?$AA?6?$AA?$AA@|
  0014c		 |$LN44@PrcmDumpRe|
  0014c	00000000	 DCD         |s_DpllNameTable|
  00150		 |$LN45@PrcmDumpRe|
  00150	00000000	 DCD         |s_DpllTable|
  00154		 |$LN46@PrcmDumpRe|
  00154	00000000	 DCD         |??_C@_1CK@MBLFPBCE@?$AA?$AN?$AA?6?$AAD?$AAP?$AAL?$AAL?$AA?5?$AAr?$AAe?$AAf?$AA?5?$AAc?$AAo?$AAu?$AAn?$AAt?$AAs?$AA?3?$AA?$AN?$AA?6?$AA?$AA@|
  00158		 |$LN47@PrcmDumpRe|
  00158	00000000	 DCD         |s_VddTable|
  0015c		 |$LN48@PrcmDumpRe|
  0015c	00000000	 DCD         |s_VddNameTable|
  00160		 |$LN49@PrcmDumpRe|
  00160	00000000	 DCD         |??_C@_1CI@DFICMPGN@?$AA?$AN?$AA?6?$AAV?$AAD?$AAD?$AA?5?$AAr?$AAe?$AAf?$AA?5?$AAc?$AAo?$AAu?$AAn?$AAt?$AAs?$AA?3?$AA?$AN?$AA?6?$AA?$AA@|
  00164		 |$M49890|

			 ENDP  ; |PrcmDumpRefCounts|

	EXPORT	|PrcmSaveRefCounts|
	IMPORT	|s_rgDeviceLookupTable|

  00028			 AREA	 |.bss|, NOINIT
|s_SavedDpllClkOutTable| % 0x80
|DomainRefCountSnapshot| % 0x34
|SavedDeviceFClkRefCount| % 0x144
|SavedDeviceIClkRefCount| % 0x144
|s_SavedSrcClockTable| % 0x708
|s_SavedDpllClkOutTable| % 0x80
|s_SavedDpllTable| % 0x48
|s_SavedVddTable| % 0x28

  00000			 AREA	 |.pdata|, PDATA
|$T49933| DCD	|$LN47@PrcmSaveRe|
	DCD	0x40004601
; Function compile flags: /Ogspy

  00000			 AREA	 |.text|, CODE, ARM

  00000		 |PrcmSaveRefCounts| PROC

; 2615 : {

  00000		 |$LN47@PrcmSaveRe|
  00000	e92d4030	 stmdb       sp!, {r4, r5, lr}
  00004		 |$M49930|

; 2616 :     int i;
; 2617 : 	
; 2618 :     // save s_VddTable
; 2619 :     for (i = 0; i < kVDD_COUNT; i++)
; 2620 :         s_SavedVddTable[i] = s_VddTable[i];

  00004	e59f2108	 ldr         r2, [pc, #0x108]
  00008	e59f1100	 ldr         r1, [pc, #0x100]
  0000c	e2820028	 add         r0, r2, #0x28
  00010		 |$LN37@PrcmSaveRe|
  00010	e4913004	 ldr         r3, [r1], #4
  00014	e4823004	 str         r3, [r2], #4
  00018	e1520000	 cmp         r2, r0
  0001c	1afffffb	 bne         |$LN37@PrcmSaveRe|

; 2621 : 
; 2622 : 	// save s_DpllTable
; 2623 :     for (i = 0; i < kDPLL_COUNT; i++)
; 2624 :         s_SavedDpllTable[i] = s_DpllTable[i];

  00020	e59f20e4	 ldr         r2, [pc, #0xE4]
  00024	e59f00dc	 ldr         r0, [pc, #0xDC]
  00028	e2821080	 add         r1, r2, #0x80
  0002c	e2814048	 add         r4, r1, #0x48
  00030	e1a0e000	 mov         lr, r0
  00034		 |$LN39@PrcmSaveRe|
  00034	e49e3004	 ldr         r3, [lr], #4
  00038	e4813004	 str         r3, [r1], #4
  0003c	e1510004	 cmp         r1, r4
  00040	1afffffb	 bne         |$LN39@PrcmSaveRe|

; 2625 : 
; 2626 :     // save s_DpllClkOutTable
; 2627 :     for (i = 0; i < kDPLL_CLKOUT_COUNT; i++)
; 2628 :         s_SavedDpllClkOutTable[i] = s_DpllClkOutTable[i];

  00044	e280e048	 add         lr, r0, #0x48
  00048	e1a01002	 mov         r1, r2
  0004c	e2824080	 add         r4, r2, #0x80
  00050		 |$LN41@PrcmSaveRe|
  00050	e49e3004	 ldr         r3, [lr], #4
  00054	e4813004	 str         r3, [r1], #4
  00058	e1510004	 cmp         r1, r4
  0005c	1afffffb	 bne         |$LN41@PrcmSaveRe|
  00060	e3a03c07	 mov         r3, #7, 24

; 2629 : 
; 2630 : 	// save s_SrcClockTable
; 2631 :     for (i = 0; i < kSOURCE_CLOCK_COUNT; i++)
; 2632 :         s_SavedSrcClockTable[i] = s_SrcClockTable[i];

  00064	e3833008	 orr         r3, r3, #8
  00068	e28210c8	 add         r1, r2, #0xC8
  0006c	e081e003	 add         lr, r1, r3
  00070	e28000c8	 add         r0, r0, #0xC8
  00074		 |$LN43@PrcmSaveRe|
  00074	e4903004	 ldr         r3, [r0], #4
  00078	e4813004	 str         r3, [r1], #4
  0007c	e151000e	 cmp         r1, lr
  00080	1afffffb	 bne         |$LN43@PrcmSaveRe|

; 2633 : 
; 2634 :     for (i = 0; i < OMAP_DEVICE_COUNT; i++)

  00084	e59f0078	 ldr         r0, [pc, #0x78]

; 2635 : 	{
; 2636 :         // prcm iclk ref count
; 2637 :         if (s_rgDeviceLookupTable[i].piclk)
; 2638 :             SavedDeviceIClkRefCount[i] = s_rgDeviceLookupTable[i].piclk->refCount;
; 2639 : 		else
; 2640 : 		    SavedDeviceIClkRefCount[i] = 0;

  00088	e59fe070	 ldr         lr, [pc, #0x70]
  0008c	e2824e7d	 add         r4, r2, #0x7D, 28
  00090	e2822e7d	 add         r2, r2, #0x7D, 28
  00094	e3a01000	 mov         r1, #0
  00098	e3a05000	 mov         r5, #0
  0009c		 |$LL10@PrcmSaveRe|
  0009c	e5903008	 ldr         r3, [r0, #8]
  000a0	e3530000	 cmp         r3, #0
  000a4	15933000	 ldrne       r3, [r3]
  000a8	1781300e	 strne       r3, [r1, +lr]

; 2641 : 		// prcm fclk ref count
; 2642 :         if (s_rgDeviceLookupTable[i].pfclk)

  000ac	e5903004	 ldr         r3, [r0, #4]
  000b0	0781500e	 streq       r5, [r1, +lr]
  000b4	e280001c	 add         r0, r0, #0x1C
  000b8	e3530000	 cmp         r3, #0

; 2643 :             SavedDeviceFClkRefCount[i] = s_rgDeviceLookupTable[i].pfclk->refCount;

  000bc	15933000	 ldrne       r3, [r3]
  000c0	17813004	 strne       r3, [r1, +r4]

; 2644 : 		else
; 2645 :             SavedDeviceFClkRefCount[i] = 0;

  000c4	07815002	 streq       r5, [r1, +r2]
  000c8	e2811004	 add         r1, r1, #4
  000cc	e3510f51	 cmp         r1, #0x51, 30
  000d0	bafffff1	 blt         |$LL10@PrcmSaveRe|

; 2646 : 	}
; 2647 : 	
; 2648 :     // domain refCount
; 2649 :     for (i = 0; i < POWERDOMAIN_COUNT; i++)

  000d4	e59f2020	 ldr         r2, [pc, #0x20]
  000d8	e59f1018	 ldr         r1, [pc, #0x18]
  000dc	e3a0000d	 mov         r0, #0xD
  000e0		 |$LL3@PrcmSaveRe|

; 2650 :         DomainRefCountSnapshot[i] = s_DomainTable[i].refCount;

  000e0	e491301c	 ldr         r3, [r1], #0x1C
  000e4	e2500001	 subs        r0, r0, #1
  000e8	e4823004	 str         r3, [r2], #4
  000ec	1afffffb	 bne         |$LL3@PrcmSaveRe|

; 2651 : }

  000f0	e8bd4030	 ldmia       sp!, {r4, r5, lr}
  000f4	e12fff1e	 bx          lr
  000f8		 |$LN48@PrcmSaveRe|
  000f8		 |$LN49@PrcmSaveRe|
  000f8	00000000	 DCD         |s_DomainTable|
  000fc		 |$LN50@PrcmSaveRe|
  000fc	00000000	 DCD         |DomainRefCountSnapshot|
  00100		 |$LN51@PrcmSaveRe|
  00100	00000000	 DCD         |SavedDeviceIClkRefCount|
  00104		 |$LN52@PrcmSaveRe|
  00104	00000000	 DCD         |s_rgDeviceLookupTable|
  00108		 |$LN53@PrcmSaveRe|
  00108	00000000	 DCD         |s_DpllTable|
  0010c		 |$LN54@PrcmSaveRe|
  0010c	00000000	 DCD         |s_SavedDpllClkOutTable|
  00110		 |$LN55@PrcmSaveRe|
  00110	00000000	 DCD         |s_VddTable|
  00114		 |$LN56@PrcmSaveRe|
  00114	00000000	 DCD         |s_SavedVddTable|
  00118		 |$M49931|

			 ENDP  ; |PrcmSaveRefCounts|

	EXPORT	|PrcmDumpSavedRefCounts|
	EXPORT	|??_C@_1EA@JKDOBNCH@?$AAS?$AAa?$AAv?$AAe?$AAd?$AA?5?$AAD?$AAo?$AAm?$AAa?$AAi?$AAn?$AA?5?$AAR?$AAe?$AAf?$AAC?$AAo?$AAu?$AAn?$AAt?$AA?5?$AA?$CF?$AAs?$AA?5?$AA?$DN?$AA?5?$AA?$CF?$AAd?$AA?$AN?$AA?6?$AA?$AA@| [ DATA ] ; `string'
	EXPORT	|??_C@_1DI@LNGAMPKI@?$AA?$AN?$AA?6?$AAS?$AAa?$AAv?$AAe?$AAd?$AA?5?$AAD?$AAo?$AAm?$AAa?$AAi?$AAn?$AA?5?$AAR?$AAe?$AAf?$AAC?$AAo?$AAu?$AAn?$AAt?$AAs?$AA?3?$AA?$AN?$AA?6?$AA?$AA@| [ DATA ] ; `string'
	EXPORT	|??_C@_1FE@HIOGEJJC@?$AAS?$AAa?$AAv?$AAe?$AAd?$AA?5?$AAP?$AAR?$AAC?$AAM?$AA?5?$AAD?$AAe?$AAv?$AAi?$AAc?$AAe?$AA?5?$AAF?$AAC?$AAL?$AAK?$AA?5?$AAR?$AAe?$AAf?$AAC?$AAo?$AAu?$AAn?$AAt?$AA?5@| [ DATA ] ; `string'
	EXPORT	|??_C@_1EE@CNIHEABP@?$AA?$AN?$AA?6?$AAS?$AAa?$AAv?$AAe?$AAd?$AA?5?$AAd?$AAe?$AAv?$AAi?$AAc?$AAe?$AA?5?$AAF?$AAC?$AAL?$AAK?$AA?5?$AAr?$AAe?$AAf?$AA?5?$AAc?$AAo?$AAu?$AAn?$AAt?$AAs?$AA?3?$AA?$AN@| [ DATA ] ; `string'
	EXPORT	|??_C@_1FE@POANKPCH@?$AAS?$AAa?$AAv?$AAe?$AAd?$AA?5?$AAP?$AAR?$AAC?$AAM?$AA?5?$AAD?$AAe?$AAv?$AAi?$AAc?$AAe?$AA?5?$AAI?$AAC?$AAL?$AAK?$AA?5?$AAR?$AAe?$AAf?$AAC?$AAo?$AAu?$AAn?$AAt?$AA?5@| [ DATA ] ; `string'
	EXPORT	|??_C@_1EE@IMLOEHKF@?$AA?$AN?$AA?6?$AAS?$AAa?$AAv?$AAe?$AAd?$AA?5?$AAd?$AAe?$AAv?$AAi?$AAc?$AAe?$AA?5?$AAI?$AAC?$AAL?$AAK?$AA?5?$AAr?$AAe?$AAf?$AA?5?$AAc?$AAo?$AAu?$AAn?$AAt?$AAs?$AA?3?$AA?$AN@| [ DATA ] ; `string'
	EXPORT	|??_C@_1EA@FOBOPLCJ@?$AA?$AN?$AA?6?$AAS?$AAa?$AAv?$AAe?$AAd?$AA?5?$AAS?$AAR?$AAC?$AA?5?$AAC?$AAL?$AAO?$AAC?$AAK?$AA?5?$AAr?$AAe?$AAf?$AA?5?$AAc?$AAo?$AAu?$AAn?$AAt?$AAs?$AA?3?$AA?$AN?$AA?6?$AA?$AA@| [ DATA ] ; `string'
	EXPORT	|??_C@_1EE@GFHLPNPD@?$AA?$AN?$AA?6?$AAS?$AAa?$AAv?$AAe?$AAd?$AA?5?$AAD?$AAP?$AAL?$AAL?$AA?5?$AAC?$AAL?$AAK?$AAO?$AAU?$AAT?$AA?5?$AAr?$AAe?$AAf?$AA?5?$AAc?$AAo?$AAu?$AAn?$AAt?$AAs?$AA?3?$AA?$AN@| [ DATA ] ; `string'
	EXPORT	|??_C@_1DG@KDOAHHJA@?$AA?$AN?$AA?6?$AAS?$AAa?$AAv?$AAe?$AAd?$AA?5?$AAD?$AAP?$AAL?$AAL?$AA?5?$AAr?$AAe?$AAf?$AA?5?$AAc?$AAo?$AAu?$AAn?$AAt?$AAs?$AA?3?$AA?$AN?$AA?6?$AA?$AA@| [ DATA ] ; `string'
	EXPORT	|??_C@_1FC@DMOHKJJI@?$AA?$AN?$AA?6?$AAS?$AAa?$AAv?$AAe?$AAd?$AA?5?$AAI?$AAn?$AAf?$AAo?$AAr?$AAm?$AAa?$AAt?$AAi?$AAo?$AAn?$AA?5?$AAP?$AAr?$AAi?$AAo?$AAr?$AA?5?$AAt?$AAo?$AA?5?$AAS?$AAu?$AAs@| [ DATA ] ; `string'
	EXPORT	|??_C@_1DE@KGLDHFLF@?$AA?$AN?$AA?6?$AAS?$AAa?$AAv?$AAe?$AAd?$AA?5?$AAV?$AAD?$AAD?$AA?5?$AAr?$AAe?$AAf?$AA?5?$AAc?$AAo?$AAu?$AAn?$AAt?$AAs?$AA?3?$AA?$AN?$AA?6?$AA?$AA@| [ DATA ] ; `string'

  00000			 AREA	 |.pdata|, PDATA
|$T49963| DCD	|$LN47@PrcmDumpSa|
	DCD	0x40007c01

  00000			 AREA	 |.rdata|, DATA, READONLY
|??_C@_1EA@JKDOBNCH@?$AAS?$AAa?$AAv?$AAe?$AAd?$AA?5?$AAD?$AAo?$AAm?$AAa?$AAi?$AAn?$AA?5?$AAR?$AAe?$AAf?$AAC?$AAo?$AAu?$AAn?$AAt?$AA?5?$AA?$CF?$AAs?$AA?5?$AA?$DN?$AA?5?$AA?$CF?$AAd?$AA?$AN?$AA?6?$AA?$AA@| DCB "S"
	DCB	0x0, "a", 0x0, "v", 0x0, "e", 0x0, "d", 0x0, " ", 0x0, "D"
	DCB	0x0, "o", 0x0, "m", 0x0, "a", 0x0, "i", 0x0, "n", 0x0, " "
	DCB	0x0, "R", 0x0, "e", 0x0, "f", 0x0, "C", 0x0, "o", 0x0, "u"
	DCB	0x0, "n", 0x0, "t", 0x0, " ", 0x0, "%", 0x0, "s", 0x0, " "
	DCB	0x0, "=", 0x0, " ", 0x0, "%", 0x0, "d", 0x0, 0xd, 0x0, 0xa
	DCB	0x0, 0x0, 0x0				; `string'

  00000			 AREA	 |.rdata|, DATA, READONLY
|??_C@_1DI@LNGAMPKI@?$AA?$AN?$AA?6?$AAS?$AAa?$AAv?$AAe?$AAd?$AA?5?$AAD?$AAo?$AAm?$AAa?$AAi?$AAn?$AA?5?$AAR?$AAe?$AAf?$AAC?$AAo?$AAu?$AAn?$AAt?$AAs?$AA?3?$AA?$AN?$AA?6?$AA?$AA@| DCB 0xd
	DCB	0x0, 0xa, 0x0, "S", 0x0, "a", 0x0, "v", 0x0, "e", 0x0, "d"
	DCB	0x0, " ", 0x0, "D", 0x0, "o", 0x0, "m", 0x0, "a", 0x0, "i"
	DCB	0x0, "n", 0x0, " ", 0x0, "R", 0x0, "e", 0x0, "f", 0x0, "C"
	DCB	0x0, "o", 0x0, "u", 0x0, "n", 0x0, "t", 0x0, "s", 0x0, ":"
	DCB	0x0, 0xd, 0x0, 0xa, 0x0, 0x0, 0x0	; `string'

  00000			 AREA	 |.rdata|, DATA, READONLY
|??_C@_1FE@HIOGEJJC@?$AAS?$AAa?$AAv?$AAe?$AAd?$AA?5?$AAP?$AAR?$AAC?$AAM?$AA?5?$AAD?$AAe?$AAv?$AAi?$AAc?$AAe?$AA?5?$AAF?$AAC?$AAL?$AAK?$AA?5?$AAR?$AAe?$AAf?$AAC?$AAo?$AAu?$AAn?$AAt?$AA?5@| DCB "S"
	DCB	0x0, "a", 0x0, "v", 0x0, "e", 0x0, "d", 0x0, " ", 0x0, "P"
	DCB	0x0, "R", 0x0, "C", 0x0, "M", 0x0, " ", 0x0, "D", 0x0, "e"
	DCB	0x0, "v", 0x0, "i", 0x0, "c", 0x0, "e", 0x0, " ", 0x0, "F"
	DCB	0x0, "C", 0x0, "L", 0x0, "K", 0x0, " ", 0x0, "R", 0x0, "e"
	DCB	0x0, "f", 0x0, "C", 0x0, "o", 0x0, "u", 0x0, "n", 0x0, "t"
	DCB	0x0, " ", 0x0, "%", 0x0, "s", 0x0, " ", 0x0, "=", 0x0, " "
	DCB	0x0, "%", 0x0, "d", 0x0, 0xd, 0x0, 0xa, 0x0, 0x0, 0x0 ; `string'

  00000			 AREA	 |.rdata|, DATA, READONLY
|??_C@_1EE@CNIHEABP@?$AA?$AN?$AA?6?$AAS?$AAa?$AAv?$AAe?$AAd?$AA?5?$AAd?$AAe?$AAv?$AAi?$AAc?$AAe?$AA?5?$AAF?$AAC?$AAL?$AAK?$AA?5?$AAr?$AAe?$AAf?$AA?5?$AAc?$AAo?$AAu?$AAn?$AAt?$AAs?$AA?3?$AA?$AN@| DCB 0xd
	DCB	0x0, 0xa, 0x0, "S", 0x0, "a", 0x0, "v", 0x0, "e", 0x0, "d"
	DCB	0x0, " ", 0x0, "d", 0x0, "e", 0x0, "v", 0x0, "i", 0x0, "c"
	DCB	0x0, "e", 0x0, " ", 0x0, "F", 0x0, "C", 0x0, "L", 0x0, "K"
	DCB	0x0, " ", 0x0, "r", 0x0, "e", 0x0, "f", 0x0, " ", 0x0, "c"
	DCB	0x0, "o", 0x0, "u", 0x0, "n", 0x0, "t", 0x0, "s", 0x0, ":"
	DCB	0x0, 0xd, 0x0, 0xa, 0x0, 0x0, 0x0	; `string'

  00000			 AREA	 |.rdata|, DATA, READONLY
|??_C@_1FE@POANKPCH@?$AAS?$AAa?$AAv?$AAe?$AAd?$AA?5?$AAP?$AAR?$AAC?$AAM?$AA?5?$AAD?$AAe?$AAv?$AAi?$AAc?$AAe?$AA?5?$AAI?$AAC?$AAL?$AAK?$AA?5?$AAR?$AAe?$AAf?$AAC?$AAo?$AAu?$AAn?$AAt?$AA?5@| DCB "S"
	DCB	0x0, "a", 0x0, "v", 0x0, "e", 0x0, "d", 0x0, " ", 0x0, "P"
	DCB	0x0, "R", 0x0, "C", 0x0, "M", 0x0, " ", 0x0, "D", 0x0, "e"
	DCB	0x0, "v", 0x0, "i", 0x0, "c", 0x0, "e", 0x0, " ", 0x0, "I"
	DCB	0x0, "C", 0x0, "L", 0x0, "K", 0x0, " ", 0x0, "R", 0x0, "e"
	DCB	0x0, "f", 0x0, "C", 0x0, "o", 0x0, "u", 0x0, "n", 0x0, "t"
	DCB	0x0, " ", 0x0, "%", 0x0, "s", 0x0, " ", 0x0, "=", 0x0, " "
	DCB	0x0, "%", 0x0, "d", 0x0, 0xd, 0x0, 0xa, 0x0, 0x0, 0x0 ; `string'

  00000			 AREA	 |.rdata|, DATA, READONLY
|??_C@_1EE@IMLOEHKF@?$AA?$AN?$AA?6?$AAS?$AAa?$AAv?$AAe?$AAd?$AA?5?$AAd?$AAe?$AAv?$AAi?$AAc?$AAe?$AA?5?$AAI?$AAC?$AAL?$AAK?$AA?5?$AAr?$AAe?$AAf?$AA?5?$AAc?$AAo?$AAu?$AAn?$AAt?$AAs?$AA?3?$AA?$AN@| DCB 0xd
	DCB	0x0, 0xa, 0x0, "S", 0x0, "a", 0x0, "v", 0x0, "e", 0x0, "d"
	DCB	0x0, " ", 0x0, "d", 0x0, "e", 0x0, "v", 0x0, "i", 0x0, "c"
	DCB	0x0, "e", 0x0, " ", 0x0, "I", 0x0, "C", 0x0, "L", 0x0, "K"
	DCB	0x0, " ", 0x0, "r", 0x0, "e", 0x0, "f", 0x0, " ", 0x0, "c"
	DCB	0x0, "o", 0x0, "u", 0x0, "n", 0x0, "t", 0x0, "s", 0x0, ":"
	DCB	0x0, 0xd, 0x0, 0xa, 0x0, 0x0, 0x0	; `string'

  00000			 AREA	 |.rdata|, DATA, READONLY
|??_C@_1EA@FOBOPLCJ@?$AA?$AN?$AA?6?$AAS?$AAa?$AAv?$AAe?$AAd?$AA?5?$AAS?$AAR?$AAC?$AA?5?$AAC?$AAL?$AAO?$AAC?$AAK?$AA?5?$AAr?$AAe?$AAf?$AA?5?$AAc?$AAo?$AAu?$AAn?$AAt?$AAs?$AA?3?$AA?$AN?$AA?6?$AA?$AA@| DCB 0xd
	DCB	0x0, 0xa, 0x0, "S", 0x0, "a", 0x0, "v", 0x0, "e", 0x0, "d"
	DCB	0x0, " ", 0x0, "S", 0x0, "R", 0x0, "C", 0x0, " ", 0x0, "C"
	DCB	0x0, "L", 0x0, "O", 0x0, "C", 0x0, "K", 0x0, " ", 0x0, "r"
	DCB	0x0, "e", 0x0, "f", 0x0, " ", 0x0, "c", 0x0, "o", 0x0, "u"
	DCB	0x0, "n", 0x0, "t", 0x0, "s", 0x0, ":", 0x0, 0xd, 0x0, 0xa
	DCB	0x0, 0x0, 0x0				; `string'

  00000			 AREA	 |.rdata|, DATA, READONLY
|??_C@_1EE@GFHLPNPD@?$AA?$AN?$AA?6?$AAS?$AAa?$AAv?$AAe?$AAd?$AA?5?$AAD?$AAP?$AAL?$AAL?$AA?5?$AAC?$AAL?$AAK?$AAO?$AAU?$AAT?$AA?5?$AAr?$AAe?$AAf?$AA?5?$AAc?$AAo?$AAu?$AAn?$AAt?$AAs?$AA?3?$AA?$AN@| DCB 0xd
	DCB	0x0, 0xa, 0x0, "S", 0x0, "a", 0x0, "v", 0x0, "e", 0x0, "d"
	DCB	0x0, " ", 0x0, "D", 0x0, "P", 0x0, "L", 0x0, "L", 0x0, " "
	DCB	0x0, "C", 0x0, "L", 0x0, "K", 0x0, "O", 0x0, "U", 0x0, "T"
	DCB	0x0, " ", 0x0, "r", 0x0, "e", 0x0, "f", 0x0, " ", 0x0, "c"
	DCB	0x0, "o", 0x0, "u", 0x0, "n", 0x0, "t", 0x0, "s", 0x0, ":"
	DCB	0x0, 0xd, 0x0, 0xa, 0x0, 0x0, 0x0	; `string'

  00000			 AREA	 |.rdata|, DATA, READONLY
|??_C@_1DG@KDOAHHJA@?$AA?$AN?$AA?6?$AAS?$AAa?$AAv?$AAe?$AAd?$AA?5?$AAD?$AAP?$AAL?$AAL?$AA?5?$AAr?$AAe?$AAf?$AA?5?$AAc?$AAo?$AAu?$AAn?$AAt?$AAs?$AA?3?$AA?$AN?$AA?6?$AA?$AA@| DCB 0xd
	DCB	0x0, 0xa, 0x0, "S", 0x0, "a", 0x0, "v", 0x0, "e", 0x0, "d"
	DCB	0x0, " ", 0x0, "D", 0x0, "P", 0x0, "L", 0x0, "L", 0x0, " "
	DCB	0x0, "r", 0x0, "e", 0x0, "f", 0x0, " ", 0x0, "c", 0x0, "o"
	DCB	0x0, "u", 0x0, "n", 0x0, "t", 0x0, "s", 0x0, ":", 0x0, 0xd
	DCB	0x0, 0xa, 0x0, 0x0, 0x0			; `string'

  00000			 AREA	 |.rdata|, DATA, READONLY
|??_C@_1FC@DMOHKJJI@?$AA?$AN?$AA?6?$AAS?$AAa?$AAv?$AAe?$AAd?$AA?5?$AAI?$AAn?$AAf?$AAo?$AAr?$AAm?$AAa?$AAt?$AAi?$AAo?$AAn?$AA?5?$AAP?$AAr?$AAi?$AAo?$AAr?$AA?5?$AAt?$AAo?$AA?5?$AAS?$AAu?$AAs@| DCB 0xd
	DCB	0x0, 0xa, 0x0, "S", 0x0, "a", 0x0, "v", 0x0, "e", 0x0, "d"
	DCB	0x0, " ", 0x0, "I", 0x0, "n", 0x0, "f", 0x0, "o", 0x0, "r"
	DCB	0x0, "m", 0x0, "a", 0x0, "t", 0x0, "i", 0x0, "o", 0x0, "n"
	DCB	0x0, " ", 0x0, "P", 0x0, "r", 0x0, "i", 0x0, "o", 0x0, "r"
	DCB	0x0, " ", 0x0, "t", 0x0, "o", 0x0, " ", 0x0, "S", 0x0, "u"
	DCB	0x0, "s", 0x0, "p", 0x0, "e", 0x0, "n", 0x0, "d", 0x0, ":"
	DCB	0x0, ":", 0x0, 0xd, 0x0, 0xa, 0x0, 0x0, 0x0 ; `string'

  00000			 AREA	 |.rdata|, DATA, READONLY
|??_C@_1DE@KGLDHFLF@?$AA?$AN?$AA?6?$AAS?$AAa?$AAv?$AAe?$AAd?$AA?5?$AAV?$AAD?$AAD?$AA?5?$AAr?$AAe?$AAf?$AA?5?$AAc?$AAo?$AAu?$AAn?$AAt?$AAs?$AA?3?$AA?$AN?$AA?6?$AA?$AA@| DCB 0xd
	DCB	0x0, 0xa, 0x0, "S", 0x0, "a", 0x0, "v", 0x0, "e", 0x0, "d"
	DCB	0x0, " ", 0x0, "V", 0x0, "D", 0x0, "D", 0x0, " ", 0x0, "r"
	DCB	0x0, "e", 0x0, "f", 0x0, " ", 0x0, "c", 0x0, "o", 0x0, "u"
	DCB	0x0, "n", 0x0, "t", 0x0, "s", 0x0, ":", 0x0, 0xd, 0x0, 0xa
	DCB	0x0, 0x0, 0x0				; `string'
; Function compile flags: /Ogspy

  00000			 AREA	 |.text|, CODE, ARM

  00000		 |PrcmDumpSavedRefCounts| PROC

; 2655 : {

  00000		 |$LN47@PrcmDumpSa|
  00000	e92d41f0	 stmdb       sp!, {r4 - r8, lr}
  00004		 |$M49960|

; 2656 :     int i;
; 2657 : 	
; 2658 :     OALMSG(1, (L"\r\nSaved Information Prior to Suspend::\r\n"));

  00004	e59f01e0	 ldr         r0, [pc, #0x1E0]
  00008	eb000000	 bl          NKDbgPrintfW

; 2659 : 
; 2660 :     // dump s_VddTable
; 2661 :     OALMSG(1, (L"\r\nSaved VDD ref counts:\r\n"));

  0000c	e59f01d4	 ldr         r0, [pc, #0x1D4]
  00010	eb000000	 bl          NKDbgPrintfW

; 2662 :     for (i = 0; i < kVDD_COUNT; i++)

  00014	e59f61c8	 ldr         r6, [pc, #0x1C8]
  00018	e59f51c0	 ldr         r5, [pc, #0x1C0]
  0001c	e3a04000	 mov         r4, #0
  00020		 |$LL28@PrcmDumpSa|

; 2663 :         if (s_SavedVddTable[i])

  00020	e7943005	 ldr         r3, [r4, +r5]
  00024	e3530000	 cmp         r3, #0

; 2664 :             OALMSG(1, (L"%s %d\r\n", s_VddNameTable[i], s_SavedVddTable[i]));

  00028	17941006	 ldrne       r1, [r4, +r6]
  0002c	159f0198	 ldrne       r0, [pc, #0x198]
  00030	11a02003	 movne       r2, r3
  00034	1b000000	 blne        NKDbgPrintfW
  00038	e2844004	 add         r4, r4, #4
  0003c	e3540028	 cmp         r4, #0x28
  00040	bafffff6	 blt         |$LL28@PrcmDumpSa|

; 2665 : 
; 2666 : 	// dump s_DpllTable ref count field
; 2667 :     OALMSG(1, (L"\r\nSaved DPLL ref counts:\r\n"));

  00044	e59f0190	 ldr         r0, [pc, #0x190]
  00048	eb000000	 bl          NKDbgPrintfW
  0004c	e59f8184	 ldr         r8, [pc, #0x184]
  00050	e2865028	 add         r5, r6, #0x28
  00054	e3a07006	 mov         r7, #6
  00058	e2884080	 add         r4, r8, #0x80
  0005c		 |$LL24@PrcmDumpSa|

; 2668 :     for (i = 0; i < kDPLL_COUNT; i++)
; 2669 :         if (s_SavedDpllTable[i].refCount)

  0005c	e5943004	 ldr         r3, [r4, #4]
  00060	e3530000	 cmp         r3, #0

; 2670 :             OALMSG(1, (L"%s %d\r\n", s_DpllNameTable[i], s_SavedDpllTable[i].refCount));

  00064	15951000	 ldrne       r1, [r5]
  00068	159f015c	 ldrne       r0, [pc, #0x15C]
  0006c	11a02003	 movne       r2, r3
  00070	1b000000	 blne        NKDbgPrintfW
  00074	e284400c	 add         r4, r4, #0xC
  00078	e2855004	 add         r5, r5, #4
  0007c	e2577001	 subs        r7, r7, #1
  00080	1afffff5	 bne         |$LL24@PrcmDumpSa|

; 2671 : 
; 2672 :     // dump s_DpllClkOutTable ref count field
; 2673 :     OALMSG(1, (L"\r\nSaved DPLL CLKOUT ref counts:\r\n"));

  00084	e59f0148	 ldr         r0, [pc, #0x148]
  00088	eb000000	 bl          NKDbgPrintfW
  0008c	e2865074	 add         r5, r6, #0x74
  00090	e1a04008	 mov         r4, r8
  00094	e3a07010	 mov         r7, #0x10
  00098		 |$LL20@PrcmDumpSa|

; 2674 :     for (i = 0; i < kDPLL_CLKOUT_COUNT; i++)
; 2675 :         if (s_SavedDpllClkOutTable[i].refCount)

  00098	e5943004	 ldr         r3, [r4, #4]
  0009c	e3530000	 cmp         r3, #0

; 2676 :             OALMSG(1, (L"%s %d\r\n", s_DpllClkOutNameTable[i], s_SavedDpllClkOutTable[i].refCount));

  000a0	15951000	 ldrne       r1, [r5]
  000a4	159f0120	 ldrne       r0, [pc, #0x120]
  000a8	11a02003	 movne       r2, r3
  000ac	1b000000	 blne        NKDbgPrintfW
  000b0	e2844008	 add         r4, r4, #8
  000b4	e2855004	 add         r5, r5, #4
  000b8	e2577001	 subs        r7, r7, #1
  000bc	1afffff5	 bne         |$LL20@PrcmDumpSa|

; 2677 : 
; 2678 : 	// dump s_SrcClockTable ref count field
; 2679 :     OALMSG(1, (L"\r\nSaved SRC CLOCK ref counts:\r\n"));

  000c0	e59f0108	 ldr         r0, [pc, #0x108]
  000c4	eb000000	 bl          NKDbgPrintfW
  000c8	e28650b4	 add         r5, r6, #0xB4
  000cc	e28840c8	 add         r4, r8, #0xC8
  000d0	e3a0705a	 mov         r7, #0x5A
  000d4		 |$LL16@PrcmDumpSa|

; 2680 :     for (i = 0; i < kSOURCE_CLOCK_COUNT; i++)
; 2681 :         if (s_SavedSrcClockTable[i].refCount)

  000d4	e5943004	 ldr         r3, [r4, #4]
  000d8	e3530000	 cmp         r3, #0

; 2682 :             OALMSG(1, (L"%s %d\r\n", s_SrcClockNameTable[i], s_SavedSrcClockTable[i].refCount));

  000dc	15951000	 ldrne       r1, [r5]
  000e0	159f00e4	 ldrne       r0, [pc, #0xE4]
  000e4	11a02003	 movne       r2, r3
  000e8	1b000000	 blne        NKDbgPrintfW
  000ec	e2844014	 add         r4, r4, #0x14
  000f0	e2855004	 add         r5, r5, #4
  000f4	e2577001	 subs        r7, r7, #1
  000f8	1afffff5	 bne         |$LL16@PrcmDumpSa|

; 2683 : 
; 2684 :     // dump prcm device iclk ref count
; 2685 :     OALMSG(1, (L"\r\nSaved device ICLK ref counts:\r\n"));

  000fc	e59f00c4	 ldr         r0, [pc, #0xC4]
  00100	eb000000	 bl          NKDbgPrintfW

; 2686 :     for (i = 0; i < OMAP_DEVICE_COUNT; i++)

  00104	e59f50b8	 ldr         r5, [pc, #0xB8]
  00108	e3a04000	 mov         r4, #0
  0010c	e2867f83	 add         r7, r6, #0x83, 30
  00110		 |$LL12@PrcmDumpSa|

; 2687 :         if (SavedDeviceIClkRefCount[i])

  00110	e7943005	 ldr         r3, [r4, +r5]
  00114	e3530000	 cmp         r3, #0

; 2688 :     	    OALMSG(1, (L"Saved PRCM Device ICLK RefCount %s = %d\r\n", DeviceNames[i], SavedDeviceIClkRefCount[i]));

  00118	17941007	 ldrne       r1, [r4, +r7]
  0011c	159f009c	 ldrne       r0, [pc, #0x9C]
  00120	11a02003	 movne       r2, r3
  00124	1b000000	 blne        NKDbgPrintfW
  00128	e2844004	 add         r4, r4, #4
  0012c	e3540f51	 cmp         r4, #0x51, 30
  00130	bafffff6	 blt         |$LL12@PrcmDumpSa|

; 2689 : 
; 2690 : 	// dump prcm device fclk ref count
; 2691 :     OALMSG(1, (L"\r\nSaved device FCLK ref counts:\r\n"));

  00134	e59f0080	 ldr         r0, [pc, #0x80]
  00138	eb000000	 bl          NKDbgPrintfW

; 2692 :     for (i = 0; i < OMAP_DEVICE_COUNT; i++)

  0013c	e3a04000	 mov         r4, #0
  00140	e2885e7d	 add         r5, r8, #0x7D, 28
  00144	e2867f83	 add         r7, r6, #0x83, 30
  00148		 |$LL8@PrcmDumpSa|

; 2693 :         if (SavedDeviceFClkRefCount[i])

  00148	e7943005	 ldr         r3, [r4, +r5]
  0014c	e3530000	 cmp         r3, #0

; 2694 :     	    OALMSG(1, (L"Saved PRCM Device FCLK RefCount %s = %d\r\n", DeviceNames[i], SavedDeviceFClkRefCount[i]));

  00150	17941007	 ldrne       r1, [r4, +r7]
  00154	159f005c	 ldrne       r0, [pc, #0x5C]
  00158	11a02003	 movne       r2, r3
  0015c	1b000000	 blne        NKDbgPrintfW
  00160	e2844004	 add         r4, r4, #4
  00164	e3540f51	 cmp         r4, #0x51, 30
  00168	bafffff6	 blt         |$LL8@PrcmDumpSa|

; 2695 : 
; 2696 :     // domain refCount
; 2697 :     OALMSG(1, (L"\r\nSaved Domain RefCounts:\r\n"));

  0016c	e59f0040	 ldr         r0, [pc, #0x40]
  00170	eb000000	 bl          NKDbgPrintfW

; 2698 :     for (i = 0; i < POWERDOMAIN_COUNT; i++)

  00174	e59f5034	 ldr         r5, [pc, #0x34]
  00178	e3a04000	 mov         r4, #0
  0017c	e2866040	 add         r6, r6, #0x40
  00180		 |$LL4@PrcmDumpSa|

; 2699 :         if (DomainRefCountSnapshot[i])

  00180	e7943005	 ldr         r3, [r4, +r5]
  00184	e3530000	 cmp         r3, #0

; 2700 :             OALMSG(1, (L"Saved Domain RefCount %s = %d\r\n", DomainNameTable[i], DomainRefCountSnapshot[i]));

  00188	17941006	 ldrne       r1, [r4, +r6]
  0018c	159f0018	 ldrne       r0, [pc, #0x18]
  00190	11a02003	 movne       r2, r3
  00194	1b000000	 blne        NKDbgPrintfW
  00198	e2844004	 add         r4, r4, #4
  0019c	e3540034	 cmp         r4, #0x34
  001a0	bafffff6	 blt         |$LL4@PrcmDumpSa|

; 2701 : }

  001a4	e8bd41f0	 ldmia       sp!, {r4 - r8, lr}
  001a8	e12fff1e	 bx          lr
  001ac		 |$LN48@PrcmDumpSa|
  001ac		 |$LN49@PrcmDumpSa|
  001ac	00000000	 DCD         |??_C@_1EA@JKDOBNCH@?$AAS?$AAa?$AAv?$AAe?$AAd?$AA?5?$AAD?$AAo?$AAm?$AAa?$AAi?$AAn?$AA?5?$AAR?$AAe?$AAf?$AAC?$AAo?$AAu?$AAn?$AAt?$AA?5?$AA?$CF?$AAs?$AA?5?$AA?$DN?$AA?5?$AA?$CF?$AAd?$AA?$AN?$AA?6?$AA?$AA@|
  001b0		 |$LN50@PrcmDumpSa|
  001b0	00000000	 DCD         |DomainRefCountSnapshot|
  001b4		 |$LN51@PrcmDumpSa|
  001b4	00000000	 DCD         |??_C@_1DI@LNGAMPKI@?$AA?$AN?$AA?6?$AAS?$AAa?$AAv?$AAe?$AAd?$AA?5?$AAD?$AAo?$AAm?$AAa?$AAi?$AAn?$AA?5?$AAR?$AAe?$AAf?$AAC?$AAo?$AAu?$AAn?$AAt?$AAs?$AA?3?$AA?$AN?$AA?6?$AA?$AA@|
  001b8		 |$LN52@PrcmDumpSa|
  001b8	00000000	 DCD         |??_C@_1FE@HIOGEJJC@?$AAS?$AAa?$AAv?$AAe?$AAd?$AA?5?$AAP?$AAR?$AAC?$AAM?$AA?5?$AAD?$AAe?$AAv?$AAi?$AAc?$AAe?$AA?5?$AAF?$AAC?$AAL?$AAK?$AA?5?$AAR?$AAe?$AAf?$AAC?$AAo?$AAu?$AAn?$AAt?$AA?5@|
  001bc		 |$LN53@PrcmDumpSa|
  001bc	00000000	 DCD         |??_C@_1EE@CNIHEABP@?$AA?$AN?$AA?6?$AAS?$AAa?$AAv?$AAe?$AAd?$AA?5?$AAd?$AAe?$AAv?$AAi?$AAc?$AAe?$AA?5?$AAF?$AAC?$AAL?$AAK?$AA?5?$AAr?$AAe?$AAf?$AA?5?$AAc?$AAo?$AAu?$AAn?$AAt?$AAs?$AA?3?$AA?$AN@|
  001c0		 |$LN54@PrcmDumpSa|
  001c0	00000000	 DCD         |??_C@_1FE@POANKPCH@?$AAS?$AAa?$AAv?$AAe?$AAd?$AA?5?$AAP?$AAR?$AAC?$AAM?$AA?5?$AAD?$AAe?$AAv?$AAi?$AAc?$AAe?$AA?5?$AAI?$AAC?$AAL?$AAK?$AA?5?$AAR?$AAe?$AAf?$AAC?$AAo?$AAu?$AAn?$AAt?$AA?5@|
  001c4		 |$LN55@PrcmDumpSa|
  001c4	00000000	 DCD         |SavedDeviceIClkRefCount|
  001c8		 |$LN56@PrcmDumpSa|
  001c8	00000000	 DCD         |??_C@_1EE@IMLOEHKF@?$AA?$AN?$AA?6?$AAS?$AAa?$AAv?$AAe?$AAd?$AA?5?$AAd?$AAe?$AAv?$AAi?$AAc?$AAe?$AA?5?$AAI?$AAC?$AAL?$AAK?$AA?5?$AAr?$AAe?$AAf?$AA?5?$AAc?$AAo?$AAu?$AAn?$AAt?$AAs?$AA?3?$AA?$AN@|
  001cc		 |$LN57@PrcmDumpSa|
  001cc	00000000	 DCD         |??_C@_1BA@NOOLMKMI@?$AA?$CF?$AAs?$AA?5?$AA?$CF?$AAd?$AA?$AN?$AA?6?$AA?$AA@|
  001d0		 |$LN58@PrcmDumpSa|
  001d0	00000000	 DCD         |??_C@_1EA@FOBOPLCJ@?$AA?$AN?$AA?6?$AAS?$AAa?$AAv?$AAe?$AAd?$AA?5?$AAS?$AAR?$AAC?$AA?5?$AAC?$AAL?$AAO?$AAC?$AAK?$AA?5?$AAr?$AAe?$AAf?$AA?5?$AAc?$AAo?$AAu?$AAn?$AAt?$AAs?$AA?3?$AA?$AN?$AA?6?$AA?$AA@|
  001d4		 |$LN59@PrcmDumpSa|
  001d4	00000000	 DCD         |??_C@_1EE@GFHLPNPD@?$AA?$AN?$AA?6?$AAS?$AAa?$AAv?$AAe?$AAd?$AA?5?$AAD?$AAP?$AAL?$AAL?$AA?5?$AAC?$AAL?$AAK?$AAO?$AAU?$AAT?$AA?5?$AAr?$AAe?$AAf?$AA?5?$AAc?$AAo?$AAu?$AAn?$AAt?$AAs?$AA?3?$AA?$AN@|
  001d8		 |$LN60@PrcmDumpSa|
  001d8	00000000	 DCD         |s_SavedDpllClkOutTable|
  001dc		 |$LN61@PrcmDumpSa|
  001dc	00000000	 DCD         |??_C@_1DG@KDOAHHJA@?$AA?$AN?$AA?6?$AAS?$AAa?$AAv?$AAe?$AAd?$AA?5?$AAD?$AAP?$AAL?$AAL?$AA?5?$AAr?$AAe?$AAf?$AA?5?$AAc?$AAo?$AAu?$AAn?$AAt?$AAs?$AA?3?$AA?$AN?$AA?6?$AA?$AA@|
  001e0		 |$LN62@PrcmDumpSa|
  001e0	00000000	 DCD         |s_SavedVddTable|
  001e4		 |$LN63@PrcmDumpSa|
  001e4	00000000	 DCD         |s_VddNameTable|
  001e8		 |$LN64@PrcmDumpSa|
  001e8	00000000	 DCD         |??_C@_1DE@KGLDHFLF@?$AA?$AN?$AA?6?$AAS?$AAa?$AAv?$AAe?$AAd?$AA?5?$AAV?$AAD?$AAD?$AA?5?$AAr?$AAe?$AAf?$AA?5?$AAc?$AAo?$AAu?$AAn?$AAt?$AAs?$AA?3?$AA?$AN?$AA?6?$AA?$AA@|
  001ec		 |$LN65@PrcmDumpSa|
  001ec	00000000	 DCD         |??_C@_1FC@DMOHKJJI@?$AA?$AN?$AA?6?$AAS?$AAa?$AAv?$AAe?$AAd?$AA?5?$AAI?$AAn?$AAf?$AAo?$AAr?$AAm?$AAa?$AAt?$AAi?$AAo?$AAn?$AA?5?$AAP?$AAr?$AAi?$AAo?$AAr?$AA?5?$AAt?$AAo?$AA?5?$AAS?$AAu?$AAs@|
  001f0		 |$M49961|

			 ENDP  ; |PrcmDumpSavedRefCounts|

	EXPORT	|PrcmRegsSnapshot|
	IMPORT	|OALPAtoVA|

  00000			 AREA	 |.pdata|, PDATA
|$T49992| DCD	|$LN16@PrcmRegsSn|
	DCD	0x40002601
; Function compile flags: /Ogspy

  00000			 AREA	 |.text|, CODE, ARM

  00000		 |PrcmRegsSnapshot| PROC

; 2941 : {

  00000		 |$LN16@PrcmRegsSn|
  00000	e92d4070	 stmdb       sp!, {r4 - r6, lr}
  00004		 |$M49989|

; 2942 :     int i = 0;
; 2943 : 	
; 2944 : 	while (DumpRegArray[i].RegName != NULL)

  00004	e59f5088	 ldr         r5, [pc, #0x88]
  00008	e3a04000	 mov         r4, #0
  0000c	e5953000	 ldr         r3, [r5]
  00010	e3530000	 cmp         r3, #0
  00014	0a00001c	 beq         |$LN7@PrcmRegsSn|
  00018	e3a02000	 mov         r2, #0
  0001c		 |$LL8@PrcmRegsSn|

; 2945 : 	{
; 2946 :         if (DumpRegArray[i].RegPA != 0)

  0001c	e0826005	 add         r6, r2, r5
  00020	e5963008	 ldr         r3, [r6, #8]
  00024	e1b00003	 movs        r0, r3
  00028	0a000012	 beq         |$LN1@PrcmRegsSn|

; 2947 : 		{
; 2948 :             if (DumpRegArray[i].RegWidth == 32)

  0002c	e5963004	 ldr         r3, [r6, #4]
  00030	e3530020	 cmp         r3, #0x20
  00034	1a000003	 bne         |$LN5@PrcmRegsSn|

; 2949 :                 DumpRegArray[i].RegVal = INREG32(OALPAtoUA(DumpRegArray[i].RegPA));

  00038	e3a01000	 mov         r1, #0
  0003c	eb000000	 bl          OALPAtoVA
  00040	e5903000	 ldr         r3, [r0]
  00044	ea00000a	 b           |$LN13@PrcmRegsSn|
  00048		 |$LN5@PrcmRegsSn|

; 2950 :             else if (DumpRegArray[i].RegWidth == 16)

  00048	e3530010	 cmp         r3, #0x10
  0004c	1a000003	 bne         |$LN3@PrcmRegsSn|

; 2951 :                 DumpRegArray[i].RegVal = INREG16(OALPAtoUA(DumpRegArray[i].RegPA));

  00050	e3a01000	 mov         r1, #0
  00054	eb000000	 bl          OALPAtoVA
  00058	e1d030b0	 ldrh        r3, [r0]
  0005c	ea000004	 b           |$LN13@PrcmRegsSn|
  00060		 |$LN3@PrcmRegsSn|

; 2952 :             else if (DumpRegArray[i].RegWidth == 8)

  00060	e3530008	 cmp         r3, #8
  00064	1a000003	 bne         |$LN1@PrcmRegsSn|

; 2953 :                 DumpRegArray[i].RegVal = INREG8(OALPAtoUA(DumpRegArray[i].RegPA));

  00068	e3a01000	 mov         r1, #0
  0006c	eb000000	 bl          OALPAtoVA
  00070	e5d03000	 ldrb        r3, [r0]
  00074		 |$LN13@PrcmRegsSn|
  00074	e586300c	 str         r3, [r6, #0xC]
  00078		 |$LN1@PrcmRegsSn|

; 2954 : 		}
; 2955 :         i++;

  00078	e2844001	 add         r4, r4, #1
  0007c	e1a02204	 mov         r2, r4, lsl #4
  00080	e7923005	 ldr         r3, [r2, +r5]
  00084	e3530000	 cmp         r3, #0
  00088	1affffe3	 bne         |$LL8@PrcmRegsSn|
  0008c		 |$LN7@PrcmRegsSn|

; 2956 : 	}
; 2957 : }

  0008c	e8bd4070	 ldmia       sp!, {r4 - r6, lr}
  00090	e12fff1e	 bx          lr
  00094		 |$LN17@PrcmRegsSn|
  00094		 |$LN18@PrcmRegsSn|
  00094	00000000	 DCD         |DumpRegArray|
  00098		 |$M49990|

			 ENDP  ; |PrcmRegsSnapshot|

	EXPORT	|DumpPrcmRegsSnapshot|
	EXPORT	|??_C@_1DC@FONOMHHH@?$AA?5?$AA?5?$AA?$CF?$AA?9?$AA2?$AA4?$AAs?$AA?5?$AA?$DM?$AAb?$AAa?$AAd?$AA?5?$AAR?$AAe?$AAg?$AAW?$AAi?$AAd?$AAt?$AAh?$AA?$DO?$AA?$AN?$AA?6?$AA?$AA@| [ DATA ] ; `string'
	EXPORT	|??_C@_1CO@MFMIFAHL@?$AA?5?$AA?5?$AA?$CF?$AA?9?$AA2?$AA4?$AAs?$AA?5?$AA?5?$AA?5?$AA?5?$AA?5?$AA?5?$AA?5?$AA0?$AAx?$AA?$CF?$AA0?$AA2?$AAx?$AA?$AN?$AA?6?$AA?$AA@| [ DATA ] ; `string'
	EXPORT	|??_C@_1CK@ILNIDBPM@?$AA?5?$AA?5?$AA?$CF?$AA?9?$AA2?$AA4?$AAs?$AA?5?$AA?5?$AA?5?$AA?5?$AA?5?$AA0?$AAx?$AA?$CF?$AA0?$AA4?$AAx?$AA?$AN?$AA?6?$AA?$AA@| [ DATA ] ; `string'
	EXPORT	|??_C@_1CC@JKABMCGA@?$AA?5?$AA?5?$AA?$CF?$AA?9?$AA2?$AA4?$AAs?$AA?5?$AA0?$AAx?$AA?$CF?$AA0?$AA8?$AAx?$AA?$AN?$AA?6?$AA?$AA@| [ DATA ] ; `string'
	EXPORT	|??_C@_1BA@JCPLACBE@?$AA?$AN?$AA?6?$AA?$CF?$AAs?$AA?3?$AA?$AN?$AA?6?$AA?$AA@| [ DATA ] ; `string'

  00000			 AREA	 |.pdata|, PDATA
|$T50006| DCD	|$LN19@DumpPrcmRe|
	DCD	0x40002e01

  00000			 AREA	 |.rdata|, DATA, READONLY
|??_C@_1DC@FONOMHHH@?$AA?5?$AA?5?$AA?$CF?$AA?9?$AA2?$AA4?$AAs?$AA?5?$AA?$DM?$AAb?$AAa?$AAd?$AA?5?$AAR?$AAe?$AAg?$AAW?$AAi?$AAd?$AAt?$AAh?$AA?$DO?$AA?$AN?$AA?6?$AA?$AA@| DCB " "
	DCB	0x0, " ", 0x0, "%", 0x0, "-", 0x0, "2", 0x0, "4", 0x0, "s"
	DCB	0x0, " ", 0x0, "<", 0x0, "b", 0x0, "a", 0x0, "d", 0x0, " "
	DCB	0x0, "R", 0x0, "e", 0x0, "g", 0x0, "W", 0x0, "i", 0x0, "d"
	DCB	0x0, "t", 0x0, "h", 0x0, ">", 0x0, 0xd, 0x0, 0xa, 0x0, 0x0
	DCB	0x0					; `string'

  00000			 AREA	 |.rdata|, DATA, READONLY
|??_C@_1CO@MFMIFAHL@?$AA?5?$AA?5?$AA?$CF?$AA?9?$AA2?$AA4?$AAs?$AA?5?$AA?5?$AA?5?$AA?5?$AA?5?$AA?5?$AA?5?$AA0?$AAx?$AA?$CF?$AA0?$AA2?$AAx?$AA?$AN?$AA?6?$AA?$AA@| DCB " "
	DCB	0x0, " ", 0x0, "%", 0x0, "-", 0x0, "2", 0x0, "4", 0x0, "s"
	DCB	0x0, " ", 0x0, " ", 0x0, " ", 0x0, " ", 0x0, " ", 0x0, " "
	DCB	0x0, " ", 0x0, "0", 0x0, "x", 0x0, "%", 0x0, "0", 0x0, "2"
	DCB	0x0, "x", 0x0, 0xd, 0x0, 0xa, 0x0, 0x0, 0x0 ; `string'

  00000			 AREA	 |.rdata|, DATA, READONLY
|??_C@_1CK@ILNIDBPM@?$AA?5?$AA?5?$AA?$CF?$AA?9?$AA2?$AA4?$AAs?$AA?5?$AA?5?$AA?5?$AA?5?$AA?5?$AA0?$AAx?$AA?$CF?$AA0?$AA4?$AAx?$AA?$AN?$AA?6?$AA?$AA@| DCB " "
	DCB	0x0, " ", 0x0, "%", 0x0, "-", 0x0, "2", 0x0, "4", 0x0, "s"
	DCB	0x0, " ", 0x0, " ", 0x0, " ", 0x0, " ", 0x0, " ", 0x0, "0"
	DCB	0x0, "x", 0x0, "%", 0x0, "0", 0x0, "4", 0x0, "x", 0x0, 0xd
	DCB	0x0, 0xa, 0x0, 0x0, 0x0			; `string'

  00000			 AREA	 |.rdata|, DATA, READONLY
|??_C@_1CC@JKABMCGA@?$AA?5?$AA?5?$AA?$CF?$AA?9?$AA2?$AA4?$AAs?$AA?5?$AA0?$AAx?$AA?$CF?$AA0?$AA8?$AAx?$AA?$AN?$AA?6?$AA?$AA@| DCB " "
	DCB	0x0, " ", 0x0, "%", 0x0, "-", 0x0, "2", 0x0, "4", 0x0, "s"
	DCB	0x0, " ", 0x0, "0", 0x0, "x", 0x0, "%", 0x0, "0", 0x0, "8"
	DCB	0x0, "x", 0x0, 0xd, 0x0, 0xa, 0x0, 0x0, 0x0 ; `string'

  00000			 AREA	 |.rdata|, DATA, READONLY
|??_C@_1BA@JCPLACBE@?$AA?$AN?$AA?6?$AA?$CF?$AAs?$AA?3?$AA?$AN?$AA?6?$AA?$AA@| DCB 0xd
	DCB	0x0, 0xa, 0x0, "%", 0x0, "s", 0x0, ":", 0x0, 0xd, 0x0, 0xa
	DCB	0x0, 0x0, 0x0				; `string'
; Function compile flags: /Ogspy

  00000			 AREA	 |.text|, CODE, ARM

  00000		 |DumpPrcmRegsSnapshot| PROC

; 2961 : {

  00000		 |$LN19@DumpPrcmRe|
  00000	e92d4030	 stmdb       sp!, {r4, r5, lr}
  00004		 |$M50003|

; 2962 :     int i = 0;
; 2963 : 	
; 2964 : 	while (DumpRegArray[i].RegName != NULL)

  00004	e59f40a8	 ldr         r4, [pc, #0xA8]
  00008	e3a05000	 mov         r5, #0
  0000c	e5943000	 ldr         r3, [r4]
  00010	e3530000	 cmp         r3, #0
  00014	0a00001f	 beq         |$LN9@DumpPrcmRe|
  00018	e3a02000	 mov         r2, #0
  0001c	e1a01004	 mov         r1, r4
  00020		 |$LL10@DumpPrcmRe|

; 2965 : 	{
; 2966 :         if (DumpRegArray[i].RegPA == 0)

  00020	e0822004	 add         r2, r2, r4
  00024	e5923008	 ldr         r3, [r2, #8]
  00028	e3530000	 cmp         r3, #0
  0002c	1a000003	 bne         |$LN8@DumpPrcmRe|

; 2967 : 		{
; 2968 : 		    OALMSG(1, (L"\r\n%s:\r\n", DumpRegArray[i].RegName));

  00030	e5911000	 ldr         r1, [r1]
  00034	e59f0074	 ldr         r0, [pc, #0x74]
  00038	eb000000	 bl          NKDbgPrintfW

; 2969 : 		}
; 2970 :         else

  0003c	ea00000f	 b           |$LN1@DumpPrcmRe|
  00040		 |$LN8@DumpPrcmRe|

; 2971 : 		{
; 2972 :             if (DumpRegArray[i].RegWidth == 32)

  00040	e5923004	 ldr         r3, [r2, #4]
  00044	e3530020	 cmp         r3, #0x20

; 2973 :     		    OALMSG(1, (L"  %-24s 0x%08x\r\n", DumpRegArray[i].RegName, DumpRegArray[i].RegVal));

  00048	059f005c	 ldreq       r0, [pc, #0x5C]
  0004c	0a000005	 beq         |$LN16@DumpPrcmRe|

; 2974 :             else if (DumpRegArray[i].RegWidth == 16)

  00050	e3530010	 cmp         r3, #0x10

; 2975 :     		    OALMSG(1, (L"  %-24s     0x%04x\r\n", DumpRegArray[i].RegName, DumpRegArray[i].RegVal));

  00054	059f004c	 ldreq       r0, [pc, #0x4C]
  00058	0a000002	 beq         |$LN16@DumpPrcmRe|

; 2976 :             else if (DumpRegArray[i].RegWidth == 8)

  0005c	e3530008	 cmp         r3, #8
  00060	1a000004	 bne         |$LN2@DumpPrcmRe|

; 2977 :     		    OALMSG(1, (L"  %-24s       0x%02x\r\n", DumpRegArray[i].RegName, DumpRegArray[i].RegVal));

  00064	e59f0038	 ldr         r0, [pc, #0x38]
  00068		 |$LN16@DumpPrcmRe|
  00068	e592200c	 ldr         r2, [r2, #0xC]
  0006c	e5911000	 ldr         r1, [r1]
  00070	eb000000	 bl          NKDbgPrintfW

; 2978 :             else

  00074	ea000001	 b           |$LN1@DumpPrcmRe|
  00078		 |$LN2@DumpPrcmRe|

; 2979 :     		    OALMSG(1, (L"  %-24s <bad RegWidth>\r\n"));

  00078	e59f0020	 ldr         r0, [pc, #0x20]
  0007c	eb000000	 bl          NKDbgPrintfW
  00080		 |$LN1@DumpPrcmRe|

; 2980 : 		}
; 2981 :         i++;

  00080	e2855001	 add         r5, r5, #1
  00084	e1a02205	 mov         r2, r5, lsl #4
  00088	e1a01002	 mov         r1, r2
  0008c	e7b13004	 ldr         r3, [r1, +r4]!
  00090	e3530000	 cmp         r3, #0
  00094	1affffe1	 bne         |$LL10@DumpPrcmRe|
  00098		 |$LN9@DumpPrcmRe|

; 2982 : 	}
; 2983 : }

  00098	e8bd4030	 ldmia       sp!, {r4, r5, lr}
  0009c	e12fff1e	 bx          lr
  000a0		 |$LN20@DumpPrcmRe|
  000a0		 |$LN21@DumpPrcmRe|
  000a0	00000000	 DCD         |??_C@_1DC@FONOMHHH@?$AA?5?$AA?5?$AA?$CF?$AA?9?$AA2?$AA4?$AAs?$AA?5?$AA?$DM?$AAb?$AAa?$AAd?$AA?5?$AAR?$AAe?$AAg?$AAW?$AAi?$AAd?$AAt?$AAh?$AA?$DO?$AA?$AN?$AA?6?$AA?$AA@|
  000a4		 |$LN22@DumpPrcmRe|
  000a4	00000000	 DCD         |??_C@_1CO@MFMIFAHL@?$AA?5?$AA?5?$AA?$CF?$AA?9?$AA2?$AA4?$AAs?$AA?5?$AA?5?$AA?5?$AA?5?$AA?5?$AA?5?$AA?5?$AA0?$AAx?$AA?$CF?$AA0?$AA2?$AAx?$AA?$AN?$AA?6?$AA?$AA@|
  000a8		 |$LN23@DumpPrcmRe|
  000a8	00000000	 DCD         |??_C@_1CK@ILNIDBPM@?$AA?5?$AA?5?$AA?$CF?$AA?9?$AA2?$AA4?$AAs?$AA?5?$AA?5?$AA?5?$AA?5?$AA?5?$AA0?$AAx?$AA?$CF?$AA0?$AA4?$AAx?$AA?$AN?$AA?6?$AA?$AA@|
  000ac		 |$LN24@DumpPrcmRe|
  000ac	00000000	 DCD         |??_C@_1CC@JKABMCGA@?$AA?5?$AA?5?$AA?$CF?$AA?9?$AA2?$AA4?$AAs?$AA?5?$AA0?$AAx?$AA?$CF?$AA0?$AA8?$AAx?$AA?$AN?$AA?6?$AA?$AA@|
  000b0		 |$LN25@DumpPrcmRe|
  000b0	00000000	 DCD         |??_C@_1BA@JCPLACBE@?$AA?$AN?$AA?6?$AA?$CF?$AAs?$AA?3?$AA?$AN?$AA?6?$AA?$AA@|
  000b4		 |$LN26@DumpPrcmRe|
  000b4	00000000	 DCD         |DumpRegArray|
  000b8		 |$M50004|

			 ENDP  ; |DumpPrcmRegsSnapshot|

	EXPORT	|DumpPrcmRegs|

  00000			 AREA	 |.pdata|, PDATA
|$T50025| DCD	|$LN19@DumpPrcmRe@2|
	DCD	0x40003801
; Function compile flags: /Ogspy

  00000			 AREA	 |.text|, CODE, ARM

  00000		 |DumpPrcmRegs| PROC

; 2987 : {

  00000		 |$LN19@DumpPrcmRe@2|
  00000	e92d4070	 stmdb       sp!, {r4 - r6, lr}
  00004		 |$M50022|

; 2988 :     int i = 0;
; 2989 : 	
; 2990 : 	while (DumpRegArray[i].RegName != NULL)

  00004	e59f50d0	 ldr         r5, [pc, #0xD0]
  00008	e3a06000	 mov         r6, #0
  0000c	e5953000	 ldr         r3, [r5]
  00010	e3530000	 cmp         r3, #0
  00014	0a000029	 beq         |$LN9@DumpPrcmRe@2|
  00018	e3a02000	 mov         r2, #0
  0001c	e1a04005	 mov         r4, r5
  00020		 |$LL10@DumpPrcmRe@2|

; 2991 : 	{
; 2992 :         if (DumpRegArray[i].RegPA == 0)

  00020	e0822005	 add         r2, r2, r5
  00024	e5923008	 ldr         r3, [r2, #8]
  00028	e1b00003	 movs        r0, r3
  0002c	1a000003	 bne         |$LN8@DumpPrcmRe@2|

; 2993 : 		{
; 2994 : 		    OALMSG(1, (L"\r\n%s:\r\n", DumpRegArray[i].RegName));

  00030	e5941000	 ldr         r1, [r4]
  00034	e59f009c	 ldr         r0, [pc, #0x9C]
  00038	eb000000	 bl          NKDbgPrintfW

; 2995 : 		}
; 2996 :         else

  0003c	ea000019	 b           |$LN1@DumpPrcmRe@2|
  00040		 |$LN8@DumpPrcmRe@2|

; 2997 :         {
; 2998 :             if (DumpRegArray[i].RegWidth == 32)

  00040	e5923004	 ldr         r3, [r2, #4]
  00044	e3530020	 cmp         r3, #0x20
  00048	1a000004	 bne         |$LN6@DumpPrcmRe@2|

; 2999 :     		    OALMSG(1, (L"  %-24s 0x%08x\r\n", DumpRegArray[i].RegName, INREG32(OALPAtoUA(DumpRegArray[i].RegPA))));

  0004c	e3a01000	 mov         r1, #0
  00050	eb000000	 bl          OALPAtoVA
  00054	e5902000	 ldr         r2, [r0]
  00058	e59f0074	 ldr         r0, [pc, #0x74]
  0005c	ea00000c	 b           |$LN16@DumpPrcmRe@2|
  00060		 |$LN6@DumpPrcmRe@2|

; 3000 :             else if (DumpRegArray[i].RegWidth == 16)

  00060	e3530010	 cmp         r3, #0x10
  00064	1a000004	 bne         |$LN4@DumpPrcmRe@2|

; 3001 :     		    OALMSG(1, (L"  %-24s     0x%04x\r\n", DumpRegArray[i].RegName, INREG16(OALPAtoUA(DumpRegArray[i].RegPA))));

  00068	e3a01000	 mov         r1, #0
  0006c	eb000000	 bl          OALPAtoVA
  00070	e1d020b0	 ldrh        r2, [r0]
  00074	e59f0054	 ldr         r0, [pc, #0x54]
  00078	ea000005	 b           |$LN16@DumpPrcmRe@2|
  0007c		 |$LN4@DumpPrcmRe@2|

; 3002 :             else if (DumpRegArray[i].RegWidth == 8)

  0007c	e3530008	 cmp         r3, #8
  00080	1a000006	 bne         |$LN2@DumpPrcmRe@2|

; 3003 :     		    OALMSG(1, (L"  %-24s       0x%02x\r\n", DumpRegArray[i].RegName, INREG8(OALPAtoUA(DumpRegArray[i].RegPA))));

  00084	e3a01000	 mov         r1, #0
  00088	eb000000	 bl          OALPAtoVA
  0008c	e5d02000	 ldrb        r2, [r0]
  00090	e59f0034	 ldr         r0, [pc, #0x34]
  00094		 |$LN16@DumpPrcmRe@2|
  00094	e5941000	 ldr         r1, [r4]
  00098	eb000000	 bl          NKDbgPrintfW

; 3004 :             else

  0009c	ea000001	 b           |$LN1@DumpPrcmRe@2|
  000a0		 |$LN2@DumpPrcmRe@2|

; 3005 :     		    OALMSG(1, (L"  %-24s <bad RegWidth>\r\n"));

  000a0	e59f0020	 ldr         r0, [pc, #0x20]
  000a4	eb000000	 bl          NKDbgPrintfW
  000a8		 |$LN1@DumpPrcmRe@2|

; 3006 :         }
; 3007 :         i++;

  000a8	e2866001	 add         r6, r6, #1
  000ac	e1a02206	 mov         r2, r6, lsl #4
  000b0	e1a04002	 mov         r4, r2
  000b4	e7b43005	 ldr         r3, [r4, +r5]!
  000b8	e3530000	 cmp         r3, #0
  000bc	1affffd7	 bne         |$LL10@DumpPrcmRe@2|
  000c0		 |$LN9@DumpPrcmRe@2|

; 3008 : 	}
; 3009 : }

  000c0	e8bd4070	 ldmia       sp!, {r4 - r6, lr}
  000c4	e12fff1e	 bx          lr
  000c8		 |$LN20@DumpPrcmRe@2|
  000c8		 |$LN21@DumpPrcmRe@2|
  000c8	00000000	 DCD         |??_C@_1DC@FONOMHHH@?$AA?5?$AA?5?$AA?$CF?$AA?9?$AA2?$AA4?$AAs?$AA?5?$AA?$DM?$AAb?$AAa?$AAd?$AA?5?$AAR?$AAe?$AAg?$AAW?$AAi?$AAd?$AAt?$AAh?$AA?$DO?$AA?$AN?$AA?6?$AA?$AA@|
  000cc		 |$LN22@DumpPrcmRe@2|
  000cc	00000000	 DCD         |??_C@_1CO@MFMIFAHL@?$AA?5?$AA?5?$AA?$CF?$AA?9?$AA2?$AA4?$AAs?$AA?5?$AA?5?$AA?5?$AA?5?$AA?5?$AA?5?$AA?5?$AA0?$AAx?$AA?$CF?$AA0?$AA2?$AAx?$AA?$AN?$AA?6?$AA?$AA@|
  000d0		 |$LN23@DumpPrcmRe@2|
  000d0	00000000	 DCD         |??_C@_1CK@ILNIDBPM@?$AA?5?$AA?5?$AA?$CF?$AA?9?$AA2?$AA4?$AAs?$AA?5?$AA?5?$AA?5?$AA?5?$AA?5?$AA0?$AAx?$AA?$CF?$AA0?$AA4?$AAx?$AA?$AN?$AA?6?$AA?$AA@|
  000d4		 |$LN24@DumpPrcmRe@2|
  000d4	00000000	 DCD         |??_C@_1CC@JKABMCGA@?$AA?5?$AA?5?$AA?$CF?$AA?9?$AA2?$AA4?$AAs?$AA?5?$AA0?$AAx?$AA?$CF?$AA0?$AA8?$AAx?$AA?$AN?$AA?6?$AA?$AA@|
  000d8		 |$LN25@DumpPrcmRe@2|
  000d8	00000000	 DCD         |??_C@_1BA@JCPLACBE@?$AA?$AN?$AA?6?$AA?$CF?$AAs?$AA?3?$AA?$AN?$AA?6?$AA?$AA@|
  000dc		 |$LN26@DumpPrcmRe@2|
  000dc	00000000	 DCD         |DumpRegArray|
  000e0		 |$M50023|

			 ENDP  ; |DumpPrcmRegs|

	END
