; Listing generated by Microsoft (R) Optimizing Compiler Version 14.01.60511.01 

	TTL	C:\WINCE600\PLATFORM\COMMON\SRC\COMMON\IO\power.c
	CODE32

  00000			 AREA	 |.drectve|, DRECTVE
	DCB	"-defaultlib:LIBCMT "
	DCB	"-defaultlib:OLDNAMES "


  00000			 AREA	 |.rdata|, DATA, READONLY
|EdbgVendorIds| DCW 0x0
	DCW	0x0
	DCD	0x4033
	DCB	0x1
	DCB	"AD", 0x0
	DCW	0x1050
	DCW	0x940
	DCD	0x4005
	DCB	0x1
	DCB	"LS", 0x0
	DCW	0x1050
	DCW	0x940
	DCD	0x2078
	DCB	0x1
	DCB	"LS", 0x0
	DCW	0x10ec
	DCW	0x8029
	DCD	0xc0f0
	DCB	0x1
	DCB	"KS", 0x0
	DCW	0x10ec
	DCW	0x8129
	DCD	0x0
	DCB	0x4
	DCB	"RT", 0x0
	DCW	0x10ec
	DCW	0x8139
	DCD	0x900b
	DCB	0x4
	DCB	"RT", 0x0
	DCW	0x10ec
	DCW	0x8139
	DCD	0xd0c9
	DCB	0x4
	DCB	"RT", 0x0
	DCW	0x10ec
	DCW	0x8139
	DCD	0xe04c
	DCB	0x4
	DCB	"RT", 0x0
	DCW	0x1186
	DCW	0x1300
	DCD	0x50ba
	DCB	0x4
	DCB	"DL", 0x0
	DCW	0x100b
	DCW	0x20
	DCD	0xa0cc
	DCB	0x5
	DCB	"NG", 0x0
	DCW	0x10b7
	DCW	0x9050
	DCD	0x6008
	DCB	0x6
	DCB	"3C", 0x0
	DCW	0x10b7
	DCW	0x9200
	DCD	0x476
	DCB	0x6
	DCB	"3C", 0x0
	EXPORT	|OALIoBusPowerOff|
	EXPORT	|??_C@_1DK@DKAHFGMP@?$AA?9?$AAO?$AAA?$AAL?$AAI?$AAo?$AAB?$AAu?$AAs?$AAP?$AAo?$AAw?$AAe?$AAr?$AAO?$AAf?$AAf?$AA?$CI?$AAr?$AAc?$AA?5?$AA?$DN?$AA?5?$AA?$CF?$AAd?$AA?$CJ?$AA?$AN?$AA?6?$AA?$AA@| [ DATA ] ; `string'
	EXPORT	|??_C@_1DI@PEAMECNB@?$AA?$CL?$AAO?$AAA?$AAL?$AAI?$AAo?$AAB?$AAu?$AAs?$AAP?$AAo?$AAw?$AAe?$AAr?$AAO?$AAf?$AAf?$AA?$CI?$AA?$CF?$AAd?$AA?0?$AA?5?$AA?$CF?$AAd?$AA?$CJ?$AA?$AN?$AA?6?$AA?$AA@| [ DATA ] ; `string'
	IMPORT	|NKDbgPrintfW|
	IMPORT	|dpCurSettings|
; File c:\wince600\platform\common\src\common\io\power.c

  00000			 AREA	 |.pdata|, PDATA
|$T43068| DCD	|$LN11@OALIoBusPo|
	DCD	0x40001801

  00000			 AREA	 |.rdata|, DATA, READONLY
|??_C@_1DK@DKAHFGMP@?$AA?9?$AAO?$AAA?$AAL?$AAI?$AAo?$AAB?$AAu?$AAs?$AAP?$AAo?$AAw?$AAe?$AAr?$AAO?$AAf?$AAf?$AA?$CI?$AAr?$AAc?$AA?5?$AA?$DN?$AA?5?$AA?$CF?$AAd?$AA?$CJ?$AA?$AN?$AA?6?$AA?$AA@| DCB "-"
	DCB	0x0, "O", 0x0, "A", 0x0, "L", 0x0, "I", 0x0, "o", 0x0, "B"
	DCB	0x0, "u", 0x0, "s", 0x0, "P", 0x0, "o", 0x0, "w", 0x0, "e"
	DCB	0x0, "r", 0x0, "O", 0x0, "f", 0x0, "f", 0x0, "(", 0x0, "r"
	DCB	0x0, "c", 0x0, " ", 0x0, "=", 0x0, " ", 0x0, "%", 0x0, "d"
	DCB	0x0, ")", 0x0, 0xd, 0x0, 0xa, 0x0, 0x0, 0x0 ; `string'

  00000			 AREA	 |.rdata|, DATA, READONLY
|??_C@_1DI@PEAMECNB@?$AA?$CL?$AAO?$AAA?$AAL?$AAI?$AAo?$AAB?$AAu?$AAs?$AAP?$AAo?$AAw?$AAe?$AAr?$AAO?$AAf?$AAf?$AA?$CI?$AA?$CF?$AAd?$AA?0?$AA?5?$AA?$CF?$AAd?$AA?$CJ?$AA?$AN?$AA?6?$AA?$AA@| DCB "+"
	DCB	0x0, "O", 0x0, "A", 0x0, "L", 0x0, "I", 0x0, "o", 0x0, "B"
	DCB	0x0, "u", 0x0, "s", 0x0, "P", 0x0, "o", 0x0, "w", 0x0, "e"
	DCB	0x0, "r", 0x0, "O", 0x0, "f", 0x0, "f", 0x0, "(", 0x0, "%"
	DCB	0x0, "d", 0x0, ",", 0x0, " ", 0x0, "%", 0x0, "d", 0x0, ")"
	DCB	0x0, 0xd, 0x0, 0xa, 0x0, 0x0, 0x0	; `string'
; Function compile flags: /Ogspy

  00000			 AREA	 |.text|, CODE, ARM

  00000		 |OALIoBusPowerOff| PROC

; 24   : {

  00000		 |$LN11@OALIoBusPo|
  00000	e92d4010	 stmdb       sp!, {r4, lr}
  00004		 |$M43065|
  00004	e1a0e000	 mov         lr, r0

; 25   :     BOOL rc = FALSE;
; 26   : 
; 27   :     OALMSG(OAL_IO&&OAL_FUNC, (
; 28   :         L"+OALIoBusPowerOff(%d, %d)\r\n", ifcType, busNumber
; 29   :     ));

  00008	e59f404c	 ldr         r4, [pc, #0x4C]
  0000c	e5943440	 ldr         r3, [r4, #0x440]
  00010	e3130b01	 tst         r3, #1, 22
  00014	0a000006	 beq         |$LN5@OALIoBusPo|
  00018	e3130004	 tst         r3, #4
  0001c	0a000004	 beq         |$LN5@OALIoBusPo|
  00020	e59f0030	 ldr         r0, [pc, #0x30]
  00024	e1a02001	 mov         r2, r1
  00028	e1a0100e	 mov         r1, lr
  0002c	eb000000	 bl          NKDbgPrintfW
  00030	e5943440	 ldr         r3, [r4, #0x440]
  00034		 |$LN5@OALIoBusPo|

; 30   :     
; 31   :     switch (ifcType) {
; 32   : #ifdef OAL_IO_PCI
; 33   :     case PCIBus:
; 34   :         OALPCIPowerOff(busNumber);
; 35   :         rc = TRUE;
; 36   :         break;
; 37   : #endif
; 38   : #ifdef OAL_IO_PCMCIA
; 39   :     case PCMCIABus:
; 40   :         OALPCMCIAPowerOff(busNumber);
; 41   :         rc = TRUE;
; 42   :         break;
; 43   : #endif
; 44   :     }
; 45   : 
; 46   :     OALMSG(OAL_IO&&OAL_FUNC, (L"-OALIoBusPowerOff(rc = %d)\r\n", rc));

  00034	e3130b01	 tst         r3, #1, 22
  00038	13130004	 tstne       r3, #4
  0003c	159f0010	 ldrne       r0, [pc, #0x10]
  00040	13a01000	 movne       r1, #0
  00044	1b000000	 blne        NKDbgPrintfW

; 47   :     return rc;

  00048	e3a00000	 mov         r0, #0

; 48   : }

  0004c	e8bd4010	 ldmia       sp!, {r4, lr}
  00050	e12fff1e	 bx          lr
  00054		 |$LN12@OALIoBusPo|
  00054		 |$LN13@OALIoBusPo|
  00054	00000000	 DCD         |??_C@_1DK@DKAHFGMP@?$AA?9?$AAO?$AAA?$AAL?$AAI?$AAo?$AAB?$AAu?$AAs?$AAP?$AAo?$AAw?$AAe?$AAr?$AAO?$AAf?$AAf?$AA?$CI?$AAr?$AAc?$AA?5?$AA?$DN?$AA?5?$AA?$CF?$AAd?$AA?$CJ?$AA?$AN?$AA?6?$AA?$AA@|
  00058		 |$LN14@OALIoBusPo|
  00058	00000000	 DCD         |??_C@_1DI@PEAMECNB@?$AA?$CL?$AAO?$AAA?$AAL?$AAI?$AAo?$AAB?$AAu?$AAs?$AAP?$AAo?$AAw?$AAe?$AAr?$AAO?$AAf?$AAf?$AA?$CI?$AA?$CF?$AAd?$AA?0?$AA?5?$AA?$CF?$AAd?$AA?$CJ?$AA?$AN?$AA?6?$AA?$AA@|
  0005c		 |$LN15@OALIoBusPo|
  0005c	00000000	 DCD         |dpCurSettings|
  00060		 |$M43066|

			 ENDP  ; |OALIoBusPowerOff|

	EXPORT	|OALIoBusPowerOn|
	EXPORT	|??_C@_1DI@BEKMCAGI@?$AA?9?$AAO?$AAA?$AAL?$AAI?$AAo?$AAB?$AAu?$AAs?$AAP?$AAo?$AAw?$AAe?$AAr?$AAO?$AAn?$AA?$CI?$AAr?$AAc?$AA?5?$AA?$DN?$AA?5?$AA?$CF?$AAd?$AA?$CJ?$AA?$AN?$AA?6?$AA?$AA@| [ DATA ] ; `string'
	EXPORT	|??_C@_1DG@BNAKMMEE@?$AA?$CL?$AAO?$AAA?$AAL?$AAI?$AAo?$AAB?$AAu?$AAs?$AAP?$AAo?$AAw?$AAe?$AAr?$AAO?$AAn?$AA?$CI?$AA?$CF?$AAd?$AA?0?$AA?5?$AA?$CF?$AAd?$AA?$CJ?$AA?$AN?$AA?6?$AA?$AA@| [ DATA ] ; `string'

  00000			 AREA	 |.pdata|, PDATA
|$T43087| DCD	|$LN11@OALIoBusPo@2|
	DCD	0x40001801

  00000			 AREA	 |.rdata|, DATA, READONLY
|??_C@_1DI@BEKMCAGI@?$AA?9?$AAO?$AAA?$AAL?$AAI?$AAo?$AAB?$AAu?$AAs?$AAP?$AAo?$AAw?$AAe?$AAr?$AAO?$AAn?$AA?$CI?$AAr?$AAc?$AA?5?$AA?$DN?$AA?5?$AA?$CF?$AAd?$AA?$CJ?$AA?$AN?$AA?6?$AA?$AA@| DCB "-"
	DCB	0x0, "O", 0x0, "A", 0x0, "L", 0x0, "I", 0x0, "o", 0x0, "B"
	DCB	0x0, "u", 0x0, "s", 0x0, "P", 0x0, "o", 0x0, "w", 0x0, "e"
	DCB	0x0, "r", 0x0, "O", 0x0, "n", 0x0, "(", 0x0, "r", 0x0, "c"
	DCB	0x0, " ", 0x0, "=", 0x0, " ", 0x0, "%", 0x0, "d", 0x0, ")"
	DCB	0x0, 0xd, 0x0, 0xa, 0x0, 0x0, 0x0	; `string'

  00000			 AREA	 |.rdata|, DATA, READONLY
|??_C@_1DG@BNAKMMEE@?$AA?$CL?$AAO?$AAA?$AAL?$AAI?$AAo?$AAB?$AAu?$AAs?$AAP?$AAo?$AAw?$AAe?$AAr?$AAO?$AAn?$AA?$CI?$AA?$CF?$AAd?$AA?0?$AA?5?$AA?$CF?$AAd?$AA?$CJ?$AA?$AN?$AA?6?$AA?$AA@| DCB "+"
	DCB	0x0, "O", 0x0, "A", 0x0, "L", 0x0, "I", 0x0, "o", 0x0, "B"
	DCB	0x0, "u", 0x0, "s", 0x0, "P", 0x0, "o", 0x0, "w", 0x0, "e"
	DCB	0x0, "r", 0x0, "O", 0x0, "n", 0x0, "(", 0x0, "%", 0x0, "d"
	DCB	0x0, ",", 0x0, " ", 0x0, "%", 0x0, "d", 0x0, ")", 0x0, 0xd
	DCB	0x0, 0xa, 0x0, 0x0, 0x0			; `string'
; Function compile flags: /Ogspy

  00000			 AREA	 |.text|, CODE, ARM

  00000		 |OALIoBusPowerOn| PROC

; 56   : {

  00000		 |$LN11@OALIoBusPo@2|
  00000	e92d4010	 stmdb       sp!, {r4, lr}
  00004		 |$M43084|
  00004	e1a0e000	 mov         lr, r0

; 57   :     BOOL rc = FALSE;
; 58   : 
; 59   :     OALMSG(OAL_IO&&OAL_FUNC, (
; 60   :         L"+OALIoBusPowerOn(%d, %d)\r\n", ifcType, busNumber
; 61   :     ));

  00008	e59f404c	 ldr         r4, [pc, #0x4C]
  0000c	e5943440	 ldr         r3, [r4, #0x440]
  00010	e3130b01	 tst         r3, #1, 22
  00014	0a000006	 beq         |$LN5@OALIoBusPo@2|
  00018	e3130004	 tst         r3, #4
  0001c	0a000004	 beq         |$LN5@OALIoBusPo@2|
  00020	e59f0030	 ldr         r0, [pc, #0x30]
  00024	e1a02001	 mov         r2, r1
  00028	e1a0100e	 mov         r1, lr
  0002c	eb000000	 bl          NKDbgPrintfW
  00030	e5943440	 ldr         r3, [r4, #0x440]
  00034		 |$LN5@OALIoBusPo@2|

; 62   :     
; 63   :     switch (ifcType) {
; 64   : #ifdef OAL_IO_PCI
; 65   :     case PCIBus:
; 66   :         OALPCIPowerOn(busNumber);
; 67   :         rc = TRUE;
; 68   :         break;
; 69   : #endif
; 70   : #ifdef OAL_IO_PCMCIA
; 71   :     case PCMCIABus:
; 72   :         OALPCMCIAPowerOn(busNumber);
; 73   :         rc = TRUE;
; 74   :         break;
; 75   : #endif
; 76   :     }
; 77   : 
; 78   :     OALMSG(OAL_IO&&OAL_FUNC, (L"-OALIoBusPowerOn(rc = %d)\r\n", rc));

  00034	e3130b01	 tst         r3, #1, 22
  00038	13130004	 tstne       r3, #4
  0003c	159f0010	 ldrne       r0, [pc, #0x10]
  00040	13a01000	 movne       r1, #0
  00044	1b000000	 blne        NKDbgPrintfW

; 79   :     return rc;

  00048	e3a00000	 mov         r0, #0

; 80   : }

  0004c	e8bd4010	 ldmia       sp!, {r4, lr}
  00050	e12fff1e	 bx          lr
  00054		 |$LN12@OALIoBusPo@2|
  00054		 |$LN13@OALIoBusPo@2|
  00054	00000000	 DCD         |??_C@_1DI@BEKMCAGI@?$AA?9?$AAO?$AAA?$AAL?$AAI?$AAo?$AAB?$AAu?$AAs?$AAP?$AAo?$AAw?$AAe?$AAr?$AAO?$AAn?$AA?$CI?$AAr?$AAc?$AA?5?$AA?$DN?$AA?5?$AA?$CF?$AAd?$AA?$CJ?$AA?$AN?$AA?6?$AA?$AA@|
  00058		 |$LN14@OALIoBusPo@2|
  00058	00000000	 DCD         |??_C@_1DG@BNAKMMEE@?$AA?$CL?$AAO?$AAA?$AAL?$AAI?$AAo?$AAB?$AAu?$AAs?$AAP?$AAo?$AAw?$AAe?$AAr?$AAO?$AAn?$AA?$CI?$AA?$CF?$AAd?$AA?0?$AA?5?$AA?$CF?$AAd?$AA?$CJ?$AA?$AN?$AA?6?$AA?$AA@|
  0005c		 |$LN15@OALIoBusPo@2|
  0005c	00000000	 DCD         |dpCurSettings|
  00060		 |$M43085|

			 ENDP  ; |OALIoBusPowerOn|

	END
