; Listing generated by Microsoft (R) Optimizing Compiler Version 14.01.60511.01 

	TTL	C:\WINCE600\PLATFORM\Z2170P\SRC\BSP_COMMON\USBFN\trans.c
	CODE32

  00000			 AREA	 |.drectve|, DRECTVE
	DCB	"-defaultlib:LIBCMT "
	DCB	"-defaultlib:OLDNAMES "

	EXPORT	|KERNEL_DEVCLKMGMT_GUID| [ DATA ]
	EXPORT	|KERNEL_DEVAUTOIDLE_GUID| [ DATA ]
	EXPORT	|KERNEL_SYSPOWERUPDATE_GUID| [ DATA ]
	EXPORT	|KERNEL_OPMODE_GUID| [ DATA ]
	EXPORT	|KERNEL_DPLLMODE_GUID| [ DATA ]
	EXPORT	|KERNEL_CALIBRATEDLLTIMINGS_GUID| [ DATA ]
	EXPORT	|KERNEL_SYSTEMIDLEMODE_GUID| [ DATA ]
	EXPORT	|KERNEL_FREQUENCYMODE_GUID| [ DATA ]
	EXPORT	|KERNEL_DOMAINPOWERMODE_GUID| [ DATA ]
	EXPORT	|KERNEL_DOMAINIDLEMODE_GUID| [ DATA ]

  00000			 AREA	 |.rdata|, DATA, READONLY
|EdbgVendorIds| DCW 0x0
	DCW	0x0
	DCD	0x4033
	DCB	0x1
	DCB	"AD", 0x0
	DCW	0x1050
	DCW	0x940
	DCD	0x4005
	DCB	0x1
	DCB	"LS", 0x0
	DCW	0x1050
	DCW	0x940
	DCD	0x2078
	DCB	0x1
	DCB	"LS", 0x0
	DCW	0x10ec
	DCW	0x8029
	DCD	0xc0f0
	DCB	0x1
	DCB	"KS", 0x0
	DCW	0x10ec
	DCW	0x8129
	DCD	0x0
	DCB	0x4
	DCB	"RT", 0x0
	DCW	0x10ec
	DCW	0x8139
	DCD	0x900b
	DCB	0x4
	DCB	"RT", 0x0
	DCW	0x10ec
	DCW	0x8139
	DCD	0xd0c9
	DCB	0x4
	DCB	"RT", 0x0
	DCW	0x10ec
	DCW	0x8139
	DCD	0xe04c
	DCB	0x4
	DCB	"RT", 0x0
	DCW	0x1186
	DCW	0x1300
	DCD	0x50ba
	DCB	0x4
	DCB	"DL", 0x0
	DCW	0x100b
	DCW	0x20
	DCD	0xa0cc
	DCB	0x5
	DCB	"NG", 0x0
	DCW	0x10b7
	DCW	0x9050
	DCD	0x6008
	DCB	0x6
	DCB	"3C", 0x0
	DCW	0x10b7
	DCW	0x9200
	DCD	0x476
	DCB	0x6
	DCB	"3C", 0x0
|KERNEL_DEVCLKMGMT_GUID| DCD 0xecdf6dda
	DCW	0x4405
	DCW	0x4ebc
	DCB	0x87
	DCB	0x23
	DCB	0xf4
	DCB	0x48
	DCB	0x1a
	DCB	0x7
	DCB	0x2c
	DCB	0x4c
|KERNEL_DEVAUTOIDLE_GUID| DCD 0xecdf6ddb
	DCW	0x4405
	DCW	0x4ebc
	DCB	0x87
	DCB	0xab
	DCB	0xf4
	DCB	0x4f
	DCB	0x1a
	DCB	0x70
	DCB	0x2c
	DCB	0x5d
|KERNEL_SYSPOWERUPDATE_GUID| DCD 0xeaf14006
	DCW	0xa72c
	DCW	0x497d
	DCB	0xb4
	DCB	0x5c
	DCB	0x1
	DCB	0xf
	DCB	0x41
	DCB	0x6c
	DCB	0x3d
	DCB	0x99
|KERNEL_OPMODE_GUID| DCD 0x9f4650a
	DCW	0xb68a
	DCW	0x4412
	DCB	0x81
	DCB	0x55
	DCB	0x1d
	DCB	0x2d
	DCB	0x8a
	DCB	0x67
	DCB	0xe5
	DCB	0x86
|KERNEL_DPLLMODE_GUID| DCD 0xed56bf67
	DCW	0xafbe
	DCW	0x4d37
	DCB	0xa0
	DCB	0xed
	DCB	0x49
	DCB	0xf7
	DCB	0x25
	DCB	0x25
	DCB	0x4
	DCB	0xf5
|KERNEL_CALIBRATEDLLTIMINGS_GUID| DCD 0xf33f37e6
	DCW	0xb30b
	DCW	0x47e7
	DCB	0xae
	DCB	0x34
	DCB	0x70
	DCB	0xfb
	DCB	0xc9
	DCB	0x4b
	DCB	0x5c
	DCB	0x50
|KERNEL_SYSTEMIDLEMODE_GUID| DCD 0x29d1ac1
	DCW	0x1d83
	DCW	0x4bc8
	DCB	0x8f
	DCB	0x8a
	DCB	0xf4
	DCB	0x2
	DCB	0xe5
	DCB	0x81
	DCB	0x9c
	DCB	0x6f
|KERNEL_FREQUENCYMODE_GUID| DCD 0x41efe69d
	DCW	0x16cb
	DCW	0x4d1c
	DCB	0x9f
	DCB	0xbd
	DCB	0xc5
	DCB	0x40
	DCB	0x2
	DCB	0x45
	DCB	0xf2
	DCB	0x8a
|KERNEL_DOMAINPOWERMODE_GUID| DCD 0x2ab38ed2
	DCW	0x43ed
	DCW	0x43ed
	DCB	0xb4
	DCB	0x7b
	DCB	0x74
	DCB	0xf5
	DCB	0xdb
	DCB	0x5c
	DCB	0xc
	DCB	0x9a
|KERNEL_DOMAINIDLEMODE_GUID| DCD 0x8db53442
	DCW	0xc88b
	DCW	0x4f82
	DCB	0x8e
	DCB	0x36
	DCB	0x58
	DCB	0xcc
	DCB	0x18
	DCB	0xa4
	DCB	0xf7
	DCB	0x9d
	EXPORT	|KernelIoControl|
	IMPORT	|OEMIoControl|
; File c:\wince600\platform\z2170p\src\bsp_common\usbfn\trans.c

  00000			 AREA	 |.pdata|, PDATA
|$T47006| DCD	|$LN5@KernelIoCo|
	DCD	0x40000a02
; Function compile flags: /Ogspy

  00000			 AREA	 |.text|, CODE, ARM

  00000		 |KernelIoControl| PROC

; 58   :     { 

  00000		 |$LN5@KernelIoCo|
  00000	e92d4010	 stmdb       sp!, {r4, lr}
  00004	e24dd008	 sub         sp, sp, #8
  00008		 |$M47003|

; 59   :         return OEMIoControl(dwIoControlCode,lpInBuf,nInBufSize,lpOutBuf,nOutBufSize,lpBytesReturned); 

  00008	e59de014	 ldr         lr, [sp, #0x14]
  0000c	e59d4010	 ldr         r4, [sp, #0x10]
  00010	e58de004	 str         lr, [sp, #4]
  00014	e58d4000	 str         r4, [sp]
  00018	eb000000	 bl          OEMIoControl

; 60   :     } 

  0001c	e28dd008	 add         sp, sp, #8
  00020	e8bd4010	 ldmia       sp!, {r4, lr}
  00024	e12fff1e	 bx          lr
  00028		 |$M47004|

			 ENDP  ; |KernelIoControl|

	EXPORT	|InitializeHardware|
	EXPORT	|??_C@_1EA@IINJFEEO@?$AA?9?$AAI?$AAn?$AAi?$AAt?$AAi?$AAa?$AAl?$AAi?$AAz?$AAe?$AAH?$AAa?$AAr?$AAd?$AAw?$AAa?$AAr?$AAe?$AA?5?$AA?9?$AA?5?$AAr?$AAc?$AA?5?$AA?$DN?$AA?5?$AA?$CF?$AAd?$AA?$AN?$AA?6?$AA?$AA@| [ DATA ] ; `string'
	EXPORT	|??_C@_1JC@OCMNNEJP@?$AAE?$AAR?$AAR?$AAO?$AAR?$AA?3?$AA?5?$AAK?$AAI?$AAT?$AAL?$AA?5?$AAU?$AAf?$AAn?$AAP?$AAd?$AAd?$AA_?$AAI?$AAn?$AAi?$AAt?$AA?3?$AA?5?$AAF?$AAa?$AAi?$AAl?$AAe?$AAd?$AA?5@| [ DATA ] ; `string'
	EXPORT	|??_C@_1CM@EAMJHAFB@?$AA?$CL?$AAI?$AAn?$AAi?$AAt?$AAi?$AAa?$AAl?$AAi?$AAz?$AAe?$AAH?$AAa?$AAr?$AAd?$AAw?$AAa?$AAr?$AAe?$AA?$AN?$AA?6?$AA?$AA@| [ DATA ] ; `string'
	IMPORT	|NKDbgPrintfW|
	IMPORT	|dpCurSettings|

  00000			 AREA	 |.bss|, NOINIT
|s_OalDevClkMgmtTable| % 0x20
|s_OalDevClkMgmtTable| % 0x20

  00000			 AREA	 |.pdata|, PDATA
|$T47022| DCD	|$LN13@Initialize|
	DCD	0x40002902

  00000			 AREA	 |.rdata|, DATA, READONLY
|??_C@_1EA@IINJFEEO@?$AA?9?$AAI?$AAn?$AAi?$AAt?$AAi?$AAa?$AAl?$AAi?$AAz?$AAe?$AAH?$AAa?$AAr?$AAd?$AAw?$AAa?$AAr?$AAe?$AA?5?$AA?9?$AA?5?$AAr?$AAc?$AA?5?$AA?$DN?$AA?5?$AA?$CF?$AAd?$AA?$AN?$AA?6?$AA?$AA@| DCB "-"
	DCB	0x0, "I", 0x0, "n", 0x0, "i", 0x0, "t", 0x0, "i", 0x0, "a"
	DCB	0x0, "l", 0x0, "i", 0x0, "z", 0x0, "e", 0x0, "H", 0x0, "a"
	DCB	0x0, "r", 0x0, "d", 0x0, "w", 0x0, "a", 0x0, "r", 0x0, "e"
	DCB	0x0, " ", 0x0, "-", 0x0, " ", 0x0, "r", 0x0, "c", 0x0, " "
	DCB	0x0, "=", 0x0, " ", 0x0, "%", 0x0, "d", 0x0, 0xd, 0x0, 0xa
	DCB	0x0, 0x0, 0x0				; `string'

  00000			 AREA	 |.rdata|, DATA, READONLY
|??_C@_1JC@OCMNNEJP@?$AAE?$AAR?$AAR?$AAO?$AAR?$AA?3?$AA?5?$AAK?$AAI?$AAT?$AAL?$AA?5?$AAU?$AAf?$AAn?$AAP?$AAd?$AAd?$AA_?$AAI?$AAn?$AAi?$AAt?$AA?3?$AA?5?$AAF?$AAa?$AAi?$AAl?$AAe?$AAd?$AA?5@| DCB "E"
	DCB	0x0, "R", 0x0, "R", 0x0, "O", 0x0, "R", 0x0, ":", 0x0, " "
	DCB	0x0, "K", 0x0, "I", 0x0, "T", 0x0, "L", 0x0, " ", 0x0, "U"
	DCB	0x0, "f", 0x0, "n", 0x0, "P", 0x0, "d", 0x0, "d", 0x0, "_"
	DCB	0x0, "I", 0x0, "n", 0x0, "i", 0x0, "t", 0x0, ":", 0x0, " "
	DCB	0x0, "F", 0x0, "a", 0x0, "i", 0x0, "l", 0x0, "e", 0x0, "d"
	DCB	0x0, " ", 0x0, "g", 0x0, "e", 0x0, "t", 0x0, " ", 0x0, "c"
	DCB	0x0, "l", 0x0, "o", 0x0, "c", 0x0, "k", 0x0, " ", 0x0, "m"
	DCB	0x0, "a", 0x0, "n", 0x0, "a", 0x0, "g", 0x0, "e", 0x0, "m"
	DCB	0x0, "e", 0x0, "n", 0x0, "t", 0x0, " ", 0x0, "t", 0x0, "a"
	DCB	0x0, "b", 0x0, "l", 0x0, "e", 0x0, " ", 0x0, "f", 0x0, "r"
	DCB	0x0, "o", 0x0, "m", 0x0, " ", 0x0, "k", 0x0, "e", 0x0, "r"
	DCB	0x0, "n", 0x0, "e", 0x0, "l", 0x0, 0xd, 0x0, 0xa, 0x0, 0x0
	DCB	0x0					; `string'

  00000			 AREA	 |.rdata|, DATA, READONLY
|??_C@_1CM@EAMJHAFB@?$AA?$CL?$AAI?$AAn?$AAi?$AAt?$AAi?$AAa?$AAl?$AAi?$AAz?$AAe?$AAH?$AAa?$AAr?$AAd?$AAw?$AAa?$AAr?$AAe?$AA?$AN?$AA?6?$AA?$AA@| DCB "+"
	DCB	0x0, "I", 0x0, "n", 0x0, "i", 0x0, "t", 0x0, "i", 0x0, "a"
	DCB	0x0, "l", 0x0, "i", 0x0, "z", 0x0, "e", 0x0, "H", 0x0, "a"
	DCB	0x0, "r", 0x0, "d", 0x0, "w", 0x0, "a", 0x0, "r", 0x0, "e"
	DCB	0x0, 0xd, 0x0, 0xa, 0x0, 0x0, 0x0	; `string'
; Function compile flags: /Ogspy

  00000			 AREA	 |.text|, CODE, ARM

  00000		 |InitializeHardware| PROC

; 342  : {

  00000		 |$LN13@Initialize|
  00000	e92d4030	 stmdb       sp!, {r4, r5, lr}
  00004	e24dd008	 sub         sp, sp, #8
  00008		 |$M47019|

; 343  :     BOOL   rc   = FALSE;
; 344  : 
; 345  : #ifdef BSP_OMAP_MUSBOTG_TPS659XX
; 346  :     HANDLE hTWL;
; 347  : #endif
; 348  : 
; 349  :     OALMSG(OAL_ETHER&&OAL_FUNC, (L"+InitializeHardware\r\n"));

  00008	e59f4090	 ldr         r4, [pc, #0x90]
  0000c	e5943440	 ldr         r3, [r4, #0x440]
  00010	e3130a02	 tst         r3, #2, 20
  00014	13130004	 tstne       r3, #4
  00018	159f007c	 ldrne       r0, [pc, #0x7C]
  0001c	1b000000	 blne        NKDbgPrintfW

; 350  : 
; 351  : #ifdef BUILDING_KITL
; 352  :     if (!OEMIoControl(IOCTL_PRCM_DEVICE_GET_DEVICEMANAGEMENTTABLE, (void*)&KERNEL_DEVCLKMGMT_GUID,
; 353  :             sizeof(KERNEL_DEVCLKMGMT_GUID), &s_OalDevClkMgmtTable,
; 354  :             sizeof(OMAP_DEVCLKMGMT_FNTABLE),
; 355  :             NULL))

  00020	e59f3070	 ldr         r3, [pc, #0x70]
  00024	e59f1068	 ldr         r1, [pc, #0x68]
  00028	e59f0060	 ldr         r0, [pc, #0x60]
  0002c	e3a0e000	 mov         lr, #0
  00030	e3a05020	 mov         r5, #0x20
  00034	e3a02010	 mov         r2, #0x10
  00038	e58de004	 str         lr, [sp, #4]
  0003c	e58d5000	 str         r5, [sp]
  00040	eb000000	 bl          OEMIoControl

; 356  :     {
; 357  :         OALMSG(OAL_ERROR, (L"ERROR: KITL UfnPdd_Init: Failed get clock management table from kernel\r\n"));

  00044	e5943440	 ldr         r3, [r4, #0x440]
  00048	e3500000	 cmp         r0, #0
  0004c	1a000004	 bne         |$LN6@Initialize|
  00050	e3130001	 tst         r3, #1
  00054	0a000002	 beq         |$LN6@Initialize|
  00058	e59f002c	 ldr         r0, [pc, #0x2C]
  0005c	eb000000	 bl          NKDbgPrintfW
  00060	e5943440	 ldr         r3, [r4, #0x440]
  00064		 |$LN6@Initialize|

; 358  :         rc = FALSE;
; 359  :     }
; 360  : #endif
; 361  : 
; 362  : #ifdef BSP_OMAP_MUSBOTG_TPS659XX
; 363  : 
; 364  :     // Initialize Triton
; 365  :     hTWL = TWLOpen();
; 366  :     if (!hTWL)
; 367  :     {
; 368  :         OALMSG(OAL_LOG_ERROR, (L"RNDIS ERROR: InitializeHardware: "
; 369  :             L"Failed to open TRITON II\r\n"
; 370  :             ));
; 371  :         goto cleanUp;
; 372  :     }
; 373  : 
; 374  :     if(!PowerOnT2USBTransceiver(hTWL))
; 375  :     {
; 376  :         goto cleanUp;
; 377  :     }
; 378  :     
; 379  :     if(!RequestPHYAccess(hTWL))
; 380  :     {
; 381  :         goto cleanUp;
; 382  :      }
; 383  : 
; 384  :     // Configure transceiver
; 385  :     if (!InitTransceiver (hTWL))
; 386  :         {
; 387  :         goto cleanUp;
; 388  :         }
; 389  : 
; 390  :     // Done
; 391  :     rc = TRUE;
; 392  : 
; 393  : cleanUp:
; 394  : 	
; 395  : 	// We are done with Triton
; 396  : 	if (hTWL)
; 397  : 	{
; 398  : 		TWLClose(hTWL);
; 399  : 	}
; 400  : 
; 401  : #endif
; 402  : 
; 403  :     OALMSG(OAL_ETHER&&OAL_FUNC, (L"-InitializeHardware - rc = %d\r\n", rc));

  00064	e3130a02	 tst         r3, #2, 20
  00068	13130004	 tstne       r3, #4
  0006c	159f0014	 ldrne       r0, [pc, #0x14]
  00070	13a01000	 movne       r1, #0
  00074	1b000000	 blne        NKDbgPrintfW

; 404  : 
; 405  :     return rc;

  00078	e3a00000	 mov         r0, #0

; 406  : }

  0007c	e28dd008	 add         sp, sp, #8
  00080	e8bd4030	 ldmia       sp!, {r4, r5, lr}
  00084	e12fff1e	 bx          lr
  00088		 |$LN14@Initialize|
  00088		 |$LN15@Initialize|
  00088	00000000	 DCD         |??_C@_1EA@IINJFEEO@?$AA?9?$AAI?$AAn?$AAi?$AAt?$AAi?$AAa?$AAl?$AAi?$AAz?$AAe?$AAH?$AAa?$AAr?$AAd?$AAw?$AAa?$AAr?$AAe?$AA?5?$AA?9?$AA?5?$AAr?$AAc?$AA?5?$AA?$DN?$AA?5?$AA?$CF?$AAd?$AA?$AN?$AA?6?$AA?$AA@|
  0008c		 |$LN16@Initialize|
  0008c	00000000	 DCD         |??_C@_1JC@OCMNNEJP@?$AAE?$AAR?$AAR?$AAO?$AAR?$AA?3?$AA?5?$AAK?$AAI?$AAT?$AAL?$AA?5?$AAU?$AAf?$AAn?$AAP?$AAd?$AAd?$AA_?$AAI?$AAn?$AAi?$AAt?$AA?3?$AA?5?$AAF?$AAa?$AAi?$AAl?$AAe?$AAd?$AA?5@|
  00090		 |$LN17@Initialize|
  00090	01f50fa4	 DCD         0x1f50fa4
  00094		 |$LN18@Initialize|
  00094	00000000	 DCD         |KERNEL_DEVCLKMGMT_GUID|
  00098		 |$LN19@Initialize|
  00098	00000000	 DCD         |s_OalDevClkMgmtTable|
  0009c		 |$LN20@Initialize|
  0009c	00000000	 DCD         |??_C@_1CM@EAMJHAFB@?$AA?$CL?$AAI?$AAn?$AAi?$AAt?$AAi?$AAa?$AAl?$AAi?$AAz?$AAe?$AAH?$AAa?$AAr?$AAd?$AAw?$AAa?$AAr?$AAe?$AA?$AN?$AA?6?$AA?$AA@|
  000a0		 |$LN21@Initialize|
  000a0	00000000	 DCD         |dpCurSettings|
  000a4		 |$M47020|

			 ENDP  ; |InitializeHardware|

	EXPORT	|ResetHardware|

  00000			 AREA	 |.pdata|, PDATA
|$T47037| DCD	|$LN5@ResetHardw|
	DCD	0x40000100
; Function compile flags: /Ogspy

  00000			 AREA	 |.text|, CODE, ARM

  00000		 |ResetHardware| PROC

; 413  : {

  00000		 |$LN5@ResetHardw|
  00000		 |$M47034|

; 414  : }

  00000	e12fff1e	 bx          lr
  00004		 |$M47035|

			 ENDP  ; |ResetHardware|

	EXPORT	|ConnectHardware|
	EXPORT	|??_C@_1CG@CHELIBAH@?$AA?9?$AAC?$AAo?$AAn?$AAn?$AAe?$AAc?$AAt?$AAH?$AAa?$AAr?$AAd?$AAw?$AAa?$AAr?$AAe?$AA?$AN?$AA?6?$AA?$AA@| [ DATA ] ; `string'
	EXPORT	|??_C@_1CG@LMJLIBMJ@?$AA?$CL?$AAC?$AAo?$AAn?$AAn?$AAe?$AAc?$AAt?$AAH?$AAa?$AAr?$AAd?$AAw?$AAa?$AAr?$AAe?$AA?$AN?$AA?6?$AA?$AA@| [ DATA ] ; `string'

  00000			 AREA	 |.pdata|, PDATA
|$T47048| DCD	|$LN9@ConnectHar|
	DCD	0x40001301

  00000			 AREA	 |.rdata|, DATA, READONLY
|??_C@_1CG@CHELIBAH@?$AA?9?$AAC?$AAo?$AAn?$AAn?$AAe?$AAc?$AAt?$AAH?$AAa?$AAr?$AAd?$AAw?$AAa?$AAr?$AAe?$AA?$AN?$AA?6?$AA?$AA@| DCB "-"
	DCB	0x0, "C", 0x0, "o", 0x0, "n", 0x0, "n", 0x0, "e", 0x0, "c"
	DCB	0x0, "t", 0x0, "H", 0x0, "a", 0x0, "r", 0x0, "d", 0x0, "w"
	DCB	0x0, "a", 0x0, "r", 0x0, "e", 0x0, 0xd, 0x0, 0xa, 0x0, 0x0
	DCB	0x0					; `string'

  00000			 AREA	 |.rdata|, DATA, READONLY
|??_C@_1CG@LMJLIBMJ@?$AA?$CL?$AAC?$AAo?$AAn?$AAn?$AAe?$AAc?$AAt?$AAH?$AAa?$AAr?$AAd?$AAw?$AAa?$AAr?$AAe?$AA?$AN?$AA?6?$AA?$AA@| DCB "+"
	DCB	0x0, "C", 0x0, "o", 0x0, "n", 0x0, "n", 0x0, "e", 0x0, "c"
	DCB	0x0, "t", 0x0, "H", 0x0, "a", 0x0, "r", 0x0, "d", 0x0, "w"
	DCB	0x0, "a", 0x0, "r", 0x0, "e", 0x0, 0xd, 0x0, 0xa, 0x0, 0x0
	DCB	0x0					; `string'
; Function compile flags: /Ogspy

  00000			 AREA	 |.text|, CODE, ARM

  00000		 |ConnectHardware| PROC

; 422  : {

  00000		 |$LN9@ConnectHar|
  00000	e92d4010	 stmdb       sp!, {r4, lr}
  00004		 |$M47045|

; 423  : #ifdef BSP_OMAP_MUSBOTG_TPS659XX
; 424  : 
; 425  :     HANDLE hTWL;
; 426  :     UCHAR   value = 0;
; 427  : 
; 428  : #endif
; 429  : 
; 430  :     OALMSG(OAL_ETHER&&OAL_FUNC, (L"+ConnectHardware\r\n"));

  00004	e59f403c	 ldr         r4, [pc, #0x3C]
  00008	e5943440	 ldr         r3, [r4, #0x440]
  0000c	e3130a02	 tst         r3, #2, 20
  00010	0a000004	 beq         |$LN3@ConnectHar|
  00014	e3130004	 tst         r3, #4
  00018	0a000002	 beq         |$LN3@ConnectHar|
  0001c	e59f0020	 ldr         r0, [pc, #0x20]
  00020	eb000000	 bl          NKDbgPrintfW
  00024	e5943440	 ldr         r3, [r4, #0x440]
  00028		 |$LN3@ConnectHar|

; 431  : 
; 432  : #ifdef BSP_OMAP_MUSBOTG_TPS659XX
; 433  : 
; 434  :     // Initialize Triton
; 435  :     hTWL = TWLOpen();
; 436  :     if (!hTWL)
; 437  :     {
; 438  :         OALMSG(OAL_LOG_ERROR, (L"RNDIS ERROR: ConnectHardware: "
; 439  :             L"Failed to open TRITON II\r\n"
; 440  :             ));
; 441  :         return;
; 442  :     }
; 443  : 
; 444  :     value = FUNC_CTRL_TERMSELECT;
; 445  : 
; 446  :     // Enable D+ pullup resistor
; 447  :     if (!TWLWriteByteReg(hTWL, TWL_FUNC_CTRL_SET, value))
; 448  :     {
; 449  :         OALMSG(OAL_LOG_ERROR, (L"RNDIS ERROR: ConnectHardware: "
; 450  :             L"Failed to set TWL_FUNC_CTRL_SET\r\n"
; 451  :             ));
; 452  :     }
; 453  : 
; 454  :     // We are done with Triton
; 455  :     TWLClose(hTWL);
; 456  : 
; 457  : #endif
; 458  : 
; 459  :     OALMSG(OAL_ETHER&&OAL_FUNC, (L"-ConnectHardware\r\n"));

  00028	e3130a02	 tst         r3, #2, 20
  0002c	13130004	 tstne       r3, #4
  00030	159f0008	 ldrne       r0, [pc, #8]
  00034	1b000000	 blne        NKDbgPrintfW

; 460  : }

  00038	e8bd4010	 ldmia       sp!, {r4, lr}
  0003c	e12fff1e	 bx          lr
  00040		 |$LN10@ConnectHar|
  00040		 |$LN11@ConnectHar|
  00040	00000000	 DCD         |??_C@_1CG@CHELIBAH@?$AA?9?$AAC?$AAo?$AAn?$AAn?$AAe?$AAc?$AAt?$AAH?$AAa?$AAr?$AAd?$AAw?$AAa?$AAr?$AAe?$AA?$AN?$AA?6?$AA?$AA@|
  00044		 |$LN12@ConnectHar|
  00044	00000000	 DCD         |??_C@_1CG@LMJLIBMJ@?$AA?$CL?$AAC?$AAo?$AAn?$AAn?$AAe?$AAc?$AAt?$AAH?$AAa?$AAr?$AAd?$AAw?$AAa?$AAr?$AAe?$AA?$AN?$AA?6?$AA?$AA@|
  00048		 |$LN13@ConnectHar|
  00048	00000000	 DCD         |dpCurSettings|
  0004c		 |$M47046|

			 ENDP  ; |ConnectHardware|

	EXPORT	|DisconnectHardware|
	EXPORT	|??_C@_1CM@GNIMNOJD@?$AA?9?$AAD?$AAi?$AAs?$AAc?$AAo?$AAn?$AAn?$AAe?$AAc?$AAt?$AAH?$AAa?$AAr?$AAd?$AAw?$AAa?$AAr?$AAe?$AA?$AN?$AA?6?$AA?$AA@| [ DATA ] ; `string'
	EXPORT	|??_C@_1CM@JBHMEPNP@?$AA?$CL?$AAD?$AAi?$AAs?$AAc?$AAo?$AAn?$AAn?$AAe?$AAc?$AAt?$AAH?$AAa?$AAr?$AAd?$AAw?$AAa?$AAr?$AAe?$AA?$AN?$AA?6?$AA?$AA@| [ DATA ] ; `string'

  00000			 AREA	 |.pdata|, PDATA
|$T47063| DCD	|$LN9@Disconnect|
	DCD	0x40001301

  00000			 AREA	 |.rdata|, DATA, READONLY
|??_C@_1CM@GNIMNOJD@?$AA?9?$AAD?$AAi?$AAs?$AAc?$AAo?$AAn?$AAn?$AAe?$AAc?$AAt?$AAH?$AAa?$AAr?$AAd?$AAw?$AAa?$AAr?$AAe?$AA?$AN?$AA?6?$AA?$AA@| DCB "-"
	DCB	0x0, "D", 0x0, "i", 0x0, "s", 0x0, "c", 0x0, "o", 0x0, "n"
	DCB	0x0, "n", 0x0, "e", 0x0, "c", 0x0, "t", 0x0, "H", 0x0, "a"
	DCB	0x0, "r", 0x0, "d", 0x0, "w", 0x0, "a", 0x0, "r", 0x0, "e"
	DCB	0x0, 0xd, 0x0, 0xa, 0x0, 0x0, 0x0	; `string'

  00000			 AREA	 |.rdata|, DATA, READONLY
|??_C@_1CM@JBHMEPNP@?$AA?$CL?$AAD?$AAi?$AAs?$AAc?$AAo?$AAn?$AAn?$AAe?$AAc?$AAt?$AAH?$AAa?$AAr?$AAd?$AAw?$AAa?$AAr?$AAe?$AA?$AN?$AA?6?$AA?$AA@| DCB "+"
	DCB	0x0, "D", 0x0, "i", 0x0, "s", 0x0, "c", 0x0, "o", 0x0, "n"
	DCB	0x0, "n", 0x0, "e", 0x0, "c", 0x0, "t", 0x0, "H", 0x0, "a"
	DCB	0x0, "r", 0x0, "d", 0x0, "w", 0x0, "a", 0x0, "r", 0x0, "e"
	DCB	0x0, 0xd, 0x0, 0xa, 0x0, 0x0, 0x0	; `string'
; Function compile flags: /Ogspy

  00000			 AREA	 |.text|, CODE, ARM

  00000		 |DisconnectHardware| PROC

; 468  : {

  00000		 |$LN9@Disconnect|
  00000	e92d4010	 stmdb       sp!, {r4, lr}
  00004		 |$M47060|

; 469  : #ifdef BSP_OMAP_MUSBOTG_TPS659XX
; 470  : 
; 471  :     HANDLE hTWL;
; 472  :     UCHAR   value = 0;
; 473  : 
; 474  : #endif
; 475  : 
; 476  :     OALMSG(OAL_ETHER&&OAL_FUNC, (L"+DisconnectHardware\r\n"));

  00004	e59f403c	 ldr         r4, [pc, #0x3C]
  00008	e5943440	 ldr         r3, [r4, #0x440]
  0000c	e3130a02	 tst         r3, #2, 20
  00010	0a000004	 beq         |$LN3@Disconnect|
  00014	e3130004	 tst         r3, #4
  00018	0a000002	 beq         |$LN3@Disconnect|
  0001c	e59f0020	 ldr         r0, [pc, #0x20]
  00020	eb000000	 bl          NKDbgPrintfW
  00024	e5943440	 ldr         r3, [r4, #0x440]
  00028		 |$LN3@Disconnect|

; 477  : 
; 478  : #ifdef BSP_OMAP_MUSBOTG_TPS659XX
; 479  : 
; 480  :     // Initialize Triton
; 481  :     hTWL = TWLOpen();
; 482  :     if (!hTWL)
; 483  :     {
; 484  :         OALMSG(OAL_LOG_ERROR, (L"RNDIS ERROR: DisconnectHardware: "
; 485  :             L"Failed to open TRITON II\r\n"
; 486  :             ));
; 487  :         return;
; 488  :     }
; 489  : 
; 490  :     value = FUNC_CTRL_TERMSELECT;
; 491  : 
; 492  :     // Disable D+ pullup resistor
; 493  :     if(!TWLWriteByteReg(hTWL, TWL_FUNC_CTRL_CLR, value))
; 494  :     {
; 495  :         OALMSG(OAL_LOG_ERROR, (L"RNDIS ERROR: DisconnectHardware: "
; 496  :             L"Failed to clr TWL_FUNC_CTRL_CLR\r\n"
; 497  :             ));
; 498  :     }
; 499  : 
; 500  :     // We are done with Triton
; 501  :     TWLClose(hTWL);
; 502  : 
; 503  : #endif
; 504  : 
; 505  :     OALMSG(OAL_ETHER&&OAL_FUNC, (L"-DisconnectHardware\r\n"));

  00028	e3130a02	 tst         r3, #2, 20
  0002c	13130004	 tstne       r3, #4
  00030	159f0008	 ldrne       r0, [pc, #8]
  00034	1b000000	 blne        NKDbgPrintfW

; 506  : }

  00038	e8bd4010	 ldmia       sp!, {r4, lr}
  0003c	e12fff1e	 bx          lr
  00040		 |$LN10@Disconnect|
  00040		 |$LN11@Disconnect|
  00040	00000000	 DCD         |??_C@_1CM@GNIMNOJD@?$AA?9?$AAD?$AAi?$AAs?$AAc?$AAo?$AAn?$AAn?$AAe?$AAc?$AAt?$AAH?$AAa?$AAr?$AAd?$AAw?$AAa?$AAr?$AAe?$AA?$AN?$AA?6?$AA?$AA@|
  00044		 |$LN12@Disconnect|
  00044	00000000	 DCD         |??_C@_1CM@JBHMEPNP@?$AA?$CL?$AAD?$AAi?$AAs?$AAc?$AAo?$AAn?$AAn?$AAe?$AAc?$AAt?$AAH?$AAa?$AAr?$AAd?$AAw?$AAa?$AAr?$AAe?$AA?$AN?$AA?6?$AA?$AA@|
  00048		 |$LN13@Disconnect|
  00048	00000000	 DCD         |dpCurSettings|
  0004c		 |$M47061|

			 ENDP  ; |DisconnectHardware|

	EXPORT	|EnableUSBClocks|
	EXPORT	|??_C@_1CG@LPMIPPDJ@?$AA?9?$AAE?$AAn?$AAa?$AAb?$AAl?$AAe?$AAU?$AAS?$AAB?$AAC?$AAl?$AAo?$AAc?$AAk?$AAs?$AA?$AN?$AA?6?$AA?$AA@| [ DATA ] ; `string'
	EXPORT	|??_C@_1CG@CEBIPPPH@?$AA?$CL?$AAE?$AAn?$AAa?$AAb?$AAl?$AAe?$AAU?$AAS?$AAB?$AAC?$AAl?$AAo?$AAc?$AAk?$AAs?$AA?$AN?$AA?6?$AA?$AA@| [ DATA ] ; `string'

  00000			 AREA	 |.pdata|, PDATA
|$T47082| DCD	|$LN9@EnableUSBC|
	DCD	0x40002101

  00000			 AREA	 |.rdata|, DATA, READONLY
|??_C@_1CG@LPMIPPDJ@?$AA?9?$AAE?$AAn?$AAa?$AAb?$AAl?$AAe?$AAU?$AAS?$AAB?$AAC?$AAl?$AAo?$AAc?$AAk?$AAs?$AA?$AN?$AA?6?$AA?$AA@| DCB "-"
	DCB	0x0, "E", 0x0, "n", 0x0, "a", 0x0, "b", 0x0, "l", 0x0, "e"
	DCB	0x0, "U", 0x0, "S", 0x0, "B", 0x0, "C", 0x0, "l", 0x0, "o"
	DCB	0x0, "c", 0x0, "k", 0x0, "s", 0x0, 0xd, 0x0, 0xa, 0x0, 0x0
	DCB	0x0					; `string'

  00000			 AREA	 |.rdata|, DATA, READONLY
|??_C@_1CG@CEBIPPPH@?$AA?$CL?$AAE?$AAn?$AAa?$AAb?$AAl?$AAe?$AAU?$AAS?$AAB?$AAC?$AAl?$AAo?$AAc?$AAk?$AAs?$AA?$AN?$AA?6?$AA?$AA@| DCB "+"
	DCB	0x0, "E", 0x0, "n", 0x0, "a", 0x0, "b", 0x0, "l", 0x0, "e"
	DCB	0x0, "U", 0x0, "S", 0x0, "B", 0x0, "C", 0x0, "l", 0x0, "o"
	DCB	0x0, "c", 0x0, "k", 0x0, "s", 0x0, 0xd, 0x0, 0xa, 0x0, 0x0
	DCB	0x0					; `string'
; Function compile flags: /Ogspy

  00000			 AREA	 |.text|, CODE, ARM

  00000		 |EnableUSBClocks| PROC

; 514  : {

  00000		 |$LN9@EnableUSBC|
  00000	e92d4070	 stmdb       sp!, {r4 - r6, lr}
  00004		 |$M47079|
  00004	e1a06000	 mov         r6, r0

; 515  : 	BOOL bRet = TRUE;
; 516  : 
; 517  :     OALMSG(OAL_ETHER&&OAL_FUNC, (L"+EnableUSBClocks\r\n"));

  00008	e59f5070	 ldr         r5, [pc, #0x70]
  0000c	e5953440	 ldr         r3, [r5, #0x440]
  00010	e3130a02	 tst         r3, #2, 20
  00014	13130004	 tstne       r3, #4
  00018	159f005c	 ldrne       r0, [pc, #0x5C]
  0001c	1b000000	 blne        NKDbgPrintfW

; 518  : 
; 519  : #ifdef BUILDING_KITL
; 520  : 
; 521  :     bRet &= s_OalDevClkMgmtTable.pfnEnableDeviceIClock(OMAP_DEVICE_HSOTGUSB, bEnable);

  00020	e59f4050	 ldr         r4, [pc, #0x50]
  00024	e1a01006	 mov         r1, r6
  00028	e3a00003	 mov         r0, #3
  0002c	e5943004	 ldr         r3, [r4, #4]
  00030	e1a0e00f	 mov         lr, pc
  00034	e12fff13	 bx          r3

; 522  :     bRet &= s_OalDevClkMgmtTable.pfnEnableDeviceFClock(OMAP_DEVICE_HSOTGUSB, bEnable);

  00038	e5943008	 ldr         r3, [r4, #8]
  0003c	e1a04000	 mov         r4, r0
  00040	e3a00003	 mov         r0, #3
  00044	e1a01006	 mov         r1, r6
  00048	e1a0e00f	 mov         lr, pc
  0004c	e12fff13	 bx          r3

; 523  : 
; 524  : #else
; 525  : 	bRet = EnableDeviceClocks(OMAP_DEVICE_HSOTGUSB, bEnable);
; 526  : #endif
; 527  : 
; 528  :     OALMSG(OAL_ETHER&&OAL_FUNC, (L"-EnableUSBClocks\r\n"));

  00050	e5953440	 ldr         r3, [r5, #0x440]
  00054	e0004004	 and         r4, r0, r4
  00058	e3130a02	 tst         r3, #2, 20
  0005c	13130004	 tstne       r3, #4
  00060	159f000c	 ldrne       r0, [pc, #0xC]
  00064	1b000000	 blne        NKDbgPrintfW

; 529  : 
; 530  : 	return bRet;
; 531  : }

  00068	e2040001	 and         r0, r4, #1
  0006c	e8bd4070	 ldmia       sp!, {r4 - r6, lr}
  00070	e12fff1e	 bx          lr
  00074		 |$LN10@EnableUSBC|
  00074		 |$LN11@EnableUSBC|
  00074	00000000	 DCD         |??_C@_1CG@LPMIPPDJ@?$AA?9?$AAE?$AAn?$AAa?$AAb?$AAl?$AAe?$AAU?$AAS?$AAB?$AAC?$AAl?$AAo?$AAc?$AAk?$AAs?$AA?$AN?$AA?6?$AA?$AA@|
  00078		 |$LN12@EnableUSBC|
  00078	00000000	 DCD         |s_OalDevClkMgmtTable|
  0007c		 |$LN13@EnableUSBC|
  0007c	00000000	 DCD         |??_C@_1CG@CEBIPPPH@?$AA?$CL?$AAE?$AAn?$AAa?$AAb?$AAl?$AAe?$AAU?$AAS?$AAB?$AAC?$AAl?$AAo?$AAc?$AAk?$AAs?$AA?$AN?$AA?6?$AA?$AA@|
  00080		 |$LN14@EnableUSBC|
  00080	00000000	 DCD         |dpCurSettings|
  00084		 |$M47080|

			 ENDP  ; |EnableUSBClocks|

	END
