; Listing generated by Microsoft (R) Optimizing Compiler Version 14.01.60511.01 

	TTL	C:\WINCE600\PLATFORM\Z2170P\SRC\BSP_COMMON\DISPLAY\lcd_qvga.c
	CODE32

  00000			 AREA	 |.drectve|, DRECTVE
	DCB	"-defaultlib:LIBCMT "
	DCB	"-defaultlib:OLDNAMES "

	EXPORT	|lcd_res_params| [ DATA ]

  00000			 AREA	 |.bss|, NOINIT
|bDVIEnabled| %	0x4

  00000			 AREA	 |.data|, DATA
|lcd_res_params| DCD 0x6
	DCD	0xf0
	DCD	0x140
	DCD	0x1
	DCD	0x12
	DCD	0x46
	DCD	0x1
	DCD	0xa
	DCD	0xd
	DCD	0x1
	DCD	0x8
	DCD	0x13
	DCD	0x0
	DCD	0x2f000
	DCD	0x0
	DCD	0x0
	DCD	0x0
	DCD	0x0
	DCD	0x6
	DCD	0x280
	DCD	0x1e0
	DCD	0x3f
	DCD	0xf
	DCD	0x4f
	DCD	0x1
	DCD	0xa
	DCD	0x21
	DCD	0x1
	DCD	0x2
	DCD	0x11
	DCD	0x0
	DCD	0x23000
	DCD	0x0
	DCD	0x0
	DCD	0x0
	DCD	0x0
	DCD	0x6
	DCD	0x280
	DCD	0x1e0
	DCD	0x27
	DCD	0x17
	DCD	0x7f
	DCD	0x2
	DCD	0x9
	DCD	0x1c
	DCD	0x1
	DCD	0x4
	DCD	0x7
	DCD	0x0
	DCD	0x23000
	DCD	0x0
	DCD	0x0
	DCD	0x0
	DCD	0x0
	DCD	0x6
	DCD	0x320
	DCD	0x1e0
	DCD	0x37
	DCD	0x1f
	DCD	0x87
	DCD	0x2
	DCD	0x46
	DCD	0x44
	DCD	0x1
	DCD	0x2
	DCD	0xb
	DCD	0x0
	DCD	0x20000
	DCD	0x0
	DCD	0x0
	DCD	0x0
	DCD	0x0
	DCD	0x6
	DCD	0x320
	DCD	0x258
	DCD	0x3f
	DCD	0x27
	DCD	0x97
	DCD	0x3
	DCD	0x1
	DCD	0x17
	DCD	0x1
	DCD	0x2
	DCD	0xb
	DCD	0x0
	DCD	0x20000
	DCD	0x0
	DCD	0x0
	DCD	0x0
	DCD	0x0
	DCD	0x6
	DCD	0x320
	DCD	0x258
	DCD	0x3f
	DCD	0x17
	DCD	0x87
	DCD	0x1
	DCD	0x1
	DCD	0x16
	DCD	0x1
	DCD	0x4
	DCD	0x6
	DCD	0x0
	DCD	0x20000
	DCD	0x0
	DCD	0x0
	DCD	0x0
	DCD	0x0
	DCD	0x6
	DCD	0x400
	DCD	0x300
	DCD	0x3f
	DCD	0x17
	DCD	0xe7
	DCD	0x5
	DCD	0x3
	DCD	0x1d
	DCD	0x1
	DCD	0x2
	DCD	0x7
	DCD	0x0
	DCD	0x20000
	DCD	0x0
	DCD	0x0
	DCD	0x0
	DCD	0x0
	DCD	0x6
	DCD	0x500
	DCD	0x2d0
	DCD	0x3f
	DCD	0x3f
	DCD	0xff
	DCD	0x4
	DCD	0x3
	DCD	0x14
	DCD	0x1
	DCD	0x2
	DCD	0x6
	DCD	0x0
	DCD	0x26000
	DCD	0x0
	DCD	0x0
	DCD	0x0
	DCD	0x0
	DCD	0x6
	DCD	0x0
	DCD	0x0
	DCD	0x0
	DCD	0x0
	DCD	0x0
	DCD	0x0
	DCD	0x0
	DCD	0x0
	DCD	0x0
	DCD	0x0
	DCD	0x0
	DCD	0x0
	DCD	0x0
	DCD	0x0
	DCD	0x0
	DCD	0x0
	DCD	0x0
|g_dwSelectedDSSResolution| DCD 0x8

  00000			 AREA	 |.rdata|, DATA, READONLY
|EdbgVendorIds| DCW 0x0
	DCW	0x0
	DCD	0x4033
	DCB	0x1
	DCB	"AD", 0x0
	DCW	0x1050
	DCW	0x940
	DCD	0x4005
	DCB	0x1
	DCB	"LS", 0x0
	DCW	0x1050
	DCW	0x940
	DCD	0x2078
	DCB	0x1
	DCB	"LS", 0x0
	DCW	0x10ec
	DCW	0x8029
	DCD	0xc0f0
	DCB	0x1
	DCB	"KS", 0x0
	DCW	0x10ec
	DCW	0x8129
	DCD	0x0
	DCB	0x4
	DCB	"RT", 0x0
	DCW	0x10ec
	DCW	0x8139
	DCD	0x900b
	DCB	0x4
	DCB	"RT", 0x0
	DCW	0x10ec
	DCW	0x8139
	DCD	0xd0c9
	DCB	0x4
	DCB	"RT", 0x0
	DCW	0x10ec
	DCW	0x8139
	DCD	0xe04c
	DCB	0x4
	DCB	"RT", 0x0
	DCW	0x1186
	DCW	0x1300
	DCD	0x50ba
	DCB	0x4
	DCB	"DL", 0x0
	DCW	0x100b
	DCW	0x20
	DCD	0xa0cc
	DCB	0x5
	DCB	"NG", 0x0
	DCW	0x10b7
	DCW	0x9050
	DCD	0x6008
	DCB	0x6
	DCB	"3C", 0x0
	DCW	0x10b7
	DCW	0x9200
	DCD	0x476
	DCB	0x6
	DCB	"3C", 0x0
	EXPORT	|LcdPdd_LCD_InitResolution|
	EXPORT	|??_C@_1DM@JHFBIJGB@?$AAe?$AAr?$AAr?$AAo?$AAr?$AA?5?$AAL?$AAC?$AAD?$AA_?$AAV?$AAB?$AAP?$AA?5?$AAo?$AAu?$AAt?$AA?5?$AAo?$AAf?$AA?5?$AAr?$AAa?$AAn?$AAg?$AAe?$AA?5?$AA?$AN?$AA?6?$AA?$AA@| [ DATA ] ; `string'
	EXPORT	|??_C@_1DM@MMOBHECK@?$AAe?$AAr?$AAr?$AAo?$AAr?$AA?5?$AAL?$AAC?$AAD?$AA_?$AAV?$AAF?$AAP?$AA?5?$AAo?$AAu?$AAt?$AA?5?$AAo?$AAf?$AA?5?$AAr?$AAa?$AAn?$AAg?$AAe?$AA?5?$AA?$AN?$AA?6?$AA?$AA@| [ DATA ] ; `string'
	EXPORT	|??_C@_1DM@PDNLKEIH@?$AAe?$AAr?$AAr?$AAo?$AAr?$AA?5?$AAL?$AAC?$AAD?$AA_?$AAV?$AAS?$AAW?$AA?5?$AAo?$AAu?$AAt?$AA?5?$AAo?$AAf?$AA?5?$AAr?$AAa?$AAn?$AAg?$AAe?$AA?5?$AA?$AN?$AA?6?$AA?$AA@| [ DATA ] ; `string'
	EXPORT	|??_C@_1DM@EMLMGKHA@?$AAe?$AAr?$AAr?$AAo?$AAr?$AA?5?$AAL?$AAC?$AAD?$AA_?$AAH?$AAB?$AAP?$AA?5?$AAo?$AAu?$AAt?$AA?5?$AAo?$AAf?$AA?5?$AAr?$AAa?$AAn?$AAg?$AAe?$AA?5?$AA?$AN?$AA?6?$AA?$AA@| [ DATA ] ; `string'
	EXPORT	|??_C@_1DM@BHAMJHDL@?$AAe?$AAr?$AAr?$AAo?$AAr?$AA?5?$AAL?$AAC?$AAD?$AA_?$AAH?$AAF?$AAP?$AA?5?$AAo?$AAu?$AAt?$AA?5?$AAo?$AAf?$AA?5?$AAr?$AAa?$AAn?$AAg?$AAe?$AA?5?$AA?$AN?$AA?6?$AA?$AA@| [ DATA ] ; `string'
	EXPORT	|??_C@_1DM@CIDGEHJG@?$AAe?$AAr?$AAr?$AAo?$AAr?$AA?5?$AAL?$AAC?$AAD?$AA_?$AAH?$AAS?$AAW?$AA?5?$AAo?$AAu?$AAt?$AA?5?$AAo?$AAf?$AA?5?$AAr?$AAa?$AAn?$AAg?$AAe?$AA?5?$AA?$AN?$AA?6?$AA?$AA@| [ DATA ] ; `string'
	EXPORT	|??_C@_1EO@MEBIGCL@?$AAG?$AAe?$AAt?$AAD?$AAi?$AAs?$AAp?$AAl?$AAa?$AAy?$AAR?$AAe?$AAs?$AAo?$AAl?$AAu?$AAt?$AAi?$AAo?$AAn?$AAF?$AAr?$AAo?$AAm?$AAB?$AAo?$AAo?$AAt?$AAA?$AAr?$AAg?$AAs@| [ DATA ] ; `string'
	EXPORT	|??_C@_1EC@MMOGAKLI@?$AAL?$AAc?$AAd?$AAP?$AAd?$AAd?$AA_?$AAL?$AAC?$AAD?$AA_?$AAI?$AAn?$AAi?$AAt?$AAR?$AAe?$AAs?$AAo?$AAl?$AAu?$AAt?$AAi?$AAo?$AAn?$AA?5?$AA?3?$AA?5?$AA?$CF?$AAx?$AA?$AN?$AA?6@| [ DATA ] ; `string'
	IMPORT	|GetDisplayResolutionFromBootArgs|
	IMPORT	|NKDbgPrintfW|
; File c:\wince600\platform\z2170p\src\bsp_common\display\lcd_qvga.c

  00000			 AREA	 |.pdata|, PDATA
|$T46325| DCD	|$LN18@LcdPdd_LCD|
	DCD	0x40005301

  00000			 AREA	 |.rdata|, DATA, READONLY
|??_C@_1DM@JHFBIJGB@?$AAe?$AAr?$AAr?$AAo?$AAr?$AA?5?$AAL?$AAC?$AAD?$AA_?$AAV?$AAB?$AAP?$AA?5?$AAo?$AAu?$AAt?$AA?5?$AAo?$AAf?$AA?5?$AAr?$AAa?$AAn?$AAg?$AAe?$AA?5?$AA?$AN?$AA?6?$AA?$AA@| DCB "e"
	DCB	0x0, "r", 0x0, "r", 0x0, "o", 0x0, "r", 0x0, " ", 0x0, "L"
	DCB	0x0, "C", 0x0, "D", 0x0, "_", 0x0, "V", 0x0, "B", 0x0, "P"
	DCB	0x0, " ", 0x0, "o", 0x0, "u", 0x0, "t", 0x0, " ", 0x0, "o"
	DCB	0x0, "f", 0x0, " ", 0x0, "r", 0x0, "a", 0x0, "n", 0x0, "g"
	DCB	0x0, "e", 0x0, " ", 0x0, 0xd, 0x0, 0xa, 0x0, 0x0, 0x0 ; `string'

  00000			 AREA	 |.rdata|, DATA, READONLY
|??_C@_1DM@MMOBHECK@?$AAe?$AAr?$AAr?$AAo?$AAr?$AA?5?$AAL?$AAC?$AAD?$AA_?$AAV?$AAF?$AAP?$AA?5?$AAo?$AAu?$AAt?$AA?5?$AAo?$AAf?$AA?5?$AAr?$AAa?$AAn?$AAg?$AAe?$AA?5?$AA?$AN?$AA?6?$AA?$AA@| DCB "e"
	DCB	0x0, "r", 0x0, "r", 0x0, "o", 0x0, "r", 0x0, " ", 0x0, "L"
	DCB	0x0, "C", 0x0, "D", 0x0, "_", 0x0, "V", 0x0, "F", 0x0, "P"
	DCB	0x0, " ", 0x0, "o", 0x0, "u", 0x0, "t", 0x0, " ", 0x0, "o"
	DCB	0x0, "f", 0x0, " ", 0x0, "r", 0x0, "a", 0x0, "n", 0x0, "g"
	DCB	0x0, "e", 0x0, " ", 0x0, 0xd, 0x0, 0xa, 0x0, 0x0, 0x0 ; `string'

  00000			 AREA	 |.rdata|, DATA, READONLY
|??_C@_1DM@PDNLKEIH@?$AAe?$AAr?$AAr?$AAo?$AAr?$AA?5?$AAL?$AAC?$AAD?$AA_?$AAV?$AAS?$AAW?$AA?5?$AAo?$AAu?$AAt?$AA?5?$AAo?$AAf?$AA?5?$AAr?$AAa?$AAn?$AAg?$AAe?$AA?5?$AA?$AN?$AA?6?$AA?$AA@| DCB "e"
	DCB	0x0, "r", 0x0, "r", 0x0, "o", 0x0, "r", 0x0, " ", 0x0, "L"
	DCB	0x0, "C", 0x0, "D", 0x0, "_", 0x0, "V", 0x0, "S", 0x0, "W"
	DCB	0x0, " ", 0x0, "o", 0x0, "u", 0x0, "t", 0x0, " ", 0x0, "o"
	DCB	0x0, "f", 0x0, " ", 0x0, "r", 0x0, "a", 0x0, "n", 0x0, "g"
	DCB	0x0, "e", 0x0, " ", 0x0, 0xd, 0x0, 0xa, 0x0, 0x0, 0x0 ; `string'

  00000			 AREA	 |.rdata|, DATA, READONLY
|??_C@_1DM@EMLMGKHA@?$AAe?$AAr?$AAr?$AAo?$AAr?$AA?5?$AAL?$AAC?$AAD?$AA_?$AAH?$AAB?$AAP?$AA?5?$AAo?$AAu?$AAt?$AA?5?$AAo?$AAf?$AA?5?$AAr?$AAa?$AAn?$AAg?$AAe?$AA?5?$AA?$AN?$AA?6?$AA?$AA@| DCB "e"
	DCB	0x0, "r", 0x0, "r", 0x0, "o", 0x0, "r", 0x0, " ", 0x0, "L"
	DCB	0x0, "C", 0x0, "D", 0x0, "_", 0x0, "H", 0x0, "B", 0x0, "P"
	DCB	0x0, " ", 0x0, "o", 0x0, "u", 0x0, "t", 0x0, " ", 0x0, "o"
	DCB	0x0, "f", 0x0, " ", 0x0, "r", 0x0, "a", 0x0, "n", 0x0, "g"
	DCB	0x0, "e", 0x0, " ", 0x0, 0xd, 0x0, 0xa, 0x0, 0x0, 0x0 ; `string'

  00000			 AREA	 |.rdata|, DATA, READONLY
|??_C@_1DM@BHAMJHDL@?$AAe?$AAr?$AAr?$AAo?$AAr?$AA?5?$AAL?$AAC?$AAD?$AA_?$AAH?$AAF?$AAP?$AA?5?$AAo?$AAu?$AAt?$AA?5?$AAo?$AAf?$AA?5?$AAr?$AAa?$AAn?$AAg?$AAe?$AA?5?$AA?$AN?$AA?6?$AA?$AA@| DCB "e"
	DCB	0x0, "r", 0x0, "r", 0x0, "o", 0x0, "r", 0x0, " ", 0x0, "L"
	DCB	0x0, "C", 0x0, "D", 0x0, "_", 0x0, "H", 0x0, "F", 0x0, "P"
	DCB	0x0, " ", 0x0, "o", 0x0, "u", 0x0, "t", 0x0, " ", 0x0, "o"
	DCB	0x0, "f", 0x0, " ", 0x0, "r", 0x0, "a", 0x0, "n", 0x0, "g"
	DCB	0x0, "e", 0x0, " ", 0x0, 0xd, 0x0, 0xa, 0x0, 0x0, 0x0 ; `string'

  00000			 AREA	 |.rdata|, DATA, READONLY
|??_C@_1DM@CIDGEHJG@?$AAe?$AAr?$AAr?$AAo?$AAr?$AA?5?$AAL?$AAC?$AAD?$AA_?$AAH?$AAS?$AAW?$AA?5?$AAo?$AAu?$AAt?$AA?5?$AAo?$AAf?$AA?5?$AAr?$AAa?$AAn?$AAg?$AAe?$AA?5?$AA?$AN?$AA?6?$AA?$AA@| DCB "e"
	DCB	0x0, "r", 0x0, "r", 0x0, "o", 0x0, "r", 0x0, " ", 0x0, "L"
	DCB	0x0, "C", 0x0, "D", 0x0, "_", 0x0, "H", 0x0, "S", 0x0, "W"
	DCB	0x0, " ", 0x0, "o", 0x0, "u", 0x0, "t", 0x0, " ", 0x0, "o"
	DCB	0x0, "f", 0x0, " ", 0x0, "r", 0x0, "a", 0x0, "n", 0x0, "g"
	DCB	0x0, "e", 0x0, " ", 0x0, 0xd, 0x0, 0xa, 0x0, 0x0, 0x0 ; `string'

  00000			 AREA	 |.rdata|, DATA, READONLY
|??_C@_1EO@MEBIGCL@?$AAG?$AAe?$AAt?$AAD?$AAi?$AAs?$AAp?$AAl?$AAa?$AAy?$AAR?$AAe?$AAs?$AAo?$AAl?$AAu?$AAt?$AAi?$AAo?$AAn?$AAF?$AAr?$AAo?$AAm?$AAB?$AAo?$AAo?$AAt?$AAA?$AAr?$AAg?$AAs@| DCB "G"
	DCB	0x0, "e", 0x0, "t", 0x0, "D", 0x0, "i", 0x0, "s", 0x0, "p"
	DCB	0x0, "l", 0x0, "a", 0x0, "y", 0x0, "R", 0x0, "e", 0x0, "s"
	DCB	0x0, "o", 0x0, "l", 0x0, "u", 0x0, "t", 0x0, "i", 0x0, "o"
	DCB	0x0, "n", 0x0, "F", 0x0, "r", 0x0, "o", 0x0, "m", 0x0, "B"
	DCB	0x0, "o", 0x0, "o", 0x0, "t", 0x0, "A", 0x0, "r", 0x0, "g"
	DCB	0x0, "s", 0x0, ":", 0x0, " ", 0x0, "%", 0x0, "x", 0x0, 0xd
	DCB	0x0, 0xa, 0x0, 0x0, 0x0			; `string'

  00000			 AREA	 |.rdata|, DATA, READONLY
|??_C@_1EC@MMOGAKLI@?$AAL?$AAc?$AAd?$AAP?$AAd?$AAd?$AA_?$AAL?$AAC?$AAD?$AA_?$AAI?$AAn?$AAi?$AAt?$AAR?$AAe?$AAs?$AAo?$AAl?$AAu?$AAt?$AAi?$AAo?$AAn?$AA?5?$AA?3?$AA?5?$AA?$CF?$AAx?$AA?$AN?$AA?6@| DCB "L"
	DCB	0x0, "c", 0x0, "d", 0x0, "P", 0x0, "d", 0x0, "d", 0x0, "_"
	DCB	0x0, "L", 0x0, "C", 0x0, "D", 0x0, "_", 0x0, "I", 0x0, "n"
	DCB	0x0, "i", 0x0, "t", 0x0, "R", 0x0, "e", 0x0, "s", 0x0, "o"
	DCB	0x0, "l", 0x0, "u", 0x0, "t", 0x0, "i", 0x0, "o", 0x0, "n"
	DCB	0x0, " ", 0x0, ":", 0x0, " ", 0x0, "%", 0x0, "x", 0x0, 0xd
	DCB	0x0, 0xa, 0x0, 0x0, 0x0			; `string'
; Function compile flags: /Ogspy

  00000			 AREA	 |.text|, CODE, ARM

  00000		 |LcdPdd_LCD_InitResolution| PROC

; 285  : {

  00000		 |$LN18@LcdPdd_LCD|
  00000	e92d4010	 stmdb       sp!, {r4, lr}
  00004		 |$M46322|

; 286  : 	RETAILMSG(1,(L"LcdPdd_LCD_InitResolution : %x\r\n",g_dwSelectedDSSResolution)); 

  00004	e59f413c	 ldr         r4, [pc, #0x13C]
  00008	e59f0134	 ldr         r0, [pc, #0x134]
  0000c	e5941288	 ldr         r1, [r4, #0x288]
  00010	eb000000	 bl          NKDbgPrintfW

; 287  : 	  
; 288  :     if (g_dwSelectedDSSResolution == OMAP_RES_INVALID) // OMAP_RES_INVALID = 8

  00014	e5943288	 ldr         r3, [r4, #0x288]
  00018	e3530008	 cmp         r3, #8
  0001c	1a00003e	 bne         |$LN1@LcdPdd_LCD|

; 289  :     {
; 290  :         GetDisplayResolutionFromBootArgs((DWORD *)&g_dwSelectedDSSResolution); // e-boot share_args

  00020	e2840fa2	 add         r0, r4, #0xA2, 30
  00024	eb000000	 bl          GetDisplayResolutionFromBootArgs

; 291  :         RETAILMSG(1,(L"GetDisplayResolutionFromBootArgs: %x\r\n",g_dwSelectedDSSResolution));

  00028	e5941288	 ldr         r1, [r4, #0x288]
  0002c	e59f010c	 ldr         r0, [pc, #0x10C]
  00030	eb000000	 bl          NKDbgPrintfW

; 292  :         if ((g_dwSelectedDSSResolution >= OMAP_RES_INVALID) || (g_dwSelectedDSSResolution <0))

  00034	e5942288	 ldr         r2, [r4, #0x288]
  00038	e3520008	 cmp         r2, #8
  0003c	aa000001	 bge         |$LN9@LcdPdd_LCD|
  00040	e3520000	 cmp         r2, #0
  00044	5a000002	 bpl         |$LN14@LcdPdd_LCD|
  00048		 |$LN9@LcdPdd_LCD|

; 293  :             g_dwSelectedDSSResolution = OMAP_LCD_DEFAULT;

  00048	e3a02000	 mov         r2, #0
  0004c	e5842288	 str         r2, [r4, #0x288]

; 294  : 
; 295  :         if (g_dwSelectedDSSResolution == OMAP_LCD_DEFAULT)

  00050	e3520000	 cmp         r2, #0
  00054		 |$LN14@LcdPdd_LCD|

; 296  :         {
; 297  :             bDVIEnabled = FALSE;

  00054	e59f30e0	 ldr         r3, [pc, #0xE0]
  00058	03a01000	 moveq       r1, #0

; 298  : 		}
; 299  :         else
; 300  :         {
; 301  :             bDVIEnabled = TRUE;

  0005c	13a01001	 movne       r1, #1
  00060	e5831000	 str         r1, [r3]

; 302  :         }
; 303  :         
; 304  :         if (LCD_HSW > 63)

  00064	e0823182	 add         r3, r2, r2, lsl #3
  00068	e0843183	 add         r3, r4, r3, lsl #3
  0006c	e593300c	 ldr         r3, [r3, #0xC]
  00070	e353003f	 cmp         r3, #0x3F
  00074	9a000002	 bls         |$LN6@LcdPdd_LCD|

; 305  :             RETAILMSG(1,(L"error LCD_HSW out of range \r\n"));

  00078	e59f00b8	 ldr         r0, [pc, #0xB8]
  0007c	eb000000	 bl          NKDbgPrintfW
  00080	e5942288	 ldr         r2, [r4, #0x288]
  00084		 |$LN6@LcdPdd_LCD|

; 306  :                     
; 307  :         if (LCD_HFP > 255)

  00084	e0823182	 add         r3, r2, r2, lsl #3
  00088	e0843183	 add         r3, r4, r3, lsl #3
  0008c	e5933010	 ldr         r3, [r3, #0x10]
  00090	e35300ff	 cmp         r3, #0xFF
  00094	9a000002	 bls         |$LN5@LcdPdd_LCD|

; 308  :             RETAILMSG(1,(L"error LCD_HFP out of range \r\n"));

  00098	e59f0094	 ldr         r0, [pc, #0x94]
  0009c	eb000000	 bl          NKDbgPrintfW
  000a0	e5942288	 ldr         r2, [r4, #0x288]
  000a4		 |$LN5@LcdPdd_LCD|

; 309  :                     
; 310  :         if (LCD_HBP > 255)

  000a4	e0823182	 add         r3, r2, r2, lsl #3
  000a8	e0843183	 add         r3, r4, r3, lsl #3
  000ac	e5933014	 ldr         r3, [r3, #0x14]
  000b0	e35300ff	 cmp         r3, #0xFF
  000b4	9a000002	 bls         |$LN4@LcdPdd_LCD|

; 311  :             RETAILMSG(1,(L"error LCD_HBP out of range \r\n"));

  000b8	e59f0070	 ldr         r0, [pc, #0x70]
  000bc	eb000000	 bl          NKDbgPrintfW
  000c0	e5942288	 ldr         r2, [r4, #0x288]
  000c4		 |$LN4@LcdPdd_LCD|

; 312  :                     
; 313  :         if (LCD_VSW > 63)

  000c4	e0823182	 add         r3, r2, r2, lsl #3
  000c8	e0843183	 add         r3, r4, r3, lsl #3
  000cc	e5933018	 ldr         r3, [r3, #0x18]
  000d0	e353003f	 cmp         r3, #0x3F
  000d4	9a000002	 bls         |$LN3@LcdPdd_LCD|

; 314  :             RETAILMSG(1,(L"error LCD_VSW out of range \r\n"));

  000d8	e59f004c	 ldr         r0, [pc, #0x4C]
  000dc	eb000000	 bl          NKDbgPrintfW
  000e0	e5942288	 ldr         r2, [r4, #0x288]
  000e4		 |$LN3@LcdPdd_LCD|

; 315  :                     
; 316  :         if (LCD_VFP > 255)

  000e4	e0823182	 add         r3, r2, r2, lsl #3
  000e8	e0843183	 add         r3, r4, r3, lsl #3
  000ec	e593301c	 ldr         r3, [r3, #0x1C]
  000f0	e35300ff	 cmp         r3, #0xFF
  000f4	9a000002	 bls         |$LN2@LcdPdd_LCD|

; 317  :             RETAILMSG(1,(L"error LCD_VFP out of range \r\n"));

  000f8	e59f0028	 ldr         r0, [pc, #0x28]
  000fc	eb000000	 bl          NKDbgPrintfW
  00100	e5942288	 ldr         r2, [r4, #0x288]
  00104		 |$LN2@LcdPdd_LCD|

; 318  :                     
; 319  :         if (LCD_VBP > 255)

  00104	e0823182	 add         r3, r2, r2, lsl #3
  00108	e0843183	 add         r3, r4, r3, lsl #3
  0010c	e5933020	 ldr         r3, [r3, #0x20]
  00110	e35300ff	 cmp         r3, #0xFF

; 320  :             RETAILMSG(1,(L"error LCD_VBP out of range \r\n"));

  00114	859f0008	 ldrhi       r0, [pc, #8]
  00118	8b000000	 blhi        NKDbgPrintfW
  0011c		 |$LN1@LcdPdd_LCD|

; 321  :     }
; 322  : }

  0011c	e8bd4010	 ldmia       sp!, {r4, lr}
  00120	e12fff1e	 bx          lr
  00124		 |$LN19@LcdPdd_LCD|
  00124		 |$LN20@LcdPdd_LCD|
  00124	00000000	 DCD         |??_C@_1DM@JHFBIJGB@?$AAe?$AAr?$AAr?$AAo?$AAr?$AA?5?$AAL?$AAC?$AAD?$AA_?$AAV?$AAB?$AAP?$AA?5?$AAo?$AAu?$AAt?$AA?5?$AAo?$AAf?$AA?5?$AAr?$AAa?$AAn?$AAg?$AAe?$AA?5?$AA?$AN?$AA?6?$AA?$AA@|
  00128		 |$LN21@LcdPdd_LCD|
  00128	00000000	 DCD         |??_C@_1DM@MMOBHECK@?$AAe?$AAr?$AAr?$AAo?$AAr?$AA?5?$AAL?$AAC?$AAD?$AA_?$AAV?$AAF?$AAP?$AA?5?$AAo?$AAu?$AAt?$AA?5?$AAo?$AAf?$AA?5?$AAr?$AAa?$AAn?$AAg?$AAe?$AA?5?$AA?$AN?$AA?6?$AA?$AA@|
  0012c		 |$LN22@LcdPdd_LCD|
  0012c	00000000	 DCD         |??_C@_1DM@PDNLKEIH@?$AAe?$AAr?$AAr?$AAo?$AAr?$AA?5?$AAL?$AAC?$AAD?$AA_?$AAV?$AAS?$AAW?$AA?5?$AAo?$AAu?$AAt?$AA?5?$AAo?$AAf?$AA?5?$AAr?$AAa?$AAn?$AAg?$AAe?$AA?5?$AA?$AN?$AA?6?$AA?$AA@|
  00130		 |$LN23@LcdPdd_LCD|
  00130	00000000	 DCD         |??_C@_1DM@EMLMGKHA@?$AAe?$AAr?$AAr?$AAo?$AAr?$AA?5?$AAL?$AAC?$AAD?$AA_?$AAH?$AAB?$AAP?$AA?5?$AAo?$AAu?$AAt?$AA?5?$AAo?$AAf?$AA?5?$AAr?$AAa?$AAn?$AAg?$AAe?$AA?5?$AA?$AN?$AA?6?$AA?$AA@|
  00134		 |$LN24@LcdPdd_LCD|
  00134	00000000	 DCD         |??_C@_1DM@BHAMJHDL@?$AAe?$AAr?$AAr?$AAo?$AAr?$AA?5?$AAL?$AAC?$AAD?$AA_?$AAH?$AAF?$AAP?$AA?5?$AAo?$AAu?$AAt?$AA?5?$AAo?$AAf?$AA?5?$AAr?$AAa?$AAn?$AAg?$AAe?$AA?5?$AA?$AN?$AA?6?$AA?$AA@|
  00138		 |$LN25@LcdPdd_LCD|
  00138	00000000	 DCD         |??_C@_1DM@CIDGEHJG@?$AAe?$AAr?$AAr?$AAo?$AAr?$AA?5?$AAL?$AAC?$AAD?$AA_?$AAH?$AAS?$AAW?$AA?5?$AAo?$AAu?$AAt?$AA?5?$AAo?$AAf?$AA?5?$AAr?$AAa?$AAn?$AAg?$AAe?$AA?5?$AA?$AN?$AA?6?$AA?$AA@|
  0013c		 |$LN26@LcdPdd_LCD|
  0013c	00000000	 DCD         |bDVIEnabled|
  00140		 |$LN27@LcdPdd_LCD|
  00140	00000000	 DCD         |??_C@_1EO@MEBIGCL@?$AAG?$AAe?$AAt?$AAD?$AAi?$AAs?$AAp?$AAl?$AAa?$AAy?$AAR?$AAe?$AAs?$AAo?$AAl?$AAu?$AAt?$AAi?$AAo?$AAn?$AAF?$AAr?$AAo?$AAm?$AAB?$AAo?$AAo?$AAt?$AAA?$AAr?$AAg?$AAs@|
  00144		 |$LN28@LcdPdd_LCD|
  00144	00000000	 DCD         |??_C@_1EC@MMOGAKLI@?$AAL?$AAc?$AAd?$AAP?$AAd?$AAd?$AA_?$AAL?$AAC?$AAD?$AA_?$AAI?$AAn?$AAi?$AAt?$AAR?$AAe?$AAs?$AAo?$AAl?$AAu?$AAt?$AAi?$AAo?$AAn?$AA?5?$AA?3?$AA?5?$AA?$CF?$AAx?$AA?$AN?$AA?6@|
  00148		 |$LN29@LcdPdd_LCD|
  00148	00000000	 DCD         |lcd_res_params|
  0014c		 |$M46323|

			 ENDP  ; |LcdPdd_LCD_InitResolution|

	EXPORT	|LcdPdd_GetMemory|
	IMPORT	|ConvertCAtoPA|

  00000			 AREA	 |.pdata|, PDATA
|$T46347| DCD	|$LN7@LcdPdd_Get|
	DCD	0x40000d01
; Function compile flags: /Ogspy

  00000			 AREA	 |.text|, CODE, ARM

  00000		 |LcdPdd_GetMemory| PROC

; 480  : {

  00000		 |$LN7@LcdPdd_Get|
  00000	e92d4010	 stmdb       sp!, {r4, lr}
  00004		 |$M46344|
  00004	e1a04001	 mov         r4, r1
  00008	e3500000	 cmp         r0, #0

; 481  :     //  Return video memory parameters
; 482  :     if( pVideoMemLen )
; 483  :         *pVideoMemLen = IMAGE_WINCE_DISPLAY_SIZE;

  0000c	13a0361a	 movne       r3, #0x1A, 12
  00010	15803000	 strne       r3, [r0]

; 484  : 
; 485  :     if( pVideoMemAddr )

  00014	e3540000	 cmp         r4, #0
  00018	0a000002	 beq         |$LN1@LcdPdd_Get|

; 486  :     {
; 487  :         DWORD videoCAAddr = IMAGE_WINCE_DISPLAY_CA;
; 488  :         *pVideoMemAddr = ConvertCAtoPA((DWORD *)videoCAAddr);

  0001c	e3a00322	 mov         r0, #0x22, 6
  00020	eb000000	 bl          ConvertCAtoPA
  00024	e5840000	 str         r0, [r4]
  00028		 |$LN1@LcdPdd_Get|

; 489  :     }
; 490  : 
; 491  :     return TRUE;

  00028	e3a00001	 mov         r0, #1

; 492  : }

  0002c	e8bd4010	 ldmia       sp!, {r4, lr}
  00030	e12fff1e	 bx          lr
  00034		 |$M46345|

			 ENDP  ; |LcdPdd_GetMemory|

	EXPORT	|LcdPdd_LCD_GetMode|
	EXPORT	|??_C@_1CK@MAEDKMBL@?$AA?6?$AA?$AN?$AA?$FL?$AAL?$AAC?$AAD?$AA?$FN?$AA?5?$AAW?$AA?3?$AA?$CF?$AAd?$AA?5?$AAH?$AA?3?$AA?$CF?$AAd?$AA?5?$AA?$AN?$AA?6?$AA?$AA@| [ DATA ] ; `string'
	IMPORT	|__rt_udiv|

  00000			 AREA	 |.pdata|, PDATA
|$T46361| DCD	|$LN9@LcdPdd_LCD@2|
	DCD	0x40003101

  00000			 AREA	 |.rdata|, DATA, READONLY
|??_C@_1CK@MAEDKMBL@?$AA?6?$AA?$AN?$AA?$FL?$AAL?$AAC?$AAD?$AA?$FN?$AA?5?$AAW?$AA?3?$AA?$CF?$AAd?$AA?5?$AAH?$AA?3?$AA?$CF?$AAd?$AA?5?$AA?$AN?$AA?6?$AA?$AA@| DCB 0xa
	DCB	0x0, 0xd, 0x0, "[", 0x0, "L", 0x0, "C", 0x0, "D", 0x0, "]"
	DCB	0x0, " ", 0x0, "W", 0x0, ":", 0x0, "%", 0x0, "d", 0x0, " "
	DCB	0x0, "H", 0x0, ":", 0x0, "%", 0x0, "d", 0x0, " ", 0x0, 0xd
	DCB	0x0, 0xa, 0x0, 0x0, 0x0			; `string'
; Function compile flags: /Ogspy

  00000			 AREA	 |.text|, CODE, ARM

  00000		 |LcdPdd_LCD_GetMode| PROC

; 502  : {

  00000		 |$LN9@LcdPdd_LCD@2|
  00000	e92d41f0	 stmdb       sp!, {r4 - r8, lr}
  00004		 |$M46358|
  00004	e1a08003	 mov         r8, r3
  00008	e1a04002	 mov         r4, r2
  0000c	e1a06001	 mov         r6, r1
  00010	e1a07000	 mov         r7, r0

; 503  : 
; 504  :     LcdPdd_LCD_InitResolution();        

  00014	eb000000	 bl          LcdPdd_LCD_InitResolution

; 505  :     
; 506  :     //  Return default LCD parameters
; 507  :     if( pPixelFormat )

  00018	e59f50a0	 ldr         r5, [pc, #0xA0]
  0001c	e3570000	 cmp         r7, #0

; 508  :         *pPixelFormat = DEFAULT_PIXELTYPE;

  00020	1595e288	 ldrne       lr, [r5, #0x288]
  00024	108ee18e	 addne       lr, lr, lr, lsl #3
  00028	1795e18e	 ldrne       lr, [r5, +lr, lsl #3]
  0002c	1587e000	 strne       lr, [r7]

; 509  : 
; 510  :     if( pWidth )

  00030	e3560000	 cmp         r6, #0

; 511  :         *pWidth = LCD_WIDTH;

  00034	15950288	 ldrne       r0, [r5, #0x288]
  00038	10800180	 addne       r0, r0, r0, lsl #3
  0003c	10850180	 addne       r0, r5, r0, lsl #3
  00040	15900004	 ldrne       r0, [r0, #4]
  00044	15860000	 strne       r0, [r6]

; 512  : 
; 513  :     if( pHeight )

  00048	e3540000	 cmp         r4, #0

; 514  :         *pHeight = LCD_HEIGHT;

  0004c	15953288	 ldrne       r3, [r5, #0x288]
  00050	10833183	 addne       r3, r3, r3, lsl #3
  00054	10853183	 addne       r3, r5, r3, lsl #3
  00058	15933008	 ldrne       r3, [r3, #8]
  0005c	15843000	 strne       r3, [r4]

; 515  : 
; 516  :     if ( pPixelClock )

  00060	e3580000	 cmp         r8, #0
  00064	0a00000a	 beq         |$LN1@LcdPdd_LCD@2|

; 517  :         *pPixelClock = (864000000 / BSP_DSS_CLKSEL_DSS1) / BSP_LCD_PIXCLKDIV;

  00068	e5953288	 ldr         r3, [r5, #0x288]
  0006c	e3a025ce	 mov         r2, #0xCE, 10
  00070	e2421b1a	 sub         r1, r2, #0x1A, 22
  00074	e0833183	 add         r3, r3, r3, lsl #3
  00078	e0854183	 add         r4, r5, r3, lsl #3
  0007c	e594002c	 ldr         r0, [r4, #0x2C]
  00080	eb000000	 bl          __rt_udiv
  00084	e1a01000	 mov         r1, r0
  00088	e5940028	 ldr         r0, [r4, #0x28]
  0008c	eb000000	 bl          __rt_udiv
  00090	e5880000	 str         r0, [r8]
  00094		 |$LN1@LcdPdd_LCD@2|

; 518  :    
; 519  : 	RETAILMSG(1, (TEXT("\n\r[LCD] W:%d H:%d \r\n"),LCD_WIDTH,LCD_HEIGHT));

  00094	e5953288	 ldr         r3, [r5, #0x288]
  00098	e59f001c	 ldr         r0, [pc, #0x1C]
  0009c	e0833183	 add         r3, r3, r3, lsl #3
  000a0	e0853183	 add         r3, r5, r3, lsl #3
  000a4	e5932008	 ldr         r2, [r3, #8]
  000a8	e5931004	 ldr         r1, [r3, #4]
  000ac	eb000000	 bl          NKDbgPrintfW

; 520  : 
; 521  :     return TRUE;

  000b0	e3a00001	 mov         r0, #1

; 522  : }

  000b4	e8bd41f0	 ldmia       sp!, {r4 - r8, lr}
  000b8	e12fff1e	 bx          lr
  000bc		 |$LN10@LcdPdd_LCD@2|
  000bc		 |$LN11@LcdPdd_LCD@2|
  000bc	00000000	 DCD         |??_C@_1CK@MAEDKMBL@?$AA?6?$AA?$AN?$AA?$FL?$AAL?$AAC?$AAD?$AA?$FN?$AA?5?$AAW?$AA?3?$AA?$CF?$AAd?$AA?5?$AAH?$AA?3?$AA?$CF?$AAd?$AA?5?$AA?$AN?$AA?6?$AA?$AA@|
  000c0		 |$LN12@LcdPdd_LCD@2|
  000c0	00000000	 DCD         |lcd_res_params|
  000c4		 |$M46359|

			 ENDP  ; |LcdPdd_LCD_GetMode|

	EXPORT	|LcdPdd_TV_GetMode|

  00000			 AREA	 |.pdata|, PDATA
|$T46376| DCD	|$LN8@LcdPdd_TV_|
	DCD	0x40000b00
; Function compile flags: /Ogspy

  00000			 AREA	 |.text|, CODE, ARM

  00000		 |LcdPdd_TV_GetMode| PROC

; 531  : {

  00000		 |$LN8@LcdPdd_TV_|
  00000		 |$M46373|
  00000	e3500000	 cmp         r0, #0

; 532  :     //  Return default TV parameters
; 533  :     if( pWidth )
; 534  :         #if BSP_TVOUT_PAL
; 535  :             *pWidth = PAL_WIDTH;
; 536  :         #else
; 537  :             *pWidth = NTSC_WIDTH;

  00004	13a03e2d	 movne       r3, #0x2D, 28
  00008	15803000	 strne       r3, [r0]

; 538  :         #endif
; 539  :             
; 540  :     if( pHeight )

  0000c	e3510000	 cmp         r1, #0

; 541  :         #if BSP_TVOUT_PAL
; 542  :             *pHeight = PAL_HEIGHT;
; 543  :         #else
; 544  :             *pHeight = NTSC_HEIGHT;

  00010	13a03e1e	 movne       r3, #0x1E, 28
  00014	15813000	 strne       r3, [r1]

; 545  :         #endif
; 546  : 
; 547  :     if( pMode )

  00018	e3520000	 cmp         r2, #0

; 548  :     {
; 549  :         #if BSP_TVOUT_COMPOSITE
; 550  :             *pMode = TVOUT_COMPOSITE;
; 551  :         #else
; 552  :             *pMode = TVOUT_SVIDEO;

  0001c	13a0300d	 movne       r3, #0xD
  00020	15823000	 strne       r3, [r2]

; 553  :         #endif
; 554  :     }
; 555  :         
; 556  :     return TRUE;

  00024	e3a00001	 mov         r0, #1

; 557  : }

  00028	e12fff1e	 bx          lr
  0002c		 |$M46374|

			 ENDP  ; |LcdPdd_TV_GetMode|

	EXPORT	|LcdPdd_SetPowerLevel|
	IMPORT	|LcdStall|
	IMPORT	|LcdPowerControl|
	IMPORT	|LcdResBControl|
	IMPORT	|LcdSleep|
	IMPORT	|LcdIniControl|
	IMPORT	|LcdDviEnableControl|

  00004			 AREA	 |.bss|, NOINIT
|g_pDispRegs| %	0x4
|g_pDispRegs| %	0x4

  00000			 AREA	 |.pdata|, PDATA
|$T46388| DCD	|$LN18@LcdPdd_Set|
	DCD	0x40004701
; Function compile flags: /Ogspy

  00000			 AREA	 |.text|, CODE, ARM

  00000		 |LcdPdd_SetPowerLevel| PROC

; 565  : {

  00000		 |$LN18@LcdPdd_Set|
  00000	e92d4030	 stmdb       sp!, {r4, r5, lr}
  00004		 |$M46385|
  00004	e1a04000	 mov         r4, r0

; 566  :     // Do nothing if LCD has not yet been initialized
; 567  :     if (g_pDispRegs == NULL)

  00008	e59f5108	 ldr         r5, [pc, #0x108]
  0000c	e5952000	 ldr         r2, [r5]
  00010	e3520000	 cmp         r2, #0

; 568  :         return FALSE;

  00014	03a00000	 moveq       r0, #0

; 657  : }   

  00018	08bd4030	 ldmeqia     sp!, {r4, r5, lr}
  0001c	012fff1e	 bxeq        lr

; 569  :         
; 570  :     // Power display up/down
; 571  :     switch(dwPowerLevel)

  00020	e3540002	 cmp         r4, #2
  00024	9a000010	 bls         |$LN8@LcdPdd_Set|
  00028	e3540004	 cmp         r4, #4
  0002c	8a000036	 bhi         |$LN4@LcdPdd_Set|

; 634  :             }
; 635  :             break;        
; 636  : 
; 637  :         case D3:
; 638  :         case D4:
; 639  :             // disable DVI
; 640  :             LcdDviEnableControl(FALSE);

  00030	e3a00000	 mov         r0, #0
  00034	eb000000	 bl          LcdDviEnableControl

; 641  : 
; 642  :             // LCD power disable sequence
; 643  :             // 1 - Clear INI
; 644  :             LcdIniControl(FALSE);

  00038	e3a00000	 mov         r0, #0
  0003c	eb000000	 bl          LcdIniControl

; 645  :                 
; 646  :             // 2 - Delay > 5 frames
; 647  :             LcdSleep(20*5);

  00040	e3a00064	 mov         r0, #0x64
  00044	eb000000	 bl          LcdSleep

; 648  :             
; 649  :             // 3 - Stop all
; 650  :             CLRREG32( &g_pDispRegs->DISPC_CONTROL, DISPC_CONTROL_LCDENABLE );        

  00048	e5952000	 ldr         r2, [r5]

; 651  :             LcdResBControl(FALSE);

  0004c	e3a00000	 mov         r0, #0
  00050	e5923040	 ldr         r3, [r2, #0x40]
  00054	e3c33001	 bic         r3, r3, #1
  00058	e5823040	 str         r3, [r2, #0x40]
  0005c	eb000000	 bl          LcdResBControl

; 652  :             LcdPowerControl(FALSE);

  00060	e3a00000	 mov         r0, #0
  00064	eb000000	 bl          LcdPowerControl

; 653  :             break;

  00068	ea000027	 b           |$LN4@LcdPdd_Set|
  0006c		 |$LN8@LcdPdd_Set|

; 572  :     {
; 573  :         case D0:
; 574  :         case D1:
; 575  :         case D2:
; 576  :             
; 577  :             if (bDVIEnabled)

  0006c	e5953004	 ldr         r3, [r5, #4]
  00070	e3530000	 cmp         r3, #0
  00074	e3a03906	 mov         r3, #6, 18
  00078	0a00000e	 beq         |$LN7@LcdPdd_Set|

; 578  :             {
; 579  :                 // change output format to 24 bit
; 580  :                 OUTREG32( &g_pDispRegs->DISPC_CONTROL,
; 581  :                         DISPC_CONTROL_GPOUT1 |
; 582  :                         DISPC_CONTROL_GPOUT0 |
; 583  :                         DISPC_CONTROL_TFTDATALINES_24 |
; 584  :                         DISPC_CONTROL_STNTFT
; 585  :                         );

  0007c	e3833fc2	 orr         r3, r3, #0xC2, 30
  00080	e5823040	 str         r3, [r2, #0x40]

; 586  : 
; 587  :                 // Apply display configuration
; 588  :                 SETREG32(&g_pDispRegs->DISPC_CONTROL, DISPC_CONTROL_GOLCD);

  00084	e5923040	 ldr         r3, [r2, #0x40]

; 589  : 
; 590  :                 // start scanning
; 591  :                 
; 592  :                 if (dwPowerLevel == D2)

  00088	e3540002	 cmp         r4, #2

; 593  :                     CLRREG32( &g_pDispRegs->DISPC_CONTROL, DISPC_CONTROL_LCDENABLE );        
; 594  :                 else
; 595  :                     SETREG32( &g_pDispRegs->DISPC_CONTROL, DISPC_CONTROL_LCDENABLE );        
; 596  :                 LcdSleep(20);

  0008c	e3a00014	 mov         r0, #0x14
  00090	e3833020	 orr         r3, r3, #0x20
  00094	e5823040	 str         r3, [r2, #0x40]
  00098	e5923040	 ldr         r3, [r2, #0x40]
  0009c	03c33001	 biceq       r3, r3, #1
  000a0	13833001	 orrne       r3, r3, #1
  000a4	e5823040	 str         r3, [r2, #0x40]
  000a8	eb000000	 bl          LcdSleep

; 597  :                 // enable DVI
; 598  :                 LcdDviEnableControl(TRUE);

  000ac	e3a00001	 mov         r0, #1
  000b0	eb000000	 bl          LcdDviEnableControl

; 599  :             }
; 600  :             else

  000b4	ea000014	 b           |$LN4@LcdPdd_Set|
  000b8		 |$LN7@LcdPdd_Set|

; 601  :             {
; 602  :                 // change output format to 18 bit
; 603  :                 OUTREG32( &g_pDispRegs->DISPC_CONTROL,
; 604  :                         DISPC_CONTROL_GPOUT1 |
; 605  :                         DISPC_CONTROL_GPOUT0 |
; 606  :                         DISPC_CONTROL_TFTDATALINES_16 |
; 607  :                         DISPC_CONTROL_STNTFT
; 608  :                         );

  000b8	e3833f42	 orr         r3, r3, #0x42, 30
  000bc	e5823040	 str         r3, [r2, #0x40]

; 609  : 
; 610  :                 // Apply display configuration
; 611  :                 SETREG32(&g_pDispRegs->DISPC_CONTROL, DISPC_CONTROL_GOLCD);

  000c0	e5923040	 ldr         r3, [r2, #0x40]

; 612  : 
; 613  :                 // LCD power enable sequence
; 614  :                 // 1 - Turn on power
; 615  :                 LcdPowerControl(TRUE);

  000c4	e3a00001	 mov         r0, #1
  000c8	e3833020	 orr         r3, r3, #0x20
  000cc	e5823040	 str         r3, [r2, #0x40]
  000d0	eb000000	 bl          LcdPowerControl

; 616  :                         
; 617  :                 // 2 - Start scanning
; 618  :                 if (dwPowerLevel == D2)
; 619  :                     CLRREG32( &g_pDispRegs->DISPC_CONTROL, DISPC_CONTROL_LCDENABLE );        

  000d4	e5952000	 ldr         r2, [r5]
  000d8	e3540002	 cmp         r4, #2

; 620  :                 else
; 621  :                     SETREG32( &g_pDispRegs->DISPC_CONTROL, DISPC_CONTROL_LCDENABLE );        
; 622  :     
; 623  :             
; 624  :                 // 3 - Delay for minimum 20uS
; 625  :                 LcdStall(50);

  000dc	e3a00032	 mov         r0, #0x32
  000e0	e5923040	 ldr         r3, [r2, #0x40]
  000e4	03c33001	 biceq       r3, r3, #1
  000e8	13833001	 orrne       r3, r3, #1
  000ec	e5823040	 str         r3, [r2, #0x40]
  000f0	eb000000	 bl          LcdStall

; 626  :             
; 627  :                 // 4 - Raise RESB
; 628  :                 LcdResBControl(TRUE);

  000f4	e3a00001	 mov         r0, #1
  000f8	eb000000	 bl          LcdResBControl

; 629  :             
; 630  :                 LcdStall(10);

  000fc	e3a0000a	 mov         r0, #0xA
  00100	eb000000	 bl          LcdStall

; 631  :             
; 632  :                 // 5 - Raise INI
; 633  :                 LcdIniControl(TRUE);

  00104	e3a00001	 mov         r0, #1
  00108	eb000000	 bl          LcdIniControl
  0010c		 |$LN4@LcdPdd_Set|

; 654  :     }
; 655  :         
; 656  :     return TRUE;

  0010c	e3a00001	 mov         r0, #1

; 657  : }   

  00110	e8bd4030	 ldmia       sp!, {r4, r5, lr}
  00114	e12fff1e	 bx          lr
  00118		 |$LN19@LcdPdd_Set|
  00118		 |$LN20@LcdPdd_Set|
  00118	00000000	 DCD         |g_pDispRegs|
  0011c		 |$M46386|

			 ENDP  ; |LcdPdd_SetPowerLevel|

	EXPORT	|LcdPdd_DVI_Select|

  00000			 AREA	 |.pdata|, PDATA
|$T46400| DCD	|$LN5@LcdPdd_DVI|
	DCD	0x40000600
; Function compile flags: /Ogspy

  00000			 AREA	 |.text|, CODE, ARM

  00000		 |LcdPdd_DVI_Select| PROC

; 664  : {

  00000		 |$LN5@LcdPdd_DVI|
  00000		 |$M46397|
  00000	e1a02000	 mov         r2, r0

; 665  : 
; 666  :     // only changes the select variable, does not perform the change
; 667  :     bDVIEnabled = bEnable;

  00004	e59f3008	 ldr         r3, [pc, #8]

; 668  :     return TRUE;

  00008	e3a00001	 mov         r0, #1
  0000c	e5832000	 str         r2, [r3]

; 669  : }

  00010	e12fff1e	 bx          lr
  00014		 |$LN6@LcdPdd_DVI|
  00014		 |$LN7@LcdPdd_DVI|
  00014	00000000	 DCD         |bDVIEnabled|
  00018		 |$M46398|

			 ENDP  ; |LcdPdd_DVI_Select|

	EXPORT	|LcdPdd_DVI_Enabled|

  00000			 AREA	 |.pdata|, PDATA
|$T46411| DCD	|$LN5@LcdPdd_DVI@2|
	DCD	0x40000701
; Function compile flags: /Ogspy

  00000			 AREA	 |.text|, CODE, ARM

  00000		 |LcdPdd_DVI_Enabled| PROC

; 674  : {

  00000		 |$LN5@LcdPdd_DVI@2|
  00000	e52de004	 str         lr, [sp, #-4]!
  00004		 |$M46408|

; 675  :     LcdPdd_LCD_InitResolution();

  00004	eb000000	 bl          LcdPdd_LCD_InitResolution

; 676  :     return bDVIEnabled;

  00008	e59f3008	 ldr         r3, [pc, #8]
  0000c	e5930000	 ldr         r0, [r3]

; 677  : }

  00010	e49de004	 ldr         lr, [sp], #4
  00014	e12fff1e	 bx          lr
  00018		 |$LN6@LcdPdd_DVI@2|
  00018		 |$LN7@LcdPdd_DVI@2|
  00018	00000000	 DCD         |bDVIEnabled|
  0001c		 |$M46409|

			 ENDP  ; |LcdPdd_DVI_Enabled|

	EXPORT	|LcdPdd_Get_PixClkDiv|

  00000			 AREA	 |.pdata|, PDATA
|$T46422| DCD	|$LN5@LcdPdd_Get@2|
	DCD	0x40000a01
; Function compile flags: /Ogspy

  00000			 AREA	 |.text|, CODE, ARM

  00000		 |LcdPdd_Get_PixClkDiv| PROC

; 682  : {

  00000		 |$LN5@LcdPdd_Get@2|
  00000	e52de004	 str         lr, [sp, #-4]!
  00004		 |$M46419|

; 683  :     LcdPdd_LCD_InitResolution();

  00004	eb000000	 bl          LcdPdd_LCD_InitResolution

; 684  :     return LCD_PIXCLKDIV;

  00008	e59f3014	 ldr         r3, [pc, #0x14]
  0000c	e5931288	 ldr         r1, [r3, #0x288]
  00010	e2832028	 add         r2, r3, #0x28
  00014	e0813181	 add         r3, r1, r1, lsl #3
  00018	e7920183	 ldr         r0, [r2, +r3, lsl #3]

; 685  : }

  0001c	e49de004	 ldr         lr, [sp], #4
  00020	e12fff1e	 bx          lr
  00024		 |$LN6@LcdPdd_Get@2|
  00024		 |$LN7@LcdPdd_Get@2|
  00024	00000000	 DCD         |lcd_res_params|
  00028		 |$M46420|

			 ENDP  ; |LcdPdd_Get_PixClkDiv|

	EXPORT	|LcdPdd_LCD_Initialize|
	EXPORT	|??_C@_1DA@OJECMNEO@?$AAR?$AAF?$AAB?$AAI?$AA_?$AAS?$AAY?$AAS?$AAC?$AAO?$AAN?$AAF?$AAI?$AAG?$AA?5?$AA?$DN?$AA?5?$AA0?$AAx?$AA?$CF?$AAx?$AA?6?$AA?$AN?$AA?$AA@| [ DATA ] ; `string'
	EXPORT	|??_C@_1DE@OOEMGABO@?$AAR?$AAF?$AAB?$AAI?$AA_?$AAO?$AAN?$AAO?$AAF?$AAF?$AA_?$AAT?$AAI?$AAM?$AAE?$AA0?$AA?5?$AA?$DN?$AA?5?$AA0?$AAx?$AA?$CF?$AAx?$AA?6?$AA?$AN?$AA?$AA@| [ DATA ] ; `string'
	EXPORT	|??_C@_1DE@BPFHLJ@?$AAR?$AAF?$AAB?$AAI?$AA_?$AAC?$AAY?$AAC?$AAL?$AAE?$AA_?$AAT?$AAI?$AAM?$AAE?$AA0?$AA?5?$AA?$DN?$AA?5?$AA0?$AAx?$AA?$CF?$AAx?$AA?6?$AA?$AN?$AA?$AA@| [ DATA ] ; `string'
	EXPORT	|??_C@_1CM@BLPHGNEH@?$AAR?$AAF?$AAB?$AAI?$AA_?$AAC?$AAO?$AAN?$AAF?$AAI?$AAG?$AA0?$AA?5?$AA?$DN?$AA?5?$AA0?$AAx?$AA?$CF?$AAx?$AA?6?$AA?$AN?$AA?$AA@| [ DATA ] ; `string'
	EXPORT	|??_C@_1DM@LIEKHEHK@?$AAD?$AAI?$AAS?$AAP?$AAC?$AA_?$AAG?$AAF?$AAX?$AA_?$AAA?$AAT?$AAT?$AAR?$AAI?$AAB?$AAU?$AAT?$AAE?$AAS?$AA?5?$AA?$DN?$AA?5?$AA0?$AAx?$AA?$CF?$AAx?$AA?6?$AA?$AN?$AA?$AA@| [ DATA ] ; `string'
	EXPORT	|??_C@_1CO@DIPDPAEO@?$AAD?$AAI?$AAS?$AAP?$AAC?$AA_?$AAC?$AAO?$AAN?$AAT?$AAR?$AAO?$AAL?$AA?5?$AA?$DN?$AA?5?$AA0?$AAx?$AA?$CF?$AAx?$AA?6?$AA?$AN?$AA?$AA@| [ DATA ] ; `string'
	EXPORT	|??_C@_1CM@NCCGKPGK@?$AAR?$AAF?$AAB?$AAI?$AA_?$AAC?$AAO?$AAN?$AAT?$AAR?$AAO?$AAL?$AA?5?$AA?$DN?$AA?5?$AA0?$AAx?$AA?$CF?$AAx?$AA?6?$AA?$AN?$AA?$AA@| [ DATA ] ; `string'
	EXPORT	|??_C@_1CO@HPIDKBDN@?$AAC?$AAM?$AA_?$AAI?$AAC?$AAL?$AAK?$AAE?$AAN?$AA_?$AAD?$AAS?$AAS?$AA?5?$AA?$DN?$AA?5?$AA0?$AAx?$AA?$CF?$AAx?$AA?6?$AA?$AN?$AA?$AA@| [ DATA ] ; `string'
	EXPORT	|??_C@_1CO@PPMNNDJF@?$AAC?$AAM?$AA_?$AAF?$AAC?$AAL?$AAK?$AAE?$AAN?$AA_?$AAD?$AAS?$AAS?$AA?5?$AA?$DN?$AA?5?$AA0?$AAx?$AA?$CF?$AAx?$AA?6?$AA?$AN?$AA?$AA@| [ DATA ] ; `string'
	EXPORT	|??_C@_1EE@POJFJFPA@?$AA?6?$AA?$AN?$AA?$CK?$AA?$CK?$AA?$CK?$AA?5?$AAL?$AAc?$AAd?$AAP?$AAd?$AAd?$AA_?$AAL?$AAC?$AAD?$AA_?$AAI?$AAn?$AAi?$AAt?$AAi?$AAa?$AAl?$AAi?$AAz?$AAe?$AA?5?$AA?$CK?$AA?$CK?$AA?$CK?$AA?6@| [ DATA ] ; `string'
	IMPORT	|MmMapIoSpace|

  00000			 AREA	 |.pdata|, PDATA
|$T46441| DCD	|$LN14@LcdPdd_LCD@3|
	DCD	0x40009001

  00000			 AREA	 |.rdata|, DATA, READONLY
|??_C@_1DA@OJECMNEO@?$AAR?$AAF?$AAB?$AAI?$AA_?$AAS?$AAY?$AAS?$AAC?$AAO?$AAN?$AAF?$AAI?$AAG?$AA?5?$AA?$DN?$AA?5?$AA0?$AAx?$AA?$CF?$AAx?$AA?6?$AA?$AN?$AA?$AA@| DCB "R"
	DCB	0x0, "F", 0x0, "B", 0x0, "I", 0x0, "_", 0x0, "S", 0x0, "Y"
	DCB	0x0, "S", 0x0, "C", 0x0, "O", 0x0, "N", 0x0, "F", 0x0, "I"
	DCB	0x0, "G", 0x0, " ", 0x0, "=", 0x0, " ", 0x0, "0", 0x0, "x"
	DCB	0x0, "%", 0x0, "x", 0x0, 0xa, 0x0, 0xd, 0x0, 0x0, 0x0 ; `string'

  00000			 AREA	 |.rdata|, DATA, READONLY
|??_C@_1DE@OOEMGABO@?$AAR?$AAF?$AAB?$AAI?$AA_?$AAO?$AAN?$AAO?$AAF?$AAF?$AA_?$AAT?$AAI?$AAM?$AAE?$AA0?$AA?5?$AA?$DN?$AA?5?$AA0?$AAx?$AA?$CF?$AAx?$AA?6?$AA?$AN?$AA?$AA@| DCB "R"
	DCB	0x0, "F", 0x0, "B", 0x0, "I", 0x0, "_", 0x0, "O", 0x0, "N"
	DCB	0x0, "O", 0x0, "F", 0x0, "F", 0x0, "_", 0x0, "T", 0x0, "I"
	DCB	0x0, "M", 0x0, "E", 0x0, "0", 0x0, " ", 0x0, "=", 0x0, " "
	DCB	0x0, "0", 0x0, "x", 0x0, "%", 0x0, "x", 0x0, 0xa, 0x0, 0xd
	DCB	0x0, 0x0, 0x0				; `string'

  00000			 AREA	 |.rdata|, DATA, READONLY
|??_C@_1DE@BPFHLJ@?$AAR?$AAF?$AAB?$AAI?$AA_?$AAC?$AAY?$AAC?$AAL?$AAE?$AA_?$AAT?$AAI?$AAM?$AAE?$AA0?$AA?5?$AA?$DN?$AA?5?$AA0?$AAx?$AA?$CF?$AAx?$AA?6?$AA?$AN?$AA?$AA@| DCB "R"
	DCB	0x0, "F", 0x0, "B", 0x0, "I", 0x0, "_", 0x0, "C", 0x0, "Y"
	DCB	0x0, "C", 0x0, "L", 0x0, "E", 0x0, "_", 0x0, "T", 0x0, "I"
	DCB	0x0, "M", 0x0, "E", 0x0, "0", 0x0, " ", 0x0, "=", 0x0, " "
	DCB	0x0, "0", 0x0, "x", 0x0, "%", 0x0, "x", 0x0, 0xa, 0x0, 0xd
	DCB	0x0, 0x0, 0x0				; `string'

  00000			 AREA	 |.rdata|, DATA, READONLY
|??_C@_1CM@BLPHGNEH@?$AAR?$AAF?$AAB?$AAI?$AA_?$AAC?$AAO?$AAN?$AAF?$AAI?$AAG?$AA0?$AA?5?$AA?$DN?$AA?5?$AA0?$AAx?$AA?$CF?$AAx?$AA?6?$AA?$AN?$AA?$AA@| DCB "R"
	DCB	0x0, "F", 0x0, "B", 0x0, "I", 0x0, "_", 0x0, "C", 0x0, "O"
	DCB	0x0, "N", 0x0, "F", 0x0, "I", 0x0, "G", 0x0, "0", 0x0, " "
	DCB	0x0, "=", 0x0, " ", 0x0, "0", 0x0, "x", 0x0, "%", 0x0, "x"
	DCB	0x0, 0xa, 0x0, 0xd, 0x0, 0x0, 0x0	; `string'

  00000			 AREA	 |.rdata|, DATA, READONLY
|??_C@_1DM@LIEKHEHK@?$AAD?$AAI?$AAS?$AAP?$AAC?$AA_?$AAG?$AAF?$AAX?$AA_?$AAA?$AAT?$AAT?$AAR?$AAI?$AAB?$AAU?$AAT?$AAE?$AAS?$AA?5?$AA?$DN?$AA?5?$AA0?$AAx?$AA?$CF?$AAx?$AA?6?$AA?$AN?$AA?$AA@| DCB "D"
	DCB	0x0, "I", 0x0, "S", 0x0, "P", 0x0, "C", 0x0, "_", 0x0, "G"
	DCB	0x0, "F", 0x0, "X", 0x0, "_", 0x0, "A", 0x0, "T", 0x0, "T"
	DCB	0x0, "R", 0x0, "I", 0x0, "B", 0x0, "U", 0x0, "T", 0x0, "E"
	DCB	0x0, "S", 0x0, " ", 0x0, "=", 0x0, " ", 0x0, "0", 0x0, "x"
	DCB	0x0, "%", 0x0, "x", 0x0, 0xa, 0x0, 0xd, 0x0, 0x0, 0x0 ; `string'

  00000			 AREA	 |.rdata|, DATA, READONLY
|??_C@_1CO@DIPDPAEO@?$AAD?$AAI?$AAS?$AAP?$AAC?$AA_?$AAC?$AAO?$AAN?$AAT?$AAR?$AAO?$AAL?$AA?5?$AA?$DN?$AA?5?$AA0?$AAx?$AA?$CF?$AAx?$AA?6?$AA?$AN?$AA?$AA@| DCB "D"
	DCB	0x0, "I", 0x0, "S", 0x0, "P", 0x0, "C", 0x0, "_", 0x0, "C"
	DCB	0x0, "O", 0x0, "N", 0x0, "T", 0x0, "R", 0x0, "O", 0x0, "L"
	DCB	0x0, " ", 0x0, "=", 0x0, " ", 0x0, "0", 0x0, "x", 0x0, "%"
	DCB	0x0, "x", 0x0, 0xa, 0x0, 0xd, 0x0, 0x0, 0x0 ; `string'

  00000			 AREA	 |.rdata|, DATA, READONLY
|??_C@_1CM@NCCGKPGK@?$AAR?$AAF?$AAB?$AAI?$AA_?$AAC?$AAO?$AAN?$AAT?$AAR?$AAO?$AAL?$AA?5?$AA?$DN?$AA?5?$AA0?$AAx?$AA?$CF?$AAx?$AA?6?$AA?$AN?$AA?$AA@| DCB "R"
	DCB	0x0, "F", 0x0, "B", 0x0, "I", 0x0, "_", 0x0, "C", 0x0, "O"
	DCB	0x0, "N", 0x0, "T", 0x0, "R", 0x0, "O", 0x0, "L", 0x0, " "
	DCB	0x0, "=", 0x0, " ", 0x0, "0", 0x0, "x", 0x0, "%", 0x0, "x"
	DCB	0x0, 0xa, 0x0, 0xd, 0x0, 0x0, 0x0	; `string'

  00000			 AREA	 |.rdata|, DATA, READONLY
|??_C@_1CO@HPIDKBDN@?$AAC?$AAM?$AA_?$AAI?$AAC?$AAL?$AAK?$AAE?$AAN?$AA_?$AAD?$AAS?$AAS?$AA?5?$AA?$DN?$AA?5?$AA0?$AAx?$AA?$CF?$AAx?$AA?6?$AA?$AN?$AA?$AA@| DCB "C"
	DCB	0x0, "M", 0x0, "_", 0x0, "I", 0x0, "C", 0x0, "L", 0x0, "K"
	DCB	0x0, "E", 0x0, "N", 0x0, "_", 0x0, "D", 0x0, "S", 0x0, "S"
	DCB	0x0, " ", 0x0, "=", 0x0, " ", 0x0, "0", 0x0, "x", 0x0, "%"
	DCB	0x0, "x", 0x0, 0xa, 0x0, 0xd, 0x0, 0x0, 0x0 ; `string'

  00000			 AREA	 |.rdata|, DATA, READONLY
|??_C@_1CO@PPMNNDJF@?$AAC?$AAM?$AA_?$AAF?$AAC?$AAL?$AAK?$AAE?$AAN?$AA_?$AAD?$AAS?$AAS?$AA?5?$AA?$DN?$AA?5?$AA0?$AAx?$AA?$CF?$AAx?$AA?6?$AA?$AN?$AA?$AA@| DCB "C"
	DCB	0x0, "M", 0x0, "_", 0x0, "F", 0x0, "C", 0x0, "L", 0x0, "K"
	DCB	0x0, "E", 0x0, "N", 0x0, "_", 0x0, "D", 0x0, "S", 0x0, "S"
	DCB	0x0, " ", 0x0, "=", 0x0, " ", 0x0, "0", 0x0, "x", 0x0, "%"
	DCB	0x0, "x", 0x0, 0xa, 0x0, 0xd, 0x0, 0x0, 0x0 ; `string'

  00000			 AREA	 |.rdata|, DATA, READONLY
|??_C@_1EE@POJFJFPA@?$AA?6?$AA?$AN?$AA?$CK?$AA?$CK?$AA?$CK?$AA?5?$AAL?$AAc?$AAd?$AAP?$AAd?$AAd?$AA_?$AAL?$AAC?$AAD?$AA_?$AAI?$AAn?$AAi?$AAt?$AAi?$AAa?$AAl?$AAi?$AAz?$AAe?$AA?5?$AA?$CK?$AA?$CK?$AA?$CK?$AA?6@| DCB 0xa
	DCB	0x0, 0xd, 0x0, "*", 0x0, "*", 0x0, "*", 0x0, " ", 0x0, "L"
	DCB	0x0, "c", 0x0, "d", 0x0, "P", 0x0, "d", 0x0, "d", 0x0, "_"
	DCB	0x0, "L", 0x0, "C", 0x0, "D", 0x0, "_", 0x0, "I", 0x0, "n"
	DCB	0x0, "i", 0x0, "t", 0x0, "i", 0x0, "a", 0x0, "l", 0x0, "i"
	DCB	0x0, "z", 0x0, "e", 0x0, " ", 0x0, "*", 0x0, "*", 0x0, "*"
	DCB	0x0, 0xa, 0x0, 0xd, 0x0, 0x0, 0x0	; `string'
; Function compile flags: /Ogspy

  00000			 AREA	 |.text|, CODE, ARM

  00000		 |LcdPdd_LCD_Initialize| PROC

; 332  : {

  00000		 |$LN14@LcdPdd_LCD@3|
  00000	e92d4070	 stmdb       sp!, {r4 - r6, lr}
  00004		 |$M46438|
  00004	e1a04002	 mov         r4, r2
  00008	e1a06001	 mov         r6, r1

; 333  :     PHYSICAL_ADDRESS pa;
; 334  :     OMAP_PRCM_DSS_CM_REGS *pPrcmDssCM;
; 335  :     int reon = 4;
; 336  :     int reoff = 10;
; 337  :     int recyc = 12;
; 338  : 	int weon = 4;
; 339  :     int weoff = 10;
; 340  :     int wecyc = 12;
; 341  :     int cson = 2;
; 342  :     int csoff = 12;
; 343  :     int cs_pulse = 2;
; 344  :     int actim = 8;
; 345  :     
; 346  :     DWORD stime;
; 347  :     
; 348  :     RETAILMSG(1,(L"\n\r*** LcdPdd_LCD_Initialize ***\n\r"));

  0000c	e59f0228	 ldr         r0, [pc, #0x228]
  00010	eb000000	 bl          NKDbgPrintfW
  00014	e3a03312	 mov         r3, #0x12, 6

; 349  : 
; 350  : 	UNREFERENCED_PARAMETER(pVencRegs);
; 351  : 	//UNREFERENCED_PARAMETER(pRfbiRegs);
; 352  : 	UNREFERENCED_PARAMETER(pDSSRegs);
; 353  : 
; 354  : //    LcdPdd_LCD_InitResolution();
; 355  :     
; 356  :     pa.QuadPart = OMAP_PRCM_DSS_CM_REGS_PA;    

  00018	e3830c4e	 orr         r0, r3, #0x4E, 24

; 357  :     pPrcmDssCM = (OMAP_PRCM_DSS_CM_REGS*)MmMapIoSpace(pa, sizeof(OMAP_PRCM_DSS_CM_REGS), FALSE);

  0001c	e3a03000	 mov         r3, #0
  00020	e3a01000	 mov         r1, #0
  00024	e3a02050	 mov         r2, #0x50
  00028	eb000000	 bl          MmMapIoSpace
  0002c	e1b05000	 movs        r5, r0

; 358  :     if (pPrcmDssCM == NULL) return FALSE;

  00030	03a00000	 moveq       r0, #0

; 472  : }

  00034	08bd4070	 ldmeqia     sp!, {r4 - r6, lr}
  00038	012fff1e	 bxeq        lr

; 359  : 
; 360  :     // Store pointer to display controller for future use
; 361  :     g_pDispRegs = pDispRegs;
; 362  :     
; 363  :     // Initialize GPIO
; 364  : /*    LcdInitGpio();
; 365  :     RETAILMSG(1,(L"g_dwSelectedDSSResolution = 0x%x\n\r",g_dwSelectedDSSResolution));
; 366  :     RETAILMSG(1,(L"BSP_CM_CLKSEL_DSS = 0x%x\n\r",BSP_CM_CLKSEL_DSS));
; 367  :     RETAILMSG(1,(L"pDispRegs = 0x%x\n\r",pDispRegs));
; 368  :     RETAILMSG(1,(L"pRfbiRegs = 0x%x\n\r",pRfbiRegs));
; 369  :     */
; 370  :     // setup the DSS1 clock divider - disable DSS1 clock, change divider, enable DSS clock
; 371  :     //OUTREG32(&pPrcmDssCM->CM_FCLKEN_DSS, INREG32(&pPrcmDssCM->CM_FCLKEN_DSS) & ~CM_CLKEN_DSS1);
; 372  :     //OUTREG32(&pPrcmDssCM->CM_CLKSEL_DSS, BSP_CM_CLKSEL_DSS);
; 373  :     OUTREG32(&pPrcmDssCM->CM_ICLKEN_DSS, INREG32(&pPrcmDssCM->CM_ICLKEN_DSS) | CM_CLKEN_DSS);

  0003c	e5953010	 ldr         r3, [r5, #0x10]
  00040	e59f21f0	 ldr         r2, [pc, #0x1F0]

; 374  :     RETAILMSG(1,(L"CM_ICLKEN_DSS = 0x%x\n\r",INREG32(&pPrcmDssCM->CM_ICLKEN_DSS)));

  00044	e59f01e8	 ldr         r0, [pc, #0x1E8]
  00048	e3833001	 orr         r3, r3, #1
  0004c	e5853010	 str         r3, [r5, #0x10]
  00050	e5951010	 ldr         r1, [r5, #0x10]
  00054	e5826000	 str         r6, [r2]
  00058	eb000000	 bl          NKDbgPrintfW

; 375  :     OUTREG32(&pPrcmDssCM->CM_FCLKEN_DSS, INREG32(&pPrcmDssCM->CM_FCLKEN_DSS) | CM_CLKEN_DSS1);

  0005c	e5953000	 ldr         r3, [r5]

; 376  :     RETAILMSG(1,(L"CM_FCLKEN_DSS = 0x%x\n\r",INREG32(&pPrcmDssCM->CM_FCLKEN_DSS)));    

  00060	e59f01c8	 ldr         r0, [pc, #0x1C8]
  00064	e3833001	 orr         r3, r3, #1
  00068	e5853000	 str         r3, [r5]
  0006c	e5951000	 ldr         r1, [r5]
  00070	eb000000	 bl          NKDbgPrintfW

; 377  :    
; 378  : 	// reset
; 379  :     OUTREG32(&pRfbiRegs->RFBI_SYSCONFIG, RFBI_SOFTRESET);

  00074	e3a03002	 mov         r3, #2
  00078	e5843010	 str         r3, [r4, #0x10]
  0007c		 |$LL5@LcdPdd_LCD@3|

; 380  :     while( !(INREG32(&pRfbiRegs->RFBI_SYSSTATUS) & RFBI_RESETDONE) )

  0007c	e5943014	 ldr         r3, [r4, #0x14]
  00080	e3130001	 tst         r3, #1
  00084	0afffffc	 beq         |$LL5@LcdPdd_LCD@3|

; 381  :     	;
; 382  :     // enable autoidle and smart-idle
; 383  : 	OUTREG32(&pRfbiRegs->RFBI_SYSCONFIG, INREG32(&pRfbiRegs->RFBI_SYSCONFIG) | RFBI_AUTOIDLE | 
; 384  : 																	RFBI_SIDLEMODE_SMART_IDLE);

  00088	e5943010	 ldr         r3, [r4, #0x10]

; 385  : 	RETAILMSG(1,(L"RFBI_SYSCONFIG = 0x%x\n\r",INREG32(&pRfbiRegs->RFBI_SYSCONFIG))); 

  0008c	e59f0198	 ldr         r0, [pc, #0x198]
  00090	e3833011	 orr         r3, r3, #0x11
  00094	e5843010	 str         r3, [r4, #0x10]
  00098	e5941010	 ldr         r1, [r4, #0x10]
  0009c	eb000000	 bl          NKDbgPrintfW

; 386  : 	/*
; 387  :     //  LCD control
; 388  :     if (bDVIEnabled)
; 389  :     {
; 390  :         OUTREG32( &pDispRegs->DISPC_CONTROL,
; 391  :                 DISPC_CONTROL_GPOUT1 |
; 392  :                 DISPC_CONTROL_GPOUT0 |
; 393  :                 DISPC_CONTROL_TFTDATALINES_24 |
; 394  :                 DISPC_CONTROL_STNTFT
; 395  :                 );
; 396  :     }
; 397  :     else
; 398  :     {	// RFBI mode
; 399  :         OUTREG32( &pDispRegs->DISPC_CONTROL, 
; 400  :         		DISPC_CONTROL_GPOUT0 | 
; 401  :         		DISPC_CONTROL_RFBIMODE |
; 402  :         		DISPC_CONTROL_TFTDATALINES_16 |
; 403  :         		DISPC_CONTROL_STNTFT );
; 404  :     }
; 405  :     RETAILMSG(1,(L"DISPC_CONTROL = 0x%x\n\r",INREG32(&pDispRegs->DISPC_CONTROL)));*/
; 406  :     // Stall mode select
; 407  :     OUTREG32( &pDispRegs->DISPC_CONTROL, INREG32(&pDispRegs->DISPC_CONTROL) & 
; 408  :     			~(DISPC_CONTROL_RFBIMODE|DISPC_CONTROL_GPOUT0|DISPC_CONTROL_GPOUT1) );

  000a0	e5963040	 ldr         r3, [r6, #0x40]

; 409  :     RETAILMSG(1,(L"DISPC_CONTROL = 0x%x\n\r",INREG32(&pDispRegs->DISPC_CONTROL)));

  000a4	e59f0160	 ldr         r0, [pc, #0x160]
  000a8	e3c33b62	 bic         r3, r3, #0x62, 22
  000ac	e5863040	 str         r3, [r6, #0x40]
  000b0	e5961040	 ldr         r1, [r6, #0x40]
  000b4	eb000000	 bl          NKDbgPrintfW

; 410  : 	OUTREG32( &pDispRegs->DISPC_CONTROL, INREG32(&pDispRegs->DISPC_CONTROL) | DISPC_CONTROL_RFBIMODE );

  000b8	e5963040	 ldr         r3, [r6, #0x40]

; 411  : 	RETAILMSG(1,(L"DISPC_CONTROL = 0x%x\n\r",INREG32(&pDispRegs->DISPC_CONTROL)));

  000bc	e59f0148	 ldr         r0, [pc, #0x148]
  000c0	e3833b02	 orr         r3, r3, #2, 22
  000c4	e5863040	 str         r3, [r6, #0x40]
  000c8	e5961040	 ldr         r1, [r6, #0x40]
  000cc	eb000000	 bl          NKDbgPrintfW

; 412  : 	OUTREG32( &pDispRegs->DISPC_CONTROL, INREG32(&pDispRegs->DISPC_CONTROL) | DISPC_CONTROL_GPOUT0 );

  000d0	e5963040	 ldr         r3, [r6, #0x40]

; 413  : 	RETAILMSG(1,(L"DISPC_CONTROL = 0x%x\n\r",INREG32(&pDispRegs->DISPC_CONTROL)));	

  000d4	e59f0130	 ldr         r0, [pc, #0x130]
  000d8	e3833902	 orr         r3, r3, #2, 18
  000dc	e5863040	 str         r3, [r6, #0x40]
  000e0	e5961040	 ldr         r1, [r6, #0x40]
  000e4	eb000000	 bl          NKDbgPrintfW

; 414  : 	OUTREG32( &pRfbiRegs->RFBI_CONTROL,INREG32(&pRfbiRegs->RFBI_CONTROL) & 0xfffd);

  000e8	e5942040	 ldr         r2, [r4, #0x40]
  000ec	e3a05cff	 mov         r5, #0xFF, 24
  000f0	e38530fd	 orr         r3, r5, #0xFD
  000f4	e0023003	 and         r3, r2, r3

; 415  : 	RETAILMSG(1,(L"RFBI_CONTROL = 0x%x\n\r",INREG32(&pRfbiRegs->RFBI_CONTROL)));

  000f8	e59f0108	 ldr         r0, [pc, #0x108]
  000fc	e5843040	 str         r3, [r4, #0x40]
  00100	e5941040	 ldr         r1, [r4, #0x40]
  00104	eb000000	 bl          NKDbgPrintfW

; 416  : 	OUTREG32( &pRfbiRegs->RFBI_CONTROL,INREG32(&pRfbiRegs->RFBI_CONTROL) & 0xfff3);

  00108	e5942040	 ldr         r2, [r4, #0x40]
  0010c	e38530f3	 orr         r3, r5, #0xF3

; 417  : 	RETAILMSG(1,(L"RFBI_CONTROL = 0x%x\n\r",INREG32(&pRfbiRegs->RFBI_CONTROL)));	

  00110	e59f00f0	 ldr         r0, [pc, #0xF0]
  00114	e0023003	 and         r3, r2, r3
  00118	e5843040	 str         r3, [r4, #0x40]
  0011c	e5941040	 ldr         r1, [r4, #0x40]
  00120	eb000000	 bl          NKDbgPrintfW

; 418  : 
; 419  : 	// RFBI Control 
; 420  :     //OUTREG32( &pRfbiRegs->RFBI_CONTROL,0x00);
; 421  :     stime = cson;
; 422  :     stime |= csoff << 4;
; 423  :     stime |= weon << 10;
; 424  :     stime |= weoff << 14;
; 425  :     stime |= reon << 20;
; 426  :     stime |= reoff << 24;
; 427  : 	OUTREG32( &pRfbiRegs->RFBI_ONOFF_TIME0,0x0e228902);

  00124	e59f30fc	 ldr         r3, [pc, #0xFC]

; 428  :     stime = wecyc;
; 429  :     stime |= recyc << 6;
; 430  :     stime |= cs_pulse << 12;
; 431  :     stime |= actim << 22;
; 432  : 	OUTREG32( &pRfbiRegs->RFBI_CYCLE_TIME0,0x003c2910);

  00128	e59f20f4	 ldr         r2, [pc, #0xF4]

; 433  : 	RETAILMSG(1,(L"RFBI_ONOFF_TIME0 = 0x%x\n\r",INREG32(&pRfbiRegs->RFBI_ONOFF_TIME0)));

  0012c	e59f00ec	 ldr         r0, [pc, #0xEC]
  00130	e5843064	 str         r3, [r4, #0x64]
  00134	e5842068	 str         r2, [r4, #0x68]
  00138	e5941064	 ldr         r1, [r4, #0x64]
  0013c	eb000000	 bl          NKDbgPrintfW

; 434  : 	RETAILMSG(1,(L"RFBI_CYCLE_TIME0 = 0x%x\n\r",INREG32(&pRfbiRegs->RFBI_CYCLE_TIME0)));

  00140	e5941068	 ldr         r1, [r4, #0x68]
  00144	e59f00d0	 ldr         r0, [pc, #0xD0]
  00148	eb000000	 bl          NKDbgPrintfW

; 435  : 	
; 436  : 	OUTREG32( &pRfbiRegs->RFBI_CONFIG0, 0x00310123 ); // 0x00310023

  0014c	e59f30c4	 ldr         r3, [pc, #0xC4]

; 437  : 	//OUTREG32( &pRfbiRegs->RFBI_CONFIG0, RFBI_CONFIG_PARALLELMODE_16 | RFBI_CONFIG_DATATYPE_16);	// set all polarity active low
; 438  : 	RETAILMSG(1,(L"RFBI_CONFIG0 = 0x%x\n\r",INREG32(&pRfbiRegs->RFBI_CONFIG0)));

  00150	e59f00bc	 ldr         r0, [pc, #0xBC]
  00154	e5843060	 str         r3, [r4, #0x60]
  00158	e5941060	 ldr         r1, [r4, #0x60]
  0015c	eb000000	 bl          NKDbgPrintfW

; 439  : 
; 440  : 	OUTREG32( &pRfbiRegs->RFBI_CONTROL,INREG32(&pRfbiRegs->RFBI_CONTROL) | RFBI_CONTROL_CS0);

  00160	e5943040	 ldr         r3, [r4, #0x40]

; 441  : 	RETAILMSG(1,(L"RFBI_CONTROL = 0x%x\n\r",INREG32(&pRfbiRegs->RFBI_CONTROL)));

  00164	e59f009c	 ldr         r0, [pc, #0x9C]
  00168	e3833004	 orr         r3, r3, #4
  0016c	e5843040	 str         r3, [r4, #0x40]
  00170	e5941040	 ldr         r1, [r4, #0x40]
  00174	eb000000	 bl          NKDbgPrintfW

; 442  : 	
; 443  : 	OUTREG32( &pDispRegs->DISPC_GFX_ATTRIBUTES, DISPC_GFX_ATTR_GFXENABLE);

  00178	e3a03001	 mov         r3, #1

; 444  : 	RETAILMSG(1,(L"DISPC_GFX_ATTRIBUTES = 0x%x\n\r",INREG32(&pDispRegs->DISPC_GFX_ATTRIBUTES)));

  0017c	e59f008c	 ldr         r0, [pc, #0x8C]
  00180	e58630a0	 str         r3, [r6, #0xA0]
  00184	e59610a0	 ldr         r1, [r6, #0xA0]
  00188	eb000000	 bl          NKDbgPrintfW

; 445  : 	
; 446  : 	OUTREG32( &pDispRegs->DISPC_CONTROL, INREG32(&pDispRegs->DISPC_CONTROL) | DISPC_CONTROL_LCDENABLE );

  0018c	e5963040	 ldr         r3, [r6, #0x40]

; 447  : 	RETAILMSG(1,(L"DISPC_CONTROL = 0x%x\n\r",INREG32(&pDispRegs->DISPC_CONTROL)));	

  00190	e59f0074	 ldr         r0, [pc, #0x74]
  00194	e3833001	 orr         r3, r3, #1
  00198	e5863040	 str         r3, [r6, #0x40]
  0019c	e5961040	 ldr         r1, [r6, #0x40]
  001a0	eb000000	 bl          NKDbgPrintfW

; 448  : 	
; 449  : 	OUTREG32( &pRfbiRegs->RFBI_CONTROL, INREG32(&pRfbiRegs->RFBI_CONTROL) | RFBI_CONTROL_ENABLE);

  001a4	e5943040	 ldr         r3, [r4, #0x40]

; 450  : 	RETAILMSG(1,(L"RFBI_CONTROL = 0x%x\n\r",INREG32(&pRfbiRegs->RFBI_CONTROL)));

  001a8	e59f0058	 ldr         r0, [pc, #0x58]
  001ac	e3833001	 orr         r3, r3, #1
  001b0	e5843040	 str         r3, [r4, #0x40]
  001b4	e5941040	 ldr         r1, [r4, #0x40]
  001b8	eb000000	 bl          NKDbgPrintfW
  001bc	e3a03c27	 mov         r3, #0x27, 24
  001c0	e3835010	 orr         r5, r3, #0x10
  001c4	e3a06004	 mov         r6, #4
  001c8		 |$LL3@LcdPdd_LCD@3|

; 451  : 
; 452  : 	for( reon=0; reon < 10000 ; reon++)
; 453  : 	{
; 454  : 			OUTREG32( &pRfbiRegs->RFBI_CONTROL, INREG32(&pRfbiRegs->RFBI_CONTROL) | RFBI_CONTROL_ENABLE);

  001c8	e5943040	 ldr         r3, [r4, #0x40]

; 455  : 			RETAILMSG(1,(L"RFBI_CONTROL = 0x%x\n\r",INREG32(&pRfbiRegs->RFBI_CONTROL)));

  001cc	e59f0034	 ldr         r0, [pc, #0x34]
  001d0	e3833001	 orr         r3, r3, #1
  001d4	e5843040	 str         r3, [r4, #0x40]
  001d8	e5941040	 ldr         r1, [r4, #0x40]
  001dc	eb000000	 bl          NKDbgPrintfW

; 456  : 			OUTREG32( &pRfbiRegs->RFBI_CMD, 0x4);

  001e0	e584604c	 str         r6, [r4, #0x4C]

; 457  : 			OUTREG32( &pRfbiRegs->RFBI_PARAM, 0x4);

  001e4	e5846050	 str         r6, [r4, #0x50]

; 458  : 			stime = INREG32( &pRfbiRegs->RFBI_READ);

  001e8	e5943058	 ldr         r3, [r4, #0x58]
  001ec	e2555001	 subs        r5, r5, #1
  001f0	1afffff4	 bne         |$LL3@LcdPdd_LCD@3|

; 459  : 	}
; 460  : 	//OUTREG32( &pRfbiRegs->RFBI_DATA_CYCLE1_0,16);
; 461  : 
; 462  : 	//RETAILMSG(1,(L"RFBI_DATA_CYCLE1_0 = 0x%x\n\r",INREG32(&pRfbiRegs->RFBI_DATA_CYCLE1_0)));
; 463  : 	//RETAILMSG(1,(L"RFBI_CONTROL = 0x%x\n\r",INREG32(&pRfbiRegs->RFBI_CONTROL)));
; 464  : 
; 465  : //    MmUnmapIoSpace((VOID*)pPrcmDssCM, sizeof(OMAP_PRCM_DSS_CM_REGS));
; 466  : 
; 467  : 
; 468  :     // Set initial power level
; 469  :     LcdPdd_SetPowerLevel(D0);

  001f4	e3a00000	 mov         r0, #0
  001f8	eb000000	 bl          LcdPdd_SetPowerLevel

; 470  :   
; 471  :     return TRUE;

  001fc	e3a00001	 mov         r0, #1

; 472  : }

  00200	e8bd4070	 ldmia       sp!, {r4 - r6, lr}
  00204	e12fff1e	 bx          lr
  00208		 |$LN15@LcdPdd_LCD@3|
  00208		 |$LN16@LcdPdd_LCD@3|
  00208	00000000	 DCD         |??_C@_1CM@NCCGKPGK@?$AAR?$AAF?$AAB?$AAI?$AA_?$AAC?$AAO?$AAN?$AAT?$AAR?$AAO?$AAL?$AA?5?$AA?$DN?$AA?5?$AA0?$AAx?$AA?$CF?$AAx?$AA?6?$AA?$AN?$AA?$AA@|
  0020c		 |$LN17@LcdPdd_LCD@3|
  0020c	00000000	 DCD         |??_C@_1CO@DIPDPAEO@?$AAD?$AAI?$AAS?$AAP?$AAC?$AA_?$AAC?$AAO?$AAN?$AAT?$AAR?$AAO?$AAL?$AA?5?$AA?$DN?$AA?5?$AA0?$AAx?$AA?$CF?$AAx?$AA?6?$AA?$AN?$AA?$AA@|
  00210		 |$LN18@LcdPdd_LCD@3|
  00210	00000000	 DCD         |??_C@_1DM@LIEKHEHK@?$AAD?$AAI?$AAS?$AAP?$AAC?$AA_?$AAG?$AAF?$AAX?$AA_?$AAA?$AAT?$AAT?$AAR?$AAI?$AAB?$AAU?$AAT?$AAE?$AAS?$AA?5?$AA?$DN?$AA?5?$AA0?$AAx?$AA?$CF?$AAx?$AA?6?$AA?$AN?$AA?$AA@|
  00214		 |$LN19@LcdPdd_LCD@3|
  00214	00000000	 DCD         |??_C@_1CM@BLPHGNEH@?$AAR?$AAF?$AAB?$AAI?$AA_?$AAC?$AAO?$AAN?$AAF?$AAI?$AAG?$AA0?$AA?5?$AA?$DN?$AA?5?$AA0?$AAx?$AA?$CF?$AAx?$AA?6?$AA?$AN?$AA?$AA@|
  00218		 |$LN20@LcdPdd_LCD@3|
  00218	00310123	 DCD         0x310123
  0021c		 |$LN21@LcdPdd_LCD@3|
  0021c	00000000	 DCD         |??_C@_1DE@BPFHLJ@?$AAR?$AAF?$AAB?$AAI?$AA_?$AAC?$AAY?$AAC?$AAL?$AAE?$AA_?$AAT?$AAI?$AAM?$AAE?$AA0?$AA?5?$AA?$DN?$AA?5?$AA0?$AAx?$AA?$CF?$AAx?$AA?6?$AA?$AN?$AA?$AA@|
  00220		 |$LN22@LcdPdd_LCD@3|
  00220	00000000	 DCD         |??_C@_1DE@OOEMGABO@?$AAR?$AAF?$AAB?$AAI?$AA_?$AAO?$AAN?$AAO?$AAF?$AAF?$AA_?$AAT?$AAI?$AAM?$AAE?$AA0?$AA?5?$AA?$DN?$AA?5?$AA0?$AAx?$AA?$CF?$AAx?$AA?6?$AA?$AN?$AA?$AA@|
  00224		 |$LN23@LcdPdd_LCD@3|
  00224	003c2910	 DCD         0x3c2910
  00228		 |$LN24@LcdPdd_LCD@3|
  00228	0e228902	 DCD         0xe228902
  0022c		 |$LN25@LcdPdd_LCD@3|
  0022c	00000000	 DCD         |??_C@_1DA@OJECMNEO@?$AAR?$AAF?$AAB?$AAI?$AA_?$AAS?$AAY?$AAS?$AAC?$AAO?$AAN?$AAF?$AAI?$AAG?$AA?5?$AA?$DN?$AA?5?$AA0?$AAx?$AA?$CF?$AAx?$AA?6?$AA?$AN?$AA?$AA@|
  00230		 |$LN26@LcdPdd_LCD@3|
  00230	00000000	 DCD         |??_C@_1CO@PPMNNDJF@?$AAC?$AAM?$AA_?$AAF?$AAC?$AAL?$AAK?$AAE?$AAN?$AA_?$AAD?$AAS?$AAS?$AA?5?$AA?$DN?$AA?5?$AA0?$AAx?$AA?$CF?$AAx?$AA?6?$AA?$AN?$AA?$AA@|
  00234		 |$LN27@LcdPdd_LCD@3|
  00234	00000000	 DCD         |??_C@_1CO@HPIDKBDN@?$AAC?$AAM?$AA_?$AAI?$AAC?$AAL?$AAK?$AAE?$AAN?$AA_?$AAD?$AAS?$AAS?$AA?5?$AA?$DN?$AA?5?$AA0?$AAx?$AA?$CF?$AAx?$AA?6?$AA?$AN?$AA?$AA@|
  00238		 |$LN28@LcdPdd_LCD@3|
  00238	00000000	 DCD         |g_pDispRegs|
  0023c		 |$LN29@LcdPdd_LCD@3|
  0023c	00000000	 DCD         |??_C@_1EE@POJFJFPA@?$AA?6?$AA?$AN?$AA?$CK?$AA?$CK?$AA?$CK?$AA?5?$AAL?$AAc?$AAd?$AAP?$AAd?$AAd?$AA_?$AAL?$AAC?$AAD?$AA_?$AAI?$AAn?$AAi?$AAt?$AAi?$AAa?$AAl?$AAi?$AAz?$AAe?$AA?5?$AA?$CK?$AA?$CK?$AA?$CK?$AA?6@|
  00240		 |$M46439|

			 ENDP  ; |LcdPdd_LCD_Initialize|

	END
