; Listing generated by Microsoft (R) Optimizing Compiler Version 14.01.60511.01 

	TTL	C:\WINCE600\PLATFORM\Z2170P\SRC\test\PMTEST\PMREQ\req.c
	CODE32

  00000			 AREA	 |.drectve|, DRECTVE
	DCB	"-defaultlib:LIBCMT "
	DCB	"-defaultlib:OLDNAMES "

	EXPORT	|SetEvent|
	IMPORT	|EventModify|
; File c:\wince600\public\common\sdk\inc\kfuncs.h

  00000			 AREA	 |.pdata|, PDATA
|$T39232| DCD	|$LN5@SetEvent|
	DCD	0x40000501
; Function compile flags: /Ogspy

  00000			 AREA	 |.text|, CODE, ARM

  00000		 |SetEvent| PROC

; 235  : _inline BOOL SetEvent(HANDLE h) {

  00000		 |$LN5@SetEvent|
  00000	e52de004	 str         lr, [sp, #-4]!
  00004		 |$M39229|

; 236  : 	return EventModify(h,EVENT_SET);

  00004	e3a01003	 mov         r1, #3
  00008	eb000000	 bl          EventModify

; 237  : }

  0000c	e49de004	 ldr         lr, [sp], #4
  00010	e12fff1e	 bx          lr
  00014		 |$M39230|

			 ENDP  ; |SetEvent|

	EXPORT	|GetCurrentProcessId|
	IMPORT	|__GetUserKData|

  00000			 AREA	 |.pdata|, PDATA
|$T39241| DCD	|$LN5@GetCurrent|
	DCD	0x40000501
; Function compile flags: /Ogspy

  00000			 AREA	 |.text|, CODE, ARM

  00000		 |GetCurrentProcessId| PROC

; 373  : _inline DWORD GetCurrentProcessId(void) {

  00000		 |$LN5@GetCurrent|
  00000	e52de004	 str         lr, [sp, #-4]!
  00004		 |$M39238|

; 374  :     return __GetUserKData (SYSHANDLE_OFFSET + (SH_CURPROC * sizeof(HANDLE)));

  00004	e3a0000c	 mov         r0, #0xC
  00008	eb000000	 bl          __GetUserKData

; 375  : }

  0000c	e49de004	 ldr         lr, [sp], #4
  00010	e12fff1e	 bx          lr
  00014		 |$M39239|

			 ENDP  ; |GetCurrentProcessId|

	EXPORT	|__$ArrayPad$| [ DATA ]
	EXPORT	|RetailPrint|
	EXPORT	|??_C@_1BG@BNMMPDJD@?$AAP?$AAM?$AAG?$AAE?$AAT?$AAD?$AA?3?$AA?5?$AA?$CF?$AAs?$AA?$AA@| [ DATA ] ; `string'
	IMPORT	|NKDbgPrintfW|
	IMPORT	|vswprintf|
	IMPORT	|swprintf|
	IMPORT	|vwprintf|
	IMPORT	|__GSHandlerCheck|
	IMPORT	|__security_cookie|
	IMPORT	|__security_check_cookie|
; File c:\wince600\platform\z2170p\src\test\pmtest\pmreq\req.c

  00000			 AREA	 |.pdata|, PDATA
|$T39254| DCD	|$LN5@RetailPrin|
	DCD	0xc0002905

  00000			 AREA	 |.xdata|, DATA
|$T39250| DCD	0xffffffe4

  00000			 AREA	 |.rdata|, DATA, READONLY
|??_C@_1BG@BNMMPDJD@?$AAP?$AAM?$AAG?$AAE?$AAT?$AAD?$AA?3?$AA?5?$AA?$CF?$AAs?$AA?$AA@| DCB "P"
	DCB	0x0, "M", 0x0, "G", 0x0, "E", 0x0, "T", 0x0, "D", 0x0, ":"
	DCB	0x0, " ", 0x0, "%", 0x0, "s", 0x0, 0x0, 0x0 ; `string'
; Function compile flags: /Ogspy

  00000			 AREA	 |.text|, CODE, ARM

  00000	00000000	 DCD         |__GSHandlerCheck|
  00004	00000000	 DCD         |$T39250|

  00008		 |RetailPrint| PROC

; 191  : {

  00008		 |$LN5@RetailPrin|
  00008	e1a0c00d	 mov         r12, sp
  0000c	e92d000f	 stmdb       sp!, {r0 - r3}
  00010	e92d5000	 stmdb       sp!, {r12, lr}
  00014	e59fc08c	 ldr         r12, [pc, #0x8C]
  00018	e08dd00c	 add         sp, sp, r12
  0001c		 |$M39251|
  0001c	e28dca02	 add         r12, sp, #2, 20
  00020	e58c000c	 str         r0, [r12, #0xC]
  00024	e59f3078	 ldr         r3, [pc, #0x78]
  00028	e5933000	 ldr         r3, [r3]
  0002c	e58c3000	 str         r3, [r12]

; 192  :     va_list al;
; 193  :     wchar_t szTemp[2048];
; 194  :     wchar_t szTempFormat[2048];
; 195  : 
; 196  :     va_start(al, pszFormat);
; 197  : 
; 198  :     // Show message on console
; 199  :     vwprintf(pszFormat, al);

  00030	e3a01a02	 mov         r1, #2, 20
  00034	e3811010	 orr         r1, r1, #0x10
  00038	e08d1001	 add         r1, sp, r1
  0003c	eb000000	 bl          vwprintf

; 200  : 
; 201  :     // Show message on RETAILMSG
; 202  :     swprintf(szTempFormat, L"PMGETD: %s", pszFormat);

  00040	e28d2a02	 add         r2, sp, #2, 20
  00044	e592200c	 ldr         r2, [r2, #0xC]
  00048	e59f1050	 ldr         r1, [pc, #0x50]
  0004c	e28d0000	 add         r0, sp, #0
  00050	eb000000	 bl          swprintf

; 203  :     pszFormat = szTempFormat;

  00054	e28d3000	 add         r3, sp, #0

; 204  :     vswprintf(szTemp, pszFormat, al);

  00058	e3a02a02	 mov         r2, #2, 20
  0005c	e3822010	 orr         r2, r2, #0x10
  00060	e08d2002	 add         r2, sp, r2
  00064	e28d1000	 add         r1, sp, #0
  00068	e28d0a01	 add         r0, sp, #1, 20
  0006c	e28dca02	 add         r12, sp, #2, 20
  00070	e58c300c	 str         r3, [r12, #0xC]
  00074	eb000000	 bl          vswprintf

; 205  :     RETAILMSG(1, (szTemp));

  00078	e28d0a01	 add         r0, sp, #1, 20
  0007c	eb000000	 bl          NKDbgPrintfW
  00080	e28d0a02	 add         r0, sp, #2, 20
  00084	e5900000	 ldr         r0, [r0]
  00088	eb000000	 bl          __security_check_cookie

; 206  : 
; 207  :     va_end(al);
; 208  : }

  0008c	e3a0ca02	 mov         r12, #2, 20
  00090	e38cc004	 orr         r12, r12, #4
  00094	e08dd00c	 add         sp, sp, r12
  00098	e89d6000	 ldmia       sp, {sp, lr}
  0009c	e12fff1e	 bx          lr
  000a0		 |$LN6@RetailPrin|
  000a0		 |$LN7@RetailPrin|
  000a0	00000000	 DCD         |??_C@_1BG@BNMMPDJD@?$AAP?$AAM?$AAG?$AAE?$AAT?$AAD?$AA?3?$AA?5?$AA?$CF?$AAs?$AA?$AA@|
  000a4		 |$LN8@RetailPrin|
  000a4	00000000	 DCD         |__security_cookie|
  000a8		 |$LN9@RetailPrin|
  000a8	ffffdffc	 DCD         0xffffdffc
  000ac		 |$M39252|

			 ENDP  ; |RetailPrint|

	EXPORT	|__$ArrayPad$| [ DATA ]
	EXPORT	|WinMain|
	EXPORT	|??_C@_1EE@CMPIMJDB@?$AAP?$AAM?$AAR?$AAE?$AAQ?$AA?$CB?$AAO?$AAp?$AAe?$AAn?$AAE?$AAv?$AAe?$AAn?$AAt?$AA?$CI?$AA?8?$AA?$CF?$AAs?$AA?8?$AA?$CJ?$AA?5?$AAf?$AAa?$AAi?$AAl?$AAe?$AAd?$AA?5?$AA?$CF?$AAd?$AA?$AN@| [ DATA ] ; `string'
	EXPORT	|??_C@_1CI@FKMNLEEA@?$AAP?$AAM?$AAR?$AAE?$AAQ?$AA_?$AAW?$AAa?$AAk?$AAe?$AA_?$AAE?$AAv?$AAe?$AAn?$AAt?$AA_?$AA?$CF?$AAp?$AA?$AA@| [ DATA ] ; `string'
	EXPORT	|??_C@_1HI@KKBODHFP@?$AAP?$AAM?$AAR?$AAE?$AAQ?$AA?$CB?$AAS?$AAe?$AAt?$AAP?$AAo?$AAw?$AAe?$AAr?$AAR?$AAe?$AAq?$AAu?$AAi?$AAr?$AAe?$AAm?$AAe?$AAn?$AAt?$AA?$CI?$AA?$CF?$AAs?$AA?0?$AA?5?$AA?$CF?$AAx@| [ DATA ] ; `string'
	EXPORT	|??_C@_1GC@MMILMMEF@?$AAP?$AAM?$AAR?$AAE?$AAQ?$AA?$CB?$AAR?$AAe?$AAl?$AAe?$AAa?$AAs?$AAe?$AAP?$AAo?$AAw?$AAe?$AAr?$AAR?$AAe?$AAq?$AAu?$AAi?$AAr?$AAe?$AAm?$AAe?$AAn?$AAt?$AA?$CI?$AA0?$AAx@| [ DATA ] ; `string'
	EXPORT	|??_C@_1GC@DJNILKFF@?$AAP?$AAM?$AAR?$AAE?$AAQ?$AA?$CB?$AAR?$AAe?$AAl?$AAe?$AAa?$AAs?$AAe?$AAP?$AAo?$AAw?$AAe?$AAr?$AAR?$AAe?$AAq?$AAu?$AAi?$AAr?$AAe?$AAm?$AAe?$AAn?$AAt?$AA?$CI?$AA0?$AAx@| [ DATA ] ; `string'
	EXPORT	|??_C@_1EG@MHBFCHCC@?$AAP?$AAM?$AAR?$AAE?$AAQ?$AA?$CB?$AAC?$AAr?$AAe?$AAa?$AAt?$AAe?$AAE?$AAv?$AAe?$AAn?$AAt?$AA?$CI?$AA?8?$AA?$CF?$AAs?$AA?8?$AA?$CJ?$AA?5?$AAf?$AAa?$AAi?$AAl?$AAe?$AAd?$AA?5?$AA?$CF@| [ DATA ] ; `string'
	EXPORT	|??_C@_1FG@GPHAEEFL@?$AAU?$AAs?$AAe?$AA?5?$AA?8?$AAP?$AAM?$AAR?$AAE?$AAQ?$AA?5?$AA?$CF?$AAx?$AA?8?$AA?5?$AAt?$AAo?$AA?5?$AAr?$AAe?$AAl?$AAe?$AAa?$AAs?$AAe?$AA?5?$AAt?$AAh?$AAe?$AA?5?$AAr?$AAe@| [ DATA ] ; `string'
	EXPORT	|??_C@_1CI@JPHJJMKP@?$AAP?$AAM?$AAR?$AAE?$AAQ?$AA_?$AAW?$AAa?$AAk?$AAe?$AA_?$AAE?$AAv?$AAe?$AAn?$AAt?$AA_?$AA?$CF?$AAx?$AA?$AA@| [ DATA ] ; `string'
	EXPORT	|??_C@_1JI@IBECJJBF@?$AAP?$AAM?$AAR?$AAE?$AAQ?$AA?5?$AA?$DM?$AAD?$AAe?$AAv?$AAi?$AAc?$AAe?$AA?$DO?$AA?5?$AA?$DM?$AAD?$AAe?$AAv?$AAi?$AAc?$AAe?$AAS?$AAt?$AAa?$AAt?$AAe?$AA?$DO?$AA?5?$AA?$DM?$AAD?$AAe@| [ DATA ] ; `string'
	EXPORT	|??_C@_1GI@MNIBOKHN@?$AA?5?$AA?5?$AAP?$AAl?$AAa?$AAc?$AAe?$AAs?$AA?5?$AAa?$AA?5?$AAs?$AAp?$AAe?$AAc?$AAi?$AAf?$AAi?$AAc?$AA?5?$AAp?$AAo?$AAw?$AAe?$AAr?$AA?5?$AAr?$AAe?$AAq?$AAu?$AAi?$AAr@| [ DATA ] ; `string'
	EXPORT	|??_C@_1FE@FMDKIKFG@?$AA?5?$AA?5?$AA?5?$AA?5?$AA?$DM?$AAD?$AAe?$AAv?$AAi?$AAc?$AAe?$AA?$DO?$AA?5?$AAn?$AAa?$AAm?$AAe?$AAs?$AA?5?$AAt?$AAh?$AAe?$AA?5?$AAd?$AAe?$AAi?$AAv?$AAe?$AA?0?$AA?5?$AAe?$AA?4@| [ DATA ] ; `string'
	EXPORT	|??_C@_1HG@BJPKPGGB@?$AA?5?$AA?5?$AA?5?$AA?5?$AA?$DM?$AAD?$AAe?$AAv?$AAi?$AAc?$AAe?$AAS?$AAt?$AAa?$AAt?$AAe?$AA?$DO?$AA?5?$AAs?$AAp?$AAe?$AAc?$AAi?$AAf?$AAi?$AAe?$AAs?$AA?5?$AAt?$AAh?$AAe?$AA?5@| [ DATA ] ; `string'
	EXPORT	|??_C@_1JI@JLHAHOMM@?$AA?5?$AA?5?$AA?5?$AA?5?$AA?$DM?$AAD?$AAe?$AAv?$AAi?$AAc?$AAe?$AAF?$AAl?$AAa?$AAg?$AAs?$AA?$DO?$AA?5?$AAs?$AAp?$AAe?$AAc?$AAi?$AAf?$AAi?$AAe?$AAs?$AA?5?$AAt?$AAh?$AAe?$AA?5@| [ DATA ] ; `string'
	EXPORT	|??_C@_1JI@GEALGBPF@?$AA?5?$AA?5?$AA?5?$AA?5?$AA?$DM?$AAS?$AAy?$AAs?$AAt?$AAe?$AAm?$AAS?$AAt?$AAa?$AAt?$AAe?$AA?$DO?$AA?5?$AA?$CI?$AAO?$AAP?$AAT?$AAI?$AAO?$AAN?$AAA?$AAL?$AA?$CJ?$AA?5?$AAn?$AAa?$AAm@| [ DATA ] ; `string'
	EXPORT	|??_C@_1MA@NKKDHCPJ@?$AA?5?$AA?5?$AA?5?$AA?5?$AA?$DM?$AAS?$AAy?$AAs?$AAt?$AAe?$AAm?$AAF?$AAl?$AAa?$AAg?$AAs?$AA?$DO?$AA?5?$AA?$CI?$AAO?$AAP?$AAT?$AAI?$AAO?$AAN?$AAA?$AAL?$AA?$CJ?$AA?5?$AAs?$AAp?$AAe@| [ DATA ] ; `string'
	EXPORT	|??_C@_1IM@MHCLGOAF@?$AAD?$AAe?$AAv?$AAi?$AAc?$AAe?$AA?5?$AAn?$AAa?$AAm?$AAe?$AAs?$AA?5?$AAm?$AAa?$AAy?$AA?5?$AAb?$AAe?$AA?5?$AAq?$AAu?$AAa?$AAl?$AAi?$AAf?$AAi?$AAe?$AAd?$AA?5?$AAw?$AAi@| [ DATA ] ; `string'
	EXPORT	|??_C@_1JG@MCJNELNP@?$AAr?$AAe?$AAq?$AAu?$AAi?$AAr?$AAe?$AAd?$AA?5?$AAf?$AAo?$AAr?$AA?5?$AAd?$AAe?$AAv?$AAi?$AAc?$AAe?$AAs?$AA?5?$AAt?$AAh?$AAa?$AAt?$AA?5?$AAa?$AAr?$AAe?$AA?5?$AAn?$AAo@| [ DATA ] ; `string'
	EXPORT	|??_C@_1BM@OIEOCHGP@?$AAd?$AAe?$AAv?$AAi?$AAc?$AAe?$AA?5?$AAc?$AAl?$AAa?$AAs?$AAs?$AA?6?$AA?$AA@| [ DATA ] ; `string'
	EXPORT	|??_C@_1CA@GPDIEMBK@?$AAP?$AAM?$AAR?$AAE?$AAQ?$AA?5?$AA?$DM?$AAh?$AAa?$AAn?$AAd?$AAl?$AAe?$AA?$DO?$AA?6?$AA?$AA@| [ DATA ] ; `string'
	EXPORT	|??_C@_1GC@GCEKAMLM@?$AA?5?$AA?5?$AAR?$AAe?$AAl?$AAe?$AAa?$AAs?$AAe?$AAs?$AA?5?$AAa?$AA?5?$AAp?$AAr?$AAe?$AAv?$AAi?$AAo?$AAu?$AAs?$AAl?$AAy?$AA?5?$AAe?$AAs?$AAt?$AAa?$AAb?$AAl?$AAi?$AAs@| [ DATA ] ; `string'
	EXPORT	|??_C@_1JM@IAHHKGLN@?$AA?5?$AA?5?$AA?5?$AA?5?$AAw?$AAh?$AAe?$AAr?$AAe?$AA?5?$AA?$DM?$AAh?$AAa?$AAn?$AAd?$AAl?$AAe?$AA?$DO?$AA?5?$AAi?$AAs?$AA?5?$AAt?$AAh?$AAe?$AA?5?$AAr?$AAe?$AAt?$AAu?$AAr?$AAn@| [ DATA ] ; `string'
	EXPORT	|??_C@_1MA@HJOLIBOB@?$AA?5?$AA?5?$AAE?$AAx?$AAa?$AAm?$AAp?$AAl?$AAe?$AA?3?$AA?5?$AAP?$AAM?$AAR?$AAE?$AAQ?$AA?5?$AAP?$AAD?$AAX?$AA1?$AA?3?$AA?5?$AA1?$AA?5?$AA1?$AA?5?$AA?$CI?$AAr?$AAe?$AAq?$AAu@| [ DATA ] ; `string'
	EXPORT	|??_C@_1OM@ILPOJEJA@?$AA?5?$AA?5?$AA?5?$AA?5?$AA?5?$AA?5?$AA?5?$AA?5?$AA?5?$AA?5?$AA?5?$AAP?$AAM?$AAR?$AAE?$AAQ?$AA?5?$AAP?$AAD?$AAX?$AA1?$AA?3?$AA?5?$AA1?$AA?5?$AA1?$AA?5?$AAS?$AAy?$AAs?$AAt?$AAe@| [ DATA ] ; `string'
	EXPORT	|??_C@_1MG@HLFOPIFL@?$AA?5?$AA?5?$AA?5?$AA?5?$AA?5?$AA?5?$AA?5?$AA?5?$AA?5?$AA?5?$AA?5?$AAP?$AAM?$AAR?$AAE?$AAQ?$AA?5?$AAP?$AAD?$AAX?$AA1?$AA?3?$AA?5?$AA1?$AA?5?$AA1?$AA0?$AA0?$AA1?$AA?5?$AA?$CI?$AAr@| [ DATA ] ; `string'
	EXPORT	|??_C@_1NA@EDGKPCOF@?$AA?5?$AA?5?$AA?5?$AA?5?$AA?5?$AA?5?$AA?5?$AA?5?$AA?5?$AA?5?$AA?5?$AA?5?$AA?5?$AA?5?$AA?5?$AA?5?$AA?5?$AA?5?$AA?5?$AA?5?$AA?5?$AA?5?$AA?5?$AA?5?$AA?5?$AA?5?$AA?5?$AA?5?$AA?5?$AA?5?$AAe?$AAv@| [ DATA ] ; `string'
	EXPORT	|??_C@_1FO@GNEMKMMO@?$AA?5?$AA?5?$AA?5?$AA?5?$AA?5?$AA?5?$AA?5?$AA?5?$AA?5?$AA?5?$AA?5?$AA?5?$AA?5?$AA?5?$AA?5?$AA?5?$AA?5?$AA?5?$AA?5?$AA?5?$AA?5?$AA?5?$AA?5?$AA?5?$AA?5?$AA?5?$AA?5?$AA?5?$AA?5?$AA?5?$AAd?$AAu@| [ DATA ] ; `string'
	EXPORT	|??_C@_1BAO@MFIBNOKO@?$AA?5?$AA?5?$AA?5?$AA?5?$AA?5?$AA?5?$AA?5?$AA?5?$AA?5?$AA?5?$AA?5?$AAP?$AAM?$AAR?$AAE?$AAQ?$AA?5?$AA?$HL?$AAA?$AA3?$AA2?$AA9?$AA4?$AA2?$AAB?$AA7?$AA?9?$AA9?$AA2?$AA0?$AAC?$AA?9@| [ DATA ] ; `string'
	EXPORT	|??_C@_1BBO@NDCENBDM@?$AA?5?$AA?5?$AA?5?$AA?5?$AA?5?$AA?5?$AA?5?$AA?5?$AA?5?$AA?5?$AA?5?$AAP?$AAM?$AAR?$AAE?$AAQ?$AA?5?$AA?$HL?$AA9?$AA8?$AAC?$AA5?$AA2?$AA5?$AA0?$AAD?$AA?9?$AAC?$AA2?$AA9?$AAA?$AA?9@| [ DATA ] ; `string'
	EXPORT	|??_C@_15HCGDGKEF@?$AA?$CF?$AAp?$AA?$AA@| [ DATA ] ; `string'
	EXPORT	|??_C@_15LHNHECKK@?$AA?$CF?$AAx?$AA?$AA@| [ DATA ] ; `string'
	EXPORT	|??_C@_15GANGMFKL@?$AA?$CF?$AAs?$AA?$AA@| [ DATA ] ; `string'
	EXPORT	|??_C@_1M@OIDCOICP@?$AAP?$AAM?$AAR?$AAE?$AAQ?$AA?$AA@| [ DATA ] ; `string'
	IMPORT	|OpenEventW|
	IMPORT	|GetLastError|
	IMPORT	|ReleasePowerRequirement|
	IMPORT	|CloseHandle|
	IMPORT	|WaitForSingleObject|
	IMPORT	|CreateEventW|
	IMPORT	|wsprintfW|
	IMPORT	|SetPowerRequirement|
	IMPORT	|exit|
	IMPORT	|swscanf|
	IMPORT	|CreateArgvArgc|
	IMPORT	|memset|
; File c:\wince600\public\common\sdk\inc\kfuncs.h

  00000			 AREA	 |.pdata|, PDATA
|$T39294| DCD	|$LN42@WinMain|
	DCD	0xc0012303

  00000			 AREA	 |.xdata|, DATA
|$T39290| DCD	0xffffffec

  00000			 AREA	 |.rdata|, DATA, READONLY
|??_C@_1EE@CMPIMJDB@?$AAP?$AAM?$AAR?$AAE?$AAQ?$AA?$CB?$AAO?$AAp?$AAe?$AAn?$AAE?$AAv?$AAe?$AAn?$AAt?$AA?$CI?$AA?8?$AA?$CF?$AAs?$AA?8?$AA?$CJ?$AA?5?$AAf?$AAa?$AAi?$AAl?$AAe?$AAd?$AA?5?$AA?$CF?$AAd?$AA?$AN@| DCB "P"
	DCB	0x0, "M", 0x0, "R", 0x0, "E", 0x0, "Q", 0x0, "!", 0x0, "O"
	DCB	0x0, "p", 0x0, "e", 0x0, "n", 0x0, "E", 0x0, "v", 0x0, "e"
	DCB	0x0, "n", 0x0, "t", 0x0, "(", 0x0, "'", 0x0, "%", 0x0, "s"
	DCB	0x0, "'", 0x0, ")", 0x0, " ", 0x0, "f", 0x0, "a", 0x0, "i"
	DCB	0x0, "l", 0x0, "e", 0x0, "d", 0x0, " ", 0x0, "%", 0x0, "d"
	DCB	0x0, 0xd, 0x0, 0xa, 0x0, 0x0, 0x0	; `string'

  00000			 AREA	 |.rdata|, DATA, READONLY
|??_C@_1CI@FKMNLEEA@?$AAP?$AAM?$AAR?$AAE?$AAQ?$AA_?$AAW?$AAa?$AAk?$AAe?$AA_?$AAE?$AAv?$AAe?$AAn?$AAt?$AA_?$AA?$CF?$AAp?$AA?$AA@| DCB "P"
	DCB	0x0, "M", 0x0, "R", 0x0, "E", 0x0, "Q", 0x0, "_", 0x0, "W"
	DCB	0x0, "a", 0x0, "k", 0x0, "e", 0x0, "_", 0x0, "E", 0x0, "v"
	DCB	0x0, "e", 0x0, "n", 0x0, "t", 0x0, "_", 0x0, "%", 0x0, "p"
	DCB	0x0, 0x0, 0x0				; `string'

  00000			 AREA	 |.rdata|, DATA, READONLY
|??_C@_1HI@KKBODHFP@?$AAP?$AAM?$AAR?$AAE?$AAQ?$AA?$CB?$AAS?$AAe?$AAt?$AAP?$AAo?$AAw?$AAe?$AAr?$AAR?$AAe?$AAq?$AAu?$AAi?$AAr?$AAe?$AAm?$AAe?$AAn?$AAt?$AA?$CI?$AA?$CF?$AAs?$AA?0?$AA?5?$AA?$CF?$AAx@| DCB "P"
	DCB	0x0, "M", 0x0, "R", 0x0, "E", 0x0, "Q", 0x0, "!", 0x0, "S"
	DCB	0x0, "e", 0x0, "t", 0x0, "P", 0x0, "o", 0x0, "w", 0x0, "e"
	DCB	0x0, "r", 0x0, "R", 0x0, "e", 0x0, "q", 0x0, "u", 0x0, "i"
	DCB	0x0, "r", 0x0, "e", 0x0, "m", 0x0, "e", 0x0, "n", 0x0, "t"
	DCB	0x0, "(", 0x0, "%", 0x0, "s", 0x0, ",", 0x0, " ", 0x0, "%"
	DCB	0x0, "x", 0x0, ",", 0x0, " ", 0x0, "0", 0x0, "x", 0x0, "%"
	DCB	0x0, "x", 0x0, ",", 0x0, " ", 0x0, "%", 0x0, "s", 0x0, ","
	DCB	0x0, " ", 0x0, "0", 0x0, "x", 0x0, "%", 0x0, "x", 0x0, ")"
	DCB	0x0, " ", 0x0, "E", 0x0, "R", 0x0, "R", 0x0, "O", 0x0, "R"
	DCB	0x0, ":", 0x0, "%", 0x0, "d", 0x0, 0xa, 0x0, 0x0, 0x0 ; `string'

  00000			 AREA	 |.rdata|, DATA, READONLY
|??_C@_1GC@MMILMMEF@?$AAP?$AAM?$AAR?$AAE?$AAQ?$AA?$CB?$AAR?$AAe?$AAl?$AAe?$AAa?$AAs?$AAe?$AAP?$AAo?$AAw?$AAe?$AAr?$AAR?$AAe?$AAq?$AAu?$AAi?$AAr?$AAe?$AAm?$AAe?$AAn?$AAt?$AA?$CI?$AA0?$AAx@| DCB "P"
	DCB	0x0, "M", 0x0, "R", 0x0, "E", 0x0, "Q", 0x0, "!", 0x0, "R"
	DCB	0x0, "e", 0x0, "l", 0x0, "e", 0x0, "a", 0x0, "s", 0x0, "e"
	DCB	0x0, "P", 0x0, "o", 0x0, "w", 0x0, "e", 0x0, "r", 0x0, "R"
	DCB	0x0, "e", 0x0, "q", 0x0, "u", 0x0, "i", 0x0, "r", 0x0, "e"
	DCB	0x0, "m", 0x0, "e", 0x0, "n", 0x0, "t", 0x0, "(", 0x0, "0"
	DCB	0x0, "x", 0x0, "%", 0x0, "0", 0x0, "8", 0x0, "x", 0x0, ")"
	DCB	0x0, " ", 0x0, "s", 0x0, "u", 0x0, "c", 0x0, "c", 0x0, "e"
	DCB	0x0, "e", 0x0, "d", 0x0, "e", 0x0, "d", 0x0, 0xa, 0x0, 0x0
	DCB	0x0					; `string'

  00000			 AREA	 |.rdata|, DATA, READONLY
|??_C@_1GC@DJNILKFF@?$AAP?$AAM?$AAR?$AAE?$AAQ?$AA?$CB?$AAR?$AAe?$AAl?$AAe?$AAa?$AAs?$AAe?$AAP?$AAo?$AAw?$AAe?$AAr?$AAR?$AAe?$AAq?$AAu?$AAi?$AAr?$AAe?$AAm?$AAe?$AAn?$AAt?$AA?$CI?$AA0?$AAx@| DCB "P"
	DCB	0x0, "M", 0x0, "R", 0x0, "E", 0x0, "Q", 0x0, "!", 0x0, "R"
	DCB	0x0, "e", 0x0, "l", 0x0, "e", 0x0, "a", 0x0, "s", 0x0, "e"
	DCB	0x0, "P", 0x0, "o", 0x0, "w", 0x0, "e", 0x0, "r", 0x0, "R"
	DCB	0x0, "e", 0x0, "q", 0x0, "u", 0x0, "i", 0x0, "r", 0x0, "e"
	DCB	0x0, "m", 0x0, "e", 0x0, "n", 0x0, "t", 0x0, "(", 0x0, "0"
	DCB	0x0, "x", 0x0, "%", 0x0, "0", 0x0, "8", 0x0, "x", 0x0, ")"
	DCB	0x0, " ", 0x0, "f", 0x0, "a", 0x0, "i", 0x0, "l", 0x0, "e"
	DCB	0x0, "d", 0x0, " ", 0x0, "%", 0x0, "d", 0x0, 0xa, 0x0, 0x0
	DCB	0x0					; `string'

  00000			 AREA	 |.rdata|, DATA, READONLY
|??_C@_1EG@MHBFCHCC@?$AAP?$AAM?$AAR?$AAE?$AAQ?$AA?$CB?$AAC?$AAr?$AAe?$AAa?$AAt?$AAe?$AAE?$AAv?$AAe?$AAn?$AAt?$AA?$CI?$AA?8?$AA?$CF?$AAs?$AA?8?$AA?$CJ?$AA?5?$AAf?$AAa?$AAi?$AAl?$AAe?$AAd?$AA?5?$AA?$CF@| DCB "P"
	DCB	0x0, "M", 0x0, "R", 0x0, "E", 0x0, "Q", 0x0, "!", 0x0, "C"
	DCB	0x0, "r", 0x0, "e", 0x0, "a", 0x0, "t", 0x0, "e", 0x0, "E"
	DCB	0x0, "v", 0x0, "e", 0x0, "n", 0x0, "t", 0x0, "(", 0x0, "'"
	DCB	0x0, "%", 0x0, "s", 0x0, "'", 0x0, ")", 0x0, " ", 0x0, "f"
	DCB	0x0, "a", 0x0, "i", 0x0, "l", 0x0, "e", 0x0, "d", 0x0, " "
	DCB	0x0, "%", 0x0, "d", 0x0, 0xa, 0x0, 0x0, 0x0 ; `string'

  00000			 AREA	 |.rdata|, DATA, READONLY
|??_C@_1FG@GPHAEEFL@?$AAU?$AAs?$AAe?$AA?5?$AA?8?$AAP?$AAM?$AAR?$AAE?$AAQ?$AA?5?$AA?$CF?$AAx?$AA?8?$AA?5?$AAt?$AAo?$AA?5?$AAr?$AAe?$AAl?$AAe?$AAa?$AAs?$AAe?$AA?5?$AAt?$AAh?$AAe?$AA?5?$AAr?$AAe@| DCB "U"
	DCB	0x0, "s", 0x0, "e", 0x0, " ", 0x0, "'", 0x0, "P", 0x0, "M"
	DCB	0x0, "R", 0x0, "E", 0x0, "Q", 0x0, " ", 0x0, "%", 0x0, "x"
	DCB	0x0, "'", 0x0, " ", 0x0, "t", 0x0, "o", 0x0, " ", 0x0, "r"
	DCB	0x0, "e", 0x0, "l", 0x0, "e", 0x0, "a", 0x0, "s", 0x0, "e"
	DCB	0x0, " ", 0x0, "t", 0x0, "h", 0x0, "e", 0x0, " ", 0x0, "r"
	DCB	0x0, "e", 0x0, "q", 0x0, "u", 0x0, "i", 0x0, "r", 0x0, "e"
	DCB	0x0, "m", 0x0, "e", 0x0, "n", 0x0, "t", 0x0, 0xa, 0x0, 0x0
	DCB	0x0					; `string'

  00000			 AREA	 |.rdata|, DATA, READONLY
|??_C@_1CI@JPHJJMKP@?$AAP?$AAM?$AAR?$AAE?$AAQ?$AA_?$AAW?$AAa?$AAk?$AAe?$AA_?$AAE?$AAv?$AAe?$AAn?$AAt?$AA_?$AA?$CF?$AAx?$AA?$AA@| DCB "P"
	DCB	0x0, "M", 0x0, "R", 0x0, "E", 0x0, "Q", 0x0, "_", 0x0, "W"
	DCB	0x0, "a", 0x0, "k", 0x0, "e", 0x0, "_", 0x0, "E", 0x0, "v"
	DCB	0x0, "e", 0x0, "n", 0x0, "t", 0x0, "_", 0x0, "%", 0x0, "x"
	DCB	0x0, 0x0, 0x0				; `string'

  00000			 AREA	 |.rdata|, DATA, READONLY
|??_C@_1JI@IBECJJBF@?$AAP?$AAM?$AAR?$AAE?$AAQ?$AA?5?$AA?$DM?$AAD?$AAe?$AAv?$AAi?$AAc?$AAe?$AA?$DO?$AA?5?$AA?$DM?$AAD?$AAe?$AAv?$AAi?$AAc?$AAe?$AAS?$AAt?$AAa?$AAt?$AAe?$AA?$DO?$AA?5?$AA?$DM?$AAD?$AAe@| DCB "P"
	DCB	0x0, "M", 0x0, "R", 0x0, "E", 0x0, "Q", 0x0, " ", 0x0, "<"
	DCB	0x0, "D", 0x0, "e", 0x0, "v", 0x0, "i", 0x0, "c", 0x0, "e"
	DCB	0x0, ">", 0x0, " ", 0x0, "<", 0x0, "D", 0x0, "e", 0x0, "v"
	DCB	0x0, "i", 0x0, "c", 0x0, "e", 0x0, "S", 0x0, "t", 0x0, "a"
	DCB	0x0, "t", 0x0, "e", 0x0, ">", 0x0, " ", 0x0, "<", 0x0, "D"
	DCB	0x0, "e", 0x0, "v", 0x0, "i", 0x0, "c", 0x0, "e", 0x0, "F"
	DCB	0x0, "l", 0x0, "a", 0x0, "g", 0x0, "s", 0x0, ">", 0x0, " "
	DCB	0x0, "[", 0x0, "[", 0x0, "<", 0x0, "S", 0x0, "y", 0x0, "s"
	DCB	0x0, "t", 0x0, "e", 0x0, "m", 0x0, "S", 0x0, "t", 0x0, "a"
	DCB	0x0, "t", 0x0, "e", 0x0, ">", 0x0, "]", 0x0, " ", 0x0, "<"
	DCB	0x0, "S", 0x0, "y", 0x0, "s", 0x0, "t", 0x0, "e", 0x0, "m"
	DCB	0x0, "F", 0x0, "l", 0x0, "a", 0x0, "g", 0x0, "s", 0x0, ">"
	DCB	0x0, "]", 0x0, 0xa, 0x0, 0x0, 0x0	; `string'

  00000			 AREA	 |.rdata|, DATA, READONLY
|??_C@_1GI@MNIBOKHN@?$AA?5?$AA?5?$AAP?$AAl?$AAa?$AAc?$AAe?$AAs?$AA?5?$AAa?$AA?5?$AAs?$AAp?$AAe?$AAc?$AAi?$AAf?$AAi?$AAc?$AA?5?$AAp?$AAo?$AAw?$AAe?$AAr?$AA?5?$AAr?$AAe?$AAq?$AAu?$AAi?$AAr@| DCB " "
	DCB	0x0, " ", 0x0, "P", 0x0, "l", 0x0, "a", 0x0, "c", 0x0, "e"
	DCB	0x0, "s", 0x0, " ", 0x0, "a", 0x0, " ", 0x0, "s", 0x0, "p"
	DCB	0x0, "e", 0x0, "c", 0x0, "i", 0x0, "f", 0x0, "i", 0x0, "c"
	DCB	0x0, " ", 0x0, "p", 0x0, "o", 0x0, "w", 0x0, "e", 0x0, "r"
	DCB	0x0, " ", 0x0, "r", 0x0, "e", 0x0, "q", 0x0, "u", 0x0, "i"
	DCB	0x0, "r", 0x0, "e", 0x0, "m", 0x0, "e", 0x0, "n", 0x0, "t"
	DCB	0x0, " ", 0x0, "o", 0x0, "n", 0x0, " ", 0x0, "a", 0x0, " "
	DCB	0x0, "d", 0x0, "e", 0x0, "v", 0x0, "i", 0x0, "c", 0x0, "e"
	DCB	0x0, ".", 0x0, 0xa, 0x0, 0x0, 0x0	; `string'

  00000			 AREA	 |.rdata|, DATA, READONLY
|??_C@_1FE@FMDKIKFG@?$AA?5?$AA?5?$AA?5?$AA?5?$AA?$DM?$AAD?$AAe?$AAv?$AAi?$AAc?$AAe?$AA?$DO?$AA?5?$AAn?$AAa?$AAm?$AAe?$AAs?$AA?5?$AAt?$AAh?$AAe?$AA?5?$AAd?$AAe?$AAi?$AAv?$AAe?$AA?0?$AA?5?$AAe?$AA?4@| DCB " "
	DCB	0x0, " ", 0x0, " ", 0x0, " ", 0x0, "<", 0x0, "D", 0x0, "e"
	DCB	0x0, "v", 0x0, "i", 0x0, "c", 0x0, "e", 0x0, ">", 0x0, " "
	DCB	0x0, "n", 0x0, "a", 0x0, "m", 0x0, "e", 0x0, "s", 0x0, " "
	DCB	0x0, "t", 0x0, "h", 0x0, "e", 0x0, " ", 0x0, "d", 0x0, "e"
	DCB	0x0, "i", 0x0, "v", 0x0, "e", 0x0, ",", 0x0, " ", 0x0, "e"
	DCB	0x0, ".", 0x0, "g", 0x0, ".", 0x0, " ", 0x0, "P", 0x0, "D"
	DCB	0x0, "X", 0x0, "1", 0x0, ":", 0x0, 0xa, 0x0, 0x0, 0x0 ; `string'

  00000			 AREA	 |.rdata|, DATA, READONLY
|??_C@_1HG@BJPKPGGB@?$AA?5?$AA?5?$AA?5?$AA?5?$AA?$DM?$AAD?$AAe?$AAv?$AAi?$AAc?$AAe?$AAS?$AAt?$AAa?$AAt?$AAe?$AA?$DO?$AA?5?$AAs?$AAp?$AAe?$AAc?$AAi?$AAf?$AAi?$AAe?$AAs?$AA?5?$AAt?$AAh?$AAe?$AA?5@| DCB " "
	DCB	0x0, " ", 0x0, " ", 0x0, " ", 0x0, "<", 0x0, "D", 0x0, "e"
	DCB	0x0, "v", 0x0, "i", 0x0, "c", 0x0, "e", 0x0, "S", 0x0, "t"
	DCB	0x0, "a", 0x0, "t", 0x0, "e", 0x0, ">", 0x0, " ", 0x0, "s"
	DCB	0x0, "p", 0x0, "e", 0x0, "c", 0x0, "i", 0x0, "f", 0x0, "i"
	DCB	0x0, "e", 0x0, "s", 0x0, " ", 0x0, "t", 0x0, "h", 0x0, "e"
	DCB	0x0, " ", 0x0, "d", 0x0, "e", 0x0, "v", 0x0, "i", 0x0, "c"
	DCB	0x0, "e", 0x0, " ", 0x0, "s", 0x0, "t", 0x0, "a", 0x0, "t"
	DCB	0x0, "e", 0x0, " ", 0x0, "(", 0x0, "D", 0x0, "x", 0x0, ")"
	DCB	0x0, ",", 0x0, " ", 0x0, "e", 0x0, ".", 0x0, "g", 0x0, "."
	DCB	0x0, " ", 0x0, "4", 0x0, 0xa, 0x0, 0x0, 0x0 ; `string'

  00000			 AREA	 |.rdata|, DATA, READONLY
|??_C@_1JI@JLHAHOMM@?$AA?5?$AA?5?$AA?5?$AA?5?$AA?$DM?$AAD?$AAe?$AAv?$AAi?$AAc?$AAe?$AAF?$AAl?$AAa?$AAg?$AAs?$AA?$DO?$AA?5?$AAs?$AAp?$AAe?$AAc?$AAi?$AAf?$AAi?$AAe?$AAs?$AA?5?$AAt?$AAh?$AAe?$AA?5@| DCB " "
	DCB	0x0, " ", 0x0, " ", 0x0, " ", 0x0, "<", 0x0, "D", 0x0, "e"
	DCB	0x0, "v", 0x0, "i", 0x0, "c", 0x0, "e", 0x0, "F", 0x0, "l"
	DCB	0x0, "a", 0x0, "g", 0x0, "s", 0x0, ">", 0x0, " ", 0x0, "s"
	DCB	0x0, "p", 0x0, "e", 0x0, "c", 0x0, "i", 0x0, "f", 0x0, "i"
	DCB	0x0, "e", 0x0, "s", 0x0, " ", 0x0, "t", 0x0, "h", 0x0, "e"
	DCB	0x0, " ", 0x0, "d", 0x0, "e", 0x0, "v", 0x0, "i", 0x0, "c"
	DCB	0x0, "e", 0x0, " ", 0x0, "f", 0x0, "l", 0x0, "a", 0x0, "g"
	DCB	0x0, "s", 0x0, " ", 0x0, "i", 0x0, "n", 0x0, " ", 0x0, "h"
	DCB	0x0, "e", 0x0, "x", 0x0, ",", 0x0, " ", 0x0, "e", 0x0, "."
	DCB	0x0, "g", 0x0, ".", 0x0, " ", 0x0, "P", 0x0, "O", 0x0, "W"
	DCB	0x0, "E", 0x0, "R", 0x0, "_", 0x0, "N", 0x0, "A", 0x0, "M"
	DCB	0x0, "E", 0x0, " ", 0x0, "=", 0x0, " ", 0x0, "0", 0x0, "x"
	DCB	0x0, "1", 0x0, 0xa, 0x0, 0x0, 0x0	; `string'

  00000			 AREA	 |.rdata|, DATA, READONLY
|??_C@_1JI@GEALGBPF@?$AA?5?$AA?5?$AA?5?$AA?5?$AA?$DM?$AAS?$AAy?$AAs?$AAt?$AAe?$AAm?$AAS?$AAt?$AAa?$AAt?$AAe?$AA?$DO?$AA?5?$AA?$CI?$AAO?$AAP?$AAT?$AAI?$AAO?$AAN?$AAA?$AAL?$AA?$CJ?$AA?5?$AAn?$AAa?$AAm@| DCB " "
	DCB	0x0, " ", 0x0, " ", 0x0, " ", 0x0, "<", 0x0, "S", 0x0, "y"
	DCB	0x0, "s", 0x0, "t", 0x0, "e", 0x0, "m", 0x0, "S", 0x0, "t"
	DCB	0x0, "a", 0x0, "t", 0x0, "e", 0x0, ">", 0x0, " ", 0x0, "("
	DCB	0x0, "O", 0x0, "P", 0x0, "T", 0x0, "I", 0x0, "O", 0x0, "N"
	DCB	0x0, "A", 0x0, "L", 0x0, ")", 0x0, " ", 0x0, "n", 0x0, "a"
	DCB	0x0, "m", 0x0, "e", 0x0, "s", 0x0, " ", 0x0, "t", 0x0, "h"
	DCB	0x0, "e", 0x0, " ", 0x0, "s", 0x0, "y", 0x0, "s", 0x0, "t"
	DCB	0x0, "e", 0x0, "m", 0x0, " ", 0x0, "p", 0x0, "o", 0x0, "w"
	DCB	0x0, "e", 0x0, "r", 0x0, " ", 0x0, "s", 0x0, "t", 0x0, "a"
	DCB	0x0, "t", 0x0, "e", 0x0, ",", 0x0, " ", 0x0, "e", 0x0, "."
	DCB	0x0, "g", 0x0, ".", 0x0, " ", 0x0, "L", 0x0, "o", 0x0, "w"
	DCB	0x0, "P", 0x0, "o", 0x0, "w", 0x0, "e", 0x0, "r", 0x0, "A"
	DCB	0x0, "C", 0x0, 0xa, 0x0, 0x0, 0x0	; `string'

  00000			 AREA	 |.rdata|, DATA, READONLY
|??_C@_1MA@NKKDHCPJ@?$AA?5?$AA?5?$AA?5?$AA?5?$AA?$DM?$AAS?$AAy?$AAs?$AAt?$AAe?$AAm?$AAF?$AAl?$AAa?$AAg?$AAs?$AA?$DO?$AA?5?$AA?$CI?$AAO?$AAP?$AAT?$AAI?$AAO?$AAN?$AAA?$AAL?$AA?$CJ?$AA?5?$AAs?$AAp?$AAe@| DCB " "
	DCB	0x0, " ", 0x0, " ", 0x0, " ", 0x0, "<", 0x0, "S", 0x0, "y"
	DCB	0x0, "s", 0x0, "t", 0x0, "e", 0x0, "m", 0x0, "F", 0x0, "l"
	DCB	0x0, "a", 0x0, "g", 0x0, "s", 0x0, ">", 0x0, " ", 0x0, "("
	DCB	0x0, "O", 0x0, "P", 0x0, "T", 0x0, "I", 0x0, "O", 0x0, "N"
	DCB	0x0, "A", 0x0, "L", 0x0, ")", 0x0, " ", 0x0, "s", 0x0, "p"
	DCB	0x0, "e", 0x0, "c", 0x0, "i", 0x0, "f", 0x0, "i", 0x0, "e"
	DCB	0x0, "s", 0x0, " ", 0x0, "t", 0x0, "h", 0x0, "e", 0x0, " "
	DCB	0x0, "s", 0x0, "y", 0x0, "s", 0x0, "t", 0x0, "e", 0x0, "m"
	DCB	0x0, " ", 0x0, "p", 0x0, "o", 0x0, "w", 0x0, "e", 0x0, "r"
	DCB	0x0, " ", 0x0, "s", 0x0, "t", 0x0, "a", 0x0, "t", 0x0, "e"
	DCB	0x0, " ", 0x0, "f", 0x0, "l", 0x0, "a", 0x0, "g", 0x0, "s"
	DCB	0x0, ",", 0x0, " ", 0x0, "e", 0x0, ".", 0x0, "g", 0x0, "."
	DCB	0x0, " ", 0x0, "P", 0x0, "O", 0x0, "W", 0x0, "E", 0x0, "R"
	DCB	0x0, "_", 0x0, "F", 0x0, "O", 0x0, "R", 0x0, "C", 0x0, "E"
	DCB	0x0, " ", 0x0, "=", 0x0, " ", 0x0, "0", 0x0, "x", 0x0, "1"
	DCB	0x0, "0", 0x0, "0", 0x0, "0", 0x0, 0xa, 0x0, 0x0, 0x0 ; `string'

  00000			 AREA	 |.rdata|, DATA, READONLY
|??_C@_1IM@MHCLGOAF@?$AAD?$AAe?$AAv?$AAi?$AAc?$AAe?$AA?5?$AAn?$AAa?$AAm?$AAe?$AAs?$AA?5?$AAm?$AAa?$AAy?$AA?5?$AAb?$AAe?$AA?5?$AAq?$AAu?$AAa?$AAl?$AAi?$AAf?$AAi?$AAe?$AAd?$AA?5?$AAw?$AAi@| DCB "D"
	DCB	0x0, "e", 0x0, "v", 0x0, "i", 0x0, "c", 0x0, "e", 0x0, " "
	DCB	0x0, "n", 0x0, "a", 0x0, "m", 0x0, "e", 0x0, "s", 0x0, " "
	DCB	0x0, "m", 0x0, "a", 0x0, "y", 0x0, " ", 0x0, "b", 0x0, "e"
	DCB	0x0, " ", 0x0, "q", 0x0, "u", 0x0, "a", 0x0, "l", 0x0, "i"
	DCB	0x0, "f", 0x0, "i", 0x0, "e", 0x0, "d", 0x0, " ", 0x0, "w"
	DCB	0x0, "i", 0x0, "t", 0x0, "h", 0x0, " ", 0x0, "t", 0x0, "h"
	DCB	0x0, "e", 0x0, " ", 0x0, "d", 0x0, "e", 0x0, "v", 0x0, "i"
	DCB	0x0, "c", 0x0, "e", 0x0, "'", 0x0, "s", 0x0, " ", 0x0, "c"
	DCB	0x0, "l", 0x0, "a", 0x0, "s", 0x0, "s", 0x0, " ", 0x0, "G"
	DCB	0x0, "U", 0x0, "I", 0x0, "D", 0x0, ".", 0x0, " ", 0x0, " "
	DCB	0x0, "T", 0x0, "h", 0x0, "i", 0x0, "s", 0x0, " ", 0x0, "i"
	DCB	0x0, "s", 0x0, 0xa, 0x0, 0x0, 0x0	; `string'

  00000			 AREA	 |.rdata|, DATA, READONLY
|??_C@_1JG@MCJNELNP@?$AAr?$AAe?$AAq?$AAu?$AAi?$AAr?$AAe?$AAd?$AA?5?$AAf?$AAo?$AAr?$AA?5?$AAd?$AAe?$AAv?$AAi?$AAc?$AAe?$AAs?$AA?5?$AAt?$AAh?$AAa?$AAt?$AA?5?$AAa?$AAr?$AAe?$AA?5?$AAn?$AAo@| DCB "r"
	DCB	0x0, "e", 0x0, "q", 0x0, "u", 0x0, "i", 0x0, "r", 0x0, "e"
	DCB	0x0, "d", 0x0, " ", 0x0, "f", 0x0, "o", 0x0, "r", 0x0, " "
	DCB	0x0, "d", 0x0, "e", 0x0, "v", 0x0, "i", 0x0, "c", 0x0, "e"
	DCB	0x0, "s", 0x0, " ", 0x0, "t", 0x0, "h", 0x0, "a", 0x0, "t"
	DCB	0x0, " ", 0x0, "a", 0x0, "r", 0x0, "e", 0x0, " ", 0x0, "n"
	DCB	0x0, "o", 0x0, "t", 0x0, " ", 0x0, "m", 0x0, "e", 0x0, "m"
	DCB	0x0, "b", 0x0, "e", 0x0, "r", 0x0, "s", 0x0, " ", 0x0, "o"
	DCB	0x0, "f", 0x0, " ", 0x0, "t", 0x0, "h", 0x0, "e", 0x0, " "
	DCB	0x0, "d", 0x0, "e", 0x0, "f", 0x0, "a", 0x0, "u", 0x0, "l"
	DCB	0x0, "t", 0x0, " ", 0x0, "p", 0x0, "o", 0x0, "w", 0x0, "e"
	DCB	0x0, "r", 0x0, "-", 0x0, "m", 0x0, "a", 0x0, "n", 0x0, "a"
	DCB	0x0, "g", 0x0, "e", 0x0, "a", 0x0, "b", 0x0, "l", 0x0, "e"
	DCB	0x0, 0xa, 0x0, 0x0, 0x0			; `string'

  00000			 AREA	 |.rdata|, DATA, READONLY
|??_C@_1BM@OIEOCHGP@?$AAd?$AAe?$AAv?$AAi?$AAc?$AAe?$AA?5?$AAc?$AAl?$AAa?$AAs?$AAs?$AA?6?$AA?$AA@| DCB "d"
	DCB	0x0, "e", 0x0, "v", 0x0, "i", 0x0, "c", 0x0, "e", 0x0, " "
	DCB	0x0, "c", 0x0, "l", 0x0, "a", 0x0, "s", 0x0, "s", 0x0, 0xa
	DCB	0x0, 0x0, 0x0				; `string'

  00000			 AREA	 |.rdata|, DATA, READONLY
|??_C@_1CA@GPDIEMBK@?$AAP?$AAM?$AAR?$AAE?$AAQ?$AA?5?$AA?$DM?$AAh?$AAa?$AAn?$AAd?$AAl?$AAe?$AA?$DO?$AA?6?$AA?$AA@| DCB "P"
	DCB	0x0, "M", 0x0, "R", 0x0, "E", 0x0, "Q", 0x0, " ", 0x0, "<"
	DCB	0x0, "h", 0x0, "a", 0x0, "n", 0x0, "d", 0x0, "l", 0x0, "e"
	DCB	0x0, ">", 0x0, 0xa, 0x0, 0x0, 0x0	; `string'

  00000			 AREA	 |.rdata|, DATA, READONLY
|??_C@_1GC@GCEKAMLM@?$AA?5?$AA?5?$AAR?$AAe?$AAl?$AAe?$AAa?$AAs?$AAe?$AAs?$AA?5?$AAa?$AA?5?$AAp?$AAr?$AAe?$AAv?$AAi?$AAo?$AAu?$AAs?$AAl?$AAy?$AA?5?$AAe?$AAs?$AAt?$AAa?$AAb?$AAl?$AAi?$AAs@| DCB " "
	DCB	0x0, " ", 0x0, "R", 0x0, "e", 0x0, "l", 0x0, "e", 0x0, "a"
	DCB	0x0, "s", 0x0, "e", 0x0, "s", 0x0, " ", 0x0, "a", 0x0, " "
	DCB	0x0, "p", 0x0, "r", 0x0, "e", 0x0, "v", 0x0, "i", 0x0, "o"
	DCB	0x0, "u", 0x0, "s", 0x0, "l", 0x0, "y", 0x0, " ", 0x0, "e"
	DCB	0x0, "s", 0x0, "t", 0x0, "a", 0x0, "b", 0x0, "l", 0x0, "i"
	DCB	0x0, "s", 0x0, "h", 0x0, "e", 0x0, "d", 0x0, " ", 0x0, "r"
	DCB	0x0, "e", 0x0, "q", 0x0, "u", 0x0, "i", 0x0, "r", 0x0, "e"
	DCB	0x0, "m", 0x0, "e", 0x0, "n", 0x0, "t", 0x0, 0xa, 0x0, 0x0
	DCB	0x0					; `string'

  00000			 AREA	 |.rdata|, DATA, READONLY
|??_C@_1JM@IAHHKGLN@?$AA?5?$AA?5?$AA?5?$AA?5?$AAw?$AAh?$AAe?$AAr?$AAe?$AA?5?$AA?$DM?$AAh?$AAa?$AAn?$AAd?$AAl?$AAe?$AA?$DO?$AA?5?$AAi?$AAs?$AA?5?$AAt?$AAh?$AAe?$AA?5?$AAr?$AAe?$AAt?$AAu?$AAr?$AAn@| DCB " "
	DCB	0x0, " ", 0x0, " ", 0x0, " ", 0x0, "w", 0x0, "h", 0x0, "e"
	DCB	0x0, "r", 0x0, "e", 0x0, " ", 0x0, "<", 0x0, "h", 0x0, "a"
	DCB	0x0, "n", 0x0, "d", 0x0, "l", 0x0, "e", 0x0, ">", 0x0, " "
	DCB	0x0, "i", 0x0, "s", 0x0, " ", 0x0, "t", 0x0, "h", 0x0, "e"
	DCB	0x0, " ", 0x0, "r", 0x0, "e", 0x0, "t", 0x0, "u", 0x0, "r"
	DCB	0x0, "n", 0x0, " ", 0x0, "H", 0x0, "A", 0x0, "N", 0x0, "D"
	DCB	0x0, "L", 0x0, "E", 0x0, " ", 0x0, "f", 0x0, "r", 0x0, "o"
	DCB	0x0, "m", 0x0, " ", 0x0, "a", 0x0, " ", 0x0, "p", 0x0, "r"
	DCB	0x0, "e", 0x0, "v", 0x0, "i", 0x0, "o", 0x0, "u", 0x0, "s"
	DCB	0x0, " ", 0x0, "i", 0x0, "n", 0x0, "v", 0x0, "o", 0x0, "c"
	DCB	0x0, "a", 0x0, "t", 0x0, "i", 0x0, "o", 0x0, "n", 0x0, " "
	DCB	0x0, "o", 0x0, "f", 0x0, " ", 0x0, "P", 0x0, "M", 0x0, "R"
	DCB	0x0, "E", 0x0, "Q", 0x0, 0xa, 0x0, 0xa, 0x0, 0x0, 0x0 ; `string'

  00000			 AREA	 |.rdata|, DATA, READONLY
|??_C@_1MA@HJOLIBOB@?$AA?5?$AA?5?$AAE?$AAx?$AAa?$AAm?$AAp?$AAl?$AAe?$AA?3?$AA?5?$AAP?$AAM?$AAR?$AAE?$AAQ?$AA?5?$AAP?$AAD?$AAX?$AA1?$AA?3?$AA?5?$AA1?$AA?5?$AA1?$AA?5?$AA?$CI?$AAr?$AAe?$AAq?$AAu@| DCB " "
	DCB	0x0, " ", 0x0, "E", 0x0, "x", 0x0, "a", 0x0, "m", 0x0, "p"
	DCB	0x0, "l", 0x0, "e", 0x0, ":", 0x0, " ", 0x0, "P", 0x0, "M"
	DCB	0x0, "R", 0x0, "E", 0x0, "Q", 0x0, " ", 0x0, "P", 0x0, "D"
	DCB	0x0, "X", 0x0, "1", 0x0, ":", 0x0, " ", 0x0, "1", 0x0, " "
	DCB	0x0, "1", 0x0, " ", 0x0, "(", 0x0, "r", 0x0, "e", 0x0, "q"
	DCB	0x0, "u", 0x0, "i", 0x0, "r", 0x0, "e", 0x0, "s", 0x0, " "
	DCB	0x0, "t", 0x0, "h", 0x0, "a", 0x0, "t", 0x0, " ", 0x0, "P"
	DCB	0x0, "D", 0x0, "X", 0x0, "1", 0x0, ":", 0x0, " ", 0x0, "b"
	DCB	0x0, "e", 0x0, " ", 0x0, "a", 0x0, "t", 0x0, " ", 0x0, "D"
	DCB	0x0, "1", 0x0, " ", 0x0, "o", 0x0, "r", 0x0, " ", 0x0, "h"
	DCB	0x0, "i", 0x0, "g", 0x0, "h", 0x0, "e", 0x0, "r", 0x0, " "
	DCB	0x0, "i", 0x0, "n", 0x0, " ", 0x0, "a", 0x0, "l", 0x0, "l"
	DCB	0x0, " ", 0x0, "s", 0x0, "y", 0x0, "s", 0x0, "t", 0x0, "e"
	DCB	0x0, "m", 0x0, " ", 0x0, "p", 0x0, "o", 0x0, "w", 0x0, "e"
	DCB	0x0, "r", 0x0, " ", 0x0, "s", 0x0, "t", 0x0, "a", 0x0, "t"
	DCB	0x0, "e", 0x0, "s", 0x0, ")", 0x0, 0xa, 0x0, 0x0, 0x0 ; `string'

  00000			 AREA	 |.rdata|, DATA, READONLY
|??_C@_1OM@ILPOJEJA@?$AA?5?$AA?5?$AA?5?$AA?5?$AA?5?$AA?5?$AA?5?$AA?5?$AA?5?$AA?5?$AA?5?$AAP?$AAM?$AAR?$AAE?$AAQ?$AA?5?$AAP?$AAD?$AAX?$AA1?$AA?3?$AA?5?$AA1?$AA?5?$AA1?$AA?5?$AAS?$AAy?$AAs?$AAt?$AAe@| DCB " "
	DCB	0x0, " ", 0x0, " ", 0x0, " ", 0x0, " ", 0x0, " ", 0x0, " "
	DCB	0x0, " ", 0x0, " ", 0x0, " ", 0x0, " ", 0x0, "P", 0x0, "M"
	DCB	0x0, "R", 0x0, "E", 0x0, "Q", 0x0, " ", 0x0, "P", 0x0, "D"
	DCB	0x0, "X", 0x0, "1", 0x0, ":", 0x0, " ", 0x0, "1", 0x0, " "
	DCB	0x0, "1", 0x0, " ", 0x0, "S", 0x0, "y", 0x0, "s", 0x0, "t"
	DCB	0x0, "e", 0x0, "m", 0x0, "I", 0x0, "d", 0x0, "l", 0x0, "e"
	DCB	0x0, " ", 0x0, "0", 0x0, " ", 0x0, "(", 0x0, "r", 0x0, "e"
	DCB	0x0, "q", 0x0, "u", 0x0, "i", 0x0, "r", 0x0, "e", 0x0, "s"
	DCB	0x0, " ", 0x0, "t", 0x0, "h", 0x0, "a", 0x0, "t", 0x0, " "
	DCB	0x0, "P", 0x0, "D", 0x0, "X", 0x0, "1", 0x0, ":", 0x0, " "
	DCB	0x0, "b", 0x0, "e", 0x0, " ", 0x0, "a", 0x0, "t", 0x0, " "
	DCB	0x0, "D", 0x0, "1", 0x0, " ", 0x0, "o", 0x0, "r", 0x0, " "
	DCB	0x0, "h", 0x0, "i", 0x0, "g", 0x0, "h", 0x0, "e", 0x0, "r"
	DCB	0x0, " ", 0x0, "i", 0x0, "n", 0x0, " ", 0x0, "t", 0x0, "h"
	DCB	0x0, "e", 0x0, " ", 0x0, "S", 0x0, "y", 0x0, "s", 0x0, "t"
	DCB	0x0, "e", 0x0, "m", 0x0, "I", 0x0, "d", 0x0, "l", 0x0, "e"
	DCB	0x0, " ", 0x0, "s", 0x0, "y", 0x0, "s", 0x0, "t", 0x0, "e"
	DCB	0x0, "m", 0x0, " ", 0x0, "p", 0x0, "o", 0x0, "w", 0x0, "e"
	DCB	0x0, "r", 0x0, " ", 0x0, "s", 0x0, "t", 0x0, "a", 0x0, "t"
	DCB	0x0, "e", 0x0, 0xa, 0x0, 0x0, 0x0	; `string'

  00000			 AREA	 |.rdata|, DATA, READONLY
|??_C@_1MG@HLFOPIFL@?$AA?5?$AA?5?$AA?5?$AA?5?$AA?5?$AA?5?$AA?5?$AA?5?$AA?5?$AA?5?$AA?5?$AAP?$AAM?$AAR?$AAE?$AAQ?$AA?5?$AAP?$AAD?$AAX?$AA1?$AA?3?$AA?5?$AA1?$AA?5?$AA1?$AA0?$AA0?$AA1?$AA?5?$AA?$CI?$AAr@| DCB " "
	DCB	0x0, " ", 0x0, " ", 0x0, " ", 0x0, " ", 0x0, " ", 0x0, " "
	DCB	0x0, " ", 0x0, " ", 0x0, " ", 0x0, " ", 0x0, "P", 0x0, "M"
	DCB	0x0, "R", 0x0, "E", 0x0, "Q", 0x0, " ", 0x0, "P", 0x0, "D"
	DCB	0x0, "X", 0x0, "1", 0x0, ":", 0x0, " ", 0x0, "1", 0x0, " "
	DCB	0x0, "1", 0x0, "0", 0x0, "0", 0x0, "1", 0x0, " ", 0x0, "("
	DCB	0x0, "r", 0x0, "e", 0x0, "q", 0x0, "u", 0x0, "i", 0x0, "r"
	DCB	0x0, "e", 0x0, "s", 0x0, " ", 0x0, "t", 0x0, "h", 0x0, "a"
	DCB	0x0, "t", 0x0, " ", 0x0, "P", 0x0, "D", 0x0, "X", 0x0, "1"
	DCB	0x0, ":", 0x0, " ", 0x0, "b", 0x0, "e", 0x0, " ", 0x0, "a"
	DCB	0x0, "t", 0x0, " ", 0x0, "D", 0x0, "1", 0x0, " ", 0x0, "o"
	DCB	0x0, "r", 0x0, " ", 0x0, "h", 0x0, "i", 0x0, "g", 0x0, "h"
	DCB	0x0, "e", 0x0, "r", 0x0, " ", 0x0, "i", 0x0, "n", 0x0, " "
	DCB	0x0, "a", 0x0, "l", 0x0, "l", 0x0, " ", 0x0, "s", 0x0, "y"
	DCB	0x0, "s", 0x0, "t", 0x0, "e", 0x0, "m", 0x0, " ", 0x0, "p"
	DCB	0x0, "o", 0x0, "w", 0x0, "e", 0x0, "r", 0x0, " ", 0x0, "s"
	DCB	0x0, "t", 0x0, "a", 0x0, "t", 0x0, "e", 0x0, "s", 0x0, ","
	DCB	0x0, 0xa, 0x0, 0x0, 0x0			; `string'

  00000			 AREA	 |.rdata|, DATA, READONLY
|??_C@_1NA@EDGKPCOF@?$AA?5?$AA?5?$AA?5?$AA?5?$AA?5?$AA?5?$AA?5?$AA?5?$AA?5?$AA?5?$AA?5?$AA?5?$AA?5?$AA?5?$AA?5?$AA?5?$AA?5?$AA?5?$AA?5?$AA?5?$AA?5?$AA?5?$AA?5?$AA?5?$AA?5?$AA?5?$AA?5?$AA?5?$AA?5?$AA?5?$AAe?$AAv@| DCB " "
	DCB	0x0, " ", 0x0, " ", 0x0, " ", 0x0, " ", 0x0, " ", 0x0, " "
	DCB	0x0, " ", 0x0, " ", 0x0, " ", 0x0, " ", 0x0, " ", 0x0, " "
	DCB	0x0, " ", 0x0, " ", 0x0, " ", 0x0, " ", 0x0, " ", 0x0, " "
	DCB	0x0, " ", 0x0, " ", 0x0, " ", 0x0, " ", 0x0, " ", 0x0, " "
	DCB	0x0, " ", 0x0, " ", 0x0, " ", 0x0, " ", 0x0, " ", 0x0, "e"
	DCB	0x0, "v", 0x0, "e", 0x0, "n", 0x0, " ", 0x0, "w", 0x0, "h"
	DCB	0x0, "e", 0x0, "n", 0x0, " ", 0x0, "t", 0x0, "h", 0x0, "e"
	DCB	0x0, " ", 0x0, "s", 0x0, "y", 0x0, "s", 0x0, "t", 0x0, "e"
	DCB	0x0, "m", 0x0, " ", 0x0, "i", 0x0, "s", 0x0, " ", 0x0, "s"
	DCB	0x0, "u", 0x0, "s", 0x0, "p", 0x0, "e", 0x0, "n", 0x0, "d"
	DCB	0x0, "e", 0x0, "d", 0x0, ";", 0x0, " ", 0x0, "n", 0x0, "o"
	DCB	0x0, "t", 0x0, " ", 0x0, "a", 0x0, "l", 0x0, "l", 0x0, " "
	DCB	0x0, "d", 0x0, "r", 0x0, "i", 0x0, "v", 0x0, "e", 0x0, "r"
	DCB	0x0, "s", 0x0, " ", 0x0, "a", 0x0, "c", 0x0, "t", 0x0, "u"
	DCB	0x0, "a", 0x0, "l", 0x0, "l", 0x0, "y", 0x0, " ", 0x0, "s"
	DCB	0x0, "t", 0x0, "a", 0x0, "y", 0x0, " ", 0x0, "p", 0x0, "o"
	DCB	0x0, "w", 0x0, "e", 0x0, "r", 0x0, "e", 0x0, "d", 0x0, 0xa
	DCB	0x0, 0x0, 0x0				; `string'

  00000			 AREA	 |.rdata|, DATA, READONLY
|??_C@_1FO@GNEMKMMO@?$AA?5?$AA?5?$AA?5?$AA?5?$AA?5?$AA?5?$AA?5?$AA?5?$AA?5?$AA?5?$AA?5?$AA?5?$AA?5?$AA?5?$AA?5?$AA?5?$AA?5?$AA?5?$AA?5?$AA?5?$AA?5?$AA?5?$AA?5?$AA?5?$AA?5?$AA?5?$AA?5?$AA?5?$AA?5?$AA?5?$AAd?$AAu@| DCB " "
	DCB	0x0, " ", 0x0, " ", 0x0, " ", 0x0, " ", 0x0, " ", 0x0, " "
	DCB	0x0, " ", 0x0, " ", 0x0, " ", 0x0, " ", 0x0, " ", 0x0, " "
	DCB	0x0, " ", 0x0, " ", 0x0, " ", 0x0, " ", 0x0, " ", 0x0, " "
	DCB	0x0, " ", 0x0, " ", 0x0, " ", 0x0, " ", 0x0, " ", 0x0, " "
	DCB	0x0, " ", 0x0, " ", 0x0, " ", 0x0, " ", 0x0, " ", 0x0, "d"
	DCB	0x0, "u", 0x0, "r", 0x0, "i", 0x0, "n", 0x0, "g", 0x0, " "
	DCB	0x0, "s", 0x0, "u", 0x0, "s", 0x0, "p", 0x0, "e", 0x0, "n"
	DCB	0x0, "d", 0x0, ")", 0x0, 0xa, 0x0, 0x0, 0x0 ; `string'

  00000			 AREA	 |.rdata|, DATA, READONLY
|??_C@_1BAO@MFIBNOKO@?$AA?5?$AA?5?$AA?5?$AA?5?$AA?5?$AA?5?$AA?5?$AA?5?$AA?5?$AA?5?$AA?5?$AAP?$AAM?$AAR?$AAE?$AAQ?$AA?5?$AA?$HL?$AAA?$AA3?$AA2?$AA9?$AA4?$AA2?$AAB?$AA7?$AA?9?$AA9?$AA2?$AA0?$AAC?$AA?9@| DCB " "
	DCB	0x0, " ", 0x0, " ", 0x0, " ", 0x0, " ", 0x0, " ", 0x0, " "
	DCB	0x0, " ", 0x0, " ", 0x0, " ", 0x0, " ", 0x0, "P", 0x0, "M"
	DCB	0x0, "R", 0x0, "E", 0x0, "Q", 0x0, " ", 0x0, "{", 0x0, "A"
	DCB	0x0, "3", 0x0, "2", 0x0, "9", 0x0, "4", 0x0, "2", 0x0, "B"
	DCB	0x0, "7", 0x0, "-", 0x0, "9", 0x0, "2", 0x0, "0", 0x0, "C"
	DCB	0x0, "-", 0x0, "4", 0x0, "8", 0x0, "6", 0x0, "b", 0x0, "-"
	DCB	0x0, "B", 0x0, "0", 0x0, "E", 0x0, "6", 0x0, "-", 0x0, "9"
	DCB	0x0, "2", 0x0, "A", 0x0, "7", 0x0, "0", 0x0, "2", 0x0, "A"
	DCB	0x0, "9", 0x0, "9", 0x0, "B", 0x0, "3", 0x0, "5", 0x0, "}"
	DCB	0x0, "\\", 0x0, "P", 0x0, "D", 0x0, "X", 0x0, "1", 0x0, ":"
	DCB	0x0, " ", 0x0, "1", 0x0, " ", 0x0, "1", 0x0, " ", 0x0, "("
	DCB	0x0, "r", 0x0, "e", 0x0, "q", 0x0, "u", 0x0, "i", 0x0, "r"
	DCB	0x0, "e", 0x0, "s", 0x0, " ", 0x0, "t", 0x0, "h", 0x0, "a"
	DCB	0x0, "t", 0x0, " ", 0x0, "P", 0x0, "D", 0x0, "X", 0x0, "1"
	DCB	0x0, ":", 0x0, " ", 0x0, "b", 0x0, "e", 0x0, " ", 0x0, "a"
	DCB	0x0, "t", 0x0, " ", 0x0, "D", 0x0, "1", 0x0, " ", 0x0, "o"
	DCB	0x0, "r", 0x0, " ", 0x0, "h", 0x0, "i", 0x0, "g", 0x0, "h"
	DCB	0x0, "e", 0x0, "r", 0x0, " ", 0x0, "i", 0x0, "n", 0x0, " "
	DCB	0x0, "a", 0x0, "l", 0x0, "l", 0x0, " ", 0x0, "s", 0x0, "y"
	DCB	0x0, "s", 0x0, "t", 0x0, "e", 0x0, "m", 0x0, " ", 0x0, "p"
	DCB	0x0, "o", 0x0, "w", 0x0, "e", 0x0, "r", 0x0, " ", 0x0, "s"
	DCB	0x0, "t", 0x0, "a", 0x0, "t", 0x0, "e", 0x0, "s", 0x0, ")"
	DCB	0x0, 0xa, 0x0, 0x0, 0x0			; `string'

  00000			 AREA	 |.rdata|, DATA, READONLY
|??_C@_1BBO@NDCENBDM@?$AA?5?$AA?5?$AA?5?$AA?5?$AA?5?$AA?5?$AA?5?$AA?5?$AA?5?$AA?5?$AA?5?$AAP?$AAM?$AAR?$AAE?$AAQ?$AA?5?$AA?$HL?$AA9?$AA8?$AAC?$AA5?$AA2?$AA5?$AA0?$AAD?$AA?9?$AAC?$AA2?$AA9?$AAA?$AA?9@| DCB " "
	DCB	0x0, " ", 0x0, " ", 0x0, " ", 0x0, " ", 0x0, " ", 0x0, " "
	DCB	0x0, " ", 0x0, " ", 0x0, " ", 0x0, " ", 0x0, "P", 0x0, "M"
	DCB	0x0, "R", 0x0, "E", 0x0, "Q", 0x0, " ", 0x0, "{", 0x0, "9"
	DCB	0x0, "8", 0x0, "C", 0x0, "5", 0x0, "2", 0x0, "5", 0x0, "0"
	DCB	0x0, "D", 0x0, "-", 0x0, "C", 0x0, "2", 0x0, "9", 0x0, "A"
	DCB	0x0, "-", 0x0, "4", 0x0, "9", 0x0, "8", 0x0, "5", 0x0, "-"
	DCB	0x0, "A", 0x0, "E", 0x0, "5", 0x0, "F", 0x0, "-", 0x0, "A"
	DCB	0x0, "F", 0x0, "E", 0x0, "5", 0x0, "3", 0x0, "6", 0x0, "7"
	DCB	0x0, "E", 0x0, "5", 0x0, "0", 0x0, "0", 0x0, "6", 0x0, "}"
	DCB	0x0, "\\", 0x0, "N", 0x0, "E", 0x0, "2", 0x0, "0", 0x0, "0"
	DCB	0x0, "0", 0x0, "1", 0x0, " ", 0x0, "0", 0x0, " ", 0x0, "1"
	DCB	0x0, " ", 0x0, "(", 0x0, "r", 0x0, "e", 0x0, "q", 0x0, "u"
	DCB	0x0, "i", 0x0, "r", 0x0, "e", 0x0, "s", 0x0, " ", 0x0, "t"
	DCB	0x0, "h", 0x0, "a", 0x0, "t", 0x0, " ", 0x0, "N", 0x0, "D"
	DCB	0x0, "I", 0x0, "S", 0x0, " ", 0x0, "m", 0x0, "i", 0x0, "n"
	DCB	0x0, "i", 0x0, "p", 0x0, "o", 0x0, "r", 0x0, "t", 0x0, " "
	DCB	0x0, "N", 0x0, "E", 0x0, "2", 0x0, "0", 0x0, "0", 0x0, "0"
	DCB	0x0, "1", 0x0, " ", 0x0, "b", 0x0, "e", 0x0, " ", 0x0, "a"
	DCB	0x0, "t", 0x0, " ", 0x0, "D", 0x0, "0", 0x0, " ", 0x0, "i"
	DCB	0x0, "n", 0x0, " ", 0x0, "a", 0x0, "l", 0x0, "l", 0x0, " "
	DCB	0x0, "s", 0x0, "y", 0x0, "s", 0x0, "t", 0x0, "e", 0x0, "m"
	DCB	0x0, " ", 0x0, "p", 0x0, "o", 0x0, "w", 0x0, "e", 0x0, "r"
	DCB	0x0, " ", 0x0, "s", 0x0, "t", 0x0, "a", 0x0, "t", 0x0, "e"
	DCB	0x0, "s", 0x0, ")", 0x0, 0xa, 0x0, 0x0, 0x0 ; `string'

  00000			 AREA	 |.rdata|, DATA, READONLY
|??_C@_15HCGDGKEF@?$AA?$CF?$AAp?$AA?$AA@| DCB "%", 0x0, "p", 0x0, 0x0, 0x0 ; `string'

  00000			 AREA	 |.rdata|, DATA, READONLY
|??_C@_15LHNHECKK@?$AA?$CF?$AAx?$AA?$AA@| DCB "%", 0x0, "x", 0x0, 0x0, 0x0 ; `string'

  00000			 AREA	 |.rdata|, DATA, READONLY
|??_C@_15GANGMFKL@?$AA?$CF?$AAs?$AA?$AA@| DCB "%", 0x0, "s", 0x0, 0x0, 0x0 ; `string'

  00000			 AREA	 |.rdata|, DATA, READONLY
|??_C@_1M@OIDCOICP@?$AAP?$AAM?$AAR?$AAE?$AAQ?$AA?$AA@| DCB "P", 0x0, "M", 0x0
	DCB	"R", 0x0, "E", 0x0, "Q", 0x0, 0x0, 0x0	; `string'
; Function compile flags: /Ogspy
; File c:\wince600\platform\z2170p\src\test\pmtest\pmreq\req.c

  00000			 AREA	 |.text|, CODE, ARM

  00000	00000000	 DCD         |__GSHandlerCheck|
  00004	00000000	 DCD         |$T39290|

  00008		 |WinMain| PROC

; 44   : {

  00008		 |$LN42@WinMain|
  00008	e92d4070	 stmdb       sp!, {r4 - r6, lr}
  0000c	e59fc47c	 ldr         r12, [pc, #0x47C]
  00010	e08dd00c	 add         sp, sp, r12
  00014		 |$M39291|
  00014	e1a04002	 mov         r4, r2
  00018	e59f346c	 ldr         r3, [pc, #0x46C]
  0001c	e5933000	 ldr         r3, [r3]
  00020	e28dca01	 add         r12, sp, #1, 20
  00024	e58c3274	 str         r3, [r12, #0x274]

; 45   :     WCHAR  device[1024] = {0};

  00028	e3a05c07	 mov         r5, #7, 24
  0002c	e3a03000	 mov         r3, #0
  00030	e38520fe	 orr         r2, r5, #0xFE
  00034	e3a01000	 mov         r1, #0
  00038	e3a00c02	 mov         r0, #2, 24
  0003c	e3800076	 orr         r0, r0, #0x76
  00040	e08d0000	 add         r0, sp, r0
  00044	e28dcc02	 add         r12, sp, #2, 24
  00048	e1cc37b4	 strh        r3, [r12, #0x74]
  0004c	eb000000	 bl          memset

; 46   :     //LPWSTR pDevice = &device[0];
; 47   :     DWORD  dwDeviceState = 0;
; 48   :     DWORD  dwDeviceFlags = 0;    

  00050	e3a02000	 mov         r2, #0

; 49   :     
; 50   :     WCHAR  state[1024] = {0};

  00054	e3a01000	 mov         r1, #0
  00058	e58d2010	 str         r2, [sp, #0x10]
  0005c	e28dcc0a	 add         r12, sp, #0xA, 24
  00060	e1cc17b4	 strh        r1, [r12, #0x74]
  00064	e3a03000	 mov         r3, #0
  00068	e38520fe	 orr         r2, r5, #0xFE
  0006c	e3a01000	 mov         r1, #0
  00070	e3a00c0a	 mov         r0, #0xA, 24
  00074	e3800076	 orr         r0, r0, #0x76
  00078	e08d0000	 add         r0, sp, r0
  0007c	e58d3014	 str         r3, [sp, #0x14]
  00080	eb000000	 bl          memset

; 51   :     //LPWSTR pState = &state[0];
; 52   :     DWORD  dwStateFlags = 0;  
; 53   : 
; 54   :     HANDLE h = NULL;
; 55   :     int    release = 0;
; 56   : 
; 57   :     WCHAR  szEventName[MAX_PATH];
; 58   : 
; 59   :     TCHAR  *argv[20];   
; 60   :     int     argc;
; 61   :     DWORD  dwErr=0;
; 62   : 
; 63   :     BOOL fGotState = FALSE;
; 64   : 
; 65   :     UNREFERENCED_PARAMETER(hInst);
; 66   :     UNREFERENCED_PARAMETER(hPrevInst);
; 67   :     UNREFERENCED_PARAMETER(nCmShow);
; 68   :     
; 69   :     //
; 70   :     // parse command line
; 71   :     //
; 72   :     argc = CreateArgvArgc(TEXT( "PMREQ" ), argv, lpCmdLine);

  00084	e59f03fc	 ldr         r0, [pc, #0x3FC]
  00088	e3a0e000	 mov         lr, #0
  0008c	e3a03000	 mov         r3, #0
  00090	e1a02004	 mov         r2, r4
  00094	e28d101c	 add         r1, sp, #0x1C
  00098	e58de00c	 str         lr, [sp, #0xC]
  0009c	e58d3018	 str         r3, [sp, #0x18]
  000a0	e3a06000	 mov         r6, #0
  000a4	e3a04000	 mov         r4, #0
  000a8	e3a05000	 mov         r5, #0
  000ac	eb000000	 bl          CreateArgvArgc

; 73   :     switch (argc) {

  000b0	e3500002	 cmp         r0, #2
  000b4	0a000039	 beq         |$LN26@WinMain|
  000b8	e3500004	 cmp         r0, #4
  000bc	0a000023	 beq         |$LN24@WinMain|
  000c0	e3500006	 cmp         r0, #6

; 88   :             
; 89   :         case 6:
; 90   :             if (!swscanf(argv[1], TEXT("%s"), &device))
; 91   :                 dwErr = 1;
; 92   :             if (!swscanf(argv[2], TEXT("%x"), &dwDeviceState))
; 93   :                 dwErr = 1;
; 94   :             if (!swscanf(argv[3], TEXT("%x"), &dwDeviceFlags))
; 95   :                 dwErr = 1;
; 96   :             if (!swscanf(argv[4], TEXT("%s"), &state))
; 97   :                 dwErr = 1;;
; 98   :             if (!swscanf(argv[5], TEXT("%x"), &dwStateFlags))
; 99   :                 dwErr = 1;
; 100  :             fGotState = TRUE;
; 101  :             break;
; 102  :             
; 103  :         default:
; 104  :             dwErr = 1;
; 105  :             break;

  000c4	1a00003e	 bne         |$LN35@WinMain|
  000c8	e59d0020	 ldr         r0, [sp, #0x20]
  000cc	e59f13b0	 ldr         r1, [pc, #0x3B0]
  000d0	e28d2f9d	 add         r2, sp, #0x9D, 30
  000d4	eb000000	 bl          swscanf
  000d8	e59f13a0	 ldr         r1, [pc, #0x3A0]
  000dc	e3500000	 cmp         r0, #0
  000e0	e59d0024	 ldr         r0, [sp, #0x24]
  000e4	e28d2014	 add         r2, sp, #0x14
  000e8	03a04001	 moveq       r4, #1
  000ec	eb000000	 bl          swscanf
  000f0	e59f1388	 ldr         r1, [pc, #0x388]
  000f4	e3500000	 cmp         r0, #0
  000f8	e59d0028	 ldr         r0, [sp, #0x28]
  000fc	e28d2010	 add         r2, sp, #0x10
  00100	03a04001	 moveq       r4, #1
  00104	eb000000	 bl          swscanf
  00108	e59f1374	 ldr         r1, [pc, #0x374]
  0010c	e3500000	 cmp         r0, #0
  00110	e59d002c	 ldr         r0, [sp, #0x2C]
  00114	e3a02c0a	 mov         r2, #0xA, 24
  00118	e3822074	 orr         r2, r2, #0x74
  0011c	e08d2002	 add         r2, sp, r2
  00120	03a04001	 moveq       r4, #1
  00124	eb000000	 bl          swscanf
  00128	e59f1350	 ldr         r1, [pc, #0x350]
  0012c	e3500000	 cmp         r0, #0
  00130	e59d0030	 ldr         r0, [sp, #0x30]
  00134	e28d2018	 add         r2, sp, #0x18
  00138	03a04001	 moveq       r4, #1
  0013c	eb000000	 bl          swscanf
  00140	e3500000	 cmp         r0, #0
  00144	03a04001	 moveq       r4, #1
  00148	e3a05001	 mov         r5, #1
  0014c	ea00001a	 b           |$LN27@WinMain|
  00150		 |$LN24@WinMain|

; 78   :             break;
; 79   :             
; 80   :         case 4:
; 81   :             if (!swscanf(argv[1], TEXT("%s"), &device))

  00150	e59f132c	 ldr         r1, [pc, #0x32C]
  00154	e59d0020	 ldr         r0, [sp, #0x20]
  00158	e28d2f9d	 add         r2, sp, #0x9D, 30
  0015c	eb000000	 bl          swscanf

; 82   :                 dwErr = 1;
; 83   :             if (!swscanf(argv[2], TEXT("%x"), &dwDeviceState))

  00160	e59f1318	 ldr         r1, [pc, #0x318]
  00164	e3500000	 cmp         r0, #0
  00168	e59d0024	 ldr         r0, [sp, #0x24]
  0016c	e28d2014	 add         r2, sp, #0x14
  00170	03a04001	 moveq       r4, #1
  00174	eb000000	 bl          swscanf

; 84   :                 dwErr = 1;
; 85   :             if (!swscanf(argv[3], TEXT("%x"), &dwDeviceFlags))

  00178	e59f1300	 ldr         r1, [pc, #0x300]
  0017c	e3500000	 cmp         r0, #0
  00180	e59d0028	 ldr         r0, [sp, #0x28]
  00184	e28d2010	 add         r2, sp, #0x10
  00188	03a04001	 moveq       r4, #1
  0018c	eb000000	 bl          swscanf
  00190	e3500000	 cmp         r0, #0
  00194	1a000008	 bne         |$LN27@WinMain|

; 86   :                 dwErr = 1;

  00198	e3a04001	 mov         r4, #1

; 87   :             break;

  0019c	ea000006	 b           |$LN27@WinMain|
  001a0		 |$LN26@WinMain|

; 74   :         case 2:
; 75   :             if (!swscanf(argv[1], TEXT("%p"), &h))

  001a0	e59f12d4	 ldr         r1, [pc, #0x2D4]
  001a4	e59d0020	 ldr         r0, [sp, #0x20]
  001a8	e28d200c	 add         r2, sp, #0xC
  001ac	eb000000	 bl          swscanf
  001b0	e3500000	 cmp         r0, #0

; 76   :                 dwErr = 1;

  001b4	03a04001	 moveq       r4, #1

; 77   :             release = 1;

  001b8	e3a06001	 mov         r6, #1
  001bc		 |$LN27@WinMain|

; 106  :     }
; 107  : 
; 108  :     if (dwErr) {

  001bc	e3540000	 cmp         r4, #0
  001c0	0a000029	 beq         |$LN13@WinMain|
  001c4		 |$LN35@WinMain|

; 109  :         RetailPrint  (TEXT("PMREQ <Device> <DeviceState> <DeviceFlags> [[<SystemState>] <SystemFlags>]\n"));

  001c4	e59f02ac	 ldr         r0, [pc, #0x2AC]
  001c8	eb000000	 bl          RetailPrint

; 110  :         RetailPrint  (TEXT("  Places a specific power requirement on a device.\n"));                

  001cc	e59f02a0	 ldr         r0, [pc, #0x2A0]
  001d0	eb000000	 bl          RetailPrint

; 111  :         RetailPrint  (TEXT("    <Device> names the deive, e.g. PDX1:\n"));        

  001d4	e59f0294	 ldr         r0, [pc, #0x294]
  001d8	eb000000	 bl          RetailPrint

; 112  :         RetailPrint  (TEXT("    <DeviceState> specifies the device state (Dx), e.g. 4\n"));

  001dc	e59f0288	 ldr         r0, [pc, #0x288]
  001e0	eb000000	 bl          RetailPrint

; 113  :         RetailPrint  (TEXT("    <DeviceFlags> specifies the device flags in hex, e.g. POWER_NAME = 0x1\n"));

  001e4	e59f027c	 ldr         r0, [pc, #0x27C]
  001e8	eb000000	 bl          RetailPrint

; 114  :         RetailPrint  (TEXT("    <SystemState> (OPTIONAL) names the system power state, e.g. LowPowerAC\n"));

  001ec	e59f0270	 ldr         r0, [pc, #0x270]
  001f0	eb000000	 bl          RetailPrint

; 115  :         RetailPrint  (TEXT("    <SystemFlags> (OPTIONAL) specifies the system power state flags, e.g. POWER_FORCE = 0x1000\n"));                

  001f4	e59f0264	 ldr         r0, [pc, #0x264]
  001f8	eb000000	 bl          RetailPrint

; 116  :         RetailPrint  (TEXT("Device names may be qualified with the device's class GUID.  This is\n"));

  001fc	e59f0258	 ldr         r0, [pc, #0x258]
  00200	eb000000	 bl          RetailPrint

; 117  :         RetailPrint  (TEXT("required for devices that are not members of the default power-manageable\n"));

  00204	e59f024c	 ldr         r0, [pc, #0x24C]
  00208	eb000000	 bl          RetailPrint

; 118  :         RetailPrint  (TEXT("device class\n"));

  0020c	e59f0240	 ldr         r0, [pc, #0x240]
  00210	eb000000	 bl          RetailPrint

; 119  : 
; 120  :         RetailPrint  (TEXT("PMREQ <handle>\n"));

  00214	e59f0234	 ldr         r0, [pc, #0x234]
  00218	eb000000	 bl          RetailPrint

; 121  :         RetailPrint  (TEXT("  Releases a previously established requirement\n"));

  0021c	e59f0228	 ldr         r0, [pc, #0x228]
  00220	eb000000	 bl          RetailPrint

; 122  :         RetailPrint  (TEXT("    where <handle> is the return HANDLE from a previous invocation of PMREQ\n\n"));

  00224	e59f021c	 ldr         r0, [pc, #0x21C]
  00228	eb000000	 bl          RetailPrint

; 123  :         
; 124  :         RetailPrint  (TEXT("  Example: PMREQ PDX1: 1 1 (requires that PDX1: be at D1 or higher in all system power states)\n"));

  0022c	e59f0210	 ldr         r0, [pc, #0x210]
  00230	eb000000	 bl          RetailPrint

; 125  :         RetailPrint  (TEXT("           PMREQ PDX1: 1 1 SystemIdle 0 (requires that PDX1: be at D1 or higher in the SystemIdle system power state\n"));

  00234	e59f0204	 ldr         r0, [pc, #0x204]
  00238	eb000000	 bl          RetailPrint

; 126  :         RetailPrint  (TEXT("           PMREQ PDX1: 1 1001 (requires that PDX1: be at D1 or higher in all system power states,\n"));

  0023c	e59f01f8	 ldr         r0, [pc, #0x1F8]
  00240	eb000000	 bl          RetailPrint

; 127  :         RetailPrint  (TEXT("                              even when the system is suspended; not all drivers actually stay powered\n"));

  00244	e59f01ec	 ldr         r0, [pc, #0x1EC]
  00248	eb000000	 bl          RetailPrint

; 128  :         RetailPrint  (TEXT("                              during suspend)\n"));

  0024c	e59f01e0	 ldr         r0, [pc, #0x1E0]
  00250	eb000000	 bl          RetailPrint

; 129  :         RetailPrint  (TEXT("           PMREQ {A32942B7-920C-486b-B0E6-92A702A99B35}\\PDX1: 1 1 (requires that PDX1: be at D1 or higher in all system power states)\n"));

  00254	e59f01d4	 ldr         r0, [pc, #0x1D4]
  00258	eb000000	 bl          RetailPrint

; 130  :         RetailPrint  (TEXT("           PMREQ {98C5250D-C29A-4985-AE5F-AFE5367E5006}\\NE20001 0 1 (requires that NDIS miniport NE20001 be at D0 in all system power states)\n"));

  0025c	e59f01c8	 ldr         r0, [pc, #0x1C8]
  00260	eb000000	 bl          RetailPrint

; 131  :         exit(1);

  00264	e3a00001	 mov         r0, #1
  00268	eb000000	 bl          exit
  0026c		 |$LN43@WinMain|
  0026c		 |$LN13@WinMain|

; 132  :     }
; 133  : 
; 134  :     if (!release) {

  0026c	e3560000	 cmp         r6, #0
  00270	1a000046	 bne         |$LN12@WinMain|

; 135  :         // set the requirement
; 136  :         if(!fGotState) {
; 137  :             h = SetPowerRequirement(device, dwDeviceState, dwDeviceFlags, NULL, 0);

  00274	e59d2010	 ldr         r2, [sp, #0x10]
  00278	e59d1014	 ldr         r1, [sp, #0x14]
  0027c	e3550000	 cmp         r5, #0
  00280	e28d0f9d	 add         r0, sp, #0x9D, 30
  00284	1a000004	 bne         |$LN11@WinMain|
  00288	e3a0e000	 mov         lr, #0
  0028c	e3a03000	 mov         r3, #0
  00290	e58de000	 str         lr, [sp]
  00294	eb000000	 bl          SetPowerRequirement

; 138  :         } else {

  00298	ea000005	 b           |$LN38@WinMain|
  0029c		 |$LN11@WinMain|

; 139  :             h = SetPowerRequirement(device, dwDeviceState, dwDeviceFlags, state, dwStateFlags);

  0029c	e59d3018	 ldr         r3, [sp, #0x18]
  002a0	e58d3000	 str         r3, [sp]
  002a4	e3a03c0a	 mov         r3, #0xA, 24
  002a8	e3833074	 orr         r3, r3, #0x74
  002ac	e08d3003	 add         r3, sp, r3
  002b0	eb000000	 bl          SetPowerRequirement
  002b4		 |$LN38@WinMain|
  002b4	e58d000c	 str         r0, [sp, #0xC]

; 140  :         }
; 141  :         if (h) {

  002b8	e3500000	 cmp         r0, #0
  002bc	0a000024	 beq         |$LN9@WinMain|

; 142  :             HANDLE hevWakeEvent;
; 143  :             DWORD dwProcess = GetCurrentProcessId();

  002c0	e3a0000c	 mov         r0, #0xC
  002c4	eb000000	 bl          __GetUserKData

; 144  :             
; 145  :             // create an event so we can be signaled to wake up and release the requirement
; 146  :             wsprintf(szEventName, _T("PMREQ_Wake_Event_%x"), dwProcess);

  002c8	e59f1158	 ldr         r1, [pc, #0x158]
  002cc	e1a05000	 mov         r5, r0
  002d0	e1a02005	 mov         r2, r5
  002d4	e28d006c	 add         r0, sp, #0x6C
  002d8	eb000000	 bl          wsprintfW

; 147  :             hevWakeEvent = CreateEvent(NULL, FALSE, FALSE, szEventName);

  002dc	e28d306c	 add         r3, sp, #0x6C
  002e0	e3a02000	 mov         r2, #0
  002e4	e3a01000	 mov         r1, #0
  002e8	e3a00000	 mov         r0, #0
  002ec	eb000000	 bl          CreateEventW
  002f0	e1b04000	 movs        r4, r0

; 148  :             if(hevWakeEvent != NULL) {

  002f4	0a000008	 beq         |$LN8@WinMain|

; 149  :                 RetailPrint  (TEXT("Use 'PMREQ %x' to release the requirement\n"), dwProcess);

  002f8	e59f0124	 ldr         r0, [pc, #0x124]
  002fc	e1a01005	 mov         r1, r5
  00300	eb000000	 bl          RetailPrint

; 150  :                 WaitForSingleObject(hevWakeEvent, INFINITE);

  00304	e3e01000	 mvn         r1, #0
  00308	e1a00004	 mov         r0, r4
  0030c	eb000000	 bl          WaitForSingleObject

; 151  :                 CloseHandle(hevWakeEvent);

  00310	e1a00004	 mov         r0, r4
  00314	eb000000	 bl          CloseHandle

; 152  :             } else {

  00318	ea000002	 b           |$LN7@WinMain|
  0031c		 |$LN8@WinMain|

; 153  :                 RetailPrint  (TEXT("PMREQ!CreateEvent('%s') failed %d\n"), szEventName);

  0031c	e59f00fc	 ldr         r0, [pc, #0xFC]
  00320	e28d106c	 add         r1, sp, #0x6C
  00324	eb000000	 bl          RetailPrint
  00328		 |$LN7@WinMain|

; 154  :             }
; 155  : 
; 156  :             // release the requirement
; 157  :             dwErr = ReleasePowerRequirement(h);

  00328	e59d000c	 ldr         r0, [sp, #0xC]
  0032c	eb000000	 bl          ReleasePowerRequirement

; 158  :             if(dwErr != ERROR_SUCCESS) {
; 159  :                 RetailPrint  (TEXT("PMREQ!ReleasePowerRequirement(0x%08x) failed %d\n"), h, dwErr);

  00330	e59d100c	 ldr         r1, [sp, #0xC]
  00334	e1b02000	 movs        r2, r0
  00338	0a000002	 beq         |$LN6@WinMain|
  0033c	e59f00d8	 ldr         r0, [pc, #0xD8]

; 175  :             RetailPrint  (TEXT("PMREQ!OpenEvent('%s') failed %d\r\n"), szEventName, GetLastError());

  00340	eb000000	 bl          RetailPrint

; 176  :         } else {

  00344	ea000027	 b           |$LN1@WinMain|
  00348		 |$LN6@WinMain|

; 160  :             } else {
; 161  :                 RetailPrint  (TEXT("PMREQ!ReleasePowerRequirement(0x%08x) succeeded\n"), h);

  00348	e59f00c8	 ldr         r0, [pc, #0xC8]
  0034c	eb000000	 bl          RetailPrint

; 162  :             }
; 163  :         } else {

  00350	ea000024	 b           |$LN1@WinMain|
  00354		 |$LN9@WinMain|

; 164  :             dwErr = GetLastError();

  00354	eb000000	 bl          GetLastError

; 165  :             RetailPrint  (TEXT("PMREQ!SetPowerRequirement(%s, %x, 0x%x, %s, 0x%x) ERROR:%d\n"), 
; 166  :                 device, dwDeviceState, dwDeviceFlags, state, dwStateFlags, dwErr);

  00358	e59d5018	 ldr         r5, [sp, #0x18]
  0035c	e59d3010	 ldr         r3, [sp, #0x10]
  00360	e59d2014	 ldr         r2, [sp, #0x14]
  00364	e1a04000	 mov         r4, r0
  00368	e59f00a4	 ldr         r0, [pc, #0xA4]
  0036c	e3a0ec0a	 mov         lr, #0xA, 24
  00370	e38ee074	 orr         lr, lr, #0x74
  00374	e08de00e	 add         lr, sp, lr
  00378	e28d1f9d	 add         r1, sp, #0x9D, 30
  0037c	e58d4008	 str         r4, [sp, #8]
  00380	e58d5004	 str         r5, [sp, #4]
  00384	e58de000	 str         lr, [sp]
  00388	eb000000	 bl          RetailPrint

; 167  :         }
; 168  :     } else {

  0038c	ea000015	 b           |$LN1@WinMain|
  00390		 |$LN12@WinMain|

; 169  :         HANDLE hevWakeEvent;
; 170  : 
; 171  :         // signal an event to wake up the process holding a requirement
; 172  :         wsprintf(szEventName, _T("PMREQ_Wake_Event_%p"), h);

  00390	e59d200c	 ldr         r2, [sp, #0xC]
  00394	e59f1074	 ldr         r1, [pc, #0x74]
  00398	e28d006c	 add         r0, sp, #0x6C
  0039c	eb000000	 bl          wsprintfW
  003a0	e3a0381f	 mov         r3, #0x1F, 16

; 173  :         hevWakeEvent = OpenEvent(EVENT_ALL_ACCESS, FALSE, szEventName);

  003a4	e3830003	 orr         r0, r3, #3
  003a8	e28d206c	 add         r2, sp, #0x6C
  003ac	e3a01000	 mov         r1, #0
  003b0	eb000000	 bl          OpenEventW
  003b4	e1b04000	 movs        r4, r0

; 174  :         if(hevWakeEvent == NULL) {

  003b8	1a000005	 bne         |$LN2@WinMain|

; 175  :             RetailPrint  (TEXT("PMREQ!OpenEvent('%s') failed %d\r\n"), szEventName, GetLastError());

  003bc	eb000000	 bl          GetLastError
  003c0	e1a02000	 mov         r2, r0
  003c4	e59f0040	 ldr         r0, [pc, #0x40]
  003c8	e28d106c	 add         r1, sp, #0x6C
  003cc	eb000000	 bl          RetailPrint

; 176  :         } else {

  003d0	ea000004	 b           |$LN1@WinMain|
  003d4		 |$LN2@WinMain|

; 177  :             SetEvent(hevWakeEvent);

  003d4	e3a01003	 mov         r1, #3
  003d8	e1a00004	 mov         r0, r4
  003dc	eb000000	 bl          EventModify

; 178  :             CloseHandle(hevWakeEvent);

  003e0	e1a00004	 mov         r0, r4
  003e4	eb000000	 bl          CloseHandle
  003e8		 |$LN1@WinMain|

; 179  :         }
; 180  :     }
; 181  : 
; 182  :     return 0;

  003e8	e28d0a01	 add         r0, sp, #1, 20
  003ec	e5900274	 ldr         r0, [r0, #0x274]
  003f0	eb000000	 bl          __security_check_cookie
  003f4	e3a00000	 mov         r0, #0

; 183  : }

  003f8	e3a0cc12	 mov         r12, #0x12, 24
  003fc	e38cc078	 orr         r12, r12, #0x78
  00400	e08dd00c	 add         sp, sp, r12
  00404	e8bd4070	 ldmia       sp!, {r4 - r6, lr}
  00408	e12fff1e	 bx          lr
  0040c		 |$LN44@WinMain|
  0040c		 |$LN45@WinMain|
  0040c	00000000	 DCD         |??_C@_1EE@CMPIMJDB@?$AAP?$AAM?$AAR?$AAE?$AAQ?$AA?$CB?$AAO?$AAp?$AAe?$AAn?$AAE?$AAv?$AAe?$AAn?$AAt?$AA?$CI?$AA?8?$AA?$CF?$AAs?$AA?8?$AA?$CJ?$AA?5?$AAf?$AAa?$AAi?$AAl?$AAe?$AAd?$AA?5?$AA?$CF?$AAd?$AA?$AN@|
  00410		 |$LN46@WinMain|
  00410	00000000	 DCD         |??_C@_1CI@FKMNLEEA@?$AAP?$AAM?$AAR?$AAE?$AAQ?$AA_?$AAW?$AAa?$AAk?$AAe?$AA_?$AAE?$AAv?$AAe?$AAn?$AAt?$AA_?$AA?$CF?$AAp?$AA?$AA@|
  00414		 |$LN47@WinMain|
  00414	00000000	 DCD         |??_C@_1HI@KKBODHFP@?$AAP?$AAM?$AAR?$AAE?$AAQ?$AA?$CB?$AAS?$AAe?$AAt?$AAP?$AAo?$AAw?$AAe?$AAr?$AAR?$AAe?$AAq?$AAu?$AAi?$AAr?$AAe?$AAm?$AAe?$AAn?$AAt?$AA?$CI?$AA?$CF?$AAs?$AA?0?$AA?5?$AA?$CF?$AAx@|
  00418		 |$LN48@WinMain|
  00418	00000000	 DCD         |??_C@_1GC@MMILMMEF@?$AAP?$AAM?$AAR?$AAE?$AAQ?$AA?$CB?$AAR?$AAe?$AAl?$AAe?$AAa?$AAs?$AAe?$AAP?$AAo?$AAw?$AAe?$AAr?$AAR?$AAe?$AAq?$AAu?$AAi?$AAr?$AAe?$AAm?$AAe?$AAn?$AAt?$AA?$CI?$AA0?$AAx@|
  0041c		 |$LN49@WinMain|
  0041c	00000000	 DCD         |??_C@_1GC@DJNILKFF@?$AAP?$AAM?$AAR?$AAE?$AAQ?$AA?$CB?$AAR?$AAe?$AAl?$AAe?$AAa?$AAs?$AAe?$AAP?$AAo?$AAw?$AAe?$AAr?$AAR?$AAe?$AAq?$AAu?$AAi?$AAr?$AAe?$AAm?$AAe?$AAn?$AAt?$AA?$CI?$AA0?$AAx@|
  00420		 |$LN50@WinMain|
  00420	00000000	 DCD         |??_C@_1EG@MHBFCHCC@?$AAP?$AAM?$AAR?$AAE?$AAQ?$AA?$CB?$AAC?$AAr?$AAe?$AAa?$AAt?$AAe?$AAE?$AAv?$AAe?$AAn?$AAt?$AA?$CI?$AA?8?$AA?$CF?$AAs?$AA?8?$AA?$CJ?$AA?5?$AAf?$AAa?$AAi?$AAl?$AAe?$AAd?$AA?5?$AA?$CF@|
  00424		 |$LN51@WinMain|
  00424	00000000	 DCD         |??_C@_1FG@GPHAEEFL@?$AAU?$AAs?$AAe?$AA?5?$AA?8?$AAP?$AAM?$AAR?$AAE?$AAQ?$AA?5?$AA?$CF?$AAx?$AA?8?$AA?5?$AAt?$AAo?$AA?5?$AAr?$AAe?$AAl?$AAe?$AAa?$AAs?$AAe?$AA?5?$AAt?$AAh?$AAe?$AA?5?$AAr?$AAe@|
  00428		 |$LN52@WinMain|
  00428	00000000	 DCD         |??_C@_1CI@JPHJJMKP@?$AAP?$AAM?$AAR?$AAE?$AAQ?$AA_?$AAW?$AAa?$AAk?$AAe?$AA_?$AAE?$AAv?$AAe?$AAn?$AAt?$AA_?$AA?$CF?$AAx?$AA?$AA@|
  0042c		 |$LN53@WinMain|
  0042c	00000000	 DCD         |??_C@_1BBO@NDCENBDM@?$AA?5?$AA?5?$AA?5?$AA?5?$AA?5?$AA?5?$AA?5?$AA?5?$AA?5?$AA?5?$AA?5?$AAP?$AAM?$AAR?$AAE?$AAQ?$AA?5?$AA?$HL?$AA9?$AA8?$AAC?$AA5?$AA2?$AA5?$AA0?$AAD?$AA?9?$AAC?$AA2?$AA9?$AAA?$AA?9@|
  00430		 |$LN54@WinMain|
  00430	00000000	 DCD         |??_C@_1BAO@MFIBNOKO@?$AA?5?$AA?5?$AA?5?$AA?5?$AA?5?$AA?5?$AA?5?$AA?5?$AA?5?$AA?5?$AA?5?$AAP?$AAM?$AAR?$AAE?$AAQ?$AA?5?$AA?$HL?$AAA?$AA3?$AA2?$AA9?$AA4?$AA2?$AAB?$AA7?$AA?9?$AA9?$AA2?$AA0?$AAC?$AA?9@|
  00434		 |$LN55@WinMain|
  00434	00000000	 DCD         |??_C@_1FO@GNEMKMMO@?$AA?5?$AA?5?$AA?5?$AA?5?$AA?5?$AA?5?$AA?5?$AA?5?$AA?5?$AA?5?$AA?5?$AA?5?$AA?5?$AA?5?$AA?5?$AA?5?$AA?5?$AA?5?$AA?5?$AA?5?$AA?5?$AA?5?$AA?5?$AA?5?$AA?5?$AA?5?$AA?5?$AA?5?$AA?5?$AA?5?$AAd?$AAu@|
  00438		 |$LN56@WinMain|
  00438	00000000	 DCD         |??_C@_1NA@EDGKPCOF@?$AA?5?$AA?5?$AA?5?$AA?5?$AA?5?$AA?5?$AA?5?$AA?5?$AA?5?$AA?5?$AA?5?$AA?5?$AA?5?$AA?5?$AA?5?$AA?5?$AA?5?$AA?5?$AA?5?$AA?5?$AA?5?$AA?5?$AA?5?$AA?5?$AA?5?$AA?5?$AA?5?$AA?5?$AA?5?$AA?5?$AAe?$AAv@|
  0043c		 |$LN57@WinMain|
  0043c	00000000	 DCD         |??_C@_1MG@HLFOPIFL@?$AA?5?$AA?5?$AA?5?$AA?5?$AA?5?$AA?5?$AA?5?$AA?5?$AA?5?$AA?5?$AA?5?$AAP?$AAM?$AAR?$AAE?$AAQ?$AA?5?$AAP?$AAD?$AAX?$AA1?$AA?3?$AA?5?$AA1?$AA?5?$AA1?$AA0?$AA0?$AA1?$AA?5?$AA?$CI?$AAr@|
  00440		 |$LN58@WinMain|
  00440	00000000	 DCD         |??_C@_1OM@ILPOJEJA@?$AA?5?$AA?5?$AA?5?$AA?5?$AA?5?$AA?5?$AA?5?$AA?5?$AA?5?$AA?5?$AA?5?$AAP?$AAM?$AAR?$AAE?$AAQ?$AA?5?$AAP?$AAD?$AAX?$AA1?$AA?3?$AA?5?$AA1?$AA?5?$AA1?$AA?5?$AAS?$AAy?$AAs?$AAt?$AAe@|
  00444		 |$LN59@WinMain|
  00444	00000000	 DCD         |??_C@_1MA@HJOLIBOB@?$AA?5?$AA?5?$AAE?$AAx?$AAa?$AAm?$AAp?$AAl?$AAe?$AA?3?$AA?5?$AAP?$AAM?$AAR?$AAE?$AAQ?$AA?5?$AAP?$AAD?$AAX?$AA1?$AA?3?$AA?5?$AA1?$AA?5?$AA1?$AA?5?$AA?$CI?$AAr?$AAe?$AAq?$AAu@|
  00448		 |$LN60@WinMain|
  00448	00000000	 DCD         |??_C@_1JM@IAHHKGLN@?$AA?5?$AA?5?$AA?5?$AA?5?$AAw?$AAh?$AAe?$AAr?$AAe?$AA?5?$AA?$DM?$AAh?$AAa?$AAn?$AAd?$AAl?$AAe?$AA?$DO?$AA?5?$AAi?$AAs?$AA?5?$AAt?$AAh?$AAe?$AA?5?$AAr?$AAe?$AAt?$AAu?$AAr?$AAn@|
  0044c		 |$LN61@WinMain|
  0044c	00000000	 DCD         |??_C@_1GC@GCEKAMLM@?$AA?5?$AA?5?$AAR?$AAe?$AAl?$AAe?$AAa?$AAs?$AAe?$AAs?$AA?5?$AAa?$AA?5?$AAp?$AAr?$AAe?$AAv?$AAi?$AAo?$AAu?$AAs?$AAl?$AAy?$AA?5?$AAe?$AAs?$AAt?$AAa?$AAb?$AAl?$AAi?$AAs@|
  00450		 |$LN62@WinMain|
  00450	00000000	 DCD         |??_C@_1CA@GPDIEMBK@?$AAP?$AAM?$AAR?$AAE?$AAQ?$AA?5?$AA?$DM?$AAh?$AAa?$AAn?$AAd?$AAl?$AAe?$AA?$DO?$AA?6?$AA?$AA@|
  00454		 |$LN63@WinMain|
  00454	00000000	 DCD         |??_C@_1BM@OIEOCHGP@?$AAd?$AAe?$AAv?$AAi?$AAc?$AAe?$AA?5?$AAc?$AAl?$AAa?$AAs?$AAs?$AA?6?$AA?$AA@|
  00458		 |$LN64@WinMain|
  00458	00000000	 DCD         |??_C@_1JG@MCJNELNP@?$AAr?$AAe?$AAq?$AAu?$AAi?$AAr?$AAe?$AAd?$AA?5?$AAf?$AAo?$AAr?$AA?5?$AAd?$AAe?$AAv?$AAi?$AAc?$AAe?$AAs?$AA?5?$AAt?$AAh?$AAa?$AAt?$AA?5?$AAa?$AAr?$AAe?$AA?5?$AAn?$AAo@|
  0045c		 |$LN65@WinMain|
  0045c	00000000	 DCD         |??_C@_1IM@MHCLGOAF@?$AAD?$AAe?$AAv?$AAi?$AAc?$AAe?$AA?5?$AAn?$AAa?$AAm?$AAe?$AAs?$AA?5?$AAm?$AAa?$AAy?$AA?5?$AAb?$AAe?$AA?5?$AAq?$AAu?$AAa?$AAl?$AAi?$AAf?$AAi?$AAe?$AAd?$AA?5?$AAw?$AAi@|
  00460		 |$LN66@WinMain|
  00460	00000000	 DCD         |??_C@_1MA@NKKDHCPJ@?$AA?5?$AA?5?$AA?5?$AA?5?$AA?$DM?$AAS?$AAy?$AAs?$AAt?$AAe?$AAm?$AAF?$AAl?$AAa?$AAg?$AAs?$AA?$DO?$AA?5?$AA?$CI?$AAO?$AAP?$AAT?$AAI?$AAO?$AAN?$AAA?$AAL?$AA?$CJ?$AA?5?$AAs?$AAp?$AAe@|
  00464		 |$LN67@WinMain|
  00464	00000000	 DCD         |??_C@_1JI@GEALGBPF@?$AA?5?$AA?5?$AA?5?$AA?5?$AA?$DM?$AAS?$AAy?$AAs?$AAt?$AAe?$AAm?$AAS?$AAt?$AAa?$AAt?$AAe?$AA?$DO?$AA?5?$AA?$CI?$AAO?$AAP?$AAT?$AAI?$AAO?$AAN?$AAA?$AAL?$AA?$CJ?$AA?5?$AAn?$AAa?$AAm@|
  00468		 |$LN68@WinMain|
  00468	00000000	 DCD         |??_C@_1JI@JLHAHOMM@?$AA?5?$AA?5?$AA?5?$AA?5?$AA?$DM?$AAD?$AAe?$AAv?$AAi?$AAc?$AAe?$AAF?$AAl?$AAa?$AAg?$AAs?$AA?$DO?$AA?5?$AAs?$AAp?$AAe?$AAc?$AAi?$AAf?$AAi?$AAe?$AAs?$AA?5?$AAt?$AAh?$AAe?$AA?5@|
  0046c		 |$LN69@WinMain|
  0046c	00000000	 DCD         |??_C@_1HG@BJPKPGGB@?$AA?5?$AA?5?$AA?5?$AA?5?$AA?$DM?$AAD?$AAe?$AAv?$AAi?$AAc?$AAe?$AAS?$AAt?$AAa?$AAt?$AAe?$AA?$DO?$AA?5?$AAs?$AAp?$AAe?$AAc?$AAi?$AAf?$AAi?$AAe?$AAs?$AA?5?$AAt?$AAh?$AAe?$AA?5@|
  00470		 |$LN70@WinMain|
  00470	00000000	 DCD         |??_C@_1FE@FMDKIKFG@?$AA?5?$AA?5?$AA?5?$AA?5?$AA?$DM?$AAD?$AAe?$AAv?$AAi?$AAc?$AAe?$AA?$DO?$AA?5?$AAn?$AAa?$AAm?$AAe?$AAs?$AA?5?$AAt?$AAh?$AAe?$AA?5?$AAd?$AAe?$AAi?$AAv?$AAe?$AA?0?$AA?5?$AAe?$AA?4@|
  00474		 |$LN71@WinMain|
  00474	00000000	 DCD         |??_C@_1GI@MNIBOKHN@?$AA?5?$AA?5?$AAP?$AAl?$AAa?$AAc?$AAe?$AAs?$AA?5?$AAa?$AA?5?$AAs?$AAp?$AAe?$AAc?$AAi?$AAf?$AAi?$AAc?$AA?5?$AAp?$AAo?$AAw?$AAe?$AAr?$AA?5?$AAr?$AAe?$AAq?$AAu?$AAi?$AAr@|
  00478		 |$LN72@WinMain|
  00478	00000000	 DCD         |??_C@_1JI@IBECJJBF@?$AAP?$AAM?$AAR?$AAE?$AAQ?$AA?5?$AA?$DM?$AAD?$AAe?$AAv?$AAi?$AAc?$AAe?$AA?$DO?$AA?5?$AA?$DM?$AAD?$AAe?$AAv?$AAi?$AAc?$AAe?$AAS?$AAt?$AAa?$AAt?$AAe?$AA?$DO?$AA?5?$AA?$DM?$AAD?$AAe@|
  0047c		 |$LN73@WinMain|
  0047c	00000000	 DCD         |??_C@_15HCGDGKEF@?$AA?$CF?$AAp?$AA?$AA@|
  00480		 |$LN74@WinMain|
  00480	00000000	 DCD         |??_C@_15LHNHECKK@?$AA?$CF?$AAx?$AA?$AA@|
  00484		 |$LN75@WinMain|
  00484	00000000	 DCD         |??_C@_15GANGMFKL@?$AA?$CF?$AAs?$AA?$AA@|
  00488		 |$LN76@WinMain|
  00488	00000000	 DCD         |??_C@_1M@OIDCOICP@?$AAP?$AAM?$AAR?$AAE?$AAQ?$AA?$AA@|
  0048c		 |$LN77@WinMain|
  0048c	00000000	 DCD         |__security_cookie|
  00490		 |$LN78@WinMain|
  00490	ffffed88	 DCD         0xffffed88
  00494		 |$LN37@WinMain|
  00494		 |$M39292|

			 ENDP  ; |WinMain|

	END
