; Listing generated by Microsoft (R) Optimizing Compiler Version 14.01.60511.01 

	TTL	C:\WINCE600\PLATFORM\Z2170P\SRC\BSP_COMMON\DISPLAY\lcd_qvga.c
	CODE32

  00000			 AREA	 |.drectve|, DRECTVE
	DCB	"-defaultlib:LIBCMT "
	DCB	"-defaultlib:OLDNAMES "

	EXPORT	|lcd_res_params| [ DATA ]

  00000			 AREA	 |.bss|, NOINIT
|bDVIEnabled| %	0x4

  00000			 AREA	 |.data|, DATA
|lcd_res_params| DCD 0x6
	DCD	0x140
	DCD	0xf0
	DCD	0x0
	DCD	0x11
	DCD	0x44
	DCD	0x0
	DCD	0xa
	DCD	0xd
	DCD	0x1
	DCD	0x8
	DCD	0xf
	DCD	0x0
	DCD	0x27000
	DCD	0x0
	DCD	0x0
	DCD	0x0
	DCD	0x0
	DCD	0x6
	DCD	0x280
	DCD	0x1e0
	DCD	0x3f
	DCD	0xf
	DCD	0x4f
	DCD	0x1
	DCD	0xa
	DCD	0x21
	DCD	0x1
	DCD	0x2
	DCD	0x11
	DCD	0x0
	DCD	0x23000
	DCD	0x0
	DCD	0x0
	DCD	0x0
	DCD	0x0
	DCD	0x6
	DCD	0x280
	DCD	0x1e0
	DCD	0x27
	DCD	0x17
	DCD	0x7f
	DCD	0x2
	DCD	0x9
	DCD	0x1c
	DCD	0x1
	DCD	0x4
	DCD	0x7
	DCD	0x0
	DCD	0x23000
	DCD	0x0
	DCD	0x0
	DCD	0x0
	DCD	0x0
	DCD	0x6
	DCD	0x320
	DCD	0x1e0
	DCD	0x37
	DCD	0x1f
	DCD	0x87
	DCD	0x2
	DCD	0x46
	DCD	0x44
	DCD	0x1
	DCD	0x2
	DCD	0xb
	DCD	0x0
	DCD	0x20000
	DCD	0x0
	DCD	0x0
	DCD	0x0
	DCD	0x0
	DCD	0x6
	DCD	0x320
	DCD	0x258
	DCD	0x3f
	DCD	0x27
	DCD	0x97
	DCD	0x3
	DCD	0x1
	DCD	0x17
	DCD	0x1
	DCD	0x2
	DCD	0xb
	DCD	0x0
	DCD	0x20000
	DCD	0x0
	DCD	0x0
	DCD	0x0
	DCD	0x0
	DCD	0x6
	DCD	0x320
	DCD	0x258
	DCD	0x3f
	DCD	0x17
	DCD	0x87
	DCD	0x1
	DCD	0x1
	DCD	0x16
	DCD	0x1
	DCD	0x4
	DCD	0x6
	DCD	0x0
	DCD	0x20000
	DCD	0x0
	DCD	0x0
	DCD	0x0
	DCD	0x0
	DCD	0x6
	DCD	0x400
	DCD	0x300
	DCD	0x3f
	DCD	0x17
	DCD	0xe7
	DCD	0x5
	DCD	0x3
	DCD	0x1d
	DCD	0x1
	DCD	0x2
	DCD	0x7
	DCD	0x0
	DCD	0x20000
	DCD	0x0
	DCD	0x0
	DCD	0x0
	DCD	0x0
	DCD	0x6
	DCD	0x500
	DCD	0x2d0
	DCD	0x3f
	DCD	0x3f
	DCD	0xff
	DCD	0x4
	DCD	0x3
	DCD	0x14
	DCD	0x1
	DCD	0x2
	DCD	0x6
	DCD	0x0
	DCD	0x26000
	DCD	0x0
	DCD	0x0
	DCD	0x0
	DCD	0x0
	DCD	0x6
	DCD	0x0
	DCD	0x0
	DCD	0x0
	DCD	0x0
	DCD	0x0
	DCD	0x0
	DCD	0x0
	DCD	0x0
	DCD	0x0
	DCD	0x0
	DCD	0x0
	DCD	0x0
	DCD	0x0
	DCD	0x0
	DCD	0x0
	DCD	0x0
	DCD	0x0
|g_dwSelectedDSSResolution| DCD 0x8

  00000			 AREA	 |.rdata|, DATA, READONLY
|EdbgVendorIds| DCW 0x0
	DCW	0x0
	DCD	0x4033
	DCB	0x1
	DCB	"AD", 0x0
	DCW	0x1050
	DCW	0x940
	DCD	0x4005
	DCB	0x1
	DCB	"LS", 0x0
	DCW	0x1050
	DCW	0x940
	DCD	0x2078
	DCB	0x1
	DCB	"LS", 0x0
	DCW	0x10ec
	DCW	0x8029
	DCD	0xc0f0
	DCB	0x1
	DCB	"KS", 0x0
	DCW	0x10ec
	DCW	0x8129
	DCD	0x0
	DCB	0x4
	DCB	"RT", 0x0
	DCW	0x10ec
	DCW	0x8139
	DCD	0x900b
	DCB	0x4
	DCB	"RT", 0x0
	DCW	0x10ec
	DCW	0x8139
	DCD	0xd0c9
	DCB	0x4
	DCB	"RT", 0x0
	DCW	0x10ec
	DCW	0x8139
	DCD	0xe04c
	DCB	0x4
	DCB	"RT", 0x0
	DCW	0x1186
	DCW	0x1300
	DCD	0x50ba
	DCB	0x4
	DCB	"DL", 0x0
	DCW	0x100b
	DCW	0x20
	DCD	0xa0cc
	DCB	0x5
	DCB	"NG", 0x0
	DCW	0x10b7
	DCW	0x9050
	DCD	0x6008
	DCB	0x6
	DCB	"3C", 0x0
	DCW	0x10b7
	DCW	0x9200
	DCD	0x476
	DCB	0x6
	DCB	"3C", 0x0
	EXPORT	|LcdPdd_LCD_InitResolution|
	EXPORT	|??_C@_1DM@JHFBIJGB@?$AAe?$AAr?$AAr?$AAo?$AAr?$AA?5?$AAL?$AAC?$AAD?$AA_?$AAV?$AAB?$AAP?$AA?5?$AAo?$AAu?$AAt?$AA?5?$AAo?$AAf?$AA?5?$AAr?$AAa?$AAn?$AAg?$AAe?$AA?5?$AA?$AN?$AA?6?$AA?$AA@| [ DATA ] ; `string'
	EXPORT	|??_C@_1DM@MMOBHECK@?$AAe?$AAr?$AAr?$AAo?$AAr?$AA?5?$AAL?$AAC?$AAD?$AA_?$AAV?$AAF?$AAP?$AA?5?$AAo?$AAu?$AAt?$AA?5?$AAo?$AAf?$AA?5?$AAr?$AAa?$AAn?$AAg?$AAe?$AA?5?$AA?$AN?$AA?6?$AA?$AA@| [ DATA ] ; `string'
	EXPORT	|??_C@_1DM@PDNLKEIH@?$AAe?$AAr?$AAr?$AAo?$AAr?$AA?5?$AAL?$AAC?$AAD?$AA_?$AAV?$AAS?$AAW?$AA?5?$AAo?$AAu?$AAt?$AA?5?$AAo?$AAf?$AA?5?$AAr?$AAa?$AAn?$AAg?$AAe?$AA?5?$AA?$AN?$AA?6?$AA?$AA@| [ DATA ] ; `string'
	EXPORT	|??_C@_1DM@EMLMGKHA@?$AAe?$AAr?$AAr?$AAo?$AAr?$AA?5?$AAL?$AAC?$AAD?$AA_?$AAH?$AAB?$AAP?$AA?5?$AAo?$AAu?$AAt?$AA?5?$AAo?$AAf?$AA?5?$AAr?$AAa?$AAn?$AAg?$AAe?$AA?5?$AA?$AN?$AA?6?$AA?$AA@| [ DATA ] ; `string'
	EXPORT	|??_C@_1DM@BHAMJHDL@?$AAe?$AAr?$AAr?$AAo?$AAr?$AA?5?$AAL?$AAC?$AAD?$AA_?$AAH?$AAF?$AAP?$AA?5?$AAo?$AAu?$AAt?$AA?5?$AAo?$AAf?$AA?5?$AAr?$AAa?$AAn?$AAg?$AAe?$AA?5?$AA?$AN?$AA?6?$AA?$AA@| [ DATA ] ; `string'
	EXPORT	|??_C@_1DM@CIDGEHJG@?$AAe?$AAr?$AAr?$AAo?$AAr?$AA?5?$AAL?$AAC?$AAD?$AA_?$AAH?$AAS?$AAW?$AA?5?$AAo?$AAu?$AAt?$AA?5?$AAo?$AAf?$AA?5?$AAr?$AAa?$AAn?$AAg?$AAe?$AA?5?$AA?$AN?$AA?6?$AA?$AA@| [ DATA ] ; `string'
	EXPORT	|??_C@_1EO@MEBIGCL@?$AAG?$AAe?$AAt?$AAD?$AAi?$AAs?$AAp?$AAl?$AAa?$AAy?$AAR?$AAe?$AAs?$AAo?$AAl?$AAu?$AAt?$AAi?$AAo?$AAn?$AAF?$AAr?$AAo?$AAm?$AAB?$AAo?$AAo?$AAt?$AAA?$AAr?$AAg?$AAs@| [ DATA ] ; `string'
	EXPORT	|??_C@_1EC@MMOGAKLI@?$AAL?$AAc?$AAd?$AAP?$AAd?$AAd?$AA_?$AAL?$AAC?$AAD?$AA_?$AAI?$AAn?$AAi?$AAt?$AAR?$AAe?$AAs?$AAo?$AAl?$AAu?$AAt?$AAi?$AAo?$AAn?$AA?5?$AA?3?$AA?5?$AA?$CF?$AAx?$AA?$AN?$AA?6@| [ DATA ] ; `string'
	IMPORT	|GetDisplayResolutionFromBootArgs|
	IMPORT	|NKDbgPrintfW|
; File c:\wince600\platform\z2170p\src\bsp_common\display\lcd_qvga.c

  00000			 AREA	 |.pdata|, PDATA
|$T46249| DCD	|$LN14@LcdPdd_LCD|
	DCD	0x40004d01

  00000			 AREA	 |.rdata|, DATA, READONLY
|??_C@_1DM@JHFBIJGB@?$AAe?$AAr?$AAr?$AAo?$AAr?$AA?5?$AAL?$AAC?$AAD?$AA_?$AAV?$AAB?$AAP?$AA?5?$AAo?$AAu?$AAt?$AA?5?$AAo?$AAf?$AA?5?$AAr?$AAa?$AAn?$AAg?$AAe?$AA?5?$AA?$AN?$AA?6?$AA?$AA@| DCB "e"
	DCB	0x0, "r", 0x0, "r", 0x0, "o", 0x0, "r", 0x0, " ", 0x0, "L"
	DCB	0x0, "C", 0x0, "D", 0x0, "_", 0x0, "V", 0x0, "B", 0x0, "P"
	DCB	0x0, " ", 0x0, "o", 0x0, "u", 0x0, "t", 0x0, " ", 0x0, "o"
	DCB	0x0, "f", 0x0, " ", 0x0, "r", 0x0, "a", 0x0, "n", 0x0, "g"
	DCB	0x0, "e", 0x0, " ", 0x0, 0xd, 0x0, 0xa, 0x0, 0x0, 0x0 ; `string'

  00000			 AREA	 |.rdata|, DATA, READONLY
|??_C@_1DM@MMOBHECK@?$AAe?$AAr?$AAr?$AAo?$AAr?$AA?5?$AAL?$AAC?$AAD?$AA_?$AAV?$AAF?$AAP?$AA?5?$AAo?$AAu?$AAt?$AA?5?$AAo?$AAf?$AA?5?$AAr?$AAa?$AAn?$AAg?$AAe?$AA?5?$AA?$AN?$AA?6?$AA?$AA@| DCB "e"
	DCB	0x0, "r", 0x0, "r", 0x0, "o", 0x0, "r", 0x0, " ", 0x0, "L"
	DCB	0x0, "C", 0x0, "D", 0x0, "_", 0x0, "V", 0x0, "F", 0x0, "P"
	DCB	0x0, " ", 0x0, "o", 0x0, "u", 0x0, "t", 0x0, " ", 0x0, "o"
	DCB	0x0, "f", 0x0, " ", 0x0, "r", 0x0, "a", 0x0, "n", 0x0, "g"
	DCB	0x0, "e", 0x0, " ", 0x0, 0xd, 0x0, 0xa, 0x0, 0x0, 0x0 ; `string'

  00000			 AREA	 |.rdata|, DATA, READONLY
|??_C@_1DM@PDNLKEIH@?$AAe?$AAr?$AAr?$AAo?$AAr?$AA?5?$AAL?$AAC?$AAD?$AA_?$AAV?$AAS?$AAW?$AA?5?$AAo?$AAu?$AAt?$AA?5?$AAo?$AAf?$AA?5?$AAr?$AAa?$AAn?$AAg?$AAe?$AA?5?$AA?$AN?$AA?6?$AA?$AA@| DCB "e"
	DCB	0x0, "r", 0x0, "r", 0x0, "o", 0x0, "r", 0x0, " ", 0x0, "L"
	DCB	0x0, "C", 0x0, "D", 0x0, "_", 0x0, "V", 0x0, "S", 0x0, "W"
	DCB	0x0, " ", 0x0, "o", 0x0, "u", 0x0, "t", 0x0, " ", 0x0, "o"
	DCB	0x0, "f", 0x0, " ", 0x0, "r", 0x0, "a", 0x0, "n", 0x0, "g"
	DCB	0x0, "e", 0x0, " ", 0x0, 0xd, 0x0, 0xa, 0x0, 0x0, 0x0 ; `string'

  00000			 AREA	 |.rdata|, DATA, READONLY
|??_C@_1DM@EMLMGKHA@?$AAe?$AAr?$AAr?$AAo?$AAr?$AA?5?$AAL?$AAC?$AAD?$AA_?$AAH?$AAB?$AAP?$AA?5?$AAo?$AAu?$AAt?$AA?5?$AAo?$AAf?$AA?5?$AAr?$AAa?$AAn?$AAg?$AAe?$AA?5?$AA?$AN?$AA?6?$AA?$AA@| DCB "e"
	DCB	0x0, "r", 0x0, "r", 0x0, "o", 0x0, "r", 0x0, " ", 0x0, "L"
	DCB	0x0, "C", 0x0, "D", 0x0, "_", 0x0, "H", 0x0, "B", 0x0, "P"
	DCB	0x0, " ", 0x0, "o", 0x0, "u", 0x0, "t", 0x0, " ", 0x0, "o"
	DCB	0x0, "f", 0x0, " ", 0x0, "r", 0x0, "a", 0x0, "n", 0x0, "g"
	DCB	0x0, "e", 0x0, " ", 0x0, 0xd, 0x0, 0xa, 0x0, 0x0, 0x0 ; `string'

  00000			 AREA	 |.rdata|, DATA, READONLY
|??_C@_1DM@BHAMJHDL@?$AAe?$AAr?$AAr?$AAo?$AAr?$AA?5?$AAL?$AAC?$AAD?$AA_?$AAH?$AAF?$AAP?$AA?5?$AAo?$AAu?$AAt?$AA?5?$AAo?$AAf?$AA?5?$AAr?$AAa?$AAn?$AAg?$AAe?$AA?5?$AA?$AN?$AA?6?$AA?$AA@| DCB "e"
	DCB	0x0, "r", 0x0, "r", 0x0, "o", 0x0, "r", 0x0, " ", 0x0, "L"
	DCB	0x0, "C", 0x0, "D", 0x0, "_", 0x0, "H", 0x0, "F", 0x0, "P"
	DCB	0x0, " ", 0x0, "o", 0x0, "u", 0x0, "t", 0x0, " ", 0x0, "o"
	DCB	0x0, "f", 0x0, " ", 0x0, "r", 0x0, "a", 0x0, "n", 0x0, "g"
	DCB	0x0, "e", 0x0, " ", 0x0, 0xd, 0x0, 0xa, 0x0, 0x0, 0x0 ; `string'

  00000			 AREA	 |.rdata|, DATA, READONLY
|??_C@_1DM@CIDGEHJG@?$AAe?$AAr?$AAr?$AAo?$AAr?$AA?5?$AAL?$AAC?$AAD?$AA_?$AAH?$AAS?$AAW?$AA?5?$AAo?$AAu?$AAt?$AA?5?$AAo?$AAf?$AA?5?$AAr?$AAa?$AAn?$AAg?$AAe?$AA?5?$AA?$AN?$AA?6?$AA?$AA@| DCB "e"
	DCB	0x0, "r", 0x0, "r", 0x0, "o", 0x0, "r", 0x0, " ", 0x0, "L"
	DCB	0x0, "C", 0x0, "D", 0x0, "_", 0x0, "H", 0x0, "S", 0x0, "W"
	DCB	0x0, " ", 0x0, "o", 0x0, "u", 0x0, "t", 0x0, " ", 0x0, "o"
	DCB	0x0, "f", 0x0, " ", 0x0, "r", 0x0, "a", 0x0, "n", 0x0, "g"
	DCB	0x0, "e", 0x0, " ", 0x0, 0xd, 0x0, 0xa, 0x0, 0x0, 0x0 ; `string'

  00000			 AREA	 |.rdata|, DATA, READONLY
|??_C@_1EO@MEBIGCL@?$AAG?$AAe?$AAt?$AAD?$AAi?$AAs?$AAp?$AAl?$AAa?$AAy?$AAR?$AAe?$AAs?$AAo?$AAl?$AAu?$AAt?$AAi?$AAo?$AAn?$AAF?$AAr?$AAo?$AAm?$AAB?$AAo?$AAo?$AAt?$AAA?$AAr?$AAg?$AAs@| DCB "G"
	DCB	0x0, "e", 0x0, "t", 0x0, "D", 0x0, "i", 0x0, "s", 0x0, "p"
	DCB	0x0, "l", 0x0, "a", 0x0, "y", 0x0, "R", 0x0, "e", 0x0, "s"
	DCB	0x0, "o", 0x0, "l", 0x0, "u", 0x0, "t", 0x0, "i", 0x0, "o"
	DCB	0x0, "n", 0x0, "F", 0x0, "r", 0x0, "o", 0x0, "m", 0x0, "B"
	DCB	0x0, "o", 0x0, "o", 0x0, "t", 0x0, "A", 0x0, "r", 0x0, "g"
	DCB	0x0, "s", 0x0, ":", 0x0, " ", 0x0, "%", 0x0, "x", 0x0, 0xd
	DCB	0x0, 0xa, 0x0, 0x0, 0x0			; `string'

  00000			 AREA	 |.rdata|, DATA, READONLY
|??_C@_1EC@MMOGAKLI@?$AAL?$AAc?$AAd?$AAP?$AAd?$AAd?$AA_?$AAL?$AAC?$AAD?$AA_?$AAI?$AAn?$AAi?$AAt?$AAR?$AAe?$AAs?$AAo?$AAl?$AAu?$AAt?$AAi?$AAo?$AAn?$AA?5?$AA?3?$AA?5?$AA?$CF?$AAx?$AA?$AN?$AA?6@| DCB "L"
	DCB	0x0, "c", 0x0, "d", 0x0, "P", 0x0, "d", 0x0, "d", 0x0, "_"
	DCB	0x0, "L", 0x0, "C", 0x0, "D", 0x0, "_", 0x0, "I", 0x0, "n"
	DCB	0x0, "i", 0x0, "t", 0x0, "R", 0x0, "e", 0x0, "s", 0x0, "o"
	DCB	0x0, "l", 0x0, "u", 0x0, "t", 0x0, "i", 0x0, "o", 0x0, "n"
	DCB	0x0, " ", 0x0, ":", 0x0, " ", 0x0, "%", 0x0, "x", 0x0, 0xd
	DCB	0x0, 0xa, 0x0, 0x0, 0x0			; `string'
; Function compile flags: /Ogspy

  00000			 AREA	 |.text|, CODE, ARM

  00000		 |LcdPdd_LCD_InitResolution| PROC

; 289  : {

  00000		 |$LN14@LcdPdd_LCD|
  00000	e92d4010	 stmdb       sp!, {r4, lr}
  00004		 |$M46246|

; 290  : 	RETAILMSG(1,(L"LcdPdd_LCD_InitResolution : %x\r\n",g_dwSelectedDSSResolution)); 

  00004	e59f4124	 ldr         r4, [pc, #0x124]
  00008	e59f011c	 ldr         r0, [pc, #0x11C]
  0000c	e5941288	 ldr         r1, [r4, #0x288]
  00010	eb000000	 bl          NKDbgPrintfW

; 291  :     if (g_dwSelectedDSSResolution == OMAP_RES_INVALID)

  00014	e5943288	 ldr         r3, [r4, #0x288]
  00018	e3530008	 cmp         r3, #8
  0001c	1a000039	 bne         |$LN1@LcdPdd_LCD|

; 292  :     {
; 293  :         GetDisplayResolutionFromBootArgs((DWORD *)&g_dwSelectedDSSResolution);

  00020	e2840fa2	 add         r0, r4, #0xA2, 30
  00024	eb000000	 bl          GetDisplayResolutionFromBootArgs

; 294  :         RETAILMSG(1,(L"GetDisplayResolutionFromBootArgs: %x\r\n",g_dwSelectedDSSResolution));

  00028	e5941288	 ldr         r1, [r4, #0x288]
  0002c	e59f00f4	 ldr         r0, [pc, #0xF4]
  00030	eb000000	 bl          NKDbgPrintfW

; 295  :         if ((g_dwSelectedDSSResolution >= OMAP_RES_INVALID) || (g_dwSelectedDSSResolution <0))

  00034	e5942288	 ldr         r2, [r4, #0x288]
  00038	e3520008	 cmp         r2, #8
  0003c	aa000001	 bge         |$LN7@LcdPdd_LCD|
  00040	e3520000	 cmp         r2, #0
  00044	5a000001	 bpl         |$LN8@LcdPdd_LCD|
  00048		 |$LN7@LcdPdd_LCD|

; 296  :             g_dwSelectedDSSResolution = OMAP_LCD_DEFAULT;

  00048	e3a02000	 mov         r2, #0
  0004c	e5842288	 str         r2, [r4, #0x288]
  00050		 |$LN8@LcdPdd_LCD|

; 297  :         
; 298  :         if (LCD_HSW > 63)

  00050	e0823182	 add         r3, r2, r2, lsl #3
  00054	e0843183	 add         r3, r4, r3, lsl #3
  00058	e593300c	 ldr         r3, [r3, #0xC]
  0005c	e353003f	 cmp         r3, #0x3F
  00060	9a000002	 bls         |$LN6@LcdPdd_LCD|

; 299  :             RETAILMSG(1,(L"error LCD_HSW out of range \r\n"));

  00064	e59f00b8	 ldr         r0, [pc, #0xB8]
  00068	eb000000	 bl          NKDbgPrintfW
  0006c	e5942288	 ldr         r2, [r4, #0x288]
  00070		 |$LN6@LcdPdd_LCD|

; 300  :                     
; 301  :         if (LCD_HFP > 255)

  00070	e0823182	 add         r3, r2, r2, lsl #3
  00074	e0843183	 add         r3, r4, r3, lsl #3
  00078	e5933010	 ldr         r3, [r3, #0x10]
  0007c	e35300ff	 cmp         r3, #0xFF
  00080	9a000002	 bls         |$LN5@LcdPdd_LCD|

; 302  :             RETAILMSG(1,(L"error LCD_HFP out of range \r\n"));

  00084	e59f0094	 ldr         r0, [pc, #0x94]
  00088	eb000000	 bl          NKDbgPrintfW
  0008c	e5942288	 ldr         r2, [r4, #0x288]
  00090		 |$LN5@LcdPdd_LCD|

; 303  :                     
; 304  :         if (LCD_HBP > 255)

  00090	e0823182	 add         r3, r2, r2, lsl #3
  00094	e0843183	 add         r3, r4, r3, lsl #3
  00098	e5933014	 ldr         r3, [r3, #0x14]
  0009c	e35300ff	 cmp         r3, #0xFF
  000a0	9a000002	 bls         |$LN4@LcdPdd_LCD|

; 305  :             RETAILMSG(1,(L"error LCD_HBP out of range \r\n"));

  000a4	e59f0070	 ldr         r0, [pc, #0x70]
  000a8	eb000000	 bl          NKDbgPrintfW
  000ac	e5942288	 ldr         r2, [r4, #0x288]
  000b0		 |$LN4@LcdPdd_LCD|

; 306  :                     
; 307  :         if (LCD_VSW > 63)

  000b0	e0823182	 add         r3, r2, r2, lsl #3
  000b4	e0843183	 add         r3, r4, r3, lsl #3
  000b8	e5933018	 ldr         r3, [r3, #0x18]
  000bc	e353003f	 cmp         r3, #0x3F
  000c0	9a000002	 bls         |$LN3@LcdPdd_LCD|

; 308  :             RETAILMSG(1,(L"error LCD_VSW out of range \r\n"));

  000c4	e59f004c	 ldr         r0, [pc, #0x4C]
  000c8	eb000000	 bl          NKDbgPrintfW
  000cc	e5942288	 ldr         r2, [r4, #0x288]
  000d0		 |$LN3@LcdPdd_LCD|

; 309  :                     
; 310  :         if (LCD_VFP > 255)

  000d0	e0823182	 add         r3, r2, r2, lsl #3
  000d4	e0843183	 add         r3, r4, r3, lsl #3
  000d8	e593301c	 ldr         r3, [r3, #0x1C]
  000dc	e35300ff	 cmp         r3, #0xFF
  000e0	9a000002	 bls         |$LN2@LcdPdd_LCD|

; 311  :             RETAILMSG(1,(L"error LCD_VFP out of range \r\n"));

  000e4	e59f0028	 ldr         r0, [pc, #0x28]
  000e8	eb000000	 bl          NKDbgPrintfW
  000ec	e5942288	 ldr         r2, [r4, #0x288]
  000f0		 |$LN2@LcdPdd_LCD|

; 312  :                     
; 313  :         if (LCD_VBP > 255)

  000f0	e0823182	 add         r3, r2, r2, lsl #3
  000f4	e0843183	 add         r3, r4, r3, lsl #3
  000f8	e5933020	 ldr         r3, [r3, #0x20]
  000fc	e35300ff	 cmp         r3, #0xFF

; 314  :             RETAILMSG(1,(L"error LCD_VBP out of range \r\n"));

  00100	859f0008	 ldrhi       r0, [pc, #8]
  00104	8b000000	 blhi        NKDbgPrintfW
  00108		 |$LN1@LcdPdd_LCD|

; 315  :     }
; 316  :         
; 317  : }

  00108	e8bd4010	 ldmia       sp!, {r4, lr}
  0010c	e12fff1e	 bx          lr
  00110		 |$LN15@LcdPdd_LCD|
  00110		 |$LN16@LcdPdd_LCD|
  00110	00000000	 DCD         |??_C@_1DM@JHFBIJGB@?$AAe?$AAr?$AAr?$AAo?$AAr?$AA?5?$AAL?$AAC?$AAD?$AA_?$AAV?$AAB?$AAP?$AA?5?$AAo?$AAu?$AAt?$AA?5?$AAo?$AAf?$AA?5?$AAr?$AAa?$AAn?$AAg?$AAe?$AA?5?$AA?$AN?$AA?6?$AA?$AA@|
  00114		 |$LN17@LcdPdd_LCD|
  00114	00000000	 DCD         |??_C@_1DM@MMOBHECK@?$AAe?$AAr?$AAr?$AAo?$AAr?$AA?5?$AAL?$AAC?$AAD?$AA_?$AAV?$AAF?$AAP?$AA?5?$AAo?$AAu?$AAt?$AA?5?$AAo?$AAf?$AA?5?$AAr?$AAa?$AAn?$AAg?$AAe?$AA?5?$AA?$AN?$AA?6?$AA?$AA@|
  00118		 |$LN18@LcdPdd_LCD|
  00118	00000000	 DCD         |??_C@_1DM@PDNLKEIH@?$AAe?$AAr?$AAr?$AAo?$AAr?$AA?5?$AAL?$AAC?$AAD?$AA_?$AAV?$AAS?$AAW?$AA?5?$AAo?$AAu?$AAt?$AA?5?$AAo?$AAf?$AA?5?$AAr?$AAa?$AAn?$AAg?$AAe?$AA?5?$AA?$AN?$AA?6?$AA?$AA@|
  0011c		 |$LN19@LcdPdd_LCD|
  0011c	00000000	 DCD         |??_C@_1DM@EMLMGKHA@?$AAe?$AAr?$AAr?$AAo?$AAr?$AA?5?$AAL?$AAC?$AAD?$AA_?$AAH?$AAB?$AAP?$AA?5?$AAo?$AAu?$AAt?$AA?5?$AAo?$AAf?$AA?5?$AAr?$AAa?$AAn?$AAg?$AAe?$AA?5?$AA?$AN?$AA?6?$AA?$AA@|
  00120		 |$LN20@LcdPdd_LCD|
  00120	00000000	 DCD         |??_C@_1DM@BHAMJHDL@?$AAe?$AAr?$AAr?$AAo?$AAr?$AA?5?$AAL?$AAC?$AAD?$AA_?$AAH?$AAF?$AAP?$AA?5?$AAo?$AAu?$AAt?$AA?5?$AAo?$AAf?$AA?5?$AAr?$AAa?$AAn?$AAg?$AAe?$AA?5?$AA?$AN?$AA?6?$AA?$AA@|
  00124		 |$LN21@LcdPdd_LCD|
  00124	00000000	 DCD         |??_C@_1DM@CIDGEHJG@?$AAe?$AAr?$AAr?$AAo?$AAr?$AA?5?$AAL?$AAC?$AAD?$AA_?$AAH?$AAS?$AAW?$AA?5?$AAo?$AAu?$AAt?$AA?5?$AAo?$AAf?$AA?5?$AAr?$AAa?$AAn?$AAg?$AAe?$AA?5?$AA?$AN?$AA?6?$AA?$AA@|
  00128		 |$LN22@LcdPdd_LCD|
  00128	00000000	 DCD         |??_C@_1EO@MEBIGCL@?$AAG?$AAe?$AAt?$AAD?$AAi?$AAs?$AAp?$AAl?$AAa?$AAy?$AAR?$AAe?$AAs?$AAo?$AAl?$AAu?$AAt?$AAi?$AAo?$AAn?$AAF?$AAr?$AAo?$AAm?$AAB?$AAo?$AAo?$AAt?$AAA?$AAr?$AAg?$AAs@|
  0012c		 |$LN23@LcdPdd_LCD|
  0012c	00000000	 DCD         |??_C@_1EC@MMOGAKLI@?$AAL?$AAc?$AAd?$AAP?$AAd?$AAd?$AA_?$AAL?$AAC?$AAD?$AA_?$AAI?$AAn?$AAi?$AAt?$AAR?$AAe?$AAs?$AAo?$AAl?$AAu?$AAt?$AAi?$AAo?$AAn?$AA?5?$AA?3?$AA?5?$AA?$CF?$AAx?$AA?$AN?$AA?6@|
  00130		 |$LN24@LcdPdd_LCD|
  00130	00000000	 DCD         |lcd_res_params|
  00134		 |$M46247|

			 ENDP  ; |LcdPdd_LCD_InitResolution|

	EXPORT	|LcdPdd_GetMemory|
	IMPORT	|ConvertCAtoPA|

  00000			 AREA	 |.pdata|, PDATA
|$T46270| DCD	|$LN7@LcdPdd_Get|
	DCD	0x40000d01
; Function compile flags: /Ogspy

  00000			 AREA	 |.text|, CODE, ARM

  00000		 |LcdPdd_GetMemory| PROC

; 419  : {

  00000		 |$LN7@LcdPdd_Get|
  00000	e92d4010	 stmdb       sp!, {r4, lr}
  00004		 |$M46267|
  00004	e1a04001	 mov         r4, r1
  00008	e3500000	 cmp         r0, #0

; 420  :     //  Return video memory parameters
; 421  :     if( pVideoMemLen )
; 422  :         *pVideoMemLen = IMAGE_WINCE_DISPLAY_SIZE;

  0000c	13a0361a	 movne       r3, #0x1A, 12
  00010	15803000	 strne       r3, [r0]

; 423  : 
; 424  :     if( pVideoMemAddr )

  00014	e3540000	 cmp         r4, #0
  00018	0a000002	 beq         |$LN1@LcdPdd_Get|

; 425  :     {
; 426  :         DWORD videoCAAddr = IMAGE_WINCE_DISPLAY_CA;
; 427  :         *pVideoMemAddr = ConvertCAtoPA((DWORD *)videoCAAddr);

  0001c	e3a00322	 mov         r0, #0x22, 6
  00020	eb000000	 bl          ConvertCAtoPA
  00024	e5840000	 str         r0, [r4]
  00028		 |$LN1@LcdPdd_Get|

; 428  :     }
; 429  : 
; 430  :     return TRUE;

  00028	e3a00001	 mov         r0, #1

; 431  : }

  0002c	e8bd4010	 ldmia       sp!, {r4, lr}
  00030	e12fff1e	 bx          lr
  00034		 |$M46268|

			 ENDP  ; |LcdPdd_GetMemory|

	EXPORT	|LcdPdd_LCD_GetMode|
	EXPORT	|??_C@_1EM@DAPONPED@?$AA?$FL?$AAL?$AAc?$AAd?$AAP?$AAd?$AAd?$AA_?$AAL?$AAC?$AAD?$AA_?$AAG?$AAe?$AAt?$AAM?$AAo?$AAd?$AAe?$AA?$FN?$AA?5?$AAP?$AAi?$AAx?$AAe?$AAl?$AAC?$AAl?$AAo?$AAc?$AAk?$AA?3@| [ DATA ] ; `string'
	EXPORT	|??_C@_1EE@MGKPBCBJ@?$AA?$FL?$AAL?$AAc?$AAd?$AAP?$AAd?$AAd?$AA_?$AAL?$AAC?$AAD?$AA_?$AAG?$AAe?$AAt?$AAM?$AAo?$AAd?$AAe?$AA?$FN?$AA?5?$AAH?$AAe?$AAi?$AAg?$AAh?$AAt?$AA?3?$AA?$CF?$AAd?$AA?5?$AA?$AN@| [ DATA ] ; `string'
	EXPORT	|??_C@_1EC@IIEILOOP@?$AA?$FL?$AAL?$AAc?$AAd?$AAP?$AAd?$AAd?$AA_?$AAL?$AAC?$AAD?$AA_?$AAG?$AAe?$AAt?$AAM?$AAo?$AAd?$AAe?$AA?$FN?$AA?5?$AAW?$AAi?$AAd?$AAt?$AAh?$AA?3?$AA?$CF?$AAd?$AA?5?$AA?$AN?$AA?6@| [ DATA ] ; `string'
	EXPORT	|??_C@_1EM@HCKNPMCD@?$AA?$FL?$AAL?$AAc?$AAd?$AAP?$AAd?$AAd?$AA_?$AAL?$AAC?$AAD?$AA_?$AAG?$AAe?$AAt?$AAM?$AAo?$AAd?$AAe?$AA?$FN?$AA?5?$AAP?$AAi?$AAx?$AAe?$AAl?$AAF?$AAo?$AAr?$AAm?$AAa?$AAt@| [ DATA ] ; `string'
	EXPORT	|??_C@_1DO@KCGAIHAL@?$AA?6?$AA?$AN?$AA?$CK?$AA?$CK?$AA?$CK?$AA?5?$AAL?$AAc?$AAd?$AAP?$AAd?$AAd?$AA_?$AAL?$AAC?$AAD?$AA_?$AAG?$AAe?$AAt?$AAM?$AAo?$AAd?$AAe?$AA?5?$AA?$CK?$AA?$CK?$AA?$CK?$AA?6?$AA?$AN?$AA?$AA@| [ DATA ] ; `string'
	IMPORT	|__rt_udiv|

  00000			 AREA	 |.pdata|, PDATA
|$T46284| DCD	|$LN9@LcdPdd_LCD@2|
	DCD	0x40003d01

  00000			 AREA	 |.rdata|, DATA, READONLY
|??_C@_1EM@DAPONPED@?$AA?$FL?$AAL?$AAc?$AAd?$AAP?$AAd?$AAd?$AA_?$AAL?$AAC?$AAD?$AA_?$AAG?$AAe?$AAt?$AAM?$AAo?$AAd?$AAe?$AA?$FN?$AA?5?$AAP?$AAi?$AAx?$AAe?$AAl?$AAC?$AAl?$AAo?$AAc?$AAk?$AA?3@| DCB "["
	DCB	0x0, "L", 0x0, "c", 0x0, "d", 0x0, "P", 0x0, "d", 0x0, "d"
	DCB	0x0, "_", 0x0, "L", 0x0, "C", 0x0, "D", 0x0, "_", 0x0, "G"
	DCB	0x0, "e", 0x0, "t", 0x0, "M", 0x0, "o", 0x0, "d", 0x0, "e"
	DCB	0x0, "]", 0x0, " ", 0x0, "P", 0x0, "i", 0x0, "x", 0x0, "e"
	DCB	0x0, "l", 0x0, "C", 0x0, "l", 0x0, "o", 0x0, "c", 0x0, "k"
	DCB	0x0, ":", 0x0, "%", 0x0, "d", 0x0, " ", 0x0, 0xd, 0x0, 0xa
	DCB	0x0, 0x0, 0x0				; `string'

  00000			 AREA	 |.rdata|, DATA, READONLY
|??_C@_1EE@MGKPBCBJ@?$AA?$FL?$AAL?$AAc?$AAd?$AAP?$AAd?$AAd?$AA_?$AAL?$AAC?$AAD?$AA_?$AAG?$AAe?$AAt?$AAM?$AAo?$AAd?$AAe?$AA?$FN?$AA?5?$AAH?$AAe?$AAi?$AAg?$AAh?$AAt?$AA?3?$AA?$CF?$AAd?$AA?5?$AA?$AN@| DCB "["
	DCB	0x0, "L", 0x0, "c", 0x0, "d", 0x0, "P", 0x0, "d", 0x0, "d"
	DCB	0x0, "_", 0x0, "L", 0x0, "C", 0x0, "D", 0x0, "_", 0x0, "G"
	DCB	0x0, "e", 0x0, "t", 0x0, "M", 0x0, "o", 0x0, "d", 0x0, "e"
	DCB	0x0, "]", 0x0, " ", 0x0, "H", 0x0, "e", 0x0, "i", 0x0, "g"
	DCB	0x0, "h", 0x0, "t", 0x0, ":", 0x0, "%", 0x0, "d", 0x0, " "
	DCB	0x0, 0xd, 0x0, 0xa, 0x0, 0x0, 0x0	; `string'

  00000			 AREA	 |.rdata|, DATA, READONLY
|??_C@_1EC@IIEILOOP@?$AA?$FL?$AAL?$AAc?$AAd?$AAP?$AAd?$AAd?$AA_?$AAL?$AAC?$AAD?$AA_?$AAG?$AAe?$AAt?$AAM?$AAo?$AAd?$AAe?$AA?$FN?$AA?5?$AAW?$AAi?$AAd?$AAt?$AAh?$AA?3?$AA?$CF?$AAd?$AA?5?$AA?$AN?$AA?6@| DCB "["
	DCB	0x0, "L", 0x0, "c", 0x0, "d", 0x0, "P", 0x0, "d", 0x0, "d"
	DCB	0x0, "_", 0x0, "L", 0x0, "C", 0x0, "D", 0x0, "_", 0x0, "G"
	DCB	0x0, "e", 0x0, "t", 0x0, "M", 0x0, "o", 0x0, "d", 0x0, "e"
	DCB	0x0, "]", 0x0, " ", 0x0, "W", 0x0, "i", 0x0, "d", 0x0, "t"
	DCB	0x0, "h", 0x0, ":", 0x0, "%", 0x0, "d", 0x0, " ", 0x0, 0xd
	DCB	0x0, 0xa, 0x0, 0x0, 0x0			; `string'

  00000			 AREA	 |.rdata|, DATA, READONLY
|??_C@_1EM@HCKNPMCD@?$AA?$FL?$AAL?$AAc?$AAd?$AAP?$AAd?$AAd?$AA_?$AAL?$AAC?$AAD?$AA_?$AAG?$AAe?$AAt?$AAM?$AAo?$AAd?$AAe?$AA?$FN?$AA?5?$AAP?$AAi?$AAx?$AAe?$AAl?$AAF?$AAo?$AAr?$AAm?$AAa?$AAt@| DCB "["
	DCB	0x0, "L", 0x0, "c", 0x0, "d", 0x0, "P", 0x0, "d", 0x0, "d"
	DCB	0x0, "_", 0x0, "L", 0x0, "C", 0x0, "D", 0x0, "_", 0x0, "G"
	DCB	0x0, "e", 0x0, "t", 0x0, "M", 0x0, "o", 0x0, "d", 0x0, "e"
	DCB	0x0, "]", 0x0, " ", 0x0, "P", 0x0, "i", 0x0, "x", 0x0, "e"
	DCB	0x0, "l", 0x0, "F", 0x0, "o", 0x0, "r", 0x0, "m", 0x0, "a"
	DCB	0x0, "t", 0x0, ":", 0x0, "%", 0x0, "d", 0x0, 0xd, 0x0, 0xa
	DCB	0x0, 0x0, 0x0				; `string'

  00000			 AREA	 |.rdata|, DATA, READONLY
|??_C@_1DO@KCGAIHAL@?$AA?6?$AA?$AN?$AA?$CK?$AA?$CK?$AA?$CK?$AA?5?$AAL?$AAc?$AAd?$AAP?$AAd?$AAd?$AA_?$AAL?$AAC?$AAD?$AA_?$AAG?$AAe?$AAt?$AAM?$AAo?$AAd?$AAe?$AA?5?$AA?$CK?$AA?$CK?$AA?$CK?$AA?6?$AA?$AN?$AA?$AA@| DCB 0xa
	DCB	0x0, 0xd, 0x0, "*", 0x0, "*", 0x0, "*", 0x0, " ", 0x0, "L"
	DCB	0x0, "c", 0x0, "d", 0x0, "P", 0x0, "d", 0x0, "d", 0x0, "_"
	DCB	0x0, "L", 0x0, "C", 0x0, "D", 0x0, "_", 0x0, "G", 0x0, "e"
	DCB	0x0, "t", 0x0, "M", 0x0, "o", 0x0, "d", 0x0, "e", 0x0, " "
	DCB	0x0, "*", 0x0, "*", 0x0, "*", 0x0, 0xa, 0x0, 0xd, 0x0, 0x0
	DCB	0x0					; `string'
; Function compile flags: /Ogspy

  00000			 AREA	 |.text|, CODE, ARM

  00000		 |LcdPdd_LCD_GetMode| PROC

; 441  : {

  00000		 |$LN9@LcdPdd_LCD@2|
  00000	e92d41f0	 stmdb       sp!, {r4 - r8, lr}
  00004		 |$M46281|
  00004	e1a08003	 mov         r8, r3
  00008	e1a05002	 mov         r5, r2
  0000c	e1a06001	 mov         r6, r1
  00010	e1a07000	 mov         r7, r0

; 442  : 	RETAILMSG(1,(L"\n\r*** LcdPdd_LCD_GetMode ***\n\r"));

  00014	e59f00d4	 ldr         r0, [pc, #0xD4]
  00018	eb000000	 bl          NKDbgPrintfW

; 443  :     LcdPdd_LCD_InitResolution();        

  0001c	eb000000	 bl          LcdPdd_LCD_InitResolution

; 444  :     
; 445  :     //  Return default LCD parameters
; 446  :     if( pPixelFormat )

  00020	e59f40c4	 ldr         r4, [pc, #0xC4]
  00024	e3570000	 cmp         r7, #0

; 447  :     {
; 448  :         *pPixelFormat = DEFAULT_PIXELTYPE;
; 449  :         RETAILMSG(1, (TEXT("[LcdPdd_LCD_GetMode] PixelFormat:%d\r\n"),*pPixelFormat));

  00028	159f00b8	 ldrne       r0, [pc, #0xB8]
  0002c	1594e288	 ldrne       lr, [r4, #0x288]
  00030	108ee18e	 addne       lr, lr, lr, lsl #3
  00034	1794e18e	 ldrne       lr, [r4, +lr, lsl #3]
  00038	11a0100e	 movne       r1, lr
  0003c	1587e000	 strne       lr, [r7]
  00040	1b000000	 blne        NKDbgPrintfW

; 450  : 	}
; 451  :     if( pWidth )

  00044	e3560000	 cmp         r6, #0

; 452  :     {
; 453  :         *pWidth = LCD_WIDTH;

  00048	15943288	 ldrne       r3, [r4, #0x288]

; 454  :         RETAILMSG(1, (TEXT("[LcdPdd_LCD_GetMode] Width:%d \r\n"),*pWidth));

  0004c	159f0090	 ldrne       r0, [pc, #0x90]
  00050	10833183	 addne       r3, r3, r3, lsl #3
  00054	10843183	 addne       r3, r4, r3, lsl #3
  00058	15933004	 ldrne       r3, [r3, #4]
  0005c	11a01003	 movne       r1, r3
  00060	15863000	 strne       r3, [r6]
  00064	1b000000	 blne        NKDbgPrintfW

; 455  : 	}
; 456  :     if( pHeight )

  00068	e3550000	 cmp         r5, #0

; 457  :     {
; 458  :         *pHeight = LCD_HEIGHT;

  0006c	15943288	 ldrne       r3, [r4, #0x288]

; 459  :         RETAILMSG(1, (TEXT("[LcdPdd_LCD_GetMode] Height:%d \r\n"),*pHeight));

  00070	159f0068	 ldrne       r0, [pc, #0x68]
  00074	10833183	 addne       r3, r3, r3, lsl #3
  00078	10843183	 addne       r3, r4, r3, lsl #3
  0007c	15933008	 ldrne       r3, [r3, #8]
  00080	11a01003	 movne       r1, r3
  00084	15853000	 strne       r3, [r5]
  00088	1b000000	 blne        NKDbgPrintfW

; 460  : 	}
; 461  :     if ( pPixelClock )

  0008c	e3580000	 cmp         r8, #0
  00090	0a00000e	 beq         |$LN1@LcdPdd_LCD@2|

; 462  :     {
; 463  :         *pPixelClock = (864000000 / BSP_DSS_CLKSEL_DSS1) / BSP_LCD_PIXCLKDIV;

  00094	e5943288	 ldr         r3, [r4, #0x288]
  00098	e3a025ce	 mov         r2, #0xCE, 10
  0009c	e2421b1a	 sub         r1, r2, #0x1A, 22
  000a0	e0833183	 add         r3, r3, r3, lsl #3
  000a4	e0844183	 add         r4, r4, r3, lsl #3
  000a8	e594002c	 ldr         r0, [r4, #0x2C]
  000ac	eb000000	 bl          __rt_udiv
  000b0	e1a01000	 mov         r1, r0
  000b4	e5940028	 ldr         r0, [r4, #0x28]
  000b8	eb000000	 bl          __rt_udiv
  000bc	e1a03000	 mov         r3, r0

; 464  : 		RETAILMSG(1, (TEXT("[LcdPdd_LCD_GetMode] PixelClock:%d \r\n"),*pPixelClock));

  000c0	e59f0014	 ldr         r0, [pc, #0x14]
  000c4	e1a01003	 mov         r1, r3
  000c8	e5883000	 str         r3, [r8]
  000cc	eb000000	 bl          NKDbgPrintfW
  000d0		 |$LN1@LcdPdd_LCD@2|

; 465  : 	}
; 466  :     return TRUE;

  000d0	e3a00001	 mov         r0, #1

; 467  : }

  000d4	e8bd41f0	 ldmia       sp!, {r4 - r8, lr}
  000d8	e12fff1e	 bx          lr
  000dc		 |$LN10@LcdPdd_LCD@2|
  000dc		 |$LN11@LcdPdd_LCD@2|
  000dc	00000000	 DCD         |??_C@_1EM@DAPONPED@?$AA?$FL?$AAL?$AAc?$AAd?$AAP?$AAd?$AAd?$AA_?$AAL?$AAC?$AAD?$AA_?$AAG?$AAe?$AAt?$AAM?$AAo?$AAd?$AAe?$AA?$FN?$AA?5?$AAP?$AAi?$AAx?$AAe?$AAl?$AAC?$AAl?$AAo?$AAc?$AAk?$AA?3@|
  000e0		 |$LN12@LcdPdd_LCD@2|
  000e0	00000000	 DCD         |??_C@_1EE@MGKPBCBJ@?$AA?$FL?$AAL?$AAc?$AAd?$AAP?$AAd?$AAd?$AA_?$AAL?$AAC?$AAD?$AA_?$AAG?$AAe?$AAt?$AAM?$AAo?$AAd?$AAe?$AA?$FN?$AA?5?$AAH?$AAe?$AAi?$AAg?$AAh?$AAt?$AA?3?$AA?$CF?$AAd?$AA?5?$AA?$AN@|
  000e4		 |$LN13@LcdPdd_LCD@2|
  000e4	00000000	 DCD         |??_C@_1EC@IIEILOOP@?$AA?$FL?$AAL?$AAc?$AAd?$AAP?$AAd?$AAd?$AA_?$AAL?$AAC?$AAD?$AA_?$AAG?$AAe?$AAt?$AAM?$AAo?$AAd?$AAe?$AA?$FN?$AA?5?$AAW?$AAi?$AAd?$AAt?$AAh?$AA?3?$AA?$CF?$AAd?$AA?5?$AA?$AN?$AA?6@|
  000e8		 |$LN14@LcdPdd_LCD@2|
  000e8	00000000	 DCD         |??_C@_1EM@HCKNPMCD@?$AA?$FL?$AAL?$AAc?$AAd?$AAP?$AAd?$AAd?$AA_?$AAL?$AAC?$AAD?$AA_?$AAG?$AAe?$AAt?$AAM?$AAo?$AAd?$AAe?$AA?$FN?$AA?5?$AAP?$AAi?$AAx?$AAe?$AAl?$AAF?$AAo?$AAr?$AAm?$AAa?$AAt@|
  000ec		 |$LN15@LcdPdd_LCD@2|
  000ec	00000000	 DCD         |lcd_res_params|
  000f0		 |$LN16@LcdPdd_LCD@2|
  000f0	00000000	 DCD         |??_C@_1DO@KCGAIHAL@?$AA?6?$AA?$AN?$AA?$CK?$AA?$CK?$AA?$CK?$AA?5?$AAL?$AAc?$AAd?$AAP?$AAd?$AAd?$AA_?$AAL?$AAC?$AAD?$AA_?$AAG?$AAe?$AAt?$AAM?$AAo?$AAd?$AAe?$AA?5?$AA?$CK?$AA?$CK?$AA?$CK?$AA?6?$AA?$AN?$AA?$AA@|
  000f4		 |$M46282|

			 ENDP  ; |LcdPdd_LCD_GetMode|

	EXPORT	|LcdPdd_SetPowerLevel|
	EXPORT	|??_C@_1EK@PCOLBNDB@?$AA?6?$AA?$AN?$AA?$CK?$AA?$CK?$AA?$CK?$AA?5?$AAL?$AAc?$AAd?$AAP?$AAd?$AAd?$AA_?$AAS?$AAe?$AAt?$AAP?$AAo?$AAw?$AAe?$AAr?$AAL?$AAe?$AAv?$AAe?$AAl?$AA?$CI?$AA?$CF?$AAd?$AA?$CJ?$AA?5?$AA?$CK@| [ DATA ] ; `string'
	IMPORT	|LcdStall|
	IMPORT	|LcdPowerControl|
	IMPORT	|LcdResBControl|

  00004			 AREA	 |.bss|, NOINIT
|g_pDispRegs| %	0x4
|g_pDispRegs| %	0x4

  00000			 AREA	 |.pdata|, PDATA
|$T46302| DCD	|$LN13@LcdPdd_Set|
	DCD	0x40003201

  00000			 AREA	 |.rdata|, DATA, READONLY
|??_C@_1EK@PCOLBNDB@?$AA?6?$AA?$AN?$AA?$CK?$AA?$CK?$AA?$CK?$AA?5?$AAL?$AAc?$AAd?$AAP?$AAd?$AAd?$AA_?$AAS?$AAe?$AAt?$AAP?$AAo?$AAw?$AAe?$AAr?$AAL?$AAe?$AAv?$AAe?$AAl?$AA?$CI?$AA?$CF?$AAd?$AA?$CJ?$AA?5?$AA?$CK@| DCB 0xa
	DCB	0x0, 0xd, 0x0, "*", 0x0, "*", 0x0, "*", 0x0, " ", 0x0, "L"
	DCB	0x0, "c", 0x0, "d", 0x0, "P", 0x0, "d", 0x0, "d", 0x0, "_"
	DCB	0x0, "S", 0x0, "e", 0x0, "t", 0x0, "P", 0x0, "o", 0x0, "w"
	DCB	0x0, "e", 0x0, "r", 0x0, "L", 0x0, "e", 0x0, "v", 0x0, "e"
	DCB	0x0, "l", 0x0, "(", 0x0, "%", 0x0, "d", 0x0, ")", 0x0, " "
	DCB	0x0, "*", 0x0, "*", 0x0, "*", 0x0, 0xa, 0x0, 0xd, 0x0, 0x0
	DCB	0x0					; `string'
; Function compile flags: /Ogspy

  00000			 AREA	 |.text|, CODE, ARM

  00000		 |LcdPdd_SetPowerLevel| PROC

; 474  : {

  00000		 |$LN13@LcdPdd_Set|
  00000	e92d4030	 stmdb       sp!, {r4, r5, lr}
  00004		 |$M46299|
  00004	e1a04000	 mov         r4, r0

; 475  :     // Do nothing if LCD has not yet been initialized
; 476  :     if (g_pDispRegs == NULL)

  00008	e59f50b4	 ldr         r5, [pc, #0xB4]
  0000c	e5953000	 ldr         r3, [r5]
  00010	e3530000	 cmp         r3, #0

; 477  :         return FALSE;

  00014	03a00000	 moveq       r0, #0

; 535  : }   

  00018	08bd4030	 ldmeqia     sp!, {r4, r5, lr}
  0001c	012fff1e	 bxeq        lr

; 478  : 	RETAILMSG(1,(L"\n\r*** LcdPdd_SetPowerLevel(%d) ***\n\r",dwPowerLevel));

  00020	e59f0098	 ldr         r0, [pc, #0x98]
  00024	e1a01004	 mov         r1, r4
  00028	eb000000	 bl          NKDbgPrintfW

; 479  :     // Power display up/down
; 480  :     switch(dwPowerLevel)

  0002c	e3540002	 cmp         r4, #2
  00030	9a00000a	 bls         |$LN4@LcdPdd_Set|
  00034	e3540004	 cmp         r4, #4
  00038	8a00001d	 bhi         |$LN5@LcdPdd_Set|

; 510  :             
; 511  : 			// 5 - Raise INI
; 512  : 			//LcdIniControl(TRUE);
; 513  :             break;        
; 514  : 
; 515  :         case D3:
; 516  :         case D4:
; 517  :             // disable DVI
; 518  :             //LcdDviEnableControl(FALSE);
; 519  : 
; 520  :             // LCD power disable sequence
; 521  :             // 1 - Clear INI
; 522  :             //LcdIniControl(FALSE);
; 523  :                 
; 524  :             // 2 - Delay > 5 frames
; 525  :             //LcdSleep(20*5);
; 526  :             
; 527  :             // 3 - Stop all
; 528  :             CLRREG32( &g_pDispRegs->DISPC_CONTROL, DISPC_CONTROL_LCDENABLE );        

  0003c	e5952000	 ldr         r2, [r5]

; 529  :             LcdResBControl(TRUE);

  00040	e3a00001	 mov         r0, #1
  00044	e5923040	 ldr         r3, [r2, #0x40]
  00048	e3c33001	 bic         r3, r3, #1
  0004c	e5823040	 str         r3, [r2, #0x40]
  00050	eb000000	 bl          LcdResBControl

; 530  :             LcdPowerControl(FALSE);

  00054	e3a00000	 mov         r0, #0
  00058	eb000000	 bl          LcdPowerControl

; 531  :             break;

  0005c	ea000014	 b           |$LN5@LcdPdd_Set|
  00060		 |$LN4@LcdPdd_Set|

; 481  :     {
; 482  :         case D0:
; 483  :         case D1:
; 484  :         case D2:
; 485  : 			// change output format to 18 bit
; 486  : 			OUTREG32( &g_pDispRegs->DISPC_CONTROL,
; 487  : 					DISPC_CONTROL_GPOUT1 | DISPC_CONTROL_GPOUT0 |
; 488  : 					DISPC_CONTROL_TFTDATALINES_24 | DISPC_CONTROL_STNTFT);

  00060	e5952000	 ldr         r2, [r5]
  00064	e3a03906	 mov         r3, #6, 18
  00068	e3833fc2	 orr         r3, r3, #0xC2, 30
  0006c	e5823040	 str         r3, [r2, #0x40]

; 489  : 
; 490  : 			// Apply display configuration
; 491  : 			SETREG32(&g_pDispRegs->DISPC_CONTROL, DISPC_CONTROL_GOLCD);

  00070	e5923040	 ldr         r3, [r2, #0x40]

; 492  : 
; 493  : 			// LCD power enable sequence
; 494  : 			// 1 - Turn on power
; 495  : 			LcdPowerControl(TRUE);

  00074	e3a00001	 mov         r0, #1
  00078	e3833020	 orr         r3, r3, #0x20
  0007c	e5823040	 str         r3, [r2, #0x40]
  00080	eb000000	 bl          LcdPowerControl

; 496  :                         
; 497  : 			// 2 - Start scanning
; 498  : 			if (dwPowerLevel == D2)
; 499  : 				CLRREG32( &g_pDispRegs->DISPC_CONTROL, DISPC_CONTROL_LCDENABLE );        

  00084	e5952000	 ldr         r2, [r5]
  00088	e3540002	 cmp         r4, #2

; 500  : 			else
; 501  : 				SETREG32( &g_pDispRegs->DISPC_CONTROL, DISPC_CONTROL_LCDENABLE );        
; 502  :     
; 503  : 			// 3 - Delay for minimum 20uS
; 504  : 			LcdStall(50);

  0008c	e3a00032	 mov         r0, #0x32
  00090	e5923040	 ldr         r3, [r2, #0x40]
  00094	03c33001	 biceq       r3, r3, #1
  00098	13833001	 orrne       r3, r3, #1
  0009c	e5823040	 str         r3, [r2, #0x40]
  000a0	eb000000	 bl          LcdStall

; 505  :             
; 506  : 			// 4 - Raise RESB
; 507  : 			LcdResBControl(FALSE);

  000a4	e3a00000	 mov         r0, #0
  000a8	eb000000	 bl          LcdResBControl

; 508  :             
; 509  : 			LcdStall(10);

  000ac	e3a0000a	 mov         r0, #0xA
  000b0	eb000000	 bl          LcdStall
  000b4		 |$LN5@LcdPdd_Set|

; 532  :     }
; 533  :         
; 534  :     return TRUE;

  000b4	e3a00001	 mov         r0, #1

; 535  : }   

  000b8	e8bd4030	 ldmia       sp!, {r4, r5, lr}
  000bc	e12fff1e	 bx          lr
  000c0		 |$LN14@LcdPdd_Set|
  000c0		 |$LN15@LcdPdd_Set|
  000c0	00000000	 DCD         |??_C@_1EK@PCOLBNDB@?$AA?6?$AA?$AN?$AA?$CK?$AA?$CK?$AA?$CK?$AA?5?$AAL?$AAc?$AAd?$AAP?$AAd?$AAd?$AA_?$AAS?$AAe?$AAt?$AAP?$AAo?$AAw?$AAe?$AAr?$AAL?$AAe?$AAv?$AAe?$AAl?$AA?$CI?$AA?$CF?$AAd?$AA?$CJ?$AA?5?$AA?$CK@|
  000c4		 |$LN16@LcdPdd_Set|
  000c4	00000000	 DCD         |g_pDispRegs|
  000c8		 |$M46300|

			 ENDP  ; |LcdPdd_SetPowerLevel|

	EXPORT	|LcdPdd_DVI_Select|

  00000			 AREA	 |.pdata|, PDATA
|$T46315| DCD	|$LN5@LcdPdd_DVI|
	DCD	0x40000600
; Function compile flags: /Ogspy

  00000			 AREA	 |.text|, CODE, ARM

  00000		 |LcdPdd_DVI_Select| PROC

; 542  : {

  00000		 |$LN5@LcdPdd_DVI|
  00000		 |$M46312|
  00000	e1a02000	 mov         r2, r0

; 543  : 
; 544  :     // only changes the select variable, does not perform the change
; 545  :     bDVIEnabled = bEnable;

  00004	e59f3008	 ldr         r3, [pc, #8]

; 546  :     return TRUE;

  00008	e3a00001	 mov         r0, #1
  0000c	e5832000	 str         r2, [r3]

; 547  : }

  00010	e12fff1e	 bx          lr
  00014		 |$LN6@LcdPdd_DVI|
  00014		 |$LN7@LcdPdd_DVI|
  00014	00000000	 DCD         |bDVIEnabled|
  00018		 |$M46313|

			 ENDP  ; |LcdPdd_DVI_Select|

	EXPORT	|LcdPdd_DVI_Enabled|

  00000			 AREA	 |.pdata|, PDATA
|$T46326| DCD	|$LN5@LcdPdd_DVI@2|
	DCD	0x40000501
; Function compile flags: /Ogspy

  00000			 AREA	 |.text|, CODE, ARM

  00000		 |LcdPdd_DVI_Enabled| PROC

; 552  : {

  00000		 |$LN5@LcdPdd_DVI@2|
  00000	e52de004	 str         lr, [sp, #-4]!
  00004		 |$M46323|

; 553  :     LcdPdd_LCD_InitResolution();

  00004	eb000000	 bl          LcdPdd_LCD_InitResolution

; 554  :     return FALSE;

  00008	e3a00000	 mov         r0, #0

; 555  : }

  0000c	e49de004	 ldr         lr, [sp], #4
  00010	e12fff1e	 bx          lr
  00014		 |$M46324|

			 ENDP  ; |LcdPdd_DVI_Enabled|

	EXPORT	|LcdPdd_Get_PixClkDiv|

  00000			 AREA	 |.pdata|, PDATA
|$T46335| DCD	|$LN5@LcdPdd_Get@2|
	DCD	0x40000a01
; Function compile flags: /Ogspy

  00000			 AREA	 |.text|, CODE, ARM

  00000		 |LcdPdd_Get_PixClkDiv| PROC

; 560  : {

  00000		 |$LN5@LcdPdd_Get@2|
  00000	e52de004	 str         lr, [sp, #-4]!
  00004		 |$M46332|

; 561  :     LcdPdd_LCD_InitResolution();

  00004	eb000000	 bl          LcdPdd_LCD_InitResolution

; 562  :     return LCD_PIXCLKDIV;

  00008	e59f3014	 ldr         r3, [pc, #0x14]
  0000c	e5931288	 ldr         r1, [r3, #0x288]
  00010	e2832028	 add         r2, r3, #0x28
  00014	e0813181	 add         r3, r1, r1, lsl #3
  00018	e7920183	 ldr         r0, [r2, +r3, lsl #3]

; 563  : }

  0001c	e49de004	 ldr         lr, [sp], #4
  00020	e12fff1e	 bx          lr
  00024		 |$LN6@LcdPdd_Get@2|
  00024		 |$LN7@LcdPdd_Get@2|
  00024	00000000	 DCD         |lcd_res_params|
  00028		 |$M46333|

			 ENDP  ; |LcdPdd_Get_PixClkDiv|

	EXPORT	|LcdPdd_LCD_Initialize|
	EXPORT	|??_C@_1CO@DIPDPAEO@?$AAD?$AAI?$AAS?$AAP?$AAC?$AA_?$AAC?$AAO?$AAN?$AAT?$AAR?$AAO?$AAL?$AA?5?$AA?$DN?$AA?5?$AA0?$AAx?$AA?$CF?$AAx?$AA?6?$AA?$AN?$AA?$AA@| [ DATA ] ; `string'
	EXPORT	|??_C@_1CM@HCDDCHH@?$AAD?$AAI?$AAS?$AAP?$AAC?$AA_?$AAC?$AAO?$AAN?$AAF?$AAI?$AAG?$AA?5?$AA?$DN?$AA?5?$AA0?$AAx?$AA?$CF?$AAx?$AA?6?$AA?$AN?$AA?$AA@| [ DATA ] ; `string'
	EXPORT	|??_C@_1DM@MDGCOONA@?$AAD?$AAI?$AAS?$AAP?$AAC?$AA_?$AAD?$AAE?$AAF?$AAA?$AAU?$AAL?$AAT?$AA_?$AAC?$AAO?$AAL?$AAO?$AAR?$AA0?$AA?5?$AA?$DN?$AA?5?$AA0?$AAx?$AA?$CF?$AAx?$AA?6?$AA?$AN?$AA?$AA@| [ DATA ] ; `string'
	EXPORT	|??_C@_1DI@LCOLEDMF@?$AAD?$AAI?$AAS?$AAP?$AAC?$AA_?$AAT?$AAR?$AAA?$AAN?$AAS?$AA_?$AAC?$AAO?$AAL?$AAO?$AAR?$AA0?$AA?5?$AA?$DN?$AA?5?$AA0?$AAx?$AA?$CF?$AAx?$AA?6?$AA?$AN?$AA?$AA@| [ DATA ] ; `string'
	EXPORT	|??_C@_1DA@GCNEODEP@?$AAD?$AAI?$AAS?$AAP?$AAC?$AA_?$AAP?$AAO?$AAL?$AA_?$AAF?$AAR?$AAE?$AAQ?$AA?5?$AA?$DN?$AA?5?$AA0?$AAx?$AA?$CF?$AAx?$AA?6?$AA?$AN?$AA?$AA@| [ DATA ] ; `string'
	EXPORT	|??_C@_1CO@FCGDNCPH@?$AAD?$AAI?$AAS?$AAP?$AAC?$AA_?$AAD?$AAI?$AAV?$AAI?$AAS?$AAO?$AAR?$AA?5?$AA?$DN?$AA?5?$AA0?$AAx?$AA?$CF?$AAx?$AA?6?$AA?$AN?$AA?$AA@| [ DATA ] ; `string'
	EXPORT	|??_C@_1DA@DMNHGDEB@?$AAD?$AAI?$AAS?$AAP?$AAC?$AA_?$AAS?$AAI?$AAZ?$AAE?$AA_?$AAL?$AAC?$AAD?$AA?5?$AA?$DN?$AA?5?$AA0?$AAx?$AA?$CF?$AAx?$AA?6?$AA?$AN?$AA?$AA@| [ DATA ] ; `string'
	EXPORT	|??_C@_1EE@POJFJFPA@?$AA?6?$AA?$AN?$AA?$CK?$AA?$CK?$AA?$CK?$AA?5?$AAL?$AAc?$AAd?$AAP?$AAd?$AAd?$AA_?$AAL?$AAC?$AAD?$AA_?$AAI?$AAn?$AAi?$AAt?$AAi?$AAa?$AAl?$AAi?$AAz?$AAe?$AA?5?$AA?$CK?$AA?$CK?$AA?$CK?$AA?6@| [ DATA ] ; `string'
	IMPORT	|MmUnmapIoSpace|
	IMPORT	|LcdInitGpio|
	IMPORT	|MmMapIoSpace|

  00000			 AREA	 |.pdata|, PDATA
|$T46350| DCD	|$LN6@LcdPdd_LCD@3|
	DCD	0x40008001

  00000			 AREA	 |.rdata|, DATA, READONLY
|??_C@_1CO@DIPDPAEO@?$AAD?$AAI?$AAS?$AAP?$AAC?$AA_?$AAC?$AAO?$AAN?$AAT?$AAR?$AAO?$AAL?$AA?5?$AA?$DN?$AA?5?$AA0?$AAx?$AA?$CF?$AAx?$AA?6?$AA?$AN?$AA?$AA@| DCB "D"
	DCB	0x0, "I", 0x0, "S", 0x0, "P", 0x0, "C", 0x0, "_", 0x0, "C"
	DCB	0x0, "O", 0x0, "N", 0x0, "T", 0x0, "R", 0x0, "O", 0x0, "L"
	DCB	0x0, " ", 0x0, "=", 0x0, " ", 0x0, "0", 0x0, "x", 0x0, "%"
	DCB	0x0, "x", 0x0, 0xa, 0x0, 0xd, 0x0, 0x0, 0x0 ; `string'

  00000			 AREA	 |.rdata|, DATA, READONLY
|??_C@_1CM@HCDDCHH@?$AAD?$AAI?$AAS?$AAP?$AAC?$AA_?$AAC?$AAO?$AAN?$AAF?$AAI?$AAG?$AA?5?$AA?$DN?$AA?5?$AA0?$AAx?$AA?$CF?$AAx?$AA?6?$AA?$AN?$AA?$AA@| DCB "D"
	DCB	0x0, "I", 0x0, "S", 0x0, "P", 0x0, "C", 0x0, "_", 0x0, "C"
	DCB	0x0, "O", 0x0, "N", 0x0, "F", 0x0, "I", 0x0, "G", 0x0, " "
	DCB	0x0, "=", 0x0, " ", 0x0, "0", 0x0, "x", 0x0, "%", 0x0, "x"
	DCB	0x0, 0xa, 0x0, 0xd, 0x0, 0x0, 0x0	; `string'

  00000			 AREA	 |.rdata|, DATA, READONLY
|??_C@_1DM@MDGCOONA@?$AAD?$AAI?$AAS?$AAP?$AAC?$AA_?$AAD?$AAE?$AAF?$AAA?$AAU?$AAL?$AAT?$AA_?$AAC?$AAO?$AAL?$AAO?$AAR?$AA0?$AA?5?$AA?$DN?$AA?5?$AA0?$AAx?$AA?$CF?$AAx?$AA?6?$AA?$AN?$AA?$AA@| DCB "D"
	DCB	0x0, "I", 0x0, "S", 0x0, "P", 0x0, "C", 0x0, "_", 0x0, "D"
	DCB	0x0, "E", 0x0, "F", 0x0, "A", 0x0, "U", 0x0, "L", 0x0, "T"
	DCB	0x0, "_", 0x0, "C", 0x0, "O", 0x0, "L", 0x0, "O", 0x0, "R"
	DCB	0x0, "0", 0x0, " ", 0x0, "=", 0x0, " ", 0x0, "0", 0x0, "x"
	DCB	0x0, "%", 0x0, "x", 0x0, 0xa, 0x0, 0xd, 0x0, 0x0, 0x0 ; `string'

  00000			 AREA	 |.rdata|, DATA, READONLY
|??_C@_1DI@LCOLEDMF@?$AAD?$AAI?$AAS?$AAP?$AAC?$AA_?$AAT?$AAR?$AAA?$AAN?$AAS?$AA_?$AAC?$AAO?$AAL?$AAO?$AAR?$AA0?$AA?5?$AA?$DN?$AA?5?$AA0?$AAx?$AA?$CF?$AAx?$AA?6?$AA?$AN?$AA?$AA@| DCB "D"
	DCB	0x0, "I", 0x0, "S", 0x0, "P", 0x0, "C", 0x0, "_", 0x0, "T"
	DCB	0x0, "R", 0x0, "A", 0x0, "N", 0x0, "S", 0x0, "_", 0x0, "C"
	DCB	0x0, "O", 0x0, "L", 0x0, "O", 0x0, "R", 0x0, "0", 0x0, " "
	DCB	0x0, "=", 0x0, " ", 0x0, "0", 0x0, "x", 0x0, "%", 0x0, "x"
	DCB	0x0, 0xa, 0x0, 0xd, 0x0, 0x0, 0x0	; `string'

  00000			 AREA	 |.rdata|, DATA, READONLY
|??_C@_1DA@GCNEODEP@?$AAD?$AAI?$AAS?$AAP?$AAC?$AA_?$AAP?$AAO?$AAL?$AA_?$AAF?$AAR?$AAE?$AAQ?$AA?5?$AA?$DN?$AA?5?$AA0?$AAx?$AA?$CF?$AAx?$AA?6?$AA?$AN?$AA?$AA@| DCB "D"
	DCB	0x0, "I", 0x0, "S", 0x0, "P", 0x0, "C", 0x0, "_", 0x0, "P"
	DCB	0x0, "O", 0x0, "L", 0x0, "_", 0x0, "F", 0x0, "R", 0x0, "E"
	DCB	0x0, "Q", 0x0, " ", 0x0, "=", 0x0, " ", 0x0, "0", 0x0, "x"
	DCB	0x0, "%", 0x0, "x", 0x0, 0xa, 0x0, 0xd, 0x0, 0x0, 0x0 ; `string'

  00000			 AREA	 |.rdata|, DATA, READONLY
|??_C@_1CO@FCGDNCPH@?$AAD?$AAI?$AAS?$AAP?$AAC?$AA_?$AAD?$AAI?$AAV?$AAI?$AAS?$AAO?$AAR?$AA?5?$AA?$DN?$AA?5?$AA0?$AAx?$AA?$CF?$AAx?$AA?6?$AA?$AN?$AA?$AA@| DCB "D"
	DCB	0x0, "I", 0x0, "S", 0x0, "P", 0x0, "C", 0x0, "_", 0x0, "D"
	DCB	0x0, "I", 0x0, "V", 0x0, "I", 0x0, "S", 0x0, "O", 0x0, "R"
	DCB	0x0, " ", 0x0, "=", 0x0, " ", 0x0, "0", 0x0, "x", 0x0, "%"
	DCB	0x0, "x", 0x0, 0xa, 0x0, 0xd, 0x0, 0x0, 0x0 ; `string'

  00000			 AREA	 |.rdata|, DATA, READONLY
|??_C@_1DA@DMNHGDEB@?$AAD?$AAI?$AAS?$AAP?$AAC?$AA_?$AAS?$AAI?$AAZ?$AAE?$AA_?$AAL?$AAC?$AAD?$AA?5?$AA?$DN?$AA?5?$AA0?$AAx?$AA?$CF?$AAx?$AA?6?$AA?$AN?$AA?$AA@| DCB "D"
	DCB	0x0, "I", 0x0, "S", 0x0, "P", 0x0, "C", 0x0, "_", 0x0, "S"
	DCB	0x0, "I", 0x0, "Z", 0x0, "E", 0x0, "_", 0x0, "L", 0x0, "C"
	DCB	0x0, "D", 0x0, " ", 0x0, "=", 0x0, " ", 0x0, "0", 0x0, "x"
	DCB	0x0, "%", 0x0, "x", 0x0, 0xa, 0x0, 0xd, 0x0, 0x0, 0x0 ; `string'

  00000			 AREA	 |.rdata|, DATA, READONLY
|??_C@_1EE@POJFJFPA@?$AA?6?$AA?$AN?$AA?$CK?$AA?$CK?$AA?$CK?$AA?5?$AAL?$AAc?$AAd?$AAP?$AAd?$AAd?$AA_?$AAL?$AAC?$AAD?$AA_?$AAI?$AAn?$AAi?$AAt?$AAi?$AAa?$AAl?$AAi?$AAz?$AAe?$AA?5?$AA?$CK?$AA?$CK?$AA?$CK?$AA?6@| DCB 0xa
	DCB	0x0, 0xd, 0x0, "*", 0x0, "*", 0x0, "*", 0x0, " ", 0x0, "L"
	DCB	0x0, "c", 0x0, "d", 0x0, "P", 0x0, "d", 0x0, "d", 0x0, "_"
	DCB	0x0, "L", 0x0, "C", 0x0, "D", 0x0, "_", 0x0, "I", 0x0, "n"
	DCB	0x0, "i", 0x0, "t", 0x0, "i", 0x0, "a", 0x0, "l", 0x0, "i"
	DCB	0x0, "z", 0x0, "e", 0x0, " ", 0x0, "*", 0x0, "*", 0x0, "*"
	DCB	0x0, 0xa, 0x0, 0xd, 0x0, 0x0, 0x0	; `string'
; Function compile flags: /Ogspy

  00000			 AREA	 |.text|, CODE, ARM

  00000		 |LcdPdd_LCD_Initialize| PROC

; 327  : {

  00000		 |$LN6@LcdPdd_LCD@3|
  00000	e92d4030	 stmdb       sp!, {r4, r5, lr}
  00004		 |$M46347|
  00004	e1a04001	 mov         r4, r1

; 328  :     PHYSICAL_ADDRESS pa;
; 329  :     OMAP_PRCM_DSS_CM_REGS *pPrcmDssCM;
; 330  :     RETAILMSG(1,(L"\n\r*** LcdPdd_LCD_Initialize ***\n\r"));

  00008	e59f01ec	 ldr         r0, [pc, #0x1EC]
  0000c	eb000000	 bl          NKDbgPrintfW

; 331  : 
; 332  : 	UNREFERENCED_PARAMETER(pVencRegs);
; 333  : 	UNREFERENCED_PARAMETER(pRfbiRegs);
; 334  : 	UNREFERENCED_PARAMETER(pDSSRegs);
; 335  : 
; 336  :     LcdPdd_LCD_InitResolution();

  00010	eb000000	 bl          LcdPdd_LCD_InitResolution
  00014	e3a03312	 mov         r3, #0x12, 6

; 337  :     
; 338  : 
; 339  :     pa.QuadPart = OMAP_PRCM_DSS_CM_REGS_PA;

  00018	e3830c4e	 orr         r0, r3, #0x4E, 24

; 340  :     pPrcmDssCM = (OMAP_PRCM_DSS_CM_REGS*)MmMapIoSpace(pa, sizeof(OMAP_PRCM_DSS_CM_REGS), FALSE);

  0001c	e3a03000	 mov         r3, #0
  00020	e3a01000	 mov         r1, #0
  00024	e3a02050	 mov         r2, #0x50
  00028	eb000000	 bl          MmMapIoSpace
  0002c	e1b05000	 movs        r5, r0

; 341  :     if (pPrcmDssCM == NULL) return FALSE;

  00030	03a00000	 moveq       r0, #0

; 410  : }

  00034	08bd4030	 ldmeqia     sp!, {r4, r5, lr}
  00038	012fff1e	 bxeq        lr

; 342  : 
; 343  :     // Store pointer to display controller for future use
; 344  :     g_pDispRegs = pDispRegs;

  0003c	e59f31b4	 ldr         r3, [pc, #0x1B4]
  00040	e5834000	 str         r4, [r3]

; 345  :     
; 346  :     // Initialize GPIO
; 347  :     LcdInitGpio();

  00044	eb000000	 bl          LcdInitGpio

; 348  :     
; 349  :     // setup the DSS1 clock divider - disable DSS1 clock, change divider, enable DSS clock
; 350  :     OUTREG32(&pPrcmDssCM->CM_FCLKEN_DSS, INREG32(&pPrcmDssCM->CM_FCLKEN_DSS) & ~CM_CLKEN_DSS1);

  00048	e5953000	 ldr         r3, [r5]

; 351  :     OUTREG32(&pPrcmDssCM->CM_CLKSEL_DSS, BSP_CM_CLKSEL_DSS); // DSS1_ALWON_FCLK is DPLL4 clock divided by 25

  0004c	e59f01a0	 ldr         r0, [pc, #0x1A0]
  00050	e3c33001	 bic         r3, r3, #1
  00054	e5853000	 str         r3, [r5]
  00058	e5903288	 ldr         r3, [r0, #0x288]
  0005c	e3a02906	 mov         r2, #6, 18

; 352  :     OUTREG32(&pPrcmDssCM->CM_FCLKEN_DSS, INREG32(&pPrcmDssCM->CM_FCLKEN_DSS) | CM_CLKEN_DSS1);
; 353  :     
; 354  : 	OUTREG32( &pDispRegs->DISPC_CONTROL,
; 355  : 			DISPC_CONTROL_GPOUT1 | DISPC_CONTROL_GPOUT0 |
; 356  : 			DISPC_CONTROL_TFTDATALINES_24 | DISPC_CONTROL_STNTFT);

  00060	e0833183	 add         r3, r3, r3, lsl #3
  00064	e0803183	 add         r3, r0, r3, lsl #3
  00068	e593302c	 ldr         r3, [r3, #0x2C]
  0006c	e3822fc2	 orr         r2, r2, #0xC2, 30

; 357  :                 
; 358  :     //  LCD config
; 359  :     OUTREG32( &pDispRegs->DISPC_CONFIG,
; 360  :                 DISPC_CONFIG_FUNCGATED |
; 361  :                 DISPC_CONFIG_LOADMODE(LCD_LOADMODE) |
; 362  :                 DISPC_CONFIG_PALETTEGAMMATABLE
; 363  :                 );

  00070	e5853040	 str         r3, [r5, #0x40]
  00074	e5953000	 ldr         r3, [r5]

; 364  : 
; 365  :     // Default Color
; 366  :     OUTREG32( &pDispRegs->DISPC_DEFAULT_COLOR0,LCD_DEFAULT_COLOR);
; 367  : 
; 368  :     // Default Transparency Color
; 369  :     OUTREG32( &pDispRegs->DISPC_TRANS_COLOR0,LCD_TRANS_COLOR);

  00078	e3833001	 orr         r3, r3, #1
  0007c	e5853000	 str         r3, [r5]
  00080	e5842040	 str         r2, [r4, #0x40]
  00084	e5903288	 ldr         r3, [r0, #0x288]

; 370  : 
; 371  :     // Timing logic for HSYNC signal
; 372  :     OUTREG32( &pDispRegs->DISPC_TIMING_H,
; 373  :                 DISPC_TIMING_H_HSW(LCD_HSW) |
; 374  :                 DISPC_TIMING_H_HFP(LCD_HFP) |
; 375  :                 DISPC_TIMING_H_HBP(LCD_HBP)
; 376  :                 );
; 377  : 
; 378  :     // Timing logic for VSYNC signal
; 379  :     OUTREG32( &pDispRegs->DISPC_TIMING_V,
; 380  :                 DISPC_TIMING_V_VSW(LCD_VSW) |
; 381  :                 DISPC_TIMING_V_VFP(LCD_VFP) |
; 382  :                 DISPC_TIMING_V_VBP(LCD_VBP)
; 383  :                 );

  00088	e0833183	 add         r3, r3, r3, lsl #3
  0008c	e0803183	 add         r3, r0, r3, lsl #3
  00090	e5933030	 ldr         r3, [r3, #0x30]

; 384  : 
; 385  :     // Signal configuration
; 386  :     OUTREG32( &pDispRegs->DISPC_POL_FREQ, LCD_POLFREQ);
; 387  : 
; 388  :     // Configures the divisor
; 389  :     OUTREG32( &pDispRegs->DISPC_DIVISOR,
; 390  :                 DISPC_DIVISOR_PCD(LCD_PIXCLKDIV) | DISPC_DIVISOR_LCD(LCD_LOGCLKDIV));

  00094	e3833f41	 orr         r3, r3, #0x41, 30
  00098	e1a03083	 mov         r3, r3, lsl #1
  0009c	e5843044	 str         r3, [r4, #0x44]
  000a0	e5903288	 ldr         r3, [r0, #0x288]

; 391  : 
; 392  :     // Configures the panel size
; 393  :     OUTREG32( &pDispRegs->DISPC_SIZE_LCD,
; 394  :                 DISPC_SIZE_LCD_LPP(LCD_HEIGHT) | DISPC_SIZE_LCD_PPL(LCD_WIDTH));

  000a4	e0833183	 add         r3, r3, r3, lsl #3
  000a8	e0803183	 add         r3, r0, r3, lsl #3
  000ac	e5933038	 ldr         r3, [r3, #0x38]
  000b0	e584304c	 str         r3, [r4, #0x4C]
  000b4	e5903288	 ldr         r3, [r0, #0x288]
  000b8	e0833183	 add         r3, r3, r3, lsl #3
  000bc	e0803183	 add         r3, r0, r3, lsl #3
  000c0	e593303c	 ldr         r3, [r3, #0x3C]
  000c4	e5843054	 str         r3, [r4, #0x54]
  000c8	e5903288	 ldr         r3, [r0, #0x288]
  000cc	e0833183	 add         r3, r3, r3, lsl #3
  000d0	e0802183	 add         r2, r0, r3, lsl #3
  000d4	e5921014	 ldr         r1, [r2, #0x14]
  000d8	e5923010	 ldr         r3, [r2, #0x10]
  000dc	e592200c	 ldr         r2, [r2, #0xC]
  000e0	e1833601	 orr         r3, r3, r1, lsl #12
  000e4	e1823403	 orr         r3, r2, r3, lsl #8
  000e8	e5843064	 str         r3, [r4, #0x64]
  000ec	e5903288	 ldr         r3, [r0, #0x288]
  000f0	e0833183	 add         r3, r3, r3, lsl #3
  000f4	e0802183	 add         r2, r0, r3, lsl #3
  000f8	e5921020	 ldr         r1, [r2, #0x20]
  000fc	e592301c	 ldr         r3, [r2, #0x1C]
  00100	e5922018	 ldr         r2, [r2, #0x18]
  00104	e1833601	 orr         r3, r3, r1, lsl #12
  00108	e1823403	 orr         r3, r2, r3, lsl #8
  0010c	e5843068	 str         r3, [r4, #0x68]
  00110	e5903288	 ldr         r3, [r0, #0x288]
  00114	e0833183	 add         r3, r3, r3, lsl #3
  00118	e0803183	 add         r3, r0, r3, lsl #3
  0011c	e5933034	 ldr         r3, [r3, #0x34]
  00120	e584306c	 str         r3, [r4, #0x6C]
  00124	e5903288	 ldr         r3, [r0, #0x288]
  00128	e0833183	 add         r3, r3, r3, lsl #3
  0012c	e0803183	 add         r3, r0, r3, lsl #3
  00130	e5932024	 ldr         r2, [r3, #0x24]
  00134	e5933028	 ldr         r3, [r3, #0x28]
  00138	e1833802	 orr         r3, r3, r2, lsl #16
  0013c	e5843070	 str         r3, [r4, #0x70]
  00140	e5903288	 ldr         r3, [r0, #0x288]
  00144	e0833183	 add         r3, r3, r3, lsl #3
  00148	e0803183	 add         r3, r0, r3, lsl #3
  0014c	e5932008	 ldr         r2, [r3, #8]
  00150	e5933004	 ldr         r3, [r3, #4]
  00154	e2422001	 sub         r2, r2, #1
  00158	e2433001	 sub         r3, r3, #1
  0015c	e1833802	 orr         r3, r3, r2, lsl #16
  00160	e584307c	 str         r3, [r4, #0x7C]

; 395  : 
; 396  :     MmUnmapIoSpace((VOID*)pPrcmDssCM, sizeof(OMAP_PRCM_DSS_CM_REGS));

  00164	e3a01050	 mov         r1, #0x50
  00168	e1a00005	 mov         r0, r5
  0016c	eb000000	 bl          MmUnmapIoSpace

; 397  : 
; 398  : 	RETAILMSG(1,(L"DISPC_CONTROL = 0x%x\n\r",INREG32(&pDispRegs->DISPC_CONTROL)));

  00170	e5941040	 ldr         r1, [r4, #0x40]
  00174	e59f0074	 ldr         r0, [pc, #0x74]
  00178	eb000000	 bl          NKDbgPrintfW

; 399  : 	RETAILMSG(1,(L"DISPC_CONFIG = 0x%x\n\r",INREG32(&pDispRegs->DISPC_CONFIG)));

  0017c	e5941044	 ldr         r1, [r4, #0x44]
  00180	e59f0064	 ldr         r0, [pc, #0x64]
  00184	eb000000	 bl          NKDbgPrintfW

; 400  : 	RETAILMSG(1,(L"DISPC_DEFAULT_COLOR0 = 0x%x\n\r",INREG32(&pDispRegs->DISPC_DEFAULT_COLOR0)));

  00188	e594104c	 ldr         r1, [r4, #0x4C]
  0018c	e59f0054	 ldr         r0, [pc, #0x54]
  00190	eb000000	 bl          NKDbgPrintfW

; 401  : 	RETAILMSG(1,(L"DISPC_TRANS_COLOR0 = 0x%x\n\r",INREG32(&pDispRegs->DISPC_TRANS_COLOR0)));

  00194	e5941054	 ldr         r1, [r4, #0x54]
  00198	e59f0044	 ldr         r0, [pc, #0x44]
  0019c	eb000000	 bl          NKDbgPrintfW

; 402  : 	RETAILMSG(1,(L"DISPC_POL_FREQ = 0x%x\n\r",INREG32(&pDispRegs->DISPC_POL_FREQ)));

  001a0	e594106c	 ldr         r1, [r4, #0x6C]
  001a4	e59f0034	 ldr         r0, [pc, #0x34]
  001a8	eb000000	 bl          NKDbgPrintfW

; 403  : 	RETAILMSG(1,(L"DISPC_DIVISOR = 0x%x\n\r",INREG32(&pDispRegs->DISPC_DIVISOR)));

  001ac	e5941070	 ldr         r1, [r4, #0x70]
  001b0	e59f0024	 ldr         r0, [pc, #0x24]
  001b4	eb000000	 bl          NKDbgPrintfW

; 404  : 	RETAILMSG(1,(L"DISPC_SIZE_LCD = 0x%x\n\r",INREG32(&pDispRegs->DISPC_SIZE_LCD)));

  001b8	e594107c	 ldr         r1, [r4, #0x7C]
  001bc	e59f0014	 ldr         r0, [pc, #0x14]
  001c0	eb000000	 bl          NKDbgPrintfW

; 405  : 	
; 406  :     // Set initial power level
; 407  :     LcdPdd_SetPowerLevel(D0);

  001c4	e3a00000	 mov         r0, #0
  001c8	eb000000	 bl          LcdPdd_SetPowerLevel

; 408  :   
; 409  :     return TRUE;

  001cc	e3a00001	 mov         r0, #1

; 410  : }

  001d0	e8bd4030	 ldmia       sp!, {r4, r5, lr}
  001d4	e12fff1e	 bx          lr
  001d8		 |$LN7@LcdPdd_LCD@3|
  001d8		 |$LN8@LcdPdd_LCD@3|
  001d8	00000000	 DCD         |??_C@_1DA@DMNHGDEB@?$AAD?$AAI?$AAS?$AAP?$AAC?$AA_?$AAS?$AAI?$AAZ?$AAE?$AA_?$AAL?$AAC?$AAD?$AA?5?$AA?$DN?$AA?5?$AA0?$AAx?$AA?$CF?$AAx?$AA?6?$AA?$AN?$AA?$AA@|
  001dc		 |$LN9@LcdPdd_LCD@3|
  001dc	00000000	 DCD         |??_C@_1CO@FCGDNCPH@?$AAD?$AAI?$AAS?$AAP?$AAC?$AA_?$AAD?$AAI?$AAV?$AAI?$AAS?$AAO?$AAR?$AA?5?$AA?$DN?$AA?5?$AA0?$AAx?$AA?$CF?$AAx?$AA?6?$AA?$AN?$AA?$AA@|
  001e0		 |$LN10@LcdPdd_LCD@3|
  001e0	00000000	 DCD         |??_C@_1DA@GCNEODEP@?$AAD?$AAI?$AAS?$AAP?$AAC?$AA_?$AAP?$AAO?$AAL?$AA_?$AAF?$AAR?$AAE?$AAQ?$AA?5?$AA?$DN?$AA?5?$AA0?$AAx?$AA?$CF?$AAx?$AA?6?$AA?$AN?$AA?$AA@|
  001e4		 |$LN11@LcdPdd_LCD@3|
  001e4	00000000	 DCD         |??_C@_1DI@LCOLEDMF@?$AAD?$AAI?$AAS?$AAP?$AAC?$AA_?$AAT?$AAR?$AAA?$AAN?$AAS?$AA_?$AAC?$AAO?$AAL?$AAO?$AAR?$AA0?$AA?5?$AA?$DN?$AA?5?$AA0?$AAx?$AA?$CF?$AAx?$AA?6?$AA?$AN?$AA?$AA@|
  001e8		 |$LN12@LcdPdd_LCD@3|
  001e8	00000000	 DCD         |??_C@_1DM@MDGCOONA@?$AAD?$AAI?$AAS?$AAP?$AAC?$AA_?$AAD?$AAE?$AAF?$AAA?$AAU?$AAL?$AAT?$AA_?$AAC?$AAO?$AAL?$AAO?$AAR?$AA0?$AA?5?$AA?$DN?$AA?5?$AA0?$AAx?$AA?$CF?$AAx?$AA?6?$AA?$AN?$AA?$AA@|
  001ec		 |$LN13@LcdPdd_LCD@3|
  001ec	00000000	 DCD         |??_C@_1CM@HCDDCHH@?$AAD?$AAI?$AAS?$AAP?$AAC?$AA_?$AAC?$AAO?$AAN?$AAF?$AAI?$AAG?$AA?5?$AA?$DN?$AA?5?$AA0?$AAx?$AA?$CF?$AAx?$AA?6?$AA?$AN?$AA?$AA@|
  001f0		 |$LN14@LcdPdd_LCD@3|
  001f0	00000000	 DCD         |??_C@_1CO@DIPDPAEO@?$AAD?$AAI?$AAS?$AAP?$AAC?$AA_?$AAC?$AAO?$AAN?$AAT?$AAR?$AAO?$AAL?$AA?5?$AA?$DN?$AA?5?$AA0?$AAx?$AA?$CF?$AAx?$AA?6?$AA?$AN?$AA?$AA@|
  001f4		 |$LN15@LcdPdd_LCD@3|
  001f4	00000000	 DCD         |lcd_res_params|
  001f8		 |$LN16@LcdPdd_LCD@3|
  001f8	00000000	 DCD         |g_pDispRegs|
  001fc		 |$LN17@LcdPdd_LCD@3|
  001fc	00000000	 DCD         |??_C@_1EE@POJFJFPA@?$AA?6?$AA?$AN?$AA?$CK?$AA?$CK?$AA?$CK?$AA?5?$AAL?$AAc?$AAd?$AAP?$AAd?$AAd?$AA_?$AAL?$AAC?$AAD?$AA_?$AAI?$AAn?$AAi?$AAt?$AAi?$AAa?$AAl?$AAi?$AAz?$AAe?$AA?5?$AA?$CK?$AA?$CK?$AA?$CK?$AA?6@|
  00200		 |$M46348|

			 ENDP  ; |LcdPdd_LCD_Initialize|

	END
