; Listing generated by Microsoft (R) Optimizing Compiler Version 14.01.60511.01 

	TTL	C:\WINCE600\PLATFORM\Z2170P\SRC\BSP_COMMON\DISPLAY\lcd_support.c
	CODE32

  00000			 AREA	 |.drectve|, DRECTVE
	DCB	"-defaultlib:LIBCMT "
	DCB	"-defaultlib:OLDNAMES "


  00000			 AREA	 |.bss|, NOINIT
|g_hGpio| %	0x4

  00000			 AREA	 |.rdata|, DATA, READONLY
|EdbgVendorIds| DCW 0x0
	DCW	0x0
	DCD	0x4033
	DCB	0x1
	DCB	"AD", 0x0
	DCW	0x1050
	DCW	0x940
	DCD	0x4005
	DCB	0x1
	DCB	"LS", 0x0
	DCW	0x1050
	DCW	0x940
	DCD	0x2078
	DCB	0x1
	DCB	"LS", 0x0
	DCW	0x10ec
	DCW	0x8029
	DCD	0xc0f0
	DCB	0x1
	DCB	"KS", 0x0
	DCW	0x10ec
	DCW	0x8129
	DCD	0x0
	DCB	0x4
	DCB	"RT", 0x0
	DCW	0x10ec
	DCW	0x8139
	DCD	0x900b
	DCB	0x4
	DCB	"RT", 0x0
	DCW	0x10ec
	DCW	0x8139
	DCD	0xd0c9
	DCB	0x4
	DCB	"RT", 0x0
	DCW	0x10ec
	DCW	0x8139
	DCD	0xe04c
	DCB	0x4
	DCB	"RT", 0x0
	DCW	0x1186
	DCW	0x1300
	DCD	0x50ba
	DCB	0x4
	DCB	"DL", 0x0
	DCW	0x100b
	DCW	0x20
	DCD	0xa0cc
	DCB	0x5
	DCB	"NG", 0x0
	DCW	0x10b7
	DCW	0x9050
	DCD	0x6008
	DCB	0x6
	DCB	"3C", 0x0
	DCW	0x10b7
	DCW	0x9200
	DCD	0x476
	DCB	0x6
	DCB	"3C", 0x0
	EXPORT	|LcdInitGpio|
	EXPORT	|??_C@_1BM@CAGMDMLN@?$AAL?$AAc?$AAd?$AAI?$AAn?$AAi?$AAt?$AAG?$AAp?$AAi?$AAo?$AA?6?$AA?$AN?$AA?$AA@| [ DATA ] ; `string'
	IMPORT	|GPIOSetMode|
	IMPORT	|GPIOSetBit|
	IMPORT	|GPIOOpen|
	IMPORT	|NKDbgPrintfW|
; File c:\wince600\platform\z2170p\src\bsp_common\display\lcd_support.c

  00000			 AREA	 |.pdata|, PDATA
|$T45687| DCD	|$LN5@LcdInitGpi|
	DCD	0x40001901

  00000			 AREA	 |.rdata|, DATA, READONLY
|??_C@_1BM@CAGMDMLN@?$AAL?$AAc?$AAd?$AAI?$AAn?$AAi?$AAt?$AAG?$AAp?$AAi?$AAo?$AA?6?$AA?$AN?$AA?$AA@| DCB "L"
	DCB	0x0, "c", 0x0, "d", 0x0, "I", 0x0, "n", 0x0, "i", 0x0, "t"
	DCB	0x0, "G", 0x0, "p", 0x0, "i", 0x0, "o", 0x0, 0xa, 0x0, 0xd
	DCB	0x0, 0x0, 0x0				; `string'
; Function compile flags: /Ogspy

  00000			 AREA	 |.text|, CODE, ARM

  00000		 |LcdInitGpio| PROC

; 16   : {

  00000		 |$LN5@LcdInitGpi|
  00000	e92d4010	 stmdb       sp!, {r4, lr}
  00004		 |$M45684|

; 17   :     // Configure Backlight/Power pins as outputs
; 18   :     RETAILMSG(1,(L"LcdInitGpio\n\r"));

  00004	e59f0054	 ldr         r0, [pc, #0x54]
  00008	eb000000	 bl          NKDbgPrintfW

; 19   :     g_hGpio = GPIOOpen();

  0000c	eb000000	 bl          GPIOOpen
  00010	e59f4044	 ldr         r4, [pc, #0x44]
  00014	e1a03000	 mov         r3, r0

; 20   :     
; 21   :     GPIOSetBit(g_hGpio,BSP_LCD_POWER_GPIO);

  00018	e3a0109a	 mov         r1, #0x9A
  0001c	e5843000	 str         r3, [r4]
  00020	eb000000	 bl          GPIOSetBit

; 22   : 	GPIOSetBit(g_hGpio,BSP_LCD_RESB_GPIO);

  00024	e5940000	 ldr         r0, [r4]
  00028	e3a01093	 mov         r1, #0x93
  0002c	eb000000	 bl          GPIOSetBit

; 23   :     //GPIOSetBit(g_hGpio,BSP_BL_EN_GPIO);
; 24   : 	//GPIOSetBit(g_hGpio,BSP_LCD_UP_DOWN_GPIO);
; 25   :     //GPIOSetBit(g_hGpio,BSP_LCD_LEFT_RIGHT_GPIO);  
; 26   :     //GPIOClrBit(g_hGpio,BSP_LCD_INI_GPIO);
; 27   :     //GPIOClrBit(g_hGpio,BSP_LCD_DVIENABLE_GPIO);
; 28   :     //GPIOClrBit(g_hGpio,BSP_LCD_LCD_QVGA_nVGA);
; 29   :       
; 30   : 
; 31   : 	GPIOSetMode(g_hGpio,BSP_LCD_POWER_GPIO,GPIO_DIR_OUTPUT);

  00030	e5940000	 ldr         r0, [r4]
  00034	e3a02000	 mov         r2, #0
  00038	e3a0109a	 mov         r1, #0x9A
  0003c	eb000000	 bl          GPIOSetMode

; 32   : 	GPIOSetMode(g_hGpio,BSP_LCD_RESB_GPIO,GPIO_DIR_OUTPUT);

  00040	e5940000	 ldr         r0, [r4]
  00044	e3a02000	 mov         r2, #0
  00048	e3a01093	 mov         r1, #0x93
  0004c	eb000000	 bl          GPIOSetMode

; 33   : 	//GPIOSetMode(g_hGpio,BSP_BL_EN_GPIO,GPIO_DIR_OUTPUT);
; 34   : 	
; 35   :     //GPIOSetMode(g_hGpio,BSP_LCD_UP_DOWN_GPIO,GPIO_DIR_OUTPUT);    
; 36   :     //GPIOSetMode(g_hGpio, BSP_LCD_LEFT_RIGHT_GPIO,GPIO_DIR_OUTPUT);
; 37   : 	//GPIOSetMode(g_hGpio,BSP_LCD_LCD_QVGA_nVGA,GPIO_DIR_OUTPUT);
; 38   :     //GPIOSetMode(g_hGpio,BSP_LCD_INI_GPIO,GPIO_DIR_OUTPUT);
; 39   :     //GPIOSetMode(g_hGpio,BSP_LCD_DVIENABLE_GPIO,GPIO_DIR_OUTPUT);
; 40   : 
; 41   : 	return TRUE;

  00050	e3a00001	 mov         r0, #1

; 42   : }

  00054	e8bd4010	 ldmia       sp!, {r4, lr}
  00058	e12fff1e	 bx          lr
  0005c		 |$LN6@LcdInitGpi|
  0005c		 |$LN7@LcdInitGpi|
  0005c	00000000	 DCD         |g_hGpio|
  00060		 |$LN8@LcdInitGpi|
  00060	00000000	 DCD         |??_C@_1BM@CAGMDMLN@?$AAL?$AAc?$AAd?$AAI?$AAn?$AAi?$AAt?$AAG?$AAp?$AAi?$AAo?$AA?6?$AA?$AN?$AA?$AA@|
  00064		 |$M45685|

			 ENDP  ; |LcdInitGpio|

	EXPORT	|LcdDeinitGpio|
	IMPORT	|GPIOClose|

  00000			 AREA	 |.pdata|, PDATA
|$T45699| DCD	|$LN5@LcdDeinitG|
	DCD	0x40000801
; Function compile flags: /Ogspy

  00000			 AREA	 |.text|, CODE, ARM

  00000		 |LcdDeinitGpio| PROC

; 45   : {

  00000		 |$LN5@LcdDeinitG|
  00000	e52de004	 str         lr, [sp, #-4]!
  00004		 |$M45696|

; 46   : 	// Close GPIO driver
; 47   :     GPIOClose(g_hGpio);

  00004	e59f3010	 ldr         r3, [pc, #0x10]
  00008	e5930000	 ldr         r0, [r3]
  0000c	eb000000	 bl          GPIOClose

; 48   : 
; 49   :     return TRUE;

  00010	e3a00001	 mov         r0, #1

; 50   : }

  00014	e49de004	 ldr         lr, [sp], #4
  00018	e12fff1e	 bx          lr
  0001c		 |$LN6@LcdDeinitG|
  0001c		 |$LN7@LcdDeinitG|
  0001c	00000000	 DCD         |g_hGpio|
  00020		 |$M45697|

			 ENDP  ; |LcdDeinitGpio|

	EXPORT	|LcdPowerControl|
	IMPORT	|GPIOClrBit|

  00000			 AREA	 |.pdata|, PDATA
|$T45709| DCD	|$LN7@LcdPowerCo|
	DCD	0x40000d01
; Function compile flags: /Ogspy

  00000			 AREA	 |.text|, CODE, ARM

  00000		 |LcdPowerControl| PROC

; 53   : {    

  00000		 |$LN7@LcdPowerCo|
  00000	e52de004	 str         lr, [sp, #-4]!
  00004		 |$M45706|
  00004	e3500000	 cmp         r0, #0

; 54   :     if (!bEnable)
; 55   :     {
; 56   :         GPIOClrBit(g_hGpio,BSP_LCD_POWER_GPIO);

  00008	e59f3020	 ldr         r3, [pc, #0x20]
  0000c	e3a0109a	 mov         r1, #0x9A
  00010	e5930000	 ldr         r0, [r3]
  00014	1a000002	 bne         |$LN2@LcdPowerCo|
  00018	eb000000	 bl          GPIOClrBit

; 61   :     }
; 62   : }

  0001c	e49de004	 ldr         lr, [sp], #4
  00020	e12fff1e	 bx          lr
  00024		 |$LN2@LcdPowerCo|

; 57   :     }
; 58   :     else
; 59   :     {
; 60   :         GPIOSetBit(g_hGpio,BSP_LCD_POWER_GPIO);

  00024	eb000000	 bl          GPIOSetBit

; 61   :     }
; 62   : }

  00028	e49de004	 ldr         lr, [sp], #4
  0002c	e12fff1e	 bx          lr
  00030		 |$LN8@LcdPowerCo|
  00030		 |$LN9@LcdPowerCo|
  00030	00000000	 DCD         |g_hGpio|
  00034		 |$M45707|

			 ENDP  ; |LcdPowerControl|

	EXPORT	|LcdResBControl|

  00000			 AREA	 |.pdata|, PDATA
|$T45719| DCD	|$LN7@LcdResBCon|
	DCD	0x40000d01
; Function compile flags: /Ogspy

  00000			 AREA	 |.text|, CODE, ARM

  00000		 |LcdResBControl| PROC

; 65   : {

  00000		 |$LN7@LcdResBCon|
  00000	e52de004	 str         lr, [sp, #-4]!
  00004		 |$M45716|
  00004	e3500000	 cmp         r0, #0

; 66   :     if (bEnable)
; 67   :     {
; 68   :         GPIOClrBit(g_hGpio,BSP_LCD_RESB_GPIO);

  00008	e59f3020	 ldr         r3, [pc, #0x20]
  0000c	e3a01093	 mov         r1, #0x93
  00010	e5930000	 ldr         r0, [r3]
  00014	0a000002	 beq         |$LN2@LcdResBCon|
  00018	eb000000	 bl          GPIOClrBit

; 73   :     }
; 74   : }

  0001c	e49de004	 ldr         lr, [sp], #4
  00020	e12fff1e	 bx          lr
  00024		 |$LN2@LcdResBCon|

; 69   :     }
; 70   :     else
; 71   :     {
; 72   :         GPIOSetBit(g_hGpio,BSP_LCD_RESB_GPIO);

  00024	eb000000	 bl          GPIOSetBit

; 73   :     }
; 74   : }

  00028	e49de004	 ldr         lr, [sp], #4
  0002c	e12fff1e	 bx          lr
  00030		 |$LN8@LcdResBCon|
  00030		 |$LN9@LcdResBCon|
  00030	00000000	 DCD         |g_hGpio|
  00034		 |$M45717|

			 ENDP  ; |LcdResBControl|

	EXPORT	|LcdIniControl|

  00000			 AREA	 |.pdata|, PDATA
|$T45728| DCD	|$LN7@LcdIniCont|
	DCD	0x40000100
; Function compile flags: /Ogspy

  00000			 AREA	 |.text|, CODE, ARM

  00000		 |LcdIniControl| PROC

; 77   : {

  00000		 |$LN7@LcdIniCont|
  00000		 |$M45725|

; 78   :     if (!bEnable)
; 79   :     {
; 80   :         //GPIOClrBit(g_hGpio,BSP_LCD_INI_GPIO);
; 81   :     }
; 82   :     else
; 83   :     {
; 84   :         //GPIOSetBit(g_hGpio,BSP_LCD_INI_GPIO);
; 85   :     }
; 86   : }

  00000	e12fff1e	 bx          lr
  00004		 |$M45726|

			 ENDP  ; |LcdIniControl|

	EXPORT	|LcdDviEnableControl|

  00000			 AREA	 |.pdata|, PDATA
|$T45735| DCD	|$LN7@LcdDviEnab|
	DCD	0x40000100
; Function compile flags: /Ogspy

  00000			 AREA	 |.text|, CODE, ARM

  00000		 |LcdDviEnableControl| PROC

; 90   : {

  00000		 |$LN7@LcdDviEnab|
  00000		 |$M45732|

; 91   :     if (!bEnable)
; 92   :     {
; 93   :         //GPIOClrBit(g_hGpio,BSP_LCD_DVIENABLE_GPIO);
; 94   :     }
; 95   :     else
; 96   :     {
; 97   :         //GPIOSetBit(g_hGpio,BSP_LCD_DVIENABLE_GPIO);
; 98   :     }
; 99   : }

  00000	e12fff1e	 bx          lr
  00004		 |$M45733|

			 ENDP  ; |LcdDviEnableControl|

	END
