; Listing generated by Microsoft (R) Optimizing Compiler Version 14.01.60511.01 

	TTL	C:\WINCE600\PLATFORM\COMMON\SRC\SOC\COMMON_TI_V1\TRITON\TWL\DEVICE\twl_access.c
	CODE32

  00000			 AREA	 |.drectve|, DRECTVE
	DCB	"-defaultlib:LIBCMT "
	DCB	"-defaultlib:OLDNAMES "


  00000			 AREA	 |.rdata|, DATA, READONLY
|EdbgVendorIds| DCW 0x0
	DCW	0x0
	DCD	0x4033
	DCB	0x1
	DCB	"AD", 0x0
	DCW	0x1050
	DCW	0x940
	DCD	0x4005
	DCB	0x1
	DCB	"LS", 0x0
	DCW	0x1050
	DCW	0x940
	DCD	0x2078
	DCB	0x1
	DCB	"LS", 0x0
	DCW	0x10ec
	DCW	0x8029
	DCD	0xc0f0
	DCB	0x1
	DCB	"KS", 0x0
	DCW	0x10ec
	DCW	0x8129
	DCD	0x0
	DCB	0x4
	DCB	"RT", 0x0
	DCW	0x10ec
	DCW	0x8139
	DCD	0x900b
	DCB	0x4
	DCB	"RT", 0x0
	DCW	0x10ec
	DCW	0x8139
	DCD	0xd0c9
	DCB	0x4
	DCB	"RT", 0x0
	DCW	0x10ec
	DCW	0x8139
	DCD	0xe04c
	DCB	0x4
	DCB	"RT", 0x0
	DCW	0x1186
	DCW	0x1300
	DCD	0x50ba
	DCB	0x4
	DCB	"DL", 0x0
	DCW	0x100b
	DCW	0x20
	DCD	0xa0cc
	DCB	0x5
	DCB	"NG", 0x0
	DCW	0x10b7
	DCW	0x9050
	DCD	0x6008
	DCB	0x6
	DCB	"3C", 0x0
	DCW	0x10b7
	DCW	0x9200
	DCD	0x476
	DCB	0x6
	DCB	"3C", 0x0
	EXPORT	|GetCurrentProcessId|
	IMPORT	|__GetUserKData|
; File c:\wince600\public\common\sdk\inc\kfuncs.h

  00000			 AREA	 |.pdata|, PDATA
|$T44117| DCD	|$LN5@GetCurrent|
	DCD	0x40000501
; Function compile flags: /Ogspy

  00000			 AREA	 |.text|, CODE, ARM

  00000		 |GetCurrentProcessId| PROC

; 373  : _inline DWORD GetCurrentProcessId(void) {

  00000		 |$LN5@GetCurrent|
  00000	e52de004	 str         lr, [sp, #-4]!
  00004		 |$M44114|

; 374  :     return __GetUserKData (SYSHANDLE_OFFSET + (SH_CURPROC * sizeof(HANDLE)));

  00004	e3a0000c	 mov         r0, #0xC
  00008	eb000000	 bl          __GetUserKData

; 375  : }

  0000c	e49de004	 ldr         lr, [sp], #4
  00010	e12fff1e	 bx          lr
  00014		 |$M44115|

			 ENDP  ; |GetCurrentProcessId|

	EXPORT	|TWLOpen|
	EXPORT	|??_C@_1M@MOBNNOLN@?$AAT?$AAW?$AAL?$AA1?$AA?3?$AA?$AA@| [ DATA ] ; `string'
	IMPORT	|LocalFree|
	IMPORT	|DeviceIoControl|
	IMPORT	|CloseHandle|
	IMPORT	|LocalAlloc|
	IMPORT	|CreateFileW|
	IMPORT	|DEVICE_IFC_TWL_GUID|
; File c:\wince600\platform\common\src\soc\common_ti_v1\triton\twl\device\twl_access.c

  00000			 AREA	 |.pdata|, PDATA
|$T44128| DCD	|$LN8@TWLOpen|
	DCD	0x40003002

  00000			 AREA	 |.rdata|, DATA, READONLY
|??_C@_1M@MOBNNOLN@?$AAT?$AAW?$AAL?$AA1?$AA?3?$AA?$AA@| DCB "T", 0x0, "W", 0x0
	DCB	"L", 0x0, "1", 0x0, ":", 0x0, 0x0, 0x0	; `string'
; Function compile flags: /Ogspy

  00000			 AREA	 |.text|, CODE, ARM

  00000		 |TWLOpen| PROC

; 38   : {

  00000		 |$LN8@TWLOpen|
  00000	e92d4070	 stmdb       sp!, {r4 - r6, lr}
  00004	e24dd010	 sub         sp, sp, #0x10
  00008		 |$M44125|

; 39   :     HANDLE hDevice;
; 40   :     DEVICE_CONTEXT_TWL *pContext = NULL;
; 41   : 
; 42   :     hDevice = CreateFile(TWL_DEVICE_NAME, 0, 0, NULL, 0, 0, NULL);

  00008	e59f00ac	 ldr         r0, [pc, #0xAC]
  0000c	e3a06000	 mov         r6, #0
  00010	e3a03000	 mov         r3, #0
  00014	e3a02000	 mov         r2, #0
  00018	e3a01000	 mov         r1, #0
  0001c	e3a04000	 mov         r4, #0
  00020	e58d6008	 str         r6, [sp, #8]
  00024	e58d6004	 str         r6, [sp, #4]
  00028	e58d6000	 str         r6, [sp]
  0002c	eb000000	 bl          CreateFileW
  00030	e1a05000	 mov         r5, r0

; 43   :     if (hDevice == INVALID_HANDLE_VALUE) goto cleanUp;

  00034	e3750001	 cmn         r5, #1
  00038	0a00001a	 beq         |$cleanUp$43959|

; 44   : 
; 45   :     // Allocate memory for our handler...
; 46   :     pContext = (DEVICE_CONTEXT_TWL*)LocalAlloc(
; 47   :         LPTR, sizeof(DEVICE_CONTEXT_TWL)
; 48   :         );

  0003c	e3a01024	 mov         r1, #0x24
  00040	e3a00040	 mov         r0, #0x40
  00044	eb000000	 bl          LocalAlloc
  00048	e1b04000	 movs        r4, r0

; 49   :     if (pContext == NULL)
; 50   :         {
; 51   :         CloseHandle(hDevice);

  0004c	e1a00005	 mov         r0, r5
  00050	1a000001	 bne         |$LN2@TWLOpen|
  00054	eb000000	 bl          CloseHandle

; 52   :         goto cleanUp;

  00058	ea000012	 b           |$cleanUp$43959|
  0005c		 |$LN2@TWLOpen|

; 53   :         }
; 54   : 
; 55   :     // Get function pointers, fail when IOCTL isn't supported...
; 56   :     if (!DeviceIoControl(
; 57   :             hDevice, IOCTL_DDK_GET_DRIVER_IFC, (VOID*)&DEVICE_IFC_TWL_GUID,
; 58   :             sizeof(DEVICE_IFC_TWL_GUID), &pContext->ifc, sizeof(DEVICE_IFC_TWL),
; 59   :             NULL, NULL))

  0005c	e59f2054	 ldr         r2, [pc, #0x54]
  00060	e3a03822	 mov         r3, #0x22, 16
  00064	e3831b01	 orr         r1, r3, #1, 22
  00068	e3a0e01c	 mov         lr, #0x1C
  0006c	e3a03010	 mov         r3, #0x10
  00070	e58d600c	 str         r6, [sp, #0xC]
  00074	e58d6008	 str         r6, [sp, #8]
  00078	e58de004	 str         lr, [sp, #4]
  0007c	e58d4000	 str         r4, [sp]
  00080	eb000000	 bl          DeviceIoControl
  00084	e3500000	 cmp         r0, #0
  00088	1a000005	 bne         |$LN1@TWLOpen|

; 60   :         {
; 61   :         CloseHandle(hDevice);

  0008c	e1a00005	 mov         r0, r5
  00090	eb000000	 bl          CloseHandle

; 62   :         LocalFree(pContext);

  00094	e1a00004	 mov         r0, r4
  00098	eb000000	 bl          LocalFree

; 63   :         pContext = NULL;

  0009c	e3a04000	 mov         r4, #0

; 64   :         goto cleanUp;

  000a0	ea000000	 b           |$cleanUp$43959|
  000a4		 |$LN1@TWLOpen|

; 65   :         }
; 66   : 
; 67   :     // Save device handle
; 68   :     pContext->hDevice = hDevice;

  000a4	e584501c	 str         r5, [r4, #0x1C]
  000a8		 |$cleanUp$43959|

; 69   : 
; 70   : cleanUp:
; 71   :     return pContext;
; 72   : }

  000a8	e1a00004	 mov         r0, r4
  000ac	e28dd010	 add         sp, sp, #0x10
  000b0	e8bd4070	 ldmia       sp!, {r4 - r6, lr}
  000b4	e12fff1e	 bx          lr
  000b8		 |$LN9@TWLOpen|
  000b8		 |$LN10@TWLOpen|
  000b8	00000000	 DCD         |DEVICE_IFC_TWL_GUID|
  000bc		 |$LN11@TWLOpen|
  000bc	00000000	 DCD         |??_C@_1M@MOBNNOLN@?$AAT?$AAW?$AAL?$AA1?$AA?3?$AA?$AA@|
  000c0		 |$M44126|

			 ENDP  ; |TWLOpen|

	EXPORT	|TWLClose|

  00000			 AREA	 |.pdata|, PDATA
|$T44139| DCD	|$LN5@TWLClose|
	DCD	0x40000801
; Function compile flags: /Ogspy

  00000			 AREA	 |.text|, CODE, ARM

  00000		 |TWLClose| PROC

; 79   : {

  00000		 |$LN5@TWLClose|
  00000	e92d4010	 stmdb       sp!, {r4, lr}
  00004		 |$M44136|
  00004	e1a04000	 mov         r4, r0

; 80   :     DEVICE_CONTEXT_TWL *pContext = (DEVICE_CONTEXT_TWL*)hContext;
; 81   :     CloseHandle(pContext->hDevice);

  00008	e594001c	 ldr         r0, [r4, #0x1C]
  0000c	eb000000	 bl          CloseHandle

; 82   :     LocalFree(pContext);

  00010	e1a00004	 mov         r0, r4
  00014	eb000000	 bl          LocalFree

; 83   : }

  00018	e8bd4010	 ldmia       sp!, {r4, lr}
  0001c	e12fff1e	 bx          lr
  00020		 |$M44137|

			 ENDP  ; |TWLClose|

	EXPORT	|TWLReadRegs|
	IMPORT	|ReadFile|
	IMPORT	|SetFilePointer|

  00000			 AREA	 |.pdata|, PDATA
|$T44152| DCD	|$LN8@TWLReadReg|
	DCD	0x40002302
; Function compile flags: /Ogspy

  00000			 AREA	 |.text|, CODE, ARM

  00000		 |TWLReadRegs| PROC

; 93   : {

  00000		 |$LN8@TWLReadReg|
  00000	e92d41f0	 stmdb       sp!, {r4 - r8, lr}
  00004	e24dd008	 sub         sp, sp, #8
  00008		 |$M44149|
  00008	e1a06003	 mov         r6, r3
  0000c	e1a07002	 mov         r7, r2
  00010	e1a05001	 mov         r5, r1
  00014	e1a04000	 mov         r4, r0

; 94   :     DEVICE_CONTEXT_TWL *pContext = (DEVICE_CONTEXT_TWL*)hContext;
; 95   :     if (pContext->ifc.pfnReadRegs != NULL)

  00018	e594e004	 ldr         lr, [r4, #4]
  0001c	e1b0800e	 movs        r8, lr
  00020	0a000003	 beq         |$LN3@TWLReadReg|

; 96   :         {
; 97   :         return pContext->ifc.pfnReadRegs(
; 98   :             pContext->ifc.context, address, pBuffer, size
; 99   :             );

  00024	e5940000	 ldr         r0, [r4]
  00028	e1a0e00f	 mov         lr, pc
  0002c	e12fff18	 bx          r8
  00030	ea000012	 b           |$LN2@TWLReadReg|
  00034		 |$LN3@TWLReadReg|

; 100  :         }
; 101  :     else
; 102  :         {
; 103  :         DWORD dwCount = 0;
; 104  :         if (pContext->seekAddress != address)

  00034	e5943020	 ldr         r3, [r4, #0x20]
  00038	e3a02000	 mov         r2, #0
  0003c	e58d2004	 str         r2, [sp, #4]
  00040	e1530005	 cmp         r3, r5
  00044	0a000005	 beq         |$LN1@TWLReadReg|

; 105  :             {
; 106  :             SetFilePointer(pContext->hDevice, address, NULL, FILE_CURRENT);

  00048	e594001c	 ldr         r0, [r4, #0x1C]
  0004c	e3a03001	 mov         r3, #1
  00050	e3a02000	 mov         r2, #0
  00054	e1a01005	 mov         r1, r5
  00058	eb000000	 bl          SetFilePointer

; 107  :             pContext->seekAddress = address;

  0005c	e5845020	 str         r5, [r4, #0x20]
  00060		 |$LN1@TWLReadReg|

; 108  :             }
; 109  :         ReadFile(pContext->hDevice, pBuffer, size, &dwCount, NULL);

  00060	e594001c	 ldr         r0, [r4, #0x1C]
  00064	e3a0e000	 mov         lr, #0
  00068	e28d3004	 add         r3, sp, #4
  0006c	e1a02006	 mov         r2, r6
  00070	e1a01007	 mov         r1, r7
  00074	e58de000	 str         lr, [sp]
  00078	eb000000	 bl          ReadFile

; 110  :         return dwCount;

  0007c	e59d0004	 ldr         r0, [sp, #4]
  00080		 |$LN2@TWLReadReg|

; 111  :         }
; 112  : }

  00080	e28dd008	 add         sp, sp, #8
  00084	e8bd41f0	 ldmia       sp!, {r4 - r8, lr}
  00088	e12fff1e	 bx          lr
  0008c		 |$M44150|

			 ENDP  ; |TWLReadRegs|

	EXPORT	|TWLWriteRegs|
	IMPORT	|WriteFile|

  00000			 AREA	 |.pdata|, PDATA
|$T44165| DCD	|$LN8@TWLWriteRe|
	DCD	0x40002202
; Function compile flags: /Ogspy

  00000			 AREA	 |.text|, CODE, ARM

  00000		 |TWLWriteRegs| PROC

; 122  : {

  00000		 |$LN8@TWLWriteRe|
  00000	e92d41f0	 stmdb       sp!, {r4 - r8, lr}
  00004	e24dd008	 sub         sp, sp, #8
  00008		 |$M44162|
  00008	e1a06003	 mov         r6, r3
  0000c	e1a07002	 mov         r7, r2
  00010	e1a05001	 mov         r5, r1
  00014	e1a04000	 mov         r4, r0

; 123  :     DEVICE_CONTEXT_TWL *pContext = (DEVICE_CONTEXT_TWL*)hContext;
; 124  :     if (pContext->ifc.pfnWriteRegs != NULL)

  00018	e594e008	 ldr         lr, [r4, #8]
  0001c	e1b0800e	 movs        r8, lr
  00020	0a000003	 beq         |$LN3@TWLWriteRe|

; 125  :         {
; 126  :         return pContext->ifc.pfnWriteRegs(
; 127  :             pContext->ifc.context, address, pBuffer, size
; 128  :             );

  00024	e5940000	 ldr         r0, [r4]
  00028	e1a0e00f	 mov         lr, pc
  0002c	e12fff18	 bx          r8
  00030	ea000011	 b           |$LN2@TWLWriteRe|
  00034		 |$LN3@TWLWriteRe|

; 129  :         }
; 130  :     else
; 131  :         {
; 132  :         DWORD dwCount = 0;
; 133  :         if (pContext->seekAddress != address)

  00034	e5943020	 ldr         r3, [r4, #0x20]
  00038	e3a02000	 mov         r2, #0
  0003c	e58d2004	 str         r2, [sp, #4]
  00040	e1530005	 cmp         r3, r5
  00044	0a000005	 beq         |$LN1@TWLWriteRe|

; 134  :             {
; 135  :             SetFilePointer(pContext->hDevice, address, NULL, FILE_CURRENT);

  00048	e594001c	 ldr         r0, [r4, #0x1C]
  0004c	e3a03001	 mov         r3, #1
  00050	e3a02000	 mov         r2, #0
  00054	e1a01005	 mov         r1, r5
  00058	eb000000	 bl          SetFilePointer

; 136  :             pContext->seekAddress = address;

  0005c	e5845020	 str         r5, [r4, #0x20]
  00060		 |$LN1@TWLWriteRe|

; 137  :             }
; 138  :         return WriteFile(pContext->hDevice, pBuffer, size, &dwCount, NULL);

  00060	e594001c	 ldr         r0, [r4, #0x1C]
  00064	e3a0e000	 mov         lr, #0
  00068	e28d3004	 add         r3, sp, #4
  0006c	e1a02006	 mov         r2, r6
  00070	e1a01007	 mov         r1, r7
  00074	e58de000	 str         lr, [sp]
  00078	eb000000	 bl          WriteFile
  0007c		 |$LN2@TWLWriteRe|

; 139  :         }
; 140  : }

  0007c	e28dd008	 add         sp, sp, #8
  00080	e8bd41f0	 ldmia       sp!, {r4 - r8, lr}
  00084	e12fff1e	 bx          lr
  00088		 |$M44163|

			 ENDP  ; |TWLWriteRegs|

	EXPORT	|TWLInterruptInitialize|
; File c:\wince600\public\common\sdk\inc\kfuncs.h

  00000			 AREA	 |.pdata|, PDATA
|$T44180| DCD	|$LN9@TWLInterru|
	DCD	0x40001e02
; Function compile flags: /Ogspy
; File c:\wince600\platform\common\src\soc\common_ti_v1\triton\twl\device\twl_access.c

  00000			 AREA	 |.text|, CODE, ARM

  00000		 |TWLInterruptInitialize| PROC

; 148  : {

  00000		 |$LN9@TWLInterru|
  00000	e92d4010	 stmdb       sp!, {r4, lr}
  00004	e24dd01c	 sub         sp, sp, #0x1C
  00008		 |$M44177|
  00008	e1a04000	 mov         r4, r0

; 149  :     IOCTL_TWL_INTRINIT_IN inParam;
; 150  :     DEVICE_CONTEXT_TWL *pContext = (DEVICE_CONTEXT_TWL*)hContext;
; 151  : 
; 152  :     if (pContext->ifc.pfnInterruptInitialize != NULL)

  0000c	e594300c	 ldr         r3, [r4, #0xC]
  00010	e3530000	 cmp         r3, #0
  00014	0a000003	 beq         |$LN2@TWLInterru|

; 153  :         {
; 154  :         return pContext->ifc.pfnInterruptInitialize(
; 155  :             pContext->ifc.context, intrId, hEvent
; 156  :             );

  00018	e5940000	 ldr         r0, [r4]
  0001c	e1a0e00f	 mov         lr, pc
  00020	e12fff13	 bx          r3
  00024	ea00000f	 b           |$LN1@TWLInterru|
  00028		 |$LN2@TWLInterru|

; 157  :         }
; 158  :     else
; 159  :         {
; 160  :         inParam.intrId = intrId;
; 161  :         inParam.hEvent = hEvent;
; 162  :         inParam.procId = GetCurrentProcessId();

  00028	e3a0000c	 mov         r0, #0xC
  0002c	e58d1014	 str         r1, [sp, #0x14]
  00030	e58d2018	 str         r2, [sp, #0x18]
  00034	eb000000	 bl          __GetUserKData

; 163  :         return DeviceIoControl(pContext->hDevice,
; 164  :                                IOCTL_TWL_INTRINIT,
; 165  :                                &inParam,
; 166  :                                sizeof(inParam),
; 167  :                                NULL,
; 168  :                                0,
; 169  :                                NULL,
; 170  :                                NULL 
; 171  :                                );

  00038	e59f1034	 ldr         r1, [pc, #0x34]
  0003c	e1a0e000	 mov         lr, r0
  00040	e594001c	 ldr         r0, [r4, #0x1C]
  00044	e3a04000	 mov         r4, #0
  00048	e3a0300c	 mov         r3, #0xC
  0004c	e28d2010	 add         r2, sp, #0x10
  00050	e58d400c	 str         r4, [sp, #0xC]
  00054	e58d4008	 str         r4, [sp, #8]
  00058	e58d4004	 str         r4, [sp, #4]
  0005c	e58d4000	 str         r4, [sp]
  00060	e58de010	 str         lr, [sp, #0x10]
  00064	eb000000	 bl          DeviceIoControl
  00068		 |$LN1@TWLInterru|

; 172  :         }
; 173  : }

  00068	e28dd01c	 add         sp, sp, #0x1C
  0006c	e8bd4010	 ldmia       sp!, {r4, lr}
  00070	e12fff1e	 bx          lr
  00074		 |$LN10@TWLInterru|
  00074		 |$LN11@TWLInterru|
  00074	00220c0c	 DCD         0x220c0c
  00078		 |$M44178|

			 ENDP  ; |TWLInterruptInitialize|

	EXPORT	|TWLInterruptMask|

  00000			 AREA	 |.pdata|, PDATA
|$T44194| DCD	|$LN7@TWLInterru@2|
	DCD	0x40001b02
; Function compile flags: /Ogspy

  00000			 AREA	 |.text|, CODE, ARM

  00000		 |TWLInterruptMask| PROC

; 182  : {

  00000		 |$LN7@TWLInterru@2|
  00000	e92d4030	 stmdb       sp!, {r4, r5, lr}
  00004	e24dd01c	 sub         sp, sp, #0x1C
  00008		 |$M44191|
  00008	e1a0e002	 mov         lr, r2
  0000c	e1a04001	 mov         r4, r1

; 183  :     DEVICE_CONTEXT_TWL *pContext = (DEVICE_CONTEXT_TWL*)hContext;
; 184  : 
; 185  :     if (pContext->ifc.pfnInterruptMask != NULL)

  00010	e5903014	 ldr         r3, [r0, #0x14]
  00014	e3530000	 cmp         r3, #0
  00018	0a000003	 beq         |$LN2@TWLInterru@2|

; 186  :         {
; 187  :         return pContext->ifc.pfnInterruptMask(
; 188  :             pContext->ifc.context, intrId, bEnable
; 189  :             );

  0001c	e5900000	 ldr         r0, [r0]
  00020	e1a0e00f	 mov         lr, pc
  00024	e12fff13	 bx          r3
  00028	ea00000b	 b           |$LN1@TWLInterru@2|
  0002c		 |$LN2@TWLInterru@2|

; 190  :         }
; 191  :     else
; 192  :         {
; 193  :         IOCTL_TWL_INTRMASK_IN inParam;
; 194  :         inParam.intrId = intrId;
; 195  :         inParam.bEnable = bEnable;
; 196  : 
; 197  :         return DeviceIoControl(pContext->hDevice,
; 198  :                                IOCTL_TWL_INTRMASK,
; 199  :                                &inParam,
; 200  :                                sizeof(inParam),
; 201  :                                NULL,
; 202  :                                0,
; 203  :                                NULL,
; 204  :                                NULL 
; 205  :                                );

  0002c	e59f1034	 ldr         r1, [pc, #0x34]
  00030	e590001c	 ldr         r0, [r0, #0x1C]
  00034	e3a05000	 mov         r5, #0
  00038	e3a0300c	 mov         r3, #0xC
  0003c	e28d2010	 add         r2, sp, #0x10
  00040	e58d4014	 str         r4, [sp, #0x14]
  00044	e58de018	 str         lr, [sp, #0x18]
  00048	e58d500c	 str         r5, [sp, #0xC]
  0004c	e58d5008	 str         r5, [sp, #8]
  00050	e58d5004	 str         r5, [sp, #4]
  00054	e58d5000	 str         r5, [sp]
  00058	eb000000	 bl          DeviceIoControl
  0005c		 |$LN1@TWLInterru@2|

; 206  :         }
; 207  : }

  0005c	e28dd01c	 add         sp, sp, #0x1C
  00060	e8bd4030	 ldmia       sp!, {r4, r5, lr}
  00064	e12fff1e	 bx          lr
  00068		 |$LN8@TWLInterru@2|
  00068		 |$LN9@TWLInterru@2|
  00068	00220c14	 DCD         0x220c14
  0006c		 |$M44192|

			 ENDP  ; |TWLInterruptMask|

	EXPORT	|TWLInterruptDisable|

  00000			 AREA	 |.pdata|, PDATA
|$T44207| DCD	|$LN7@TWLInterru@3|
	DCD	0x40001a04
; Function compile flags: /Ogspy

  00000			 AREA	 |.text|, CODE, ARM

  00000		 |TWLInterruptDisable| PROC

; 214  : {

  00000		 |$LN7@TWLInterru@3|
  00000	e1a0c00d	 mov         r12, sp
  00004	e92d000f	 stmdb       sp!, {r0 - r3}
  00008	e92d5000	 stmdb       sp!, {r12, lr}
  0000c	e24dd010	 sub         sp, sp, #0x10
  00010		 |$M44204|
  00010	e58d101c	 str         r1, [sp, #0x1C]

; 215  :     DEVICE_CONTEXT_TWL *pContext = (DEVICE_CONTEXT_TWL*)hContext;
; 216  : 
; 217  :     if (pContext->ifc.pfnInterruptDisable != NULL)

  00014	e5903010	 ldr         r3, [r0, #0x10]
  00018	e3530000	 cmp         r3, #0
  0001c	0a000003	 beq         |$LN2@TWLInterru@3|

; 218  :         {
; 219  :         return pContext->ifc.pfnInterruptDisable(
; 220  :             pContext->ifc.context, intrId
; 221  :             );

  00020	e5900000	 ldr         r0, [r0]
  00024	e1a0e00f	 mov         lr, pc
  00028	e12fff13	 bx          r3
  0002c	ea00000a	 b           |$LN1@TWLInterru@3|
  00030		 |$LN2@TWLInterru@3|

; 222  :         }
; 223  :     else
; 224  :         {
; 225  :         return DeviceIoControl(pContext->hDevice,
; 226  :                                IOCTL_TWL_INTRDISABLE,
; 227  :                                &intrId,
; 228  :                                sizeof(DWORD),
; 229  :                                NULL,
; 230  :                                0,
; 231  :                                NULL,
; 232  :                                NULL 
; 233  :                                );

  00030	e590001c	 ldr         r0, [r0, #0x1C]
  00034	e3a03822	 mov         r3, #0x22, 16
  00038	e3831ec1	 orr         r1, r3, #0xC1, 28
  0003c	e3a0e000	 mov         lr, #0
  00040	e3a03004	 mov         r3, #4
  00044	e28d201c	 add         r2, sp, #0x1C
  00048	e58de00c	 str         lr, [sp, #0xC]
  0004c	e58de008	 str         lr, [sp, #8]
  00050	e58de004	 str         lr, [sp, #4]
  00054	e58de000	 str         lr, [sp]
  00058	eb000000	 bl          DeviceIoControl
  0005c		 |$LN1@TWLInterru@3|

; 234  :         }
; 235  : }

  0005c	e28dd010	 add         sp, sp, #0x10
  00060	e89d6000	 ldmia       sp, {sp, lr}
  00064	e12fff1e	 bx          lr
  00068		 |$M44205|

			 ENDP  ; |TWLInterruptDisable|

	EXPORT	|TWLWakeEnable|

  00000			 AREA	 |.pdata|, PDATA
|$T44219| DCD	|$LN7@TWLWakeEna|
	DCD	0x40001b02
; Function compile flags: /Ogspy

  00000			 AREA	 |.text|, CODE, ARM

  00000		 |TWLWakeEnable| PROC

; 244  : {

  00000		 |$LN7@TWLWakeEna|
  00000	e92d4030	 stmdb       sp!, {r4, r5, lr}
  00004	e24dd018	 sub         sp, sp, #0x18
  00008		 |$M44216|
  00008	e1a0e002	 mov         lr, r2
  0000c	e1a04001	 mov         r4, r1

; 245  :     IOCTL_TWL_WAKEENABLE_IN inParam;
; 246  :     DEVICE_CONTEXT_TWL *pContext = (DEVICE_CONTEXT_TWL*)hContext;
; 247  : 
; 248  :     if (pContext->ifc.pfnEnableWakeup != NULL)

  00010	e5903018	 ldr         r3, [r0, #0x18]
  00014	e3530000	 cmp         r3, #0
  00018	0a000003	 beq         |$LN2@TWLWakeEna|

; 249  :         {
; 250  :         return pContext->ifc.pfnEnableWakeup(
; 251  :             pContext->ifc.context, intrId, bEnable
; 252  :             );

  0001c	e5900000	 ldr         r0, [r0]
  00020	e1a0e00f	 mov         lr, pc
  00024	e12fff13	 bx          r3
  00028	ea00000b	 b           |$LN1@TWLWakeEna|
  0002c		 |$LN2@TWLWakeEna|

; 253  :         }
; 254  :     else
; 255  :         {
; 256  :         inParam.intrId = intrId;
; 257  :         inParam.bEnable = bEnable;
; 258  :         return DeviceIoControl(pContext->hDevice,
; 259  :                                IOCTL_TWL_WAKEENABLE,
; 260  :                                &inParam,
; 261  :                                sizeof(inParam),
; 262  :                                NULL,
; 263  :                                0,
; 264  :                                NULL,
; 265  :                                NULL 
; 266  :                                );

  0002c	e59f1034	 ldr         r1, [pc, #0x34]
  00030	e590001c	 ldr         r0, [r0, #0x1C]
  00034	e3a05000	 mov         r5, #0
  00038	e3a03008	 mov         r3, #8
  0003c	e28d2010	 add         r2, sp, #0x10
  00040	e58d4010	 str         r4, [sp, #0x10]
  00044	e58de014	 str         lr, [sp, #0x14]
  00048	e58d500c	 str         r5, [sp, #0xC]
  0004c	e58d5008	 str         r5, [sp, #8]
  00050	e58d5004	 str         r5, [sp, #4]
  00054	e58d5000	 str         r5, [sp]
  00058	eb000000	 bl          DeviceIoControl
  0005c		 |$LN1@TWLWakeEna|

; 267  :         }
; 268  : }

  0005c	e28dd018	 add         sp, sp, #0x18
  00060	e8bd4030	 ldmia       sp!, {r4, r5, lr}
  00064	e12fff1e	 bx          lr
  00068		 |$LN8@TWLWakeEna|
  00068		 |$LN9@TWLWakeEna|
  00068	00220c18	 DCD         0x220c18
  0006c		 |$M44217|

			 ENDP  ; |TWLWakeEnable|

	END
