; Listing generated by Microsoft (R) Optimizing Compiler Version 14.01.60511.01 

	TTL	C:\WINCE600\PLATFORM\Z2170P\SRC\test\Tux_I2C\test.cpp
	CODE32

  00000			 AREA	 |.drectve|, DRECTVE
	DCB	"-defaultlib:LIBCMT "
	DCB	"-defaultlib:OLDNAMES "

	EXPORT	|?g_Fail@@3HA| [ DATA ]			; g_Fail

  00000			 AREA	 |.bss|, NOINIT
|?g_Fail@@3HA| % 0x4					; g_Fail
	EXPORT	|??_C@_1CK@NLHJNDEG@?$AAC?$AAl?$AAo?$AAs?$AAi?$AAn?$AAg?$AA?5?$AAT?$AAh?$AAr?$AAe?$AAa?$AAd?$AA?5?$AA?$CF?$AAd?$AA?5?$AA?$AN?$AA?6?$AA?$AA@| [ DATA ] ; `string'
	EXPORT	|??_C@_1CG@NCKKNNEK@?$AAT?$AAh?$AAr?$AAe?$AAa?$AAd?$AA?5?$AA?$CF?$AAd?$AA?5?$AAf?$AAa?$AAi?$AAl?$AAe?$AAd?$AA?$AN?$AA?6?$AA?$AA@| [ DATA ] ; `string'
	EXPORT	|??_C@_1EM@CJGILEGP@?$AAC?$AAo?$AAu?$AAl?$AAd?$AA?5?$AAn?$AAo?$AAt?$AA?5?$AAo?$AAp?$AAe?$AAn?$AA?5?$AAI?$AA2?$AAC?$AA?5?$AAp?$AAo?$AAr?$AAt?$AA?4?$AA?5?$AAE?$AAr?$AAr?$AAo?$AAr?$AA?5?$AA?$DN@| [ DATA ] ; `string'
	EXPORT	|??_C@_1LK@MJDKPDNI@?$AAC?$AAo?$AAu?$AAl?$AAd?$AA?5?$AAn?$AAo?$AAt?$AA?5?$AAw?$AAr?$AAi?$AAt?$AAe?$AA?5?$AAI?$AA2?$AAC?$AA?5?$AAp?$AAo?$AAr?$AAt?$AA?5?$AAa?$AAs?$AA?5?$AAe?$AAx?$AAp?$AAe@| [ DATA ] ; `string'
	EXPORT	|??_C@_1DI@OHOMLPLM@?$AAC?$AAo?$AAu?$AAl?$AAd?$AA?5?$AAn?$AAo?$AAt?$AA?5?$AAw?$AAr?$AAi?$AAt?$AAe?$AA?5?$AAI?$AA2?$AAC?$AA?5?$AAp?$AAo?$AAr?$AAt?$AA?4?$AA?$AN?$AA?6?$AA?$AA@| [ DATA ] ; `string'
	EXPORT	|??_C@_1FE@CHMBLGPN@?$AAC?$AAo?$AAu?$AAl?$AAd?$AA?5?$AAn?$AAo?$AAt?$AA?5?$AAs?$AAe?$AAt?$AA?5?$AAs?$AAu?$AAb?$AA?5?$AAA?$AAd?$AAd?$AAr?$AA?5?$AAm?$AAo?$AAd?$AAe?$AA?4?$AA?5?$AAE?$AAr?$AAr@| [ DATA ] ; `string'
	EXPORT	|??_C@_1FI@HJHEAOMK@?$AAC?$AAo?$AAu?$AAl?$AAd?$AA?5?$AAn?$AAo?$AAt?$AA?5?$AAs?$AAe?$AAt?$AA?5?$AAb?$AAa?$AAu?$AAd?$AA?5?$AAr?$AAa?$AAt?$AAe?$AA?5?$AAs?$AAp?$AAe?$AAe?$AAd?$AA?4?$AA?5?$AAE@| [ DATA ] ; `string'
	EXPORT	|??_C@_1FE@NNLCOGEJ@?$AAC?$AAo?$AAu?$AAl?$AAd?$AA?5?$AAn?$AAo?$AAt?$AA?5?$AAs?$AAe?$AAt?$AA?5?$AAs?$AAl?$AAa?$AAv?$AAe?$AA?5?$AAa?$AAd?$AAd?$AAr?$AAe?$AAs?$AAs?$AA?4?$AA?5?$AAE?$AAr?$AAr@| [ DATA ] ; `string'
	EXPORT	|??_C@_1EM@GJJDPBGB@?$AAF?$AAa?$AAi?$AAl?$AAu?$AAr?$AAe?$AA?5?$AAi?$AAn?$AA?5?$AAT?$AAh?$AAr?$AAe?$AAa?$AAd?$AA?5?$AA?$CF?$AAd?$AA?4?$AA?5?$AAO?$AAu?$AAt?$AA?5?$AAo?$AAf?$AA?5?$AAm?$AAe?$AAm@| [ DATA ] ; `string'
	EXPORT	|??_C@_1DC@FOPDDBKF@?$AAS?$AAt?$AAa?$AAr?$AAt?$AAi?$AAn?$AAg?$AA?5?$AAI?$AA2?$AAc?$AA?5?$AAT?$AAh?$AAr?$AAe?$AAa?$AAd?$AA?5?$AA?$CF?$AAd?$AA?$AN?$AA?6?$AA?$AA@| [ DATA ] ; `string'
	IMPORT	|Sleep|
	IMPORT	|?Platform_Write@@YAIPAXJ0I@Z|		; Platform_Write
	IMPORT	|?g_Writes@@3KA|			; g_Writes
	IMPORT	|?Platform_setSubAddrMode@@YAHPAX@Z|	; Platform_setSubAddrMode
	IMPORT	|?g_SubAddressMode@@3KA|		; g_SubAddressMode
	IMPORT	|?Platform_setBaudRateIndex@@YAHPAX@Z|	; Platform_setBaudRateIndex
	IMPORT	|?g_BaudRateIndex@@3KA|			; g_BaudRateIndex
	IMPORT	|?Platform_Close@@YAXPAX@Z|		; Platform_Close
	IMPORT	|GetLastError|
	IMPORT	|?Platform_setSlaveAddress@@YAHPAX@Z|	; Platform_setSlaveAddress
	IMPORT	|?g_Address@@3KA|			; g_Address
	IMPORT	|?Platform_Open@@YAPAXXZ|		; Platform_Open
	IMPORT	|LocalAlloc|
	IMPORT	|?g_BufferSize@@3KA|			; g_BufferSize
	IMPORT	|?g_pKato@@3PAVCKato@@A|		; g_pKato
	IMPORT	|__imp_?Log@CKato@@QAAHKPBGZZ|
; File c:\wince600\platform\z2170p\src\test\tux_i2c\test.cpp

  00000			 AREA	 |.pdata|, PDATA
|$T32651| DCD	|$LN40@WriteThrea|
	DCD	0x4000c002

  00000			 AREA	 |.rdata|, DATA, READONLY
|??_C@_1CK@NLHJNDEG@?$AAC?$AAl?$AAo?$AAs?$AAi?$AAn?$AAg?$AA?5?$AAT?$AAh?$AAr?$AAe?$AAa?$AAd?$AA?5?$AA?$CF?$AAd?$AA?5?$AA?$AN?$AA?6?$AA?$AA@| DCB "C"
	DCB	0x0, "l", 0x0, "o", 0x0, "s", 0x0, "i", 0x0, "n", 0x0, "g"
	DCB	0x0, " ", 0x0, "T", 0x0, "h", 0x0, "r", 0x0, "e", 0x0, "a"
	DCB	0x0, "d", 0x0, " ", 0x0, "%", 0x0, "d", 0x0, " ", 0x0, 0xd
	DCB	0x0, 0xa, 0x0, 0x0, 0x0			; `string'

  00000			 AREA	 |.rdata|, DATA, READONLY
|??_C@_1CG@NCKKNNEK@?$AAT?$AAh?$AAr?$AAe?$AAa?$AAd?$AA?5?$AA?$CF?$AAd?$AA?5?$AAf?$AAa?$AAi?$AAl?$AAe?$AAd?$AA?$AN?$AA?6?$AA?$AA@| DCB "T"
	DCB	0x0, "h", 0x0, "r", 0x0, "e", 0x0, "a", 0x0, "d", 0x0, " "
	DCB	0x0, "%", 0x0, "d", 0x0, " ", 0x0, "f", 0x0, "a", 0x0, "i"
	DCB	0x0, "l", 0x0, "e", 0x0, "d", 0x0, 0xd, 0x0, 0xa, 0x0, 0x0
	DCB	0x0					; `string'

  00000			 AREA	 |.rdata|, DATA, READONLY
|??_C@_1EM@CJGILEGP@?$AAC?$AAo?$AAu?$AAl?$AAd?$AA?5?$AAn?$AAo?$AAt?$AA?5?$AAo?$AAp?$AAe?$AAn?$AA?5?$AAI?$AA2?$AAC?$AA?5?$AAp?$AAo?$AAr?$AAt?$AA?4?$AA?5?$AAE?$AAr?$AAr?$AAo?$AAr?$AA?5?$AA?$DN@| DCB "C"
	DCB	0x0, "o", 0x0, "u", 0x0, "l", 0x0, "d", 0x0, " ", 0x0, "n"
	DCB	0x0, "o", 0x0, "t", 0x0, " ", 0x0, "o", 0x0, "p", 0x0, "e"
	DCB	0x0, "n", 0x0, " ", 0x0, "I", 0x0, "2", 0x0, "C", 0x0, " "
	DCB	0x0, "p", 0x0, "o", 0x0, "r", 0x0, "t", 0x0, ".", 0x0, " "
	DCB	0x0, "E", 0x0, "r", 0x0, "r", 0x0, "o", 0x0, "r", 0x0, " "
	DCB	0x0, "=", 0x0, " ", 0x0, "%", 0x0, "d", 0x0, 0xd, 0x0, 0xa
	DCB	0x0, 0x0, 0x0				; `string'

  00000			 AREA	 |.rdata|, DATA, READONLY
|??_C@_1LK@MJDKPDNI@?$AAC?$AAo?$AAu?$AAl?$AAd?$AA?5?$AAn?$AAo?$AAt?$AA?5?$AAw?$AAr?$AAi?$AAt?$AAe?$AA?5?$AAI?$AA2?$AAC?$AA?5?$AAp?$AAo?$AAr?$AAt?$AA?5?$AAa?$AAs?$AA?5?$AAe?$AAx?$AAp?$AAe@| DCB "C"
	DCB	0x0, "o", 0x0, "u", 0x0, "l", 0x0, "d", 0x0, " ", 0x0, "n"
	DCB	0x0, "o", 0x0, "t", 0x0, " ", 0x0, "w", 0x0, "r", 0x0, "i"
	DCB	0x0, "t", 0x0, "e", 0x0, " ", 0x0, "I", 0x0, "2", 0x0, "C"
	DCB	0x0, " ", 0x0, "p", 0x0, "o", 0x0, "r", 0x0, "t", 0x0, " "
	DCB	0x0, "a", 0x0, "s", 0x0, " ", 0x0, "e", 0x0, "x", 0x0, "p"
	DCB	0x0, "e", 0x0, "c", 0x0, "t", 0x0, "e", 0x0, "d", 0x0, "."
	DCB	0x0, " ", 0x0, "N", 0x0, "o", 0x0, " ", 0x0, "d", 0x0, "e"
	DCB	0x0, "v", 0x0, "i", 0x0, "c", 0x0, "e", 0x0, " ", 0x0, "a"
	DCB	0x0, "d", 0x0, "d", 0x0, "r", 0x0, "e", 0x0, "s", 0x0, "s"
	DCB	0x0, " ", 0x0, "w", 0x0, "a", 0x0, "s", 0x0, " ", 0x0, "s"
	DCB	0x0, "p", 0x0, "e", 0x0, "c", 0x0, "i", 0x0, "f", 0x0, "i"
	DCB	0x0, "e", 0x0, "d", 0x0, " ", 0x0, "i", 0x0, "n", 0x0, " "
	DCB	0x0, "t", 0x0, "h", 0x0, "e", 0x0, " ", 0x0, "c", 0x0, "o"
	DCB	0x0, "m", 0x0, "m", 0x0, "a", 0x0, "n", 0x0, "d", 0x0, " "
	DCB	0x0, "l", 0x0, "i", 0x0, "n", 0x0, "e", 0x0, ".", 0x0, 0xd
	DCB	0x0, 0xa, 0x0, 0x0, 0x0			; `string'

  00000			 AREA	 |.rdata|, DATA, READONLY
|??_C@_1DI@OHOMLPLM@?$AAC?$AAo?$AAu?$AAl?$AAd?$AA?5?$AAn?$AAo?$AAt?$AA?5?$AAw?$AAr?$AAi?$AAt?$AAe?$AA?5?$AAI?$AA2?$AAC?$AA?5?$AAp?$AAo?$AAr?$AAt?$AA?4?$AA?$AN?$AA?6?$AA?$AA@| DCB "C"
	DCB	0x0, "o", 0x0, "u", 0x0, "l", 0x0, "d", 0x0, " ", 0x0, "n"
	DCB	0x0, "o", 0x0, "t", 0x0, " ", 0x0, "w", 0x0, "r", 0x0, "i"
	DCB	0x0, "t", 0x0, "e", 0x0, " ", 0x0, "I", 0x0, "2", 0x0, "C"
	DCB	0x0, " ", 0x0, "p", 0x0, "o", 0x0, "r", 0x0, "t", 0x0, "."
	DCB	0x0, 0xd, 0x0, 0xa, 0x0, 0x0, 0x0	; `string'

  00000			 AREA	 |.rdata|, DATA, READONLY
|??_C@_1FE@CHMBLGPN@?$AAC?$AAo?$AAu?$AAl?$AAd?$AA?5?$AAn?$AAo?$AAt?$AA?5?$AAs?$AAe?$AAt?$AA?5?$AAs?$AAu?$AAb?$AA?5?$AAA?$AAd?$AAd?$AAr?$AA?5?$AAm?$AAo?$AAd?$AAe?$AA?4?$AA?5?$AAE?$AAr?$AAr@| DCB "C"
	DCB	0x0, "o", 0x0, "u", 0x0, "l", 0x0, "d", 0x0, " ", 0x0, "n"
	DCB	0x0, "o", 0x0, "t", 0x0, " ", 0x0, "s", 0x0, "e", 0x0, "t"
	DCB	0x0, " ", 0x0, "s", 0x0, "u", 0x0, "b", 0x0, " ", 0x0, "A"
	DCB	0x0, "d", 0x0, "d", 0x0, "r", 0x0, " ", 0x0, "m", 0x0, "o"
	DCB	0x0, "d", 0x0, "e", 0x0, ".", 0x0, " ", 0x0, "E", 0x0, "r"
	DCB	0x0, "r", 0x0, "o", 0x0, "r", 0x0, " ", 0x0, "=", 0x0, " "
	DCB	0x0, "%", 0x0, "d", 0x0, 0xd, 0x0, 0xa, 0x0, 0x0, 0x0 ; `string'

  00000			 AREA	 |.rdata|, DATA, READONLY
|??_C@_1FI@HJHEAOMK@?$AAC?$AAo?$AAu?$AAl?$AAd?$AA?5?$AAn?$AAo?$AAt?$AA?5?$AAs?$AAe?$AAt?$AA?5?$AAb?$AAa?$AAu?$AAd?$AA?5?$AAr?$AAa?$AAt?$AAe?$AA?5?$AAs?$AAp?$AAe?$AAe?$AAd?$AA?4?$AA?5?$AAE@| DCB "C"
	DCB	0x0, "o", 0x0, "u", 0x0, "l", 0x0, "d", 0x0, " ", 0x0, "n"
	DCB	0x0, "o", 0x0, "t", 0x0, " ", 0x0, "s", 0x0, "e", 0x0, "t"
	DCB	0x0, " ", 0x0, "b", 0x0, "a", 0x0, "u", 0x0, "d", 0x0, " "
	DCB	0x0, "r", 0x0, "a", 0x0, "t", 0x0, "e", 0x0, " ", 0x0, "s"
	DCB	0x0, "p", 0x0, "e", 0x0, "e", 0x0, "d", 0x0, ".", 0x0, " "
	DCB	0x0, "E", 0x0, "r", 0x0, "r", 0x0, "o", 0x0, "r", 0x0, " "
	DCB	0x0, "=", 0x0, " ", 0x0, "%", 0x0, "d", 0x0, 0xd, 0x0, 0xa
	DCB	0x0, 0x0, 0x0				; `string'

  00000			 AREA	 |.rdata|, DATA, READONLY
|??_C@_1FE@NNLCOGEJ@?$AAC?$AAo?$AAu?$AAl?$AAd?$AA?5?$AAn?$AAo?$AAt?$AA?5?$AAs?$AAe?$AAt?$AA?5?$AAs?$AAl?$AAa?$AAv?$AAe?$AA?5?$AAa?$AAd?$AAd?$AAr?$AAe?$AAs?$AAs?$AA?4?$AA?5?$AAE?$AAr?$AAr@| DCB "C"
	DCB	0x0, "o", 0x0, "u", 0x0, "l", 0x0, "d", 0x0, " ", 0x0, "n"
	DCB	0x0, "o", 0x0, "t", 0x0, " ", 0x0, "s", 0x0, "e", 0x0, "t"
	DCB	0x0, " ", 0x0, "s", 0x0, "l", 0x0, "a", 0x0, "v", 0x0, "e"
	DCB	0x0, " ", 0x0, "a", 0x0, "d", 0x0, "d", 0x0, "r", 0x0, "e"
	DCB	0x0, "s", 0x0, "s", 0x0, ".", 0x0, " ", 0x0, "E", 0x0, "r"
	DCB	0x0, "r", 0x0, "o", 0x0, "r", 0x0, " ", 0x0, "=", 0x0, " "
	DCB	0x0, "%", 0x0, "d", 0x0, 0xd, 0x0, 0xa, 0x0, 0x0, 0x0 ; `string'

  00000			 AREA	 |.rdata|, DATA, READONLY
|??_C@_1EM@GJJDPBGB@?$AAF?$AAa?$AAi?$AAl?$AAu?$AAr?$AAe?$AA?5?$AAi?$AAn?$AA?5?$AAT?$AAh?$AAr?$AAe?$AAa?$AAd?$AA?5?$AA?$CF?$AAd?$AA?4?$AA?5?$AAO?$AAu?$AAt?$AA?5?$AAo?$AAf?$AA?5?$AAm?$AAe?$AAm@| DCB "F"
	DCB	0x0, "a", 0x0, "i", 0x0, "l", 0x0, "u", 0x0, "r", 0x0, "e"
	DCB	0x0, " ", 0x0, "i", 0x0, "n", 0x0, " ", 0x0, "T", 0x0, "h"
	DCB	0x0, "r", 0x0, "e", 0x0, "a", 0x0, "d", 0x0, " ", 0x0, "%"
	DCB	0x0, "d", 0x0, ".", 0x0, " ", 0x0, "O", 0x0, "u", 0x0, "t"
	DCB	0x0, " ", 0x0, "o", 0x0, "f", 0x0, " ", 0x0, "m", 0x0, "e"
	DCB	0x0, "m", 0x0, "o", 0x0, "r", 0x0, "y", 0x0, 0xd, 0x0, 0xa
	DCB	0x0, 0x0, 0x0				; `string'

  00000			 AREA	 |.rdata|, DATA, READONLY
|??_C@_1DC@FOPDDBKF@?$AAS?$AAt?$AAa?$AAr?$AAt?$AAi?$AAn?$AAg?$AA?5?$AAI?$AA2?$AAc?$AA?5?$AAT?$AAh?$AAr?$AAe?$AAa?$AAd?$AA?5?$AA?$CF?$AAd?$AA?$AN?$AA?6?$AA?$AA@| DCB "S"
	DCB	0x0, "t", 0x0, "a", 0x0, "r", 0x0, "t", 0x0, "i", 0x0, "n"
	DCB	0x0, "g", 0x0, " ", 0x0, "I", 0x0, "2", 0x0, "c", 0x0, " "
	DCB	0x0, "T", 0x0, "h", 0x0, "r", 0x0, "e", 0x0, "a", 0x0, "d"
	DCB	0x0, " ", 0x0, "%", 0x0, "d", 0x0, 0xd, 0x0, 0xa, 0x0, 0x0
	DCB	0x0					; `string'
; Function compile flags: /Ogspy

  00000			 AREA	 |.text|, CODE, ARM

  00000		 |?WriteThread@@YAKPAX@Z| PROC		; WriteThread

; 80   : {

  00000		 |$LN40@WriteThrea|
  00000	e92d4ff0	 stmdb       sp!, {r4 - r11, lr}
  00004	e24dd004	 sub         sp, sp, #4
  00008		 |$M32648|

; 81   :     HANDLE hI2c = 0;
; 82   :     PBYTE pOutBuffer = NULL;
; 83   :     DWORD dwBytesReturned = 0;
; 84   :     DWORD bThreadNumber = *(PDWORD)pvarg;
; 85   :     BOOL bRet = TRUE;
; 86   : 
; 87   :     g_pKato->Log(1, TEXT("Starting I2c Thread %d\r\n"), bThreadNumber);

  00008	e59f32ac	 ldr         r3, [pc, #0x2AC]
  0000c	e59f62e8	 ldr         r6, [pc, #0x2E8]
  00010	e5908000	 ldr         r8, [r0]
  00014	e5934000	 ldr         r4, [r3]
  00018	e5960000	 ldr         r0, [r6]
  0001c	e59f22d4	 ldr         r2, [pc, #0x2D4]
  00020	e1a03008	 mov         r3, r8
  00024	e58d8000	 str         r8, [sp]
  00028	e3a01001	 mov         r1, #1
  0002c	e3a07001	 mov         r7, #1
  00030	e1a0e00f	 mov         lr, pc
  00034	e12fff14	 bx          r4

; 88   : 
; 89   :     pOutBuffer = (PBYTE)LocalAlloc(LPTR, sizeof(BYTE)*g_BufferSize);

  00038	e59fa2b4	 ldr         r10, [pc, #0x2B4]
  0003c	e3a00040	 mov         r0, #0x40
  00040	e59a1000	 ldr         r1, [r10]
  00044	eb000000	 bl          LocalAlloc
  00048	e1b0b000	 movs        r11, r0

; 90   : 
; 91   :     if(pOutBuffer == NULL)

  0004c	1a000008	 bne         |$LN27@WriteThrea|

; 92   :     {
; 93   :         g_pKato->Log(1, TEXT("Failure in Thread %d. Out of memory\r\n"), bThreadNumber);

  00050	e59f3264	 ldr         r3, [pc, #0x264]
  00054	e59f2294	 ldr         r2, [pc, #0x294]
  00058	e5960000	 ldr         r0, [r6]
  0005c	e5934000	 ldr         r4, [r3]
  00060	e1a03008	 mov         r3, r8
  00064	e3a01001	 mov         r1, #1
  00068	e1a0e00f	 mov         lr, pc
  0006c	e12fff14	 bx          r4

; 94   :         bRet = FALSE;

  00070	ea000027	 b           |$LN35@WriteThrea|
  00074		 |$LN27@WriteThrea|

; 95   :         goto CLOSE;
; 96   :     }
; 97   : 
; 98   :     for(DWORD i = 0; i < g_BufferSize; i++)

  00074	e59a3000	 ldr         r3, [r10]
  00078	e3a02000	 mov         r2, #0
  0007c	e3530000	 cmp         r3, #0
  00080	0a000005	 beq         |$LN23@WriteThrea|
  00084	e3a010aa	 mov         r1, #0xAA
  00088		 |$LL25@WriteThrea|

; 99   :     {
; 100  :         pOutBuffer[i] = (BYTE)I2C_DUMMY_FILL;

  00088	e7c2100b	 strb        r1, [r2, +r11]
  0008c	e59a3000	 ldr         r3, [r10]
  00090	e2822001	 add         r2, r2, #1
  00094	e1520003	 cmp         r2, r3
  00098	3afffffa	 bcc         |$LL25@WriteThrea|
  0009c		 |$LN23@WriteThrea|

; 101  :     }
; 102  : 
; 103  : 
; 104  : 
; 105  : 
; 106  :     //Calling platform specific Open I2C function
; 107  :     hI2c = Platform_Open();

  0009c	eb000000	 bl          |?Platform_Open@@YAPAXXZ|
  000a0	e1b05000	 movs        r5, r0

; 108  :     if(hI2c == 0 || hI2c == INVALID_HANDLE_VALUE)

  000a4	0a000078	 beq         |$LN21@WriteThrea|
  000a8	e3750001	 cmn         r5, #1
  000ac	0a000076	 beq         |$LN21@WriteThrea|

; 112  :         goto CLOSE;
; 113  :     }
; 114  : 
; 115  : 	//Calling platform specific setSlaveAddress function
; 116  : 	if(g_Address != I2C_NOTSET_VARIABLE)

  000b0	e59f8234	 ldr         r8, [pc, #0x234]
  000b4	e5983000	 ldr         r3, [r8]
  000b8	e35300ff	 cmp         r3, #0xFF
  000bc	0a00002b	 beq         |$LN18@WriteThrea|

; 117  : 	{
; 118  : 		if( !Platform_setSlaveAddress(hI2c))

  000c0	e1a00005	 mov         r0, r5
  000c4	eb000000	 bl          |?Platform_setSlaveAddress@@YAHPAX@Z|
  000c8	e3500000	 cmp         r0, #0
  000cc	1a000027	 bne         |$LN18@WriteThrea|

; 119  : 		{
; 120  : 			g_pKato->Log(1, TEXT("Could not set slave address. Error = %d\r\n"), GetLastError());

  000d0	eb000000	 bl          GetLastError
  000d4	e59f11e0	 ldr         r1, [pc, #0x1E0]
  000d8	e59f2208	 ldr         r2, [pc, #0x208]
  000dc	e1a03000	 mov         r3, r0
  000e0	e5914000	 ldr         r4, [r1]
  000e4	e5960000	 ldr         r0, [r6]
  000e8	e3a01001	 mov         r1, #1
  000ec	e1a0e00f	 mov         lr, pc
  000f0	e12fff14	 bx          r4
  000f4		 |$LN37@WriteThrea|

; 121  : 			bRet = FALSE;

  000f4	e3a07000	 mov         r7, #0
  000f8		 |$LN36@WriteThrea|

; 150  :     {
; 151  :         if(!Platform_Write(hI2c, I2C_SUBADDRESS, pOutBuffer, g_BufferSize))

  000f8	e59d8000	 ldr         r8, [sp]

; 111  :         bRet = FALSE;

  000fc		 |$CLOSE$32558|

; 171  :     
; 172  : CLOSE:
; 173  :     if(hI2c != 0 && hI2c != INVALID_HANDLE_VALUE)

  000fc	e3550000	 cmp         r5, #0
  00100	13750001	 cmnne       r5, #1

; 174  :     {
; 175  : 		Platform_Close(hI2c);

  00104	11a00005	 movne       r0, r5
  00108	1b000000	 blne        |?Platform_Close@@YAXPAX@Z|

; 176  :     }
; 177  :     if(bRet == FALSE)

  0010c	e3570000	 cmp         r7, #0
  00110	1a00000a	 bne         |$LN1@WriteThrea|
  00114		 |$LN35@WriteThrea|

; 178  :     {
; 179  :         g_pKato->Log(1, TEXT("Thread %d failed\r\n"), bThreadNumber);

  00114	e59f11a0	 ldr         r1, [pc, #0x1A0]
  00118	e59f21c4	 ldr         r2, [pc, #0x1C4]
  0011c	e5960000	 ldr         r0, [r6]
  00120	e5914000	 ldr         r4, [r1]
  00124	e3a01001	 mov         r1, #1
  00128	e1a03008	 mov         r3, r8
  0012c	e1a0e00f	 mov         lr, pc
  00130	e12fff14	 bx          r4

; 180  :         g_Fail = TRUE;

  00134	e59f21a4	 ldr         r2, [pc, #0x1A4]
  00138	e3a03001	 mov         r3, #1
  0013c	e5823000	 str         r3, [r2]
  00140		 |$LN1@WriteThrea|

; 181  :     }
; 182  : 
; 183  : 	g_pKato->Log(1, TEXT("Closing Thread %d \r\n"), bThreadNumber);

  00140	e59f1174	 ldr         r1, [pc, #0x174]
  00144	e59f2190	 ldr         r2, [pc, #0x190]
  00148	e5960000	 ldr         r0, [r6]
  0014c	e5914000	 ldr         r4, [r1]
  00150	e3a01001	 mov         r1, #1
  00154	e1a03008	 mov         r3, r8
  00158	e1a0e00f	 mov         lr, pc
  0015c	e12fff14	 bx          r4

; 184  :     return 0;

  00160	e3a00000	 mov         r0, #0

; 185  : }

  00164	e28dd004	 add         sp, sp, #4
  00168	e8bd4ff0	 ldmia       sp!, {r4 - r11, lr}
  0016c	e12fff1e	 bx          lr
  00170		 |$LN18@WriteThrea|

; 122  : 			goto CLOSE;
; 123  : 		}
; 124  : 	}
; 125  : 
; 126  : 	//Calling platform specific setBaudRateIndex function
; 127  : 	if(g_BaudRateIndex != I2C_NOTSET_VARIABLE)

  00170	e59f3160	 ldr         r3, [pc, #0x160]
  00174	e5933000	 ldr         r3, [r3]
  00178	e35300ff	 cmp         r3, #0xFF
  0017c	0a00000d	 beq         |$LN15@WriteThrea|

; 128  : 	{
; 129  : 		if( !Platform_setBaudRateIndex(hI2c))

  00180	e1a00005	 mov         r0, r5
  00184	eb000000	 bl          |?Platform_setBaudRateIndex@@YAHPAX@Z|
  00188	e3500000	 cmp         r0, #0
  0018c	1a000009	 bne         |$LN15@WriteThrea|

; 130  : 		{
; 131  : 			g_pKato->Log(1, TEXT("Could not set baud rate speed. Error = %d\r\n"), GetLastError());

  00190	eb000000	 bl          GetLastError
  00194	e59f1120	 ldr         r1, [pc, #0x120]
  00198	e59f2134	 ldr         r2, [pc, #0x134]
  0019c	e1a03000	 mov         r3, r0
  001a0	e5914000	 ldr         r4, [r1]
  001a4	e5960000	 ldr         r0, [r6]
  001a8	e3a01001	 mov         r1, #1
  001ac	e1a0e00f	 mov         lr, pc
  001b0	e12fff14	 bx          r4

; 170  :     }

  001b4	eaffffce	 b           |$LN37@WriteThrea|
  001b8		 |$LN15@WriteThrea|

; 132  : 			bRet = FALSE;
; 133  : 			goto CLOSE;
; 134  : 		}
; 135  : 	}
; 136  : 
; 137  : 	//Calling platform specific setSubAddr function
; 138  : 	if(g_SubAddressMode!= I2C_NOTSET_VARIABLE)

  001b8	e59f3110	 ldr         r3, [pc, #0x110]
  001bc	e5933000	 ldr         r3, [r3]
  001c0	e35300ff	 cmp         r3, #0xFF
  001c4	0a00000d	 beq         |$LN12@WriteThrea|

; 139  : 	{
; 140  : 		if( !Platform_setSubAddrMode(hI2c))

  001c8	e1a00005	 mov         r0, r5
  001cc	eb000000	 bl          |?Platform_setSubAddrMode@@YAHPAX@Z|
  001d0	e3500000	 cmp         r0, #0
  001d4	1a000009	 bne         |$LN12@WriteThrea|

; 141  : 		{
; 142  : 			g_pKato->Log(1, TEXT("Could not set sub Addr mode. Error = %d\r\n"), GetLastError());

  001d8	eb000000	 bl          GetLastError
  001dc	e59f10d8	 ldr         r1, [pc, #0xD8]
  001e0	e59f20e4	 ldr         r2, [pc, #0xE4]
  001e4	e1a03000	 mov         r3, r0
  001e8	e5914000	 ldr         r4, [r1]
  001ec	e5960000	 ldr         r0, [r6]
  001f0	e3a01001	 mov         r1, #1
  001f4	e1a0e00f	 mov         lr, pc
  001f8	e12fff14	 bx          r4

; 170  :     }

  001fc	eaffffbc	 b           |$LN37@WriteThrea|
  00200		 |$LN12@WriteThrea|

; 143  : 			bRet = FALSE;
; 144  : 			goto CLOSE;
; 145  : 		}
; 146  : 	}
; 147  : 
; 148  : 
; 149  :     for(DWORD i = 0; i < g_Writes; i++)

  00200	e59f90c0	 ldr         r9, [pc, #0xC0]
  00204	e3a04000	 mov         r4, #0
  00208	e5993000	 ldr         r3, [r9]
  0020c	e3530000	 cmp         r3, #0
  00210	0affffb8	 beq         |$LN36@WriteThrea|
  00214		 |$LL10@WriteThrea|

; 150  :     {
; 151  :         if(!Platform_Write(hI2c, I2C_SUBADDRESS, pOutBuffer, g_BufferSize))

  00214	e59a3000	 ldr         r3, [r10]
  00218	e1a0200b	 mov         r2, r11
  0021c	e3a01087	 mov         r1, #0x87
  00220	e1a00005	 mov         r0, r5
  00224	eb000000	 bl          |?Platform_Write@@YAIPAXJ0I@Z|
  00228	e3500000	 cmp         r0, #0
  0022c	0a000006	 beq         |$LN32@WriteThrea|

; 164  : 				goto CLOSE;
; 165  : 			}
; 166  :             
; 167  : 
; 168  :         }
; 169  :         Sleep(10);

  00230	e3a0000a	 mov         r0, #0xA
  00234	eb000000	 bl          Sleep
  00238	e5993000	 ldr         r3, [r9]
  0023c	e2844001	 add         r4, r4, #1
  00240	e1540003	 cmp         r4, r3
  00244	3afffff2	 bcc         |$LL10@WriteThrea|

; 150  :     {
; 151  :         if(!Platform_Write(hI2c, I2C_SUBADDRESS, pOutBuffer, g_BufferSize))

  00248	eaffffaa	 b           |$LN36@WriteThrea|
  0024c		 |$LN32@WriteThrea|

; 152  :         {
; 153  : 			if(g_Address != I2C_NOTSET_VARIABLE)

  0024c	e5983000	 ldr         r3, [r8]

; 154  : 			{
; 155  : 				g_pKato->Log(1, TEXT("Could not write I2C port.\r\n"));

  00250	e5960000	 ldr         r0, [r6]
  00254	e3a01001	 mov         r1, #1
  00258	e35300ff	 cmp         r3, #0xFF
  0025c	e59f3058	 ldr         r3, [pc, #0x58]
  00260	e5933000	 ldr         r3, [r3]
  00264	0a000003	 beq         |$LN6@WriteThrea|
  00268	e59f2054	 ldr         r2, [pc, #0x54]
  0026c	e1a0e00f	 mov         lr, pc
  00270	e12fff13	 bx          r3

; 170  :     }

  00274	eaffff9e	 b           |$LN37@WriteThrea|
  00278		 |$LN6@WriteThrea|

; 156  : 				bRet = FALSE;
; 157  : 				goto CLOSE;
; 158  : 			}
; 159  : 			else
; 160  : 			{
; 161  : 				g_pKato->Log(1, TEXT("Could not write I2C port as expected\
; 162  : . No device address was specified in the command line.\r\n"));

  00278	e59f2040	 ldr         r2, [pc, #0x40]
  0027c	e1a0e00f	 mov         lr, pc
  00280	e12fff13	 bx          r3

; 163  : 				bRet = TRUE;

  00284	e3a07001	 mov         r7, #1

; 170  :     }

  00288	eaffff9a	 b           |$LN36@WriteThrea|
  0028c		 |$LN21@WriteThrea|

; 109  :     {
; 110  :         g_pKato->Log(1, TEXT("Could not open I2C port. Error = %d\r\n"), GetLastError());

  0028c	eb000000	 bl          GetLastError
  00290	e59f1024	 ldr         r1, [pc, #0x24]
  00294	e59f201c	 ldr         r2, [pc, #0x1C]
  00298	e1a03000	 mov         r3, r0
  0029c	e5914000	 ldr         r4, [r1]
  002a0	e5960000	 ldr         r0, [r6]
  002a4	e3a01001	 mov         r1, #1
  002a8	e1a0e00f	 mov         lr, pc
  002ac	e12fff14	 bx          r4

; 111  :         bRet = FALSE;

  002b0	e3a07000	 mov         r7, #0
  002b4	eaffff90	 b           |$CLOSE$32558|
  002b8		 |$LN41@WriteThrea|
  002b8		 |$LN42@WriteThrea|
  002b8	00000000	 DCD         |??_C@_1EM@CJGILEGP@?$AAC?$AAo?$AAu?$AAl?$AAd?$AA?5?$AAn?$AAo?$AAt?$AA?5?$AAo?$AAp?$AAe?$AAn?$AA?5?$AAI?$AA2?$AAC?$AA?5?$AAp?$AAo?$AAr?$AAt?$AA?4?$AA?5?$AAE?$AAr?$AAr?$AAo?$AAr?$AA?5?$AA?$DN@|
  002bc		 |$LN43@WriteThrea|
  002bc	00000000	 DCD         |__imp_?Log@CKato@@QAAHKPBGZZ|
  002c0		 |$LN44@WriteThrea|
  002c0	00000000	 DCD         |??_C@_1LK@MJDKPDNI@?$AAC?$AAo?$AAu?$AAl?$AAd?$AA?5?$AAn?$AAo?$AAt?$AA?5?$AAw?$AAr?$AAi?$AAt?$AAe?$AA?5?$AAI?$AA2?$AAC?$AA?5?$AAp?$AAo?$AAr?$AAt?$AA?5?$AAa?$AAs?$AA?5?$AAe?$AAx?$AAp?$AAe@|
  002c4		 |$LN45@WriteThrea|
  002c4	00000000	 DCD         |??_C@_1DI@OHOMLPLM@?$AAC?$AAo?$AAu?$AAl?$AAd?$AA?5?$AAn?$AAo?$AAt?$AA?5?$AAw?$AAr?$AAi?$AAt?$AAe?$AA?5?$AAI?$AA2?$AAC?$AA?5?$AAp?$AAo?$AAr?$AAt?$AA?4?$AA?$AN?$AA?6?$AA?$AA@|
  002c8		 |$LN46@WriteThrea|
  002c8	00000000	 DCD         |?g_Writes@@3KA|
  002cc		 |$LN47@WriteThrea|
  002cc	00000000	 DCD         |??_C@_1FE@CHMBLGPN@?$AAC?$AAo?$AAu?$AAl?$AAd?$AA?5?$AAn?$AAo?$AAt?$AA?5?$AAs?$AAe?$AAt?$AA?5?$AAs?$AAu?$AAb?$AA?5?$AAA?$AAd?$AAd?$AAr?$AA?5?$AAm?$AAo?$AAd?$AAe?$AA?4?$AA?5?$AAE?$AAr?$AAr@|
  002d0		 |$LN48@WriteThrea|
  002d0	00000000	 DCD         |?g_SubAddressMode@@3KA|
  002d4		 |$LN49@WriteThrea|
  002d4	00000000	 DCD         |??_C@_1FI@HJHEAOMK@?$AAC?$AAo?$AAu?$AAl?$AAd?$AA?5?$AAn?$AAo?$AAt?$AA?5?$AAs?$AAe?$AAt?$AA?5?$AAb?$AAa?$AAu?$AAd?$AA?5?$AAr?$AAa?$AAt?$AAe?$AA?5?$AAs?$AAp?$AAe?$AAe?$AAd?$AA?4?$AA?5?$AAE@|
  002d8		 |$LN50@WriteThrea|
  002d8	00000000	 DCD         |?g_BaudRateIndex@@3KA|
  002dc		 |$LN51@WriteThrea|
  002dc	00000000	 DCD         |??_C@_1CK@NLHJNDEG@?$AAC?$AAl?$AAo?$AAs?$AAi?$AAn?$AAg?$AA?5?$AAT?$AAh?$AAr?$AAe?$AAa?$AAd?$AA?5?$AA?$CF?$AAd?$AA?5?$AA?$AN?$AA?6?$AA?$AA@|
  002e0		 |$LN52@WriteThrea|
  002e0	00000000	 DCD         |?g_Fail@@3HA|
  002e4		 |$LN53@WriteThrea|
  002e4	00000000	 DCD         |??_C@_1CG@NCKKNNEK@?$AAT?$AAh?$AAr?$AAe?$AAa?$AAd?$AA?5?$AA?$CF?$AAd?$AA?5?$AAf?$AAa?$AAi?$AAl?$AAe?$AAd?$AA?$AN?$AA?6?$AA?$AA@|
  002e8		 |$LN54@WriteThrea|
  002e8	00000000	 DCD         |??_C@_1FE@NNLCOGEJ@?$AAC?$AAo?$AAu?$AAl?$AAd?$AA?5?$AAn?$AAo?$AAt?$AA?5?$AAs?$AAe?$AAt?$AA?5?$AAs?$AAl?$AAa?$AAv?$AAe?$AA?5?$AAa?$AAd?$AAd?$AAr?$AAe?$AAs?$AAs?$AA?4?$AA?5?$AAE?$AAr?$AAr@|
  002ec		 |$LN55@WriteThrea|
  002ec	00000000	 DCD         |?g_Address@@3KA|
  002f0		 |$LN56@WriteThrea|
  002f0	00000000	 DCD         |??_C@_1EM@GJJDPBGB@?$AAF?$AAa?$AAi?$AAl?$AAu?$AAr?$AAe?$AA?5?$AAi?$AAn?$AA?5?$AAT?$AAh?$AAr?$AAe?$AAa?$AAd?$AA?5?$AA?$CF?$AAd?$AA?4?$AA?5?$AAO?$AAu?$AAt?$AA?5?$AAo?$AAf?$AA?5?$AAm?$AAe?$AAm@|
  002f4		 |$LN57@WriteThrea|
  002f4	00000000	 DCD         |?g_BufferSize@@3KA|
  002f8		 |$LN58@WriteThrea|
  002f8	00000000	 DCD         |??_C@_1DC@FOPDDBKF@?$AAS?$AAt?$AAa?$AAr?$AAt?$AAi?$AAn?$AAg?$AA?5?$AAI?$AA2?$AAc?$AA?5?$AAT?$AAh?$AAr?$AAe?$AAa?$AAd?$AA?5?$AA?$CF?$AAd?$AA?$AN?$AA?6?$AA?$AA@|
  002fc		 |$LN59@WriteThrea|
  002fc	00000000	 DCD         |?g_pKato@@3PAVCKato@@A|
  00300		 |$M32649|

			 ENDP  ; |?WriteThread@@YAKPAX@Z|, WriteThread

	EXPORT	|?TestI2CMultipleInstances@@YAHIPAKPAU_FUNCTION_TABLE_ENTRY@@@Z| ; TestI2CMultipleInstances
	EXPORT	|??_C@_1CE@JJCAOEMP@?$AAE?$AAn?$AAd?$AAi?$AAn?$AAg?$AA?5?$AAI?$AA2?$AAC?$AAT?$AAe?$AAs?$AAt?$AA?5?$AA?$AN?$AA?6?$AA?$AA@| [ DATA ] ; `string'
	EXPORT	|??_C@_1EE@FLEMGJLK@?$AAF?$AAa?$AAi?$AAl?$AAu?$AAr?$AAe?$AA?5?$AAi?$AAn?$AA?5?$AAw?$AAa?$AAi?$AAt?$AAi?$AAn?$AAg?$AA?5?$AAf?$AAo?$AAr?$AA?5?$AAt?$AAh?$AAr?$AAe?$AAa?$AAd?$AAs?$AA?5?$AA?$AN@| [ DATA ] ; `string'
	EXPORT	|??_C@_1CI@DADHNEGA@?$AAS?$AAt?$AAa?$AAr?$AAt?$AAi?$AAn?$AAg?$AA?5?$AAI?$AA2?$AAC?$AAT?$AAe?$AAs?$AAt?$AA?5?$AA?$AN?$AA?6?$AA?$AA@| [ DATA ] ; `string'
	EXPORT	|??_C@_1CI@MPJMDFJC@?$AAU?$AAs?$AAi?$AAn?$AAg?$AA?5?$AAI?$AA2?$AAC?$AA?5?$AAp?$AAo?$AAr?$AAt?$AA?5?$AA?$CF?$AAd?$AA?$AN?$AA?6?$AA?$AA@| [ DATA ] ; `string'
	EXPORT	|??_C@_1HA@NDPBBFJH@?$AAC?$AAr?$AAe?$AAa?$AAt?$AAi?$AAn?$AAg?$AA?5?$AA?$CF?$AAd?$AA?5?$AAt?$AAh?$AAr?$AAe?$AAa?$AAd?$AAs?$AA?5?$AAt?$AAh?$AAa?$AAt?$AA?5?$AAw?$AAi?$AAl?$AAl?$AA?5?$AAw?$AAr@| [ DATA ] ; `string'
	IMPORT	|WaitForSingleObject|
	IMPORT	|CreateThread|
	IMPORT	|?g_NbThreads@@3KA|			; g_NbThreads
	IMPORT	|?g_Port@@3KA|				; g_Port

  00000			 AREA	 |.pdata|, PDATA
|$T32689| DCD	|$LN20@TestI2CMul|
	DCD	0x40007202

  00000			 AREA	 |.rdata|, DATA, READONLY
|??_C@_1CE@JJCAOEMP@?$AAE?$AAn?$AAd?$AAi?$AAn?$AAg?$AA?5?$AAI?$AA2?$AAC?$AAT?$AAe?$AAs?$AAt?$AA?5?$AA?$AN?$AA?6?$AA?$AA@| DCB "E"
	DCB	0x0, "n", 0x0, "d", 0x0, "i", 0x0, "n", 0x0, "g", 0x0, " "
	DCB	0x0, "I", 0x0, "2", 0x0, "C", 0x0, "T", 0x0, "e", 0x0, "s"
	DCB	0x0, "t", 0x0, " ", 0x0, 0xd, 0x0, 0xa, 0x0, 0x0, 0x0 ; `string'

  00000			 AREA	 |.rdata|, DATA, READONLY
|??_C@_1EE@FLEMGJLK@?$AAF?$AAa?$AAi?$AAl?$AAu?$AAr?$AAe?$AA?5?$AAi?$AAn?$AA?5?$AAw?$AAa?$AAi?$AAt?$AAi?$AAn?$AAg?$AA?5?$AAf?$AAo?$AAr?$AA?5?$AAt?$AAh?$AAr?$AAe?$AAa?$AAd?$AAs?$AA?5?$AA?$AN@| DCB "F"
	DCB	0x0, "a", 0x0, "i", 0x0, "l", 0x0, "u", 0x0, "r", 0x0, "e"
	DCB	0x0, " ", 0x0, "i", 0x0, "n", 0x0, " ", 0x0, "w", 0x0, "a"
	DCB	0x0, "i", 0x0, "t", 0x0, "i", 0x0, "n", 0x0, "g", 0x0, " "
	DCB	0x0, "f", 0x0, "o", 0x0, "r", 0x0, " ", 0x0, "t", 0x0, "h"
	DCB	0x0, "r", 0x0, "e", 0x0, "a", 0x0, "d", 0x0, "s", 0x0, " "
	DCB	0x0, 0xd, 0x0, 0xa, 0x0, 0x0, 0x0	; `string'

  00000			 AREA	 |.rdata|, DATA, READONLY
|??_C@_1CI@DADHNEGA@?$AAS?$AAt?$AAa?$AAr?$AAt?$AAi?$AAn?$AAg?$AA?5?$AAI?$AA2?$AAC?$AAT?$AAe?$AAs?$AAt?$AA?5?$AA?$AN?$AA?6?$AA?$AA@| DCB "S"
	DCB	0x0, "t", 0x0, "a", 0x0, "r", 0x0, "t", 0x0, "i", 0x0, "n"
	DCB	0x0, "g", 0x0, " ", 0x0, "I", 0x0, "2", 0x0, "C", 0x0, "T"
	DCB	0x0, "e", 0x0, "s", 0x0, "t", 0x0, " ", 0x0, 0xd, 0x0, 0xa
	DCB	0x0, 0x0, 0x0				; `string'

  00000			 AREA	 |.rdata|, DATA, READONLY
|??_C@_1CI@MPJMDFJC@?$AAU?$AAs?$AAi?$AAn?$AAg?$AA?5?$AAI?$AA2?$AAC?$AA?5?$AAp?$AAo?$AAr?$AAt?$AA?5?$AA?$CF?$AAd?$AA?$AN?$AA?6?$AA?$AA@| DCB "U"
	DCB	0x0, "s", 0x0, "i", 0x0, "n", 0x0, "g", 0x0, " ", 0x0, "I"
	DCB	0x0, "2", 0x0, "C", 0x0, " ", 0x0, "p", 0x0, "o", 0x0, "r"
	DCB	0x0, "t", 0x0, " ", 0x0, "%", 0x0, "d", 0x0, 0xd, 0x0, 0xa
	DCB	0x0, 0x0, 0x0				; `string'

  00000			 AREA	 |.rdata|, DATA, READONLY
|??_C@_1HA@NDPBBFJH@?$AAC?$AAr?$AAe?$AAa?$AAt?$AAi?$AAn?$AAg?$AA?5?$AA?$CF?$AAd?$AA?5?$AAt?$AAh?$AAr?$AAe?$AAa?$AAd?$AAs?$AA?5?$AAt?$AAh?$AAa?$AAt?$AA?5?$AAw?$AAi?$AAl?$AAl?$AA?5?$AAw?$AAr@| DCB "C"
	DCB	0x0, "r", 0x0, "e", 0x0, "a", 0x0, "t", 0x0, "i", 0x0, "n"
	DCB	0x0, "g", 0x0, " ", 0x0, "%", 0x0, "d", 0x0, " ", 0x0, "t"
	DCB	0x0, "h", 0x0, "r", 0x0, "e", 0x0, "a", 0x0, "d", 0x0, "s"
	DCB	0x0, " ", 0x0, "t", 0x0, "h", 0x0, "a", 0x0, "t", 0x0, " "
	DCB	0x0, "w", 0x0, "i", 0x0, "l", 0x0, "l", 0x0, " ", 0x0, "w"
	DCB	0x0, "r", 0x0, "i", 0x0, "t", 0x0, "e", 0x0, " ", 0x0, "%"
	DCB	0x0, "d", 0x0, " ", 0x0, "b", 0x0, "y", 0x0, "t", 0x0, "e"
	DCB	0x0, "s", 0x0, " ", 0x0, "%", 0x0, "d", 0x0, " ", 0x0, "t"
	DCB	0x0, "i", 0x0, "m", 0x0, "e", 0x0, "s", 0x0, 0xd, 0x0, 0xa
	DCB	0x0, 0x0, 0x0				; `string'
; Function compile flags: /Ogspy

  00000			 AREA	 |.text|, CODE, ARM

  00000		 |?TestI2CMultipleInstances@@YAHIPAKPAU_FUNCTION_TABLE_ENTRY@@@Z| PROC ; TestI2CMultipleInstances

; 36   : {

  00000		 |$LN20@TestI2CMul|
  00000	e92d47f0	 stmdb       sp!, {r4 - r10, lr}
  00004	e24dd008	 sub         sp, sp, #8
  00008		 |$M32686|

; 37   :     HANDLE *ThreadHandles = NULL;
; 38   :     DWORD *ThreadId = NULL;
; 39   :     g_pKato->Log(1, TEXT("Starting I2CTest \r\n"));

  00008	e59f91b4	 ldr         r9, [pc, #0x1B4]
  0000c	e59f3188	 ldr         r3, [pc, #0x188]
  00010	e59f21a8	 ldr         r2, [pc, #0x1A8]
  00014	e5990000	 ldr         r0, [r9]
  00018	e5933000	 ldr         r3, [r3]
  0001c	e3a01001	 mov         r1, #1
  00020	e1a0e00f	 mov         lr, pc
  00024	e12fff13	 bx          r3

; 40   : 
; 41   :     g_pKato->Log(1, TEXT("Using I2C port %d\r\n"), g_Port);

  00028	e59f116c	 ldr         r1, [pc, #0x16C]
  0002c	e59f3188	 ldr         r3, [pc, #0x188]
  00030	e59f2180	 ldr         r2, [pc, #0x180]
  00034	e5914000	 ldr         r4, [r1]
  00038	e5933000	 ldr         r3, [r3]
  0003c	e5990000	 ldr         r0, [r9]
  00040	e3a01001	 mov         r1, #1
  00044	e1a0e00f	 mov         lr, pc
  00048	e12fff14	 bx          r4

; 42   :     g_pKato->Log(1, TEXT("Creating %d threads that will write %d bytes %d times\r\n"), g_NbThreads, g_BufferSize, g_Writes);

  0004c	e59f2160	 ldr         r2, [pc, #0x160]
  00050	e59f3158	 ldr         r3, [pc, #0x158]
  00054	e59f7150	 ldr         r7, [pc, #0x150]
  00058	e5921000	 ldr         r1, [r2]
  0005c	e59fe138	 ldr         lr, [pc, #0x138]
  00060	e5935000	 ldr         r5, [r3]
  00064	e5973000	 ldr         r3, [r7]
  00068	e59f2138	 ldr         r2, [pc, #0x138]
  0006c	e5990000	 ldr         r0, [r9]
  00070	e59e4000	 ldr         r4, [lr]
  00074	e58d1000	 str         r1, [sp]
  00078	e3a01001	 mov         r1, #1
  0007c	e58d5004	 str         r5, [sp, #4]
  00080	e1a0e00f	 mov         lr, pc
  00084	e12fff14	 bx          r4

; 43   : 
; 44   :     ThreadHandles = (HANDLE*)LocalAlloc(LPTR, sizeof(HANDLE)*g_NbThreads);

  00088	e5973000	 ldr         r3, [r7]
  0008c	e3a00040	 mov         r0, #0x40
  00090	e1a01103	 mov         r1, r3, lsl #2
  00094	eb000000	 bl          LocalAlloc

; 45   :     ThreadId = (DWORD*)LocalAlloc(LPTR, sizeof(DWORD)*g_NbThreads);

  00098	e5973000	 ldr         r3, [r7]
  0009c	e1a05000	 mov         r5, r0
  000a0	e3a00040	 mov         r0, #0x40
  000a4	e1a01103	 mov         r1, r3, lsl #2
  000a8	eb000000	 bl          LocalAlloc

; 46   : 
; 47   :     for(DWORD i = 0; i < g_NbThreads; i++)

  000ac	e5973000	 ldr         r3, [r7]
  000b0	e1a04000	 mov         r4, r0
  000b4	e3a06000	 mov         r6, #0
  000b8	e3530000	 cmp         r3, #0
  000bc	0a00000f	 beq         |$LN8@TestI2CMul|
  000c0	e0458004	 sub         r8, r5, r4
  000c4	e3a0a000	 mov         r10, #0
  000c8		 |$LL10@TestI2CMul|

; 48   :     {
; 49   :         ThreadId[i] = i;
; 50   :         //g_pKato->Log(1, TEXT("Starting thread %d \r\n"), i);
; 51   :         ThreadHandles[i] = CreateThread(NULL, FALSE, (LPTHREAD_START_ROUTINE) WriteThread, &ThreadId[i], 0, NULL);

  000c8	e59f20d4	 ldr         r2, [pc, #0xD4]
  000cc	e1a03004	 mov         r3, r4
  000d0	e3a01000	 mov         r1, #0
  000d4	e3a00000	 mov         r0, #0
  000d8	e5846000	 str         r6, [r4]
  000dc	e58da004	 str         r10, [sp, #4]
  000e0	e58da000	 str         r10, [sp]
  000e4	eb000000	 bl          CreateThread
  000e8	e7880004	 str         r0, [r8, +r4]
  000ec	e5973000	 ldr         r3, [r7]
  000f0	e2866001	 add         r6, r6, #1
  000f4	e2844004	 add         r4, r4, #4
  000f8	e1560003	 cmp         r6, r3
  000fc	3afffff1	 bcc         |$LL10@TestI2CMul|
  00100		 |$LN8@TestI2CMul|

; 52   :     }
; 53   : 
; 54   :     for(DWORD i = 0; i < g_NbThreads; i++)

  00100	e3a04000	 mov         r4, #0
  00104	e3530000	 cmp         r3, #0
  00108	0a000012	 beq         |$CLOSE$32539|
  0010c		 |$LL7@TestI2CMul|

; 55   :     {
; 56   :         DWORD dwRet = 0;
; 57   :         dwRet = WaitForSingleObject(ThreadHandles[i], INFINITE);

  0010c	e5950000	 ldr         r0, [r5]
  00110	e3e01000	 mvn         r1, #0
  00114	eb000000	 bl          WaitForSingleObject

; 58   :         if(dwRet == WAIT_FAILED)

  00118	e3700001	 cmn         r0, #1
  0011c	0a000005	 beq         |$LN15@TestI2CMul|
  00120	e5973000	 ldr         r3, [r7]
  00124	e2844001	 add         r4, r4, #1
  00128	e2855004	 add         r5, r5, #4
  0012c	e1540003	 cmp         r4, r3
  00130	3afffff5	 bcc         |$LL7@TestI2CMul|
  00134	ea000007	 b           |$CLOSE$32539|
  00138		 |$LN15@TestI2CMul|

; 59   :         {
; 60   :             g_pKato->Log(1, TEXT("Failure in waiting for threads \r\n"), dwRet-WAIT_OBJECT_0);

  00138	e59f105c	 ldr         r1, [pc, #0x5C]
  0013c	e59f205c	 ldr         r2, [pc, #0x5C]
  00140	e5990000	 ldr         r0, [r9]
  00144	e5914000	 ldr         r4, [r1]
  00148	e3a01001	 mov         r1, #1
  0014c	e3e03000	 mvn         r3, #0
  00150	e1a0e00f	 mov         lr, pc
  00154	e12fff14	 bx          r4
  00158		 |$CLOSE$32539|

; 61   :             goto CLOSE;
; 62   :         }
; 63   :     }
; 64   : 
; 65   : CLOSE:
; 66   :     g_pKato->Log(1, TEXT("Ending I2CTest \r\n"));

  00158	e59f303c	 ldr         r3, [pc, #0x3C]
  0015c	e59f2034	 ldr         r2, [pc, #0x34]
  00160	e5990000	 ldr         r0, [r9]
  00164	e5933000	 ldr         r3, [r3]
  00168	e3a01001	 mov         r1, #1
  0016c	e1a0e00f	 mov         lr, pc
  00170	e12fff13	 bx          r3

; 67   :     if(g_Fail == TRUE)

  00174	e59f3018	 ldr         r3, [pc, #0x18]
  00178	e5933000	 ldr         r3, [r3]
  0017c	e3530001	 cmp         r3, #1

; 68   :     {
; 69   :         return TPR_FAIL;

  00180	03a00004	 moveq       r0, #4

; 70   :     }
; 71   :     else
; 72   :     {
; 73   :         return TPR_PASS;

  00184	13a00003	 movne       r0, #3

; 74   :     }
; 75   : }

  00188	e28dd008	 add         sp, sp, #8
  0018c	e8bd47f0	 ldmia       sp!, {r4 - r10, lr}
  00190	e12fff1e	 bx          lr
  00194		 |$LN21@TestI2CMul|
  00194		 |$LN22@TestI2CMul|
  00194	00000000	 DCD         |?g_Fail@@3HA|
  00198		 |$LN23@TestI2CMul|
  00198	00000000	 DCD         |??_C@_1CE@JJCAOEMP@?$AAE?$AAn?$AAd?$AAi?$AAn?$AAg?$AA?5?$AAI?$AA2?$AAC?$AAT?$AAe?$AAs?$AAt?$AA?5?$AA?$AN?$AA?6?$AA?$AA@|
  0019c		 |$LN24@TestI2CMul|
  0019c	00000000	 DCD         |__imp_?Log@CKato@@QAAHKPBGZZ|
  001a0		 |$LN25@TestI2CMul|
  001a0	00000000	 DCD         |??_C@_1EE@FLEMGJLK@?$AAF?$AAa?$AAi?$AAl?$AAu?$AAr?$AAe?$AA?5?$AAi?$AAn?$AA?5?$AAw?$AAa?$AAi?$AAt?$AAi?$AAn?$AAg?$AA?5?$AAf?$AAo?$AAr?$AA?5?$AAt?$AAh?$AAr?$AAe?$AAa?$AAd?$AAs?$AA?5?$AA?$AN@|
  001a4		 |$LN26@TestI2CMul|
  001a4	00000000	 DCD         |?WriteThread@@YAKPAX@Z|
  001a8		 |$LN27@TestI2CMul|
  001a8	00000000	 DCD         |??_C@_1HA@NDPBBFJH@?$AAC?$AAr?$AAe?$AAa?$AAt?$AAi?$AAn?$AAg?$AA?5?$AA?$CF?$AAd?$AA?5?$AAt?$AAh?$AAr?$AAe?$AAa?$AAd?$AAs?$AA?5?$AAt?$AAh?$AAa?$AAt?$AA?5?$AAw?$AAi?$AAl?$AAl?$AA?5?$AAw?$AAr@|
  001ac		 |$LN28@TestI2CMul|
  001ac	00000000	 DCD         |?g_NbThreads@@3KA|
  001b0		 |$LN29@TestI2CMul|
  001b0	00000000	 DCD         |?g_Writes@@3KA|
  001b4		 |$LN30@TestI2CMul|
  001b4	00000000	 DCD         |?g_BufferSize@@3KA|
  001b8		 |$LN31@TestI2CMul|
  001b8	00000000	 DCD         |??_C@_1CI@MPJMDFJC@?$AAU?$AAs?$AAi?$AAn?$AAg?$AA?5?$AAI?$AA2?$AAC?$AA?5?$AAp?$AAo?$AAr?$AAt?$AA?5?$AA?$CF?$AAd?$AA?$AN?$AA?6?$AA?$AA@|
  001bc		 |$LN32@TestI2CMul|
  001bc	00000000	 DCD         |?g_Port@@3KA|
  001c0		 |$LN33@TestI2CMul|
  001c0	00000000	 DCD         |??_C@_1CI@DADHNEGA@?$AAS?$AAt?$AAa?$AAr?$AAt?$AAi?$AAn?$AAg?$AA?5?$AAI?$AA2?$AAC?$AAT?$AAe?$AAs?$AAt?$AA?5?$AA?$AN?$AA?6?$AA?$AA@|
  001c4		 |$LN34@TestI2CMul|
  001c4	00000000	 DCD         |?g_pKato@@3PAVCKato@@A|
  001c8		 |$M32687|

			 ENDP  ; |?TestI2CMultipleInstances@@YAHIPAKPAU_FUNCTION_TABLE_ENTRY@@@Z|, TestI2CMultipleInstances

	END
