; Listing generated by Microsoft (R) Optimizing Compiler Version 14.01.60511.01 

	TTL	C:\WINCE600\PLATFORM\Z2170P\SRC\test\Tux_I2C\tux_i2c_OMAP3530_BSP.cpp
	CODE32

  00000			 AREA	 |.drectve|, DRECTVE
	DCB	"-defaultlib:LIBCMT "
	DCB	"-defaultlib:OLDNAMES "

	EXPORT	|?g_BufferSize@@3KA| [ DATA ]		; g_BufferSize
	EXPORT	|?g_NbThreads@@3KA| [ DATA ]		; g_NbThreads
	EXPORT	|?g_Writes@@3KA| [ DATA ]		; g_Writes
	EXPORT	|?g_Address@@3KA| [ DATA ]		; g_Address
	EXPORT	|?g_Port@@3KA| [ DATA ]			; g_Port
	EXPORT	|?g_BaudRateIndex@@3KA| [ DATA ]	; g_BaudRateIndex
	EXPORT	|?g_SubAddressMode@@3KA| [ DATA ]	; g_SubAddressMode

  00000			 AREA	 |.data|, DATA
|?g_BufferSize@@3KA| DCD 0x2				; g_BufferSize
|?g_NbThreads@@3KA| DCD 0x1e				; g_NbThreads
|?g_Writes@@3KA| DCD 0x14				; g_Writes
|?g_Address@@3KA| DCD 0xff				; g_Address
|?g_Port@@3KA| DCD 0x2					; g_Port
|?g_BaudRateIndex@@3KA| DCD 0xff			; g_BaudRateIndex
|?g_SubAddressMode@@3KA| DCD 0xff			; g_SubAddressMode
	EXPORT	|__$ArrayPad$| [ DATA ]
	EXPORT	|?Platform_Open@@YAPAXXZ|		; Platform_Open
	EXPORT	|??_C@_1O@PBFBKDAK@?$AAI?$AA2?$AAC?$AA?$CF?$AAd?$AA?3?$AA?$AA@| [ DATA ] ; `string'
	EXPORT	|??_C@_1DC@DHGECIKF@?$AAI?$AA2?$AAC?$AA?3?$AA?5?$AAo?$AAp?$AAe?$AAn?$AA?5?$AAr?$AAe?$AAt?$AA?5?$AAv?$AAa?$AAl?$AAu?$AAe?$AA?5?$AA?$CF?$AAd?$AA?$AN?$AA?6?$AA?$AA@| [ DATA ] ; `string'
	IMPORT	|?g_pKato@@3PAVCKato@@A|		; g_pKato
	IMPORT	|CreateFileW|
	IMPORT	|swprintf|
	IMPORT	|__GSHandlerCheck|
	IMPORT	|__security_cookie|
	IMPORT	|__imp_?Log@CKato@@QAAHKPBGZZ|
	IMPORT	|__security_check_cookie|
; File c:\wince600\platform\z2170p\src\test\tux_i2c\tux_i2c_omap3530_bsp.cpp

  00000			 AREA	 |.pdata|, PDATA
|$T32594| DCD	|$LN5@Platform_O|
	DCD	0xc0002a02

  00000			 AREA	 |.xdata|, DATA
|$T32590| DCD	0xfffffff0

  00000			 AREA	 |.rdata|, DATA, READONLY
|??_C@_1O@PBFBKDAK@?$AAI?$AA2?$AAC?$AA?$CF?$AAd?$AA?3?$AA?$AA@| DCB "I", 0x0
	DCB	"2", 0x0, "C", 0x0, "%", 0x0, "d", 0x0, ":", 0x0, 0x0, 0x0 ; `string'

  00000			 AREA	 |.rdata|, DATA, READONLY
|??_C@_1DC@DHGECIKF@?$AAI?$AA2?$AAC?$AA?3?$AA?5?$AAo?$AAp?$AAe?$AAn?$AA?5?$AAr?$AAe?$AAt?$AA?5?$AAv?$AAa?$AAl?$AAu?$AAe?$AA?5?$AA?$CF?$AAd?$AA?$AN?$AA?6?$AA?$AA@| DCB "I"
	DCB	0x0, "2", 0x0, "C", 0x0, ":", 0x0, " ", 0x0, "o", 0x0, "p"
	DCB	0x0, "e", 0x0, "n", 0x0, " ", 0x0, "r", 0x0, "e", 0x0, "t"
	DCB	0x0, " ", 0x0, "v", 0x0, "a", 0x0, "l", 0x0, "u", 0x0, "e"
	DCB	0x0, " ", 0x0, "%", 0x0, "d", 0x0, 0xd, 0x0, 0xa, 0x0, 0x0
	DCB	0x0					; `string'
; Function compile flags: /Ogspy

  00000			 AREA	 |.text|, CODE, ARM

  00000	00000000	 DCD         |__GSHandlerCheck|
  00004	00000000	 DCD         |$T32590|

  00008		 |?Platform_Open@@YAPAXXZ| PROC		; Platform_Open

; 34   : {

  00008		 |$LN5@Platform_O|
  00008	e92d4030	 stmdb       sp!, {r4, r5, lr}
  0000c	e24dd020	 sub         sp, sp, #0x20
  00010		 |$M32591|
  00010	e59f3094	 ldr         r3, [pc, #0x94]
  00014	e5933000	 ldr         r3, [r3]
  00018	e58d301c	 str         r3, [sp, #0x1C]

; 35   : 	wchar_t DeviceName[8];
; 36   : 	HANDLE ret;
; 37   : 
; 38   : 	//Open I2C port
; 39   :     swprintf(DeviceName, TEXT("I2C%d:"), g_Port);

  0001c	e59f3084	 ldr         r3, [pc, #0x84]
  00020	e59f107c	 ldr         r1, [pc, #0x7C]
  00024	e28d000c	 add         r0, sp, #0xC
  00028	e5932000	 ldr         r2, [r3]
  0002c	eb000000	 bl          swprintf

; 40   :     ret = CreateFile(DeviceName, GENERIC_READ | GENERIC_WRITE, FILE_SHARE_READ | FILE_SHARE_WRITE, NULL, OPEN_EXISTING, 0, NULL);

  00030	e3a03003	 mov         r3, #3
  00034	e58d3000	 str         r3, [sp]
  00038	e3a0e000	 mov         lr, #0
  0003c	e3a03000	 mov         r3, #0
  00040	e3a02003	 mov         r2, #3
  00044	e3a01103	 mov         r1, #3, 2
  00048	e28d000c	 add         r0, sp, #0xC
  0004c	e58de008	 str         lr, [sp, #8]
  00050	e58de004	 str         lr, [sp, #4]
  00054	eb000000	 bl          CreateFileW

; 41   : 	g_pKato->Log(1, TEXT("I2C: open ret value %d\r\n"), ret);

  00058	e59f3040	 ldr         r3, [pc, #0x40]
  0005c	e59f2038	 ldr         r2, [pc, #0x38]
  00060	e1a05000	 mov         r5, r0
  00064	e5930000	 ldr         r0, [r3]
  00068	e5924000	 ldr         r4, [r2]
  0006c	e59f2024	 ldr         r2, [pc, #0x24]
  00070	e1a03005	 mov         r3, r5
  00074	e3a01001	 mov         r1, #1
  00078	e1a0e00f	 mov         lr, pc
  0007c	e12fff14	 bx          r4

; 42   : 	return ret;

  00080	e59d001c	 ldr         r0, [sp, #0x1C]
  00084	eb000000	 bl          __security_check_cookie

; 43   : }

  00088	e1a00005	 mov         r0, r5
  0008c	e28dd020	 add         sp, sp, #0x20
  00090	e8bd4030	 ldmia       sp!, {r4, r5, lr}
  00094	e12fff1e	 bx          lr
  00098		 |$LN6@Platform_O|
  00098		 |$LN7@Platform_O|
  00098	00000000	 DCD         |??_C@_1DC@DHGECIKF@?$AAI?$AA2?$AAC?$AA?3?$AA?5?$AAo?$AAp?$AAe?$AAn?$AA?5?$AAr?$AAe?$AAt?$AA?5?$AAv?$AAa?$AAl?$AAu?$AAe?$AA?5?$AA?$CF?$AAd?$AA?$AN?$AA?6?$AA?$AA@|
  0009c		 |$LN8@Platform_O|
  0009c	00000000	 DCD         |__imp_?Log@CKato@@QAAHKPBGZZ|
  000a0		 |$LN9@Platform_O|
  000a0	00000000	 DCD         |?g_pKato@@3PAVCKato@@A|
  000a4		 |$LN10@Platform_O|
  000a4	00000000	 DCD         |??_C@_1O@PBFBKDAK@?$AAI?$AA2?$AAC?$AA?$CF?$AAd?$AA?3?$AA?$AA@|
  000a8		 |$LN11@Platform_O|
  000a8	00000000	 DCD         |?g_Port@@3KA|
  000ac		 |$LN12@Platform_O|
  000ac	00000000	 DCD         |__security_cookie|
  000b0		 |$M32592|

			 ENDP  ; |?Platform_Open@@YAPAXXZ|, Platform_Open

	EXPORT	|?Platform_Close@@YAXPAX@Z|		; Platform_Close
	IMPORT	|CloseHandle|

  00000			 AREA	 |.pdata|, PDATA
|$T32610| DCD	|$LN5@Platform_C|
	DCD	0x40000401
; Function compile flags: /Ogspy

  00000			 AREA	 |.text|, CODE, ARM

  00000		 |?Platform_Close@@YAXPAX@Z| PROC	; Platform_Close

; 46   : {

  00000		 |$LN5@Platform_C|
  00000	e52de004	 str         lr, [sp, #-4]!
  00004		 |$M32607|

; 47   : 	CloseHandle(hI2C);

  00004	eb000000	 bl          CloseHandle

; 48   : }

  00008	e49de004	 ldr         lr, [sp], #4
  0000c	e12fff1e	 bx          lr
  00010		 |$M32608|

			 ENDP  ; |?Platform_Close@@YAXPAX@Z|, Platform_Close

	EXPORT	|?Platform_setSlaveAddress@@YAHPAX@Z|	; Platform_setSlaveAddress
	EXPORT	|??_C@_1EA@DBIOIDPC@?$AAC?$AAo?$AAu?$AAl?$AAd?$AA?5?$AAn?$AAo?$AAt?$AA?5?$AAs?$AAe?$AAt?$AA?5?$AAs?$AAl?$AAa?$AAv?$AAe?$AA?5?$AAa?$AAd?$AAd?$AAr?$AAe?$AAs?$AAs?$AA?4?$AA?5?$AA?$AN?$AA?6?$AA?$AA@| [ DATA ] ; `string'
	IMPORT	|DeviceIoControl|

  00000			 AREA	 |.pdata|, PDATA
|$T32620| DCD	|$LN6@Platform_s|
	DCD	0x40002002

  00000			 AREA	 |.rdata|, DATA, READONLY
|??_C@_1EA@DBIOIDPC@?$AAC?$AAo?$AAu?$AAl?$AAd?$AA?5?$AAn?$AAo?$AAt?$AA?5?$AAs?$AAe?$AAt?$AA?5?$AAs?$AAl?$AAa?$AAv?$AAe?$AA?5?$AAa?$AAd?$AAd?$AAr?$AAe?$AAs?$AAs?$AA?4?$AA?5?$AA?$AN?$AA?6?$AA?$AA@| DCB "C"
	DCB	0x0, "o", 0x0, "u", 0x0, "l", 0x0, "d", 0x0, " ", 0x0, "n"
	DCB	0x0, "o", 0x0, "t", 0x0, " ", 0x0, "s", 0x0, "e", 0x0, "t"
	DCB	0x0, " ", 0x0, "s", 0x0, "l", 0x0, "a", 0x0, "v", 0x0, "e"
	DCB	0x0, " ", 0x0, "a", 0x0, "d", 0x0, "d", 0x0, "r", 0x0, "e"
	DCB	0x0, "s", 0x0, "s", 0x0, ".", 0x0, " ", 0x0, 0xd, 0x0, 0xa
	DCB	0x0, 0x0, 0x0				; `string'
; Function compile flags: /Ogspy

  00000			 AREA	 |.text|, CODE, ARM

  00000		 |?Platform_setSlaveAddress@@YAHPAX@Z| PROC ; Platform_setSlaveAddress

; 51   : {

  00000		 |$LN6@Platform_s|
  00000	e52de004	 str         lr, [sp, #-4]!
  00004	e24dd010	 sub         sp, sp, #0x10
  00008		 |$M32617|

; 52   :     if(!DeviceIoControl(hI2C, IOCTL_I2C_SET_SLAVE_ADDRESS,&g_Address,sizeof(g_Address),NULL,0,NULL,NULL) )

  00008	e59f206c	 ldr         r2, [pc, #0x6C]
  0000c	e3a03822	 mov         r3, #0x22, 16
  00010	e3831b02	 orr         r1, r3, #2, 22
  00014	e3a0e000	 mov         lr, #0
  00018	e3a03004	 mov         r3, #4
  0001c	e58de00c	 str         lr, [sp, #0xC]
  00020	e58de008	 str         lr, [sp, #8]
  00024	e58de004	 str         lr, [sp, #4]
  00028	e58de000	 str         lr, [sp]
  0002c	eb000000	 bl          DeviceIoControl
  00030	e3500000	 cmp         r0, #0
  00034	1a000009	 bne         |$LN1@Platform_s|

; 53   :     {
; 54   : 		g_pKato->Log(1, TEXT("Could not set slave address. \r\n"));

  00038	e59f3038	 ldr         r3, [pc, #0x38]
  0003c	e59f1030	 ldr         r1, [pc, #0x30]
  00040	e59f2028	 ldr         r2, [pc, #0x28]
  00044	e5930000	 ldr         r0, [r3]
  00048	e5913000	 ldr         r3, [r1]
  0004c	e3a01001	 mov         r1, #1
  00050	e1a0e00f	 mov         lr, pc
  00054	e12fff13	 bx          r3

; 55   : 		return FALSE;

  00058	e3a00000	 mov         r0, #0
  0005c	ea000000	 b           |$LN2@Platform_s|
  00060		 |$LN1@Platform_s|

; 56   :     }
; 57   : 	return TRUE;

  00060	e3a00001	 mov         r0, #1
  00064		 |$LN2@Platform_s|

; 58   : }

  00064	e28dd010	 add         sp, sp, #0x10
  00068	e49de004	 ldr         lr, [sp], #4
  0006c	e12fff1e	 bx          lr
  00070		 |$LN7@Platform_s|
  00070		 |$LN8@Platform_s|
  00070	00000000	 DCD         |??_C@_1EA@DBIOIDPC@?$AAC?$AAo?$AAu?$AAl?$AAd?$AA?5?$AAn?$AAo?$AAt?$AA?5?$AAs?$AAe?$AAt?$AA?5?$AAs?$AAl?$AAa?$AAv?$AAe?$AA?5?$AAa?$AAd?$AAd?$AAr?$AAe?$AAs?$AAs?$AA?4?$AA?5?$AA?$AN?$AA?6?$AA?$AA@|
  00074		 |$LN9@Platform_s|
  00074	00000000	 DCD         |__imp_?Log@CKato@@QAAHKPBGZZ|
  00078		 |$LN10@Platform_s|
  00078	00000000	 DCD         |?g_pKato@@3PAVCKato@@A|
  0007c		 |$LN11@Platform_s|
  0007c	00000000	 DCD         |?g_Address@@3KA|
  00080		 |$M32618|

			 ENDP  ; |?Platform_setSlaveAddress@@YAHPAX@Z|, Platform_setSlaveAddress

	EXPORT	|?Platform_setSubAddrMode@@YAHPAX@Z|	; Platform_setSubAddrMode
	EXPORT	|??_C@_1EE@KMKJIKIO@?$AAC?$AAo?$AAu?$AAl?$AAd?$AA?5?$AAn?$AAo?$AAt?$AA?5?$AAs?$AAe?$AAt?$AA?5?$AAs?$AAu?$AAb?$AA?5?$AAA?$AAd?$AAr?$AAe?$AAs?$AAs?$AA?5?$AAM?$AAo?$AAd?$AAe?$AA?4?$AA?5?$AA?$AN@| [ DATA ] ; `string'

  00000			 AREA	 |.pdata|, PDATA
|$T32635| DCD	|$LN6@Platform_s@2|
	DCD	0x40002002

  00000			 AREA	 |.rdata|, DATA, READONLY
|??_C@_1EE@KMKJIKIO@?$AAC?$AAo?$AAu?$AAl?$AAd?$AA?5?$AAn?$AAo?$AAt?$AA?5?$AAs?$AAe?$AAt?$AA?5?$AAs?$AAu?$AAb?$AA?5?$AAA?$AAd?$AAr?$AAe?$AAs?$AAs?$AA?5?$AAM?$AAo?$AAd?$AAe?$AA?4?$AA?5?$AA?$AN@| DCB "C"
	DCB	0x0, "o", 0x0, "u", 0x0, "l", 0x0, "d", 0x0, " ", 0x0, "n"
	DCB	0x0, "o", 0x0, "t", 0x0, " ", 0x0, "s", 0x0, "e", 0x0, "t"
	DCB	0x0, " ", 0x0, "s", 0x0, "u", 0x0, "b", 0x0, " ", 0x0, "A"
	DCB	0x0, "d", 0x0, "r", 0x0, "e", 0x0, "s", 0x0, "s", 0x0, " "
	DCB	0x0, "M", 0x0, "o", 0x0, "d", 0x0, "e", 0x0, ".", 0x0, " "
	DCB	0x0, 0xd, 0x0, 0xa, 0x0, 0x0, 0x0	; `string'
; Function compile flags: /Ogspy

  00000			 AREA	 |.text|, CODE, ARM

  00000		 |?Platform_setSubAddrMode@@YAHPAX@Z| PROC ; Platform_setSubAddrMode

; 61   : {

  00000		 |$LN6@Platform_s@2|
  00000	e52de004	 str         lr, [sp, #-4]!
  00004	e24dd010	 sub         sp, sp, #0x10
  00008		 |$M32632|

; 62   : 
; 63   :     if(!DeviceIoControl(hI2C, IOCTL_I2C_SET_SUBADDRESS_MODE,&g_SubAddressMode,sizeof(g_SubAddressMode),NULL,0,NULL,NULL) )

  00008	e59f206c	 ldr         r2, [pc, #0x6C]
  0000c	e59f1064	 ldr         r1, [pc, #0x64]
  00010	e3a0e000	 mov         lr, #0
  00014	e3a03004	 mov         r3, #4
  00018	e58de00c	 str         lr, [sp, #0xC]
  0001c	e58de008	 str         lr, [sp, #8]
  00020	e58de004	 str         lr, [sp, #4]
  00024	e58de000	 str         lr, [sp]
  00028	eb000000	 bl          DeviceIoControl
  0002c	e3500000	 cmp         r0, #0
  00030	1a000009	 bne         |$LN1@Platform_s@2|

; 64   :     {
; 65   : 		g_pKato->Log(1, TEXT("Could not set sub Adress Mode. \r\n"));

  00034	e59f3038	 ldr         r3, [pc, #0x38]
  00038	e59f1030	 ldr         r1, [pc, #0x30]
  0003c	e59f2028	 ldr         r2, [pc, #0x28]
  00040	e5930000	 ldr         r0, [r3]
  00044	e5913000	 ldr         r3, [r1]
  00048	e3a01001	 mov         r1, #1
  0004c	e1a0e00f	 mov         lr, pc
  00050	e12fff13	 bx          r3

; 66   : 		return FALSE;

  00054	e3a00000	 mov         r0, #0
  00058	ea000000	 b           |$LN2@Platform_s@2|
  0005c		 |$LN1@Platform_s@2|

; 67   :     }
; 68   : 
; 69   : 	return TRUE;

  0005c	e3a00001	 mov         r0, #1
  00060		 |$LN2@Platform_s@2|

; 70   : }

  00060	e28dd010	 add         sp, sp, #0x10
  00064	e49de004	 ldr         lr, [sp], #4
  00068	e12fff1e	 bx          lr
  0006c		 |$LN7@Platform_s@2|
  0006c		 |$LN8@Platform_s@2|
  0006c	00000000	 DCD         |??_C@_1EE@KMKJIKIO@?$AAC?$AAo?$AAu?$AAl?$AAd?$AA?5?$AAn?$AAo?$AAt?$AA?5?$AAs?$AAe?$AAt?$AA?5?$AAs?$AAu?$AAb?$AA?5?$AAA?$AAd?$AAr?$AAe?$AAs?$AAs?$AA?5?$AAM?$AAo?$AAd?$AAe?$AA?4?$AA?5?$AA?$AN@|
  00070		 |$LN9@Platform_s@2|
  00070	00000000	 DCD         |__imp_?Log@CKato@@QAAHKPBGZZ|
  00074		 |$LN10@Platform_s@2|
  00074	00000000	 DCD         |?g_pKato@@3PAVCKato@@A|
  00078		 |$LN11@Platform_s@2|
  00078	00220804	 DCD         0x220804
  0007c		 |$LN12@Platform_s@2|
  0007c	00000000	 DCD         |?g_SubAddressMode@@3KA|
  00080		 |$M32633|

			 ENDP  ; |?Platform_setSubAddrMode@@YAHPAX@Z|, Platform_setSubAddrMode

	EXPORT	|?Platform_setBaudRateIndex@@YAHPAX@Z|	; Platform_setBaudRateIndex
	EXPORT	|??_C@_1EE@COBCNLCC@?$AAC?$AAo?$AAu?$AAl?$AAd?$AA?5?$AAn?$AAo?$AAt?$AA?5?$AAs?$AAe?$AAt?$AA?5?$AAb?$AAa?$AAu?$AAd?$AA?5?$AAr?$AAa?$AAt?$AAe?$AA?5?$AAs?$AAp?$AAe?$AAe?$AAd?$AA?4?$AA?5?$AA?$AN@| [ DATA ] ; `string'

  00000			 AREA	 |.pdata|, PDATA
|$T32651| DCD	|$LN6@Platform_s@3|
	DCD	0x40002002

  00000			 AREA	 |.rdata|, DATA, READONLY
|??_C@_1EE@COBCNLCC@?$AAC?$AAo?$AAu?$AAl?$AAd?$AA?5?$AAn?$AAo?$AAt?$AA?5?$AAs?$AAe?$AAt?$AA?5?$AAb?$AAa?$AAu?$AAd?$AA?5?$AAr?$AAa?$AAt?$AAe?$AA?5?$AAs?$AAp?$AAe?$AAe?$AAd?$AA?4?$AA?5?$AA?$AN@| DCB "C"
	DCB	0x0, "o", 0x0, "u", 0x0, "l", 0x0, "d", 0x0, " ", 0x0, "n"
	DCB	0x0, "o", 0x0, "t", 0x0, " ", 0x0, "s", 0x0, "e", 0x0, "t"
	DCB	0x0, " ", 0x0, "b", 0x0, "a", 0x0, "u", 0x0, "d", 0x0, " "
	DCB	0x0, "r", 0x0, "a", 0x0, "t", 0x0, "e", 0x0, " ", 0x0, "s"
	DCB	0x0, "p", 0x0, "e", 0x0, "e", 0x0, "d", 0x0, ".", 0x0, " "
	DCB	0x0, 0xd, 0x0, 0xa, 0x0, 0x0, 0x0	; `string'
; Function compile flags: /Ogspy

  00000			 AREA	 |.text|, CODE, ARM

  00000		 |?Platform_setBaudRateIndex@@YAHPAX@Z| PROC ; Platform_setBaudRateIndex

; 73   : {

  00000		 |$LN6@Platform_s@3|
  00000	e52de004	 str         lr, [sp, #-4]!
  00004	e24dd010	 sub         sp, sp, #0x10
  00008		 |$M32648|

; 74   : 
; 75   :     if(!DeviceIoControl(hI2C, IOCTL_I2C_SET_BAUD_INDEX,&g_BaudRateIndex,sizeof(g_BaudRateIndex),NULL,0,NULL,NULL) )

  00008	e59f206c	 ldr         r2, [pc, #0x6C]
  0000c	e59f1064	 ldr         r1, [pc, #0x64]
  00010	e3a0e000	 mov         lr, #0
  00014	e3a03004	 mov         r3, #4
  00018	e58de00c	 str         lr, [sp, #0xC]
  0001c	e58de008	 str         lr, [sp, #8]
  00020	e58de004	 str         lr, [sp, #4]
  00024	e58de000	 str         lr, [sp]
  00028	eb000000	 bl          DeviceIoControl
  0002c	e3500000	 cmp         r0, #0
  00030	1a000009	 bne         |$LN1@Platform_s@3|

; 76   :     {
; 77   : 		g_pKato->Log(1, TEXT("Could not set baud rate speed. \r\n"));

  00034	e59f3038	 ldr         r3, [pc, #0x38]
  00038	e59f1030	 ldr         r1, [pc, #0x30]
  0003c	e59f2028	 ldr         r2, [pc, #0x28]
  00040	e5930000	 ldr         r0, [r3]
  00044	e5913000	 ldr         r3, [r1]
  00048	e3a01001	 mov         r1, #1
  0004c	e1a0e00f	 mov         lr, pc
  00050	e12fff13	 bx          r3

; 78   : 		return FALSE;

  00054	e3a00000	 mov         r0, #0
  00058	ea000000	 b           |$LN2@Platform_s@3|
  0005c		 |$LN1@Platform_s@3|

; 79   :     }
; 80   : 
; 81   : 	return TRUE;

  0005c	e3a00001	 mov         r0, #1
  00060		 |$LN2@Platform_s@3|

; 82   : }

  00060	e28dd010	 add         sp, sp, #0x10
  00064	e49de004	 ldr         lr, [sp], #4
  00068	e12fff1e	 bx          lr
  0006c		 |$LN7@Platform_s@3|
  0006c		 |$LN8@Platform_s@3|
  0006c	00000000	 DCD         |??_C@_1EE@COBCNLCC@?$AAC?$AAo?$AAu?$AAl?$AAd?$AA?5?$AAn?$AAo?$AAt?$AA?5?$AAs?$AAe?$AAt?$AA?5?$AAb?$AAa?$AAu?$AAd?$AA?5?$AAr?$AAa?$AAt?$AAe?$AA?5?$AAs?$AAp?$AAe?$AAe?$AAd?$AA?4?$AA?5?$AA?$AN@|
  00070		 |$LN9@Platform_s@3|
  00070	00000000	 DCD         |__imp_?Log@CKato@@QAAHKPBGZZ|
  00074		 |$LN10@Platform_s@3|
  00074	00000000	 DCD         |?g_pKato@@3PAVCKato@@A|
  00078		 |$LN11@Platform_s@3|
  00078	00220808	 DCD         0x220808
  0007c		 |$LN12@Platform_s@3|
  0007c	00000000	 DCD         |?g_BaudRateIndex@@3KA|
  00080		 |$M32649|

			 ENDP  ; |?Platform_setBaudRateIndex@@YAHPAX@Z|, Platform_setBaudRateIndex

	EXPORT	|?Platform_Write@@YAIPAXJ0I@Z|		; Platform_Write
	EXPORT	|??_C@_1FC@DLCCFPCI@?$AAC?$AAo?$AAu?$AAl?$AAd?$AA?5?$AAn?$AAo?$AAt?$AA?5?$AAw?$AAr?$AAi?$AAt?$AAe?$AA?5?$AAI?$AA2?$AAC?$AA?5?$AAp?$AAo?$AAr?$AAt?$AA?5?$AAd?$AAu?$AAe?$AA?5?$AAt?$AAo?$AA?5@| [ DATA ] ; `string'
	EXPORT	|??_C@_1FE@CADEGDHG@?$AAC?$AAo?$AAu?$AAl?$AAd?$AA?5?$AAn?$AAo?$AAt?$AA?5?$AAs?$AAe?$AAt?$AA?5?$AAt?$AAh?$AAe?$AA?5?$AAs?$AAu?$AAb?$AAA?$AAd?$AAr?$AAe?$AAs?$AAs?$AA?5?$AAs?$AAp?$AAe?$AAc@| [ DATA ] ; `string'
	IMPORT	|WriteFile|
	IMPORT	|SetFilePointer|

  00000			 AREA	 |.pdata|, PDATA
|$T32670| DCD	|$LN7@Platform_W|
	DCD	0x40002802

  00000			 AREA	 |.rdata|, DATA, READONLY
|??_C@_1FC@DLCCFPCI@?$AAC?$AAo?$AAu?$AAl?$AAd?$AA?5?$AAn?$AAo?$AAt?$AA?5?$AAw?$AAr?$AAi?$AAt?$AAe?$AA?5?$AAI?$AA2?$AAC?$AA?5?$AAp?$AAo?$AAr?$AAt?$AA?5?$AAd?$AAu?$AAe?$AA?5?$AAt?$AAo?$AA?5@| DCB "C"
	DCB	0x0, "o", 0x0, "u", 0x0, "l", 0x0, "d", 0x0, " ", 0x0, "n"
	DCB	0x0, "o", 0x0, "t", 0x0, " ", 0x0, "w", 0x0, "r", 0x0, "i"
	DCB	0x0, "t", 0x0, "e", 0x0, " ", 0x0, "I", 0x0, "2", 0x0, "C"
	DCB	0x0, " ", 0x0, "p", 0x0, "o", 0x0, "r", 0x0, "t", 0x0, " "
	DCB	0x0, "d", 0x0, "u", 0x0, "e", 0x0, " ", 0x0, "t", 0x0, "o"
	DCB	0x0, " ", 0x0, "N", 0x0, "A", 0x0, "C", 0x0, "K", 0x0, "."
	DCB	0x0, " ", 0x0, 0xd, 0x0, 0xa, 0x0, 0x0, 0x0 ; `string'

  00000			 AREA	 |.rdata|, DATA, READONLY
|??_C@_1FE@CADEGDHG@?$AAC?$AAo?$AAu?$AAl?$AAd?$AA?5?$AAn?$AAo?$AAt?$AA?5?$AAs?$AAe?$AAt?$AA?5?$AAt?$AAh?$AAe?$AA?5?$AAs?$AAu?$AAb?$AAA?$AAd?$AAr?$AAe?$AAs?$AAs?$AA?5?$AAs?$AAp?$AAe?$AAc@| DCB "C"
	DCB	0x0, "o", 0x0, "u", 0x0, "l", 0x0, "d", 0x0, " ", 0x0, "n"
	DCB	0x0, "o", 0x0, "t", 0x0, " ", 0x0, "s", 0x0, "e", 0x0, "t"
	DCB	0x0, " ", 0x0, "t", 0x0, "h", 0x0, "e", 0x0, " ", 0x0, "s"
	DCB	0x0, "u", 0x0, "b", 0x0, "A", 0x0, "d", 0x0, "r", 0x0, "e"
	DCB	0x0, "s", 0x0, "s", 0x0, " ", 0x0, "s", 0x0, "p", 0x0, "e"
	DCB	0x0, "c", 0x0, "i", 0x0, "f", 0x0, "i", 0x0, "e", 0x0, "d"
	DCB	0x0, ".", 0x0, " ", 0x0, 0xd, 0x0, 0xa, 0x0, 0x0, 0x0 ; `string'
; Function compile flags: /Ogspy

  00000			 AREA	 |.text|, CODE, ARM

  00000		 |?Platform_Write@@YAIPAXJ0I@Z| PROC	; Platform_Write

; 85   : {

  00000		 |$LN7@Platform_W|
  00000	e92d41f0	 stmdb       sp!, {r4 - r8, lr}
  00004	e24dd008	 sub         sp, sp, #8
  00008		 |$M32667|
  00008	e1a07003	 mov         r7, r3
  0000c	e1a08002	 mov         r8, r2
  00010	e1a06000	 mov         r6, r0

; 86   : 	DWORD dwBytesReturned;
; 87   : 
; 88   : 	if(!SetFilePointer(hI2C,subAddr,NULL,0))

  00014	e3a03000	 mov         r3, #0
  00018	e3a02000	 mov         r2, #0
  0001c	eb000000	 bl          SetFilePointer
  00020	e3500000	 cmp         r0, #0

; 89   : 	{
; 90   : 		g_pKato->Log(1, TEXT("Could not set the subAdress specified. \r\n"));

  00024	059f1068	 ldreq       r1, [pc, #0x68]
  00028	e59f506c	 ldr         r5, [pc, #0x6C]
  0002c	059f2064	 ldreq       r2, [pc, #0x64]
  00030	05914000	 ldreq       r4, [r1]
  00034	05950000	 ldreq       r0, [r5]
  00038	03a01001	 moveq       r1, #1
  0003c	01a0e00f	 moveq       lr, pc
  00040	012fff14	 bxeq        r4

; 91   : 	}
; 92   : 
; 93   :     if(!WriteFile(hI2C, buffer, size, &dwBytesReturned, NULL))

  00044	e3a03000	 mov         r3, #0
  00048	e58d3000	 str         r3, [sp]
  0004c	e28d3004	 add         r3, sp, #4
  00050	e1a02007	 mov         r2, r7
  00054	e1a01008	 mov         r1, r8
  00058	e1a00006	 mov         r0, r6
  0005c	eb000000	 bl          WriteFile
  00060	e3500000	 cmp         r0, #0

; 94   :     {
; 95   :         g_pKato->Log(1, TEXT("Could not write I2C port due to NACK. \r\n"));		

  00064	059f3028	 ldreq       r3, [pc, #0x28]
  00068	059f2020	 ldreq       r2, [pc, #0x20]
  0006c	05950000	 ldreq       r0, [r5]
  00070	05933000	 ldreq       r3, [r3]
  00074	03a01001	 moveq       r1, #1
  00078	01a0e00f	 moveq       lr, pc
  0007c	012fff13	 bxeq        r3

; 96   :     }
; 97   : 
; 98   : 	return dwBytesReturned;

  00080	e59d0004	 ldr         r0, [sp, #4]

; 99   : 
; 100  : }

  00084	e28dd008	 add         sp, sp, #8
  00088	e8bd41f0	 ldmia       sp!, {r4 - r8, lr}
  0008c	e12fff1e	 bx          lr
  00090		 |$LN8@Platform_W|
  00090		 |$LN9@Platform_W|
  00090	00000000	 DCD         |??_C@_1FC@DLCCFPCI@?$AAC?$AAo?$AAu?$AAl?$AAd?$AA?5?$AAn?$AAo?$AAt?$AA?5?$AAw?$AAr?$AAi?$AAt?$AAe?$AA?5?$AAI?$AA2?$AAC?$AA?5?$AAp?$AAo?$AAr?$AAt?$AA?5?$AAd?$AAu?$AAe?$AA?5?$AAt?$AAo?$AA?5@|
  00094		 |$LN10@Platform_W|
  00094	00000000	 DCD         |__imp_?Log@CKato@@QAAHKPBGZZ|
  00098		 |$LN11@Platform_W|
  00098	00000000	 DCD         |??_C@_1FE@CADEGDHG@?$AAC?$AAo?$AAu?$AAl?$AAd?$AA?5?$AAn?$AAo?$AAt?$AA?5?$AAs?$AAe?$AAt?$AA?5?$AAt?$AAh?$AAe?$AA?5?$AAs?$AAu?$AAb?$AAA?$AAd?$AAr?$AAe?$AAs?$AAs?$AA?5?$AAs?$AAp?$AAe?$AAc@|
  0009c		 |$LN12@Platform_W|
  0009c	00000000	 DCD         |?g_pKato@@3PAVCKato@@A|
  000a0		 |$M32668|

			 ENDP  ; |?Platform_Write@@YAIPAXJ0I@Z|, Platform_Write

	END
