; Listing generated by Microsoft (R) Optimizing Compiler Version 14.01.60511.01 

	TTL	C:\WINCE600\PLATFORM\Z2170P\SRC\test\PMTEST\PMGET\get.c
	CODE32

  00000			 AREA	 |.drectve|, DRECTVE
	DCB	"-defaultlib:LIBCMT "
	DCB	"-defaultlib:OLDNAMES "

	EXPORT	|__$ArrayPad$| [ DATA ]
	EXPORT	|RetailPrint|
	EXPORT	|??_C@_1BG@BNMMPDJD@?$AAP?$AAM?$AAG?$AAE?$AAT?$AAD?$AA?3?$AA?5?$AA?$CF?$AAs?$AA?$AA@| [ DATA ] ; `string'
	IMPORT	|NKDbgPrintfW|
	IMPORT	|vswprintf|
	IMPORT	|swprintf|
	IMPORT	|vwprintf|
	IMPORT	|__GSHandlerCheck|
	IMPORT	|__security_cookie|
	IMPORT	|__security_check_cookie|
; File c:\wince600\platform\z2170p\src\test\pmtest\pmget\get.c

  00000			 AREA	 |.pdata|, PDATA
|$T39156| DCD	|$LN5@RetailPrin|
	DCD	0xc0002905

  00000			 AREA	 |.xdata|, DATA
|$T39152| DCD	0xffffffe4

  00000			 AREA	 |.rdata|, DATA, READONLY
|??_C@_1BG@BNMMPDJD@?$AAP?$AAM?$AAG?$AAE?$AAT?$AAD?$AA?3?$AA?5?$AA?$CF?$AAs?$AA?$AA@| DCB "P"
	DCB	0x0, "M", 0x0, "G", 0x0, "E", 0x0, "T", 0x0, "D", 0x0, ":"
	DCB	0x0, " ", 0x0, "%", 0x0, "s", 0x0, 0x0, 0x0 ; `string'
; Function compile flags: /Ogspy

  00000			 AREA	 |.text|, CODE, ARM

  00000	00000000	 DCD         |__GSHandlerCheck|
  00004	00000000	 DCD         |$T39152|

  00008		 |RetailPrint| PROC

; 93   : {

  00008		 |$LN5@RetailPrin|
  00008	e1a0c00d	 mov         r12, sp
  0000c	e92d000f	 stmdb       sp!, {r0 - r3}
  00010	e92d5000	 stmdb       sp!, {r12, lr}
  00014	e59fc08c	 ldr         r12, [pc, #0x8C]
  00018	e08dd00c	 add         sp, sp, r12
  0001c		 |$M39153|
  0001c	e28dca02	 add         r12, sp, #2, 20
  00020	e58c000c	 str         r0, [r12, #0xC]
  00024	e59f3078	 ldr         r3, [pc, #0x78]
  00028	e5933000	 ldr         r3, [r3]
  0002c	e58c3000	 str         r3, [r12]

; 94   :     va_list al;
; 95   :     wchar_t szTemp[2048];
; 96   :     wchar_t szTempFormat[2048];
; 97   : 
; 98   :     va_start(al, pszFormat);
; 99   : 
; 100  :     // Show message on console
; 101  :     vwprintf(pszFormat, al);

  00030	e3a01a02	 mov         r1, #2, 20
  00034	e3811010	 orr         r1, r1, #0x10
  00038	e08d1001	 add         r1, sp, r1
  0003c	eb000000	 bl          vwprintf

; 102  : 
; 103  :     // Show message on RETAILMSG
; 104  :     swprintf(szTempFormat, L"PMGETD: %s", pszFormat);

  00040	e28d2a02	 add         r2, sp, #2, 20
  00044	e592200c	 ldr         r2, [r2, #0xC]
  00048	e59f1050	 ldr         r1, [pc, #0x50]
  0004c	e28d0000	 add         r0, sp, #0
  00050	eb000000	 bl          swprintf

; 105  :     pszFormat = szTempFormat;

  00054	e28d3000	 add         r3, sp, #0

; 106  :     vswprintf(szTemp, pszFormat, al);

  00058	e3a02a02	 mov         r2, #2, 20
  0005c	e3822010	 orr         r2, r2, #0x10
  00060	e08d2002	 add         r2, sp, r2
  00064	e28d1000	 add         r1, sp, #0
  00068	e28d0a01	 add         r0, sp, #1, 20
  0006c	e28dca02	 add         r12, sp, #2, 20
  00070	e58c300c	 str         r3, [r12, #0xC]
  00074	eb000000	 bl          vswprintf

; 107  :     RETAILMSG(1, (szTemp));

  00078	e28d0a01	 add         r0, sp, #1, 20
  0007c	eb000000	 bl          NKDbgPrintfW
  00080	e28d0a02	 add         r0, sp, #2, 20
  00084	e5900000	 ldr         r0, [r0]
  00088	eb000000	 bl          __security_check_cookie

; 108  : 
; 109  :     va_end(al);
; 110  : }

  0008c	e3a0ca02	 mov         r12, #2, 20
  00090	e38cc004	 orr         r12, r12, #4
  00094	e08dd00c	 add         sp, sp, r12
  00098	e89d6000	 ldmia       sp, {sp, lr}
  0009c	e12fff1e	 bx          lr
  000a0		 |$LN6@RetailPrin|
  000a0		 |$LN7@RetailPrin|
  000a0	00000000	 DCD         |??_C@_1BG@BNMMPDJD@?$AAP?$AAM?$AAG?$AAE?$AAT?$AAD?$AA?3?$AA?5?$AA?$CF?$AAs?$AA?$AA@|
  000a4		 |$LN8@RetailPrin|
  000a4	00000000	 DCD         |__security_cookie|
  000a8		 |$LN9@RetailPrin|
  000a8	ffffdffc	 DCD         0xffffdffc
  000ac		 |$M39154|

			 ENDP  ; |RetailPrint|

	EXPORT	|__$ArrayPad$| [ DATA ]
	EXPORT	|WinMain|
	EXPORT	|??_C@_1DC@FAFKIEO@?$AAP?$AAM?$AAG?$AAE?$AAT?$AA?$CB?$AA?7?$AAP?$AAO?$AAW?$AAE?$AAR?$AA_?$AAS?$AAT?$AAA?$AAT?$AAE?$AA_?$AAI?$AAD?$AAL?$AAE?$AA?6?$AA?$AA@| [ DATA ] ; `string'
	EXPORT	|??_C@_1DI@DMDGINJA@?$AAP?$AAM?$AAG?$AAE?$AAT?$AA?$CB?$AA?7?$AAP?$AAO?$AAW?$AAE?$AAR?$AA_?$AAS?$AAT?$AAA?$AAT?$AAE?$AA_?$AAS?$AAU?$AAS?$AAP?$AAE?$AAN?$AAD?$AA?6?$AA?$AA@| [ DATA ] ; `string'
	EXPORT	|??_C@_1DE@ILEEFEDM@?$AAP?$AAM?$AAG?$AAE?$AAT?$AA?$CB?$AA?7?$AAP?$AAO?$AAW?$AAE?$AAR?$AA_?$AAS?$AAT?$AAA?$AAT?$AAE?$AA_?$AAR?$AAE?$AAS?$AAE?$AAT?$AA?6?$AA?$AA@| [ DATA ] ; `string'
	EXPORT	|??_C@_1EO@CJMLHAAE@?$AAP?$AAM?$AAG?$AAE?$AAT?$AA?$CB?$AA?7?$AAU?$AAn?$AAk?$AAn?$AAo?$AAw?$AAn?$AA?5?$AAP?$AAo?$AAw?$AAe?$AAr?$AA?5?$AAS?$AAt?$AAa?$AAt?$AAe?$AA?5?$AAF?$AAl?$AAa?$AAg?$AAs@| [ DATA ] ; `string'
	EXPORT	|??_C@_1DC@MKHCCBGK@?$AAP?$AAM?$AAG?$AAE?$AAT?$AA?$CB?$AA?7?$AAP?$AAO?$AAW?$AAE?$AAR?$AA_?$AAS?$AAT?$AAA?$AAT?$AAE?$AA_?$AAB?$AAO?$AAO?$AAT?$AA?6?$AA?$AA@| [ DATA ] ; `string'
	EXPORT	|??_C@_1CO@OKGFFMIN@?$AAP?$AAM?$AAG?$AAE?$AAT?$AA?$CB?$AA?7?$AAP?$AAO?$AAW?$AAE?$AAR?$AA_?$AAS?$AAT?$AAA?$AAT?$AAE?$AA_?$AAO?$AAN?$AA?6?$AA?$AA@| [ DATA ] ; `string'
	EXPORT	|??_C@_1DA@CIDCCAHK@?$AAP?$AAM?$AAG?$AAE?$AAT?$AA?$CB?$AA?7?$AAP?$AAO?$AAW?$AAE?$AAR?$AA_?$AAS?$AAT?$AAA?$AAT?$AAE?$AA_?$AAO?$AAF?$AAF?$AA?6?$AA?$AA@| [ DATA ] ; `string'
	EXPORT	|??_C@_1DK@OGDACCBJ@?$AAP?$AAM?$AAG?$AAE?$AAT?$AA?$CB?$AA?7?$AAP?$AAO?$AAW?$AAE?$AAR?$AA_?$AAS?$AAT?$AAA?$AAT?$AAE?$AA_?$AAC?$AAR?$AAI?$AAT?$AAI?$AAC?$AAA?$AAL?$AA?6?$AA?$AA@| [ DATA ] ; `string'
	EXPORT	|??_C@_1GC@OEBIFMDB@?$AAP?$AAM?$AAG?$AAE?$AAT?$AA?$CB?$AA?5?$AAS?$AAy?$AAs?$AAt?$AAe?$AAm?$AA?5?$AAP?$AAo?$AAw?$AAe?$AAr?$AA?5?$AAs?$AAt?$AAa?$AAt?$AAe?$AA?5?$AAi?$AAs?$AA?5?$AA?8?$AA?$CF?$AAs@| [ DATA ] ; `string'
	EXPORT	|??_C@_1EI@FCJJGCIE@?$AAP?$AAM?$AAG?$AAE?$AAT?$AA?$CB?$AAG?$AAe?$AAt?$AAS?$AAy?$AAs?$AAt?$AAe?$AAm?$AAP?$AAo?$AAw?$AAe?$AAr?$AAS?$AAt?$AAa?$AAt?$AAe?$AA?3?$AAE?$AAR?$AAR?$AAO?$AAR?$AA?3@| [ DATA ] ; `string'
	IMPORT	|GetSystemPowerState|
	IMPORT	|memset|

  00000			 AREA	 |.pdata|, PDATA
|$T39178| DCD	|$LN21@WinMain|
	DCD	0xc0005603

  00000			 AREA	 |.xdata|, DATA
|$T39174| DCD	0xfffffff8

  00000			 AREA	 |.rdata|, DATA, READONLY
|??_C@_1DC@FAFKIEO@?$AAP?$AAM?$AAG?$AAE?$AAT?$AA?$CB?$AA?7?$AAP?$AAO?$AAW?$AAE?$AAR?$AA_?$AAS?$AAT?$AAA?$AAT?$AAE?$AA_?$AAI?$AAD?$AAL?$AAE?$AA?6?$AA?$AA@| DCB "P"
	DCB	0x0, "M", 0x0, "G", 0x0, "E", 0x0, "T", 0x0, "!", 0x0, 0x9
	DCB	0x0, "P", 0x0, "O", 0x0, "W", 0x0, "E", 0x0, "R", 0x0, "_"
	DCB	0x0, "S", 0x0, "T", 0x0, "A", 0x0, "T", 0x0, "E", 0x0, "_"
	DCB	0x0, "I", 0x0, "D", 0x0, "L", 0x0, "E", 0x0, 0xa, 0x0, 0x0
	DCB	0x0					; `string'

  00000			 AREA	 |.rdata|, DATA, READONLY
|??_C@_1DI@DMDGINJA@?$AAP?$AAM?$AAG?$AAE?$AAT?$AA?$CB?$AA?7?$AAP?$AAO?$AAW?$AAE?$AAR?$AA_?$AAS?$AAT?$AAA?$AAT?$AAE?$AA_?$AAS?$AAU?$AAS?$AAP?$AAE?$AAN?$AAD?$AA?6?$AA?$AA@| DCB "P"
	DCB	0x0, "M", 0x0, "G", 0x0, "E", 0x0, "T", 0x0, "!", 0x0, 0x9
	DCB	0x0, "P", 0x0, "O", 0x0, "W", 0x0, "E", 0x0, "R", 0x0, "_"
	DCB	0x0, "S", 0x0, "T", 0x0, "A", 0x0, "T", 0x0, "E", 0x0, "_"
	DCB	0x0, "S", 0x0, "U", 0x0, "S", 0x0, "P", 0x0, "E", 0x0, "N"
	DCB	0x0, "D", 0x0, 0xa, 0x0, 0x0, 0x0	; `string'

  00000			 AREA	 |.rdata|, DATA, READONLY
|??_C@_1DE@ILEEFEDM@?$AAP?$AAM?$AAG?$AAE?$AAT?$AA?$CB?$AA?7?$AAP?$AAO?$AAW?$AAE?$AAR?$AA_?$AAS?$AAT?$AAA?$AAT?$AAE?$AA_?$AAR?$AAE?$AAS?$AAE?$AAT?$AA?6?$AA?$AA@| DCB "P"
	DCB	0x0, "M", 0x0, "G", 0x0, "E", 0x0, "T", 0x0, "!", 0x0, 0x9
	DCB	0x0, "P", 0x0, "O", 0x0, "W", 0x0, "E", 0x0, "R", 0x0, "_"
	DCB	0x0, "S", 0x0, "T", 0x0, "A", 0x0, "T", 0x0, "E", 0x0, "_"
	DCB	0x0, "R", 0x0, "E", 0x0, "S", 0x0, "E", 0x0, "T", 0x0, 0xa
	DCB	0x0, 0x0, 0x0				; `string'

  00000			 AREA	 |.rdata|, DATA, READONLY
|??_C@_1EO@CJMLHAAE@?$AAP?$AAM?$AAG?$AAE?$AAT?$AA?$CB?$AA?7?$AAU?$AAn?$AAk?$AAn?$AAo?$AAw?$AAn?$AA?5?$AAP?$AAo?$AAw?$AAe?$AAr?$AA?5?$AAS?$AAt?$AAa?$AAt?$AAe?$AA?5?$AAF?$AAl?$AAa?$AAg?$AAs@| DCB "P"
	DCB	0x0, "M", 0x0, "G", 0x0, "E", 0x0, "T", 0x0, "!", 0x0, 0x9
	DCB	0x0, "U", 0x0, "n", 0x0, "k", 0x0, "n", 0x0, "o", 0x0, "w"
	DCB	0x0, "n", 0x0, " ", 0x0, "P", 0x0, "o", 0x0, "w", 0x0, "e"
	DCB	0x0, "r", 0x0, " ", 0x0, "S", 0x0, "t", 0x0, "a", 0x0, "t"
	DCB	0x0, "e", 0x0, " ", 0x0, "F", 0x0, "l", 0x0, "a", 0x0, "g"
	DCB	0x0, "s", 0x0, ":", 0x0, "0", 0x0, "x", 0x0, "%", 0x0, "x"
	DCB	0x0, 0xa, 0x0, 0x0, 0x0			; `string'

  00000			 AREA	 |.rdata|, DATA, READONLY
|??_C@_1DC@MKHCCBGK@?$AAP?$AAM?$AAG?$AAE?$AAT?$AA?$CB?$AA?7?$AAP?$AAO?$AAW?$AAE?$AAR?$AA_?$AAS?$AAT?$AAA?$AAT?$AAE?$AA_?$AAB?$AAO?$AAO?$AAT?$AA?6?$AA?$AA@| DCB "P"
	DCB	0x0, "M", 0x0, "G", 0x0, "E", 0x0, "T", 0x0, "!", 0x0, 0x9
	DCB	0x0, "P", 0x0, "O", 0x0, "W", 0x0, "E", 0x0, "R", 0x0, "_"
	DCB	0x0, "S", 0x0, "T", 0x0, "A", 0x0, "T", 0x0, "E", 0x0, "_"
	DCB	0x0, "B", 0x0, "O", 0x0, "O", 0x0, "T", 0x0, 0xa, 0x0, 0x0
	DCB	0x0					; `string'

  00000			 AREA	 |.rdata|, DATA, READONLY
|??_C@_1CO@OKGFFMIN@?$AAP?$AAM?$AAG?$AAE?$AAT?$AA?$CB?$AA?7?$AAP?$AAO?$AAW?$AAE?$AAR?$AA_?$AAS?$AAT?$AAA?$AAT?$AAE?$AA_?$AAO?$AAN?$AA?6?$AA?$AA@| DCB "P"
	DCB	0x0, "M", 0x0, "G", 0x0, "E", 0x0, "T", 0x0, "!", 0x0, 0x9
	DCB	0x0, "P", 0x0, "O", 0x0, "W", 0x0, "E", 0x0, "R", 0x0, "_"
	DCB	0x0, "S", 0x0, "T", 0x0, "A", 0x0, "T", 0x0, "E", 0x0, "_"
	DCB	0x0, "O", 0x0, "N", 0x0, 0xa, 0x0, 0x0, 0x0 ; `string'

  00000			 AREA	 |.rdata|, DATA, READONLY
|??_C@_1DA@CIDCCAHK@?$AAP?$AAM?$AAG?$AAE?$AAT?$AA?$CB?$AA?7?$AAP?$AAO?$AAW?$AAE?$AAR?$AA_?$AAS?$AAT?$AAA?$AAT?$AAE?$AA_?$AAO?$AAF?$AAF?$AA?6?$AA?$AA@| DCB "P"
	DCB	0x0, "M", 0x0, "G", 0x0, "E", 0x0, "T", 0x0, "!", 0x0, 0x9
	DCB	0x0, "P", 0x0, "O", 0x0, "W", 0x0, "E", 0x0, "R", 0x0, "_"
	DCB	0x0, "S", 0x0, "T", 0x0, "A", 0x0, "T", 0x0, "E", 0x0, "_"
	DCB	0x0, "O", 0x0, "F", 0x0, "F", 0x0, 0xa, 0x0, 0x0, 0x0 ; `string'

  00000			 AREA	 |.rdata|, DATA, READONLY
|??_C@_1DK@OGDACCBJ@?$AAP?$AAM?$AAG?$AAE?$AAT?$AA?$CB?$AA?7?$AAP?$AAO?$AAW?$AAE?$AAR?$AA_?$AAS?$AAT?$AAA?$AAT?$AAE?$AA_?$AAC?$AAR?$AAI?$AAT?$AAI?$AAC?$AAA?$AAL?$AA?6?$AA?$AA@| DCB "P"
	DCB	0x0, "M", 0x0, "G", 0x0, "E", 0x0, "T", 0x0, "!", 0x0, 0x9
	DCB	0x0, "P", 0x0, "O", 0x0, "W", 0x0, "E", 0x0, "R", 0x0, "_"
	DCB	0x0, "S", 0x0, "T", 0x0, "A", 0x0, "T", 0x0, "E", 0x0, "_"
	DCB	0x0, "C", 0x0, "R", 0x0, "I", 0x0, "T", 0x0, "I", 0x0, "C"
	DCB	0x0, "A", 0x0, "L", 0x0, 0xa, 0x0, 0x0, 0x0 ; `string'

  00000			 AREA	 |.rdata|, DATA, READONLY
|??_C@_1GC@OEBIFMDB@?$AAP?$AAM?$AAG?$AAE?$AAT?$AA?$CB?$AA?5?$AAS?$AAy?$AAs?$AAt?$AAe?$AAm?$AA?5?$AAP?$AAo?$AAw?$AAe?$AAr?$AA?5?$AAs?$AAt?$AAa?$AAt?$AAe?$AA?5?$AAi?$AAs?$AA?5?$AA?8?$AA?$CF?$AAs@| DCB "P"
	DCB	0x0, "M", 0x0, "G", 0x0, "E", 0x0, "T", 0x0, "!", 0x0, " "
	DCB	0x0, "S", 0x0, "y", 0x0, "s", 0x0, "t", 0x0, "e", 0x0, "m"
	DCB	0x0, " ", 0x0, "P", 0x0, "o", 0x0, "w", 0x0, "e", 0x0, "r"
	DCB	0x0, " ", 0x0, "s", 0x0, "t", 0x0, "a", 0x0, "t", 0x0, "e"
	DCB	0x0, " ", 0x0, "i", 0x0, "s", 0x0, " ", 0x0, "'", 0x0, "%"
	DCB	0x0, "s", 0x0, "'", 0x0, ",", 0x0, " ", 0x0, "f", 0x0, "l"
	DCB	0x0, "a", 0x0, "g", 0x0, "s", 0x0, " ", 0x0, "0", 0x0, "x"
	DCB	0x0, "%", 0x0, "0", 0x0, "8", 0x0, "x", 0x0, 0xa, 0x0, 0x0
	DCB	0x0					; `string'

  00000			 AREA	 |.rdata|, DATA, READONLY
|??_C@_1EI@FCJJGCIE@?$AAP?$AAM?$AAG?$AAE?$AAT?$AA?$CB?$AAG?$AAe?$AAt?$AAS?$AAy?$AAs?$AAt?$AAe?$AAm?$AAP?$AAo?$AAw?$AAe?$AAr?$AAS?$AAt?$AAa?$AAt?$AAe?$AA?3?$AAE?$AAR?$AAR?$AAO?$AAR?$AA?3@| DCB "P"
	DCB	0x0, "M", 0x0, "G", 0x0, "E", 0x0, "T", 0x0, "!", 0x0, "G"
	DCB	0x0, "e", 0x0, "t", 0x0, "S", 0x0, "y", 0x0, "s", 0x0, "t"
	DCB	0x0, "e", 0x0, "m", 0x0, "P", 0x0, "o", 0x0, "w", 0x0, "e"
	DCB	0x0, "r", 0x0, "S", 0x0, "t", 0x0, "a", 0x0, "t", 0x0, "e"
	DCB	0x0, ":", 0x0, "E", 0x0, "R", 0x0, "R", 0x0, "O", 0x0, "R"
	DCB	0x0, ":", 0x0, "%", 0x0, "d", 0x0, 0xa, 0x0, 0x0, 0x0 ; `string'
; Function compile flags: /Ogspy

  00000			 AREA	 |.text|, CODE, ARM

  00000	00000000	 DCD         |__GSHandlerCheck|
  00004	00000000	 DCD         |$T39174|

  00008		 |WinMain| PROC

; 39   : {

  00008		 |$LN21@WinMain|
  00008	e52de004	 str         lr, [sp, #-4]!
  0000c	e59fc148	 ldr         r12, [pc, #0x148]
  00010	e08dd00c	 add         sp, sp, r12
  00014		 |$M39175|
  00014	e59f313c	 ldr         r3, [pc, #0x13C]
  00018	e5933000	 ldr         r3, [r3]
  0001c	e58d3804	 str         r3, [sp, #0x804]
  00020	e3a03c07	 mov         r3, #7, 24

; 40   :     WCHAR  state[1024] = {0};

  00024	e3a0e000	 mov         lr, #0
  00028	e38320fe	 orr         r2, r3, #0xFE
  0002c	e3a01000	 mov         r1, #0
  00030	e28d0006	 add         r0, sp, #6
  00034	e1cde0b4	 strh        lr, [sp, #4]
  00038	eb000000	 bl          memset

; 41   :     LPWSTR pState = &state[0];
; 42   :     DWORD dwBufChars = (sizeof(state) / sizeof(state[0]));
; 43   :     DWORD  dwStateFlags = 0;

  0003c	e3a03000	 mov         r3, #0

; 44   :     DWORD dwErr;
; 45   : 
; 46   :     UNREFERENCED_PARAMETER(hInst);
; 47   :     UNREFERENCED_PARAMETER(hPrevInst);
; 48   :     UNREFERENCED_PARAMETER(nCmShow);
; 49   : 	UNREFERENCED_PARAMETER(lpCmdLine);
; 50   :     
; 51   :     dwErr = GetSystemPowerState(pState, dwBufChars, &dwStateFlags);

  00040	e28d2000	 add         r2, sp, #0
  00044	e3a01b01	 mov         r1, #1, 22
  00048	e28d0004	 add         r0, sp, #4
  0004c	e58d3000	 str         r3, [sp]
  00050	eb000000	 bl          GetSystemPowerState
  00054	e1b01000	 movs        r1, r0

; 52   :     if (ERROR_SUCCESS != dwErr) {

  00058	0a000002	 beq         |$LN13@WinMain|

; 53   :         RetailPrint (TEXT("PMGET!GetSystemPowerState:ERROR:%d\n"), dwErr);

  0005c	e59f00f0	 ldr         r0, [pc, #0xF0]

; 78   :         case 0:
; 79   :             break;
; 80   :         default:
; 81   :             RetailPrint(TEXT("PMGET!\tUnknown Power State Flags:0x%x\n"),dwStateFlags);

  00060	eb000000	 bl          RetailPrint

; 82   :             ASSERT(0);
; 83   :             break;

  00064	ea000029	 b           |$LN10@WinMain|
  00068		 |$LN13@WinMain|

; 54   :     } else {
; 55   :         RetailPrint (TEXT("PMGET! System Power state is '%s', flags 0x%08x\n"), state, dwStateFlags);

  00068	e59d2000	 ldr         r2, [sp]
  0006c	e59f00dc	 ldr         r0, [pc, #0xDC]
  00070	e28d1004	 add         r1, sp, #4
  00074	eb000000	 bl          RetailPrint

; 56   :         switch (POWER_STATE(dwStateFlags)) {

  00078	e59d1000	 ldr         r1, [sp]
  0007c	e3e03cff	 mvn         r3, #0xFF, 24
  00080	e22330ff	 eor         r3, r3, #0xFF
  00084	e0013003	 and         r3, r1, r3
  00088	e3530702	 cmp         r3, #2, 14
  0008c	8a000010	 bhi         |$LN16@WinMain|
  00090	0a00000d	 beq         |$LN6@WinMain|
  00094	e3530000	 cmp         r3, #0
  00098	0a00001c	 beq         |$LN10@WinMain|
  0009c	e3530801	 cmp         r3, #1, 16
  000a0	0a000007	 beq         |$LN9@WinMain|
  000a4	e3530802	 cmp         r3, #2, 16
  000a8	0a000003	 beq         |$LN8@WinMain|
  000ac	e3530701	 cmp         r3, #1, 14
  000b0	1a00000d	 bne         |$LN1@WinMain|

; 63   :         case POWER_STATE_CRITICAL:
; 64   :             RetailPrint (TEXT("PMGET!\tPOWER_STATE_CRITICAL\n"));

  000b4	e59f0090	 ldr         r0, [pc, #0x90]

; 65   :             break;

  000b8	ea000013	 b           |$LN17@WinMain|
  000bc		 |$LN8@WinMain|

; 60   :         case POWER_STATE_OFF:
; 61   :             RetailPrint (TEXT("PMGET!\tPOWER_STATE_OFF\n"));

  000bc	e59f0084	 ldr         r0, [pc, #0x84]

; 62   :             break;

  000c0	ea000011	 b           |$LN17@WinMain|
  000c4		 |$LN9@WinMain|

; 57   :         case POWER_STATE_ON:
; 58   :             RetailPrint (TEXT("PMGET!\tPOWER_STATE_ON\n"));

  000c4	e59f0078	 ldr         r0, [pc, #0x78]

; 59   :             break;

  000c8	ea00000f	 b           |$LN17@WinMain|
  000cc		 |$LN6@WinMain|

; 66   :         case POWER_STATE_BOOT:
; 67   :             RetailPrint (TEXT("PMGET!\tPOWER_STATE_BOOT\n"));

  000cc	e59f006c	 ldr         r0, [pc, #0x6C]

; 68   :             break;

  000d0	ea00000d	 b           |$LN17@WinMain|
  000d4		 |$LN16@WinMain|

; 56   :         switch (POWER_STATE(dwStateFlags)) {

  000d4	e3530601	 cmp         r3, #1, 12
  000d8	0a00000a	 beq         |$LN5@WinMain|
  000dc	e3530602	 cmp         r3, #2, 12
  000e0	0a000006	 beq         |$LN4@WinMain|
  000e4	e3530502	 cmp         r3, #2, 10
  000e8	0a000002	 beq         |$LN3@WinMain|
  000ec		 |$LN1@WinMain|

; 78   :         case 0:
; 79   :             break;
; 80   :         default:
; 81   :             RetailPrint(TEXT("PMGET!\tUnknown Power State Flags:0x%x\n"),dwStateFlags);

  000ec	e59f0048	 ldr         r0, [pc, #0x48]
  000f0	eb000000	 bl          RetailPrint

; 82   :             ASSERT(0);
; 83   :             break;

  000f4	ea000005	 b           |$LN10@WinMain|
  000f8		 |$LN3@WinMain|

; 75   :         case POWER_STATE_RESET:
; 76   :             RetailPrint (TEXT("PMGET!\tPOWER_STATE_RESET\n"));

  000f8	e59f0038	 ldr         r0, [pc, #0x38]

; 77   :             break;

  000fc	ea000002	 b           |$LN17@WinMain|
  00100		 |$LN4@WinMain|

; 71   :             break;
; 72   :         case POWER_STATE_SUSPEND:
; 73   :             RetailPrint (TEXT("PMGET!\tPOWER_STATE_SUSPEND\n"));

  00100	e59f002c	 ldr         r0, [pc, #0x2C]

; 74   :             break;

  00104	ea000000	 b           |$LN17@WinMain|
  00108		 |$LN5@WinMain|

; 69   :         case POWER_STATE_IDLE:
; 70   :             RetailPrint (TEXT("PMGET!\tPOWER_STATE_IDLE\n"));

  00108	e59f0020	 ldr         r0, [pc, #0x20]
  0010c		 |$LN17@WinMain|
  0010c	eb000000	 bl          RetailPrint
  00110		 |$LN10@WinMain|

; 84   :         }
; 85   :     }
; 86   : 
; 87   :     return 0;

  00110	e59d0804	 ldr         r0, [sp, #0x804]
  00114	eb000000	 bl          __security_check_cookie
  00118	e3a00000	 mov         r0, #0

; 88   : }

  0011c	e3a0cb02	 mov         r12, #2, 22
  00120	e38cc008	 orr         r12, r12, #8
  00124	e08dd00c	 add         sp, sp, r12
  00128	e49de004	 ldr         lr, [sp], #4
  0012c	e12fff1e	 bx          lr
  00130		 |$LN22@WinMain|
  00130		 |$LN23@WinMain|
  00130	00000000	 DCD         |??_C@_1DC@FAFKIEO@?$AAP?$AAM?$AAG?$AAE?$AAT?$AA?$CB?$AA?7?$AAP?$AAO?$AAW?$AAE?$AAR?$AA_?$AAS?$AAT?$AAA?$AAT?$AAE?$AA_?$AAI?$AAD?$AAL?$AAE?$AA?6?$AA?$AA@|
  00134		 |$LN24@WinMain|
  00134	00000000	 DCD         |??_C@_1DI@DMDGINJA@?$AAP?$AAM?$AAG?$AAE?$AAT?$AA?$CB?$AA?7?$AAP?$AAO?$AAW?$AAE?$AAR?$AA_?$AAS?$AAT?$AAA?$AAT?$AAE?$AA_?$AAS?$AAU?$AAS?$AAP?$AAE?$AAN?$AAD?$AA?6?$AA?$AA@|
  00138		 |$LN25@WinMain|
  00138	00000000	 DCD         |??_C@_1DE@ILEEFEDM@?$AAP?$AAM?$AAG?$AAE?$AAT?$AA?$CB?$AA?7?$AAP?$AAO?$AAW?$AAE?$AAR?$AA_?$AAS?$AAT?$AAA?$AAT?$AAE?$AA_?$AAR?$AAE?$AAS?$AAE?$AAT?$AA?6?$AA?$AA@|
  0013c		 |$LN26@WinMain|
  0013c	00000000	 DCD         |??_C@_1EO@CJMLHAAE@?$AAP?$AAM?$AAG?$AAE?$AAT?$AA?$CB?$AA?7?$AAU?$AAn?$AAk?$AAn?$AAo?$AAw?$AAn?$AA?5?$AAP?$AAo?$AAw?$AAe?$AAr?$AA?5?$AAS?$AAt?$AAa?$AAt?$AAe?$AA?5?$AAF?$AAl?$AAa?$AAg?$AAs@|
  00140		 |$LN27@WinMain|
  00140	00000000	 DCD         |??_C@_1DC@MKHCCBGK@?$AAP?$AAM?$AAG?$AAE?$AAT?$AA?$CB?$AA?7?$AAP?$AAO?$AAW?$AAE?$AAR?$AA_?$AAS?$AAT?$AAA?$AAT?$AAE?$AA_?$AAB?$AAO?$AAO?$AAT?$AA?6?$AA?$AA@|
  00144		 |$LN28@WinMain|
  00144	00000000	 DCD         |??_C@_1CO@OKGFFMIN@?$AAP?$AAM?$AAG?$AAE?$AAT?$AA?$CB?$AA?7?$AAP?$AAO?$AAW?$AAE?$AAR?$AA_?$AAS?$AAT?$AAA?$AAT?$AAE?$AA_?$AAO?$AAN?$AA?6?$AA?$AA@|
  00148		 |$LN29@WinMain|
  00148	00000000	 DCD         |??_C@_1DA@CIDCCAHK@?$AAP?$AAM?$AAG?$AAE?$AAT?$AA?$CB?$AA?7?$AAP?$AAO?$AAW?$AAE?$AAR?$AA_?$AAS?$AAT?$AAA?$AAT?$AAE?$AA_?$AAO?$AAF?$AAF?$AA?6?$AA?$AA@|
  0014c		 |$LN30@WinMain|
  0014c	00000000	 DCD         |??_C@_1DK@OGDACCBJ@?$AAP?$AAM?$AAG?$AAE?$AAT?$AA?$CB?$AA?7?$AAP?$AAO?$AAW?$AAE?$AAR?$AA_?$AAS?$AAT?$AAA?$AAT?$AAE?$AA_?$AAC?$AAR?$AAI?$AAT?$AAI?$AAC?$AAA?$AAL?$AA?6?$AA?$AA@|
  00150		 |$LN31@WinMain|
  00150	00000000	 DCD         |??_C@_1GC@OEBIFMDB@?$AAP?$AAM?$AAG?$AAE?$AAT?$AA?$CB?$AA?5?$AAS?$AAy?$AAs?$AAt?$AAe?$AAm?$AA?5?$AAP?$AAo?$AAw?$AAe?$AAr?$AA?5?$AAs?$AAt?$AAa?$AAt?$AAe?$AA?5?$AAi?$AAs?$AA?5?$AA?8?$AA?$CF?$AAs@|
  00154		 |$LN32@WinMain|
  00154	00000000	 DCD         |??_C@_1EI@FCJJGCIE@?$AAP?$AAM?$AAG?$AAE?$AAT?$AA?$CB?$AAG?$AAe?$AAt?$AAS?$AAy?$AAs?$AAt?$AAe?$AAm?$AAP?$AAo?$AAw?$AAe?$AAr?$AAS?$AAt?$AAa?$AAt?$AAe?$AA?3?$AAE?$AAR?$AAR?$AAO?$AAR?$AA?3@|
  00158		 |$LN33@WinMain|
  00158	00000000	 DCD         |__security_cookie|
  0015c		 |$LN34@WinMain|
  0015c	fffff7f8	 DCD         0xfffff7f8
  00160		 |$M39176|

			 ENDP  ; |WinMain|

	END
