; Listing generated by Microsoft (R) Optimizing Compiler Version 14.01.60511.01 

	TTL	C:\WINCE600\PLATFORM\COMMON\SRC\SOC\COMMON_TI_V1\OMAP3530\MUSB\MUSBHCD\MUSBMHDRC\cmhcd.cpp
	CODE32

  00000			 AREA	 |.drectve|, DRECTVE
	DCB	"-defaultlib:LIBCMT "
	DCB	"-defaultlib:OLDNAMES "

	EXPORT	|??_C@_1DK@JPBDFEOB@?$AAD?$AAE?$AAV?$AAI?$AAC?$AAE?$AA_?$AAC?$AAO?$AAN?$AAF?$AAI?$AAG?$AA_?$AAS?$AAT?$AAA?$AAT?$AAU?$AAS?$AA_?$AAI?$AAN?$AAV?$AAA?$AAL?$AAI?$AAD?$AA?$AA@| [ DATA ] ; `string'
	EXPORT	|??_C@_1DE@IMCKALLA@?$AAD?$AAE?$AAV?$AAI?$AAC?$AAE?$AA_?$AAC?$AAO?$AAN?$AAF?$AAI?$AAG?$AA_?$AAS?$AAT?$AAA?$AAT?$AAU?$AAS?$AA_?$AAD?$AAO?$AAN?$AAE?$AA?$AA@| [ DATA ] ; `string'
	EXPORT	|??_C@_1DI@CEGNOBAM@?$AAD?$AAE?$AAV?$AAI?$AAC?$AAE?$AA_?$AAC?$AAO?$AAN?$AAF?$AAI?$AAG?$AA_?$AAS?$AAT?$AAA?$AAT?$AAU?$AAS?$AA_?$AAF?$AAA?$AAI?$AAL?$AAE?$AAD?$AA?$AA@| [ DATA ] ; `string'
	EXPORT	|??_C@_1HO@PGHDEMEK@?$AAD?$AAE?$AAV?$AAI?$AAC?$AAE?$AA_?$AAC?$AAO?$AAN?$AAF?$AAI?$AAG?$AA_?$AAS?$AAT?$AAA?$AAT?$AAU?$AAS?$AA_?$AAS?$AAI?$AAG?$AAN?$AAA?$AAL?$AA_?$AAN?$AAE?$AAW?$AA_@| [ DATA ] ; `string'
	EXPORT	|??_C@_1II@FBBOBKGN@?$AAD?$AAE?$AAV?$AAI?$AAC?$AAE?$AA_?$AAC?$AAO?$AAN?$AAF?$AAI?$AAG?$AA_?$AAS?$AAT?$AAA?$AAT?$AAU?$AAS?$AA_?$AAI?$AAN?$AAS?$AAE?$AAR?$AAT?$AA_?$AAN?$AAE?$AAW?$AA_@| [ DATA ] ; `string'
	EXPORT	|??_C@_1FC@LCLFDJDO@?$AAD?$AAE?$AAV?$AAI?$AAC?$AAE?$AA_?$AAC?$AAO?$AAN?$AAF?$AAI?$AAG?$AA_?$AAS?$AAT?$AAA?$AAT?$AAU?$AAS?$AA_?$AAC?$AAR?$AAE?$AAA?$AAT?$AAE?$AA_?$AAN?$AAE?$AAW?$AA_@| [ DATA ] ; `string'
	EXPORT	|??_C@_1EI@COKEBMOE@?$AAD?$AAE?$AAV?$AAI?$AAC?$AAE?$AA_?$AAC?$AAO?$AAN?$AAF?$AAI?$AAG?$AA_?$AAS?$AAT?$AAA?$AAT?$AAU?$AAS?$AA_?$AAC?$AAR?$AAE?$AAA?$AAT?$AAE?$AA_?$AAN?$AAE?$AAW?$AA_@| [ DATA ] ; `string'
	EXPORT	|??_C@_1GG@HPGGGHKI@?$AAD?$AAE?$AAV?$AAI?$AAC?$AAE?$AA_?$AAC?$AAO?$AAN?$AAF?$AAI?$AAG?$AA_?$AAS?$AAT?$AAA?$AAT?$AAU?$AAS?$AA_?$AAS?$AAC?$AAH?$AAE?$AAD?$AAU?$AAL?$AAI?$AAN?$AAG?$AA_@| [ DATA ] ; `string'
	EXPORT	|??_C@_1HG@KPBCOGEF@?$AAD?$AAE?$AAV?$AAI?$AAC?$AAE?$AA_?$AAC?$AAO?$AAN?$AAF?$AAI?$AAG?$AA_?$AAS?$AAT?$AAA?$AAT?$AAU?$AAS?$AA_?$AAS?$AAC?$AAH?$AAE?$AAD?$AAU?$AAL?$AAI?$AAN?$AAG?$AA_@| [ DATA ] ; `string'
	EXPORT	|??_C@_1FG@CFFAAPDL@?$AAD?$AAE?$AAV?$AAI?$AAC?$AAE?$AA_?$AAC?$AAO?$AAN?$AAF?$AAI?$AAG?$AA_?$AAS?$AAT?$AAA?$AAT?$AAU?$AAS?$AA_?$AAS?$AAC?$AAH?$AAE?$AAD?$AAU?$AAL?$AAI?$AAN?$AAG?$AA_@| [ DATA ] ; `string'
	EXPORT	|??_C@_1GA@NDHJOKMM@?$AAD?$AAE?$AAV?$AAI?$AAC?$AAE?$AA_?$AAC?$AAO?$AAN?$AAF?$AAI?$AAG?$AA_?$AAS?$AAT?$AAA?$AAT?$AAU?$AAS?$AA_?$AAD?$AAE?$AAT?$AAE?$AAR?$AAM?$AAI?$AAN?$AAE?$AA_?$AAC@| [ DATA ] ; `string'
	EXPORT	|??_C@_1GM@JADKDKDC@?$AAD?$AAE?$AAV?$AAI?$AAC?$AAE?$AA_?$AAC?$AAO?$AAN?$AAF?$AAI?$AAG?$AA_?$AAS?$AAT?$AAA?$AAT?$AAU?$AAS?$AA_?$AAS?$AAC?$AAH?$AAE?$AAD?$AAU?$AAL?$AAI?$AAN?$AAG?$AA_@| [ DATA ] ; `string'
	EXPORT	|??_C@_1HM@NPLCKJLH@?$AAD?$AAE?$AAV?$AAI?$AAC?$AAE?$AA_?$AAC?$AAO?$AAN?$AAF?$AAI?$AAG?$AA_?$AAS?$AAT?$AAA?$AAT?$AAU?$AAS?$AA_?$AAS?$AAC?$AAH?$AAE?$AAD?$AAU?$AAL?$AAI?$AAN?$AAG?$AA_@| [ DATA ] ; `string'
	EXPORT	|??_C@_1HE@MEMGEMJJ@?$AAD?$AAE?$AAV?$AAI?$AAC?$AAE?$AA_?$AAC?$AAO?$AAN?$AAF?$AAI?$AAG?$AA_?$AAS?$AAT?$AAA?$AAT?$AAU?$AAS?$AA_?$AAS?$AAE?$AAT?$AAU?$AAP?$AA_?$AAC?$AAO?$AAN?$AAF?$AAI@| [ DATA ] ; `string'
	EXPORT	|??_C@_1GM@BCHKIAPP@?$AAD?$AAE?$AAV?$AAI?$AAC?$AAE?$AA_?$AAC?$AAO?$AAN?$AAF?$AAI?$AAG?$AA_?$AAS?$AAT?$AAA?$AAT?$AAU?$AAS?$AA_?$AAS?$AAC?$AAH?$AAE?$AAD?$AAU?$AAL?$AAI?$AAN?$AAG?$AA_@| [ DATA ] ; `string'
	EXPORT	|??_C@_1HM@FNPCBDHK@?$AAD?$AAE?$AAV?$AAI?$AAC?$AAE?$AA_?$AAC?$AAO?$AAN?$AAF?$AAI?$AAG?$AA_?$AAS?$AAT?$AAA?$AAT?$AAU?$AAS?$AA_?$AAS?$AAC?$AAH?$AAE?$AAD?$AAU?$AAL?$AAI?$AAN?$AAG?$AA_@| [ DATA ] ; `string'
	EXPORT	|??_C@_1EI@BBOOKHNN@?$AAD?$AAE?$AAV?$AAI?$AAC?$AAE?$AA_?$AAC?$AAO?$AAN?$AAF?$AAI?$AAG?$AA_?$AAS?$AAT?$AAA?$AAT?$AAU?$AAS?$AA_?$AAL?$AAE?$AAA?$AAV?$AAE?$AA_?$AAA?$AAD?$AAD?$AAR?$AAE@| [ DATA ] ; `string'
	EXPORT	|??_C@_1FI@LGLHPFAK@?$AAD?$AAE?$AAV?$AAI?$AAC?$AAE?$AA_?$AAC?$AAO?$AAN?$AAF?$AAI?$AAG?$AA_?$AAS?$AAT?$AAA?$AAT?$AAU?$AAS?$AA_?$AAS?$AAC?$AAH?$AAE?$AAD?$AAU?$AAL?$AAI?$AAN?$AAG?$AA_@| [ DATA ] ; `string'
	EXPORT	|??_C@_1HG@BLNLBKIO@?$AAD?$AAE?$AAV?$AAI?$AAC?$AAE?$AA_?$AAC?$AAO?$AAN?$AAF?$AAI?$AAG?$AA_?$AAS?$AAT?$AAA?$AAT?$AAU?$AAS?$AA_?$AAS?$AAC?$AAH?$AAE?$AAD?$AAU?$AAL?$AAI?$AAN?$AAG?$AA_@| [ DATA ] ; `string'
	EXPORT	|??_C@_1FG@NMCKCJLL@?$AAD?$AAE?$AAV?$AAI?$AAC?$AAE?$AA_?$AAC?$AAO?$AAN?$AAF?$AAI?$AAG?$AA_?$AAS?$AAT?$AAA?$AAT?$AAU?$AAS?$AA_?$AAR?$AAE?$AAS?$AAE?$AAT?$AA_?$AAA?$AAN?$AAD?$AA_?$AAE@| [ DATA ] ; `string'
	EXPORT	|??_C@_1EI@KNOIBOPH@?$AAD?$AAE?$AAV?$AAI?$AAC?$AAE?$AA_?$AAC?$AAO?$AAN?$AAF?$AAI?$AAG?$AA_?$AAS?$AAT?$AAA?$AAT?$AAU?$AAS?$AA_?$AAU?$AAS?$AAI?$AAN?$AAG?$AA_?$AAA?$AAD?$AAD?$AAR?$AAE@| [ DATA ] ; `string'
	EXPORT	|??_C@_1FI@COMJHLEF@?$AAD?$AAE?$AAV?$AAI?$AAC?$AAE?$AA_?$AAC?$AAO?$AAN?$AAF?$AAI?$AAG?$AA_?$AAS?$AAT?$AAA?$AAT?$AAU?$AAS?$AA_?$AAO?$AAP?$AAE?$AAN?$AAI?$AAN?$AAG?$AA_?$AAE?$AAN?$AAD@| [ DATA ] ; `string'

  00000			 AREA	 |.data|, DATA
|cszCfgStateStrings| DCD |??_C@_1FI@COMJHLEF@?$AAD?$AAE?$AAV?$AAI?$AAC?$AAE?$AA_?$AAC?$AAO?$AAN?$AAF?$AAI?$AAG?$AA_?$AAS?$AAT?$AAA?$AAT?$AAU?$AAS?$AA_?$AAO?$AAP?$AAE?$AAN?$AAI?$AAN?$AAG?$AA_?$AAE?$AAN?$AAD@|
	DCD	|??_C@_1EI@KNOIBOPH@?$AAD?$AAE?$AAV?$AAI?$AAC?$AAE?$AA_?$AAC?$AAO?$AAN?$AAF?$AAI?$AAG?$AA_?$AAS?$AAT?$AAA?$AAT?$AAU?$AAS?$AA_?$AAU?$AAS?$AAI?$AAN?$AAG?$AA_?$AAA?$AAD?$AAD?$AAR?$AAE@|
	DCD	|??_C@_1FG@NMCKCJLL@?$AAD?$AAE?$AAV?$AAI?$AAC?$AAE?$AA_?$AAC?$AAO?$AAN?$AAF?$AAI?$AAG?$AA_?$AAS?$AAT?$AAA?$AAT?$AAU?$AAS?$AA_?$AAR?$AAE?$AAS?$AAE?$AAT?$AA_?$AAA?$AAN?$AAD?$AA_?$AAE@|
	DCD	|??_C@_1HG@BLNLBKIO@?$AAD?$AAE?$AAV?$AAI?$AAC?$AAE?$AA_?$AAC?$AAO?$AAN?$AAF?$AAI?$AAG?$AA_?$AAS?$AAT?$AAA?$AAT?$AAU?$AAS?$AA_?$AAS?$AAC?$AAH?$AAE?$AAD?$AAU?$AAL?$AAI?$AAN?$AAG?$AA_@|
	DCD	|??_C@_1FI@LGLHPFAK@?$AAD?$AAE?$AAV?$AAI?$AAC?$AAE?$AA_?$AAC?$AAO?$AAN?$AAF?$AAI?$AAG?$AA_?$AAS?$AAT?$AAA?$AAT?$AAU?$AAS?$AA_?$AAS?$AAC?$AAH?$AAE?$AAD?$AAU?$AAL?$AAI?$AAN?$AAG?$AA_@|
	DCD	|??_C@_1EI@BBOOKHNN@?$AAD?$AAE?$AAV?$AAI?$AAC?$AAE?$AA_?$AAC?$AAO?$AAN?$AAF?$AAI?$AAG?$AA_?$AAS?$AAT?$AAA?$AAT?$AAU?$AAS?$AA_?$AAL?$AAE?$AAA?$AAV?$AAE?$AA_?$AAA?$AAD?$AAD?$AAR?$AAE@|
	DCD	|??_C@_1HM@FNPCBDHK@?$AAD?$AAE?$AAV?$AAI?$AAC?$AAE?$AA_?$AAC?$AAO?$AAN?$AAF?$AAI?$AAG?$AA_?$AAS?$AAT?$AAA?$AAT?$AAU?$AAS?$AA_?$AAS?$AAC?$AAH?$AAE?$AAD?$AAU?$AAL?$AAI?$AAN?$AAG?$AA_@|
	DCD	|??_C@_1GM@BCHKIAPP@?$AAD?$AAE?$AAV?$AAI?$AAC?$AAE?$AA_?$AAC?$AAO?$AAN?$AAF?$AAI?$AAG?$AA_?$AAS?$AAT?$AAA?$AAT?$AAU?$AAS?$AA_?$AAS?$AAC?$AAH?$AAE?$AAD?$AAU?$AAL?$AAI?$AAN?$AAG?$AA_@|
	DCD	|??_C@_1HE@MEMGEMJJ@?$AAD?$AAE?$AAV?$AAI?$AAC?$AAE?$AA_?$AAC?$AAO?$AAN?$AAF?$AAI?$AAG?$AA_?$AAS?$AAT?$AAA?$AAT?$AAU?$AAS?$AA_?$AAS?$AAE?$AAT?$AAU?$AAP?$AA_?$AAC?$AAO?$AAN?$AAF?$AAI@|
	DCD	|??_C@_1HM@NPLCKJLH@?$AAD?$AAE?$AAV?$AAI?$AAC?$AAE?$AA_?$AAC?$AAO?$AAN?$AAF?$AAI?$AAG?$AA_?$AAS?$AAT?$AAA?$AAT?$AAU?$AAS?$AA_?$AAS?$AAC?$AAH?$AAE?$AAD?$AAU?$AAL?$AAI?$AAN?$AAG?$AA_@|
	DCD	|??_C@_1GM@JADKDKDC@?$AAD?$AAE?$AAV?$AAI?$AAC?$AAE?$AA_?$AAC?$AAO?$AAN?$AAF?$AAI?$AAG?$AA_?$AAS?$AAT?$AAA?$AAT?$AAU?$AAS?$AA_?$AAS?$AAC?$AAH?$AAE?$AAD?$AAU?$AAL?$AAI?$AAN?$AAG?$AA_@|
	DCD	|??_C@_1GA@NDHJOKMM@?$AAD?$AAE?$AAV?$AAI?$AAC?$AAE?$AA_?$AAC?$AAO?$AAN?$AAF?$AAI?$AAG?$AA_?$AAS?$AAT?$AAA?$AAT?$AAU?$AAS?$AA_?$AAD?$AAE?$AAT?$AAE?$AAR?$AAM?$AAI?$AAN?$AAE?$AA_?$AAC@|
	DCD	|??_C@_1FG@CFFAAPDL@?$AAD?$AAE?$AAV?$AAI?$AAC?$AAE?$AA_?$AAC?$AAO?$AAN?$AAF?$AAI?$AAG?$AA_?$AAS?$AAT?$AAA?$AAT?$AAU?$AAS?$AA_?$AAS?$AAC?$AAH?$AAE?$AAD?$AAU?$AAL?$AAI?$AAN?$AAG?$AA_@|
	DCD	|??_C@_1HG@KPBCOGEF@?$AAD?$AAE?$AAV?$AAI?$AAC?$AAE?$AA_?$AAC?$AAO?$AAN?$AAF?$AAI?$AAG?$AA_?$AAS?$AAT?$AAA?$AAT?$AAU?$AAS?$AA_?$AAS?$AAC?$AAH?$AAE?$AAD?$AAU?$AAL?$AAI?$AAN?$AAG?$AA_@|
	DCD	|??_C@_1GG@HPGGGHKI@?$AAD?$AAE?$AAV?$AAI?$AAC?$AAE?$AA_?$AAC?$AAO?$AAN?$AAF?$AAI?$AAG?$AA_?$AAS?$AAT?$AAA?$AAT?$AAU?$AAS?$AA_?$AAS?$AAC?$AAH?$AAE?$AAD?$AAU?$AAL?$AAI?$AAN?$AAG?$AA_@|
	DCD	|??_C@_1EI@COKEBMOE@?$AAD?$AAE?$AAV?$AAI?$AAC?$AAE?$AA_?$AAC?$AAO?$AAN?$AAF?$AAI?$AAG?$AA_?$AAS?$AAT?$AAA?$AAT?$AAU?$AAS?$AA_?$AAC?$AAR?$AAE?$AAA?$AAT?$AAE?$AA_?$AAN?$AAE?$AAW?$AA_@|
	DCD	|??_C@_1FC@LCLFDJDO@?$AAD?$AAE?$AAV?$AAI?$AAC?$AAE?$AA_?$AAC?$AAO?$AAN?$AAF?$AAI?$AAG?$AA_?$AAS?$AAT?$AAA?$AAT?$AAU?$AAS?$AA_?$AAC?$AAR?$AAE?$AAA?$AAT?$AAE?$AA_?$AAN?$AAE?$AAW?$AA_@|
	DCD	|??_C@_1II@FBBOBKGN@?$AAD?$AAE?$AAV?$AAI?$AAC?$AAE?$AA_?$AAC?$AAO?$AAN?$AAF?$AAI?$AAG?$AA_?$AAS?$AAT?$AAA?$AAT?$AAU?$AAS?$AA_?$AAI?$AAN?$AAS?$AAE?$AAR?$AAT?$AA_?$AAN?$AAE?$AAW?$AA_@|
	DCD	|??_C@_1HO@PGHDEMEK@?$AAD?$AAE?$AAV?$AAI?$AAC?$AAE?$AA_?$AAC?$AAO?$AAN?$AAF?$AAI?$AAG?$AA_?$AAS?$AAT?$AAA?$AAT?$AAU?$AAS?$AA_?$AAS?$AAI?$AAG?$AAN?$AAA?$AAL?$AA_?$AAN?$AAE?$AAW?$AA_@|
	DCD	|??_C@_1DI@CEGNOBAM@?$AAD?$AAE?$AAV?$AAI?$AAC?$AAE?$AA_?$AAC?$AAO?$AAN?$AAF?$AAI?$AAG?$AA_?$AAS?$AAT?$AAA?$AAT?$AAU?$AAS?$AA_?$AAF?$AAA?$AAI?$AAL?$AAE?$AAD?$AA?$AA@|
	DCD	|??_C@_1DE@IMCKALLA@?$AAD?$AAE?$AAV?$AAI?$AAC?$AAE?$AA_?$AAC?$AAO?$AAN?$AAF?$AAI?$AAG?$AA_?$AAS?$AAT?$AAA?$AAT?$AAU?$AAS?$AA_?$AAD?$AAO?$AAN?$AAE?$AA?$AA@|
	DCD	|??_C@_1DK@JPBDFEOB@?$AAD?$AAE?$AAV?$AAI?$AAC?$AAE?$AA_?$AAC?$AAO?$AAN?$AAF?$AAI?$AAG?$AA_?$AAS?$AAT?$AAA?$AAT?$AAU?$AAS?$AA_?$AAI?$AAN?$AAV?$AAA?$AAL?$AAI?$AAD?$AA?$AA@|

  00000			 AREA	 |.rdata|, DATA, READONLY
|??_C@_1DK@JPBDFEOB@?$AAD?$AAE?$AAV?$AAI?$AAC?$AAE?$AA_?$AAC?$AAO?$AAN?$AAF?$AAI?$AAG?$AA_?$AAS?$AAT?$AAA?$AAT?$AAU?$AAS?$AA_?$AAI?$AAN?$AAV?$AAA?$AAL?$AAI?$AAD?$AA?$AA@| DCB "D"
	DCB	0x0, "E", 0x0, "V", 0x0, "I", 0x0, "C", 0x0, "E", 0x0, "_"
	DCB	0x0, "C", 0x0, "O", 0x0, "N", 0x0, "F", 0x0, "I", 0x0, "G"
	DCB	0x0, "_", 0x0, "S", 0x0, "T", 0x0, "A", 0x0, "T", 0x0, "U"
	DCB	0x0, "S", 0x0, "_", 0x0, "I", 0x0, "N", 0x0, "V", 0x0, "A"
	DCB	0x0, "L", 0x0, "I", 0x0, "D", 0x0, 0x0, 0x0 ; `string'

  00000			 AREA	 |.rdata|, DATA, READONLY
|??_C@_1DE@IMCKALLA@?$AAD?$AAE?$AAV?$AAI?$AAC?$AAE?$AA_?$AAC?$AAO?$AAN?$AAF?$AAI?$AAG?$AA_?$AAS?$AAT?$AAA?$AAT?$AAU?$AAS?$AA_?$AAD?$AAO?$AAN?$AAE?$AA?$AA@| DCB "D"
	DCB	0x0, "E", 0x0, "V", 0x0, "I", 0x0, "C", 0x0, "E", 0x0, "_"
	DCB	0x0, "C", 0x0, "O", 0x0, "N", 0x0, "F", 0x0, "I", 0x0, "G"
	DCB	0x0, "_", 0x0, "S", 0x0, "T", 0x0, "A", 0x0, "T", 0x0, "U"
	DCB	0x0, "S", 0x0, "_", 0x0, "D", 0x0, "O", 0x0, "N", 0x0, "E"
	DCB	0x0, 0x0, 0x0				; `string'

  00000			 AREA	 |.rdata|, DATA, READONLY
|??_C@_1DI@CEGNOBAM@?$AAD?$AAE?$AAV?$AAI?$AAC?$AAE?$AA_?$AAC?$AAO?$AAN?$AAF?$AAI?$AAG?$AA_?$AAS?$AAT?$AAA?$AAT?$AAU?$AAS?$AA_?$AAF?$AAA?$AAI?$AAL?$AAE?$AAD?$AA?$AA@| DCB "D"
	DCB	0x0, "E", 0x0, "V", 0x0, "I", 0x0, "C", 0x0, "E", 0x0, "_"
	DCB	0x0, "C", 0x0, "O", 0x0, "N", 0x0, "F", 0x0, "I", 0x0, "G"
	DCB	0x0, "_", 0x0, "S", 0x0, "T", 0x0, "A", 0x0, "T", 0x0, "U"
	DCB	0x0, "S", 0x0, "_", 0x0, "F", 0x0, "A", 0x0, "I", 0x0, "L"
	DCB	0x0, "E", 0x0, "D", 0x0, 0x0, 0x0	; `string'

  00000			 AREA	 |.rdata|, DATA, READONLY
|??_C@_1HO@PGHDEMEK@?$AAD?$AAE?$AAV?$AAI?$AAC?$AAE?$AA_?$AAC?$AAO?$AAN?$AAF?$AAI?$AAG?$AA_?$AAS?$AAT?$AAA?$AAT?$AAU?$AAS?$AA_?$AAS?$AAI?$AAG?$AAN?$AAA?$AAL?$AA_?$AAN?$AAE?$AAW?$AA_@| DCB "D"
	DCB	0x0, "E", 0x0, "V", 0x0, "I", 0x0, "C", 0x0, "E", 0x0, "_"
	DCB	0x0, "C", 0x0, "O", 0x0, "N", 0x0, "F", 0x0, "I", 0x0, "G"
	DCB	0x0, "_", 0x0, "S", 0x0, "T", 0x0, "A", 0x0, "T", 0x0, "U"
	DCB	0x0, "S", 0x0, "_", 0x0, "S", 0x0, "I", 0x0, "G", 0x0, "N"
	DCB	0x0, "A", 0x0, "L", 0x0, "_", 0x0, "N", 0x0, "E", 0x0, "W"
	DCB	0x0, "_", 0x0, "D", 0x0, "E", 0x0, "V", 0x0, "I", 0x0, "C"
	DCB	0x0, "E", 0x0, "_", 0x0, "E", 0x0, "N", 0x0, "T", 0x0, "E"
	DCB	0x0, "R", 0x0, "_", 0x0, "O", 0x0, "P", 0x0, "E", 0x0, "R"
	DCB	0x0, "A", 0x0, "T", 0x0, "I", 0x0, "O", 0x0, "N", 0x0, "A"
	DCB	0x0, "L", 0x0, "_", 0x0, "S", 0x0, "T", 0x0, "A", 0x0, "T"
	DCB	0x0, "E", 0x0, 0x0, 0x0			; `string'

  00000			 AREA	 |.rdata|, DATA, READONLY
|??_C@_1II@FBBOBKGN@?$AAD?$AAE?$AAV?$AAI?$AAC?$AAE?$AA_?$AAC?$AAO?$AAN?$AAF?$AAI?$AAG?$AA_?$AAS?$AAT?$AAA?$AAT?$AAU?$AAS?$AA_?$AAI?$AAN?$AAS?$AAE?$AAR?$AAT?$AA_?$AAN?$AAE?$AAW?$AA_@| DCB "D"
	DCB	0x0, "E", 0x0, "V", 0x0, "I", 0x0, "C", 0x0, "E", 0x0, "_"
	DCB	0x0, "C", 0x0, "O", 0x0, "N", 0x0, "F", 0x0, "I", 0x0, "G"
	DCB	0x0, "_", 0x0, "S", 0x0, "T", 0x0, "A", 0x0, "T", 0x0, "U"
	DCB	0x0, "S", 0x0, "_", 0x0, "I", 0x0, "N", 0x0, "S", 0x0, "E"
	DCB	0x0, "R", 0x0, "T", 0x0, "_", 0x0, "N", 0x0, "E", 0x0, "W"
	DCB	0x0, "_", 0x0, "D", 0x0, "E", 0x0, "V", 0x0, "I", 0x0, "C"
	DCB	0x0, "E", 0x0, "_", 0x0, "I", 0x0, "N", 0x0, "T", 0x0, "O"
	DCB	0x0, "_", 0x0, "U", 0x0, "P", 0x0, "S", 0x0, "T", 0x0, "R"
	DCB	0x0, "E", 0x0, "A", 0x0, "M", 0x0, "_", 0x0, "H", 0x0, "U"
	DCB	0x0, "B", 0x0, "_", 0x0, "P", 0x0, "O", 0x0, "R", 0x0, "T"
	DCB	0x0, "_", 0x0, "A", 0x0, "R", 0x0, "R", 0x0, "A", 0x0, "Y"
	DCB	0x0, 0x0, 0x0				; `string'

  00000			 AREA	 |.rdata|, DATA, READONLY
|??_C@_1FC@LCLFDJDO@?$AAD?$AAE?$AAV?$AAI?$AAC?$AAE?$AA_?$AAC?$AAO?$AAN?$AAF?$AAI?$AAG?$AA_?$AAS?$AAT?$AAA?$AAT?$AAU?$AAS?$AA_?$AAC?$AAR?$AAE?$AAA?$AAT?$AAE?$AA_?$AAN?$AAE?$AAW?$AA_@| DCB "D"
	DCB	0x0, "E", 0x0, "V", 0x0, "I", 0x0, "C", 0x0, "E", 0x0, "_"
	DCB	0x0, "C", 0x0, "O", 0x0, "N", 0x0, "F", 0x0, "I", 0x0, "G"
	DCB	0x0, "_", 0x0, "S", 0x0, "T", 0x0, "A", 0x0, "T", 0x0, "U"
	DCB	0x0, "S", 0x0, "_", 0x0, "C", 0x0, "R", 0x0, "E", 0x0, "A"
	DCB	0x0, "T", 0x0, "E", 0x0, "_", 0x0, "N", 0x0, "E", 0x0, "W"
	DCB	0x0, "_", 0x0, "F", 0x0, "U", 0x0, "N", 0x0, "C", 0x0, "T"
	DCB	0x0, "I", 0x0, "O", 0x0, "N", 0x0, 0x0, 0x0 ; `string'

  00000			 AREA	 |.rdata|, DATA, READONLY
|??_C@_1EI@COKEBMOE@?$AAD?$AAE?$AAV?$AAI?$AAC?$AAE?$AA_?$AAC?$AAO?$AAN?$AAF?$AAI?$AAG?$AA_?$AAS?$AAT?$AAA?$AAT?$AAU?$AAS?$AA_?$AAC?$AAR?$AAE?$AAA?$AAT?$AAE?$AA_?$AAN?$AAE?$AAW?$AA_@| DCB "D"
	DCB	0x0, "E", 0x0, "V", 0x0, "I", 0x0, "C", 0x0, "E", 0x0, "_"
	DCB	0x0, "C", 0x0, "O", 0x0, "N", 0x0, "F", 0x0, "I", 0x0, "G"
	DCB	0x0, "_", 0x0, "S", 0x0, "T", 0x0, "A", 0x0, "T", 0x0, "U"
	DCB	0x0, "S", 0x0, "_", 0x0, "C", 0x0, "R", 0x0, "E", 0x0, "A"
	DCB	0x0, "T", 0x0, "E", 0x0, "_", 0x0, "N", 0x0, "E", 0x0, "W"
	DCB	0x0, "_", 0x0, "H", 0x0, "U", 0x0, "B", 0x0, 0x0, 0x0 ; `string'

  00000			 AREA	 |.rdata|, DATA, READONLY
|??_C@_1GG@HPGGGHKI@?$AAD?$AAE?$AAV?$AAI?$AAC?$AAE?$AA_?$AAC?$AAO?$AAN?$AAF?$AAI?$AAG?$AA_?$AAS?$AAT?$AAA?$AAT?$AAU?$AAS?$AA_?$AAS?$AAC?$AAH?$AAE?$AAD?$AAU?$AAL?$AAI?$AAN?$AAG?$AA_@| DCB "D"
	DCB	0x0, "E", 0x0, "V", 0x0, "I", 0x0, "C", 0x0, "E", 0x0, "_"
	DCB	0x0, "C", 0x0, "O", 0x0, "N", 0x0, "F", 0x0, "I", 0x0, "G"
	DCB	0x0, "_", 0x0, "S", 0x0, "T", 0x0, "A", 0x0, "T", 0x0, "U"
	DCB	0x0, "S", 0x0, "_", 0x0, "S", 0x0, "C", 0x0, "H", 0x0, "E"
	DCB	0x0, "D", 0x0, "U", 0x0, "L", 0x0, "I", 0x0, "N", 0x0, "G"
	DCB	0x0, "_", 0x0, "G", 0x0, "E", 0x0, "T", 0x0, "_", 0x0, "H"
	DCB	0x0, "U", 0x0, "B", 0x0, "_", 0x0, "D", 0x0, "E", 0x0, "S"
	DCB	0x0, "C", 0x0, "R", 0x0, "I", 0x0, "P", 0x0, "T", 0x0, "O"
	DCB	0x0, "R", 0x0, 0x0, 0x0			; `string'

  00000			 AREA	 |.rdata|, DATA, READONLY
|??_C@_1HG@KPBCOGEF@?$AAD?$AAE?$AAV?$AAI?$AAC?$AAE?$AA_?$AAC?$AAO?$AAN?$AAF?$AAI?$AAG?$AA_?$AAS?$AAT?$AAA?$AAT?$AAU?$AAS?$AA_?$AAS?$AAC?$AAH?$AAE?$AAD?$AAU?$AAL?$AAI?$AAN?$AAG?$AA_@| DCB "D"
	DCB	0x0, "E", 0x0, "V", 0x0, "I", 0x0, "C", 0x0, "E", 0x0, "_"
	DCB	0x0, "C", 0x0, "O", 0x0, "N", 0x0, "F", 0x0, "I", 0x0, "G"
	DCB	0x0, "_", 0x0, "S", 0x0, "T", 0x0, "A", 0x0, "T", 0x0, "U"
	DCB	0x0, "S", 0x0, "_", 0x0, "S", 0x0, "C", 0x0, "H", 0x0, "E"
	DCB	0x0, "D", 0x0, "U", 0x0, "L", 0x0, "I", 0x0, "N", 0x0, "G"
	DCB	0x0, "_", 0x0, "G", 0x0, "E", 0x0, "T", 0x0, "_", 0x0, "I"
	DCB	0x0, "N", 0x0, "I", 0x0, "T", 0x0, "I", 0x0, "A", 0x0, "L"
	DCB	0x0, "_", 0x0, "H", 0x0, "U", 0x0, "B", 0x0, "_", 0x0, "D"
	DCB	0x0, "E", 0x0, "S", 0x0, "C", 0x0, "R", 0x0, "I", 0x0, "P"
	DCB	0x0, "T", 0x0, "O", 0x0, "R", 0x0, 0x0, 0x0 ; `string'

  00000			 AREA	 |.rdata|, DATA, READONLY
|??_C@_1FG@CFFAAPDL@?$AAD?$AAE?$AAV?$AAI?$AAC?$AAE?$AA_?$AAC?$AAO?$AAN?$AAF?$AAI?$AAG?$AA_?$AAS?$AAT?$AAA?$AAT?$AAU?$AAS?$AA_?$AAS?$AAC?$AAH?$AAE?$AAD?$AAU?$AAL?$AAI?$AAN?$AAG?$AA_@| DCB "D"
	DCB	0x0, "E", 0x0, "V", 0x0, "I", 0x0, "C", 0x0, "E", 0x0, "_"
	DCB	0x0, "C", 0x0, "O", 0x0, "N", 0x0, "F", 0x0, "I", 0x0, "G"
	DCB	0x0, "_", 0x0, "S", 0x0, "T", 0x0, "A", 0x0, "T", 0x0, "U"
	DCB	0x0, "S", 0x0, "_", 0x0, "S", 0x0, "C", 0x0, "H", 0x0, "E"
	DCB	0x0, "D", 0x0, "U", 0x0, "L", 0x0, "I", 0x0, "N", 0x0, "G"
	DCB	0x0, "_", 0x0, "S", 0x0, "E", 0x0, "T", 0x0, "_", 0x0, "C"
	DCB	0x0, "O", 0x0, "N", 0x0, "F", 0x0, "I", 0x0, "G", 0x0, 0x0
	DCB	0x0					; `string'

  00000			 AREA	 |.rdata|, DATA, READONLY
|??_C@_1GA@NDHJOKMM@?$AAD?$AAE?$AAV?$AAI?$AAC?$AAE?$AA_?$AAC?$AAO?$AAN?$AAF?$AAI?$AAG?$AA_?$AAS?$AAT?$AAA?$AAT?$AAU?$AAS?$AA_?$AAD?$AAE?$AAT?$AAE?$AAR?$AAM?$AAI?$AAN?$AAE?$AA_?$AAC@| DCB "D"
	DCB	0x0, "E", 0x0, "V", 0x0, "I", 0x0, "C", 0x0, "E", 0x0, "_"
	DCB	0x0, "C", 0x0, "O", 0x0, "N", 0x0, "F", 0x0, "I", 0x0, "G"
	DCB	0x0, "_", 0x0, "S", 0x0, "T", 0x0, "A", 0x0, "T", 0x0, "U"
	DCB	0x0, "S", 0x0, "_", 0x0, "D", 0x0, "E", 0x0, "T", 0x0, "E"
	DCB	0x0, "R", 0x0, "M", 0x0, "I", 0x0, "N", 0x0, "E", 0x0, "_"
	DCB	0x0, "C", 0x0, "O", 0x0, "N", 0x0, "F", 0x0, "I", 0x0, "G"
	DCB	0x0, "_", 0x0, "T", 0x0, "O", 0x0, "_", 0x0, "C", 0x0, "H"
	DCB	0x0, "O", 0x0, "O", 0x0, "S", 0x0, "E", 0x0, 0x0, 0x0 ; `string'

  00000			 AREA	 |.rdata|, DATA, READONLY
|??_C@_1GM@JADKDKDC@?$AAD?$AAE?$AAV?$AAI?$AAC?$AAE?$AA_?$AAC?$AAO?$AAN?$AAF?$AAI?$AAG?$AA_?$AAS?$AAT?$AAA?$AAT?$AAU?$AAS?$AA_?$AAS?$AAC?$AAH?$AAE?$AAD?$AAU?$AAL?$AAI?$AAN?$AAG?$AA_@| DCB "D"
	DCB	0x0, "E", 0x0, "V", 0x0, "I", 0x0, "C", 0x0, "E", 0x0, "_"
	DCB	0x0, "C", 0x0, "O", 0x0, "N", 0x0, "F", 0x0, "I", 0x0, "G"
	DCB	0x0, "_", 0x0, "S", 0x0, "T", 0x0, "A", 0x0, "T", 0x0, "U"
	DCB	0x0, "S", 0x0, "_", 0x0, "S", 0x0, "C", 0x0, "H", 0x0, "E"
	DCB	0x0, "D", 0x0, "U", 0x0, "L", 0x0, "I", 0x0, "N", 0x0, "G"
	DCB	0x0, "_", 0x0, "G", 0x0, "E", 0x0, "T", 0x0, "_", 0x0, "C"
	DCB	0x0, "O", 0x0, "N", 0x0, "F", 0x0, "I", 0x0, "G", 0x0, "_"
	DCB	0x0, "D", 0x0, "E", 0x0, "S", 0x0, "C", 0x0, "R", 0x0, "I"
	DCB	0x0, "P", 0x0, "T", 0x0, "O", 0x0, "R", 0x0, 0x0, 0x0 ; `string'

  00000			 AREA	 |.rdata|, DATA, READONLY
|??_C@_1HM@NPLCKJLH@?$AAD?$AAE?$AAV?$AAI?$AAC?$AAE?$AA_?$AAC?$AAO?$AAN?$AAF?$AAI?$AAG?$AA_?$AAS?$AAT?$AAA?$AAT?$AAU?$AAS?$AA_?$AAS?$AAC?$AAH?$AAE?$AAD?$AAU?$AAL?$AAI?$AAN?$AAG?$AA_@| DCB "D"
	DCB	0x0, "E", 0x0, "V", 0x0, "I", 0x0, "C", 0x0, "E", 0x0, "_"
	DCB	0x0, "C", 0x0, "O", 0x0, "N", 0x0, "F", 0x0, "I", 0x0, "G"
	DCB	0x0, "_", 0x0, "S", 0x0, "T", 0x0, "A", 0x0, "T", 0x0, "U"
	DCB	0x0, "S", 0x0, "_", 0x0, "S", 0x0, "C", 0x0, "H", 0x0, "E"
	DCB	0x0, "D", 0x0, "U", 0x0, "L", 0x0, "I", 0x0, "N", 0x0, "G"
	DCB	0x0, "_", 0x0, "G", 0x0, "E", 0x0, "T", 0x0, "_", 0x0, "I"
	DCB	0x0, "N", 0x0, "I", 0x0, "T", 0x0, "I", 0x0, "A", 0x0, "L"
	DCB	0x0, "_", 0x0, "C", 0x0, "O", 0x0, "N", 0x0, "F", 0x0, "I"
	DCB	0x0, "G", 0x0, "_", 0x0, "D", 0x0, "E", 0x0, "S", 0x0, "C"
	DCB	0x0, "R", 0x0, "I", 0x0, "P", 0x0, "T", 0x0, "O", 0x0, "R"
	DCB	0x0, 0x0, 0x0				; `string'

  00000			 AREA	 |.rdata|, DATA, READONLY
|??_C@_1HE@MEMGEMJJ@?$AAD?$AAE?$AAV?$AAI?$AAC?$AAE?$AA_?$AAC?$AAO?$AAN?$AAF?$AAI?$AAG?$AA_?$AAS?$AAT?$AAA?$AAT?$AAU?$AAS?$AA_?$AAS?$AAE?$AAT?$AAU?$AAP?$AA_?$AAC?$AAO?$AAN?$AAF?$AAI@| DCB "D"
	DCB	0x0, "E", 0x0, "V", 0x0, "I", 0x0, "C", 0x0, "E", 0x0, "_"
	DCB	0x0, "C", 0x0, "O", 0x0, "N", 0x0, "F", 0x0, "I", 0x0, "G"
	DCB	0x0, "_", 0x0, "S", 0x0, "T", 0x0, "A", 0x0, "T", 0x0, "U"
	DCB	0x0, "S", 0x0, "_", 0x0, "S", 0x0, "E", 0x0, "T", 0x0, "U"
	DCB	0x0, "P", 0x0, "_", 0x0, "C", 0x0, "O", 0x0, "N", 0x0, "F"
	DCB	0x0, "I", 0x0, "G", 0x0, "U", 0x0, "R", 0x0, "A", 0x0, "T"
	DCB	0x0, "I", 0x0, "O", 0x0, "N", 0x0, "_", 0x0, "D", 0x0, "E"
	DCB	0x0, "S", 0x0, "C", 0x0, "R", 0x0, "I", 0x0, "P", 0x0, "T"
	DCB	0x0, "O", 0x0, "R", 0x0, "_", 0x0, "A", 0x0, "R", 0x0, "R"
	DCB	0x0, "A", 0x0, "Y", 0x0, 0x0, 0x0	; `string'

  00000			 AREA	 |.rdata|, DATA, READONLY
|??_C@_1GM@BCHKIAPP@?$AAD?$AAE?$AAV?$AAI?$AAC?$AAE?$AA_?$AAC?$AAO?$AAN?$AAF?$AAI?$AAG?$AA_?$AAS?$AAT?$AAA?$AAT?$AAU?$AAS?$AA_?$AAS?$AAC?$AAH?$AAE?$AAD?$AAU?$AAL?$AAI?$AAN?$AAG?$AA_@| DCB "D"
	DCB	0x0, "E", 0x0, "V", 0x0, "I", 0x0, "C", 0x0, "E", 0x0, "_"
	DCB	0x0, "C", 0x0, "O", 0x0, "N", 0x0, "F", 0x0, "I", 0x0, "G"
	DCB	0x0, "_", 0x0, "S", 0x0, "T", 0x0, "A", 0x0, "T", 0x0, "U"
	DCB	0x0, "S", 0x0, "_", 0x0, "S", 0x0, "C", 0x0, "H", 0x0, "E"
	DCB	0x0, "D", 0x0, "U", 0x0, "L", 0x0, "I", 0x0, "N", 0x0, "G"
	DCB	0x0, "_", 0x0, "G", 0x0, "E", 0x0, "T", 0x0, "_", 0x0, "D"
	DCB	0x0, "E", 0x0, "V", 0x0, "I", 0x0, "C", 0x0, "E", 0x0, "_"
	DCB	0x0, "D", 0x0, "E", 0x0, "S", 0x0, "C", 0x0, "R", 0x0, "I"
	DCB	0x0, "P", 0x0, "T", 0x0, "O", 0x0, "R", 0x0, 0x0, 0x0 ; `string'

  00000			 AREA	 |.rdata|, DATA, READONLY
|??_C@_1HM@FNPCBDHK@?$AAD?$AAE?$AAV?$AAI?$AAC?$AAE?$AA_?$AAC?$AAO?$AAN?$AAF?$AAI?$AAG?$AA_?$AAS?$AAT?$AAA?$AAT?$AAU?$AAS?$AA_?$AAS?$AAC?$AAH?$AAE?$AAD?$AAU?$AAL?$AAI?$AAN?$AAG?$AA_@| DCB "D"
	DCB	0x0, "E", 0x0, "V", 0x0, "I", 0x0, "C", 0x0, "E", 0x0, "_"
	DCB	0x0, "C", 0x0, "O", 0x0, "N", 0x0, "F", 0x0, "I", 0x0, "G"
	DCB	0x0, "_", 0x0, "S", 0x0, "T", 0x0, "A", 0x0, "T", 0x0, "U"
	DCB	0x0, "S", 0x0, "_", 0x0, "S", 0x0, "C", 0x0, "H", 0x0, "E"
	DCB	0x0, "D", 0x0, "U", 0x0, "L", 0x0, "I", 0x0, "N", 0x0, "G"
	DCB	0x0, "_", 0x0, "G", 0x0, "E", 0x0, "T", 0x0, "_", 0x0, "I"
	DCB	0x0, "N", 0x0, "I", 0x0, "T", 0x0, "I", 0x0, "A", 0x0, "L"
	DCB	0x0, "_", 0x0, "D", 0x0, "E", 0x0, "V", 0x0, "I", 0x0, "C"
	DCB	0x0, "E", 0x0, "_", 0x0, "D", 0x0, "E", 0x0, "S", 0x0, "C"
	DCB	0x0, "R", 0x0, "I", 0x0, "P", 0x0, "T", 0x0, "O", 0x0, "R"
	DCB	0x0, 0x0, 0x0				; `string'

  00000			 AREA	 |.rdata|, DATA, READONLY
|??_C@_1EI@BBOOKHNN@?$AAD?$AAE?$AAV?$AAI?$AAC?$AAE?$AA_?$AAC?$AAO?$AAN?$AAF?$AAI?$AAG?$AA_?$AAS?$AAT?$AAA?$AAT?$AAU?$AAS?$AA_?$AAL?$AAE?$AAA?$AAV?$AAE?$AA_?$AAA?$AAD?$AAD?$AAR?$AAE@| DCB "D"
	DCB	0x0, "E", 0x0, "V", 0x0, "I", 0x0, "C", 0x0, "E", 0x0, "_"
	DCB	0x0, "C", 0x0, "O", 0x0, "N", 0x0, "F", 0x0, "I", 0x0, "G"
	DCB	0x0, "_", 0x0, "S", 0x0, "T", 0x0, "A", 0x0, "T", 0x0, "U"
	DCB	0x0, "S", 0x0, "_", 0x0, "L", 0x0, "E", 0x0, "A", 0x0, "V"
	DCB	0x0, "E", 0x0, "_", 0x0, "A", 0x0, "D", 0x0, "D", 0x0, "R"
	DCB	0x0, "E", 0x0, "S", 0x0, "S", 0x0, "0", 0x0, 0x0, 0x0 ; `string'

  00000			 AREA	 |.rdata|, DATA, READONLY
|??_C@_1FI@LGLHPFAK@?$AAD?$AAE?$AAV?$AAI?$AAC?$AAE?$AA_?$AAC?$AAO?$AAN?$AAF?$AAI?$AAG?$AA_?$AAS?$AAT?$AAA?$AAT?$AAU?$AAS?$AA_?$AAS?$AAC?$AAH?$AAE?$AAD?$AAU?$AAL?$AAI?$AAN?$AAG?$AA_@| DCB "D"
	DCB	0x0, "E", 0x0, "V", 0x0, "I", 0x0, "C", 0x0, "E", 0x0, "_"
	DCB	0x0, "C", 0x0, "O", 0x0, "N", 0x0, "F", 0x0, "I", 0x0, "G"
	DCB	0x0, "_", 0x0, "S", 0x0, "T", 0x0, "A", 0x0, "T", 0x0, "U"
	DCB	0x0, "S", 0x0, "_", 0x0, "S", 0x0, "C", 0x0, "H", 0x0, "E"
	DCB	0x0, "D", 0x0, "U", 0x0, "L", 0x0, "I", 0x0, "N", 0x0, "G"
	DCB	0x0, "_", 0x0, "S", 0x0, "E", 0x0, "T", 0x0, "_", 0x0, "A"
	DCB	0x0, "D", 0x0, "D", 0x0, "R", 0x0, "E", 0x0, "S", 0x0, "S"
	DCB	0x0, 0x0, 0x0				; `string'

  00000			 AREA	 |.rdata|, DATA, READONLY
|??_C@_1HG@BLNLBKIO@?$AAD?$AAE?$AAV?$AAI?$AAC?$AAE?$AA_?$AAC?$AAO?$AAN?$AAF?$AAI?$AAG?$AA_?$AAS?$AAT?$AAA?$AAT?$AAU?$AAS?$AA_?$AAS?$AAC?$AAH?$AAE?$AAD?$AAU?$AAL?$AAI?$AAN?$AAG?$AA_@| DCB "D"
	DCB	0x0, "E", 0x0, "V", 0x0, "I", 0x0, "C", 0x0, "E", 0x0, "_"
	DCB	0x0, "C", 0x0, "O", 0x0, "N", 0x0, "F", 0x0, "I", 0x0, "G"
	DCB	0x0, "_", 0x0, "S", 0x0, "T", 0x0, "A", 0x0, "T", 0x0, "U"
	DCB	0x0, "S", 0x0, "_", 0x0, "S", 0x0, "C", 0x0, "H", 0x0, "E"
	DCB	0x0, "D", 0x0, "U", 0x0, "L", 0x0, "I", 0x0, "N", 0x0, "G"
	DCB	0x0, "_", 0x0, "G", 0x0, "E", 0x0, "T", 0x0, "_", 0x0, "D"
	DCB	0x0, "E", 0x0, "V", 0x0, "I", 0x0, "C", 0x0, "E", 0x0, "_"
	DCB	0x0, "D", 0x0, "E", 0x0, "S", 0x0, "C", 0x0, "R", 0x0, "I"
	DCB	0x0, "P", 0x0, "T", 0x0, "O", 0x0, "R", 0x0, "_", 0x0, "T"
	DCB	0x0, "E", 0x0, "S", 0x0, "T", 0x0, 0x0, 0x0 ; `string'

  00000			 AREA	 |.rdata|, DATA, READONLY
|??_C@_1FG@NMCKCJLL@?$AAD?$AAE?$AAV?$AAI?$AAC?$AAE?$AA_?$AAC?$AAO?$AAN?$AAF?$AAI?$AAG?$AA_?$AAS?$AAT?$AAA?$AAT?$AAU?$AAS?$AA_?$AAR?$AAE?$AAS?$AAE?$AAT?$AA_?$AAA?$AAN?$AAD?$AA_?$AAE@| DCB "D"
	DCB	0x0, "E", 0x0, "V", 0x0, "I", 0x0, "C", 0x0, "E", 0x0, "_"
	DCB	0x0, "C", 0x0, "O", 0x0, "N", 0x0, "F", 0x0, "I", 0x0, "G"
	DCB	0x0, "_", 0x0, "S", 0x0, "T", 0x0, "A", 0x0, "T", 0x0, "U"
	DCB	0x0, "S", 0x0, "_", 0x0, "R", 0x0, "E", 0x0, "S", 0x0, "E"
	DCB	0x0, "T", 0x0, "_", 0x0, "A", 0x0, "N", 0x0, "D", 0x0, "_"
	DCB	0x0, "E", 0x0, "N", 0x0, "A", 0x0, "B", 0x0, "L", 0x0, "E"
	DCB	0x0, "_", 0x0, "P", 0x0, "O", 0x0, "R", 0x0, "T", 0x0, 0x0
	DCB	0x0					; `string'

  00000			 AREA	 |.rdata|, DATA, READONLY
|??_C@_1EI@KNOIBOPH@?$AAD?$AAE?$AAV?$AAI?$AAC?$AAE?$AA_?$AAC?$AAO?$AAN?$AAF?$AAI?$AAG?$AA_?$AAS?$AAT?$AAA?$AAT?$AAU?$AAS?$AA_?$AAU?$AAS?$AAI?$AAN?$AAG?$AA_?$AAA?$AAD?$AAD?$AAR?$AAE@| DCB "D"
	DCB	0x0, "E", 0x0, "V", 0x0, "I", 0x0, "C", 0x0, "E", 0x0, "_"
	DCB	0x0, "C", 0x0, "O", 0x0, "N", 0x0, "F", 0x0, "I", 0x0, "G"
	DCB	0x0, "_", 0x0, "S", 0x0, "T", 0x0, "A", 0x0, "T", 0x0, "U"
	DCB	0x0, "S", 0x0, "_", 0x0, "U", 0x0, "S", 0x0, "I", 0x0, "N"
	DCB	0x0, "G", 0x0, "_", 0x0, "A", 0x0, "D", 0x0, "D", 0x0, "R"
	DCB	0x0, "E", 0x0, "S", 0x0, "S", 0x0, "0", 0x0, 0x0, 0x0 ; `string'

  00000			 AREA	 |.rdata|, DATA, READONLY
|??_C@_1FI@COMJHLEF@?$AAD?$AAE?$AAV?$AAI?$AAC?$AAE?$AA_?$AAC?$AAO?$AAN?$AAF?$AAI?$AAG?$AA_?$AAS?$AAT?$AAA?$AAT?$AAU?$AAS?$AA_?$AAO?$AAP?$AAE?$AAN?$AAI?$AAN?$AAG?$AA_?$AAE?$AAN?$AAD@| DCB "D"
	DCB	0x0, "E", 0x0, "V", 0x0, "I", 0x0, "C", 0x0, "E", 0x0, "_"
	DCB	0x0, "C", 0x0, "O", 0x0, "N", 0x0, "F", 0x0, "I", 0x0, "G"
	DCB	0x0, "_", 0x0, "S", 0x0, "T", 0x0, "A", 0x0, "T", 0x0, "U"
	DCB	0x0, "S", 0x0, "_", 0x0, "O", 0x0, "P", 0x0, "E", 0x0, "N"
	DCB	0x0, "I", 0x0, "N", 0x0, "G", 0x0, "_", 0x0, "E", 0x0, "N"
	DCB	0x0, "D", 0x0, "P", 0x0, "O", 0x0, "I", 0x0, "N", 0x0, "T"
	DCB	0x0, "0", 0x0, "_", 0x0, "P", 0x0, "I", 0x0, "P", 0x0, "E"
	DCB	0x0, 0x0, 0x0				; `string'
	EXPORT	|?GetRootHub@CHcd@@QAAPAVCRootHub@@XZ|	; CHcd::GetRootHub
; File c:\wince600\platform\common\src\soc\common_ti_v1\omap3530\musb\musbhcd\usb2com\hcd.hpp

  00000			 AREA	 |.pdata|, PDATA
|$T36508| DCD	|$LN5@GetRootHub|
	DCD	0x40000200
; Function compile flags: /Ogspy

  00000			 AREA	 |.text|, CODE, ARM

  00000		 |?GetRootHub@CHcd@@QAAPAVCRootHub@@XZ| PROC ; CHcd::GetRootHub

; 100  :     CRootHub* GetRootHub() { return m_pCRootHub;};

  00000		 |$LN5@GetRootHub|
  00000		 |$M36505|
  00000	e59000ac	 ldr         r0, [r0, #0xAC]
  00004	e12fff1e	 bx          lr
  00008		 |$M36506|

			 ENDP  ; |?GetRootHub@CHcd@@QAAPAVCRootHub@@XZ|, CHcd::GetRootHub

	EXPORT	|?GetNumberOfPort@CHW@@QAAKXZ|		; CHW::GetNumberOfPort
; File c:\wince600\platform\common\src\soc\common_ti_v1\omap3530\musb\musbhcd\musbmhdrc\chw.h

  00000			 AREA	 |.pdata|, PDATA
|$T36518| DCD	|$LN5@GetNumberO|
	DCD	0x40000200
; Function compile flags: /Ogspy

  00000			 AREA	 |.text|, CODE, ARM

  00000		 |?GetNumberOfPort@CHW@@QAAKXZ| PROC	; CHW::GetNumberOfPort

; 382  :     DWORD GetNumberOfPort() { return m_NumOfPort; };

  00000		 |$LN5@GetNumberO|
  00000		 |$M36515|
  00000	e59000bc	 ldr         r0, [r0, #0xBC]
  00004	e12fff1e	 bx          lr
  00008		 |$M36516|

			 ENDP  ; |?GetNumberOfPort@CHW@@QAAKXZ|, CHW::GetNumberOfPort

	EXPORT	|??0CMhcd@@QAA@PAXPAVCPhysMem@@PBGRAEK@Z| ; CMhcd::CMhcd
	EXPORT	|??_7CMhcd@@6B@| [ DATA ]		; CMhcd::`vftable'
	EXPORT	|?AddedTt@CMhcd@@UAAHEE@Z|		; CMhcd::AddedTt
	EXPORT	|?DeleteTt@CMhcd@@UAAHEEH@Z|		; CMhcd::DeleteTt
	EXPORT	|?DeviceInitialize@CMhcd@@UAAHXZ|	; CMhcd::DeviceInitialize
	EXPORT	|?DeviceDeInitialize@CMhcd@@UAAXXZ|	; CMhcd::DeviceDeInitialize
	EXPORT	|?SignalHubChangeEvent@CMhcd@@UAAHH@Z|	; CMhcd::SignalHubChangeEvent
	EXPORT	|?SuspendHC@CHcd@@UAAHXZ|		; CHcd::SuspendHC
	EXPORT	|?SetSignalDisconnectACK@CMhcd@@UAAXH@Z| ; CMhcd::SetSignalDisconnectACK
	EXPORT	|?SignalHubStatusChange@CHcd@@UAAXXZ|	; CHcd::SignalHubStatusChange
	EXPORT	|?ResumeNotification@CHcd@@MAAHXZ|	; CHcd::ResumeNotification
	EXPORT	|?SignalCheckForDoneTransfers@CHW@@UAAXEE@Z| ; CHW::SignalCheckForDoneTransfers
	EXPORT	|?SignalCheckForDoneDMA@CHW@@UAAXE@Z|	; CHW::SignalCheckForDoneDMA
	IMPORT	|??0USB2lib@@QAA@XZ|			; USB2lib::USB2lib
	IMPORT	|??0CHW@@QAA@QAVCPhysMem@@PAXK@Z|	; CHW::CHW
	IMPORT	|??_ECMhcd@@UAAPAXI@Z|, WEAK |??_GCMhcd@@UAAPAXI@Z| ; CMhcd::`vector deleting destructor', CMhcd::`scalar deleting destructor'
	IMPORT	|?PowerMgmtCallback@CHW@@UAAXH@Z|	; CHW::PowerMgmtCallback
	IMPORT	|?DisableDevice@CHcd@@UAAHIH@Z|		; CHcd::DisableDevice
	IMPORT	|?SuspendResume@CHcd@@UAAHIH@Z|		; CHcd::SuspendResume
	IMPORT	|?DidPortStatusChange@CHW@@UAAHE@Z|	; CHW::DidPortStatusChange
	IMPORT	|?GetPortStatus@CHW@@UAAHEAAU_USB_HUB_AND_PORT_STATUS@@@Z| ; CHW::GetPortStatus
	IMPORT	|?RootHubFeature@CHW@@UAAHEEG@Z|	; CHW::RootHubFeature
	IMPORT	|?ResetAndEnablePort@CHW@@UAAHE@Z|	; CHW::ResetAndEnablePort
	IMPORT	|?DisablePort@CHW@@UAAXE@Z|		; CHW::DisablePort
	IMPORT	|?WaitForPortStatusChange@CHW@@UAAHPAX@Z| ; CHW::WaitForPortStatusChange
	IMPORT	|?InitFIFO@CHW@@UAAHQAVCPipe@@@Z|	; CHW::InitFIFO
	IMPORT	|?UpdateDataToggle@CHW@@UAAHQAVCPipe@@HH@Z| ; CHW::UpdateDataToggle
	IMPORT	|?ConfigEP@CHW@@UAAHQBU_USB_ENDPOINT_DESCRIPTOR@@EEEEHEH@Z| ; CHW::ConfigEP
	IMPORT	|?ProcessTD@CHW@@UAAHEPAX@Z|		; CHW::ProcessTD
	IMPORT	|?SendOutDMA@CHW@@UAAHEPAX@Z|		; CHW::SendOutDMA
	IMPORT	|?WriteFIFO@CHW@@UAAHPAXE0K@Z|		; CHW::WriteFIFO
	IMPORT	|?ReadFIFO@CHW@@UAAKPAXE0KPAH@Z|	; CHW::ReadFIFO
	IMPORT	|?WriteDMA@CHW@@UAAHPAXEE0KK0@Z|	; CHW::WriteDMA
	IMPORT	|?SetDeviceAddress@CHW@@UAAXEEEEE@Z|	; CHW::SetDeviceAddress
	IMPORT	|?IsHostConnect@CHW@@UAAHXZ|		; CHW::IsHostConnect
	IMPORT	|?IsDMASupport@CHW@@UAAHXZ|		; CHW::IsDMASupport
	IMPORT	|?GetDMAMode@CHW@@UAAKXZ|		; CHW::GetDMAMode
	IMPORT	|?LockEP0@CHW@@UAAHE@Z|			; CHW::LockEP0
	IMPORT	|?UnlockEP0@CHW@@UAAXE@Z|		; CHW::UnlockEP0
	IMPORT	|?IsDeviceLockEP0@CHW@@UAAHE@Z|		; CHW::IsDeviceLockEP0
	IMPORT	|?GetFrameNumber@CHW@@UAAHPAK@Z|	; CHW::GetFrameNumber
	IMPORT	|?GetFrameLength@CHW@@UAAHPAG@Z|	; CHW::GetFrameLength
	IMPORT	|?SetFrameLength@CHW@@UAAHPAXG@Z|	; CHW::SetFrameLength
	IMPORT	|?StopAdjustingFrame@CHW@@UAAHXZ|	; CHW::StopAdjustingFrame
	IMPORT	|?Initialize@CHW@@UAAHXZ|		; CHW::Initialize
	IMPORT	|?DeInitialize@CHW@@UAAXXZ|		; CHW::DeInitialize
; File c:\wince600\platform\common\src\soc\common_ti_v1\omap3530\musb\musbhcd\musbmhdrc\cmhcd.cpp

  00000			 AREA	 |.pdata|, PDATA
|$T36532| DCD	|$LN5@CMhcd|
	DCD	0x40001601

  00000			 AREA	 |.rdata|, DATA, READONLY
|??_7CMhcd@@6B@| DCD |?AddedTt@CMhcd@@UAAHEE@Z|		; CMhcd::`vftable'
	DCD	|?DeleteTt@CMhcd@@UAAHEEH@Z|
	DCD	|??_ECMhcd@@UAAPAXI@Z|
	DCD	|?DeviceInitialize@CMhcd@@UAAHXZ|
	DCD	|?DeviceDeInitialize@CMhcd@@UAAXXZ|
	DCD	|?SignalHubChangeEvent@CMhcd@@UAAHH@Z|
	DCD	|?PowerMgmtCallback@CHW@@UAAXH@Z|
	DCD	|?DisableDevice@CHcd@@UAAHIH@Z|
	DCD	|?SuspendResume@CHcd@@UAAHIH@Z|
	DCD	|?DidPortStatusChange@CHW@@UAAHE@Z|
	DCD	|?GetPortStatus@CHW@@UAAHEAAU_USB_HUB_AND_PORT_STATUS@@@Z|
	DCD	|?RootHubFeature@CHW@@UAAHEEG@Z|
	DCD	|?ResetAndEnablePort@CHW@@UAAHE@Z|
	DCD	|?DisablePort@CHW@@UAAXE@Z|
	DCD	|?WaitForPortStatusChange@CHW@@UAAHPAX@Z|
	DCD	|?SuspendHC@CHcd@@UAAHXZ|
	DCD	|?InitFIFO@CHW@@UAAHQAVCPipe@@@Z|
	DCD	|?UpdateDataToggle@CHW@@UAAHQAVCPipe@@HH@Z|
	DCD	|?SetSignalDisconnectACK@CMhcd@@UAAXH@Z|
	DCD	|?ConfigEP@CHW@@UAAHQBU_USB_ENDPOINT_DESCRIPTOR@@EEEEHEH@Z|
	DCD	|?ProcessTD@CHW@@UAAHEPAX@Z|
	DCD	|?SendOutDMA@CHW@@UAAHEPAX@Z|
	DCD	|?WriteFIFO@CHW@@UAAHPAXE0K@Z|
	DCD	|?ReadFIFO@CHW@@UAAKPAXE0KPAH@Z|
	DCD	|?WriteDMA@CHW@@UAAHPAXEE0KK0@Z|
	DCD	|?SetDeviceAddress@CHW@@UAAXEEEEE@Z|
	DCD	|?IsHostConnect@CHW@@UAAHXZ|
	DCD	|?IsDMASupport@CHW@@UAAHXZ|
	DCD	|?GetDMAMode@CHW@@UAAKXZ|
	DCD	|?LockEP0@CHW@@UAAHE@Z|
	DCD	|?UnlockEP0@CHW@@UAAXE@Z|
	DCD	|?IsDeviceLockEP0@CHW@@UAAHE@Z|
	DCD	|?GetFrameNumber@CHW@@UAAHPAK@Z|
	DCD	|?GetFrameLength@CHW@@UAAHPAG@Z|
	DCD	|?SetFrameLength@CHW@@UAAHPAXG@Z|
	DCD	|?StopAdjustingFrame@CHW@@UAAHXZ|
	DCD	|?SignalHubStatusChange@CHcd@@UAAXXZ|
	DCD	|?ResumeNotification@CHcd@@MAAHXZ|
	DCD	|?Initialize@CHW@@UAAHXZ|
	DCD	|?DeInitialize@CHW@@UAAXXZ|
	DCD	|?SignalCheckForDoneTransfers@CHW@@UAAXEE@Z|
	DCD	|?SignalCheckForDoneDMA@CHW@@UAAXE@Z|
; Function compile flags: /Ogspy

  00000			 AREA	 |.text|, CODE, ARM

  00000		 |??0CMhcd@@QAA@PAXPAVCPhysMem@@PBGRAEK@Z| PROC ; CMhcd::CMhcd

; 56   : {

  00000		 |$LN5@CMhcd|
  00000	e92d40f0	 stmdb       sp!, {r4 - r7, lr}
  00004		 |$M36529|
  00004	e1a05002	 mov         r5, r2
  00008	e1a02001	 mov         r2, r1
  0000c	e1a07003	 mov         r7, r3
  00010	e1a06000	 mov         r6, r0
  00014	e59d4018	 ldr         r4, [sp, #0x18]
  00018	e1a01005	 mov         r1, r5
  0001c	e1a03004	 mov         r3, r4
  00020	eb000000	 bl          |??0CHW@@QAA@QAVCPhysMem@@PAXK@Z|
  00024	e2860fa9	 add         r0, r6, #0xA9, 30
  00028	eb000000	 bl          |??0USB2lib@@QAA@XZ|

; 57   :     DEBUGMSG(ZONE_UHCD && ZONE_VERBOSE, (TEXT("+CEhcd::CEhcd\n")));
; 58   :     m_dwSysIntr = dwSysIntr;
; 59   :     m_portBase = portBase;

  0002c	e59de014	 ldr         lr, [sp, #0x14]
  00030	e59f101c	 ldr         r1, [pc, #0x1C]
  00034	e58656c8	 str         r5, [r6, #0x6C8]
  00038	e586e6d0	 str         lr, [r6, #0x6D0]
  0003c	e5861000	 str         r1, [r6]
  00040	e58646cc	 str         r4, [r6, #0x6CC]

; 60   :     m_lpRegPath = lpRegPath;

  00044	e58676d4	 str         r7, [r6, #0x6D4]

; 61   :     DEBUGMSG(ZONE_UHCD && ZONE_VERBOSE, (TEXT("-CEhcd::CEhcd\n")));
; 62   : }

  00048	e1a00006	 mov         r0, r6
  0004c	e8bd40f0	 ldmia       sp!, {r4 - r7, lr}
  00050	e12fff1e	 bx          lr
  00054		 |$LN6@CMhcd|
  00054		 |$LN7@CMhcd|
  00054	00000000	 DCD         |??_7CMhcd@@6B@|
  00058		 |$M36530|

			 ENDP  ; |??0CMhcd@@QAA@PAXPAVCPhysMem@@PBGRAEK@Z|, CMhcd::CMhcd

	EXPORT	|?Lock@LockObject@@QAAXXZ|		; LockObject::Lock
	IMPORT	|EnterCriticalSection|
; File c:\wince600\platform\common\src\soc\common_ti_v1\omap3530\musb\musbhcd\usb2com\sync.hpp

  00000			 AREA	 |.pdata|, PDATA
|$T36542| DCD	|$LN5@Lock|
	DCD	0x40000401
; Function compile flags: /Ogspy

  00000			 AREA	 |.text|, CODE, ARM

  00000		 |?Lock@LockObject@@QAAXXZ| PROC	; LockObject::Lock

; 73   :     void Lock(void) { EnterCriticalSection(&m_CSection); };

  00000		 |$LN5@Lock|
  00000	e52de004	 str         lr, [sp, #-4]!
  00004		 |$M36539|
  00004	eb000000	 bl          EnterCriticalSection
  00008	e49de004	 ldr         lr, [sp], #4
  0000c	e12fff1e	 bx          lr
  00010		 |$M36540|

			 ENDP  ; |?Lock@LockObject@@QAAXXZ|, LockObject::Lock

	EXPORT	|?Unlock@LockObject@@QAAXXZ|		; LockObject::Unlock
	IMPORT	|LeaveCriticalSection|

  00000			 AREA	 |.pdata|, PDATA
|$T36550| DCD	|$LN5@Unlock|
	DCD	0x40000401
; Function compile flags: /Ogspy

  00000			 AREA	 |.text|, CODE, ARM

  00000		 |?Unlock@LockObject@@QAAXXZ| PROC	; LockObject::Unlock

; 74   :     void Unlock(void) {LeaveCriticalSection( &m_CSection); };

  00000		 |$LN5@Unlock|
  00000	e52de004	 str         lr, [sp, #-4]!
  00004		 |$M36547|
  00004	eb000000	 bl          LeaveCriticalSection
  00008	e49de004	 ldr         lr, [sp], #4
  0000c	e12fff1e	 bx          lr
  00010		 |$M36548|

			 ENDP  ; |?Unlock@LockObject@@QAAXXZ|, LockObject::Unlock

; File c:\wince600\platform\common\src\soc\common_ti_v1\omap3530\musb\musbhcd\usb2com\hcd.hpp

  00000			 AREA	 |.pdata|, PDATA
|$T36559| DCD	|$LN5@SuspendHC|
	DCD	0x40000200
; Function compile flags: /Ogspy

  00000			 AREA	 |.text|, CODE, ARM

  00000		 |?SuspendHC@CHcd@@UAAHXZ| PROC		; CHcd::SuspendHC

; 118  :     virtual BOOL    SuspendHC() { return FALSE; }; // Default does not support it function.

  00000		 |$LN5@SuspendHC|
  00000		 |$M36556|
  00000	e3a00000	 mov         r0, #0
  00004	e12fff1e	 bx          lr
  00008		 |$M36557|

			 ENDP  ; |?SuspendHC@CHcd@@UAAHXZ|, CHcd::SuspendHC


  00000			 AREA	 |.pdata|, PDATA
|$T36567| DCD	|$LN6@SignalHubS|
	DCD	0x40000a01
; Function compile flags: /Ogspy

  00000			 AREA	 |.text|, CODE, ARM

  00000		 |?SignalHubStatusChange@CHcd@@UAAXXZ| PROC ; CHcd::SignalHubStatusChange

; 159  :     virtual void SignalHubStatusChange() {

  00000		 |$LN6@SignalHubS|
  00000	e52de004	 str         lr, [sp, #-4]!
  00004		 |$M36564|

; 160  :         if (m_pCRootHub!=NULL)

  00004	e59030ac	 ldr         r3, [r0, #0xAC]
  00008	e3530000	 cmp         r3, #0

; 161  :             m_pCRootHub->SignalHubStatusChange();

  0000c	11a00003	 movne       r0, r3
  00010	15903000	 ldrne       r3, [r0]
  00014	15933044	 ldrne       r3, [r3, #0x44]
  00018	11a0e00f	 movne       lr, pc
  0001c	112fff13	 bxne        r3

; 162  :     }

  00020	e49de004	 ldr         lr, [sp], #4
  00024	e12fff1e	 bx          lr
  00028		 |$M36565|

			 ENDP  ; |?SignalHubStatusChange@CHcd@@UAAXXZ|, CHcd::SignalHubStatusChange

; File c:\wince600\platform\common\src\soc\common_ti_v1\omap3530\musb\musbhcd\usb2com\sync.hpp

  00000			 AREA	 |.pdata|, PDATA
|$T36584| DCD	|$LN10@ResumeNoti|
	DCD	0x40002001
; Function compile flags: /Ogspy
; File c:\wince600\platform\common\src\soc\common_ti_v1\omap3530\musb\musbhcd\usb2com\hcd.hpp

  00000			 AREA	 |.text|, CODE, ARM

  00000		 |?ResumeNotification@CHcd@@MAAHXZ| PROC ; CHcd::ResumeNotification

; 167  :     virtual BOOL ResumeNotification ()  {

  00000		 |$LN10@ResumeNoti|
  00000	e92d4030	 stmdb       sp!, {r4, r5, lr}
  00004		 |$M36581|
  00004	e1a04000	 mov         r4, r0

; 168  :         Lock();

  00008	e284008c	 add         r0, r4, #0x8C
  0000c	eb000000	 bl          EnterCriticalSection

; 169  :         BOOL fReturn = FALSE;
; 170  :         if (m_pCRootHub) {

  00010	e59430ac	 ldr         r3, [r4, #0xAC]
  00014	e3a05000	 mov         r5, #0
  00018	e3530000	 cmp         r3, #0
  0001c	0a000012	 beq         |$LN1@ResumeNoti|

; 171  :             fReturn = m_pCRootHub->ResumeNotification();

  00020	e1a00003	 mov         r0, r3
  00024	e5903000	 ldr         r3, [r0]
  00028	e5933028	 ldr         r3, [r3, #0x28]
  0002c	e1a0e00f	 mov         lr, pc
  00030	e12fff13	 bx          r3

; 172  :             m_pCRootHub->NotifyOnSuspendedResumed(FALSE);

  00034	e59420ac	 ldr         r2, [r4, #0xAC]
  00038	e1a05000	 mov         r5, r0
  0003c	e3a01000	 mov         r1, #0
  00040	e5923000	 ldr         r3, [r2]
  00044	e1a00002	 mov         r0, r2
  00048	e593302c	 ldr         r3, [r3, #0x2C]
  0004c	e1a0e00f	 mov         lr, pc
  00050	e12fff13	 bx          r3

; 173  :             m_pCRootHub->NotifyOnSuspendedResumed(TRUE);

  00054	e59400ac	 ldr         r0, [r4, #0xAC]
  00058	e3a01001	 mov         r1, #1
  0005c	e5903000	 ldr         r3, [r0]
  00060	e593302c	 ldr         r3, [r3, #0x2C]
  00064	e1a0e00f	 mov         lr, pc
  00068	e12fff13	 bx          r3
  0006c		 |$LN1@ResumeNoti|

; 174  :         }
; 175  :         Unlock();

  0006c	e284008c	 add         r0, r4, #0x8C
  00070	eb000000	 bl          LeaveCriticalSection

; 176  :         return fReturn;
; 177  :     }

  00074	e1a00005	 mov         r0, r5
  00078	e8bd4030	 ldmia       sp!, {r4, r5, lr}
  0007c	e12fff1e	 bx          lr
  00080		 |$M36582|

			 ENDP  ; |?ResumeNotification@CHcd@@MAAHXZ|, CHcd::ResumeNotification

	EXPORT	|?SetSignalDisconnectACK@CBusyPipeList@@QAAXH@Z| ; CBusyPipeList::SetSignalDisconnectACK
; File c:\wince600\platform\common\src\soc\common_ti_v1\omap3530\musb\musbhcd\musbmhdrc\chw.h

  00000			 AREA	 |.pdata|, PDATA
|$T36593| DCD	|$LN5@SetSignalD|
	DCD	0x40000200
; Function compile flags: /Ogspy

  00000			 AREA	 |.text|, CODE, ARM

  00000		 |?SetSignalDisconnectACK@CBusyPipeList@@QAAXH@Z| PROC ; CBusyPipeList::SetSignalDisconnectACK

; 190  :     void    SetSignalDisconnectACK(BOOL fAck) { m_SignalDisconnectACK = fAck;};

  00000		 |$LN5@SetSignalD|
  00000		 |$M36590|
  00000	e58010d0	 str         r1, [r0, #0xD0]
  00004	e12fff1e	 bx          lr
  00008		 |$M36591|

			 ENDP  ; |?SetSignalDisconnectACK@CBusyPipeList@@QAAXH@Z|, CBusyPipeList::SetSignalDisconnectACK

	IMPORT	|?SignalCheckForDoneTransfers@CBusyPipeList@@QAAXEE@Z| ; CBusyPipeList::SignalCheckForDoneTransfers

  00000			 AREA	 |.pdata|, PDATA
|$T36603| DCD	|$LN5@SignalChec|
	DCD	0x40000501
; Function compile flags: /Ogspy

  00000			 AREA	 |.text|, CODE, ARM

  00000		 |?SignalCheckForDoneTransfers@CHW@@UAAXEE@Z| PROC ; CHW::SignalCheckForDoneTransfers

; 233  :     virtual void    SignalCheckForDoneTransfers( IN const UCHAR endpoint, IN const UCHAR ucIsOut ) { 

  00000		 |$LN5@SignalChec|
  00000	e52de004	 str         lr, [sp, #-4]!
  00004		 |$M36600|

; 234  :             m_cBusyPipeList.SignalCheckForDoneTransfers(endpoint, ucIsOut);

  00004	e28000c0	 add         r0, r0, #0xC0
  00008	eb000000	 bl          |?SignalCheckForDoneTransfers@CBusyPipeList@@QAAXEE@Z|

; 235  :         };

  0000c	e49de004	 ldr         lr, [sp], #4
  00010	e12fff1e	 bx          lr
  00014		 |$M36601|

			 ENDP  ; |?SignalCheckForDoneTransfers@CHW@@UAAXEE@Z|, CHW::SignalCheckForDoneTransfers

	IMPORT	|?SignalCheckForDoneDMA@CBusyPipeList@@QAAHE@Z| ; CBusyPipeList::SignalCheckForDoneDMA

  00000			 AREA	 |.pdata|, PDATA
|$T36612| DCD	|$LN5@SignalChec@2|
	DCD	0x40000501
; Function compile flags: /Ogspy

  00000			 AREA	 |.text|, CODE, ARM

  00000		 |?SignalCheckForDoneDMA@CHW@@UAAXE@Z| PROC ; CHW::SignalCheckForDoneDMA

; 237  :     virtual void    SignalCheckForDoneDMA( IN const UCHAR channel ) { 

  00000		 |$LN5@SignalChec@2|
  00000	e52de004	 str         lr, [sp, #-4]!
  00004		 |$M36609|

; 238  :             m_cBusyPipeList.SignalCheckForDoneDMA(channel);

  00004	e28000c0	 add         r0, r0, #0xC0
  00008	eb000000	 bl          |?SignalCheckForDoneDMA@CBusyPipeList@@QAAHE@Z|

; 239  :         };

  0000c	e49de004	 ldr         lr, [sp], #4
  00010	e12fff1e	 bx          lr
  00014		 |$M36610|

			 ENDP  ; |?SignalCheckForDoneDMA@CHW@@UAAXE@Z|, CHW::SignalCheckForDoneDMA

	EXPORT	|?SetSignalDisconnectACK@CHW@@UAAXH@Z|	; CHW::SetSignalDisconnectACK

  00000			 AREA	 |.pdata|, PDATA
|$T36624| DCD	|$LN7@SetSignalD@2|
	DCD	0x40000200
; Function compile flags: /Ogspy

  00000			 AREA	 |.text|, CODE, ARM

  00000		 |?SetSignalDisconnectACK@CHW@@UAAXH@Z| PROC ; CHW::SetSignalDisconnectACK

; 367  :     void    SetSignalDisconnectACK(BOOL fAck) { m_cBusyPipeList.SetSignalDisconnectACK(fAck); };

  00000		 |$LN7@SetSignalD@2|
  00000		 |$M36621|
  00000	e5801190	 str         r1, [r0, #0x190]
  00004	e12fff1e	 bx          lr
  00008		 |$M36622|

			 ENDP  ; |?SetSignalDisconnectACK@CHW@@UAAXH@Z|, CHW::SetSignalDisconnectACK

	IMPORT	|?AddedTt@USB2lib@@QAAHEE@Z|		; USB2lib::AddedTt
; File c:\wince600\platform\common\src\soc\common_ti_v1\omap3530\musb\musbhcd\musbmhdrc\cmhcd.h

  00000			 AREA	 |.pdata|, PDATA
|$T36636| DCD	|$LN5@AddedTt|
	DCD	0x40000501
; Function compile flags: /Ogspy

  00000			 AREA	 |.text|, CODE, ARM

  00000		 |?AddedTt@CMhcd@@UAAHEE@Z| PROC	; CMhcd::AddedTt

; 59   :     virtual BOOL    AddedTt( UCHAR uHubAddress,UCHAR uPort) { return USB2lib::AddedTt( uHubAddress,uPort); };

  00000		 |$LN5@AddedTt|
  00000	e52de004	 str         lr, [sp, #-4]!
  00004		 |$M36633|
  00004	e2800fa9	 add         r0, r0, #0xA9, 30
  00008	eb000000	 bl          |?AddedTt@USB2lib@@QAAHEE@Z|
  0000c	e49de004	 ldr         lr, [sp], #4
  00010	e12fff1e	 bx          lr
  00014		 |$M36634|

			 ENDP  ; |?AddedTt@CMhcd@@UAAHEE@Z|, CMhcd::AddedTt

	IMPORT	|?DeleteTt@USB2lib@@QAAHEEH@Z|		; USB2lib::DeleteTt

  00000			 AREA	 |.pdata|, PDATA
|$T36649| DCD	|$LN5@DeleteTt|
	DCD	0x40000501
; Function compile flags: /Ogspy

  00000			 AREA	 |.text|, CODE, ARM

  00000		 |?DeleteTt@CMhcd@@UAAHEEH@Z| PROC	; CMhcd::DeleteTt

; 60   :     virtual BOOL    DeleteTt( UCHAR uHubAddress,UCHAR uPort,BOOL ttContext) { return USB2lib::DeleteTt( uHubAddress,uPort,ttContext); };

  00000		 |$LN5@DeleteTt|
  00000	e52de004	 str         lr, [sp, #-4]!
  00004		 |$M36646|
  00004	e2800fa9	 add         r0, r0, #0xA9, 30
  00008	eb000000	 bl          |?DeleteTt@USB2lib@@QAAHEEH@Z|
  0000c	e49de004	 ldr         lr, [sp], #4
  00010	e12fff1e	 bx          lr
  00014		 |$M36647|

			 ENDP  ; |?DeleteTt@CMhcd@@UAAHEEH@Z|, CMhcd::DeleteTt

; File c:\wince600\platform\common\src\soc\common_ti_v1\omap3530\musb\musbhcd\musbmhdrc\chw.h

  00000			 AREA	 |.pdata|, PDATA
|$T36666| DCD	|$LN9@SetSignalD@3|
	DCD	0x40000200
; Function compile flags: /Ogspy
; File c:\wince600\platform\common\src\soc\common_ti_v1\omap3530\musb\musbhcd\musbmhdrc\cmhcd.h

  00000			 AREA	 |.text|, CODE, ARM

  00000		 |?SetSignalDisconnectACK@CMhcd@@UAAXH@Z| PROC ; CMhcd::SetSignalDisconnectACK

; 63   :     virtual void    SetSignalDisconnectACK(BOOL fAck) { CHW::SetSignalDisconnectACK(fAck);};

  00000		 |$LN9@SetSignalD@3|
  00000		 |$M36663|
  00000	e5801190	 str         r1, [r0, #0x190]
  00004	e12fff1e	 bx          lr
  00008		 |$M36664|

			 ENDP  ; |?SetSignalDisconnectACK@CMhcd@@UAAXH@Z|, CMhcd::SetSignalDisconnectACK

	EXPORT	|??1CMhcd@@UAA@XZ|			; CMhcd::~CMhcd
	IMPORT	|??1CHW@@UAA@XZ|			; CHW::~CHW
	IMPORT	|??1USB2lib@@QAA@XZ|			; USB2lib::~USB2lib
	IMPORT	|?SetRootHub@CHcd@@QAAPAVCRootHub@@PAV2@@Z| ; CHcd::SetRootHub
; File c:\wince600\platform\common\src\soc\common_ti_v1\omap3530\musb\musbhcd\musbmhdrc\cmhcd.cpp

  00000			 AREA	 |.pdata|, PDATA
|$T36681| DCD	|$LN10@CMhcd@2|
	DCD	0x40001a01
; Function compile flags: /Ogspy

  00000			 AREA	 |.text|, CODE, ARM

  00000		 |??1CMhcd@@UAA@XZ| PROC		; CMhcd::~CMhcd

; 75   : {

  00000		 |$LN10@CMhcd@2|
  00000	e92d4030	 stmdb       sp!, {r4, r5, lr}
  00004		 |$M36678|
  00004	e1a04000	 mov         r4, r0
  00008	e59f3054	 ldr         r3, [pc, #0x54]

; 76   :     DEBUGMSG(ZONE_UHCD && ZONE_VERBOSE, (TEXT("+CMhcd::~CMhcd\n")));
; 77   : 
; 78   :     // make the API set inaccessible
; 79   :     CRootHub *pRoot = SetRootHub(NULL);

  0000c	e3a01000	 mov         r1, #0
  00010	e5843000	 str         r3, [r4]
  00014	eb000000	 bl          |?SetRootHub@CHcd@@QAAPAVCRootHub@@PAV2@@Z|
  00018	e1b05000	 movs        r5, r0

; 80   :     // signal root hub to close
; 81   :     if ( pRoot ) {

  0001c	0a00000a	 beq         |$LN6@CMhcd@2|

; 82   :         pRoot->HandleDetach();

  00020	e5953000	 ldr         r3, [r5]
  00024	e1a00005	 mov         r0, r5
  00028	e5933030	 ldr         r3, [r3, #0x30]
  0002c	e1a0e00f	 mov         lr, pc
  00030	e12fff13	 bx          r3

; 83   :         delete pRoot;

  00034	e5953000	 ldr         r3, [r5]
  00038	e3a01001	 mov         r1, #1
  0003c	e1a00005	 mov         r0, r5
  00040	e5933000	 ldr         r3, [r3]
  00044	e1a0e00f	 mov         lr, pc
  00048	e12fff13	 bx          r3
  0004c		 |$LN6@CMhcd@2|

; 84   :     }
; 85   : 
; 86   :     DEBUGMSG(ZONE_UHCD && ZONE_VERBOSE, (TEXT("-CMhcd::~CMhcd\n")));
; 87   : }

  0004c	e2840fa9	 add         r0, r4, #0xA9, 30
  00050	eb000000	 bl          |??1USB2lib@@QAA@XZ|
  00054	e1a00004	 mov         r0, r4
  00058	eb000000	 bl          |??1CHW@@UAA@XZ|
  0005c	e8bd4030	 ldmia       sp!, {r4, r5, lr}
  00060	e12fff1e	 bx          lr
  00064		 |$LN11@CMhcd@2|
  00064		 |$LN12@CMhcd@2|
  00064	00000000	 DCD         |??_7CMhcd@@6B@|
  00068		 |$M36679|

			 ENDP  ; |??1CMhcd@@UAA@XZ|, CMhcd::~CMhcd

	IMPORT	|?DeInitialize@CDeviceGlobal@@QAAXXZ|	; CDeviceGlobal::DeInitialize

  00000			 AREA	 |.pdata|, PDATA
|$T36696| DCD	|$LN8@DeviceDeIn|
	DCD	0x40001701
; Function compile flags: /Ogspy

  00000			 AREA	 |.text|, CODE, ARM

  00000		 |?DeviceDeInitialize@CMhcd@@UAAXXZ| PROC ; CMhcd::DeviceDeInitialize

; 89   : {

  00000		 |$LN8@DeviceDeIn|
  00000	e92d4030	 stmdb       sp!, {r4, r5, lr}
  00004		 |$M36693|
  00004	e1a04000	 mov         r4, r0

; 90   :     DEBUGMSG(ZONE_UHCD && ZONE_VERBOSE, (TEXT("+CEhcd::DeInitialize\n")));
; 91   : 
; 92   :     // make the API set inaccessible
; 93   :     CRootHub *pRoot = SetRootHub(NULL);

  00008	e3a01000	 mov         r1, #0
  0000c	eb000000	 bl          |?SetRootHub@CHcd@@QAAPAVCRootHub@@PAV2@@Z|
  00010	e1b05000	 movs        r5, r0

; 94   :     // signal root hub to close
; 95   :     if ( pRoot ) {

  00014	0a00000a	 beq         |$LN4@DeviceDeIn|

; 96   :         pRoot->HandleDetach();

  00018	e5953000	 ldr         r3, [r5]
  0001c	e1a00005	 mov         r0, r5
  00020	e5933030	 ldr         r3, [r3, #0x30]
  00024	e1a0e00f	 mov         lr, pc
  00028	e12fff13	 bx          r3

; 97   :         delete pRoot;

  0002c	e5953000	 ldr         r3, [r5]
  00030	e3a01001	 mov         r1, #1
  00034	e1a00005	 mov         r0, r5
  00038	e5933000	 ldr         r3, [r3]
  0003c	e1a0e00f	 mov         lr, pc
  00040	e12fff13	 bx          r3
  00044		 |$LN4@DeviceDeIn|

; 98   :     }
; 99   :     // this is safe because by now all clients have been unloaded
; 100  :     //DeleteCriticalSection ( &m_csHCLock );
; 101  : 
; 102  :     CHW::DeInitialize();

  00044	e1a00004	 mov         r0, r4
  00048	eb000000	 bl          |?DeInitialize@CHW@@UAAXXZ|

; 103  :     CDeviceGlobal::DeInitialize();

  0004c	e1a00004	 mov         r0, r4
  00050	eb000000	 bl          |?DeInitialize@CDeviceGlobal@@QAAXXZ|

; 104  : 
; 105  :     DEBUGMSG(ZONE_UHCD && ZONE_VERBOSE, (TEXT("-CEhcd::DeInitialize\n")));
; 106  : 
; 107  : }

  00054	e8bd4030	 ldmia       sp!, {r4, r5, lr}
  00058	e12fff1e	 bx          lr
  0005c		 |$M36694|

			 ENDP  ; |?DeviceDeInitialize@CMhcd@@UAAXXZ|, CMhcd::DeviceDeInitialize

	EXPORT	|__$ArrayPad$| [ DATA ]
	IMPORT	|?EnterOperationalState@CHW@@QAAXXZ|	; CHW::EnterOperationalState
	IMPORT	|??0CRootHub@@QAA@ABU_USB_DEVICE_INFO@@HHABU_USB_HUB_DESCRIPTOR@@QAVCHcd@@@Z| ; CRootHub::CRootHub
	IMPORT	|??2@YAPAXI@Z|				; operator new
	IMPORT	|?Initialize@CDeviceGlobal@@QAAHPAX@Z|	; CDeviceGlobal::Initialize
	IMPORT	|?ReInit@CPhysMem@@QAAXXZ|		; CPhysMem::ReInit
	IMPORT	|__GSHandlerCheck|
	IMPORT	|__security_cookie|
	IMPORT	|__security_check_cookie|
; File c:\wince600\platform\common\src\soc\common_ti_v1\omap3530\musb\musbhcd\usb2com\hcd.hpp

  00000			 AREA	 |.pdata|, PDATA
|$T36731| DCD	|$LN17@DeviceInit|
	DCD	0xc0006202

  00000			 AREA	 |.xdata|, DATA
|$T36727| DCD	0xffffffd8
; Function compile flags: /Ogspy
; File c:\wince600\platform\common\src\soc\common_ti_v1\omap3530\musb\musbhcd\musbmhdrc\cmhcd.cpp

  00000			 AREA	 |.text|, CODE, ARM

  00000	00000000	 DCD         |__GSHandlerCheck|
  00004	00000000	 DCD         |$T36727|

  00008		 |?DeviceInitialize@CMhcd@@UAAHXZ| PROC	; CMhcd::DeviceInitialize

; 134  : {

  00008		 |$LN17@DeviceInit|
  00008	e92d4ff0	 stmdb       sp!, {r4 - r11, lr}
  0000c	e24dd074	 sub         sp, sp, #0x74
  00010		 |$M36728|
  00010	e1a05000	 mov         r5, r0
  00014	e59f3170	 ldr         r3, [pc, #0x170]
  00018	e5933000	 ldr         r3, [r3]
  0001c	e58d3070	 str         r3, [sp, #0x70]

; 135  :     DEBUGMSG(ZONE_INIT,(TEXT("+CEhcd::Initialize. Entry\r\n")));
; 136  : 
; 137  :     
; 138  :     // All Initialize routines must be called, so we can't write
; 139  :     // if ( !CDevice::Initialize() || !CPipe::Initialize() etc )
; 140  :     // due to short circuit eval.
; 141  :     {
; 142  :         m_pMem ->ReInit();

  00020	e59506c8	 ldr         r0, [r5, #0x6C8]
  00024	eb000000	 bl          |?ReInit@CPhysMem@@QAAXXZ|

; 143  :         BOOL fCDeviceInitOK = CDeviceGlobal::Initialize(this);

  00028	e1a01005	 mov         r1, r5
  0002c	e1a00005	 mov         r0, r5
  00030	eb000000	 bl          |?Initialize@CDeviceGlobal@@QAAHPAX@Z|
  00034	e1a04000	 mov         r4, r0

; 144  :         BOOL fCHWInitOK = CHW::Initialize( );

  00038	e1a00005	 mov         r0, r5
  0003c	eb000000	 bl          |?Initialize@CHW@@UAAHXZ|

; 145  : 
; 146  :         if ( !fCDeviceInitOK || !fCHWInitOK ) {

  00040	e3540000	 cmp         r4, #0
  00044	0a00004a	 beq         |$LN3@DeviceInit|
  00048	e3500000	 cmp         r0, #0
  0004c	0a000048	 beq         |$LN3@DeviceInit|

; 150  :         }
; 151  :     }
; 152  : 
; 153  :     // set up the root hub object
; 154  :     {
; 155  :         USB_DEVICE_INFO deviceInfo;
; 156  :         USB_HUB_DESCRIPTOR usbHubDescriptor;
; 157  : 
; 158  :         deviceInfo.dwCount = sizeof( USB_DEVICE_INFO );
; 159  :         deviceInfo.lpConfigs = NULL;
; 160  :         deviceInfo.lpActiveConfig = NULL;
; 161  :         deviceInfo.Descriptor.bLength = sizeof( USB_DEVICE_DESCRIPTOR );
; 162  :         deviceInfo.Descriptor.bDescriptorType = USB_DEVICE_DESCRIPTOR_TYPE;
; 163  :         deviceInfo.Descriptor.bcdUSB = 0x200; // USB spec 200
; 164  :         deviceInfo.Descriptor.bDeviceClass = USB_DEVICE_CLASS_HUB;
; 165  :         deviceInfo.Descriptor.bDeviceSubClass = 0xff;
; 166  :         deviceInfo.Descriptor.bDeviceProtocol = 0xff;
; 167  :         deviceInfo.Descriptor.bMaxPacketSize0 = 0;
; 168  :         deviceInfo.Descriptor.bNumConfigurations = 0;
; 169  : 
; 170  :         usbHubDescriptor.bDescriptorType = USB_HUB_DESCRIPTOR_TYPE;
; 171  :         usbHubDescriptor.bDescriptorLength = USB_HUB_DESCRIPTOR_MINIMUM_SIZE;
; 172  :         usbHubDescriptor.bNumberOfPorts = (BYTE)GetNumberOfPort();
; 173  :         usbHubDescriptor.wHubCharacteristics = USB_HUB_CHARACTERISTIC_NO_POWER_SWITCHING |
; 174  :                                                USB_HUB_CHARACTERISTIC_NOT_PART_OF_COMPOUND_DEVICE |
; 175  :                                                USB_HUB_CHARACTERISTIC_NO_OVER_CURRENT_PROTECTION;

  00050	e3a03012	 mov         r3, #0x12
  00054	e1a03423	 mov         r3, r3, lsr #8

; 176  :         usbHubDescriptor.bPowerOnToPowerGood = 0;
; 177  :         usbHubDescriptor.bHubControlCurrent = 0;
; 178  :         DEBUGCHK( usbHubDescriptor.bNumberOfPorts <= 8 );
; 179  :         usbHubDescriptor.bRemoveAndPowerMask[0] = 0; // all devices on hub are removable
; 180  :         usbHubDescriptor.bRemoveAndPowerMask[1] = 0xFF; // must be 0xFF, USB spec 1.1, table 11-8

  00058	e5cd302c	 strb        r3, [sp, #0x2C]

; 181  : 
; 182  :         // FALSE indicates root hub is not low speed
; 183  :         // (though, this is ignored for hubs anyway)
; 184  :         SetRootHub( new CRootHub( deviceInfo, FALSE,TRUE, usbHubDescriptor,this ));

  0005c	e3a03000	 mov         r3, #0
  00060	e5cd3013	 strb        r3, [sp, #0x13]
  00064	e3a03000	 mov         r3, #0
  00068	e5cd301d	 strb        r3, [sp, #0x1D]
  0006c	e3a03029	 mov         r3, #0x29
  00070	e5cd3029	 strb        r3, [sp, #0x29]
  00074	e3a03009	 mov         r3, #9
  00078	e5cd3028	 strb        r3, [sp, #0x28]
  0007c	e3a03012	 mov         r3, #0x12
  00080	e5cd302b	 strb        r3, [sp, #0x2B]
  00084	e3a03000	 mov         r3, #0
  00088	e5cd302d	 strb        r3, [sp, #0x2D]
  0008c	e3a03000	 mov         r3, #0
  00090	e5cd302e	 strb        r3, [sp, #0x2E]
  00094	e59520bc	 ldr         r2, [r5, #0xBC]
  00098	e3a03000	 mov         r3, #0
  0009c	e5cd302f	 strb        r3, [sp, #0x2F]
  000a0	e3a030ff	 mov         r3, #0xFF
  000a4	e3a01020	 mov         r1, #0x20
  000a8	e3a0e000	 mov         lr, #0
  000ac	e3a04000	 mov         r4, #0
  000b0	e3a06012	 mov         r6, #0x12
  000b4	e3a07001	 mov         r7, #1
  000b8	e3a08c02	 mov         r8, #2, 24
  000bc	e3a09009	 mov         r9, #9
  000c0	e3a0a0ff	 mov         r10, #0xFF
  000c4	e3a0b0ff	 mov         r11, #0xFF
  000c8	e3a000cc	 mov         r0, #0xCC
  000cc	e5cd3030	 strb        r3, [sp, #0x30]
  000d0	e5cd202a	 strb        r2, [sp, #0x2A]
  000d4	e58d1008	 str         r1, [sp, #8]
  000d8	e58de020	 str         lr, [sp, #0x20]
  000dc	e58d4024	 str         r4, [sp, #0x24]
  000e0	e5cd600c	 strb        r6, [sp, #0xC]
  000e4	e5cd700d	 strb        r7, [sp, #0xD]
  000e8	e1cd80be	 strh        r8, [sp, #0xE]
  000ec	e5cd9010	 strb        r9, [sp, #0x10]
  000f0	e5cda011	 strb        r10, [sp, #0x11]
  000f4	e5cdb012	 strb        r11, [sp, #0x12]
  000f8	eb000000	 bl          |??2@YAPAXI@Z|
  000fc	e3500000	 cmp         r0, #0
  00100	0a000007	 beq         |$LN7@DeviceInit|
  00104	e28d3028	 add         r3, sp, #0x28
  00108	e58d3000	 str         r3, [sp]
  0010c	e3a03001	 mov         r3, #1
  00110	e3a02000	 mov         r2, #0
  00114	e28d1008	 add         r1, sp, #8
  00118	e58d5004	 str         r5, [sp, #4]
  0011c	eb000000	 bl          |??0CRootHub@@QAA@ABU_USB_DEVICE_INFO@@HHABU_USB_HUB_DESCRIPTOR@@QAVCHcd@@@Z|
  00120	ea000000	 b           |$LN8@DeviceInit|
  00124		 |$LN7@DeviceInit|
  00124	e3a00000	 mov         r0, #0
  00128		 |$LN8@DeviceInit|
  00128	e1a01000	 mov         r1, r0
  0012c	e1a00005	 mov         r0, r5
  00130	eb000000	 bl          |?SetRootHub@CHcd@@QAAPAVCRootHub@@PAV2@@Z|

; 185  :     }
; 186  :     if ( !GetRootHub() ) {

  00134	e59530ac	 ldr         r3, [r5, #0xAC]
  00138	e1b00003	 movs        r0, r3

; 187  :         DEBUGMSG( ZONE_ERROR, (TEXT("-CMhcd::Initialize - unable to create root hub object\n")) );
; 188  :         return FALSE;

  0013c	0a00000c	 beq         |$LN3@DeviceInit|

; 189  :     }
; 190  : 
; 191  :     // Signal root hub to start processing port changes
; 192  :     // The root hub doesn't have any pipes, so we pass NULL as the
; 193  :     // endpoint0 pipe
; 194  :     if ( !GetRootHub()->EnterOperationalState( NULL ) ) {

  00140	e5903000	 ldr         r3, [r0]
  00144	e3a01000	 mov         r1, #0
  00148	e5933004	 ldr         r3, [r3, #4]
  0014c	e1a0e00f	 mov         lr, pc
  00150	e12fff13	 bx          r3
  00154	e3500000	 cmp         r0, #0

; 195  :         DEBUGMSG(ZONE_ERROR, (TEXT("-CEhcd::Initialize. Error initializing root hub\n")));
; 196  :         return FALSE;

  00158	0a000005	 beq         |$LN3@DeviceInit|

; 197  :     }
; 198  :     // Start processing frames
; 199  :     CHW::EnterOperationalState();

  0015c	e1a00005	 mov         r0, r5
  00160	eb000000	 bl          |?EnterOperationalState@CHW@@QAAXXZ|

; 200  : 
; 201  :     DEBUGMSG(ZONE_INIT,(TEXT("-CMhcd::Initialize. Success!!\r\n")));    
; 202  :     return TRUE;

  00164	e59d0070	 ldr         r0, [sp, #0x70]
  00168	eb000000	 bl          __security_check_cookie
  0016c	e3a00001	 mov         r0, #1
  00170	ea000002	 b           |$LN5@DeviceInit|
  00174		 |$LN3@DeviceInit|

; 147  :             DEBUGMSG(ZONE_ERROR, (TEXT("-CEhcd::Initialize. Error - could not initialize device/pipe/hw classes\n")));
; 148  :             ASSERT(FALSE);
; 149  :             return FALSE;

  00174	e59d0070	 ldr         r0, [sp, #0x70]
  00178	eb000000	 bl          __security_check_cookie
  0017c	e3a00000	 mov         r0, #0
  00180		 |$LN5@DeviceInit|

; 203  : }

  00180	e28dd074	 add         sp, sp, #0x74
  00184	e8bd4ff0	 ldmia       sp!, {r4 - r11, lr}
  00188	e12fff1e	 bx          lr
  0018c		 |$LN18@DeviceInit|
  0018c		 |$LN19@DeviceInit|
  0018c	00000000	 DCD         |__security_cookie|
  00190		 |$M36729|

			 ENDP  ; |?DeviceInitialize@CMhcd@@UAAHXZ|, CMhcd::DeviceInitialize

	IMPORT	|?SignalHubChangeEvent@CHW@@UAAHH@Z|	; CHW::SignalHubChangeEvent

  00000			 AREA	 |.pdata|, PDATA
|$T36745| DCD	|$LN5@SignalHubC|
	DCD	0x40000401
; Function compile flags: /Ogspy

  00000			 AREA	 |.text|, CODE, ARM

  00000		 |?SignalHubChangeEvent@CMhcd@@UAAHH@Z| PROC ; CMhcd::SignalHubChangeEvent

; 205  : {    

  00000		 |$LN5@SignalHubC|
  00000	e52de004	 str         lr, [sp, #-4]!
  00004		 |$M36742|

; 206  :     return CHW::SignalHubChangeEvent(fConnect); 

  00004	eb000000	 bl          |?SignalHubChangeEvent@CHW@@UAAHH@Z|

; 207  : }

  00008	e49de004	 ldr         lr, [sp], #4
  0000c	e12fff1e	 bx          lr
  00010		 |$M36743|

			 ENDP  ; |?SignalHubChangeEvent@CMhcd@@UAAHH@Z|, CMhcd::SignalHubChangeEvent

	EXPORT	|?CreateHCDObject@@YAPAVCHcd@@PAXPAVCPhysMem@@PBGRAEK@Z| ; CreateHCDObject

  00000			 AREA	 |.pdata|, PDATA
|$T36761| DCD	|$LN7@CreateHCDO|
	DCD	0x40001904
; Function compile flags: /Ogspy

  00000			 AREA	 |.text|, CODE, ARM

  00000		 |?CreateHCDObject@@YAPAVCHcd@@PAXPAVCPhysMem@@PBGRAEK@Z| PROC ; CreateHCDObject

; 214  : {    

  00000		 |$LN7@CreateHCDO|
  00000	e1a0c00d	 mov         r12, sp
  00004	e92d000f	 stmdb       sp!, {r0 - r3}
  00008	e92d50f0	 stmdb       sp!, {r4 - r7, r12, lr}
  0000c	e24dd008	 sub         sp, sp, #8
  00010		 |$M36758|
  00010	e1a05002	 mov         r5, r2
  00014	e1a06001	 mov         r6, r1
  00018	e1a07000	 mov         r7, r0
  0001c	e3a03c06	 mov         r3, #6, 24

; 215  :     return new CMhcd (pvUhcdPddObject, pCPhysMem,szDriverRegistryKey,portBase,dwSysIntr);

  00020	e38300d8	 orr         r0, r3, #0xD8
  00024	eb000000	 bl          |??2@YAPAXI@Z|
  00028	e3500000	 cmp         r0, #0
  0002c	0a000008	 beq         |$LN3@CreateHCDO|
  00030	e59de030	 ldr         lr, [sp, #0x30]
  00034	e59d402c	 ldr         r4, [sp, #0x2C]
  00038	e1a03005	 mov         r3, r5
  0003c	e1a02006	 mov         r2, r6
  00040	e1a01007	 mov         r1, r7
  00044	e58de004	 str         lr, [sp, #4]
  00048	e58d4000	 str         r4, [sp]
  0004c	eb000000	 bl          |??0CMhcd@@QAA@PAXPAVCPhysMem@@PBGRAEK@Z|
  00050	ea000000	 b           |$LN4@CreateHCDO|
  00054		 |$LN3@CreateHCDO|
  00054	e3a00000	 mov         r0, #0
  00058		 |$LN4@CreateHCDO|

; 216  : }

  00058	e28dd008	 add         sp, sp, #8
  0005c	e89d60f0	 ldmia       sp, {r4 - r7, sp, lr}
  00060	e12fff1e	 bx          lr
  00064		 |$M36759|

			 ENDP  ; |?CreateHCDObject@@YAPAVCHcd@@PAXPAVCPhysMem@@PBGRAEK@Z|, CreateHCDObject

	IMPORT	|??3@YAXPAX@Z|				; operator delete

  00000			 AREA	 |.pdata|, PDATA
|$T36772| DCD	|$LN6@scalar|
	DCD	0x40000a01
; Function compile flags: /Ogspy

  00000			 AREA	 |.text|, CODE, ARM

  00000		 |??_GCMhcd@@UAAPAXI@Z| PROC		; CMhcd::`scalar deleting destructor'
  00000		 |$LN6@scalar|
  00000	e92d4030	 stmdb       sp!, {r4, r5, lr}
  00004		 |$M36769|
  00004	e1a04001	 mov         r4, r1
  00008	e1a05000	 mov         r5, r0
  0000c	eb000000	 bl          |??1CMhcd@@UAA@XZ|
  00010	e3140001	 tst         r4, #1
  00014	11a00005	 movne       r0, r5
  00018	1b000000	 blne        |??3@YAXPAX@Z|
  0001c	e1a00005	 mov         r0, r5
  00020	e8bd4030	 ldmia       sp!, {r4, r5, lr}
  00024	e12fff1e	 bx          lr
  00028		 |$M36770|

			 ENDP  ; |??_GCMhcd@@UAAPAXI@Z|, CMhcd::`scalar deleting destructor'

	END
