; Listing generated by Microsoft (R) Optimizing Compiler Version 14.01.60511.01 

	TTL	C:\WINCE600\PLATFORM\COMMON\SRC\SOC\COMMON_TI_V1\COMMON_TI\BUS\OMAPBUS\Bus.cpp
	CODE32

  00000			 AREA	 |.drectve|, DRECTVE
	DCB	"/include:?_factory@?$$singleton@V?$$free_list@$$0GE@Vall"
	DCB	"ocator@ce@@@ce@@$$03V?$$static_allocator@V?$$free_list@$$"
	DCB	"0GE@Vallocator@ce@@@ce@@$$03@2@@ce@@1Ulock_factory@12@A "
	DCB	"-defaultlib:LIBCMT "
	DCB	"-defaultlib:OLDNAMES "

	EXPORT	|dpCurSettings| [ DATA ]

  00000			 AREA	 |.data|, DATA
|dpCurSettings| DCB "B", 0x0, "a", 0x0, "s", 0x0, "e", 0x0, "B", 0x0, "u", 0x0
	DCB	"s", 0x0, 0x0, 0x0
	%	48
	DCB	"E", 0x0, "r", 0x0, "r", 0x0, "o", 0x0, "r", 0x0, "s", 0x0
	DCB	0x0, 0x0
	%	50
	DCB	"W", 0x0, "a", 0x0, "r", 0x0, "n", 0x0, "i", 0x0, "n", 0x0
	DCB	"g", 0x0, "s", 0x0, 0x0, 0x0
	%	46
	DCB	"F", 0x0, "u", 0x0, "n", 0x0, "c", 0x0, "t", 0x0, "i", 0x0
	DCB	"o", 0x0, "n", 0x0, 0x0, 0x0
	%	46
	DCB	"I", 0x0, "n", 0x0, "f", 0x0, "o", 0x0, 0x0, 0x0
	%	54
	DCB	"U", 0x0, "n", 0x0, "d", 0x0, "e", 0x0, "f", 0x0, "i", 0x0
	DCB	"n", 0x0, "e", 0x0, "d", 0x0, 0x0, 0x0
	%	44
	DCB	"U", 0x0, "n", 0x0, "d", 0x0, "e", 0x0, "f", 0x0, "i", 0x0
	DCB	"n", 0x0, "e", 0x0, "d", 0x0, 0x0, 0x0
	%	44
	DCB	"U", 0x0, "n", 0x0, "d", 0x0, "e", 0x0, "f", 0x0, "i", 0x0
	DCB	"n", 0x0, "e", 0x0, "d", 0x0, 0x0, 0x0
	%	44
	DCB	"U", 0x0, "n", 0x0, "d", 0x0, "e", 0x0, "f", 0x0, "i", 0x0
	DCB	"n", 0x0, "e", 0x0, "d", 0x0, 0x0, 0x0
	%	44
	DCB	"U", 0x0, "n", 0x0, "d", 0x0, "e", 0x0, "f", 0x0, "i", 0x0
	DCB	"n", 0x0, "e", 0x0, "d", 0x0, 0x0, 0x0
	%	44
	DCB	"U", 0x0, "n", 0x0, "d", 0x0, "e", 0x0, "f", 0x0, "i", 0x0
	DCB	"n", 0x0, "e", 0x0, "d", 0x0, 0x0, 0x0
	%	44
	DCB	"U", 0x0, "n", 0x0, "d", 0x0, "e", 0x0, "f", 0x0, "i", 0x0
	DCB	"n", 0x0, "e", 0x0, "d", 0x0, 0x0, 0x0
	%	44
	DCB	"U", 0x0, "n", 0x0, "d", 0x0, "e", 0x0, "f", 0x0, "i", 0x0
	DCB	"n", 0x0, "e", 0x0, "d", 0x0, 0x0, 0x0
	%	44
	DCB	"U", 0x0, "n", 0x0, "d", 0x0, "e", 0x0, "f", 0x0, "i", 0x0
	DCB	"n", 0x0, "e", 0x0, "d", 0x0, 0x0, 0x0
	%	44
	DCB	"U", 0x0, "n", 0x0, "d", 0x0, "e", 0x0, "f", 0x0, "i", 0x0
	DCB	"n", 0x0, "e", 0x0, "d", 0x0, 0x0, 0x0
	%	44
	DCB	"U", 0x0, "n", 0x0, "d", 0x0, "e", 0x0, "f", 0x0, "i", 0x0
	DCB	"n", 0x0, "e", 0x0, "d", 0x0, 0x0, 0x0
	%	44
	DCB	"U", 0x0, "n", 0x0, "d", 0x0, "e", 0x0, "f", 0x0, "i", 0x0
	DCB	"n", 0x0, "e", 0x0, "d", 0x0, 0x0, 0x0
	%	44
	DCD	0x3
	EXPORT	|??0critical_section@ce@@QAA@XZ|	; ce::critical_section::critical_section
	IMPORT	|InitializeCriticalSection|
; File c:\wince600\public\common\oak\inc\sync.hxx

  00000			 AREA	 |.pdata|, PDATA
|$T42156| DCD	|$LN5@critical_s|
	DCD	0x40000601
; Function compile flags: /Ogspy

  00000			 AREA	 |.text|, CODE, ARM

  00000		 |??0critical_section@ce@@QAA@XZ| PROC	; ce::critical_section::critical_section

; 125  :     critical_section()

  00000		 |$LN5@critical_s|
  00000	e92d4010	 stmdb       sp!, {r4, lr}
  00004		 |$M42153|
  00004	e1a04000	 mov         r4, r0
  00008	eb000000	 bl          InitializeCriticalSection
  0000c	e1a00004	 mov         r0, r4
  00010	e8bd4010	 ldmia       sp!, {r4, lr}
  00014	e12fff1e	 bx          lr
  00018		 |$M42154|

			 ENDP  ; |??0critical_section@ce@@QAA@XZ|, ce::critical_section::critical_section

	EXPORT	|??1critical_section@ce@@QAA@XZ|	; ce::critical_section::~critical_section
	IMPORT	|DeleteCriticalSection|

  00000			 AREA	 |.pdata|, PDATA
|$T42164| DCD	|$LN5@critical_s@2|
	DCD	0x40000401
; Function compile flags: /Ogspy

  00000			 AREA	 |.text|, CODE, ARM

  00000		 |??1critical_section@ce@@QAA@XZ| PROC	; ce::critical_section::~critical_section

; 129  :         {DeleteCriticalSection(this); }

  00000		 |$LN5@critical_s@2|
  00000	e52de004	 str         lr, [sp, #-4]!
  00004		 |$M42161|
  00004	eb000000	 bl          DeleteCriticalSection
  00008	e49de004	 ldr         lr, [sp], #4
  0000c	e12fff1e	 bx          lr
  00010		 |$M42162|

			 ENDP  ; |??1critical_section@ce@@QAA@XZ|, ce::critical_section::~critical_section

	EXPORT	|?CreateDevice@Driver_t@@SAPAV1@XZ|	; Driver_t::CreateDevice
	IMPORT	|??0omap35xxBus_t@@IAA@XZ|		; omap35xxBus_t::omap35xxBus_t
	IMPORT	|??2@YAPAXI@Z|				; operator new
; File c:\wince600\platform\common\src\soc\common_ti_v1\common_ti\bus\omapbus\bus.cpp

  00000			 AREA	 |.pdata|, PDATA
|$T42177| DCD	|$LN7@CreateDevi|
	DCD	0x40000b01
; Function compile flags: /Ogspy

  00000			 AREA	 |.text|, CODE, ARM

  00000		 |?CreateDevice@Driver_t@@SAPAV1@XZ| PROC ; Driver_t::CreateDevice

; 48   : {

  00000		 |$LN7@CreateDevi|
  00000	e52de004	 str         lr, [sp, #-4]!
  00004		 |$M42174|

; 49   :     return new omap35xxBus_t();

  00004	e3a000b0	 mov         r0, #0xB0
  00008	eb000000	 bl          |??2@YAPAXI@Z|
  0000c	e3500000	 cmp         r0, #0
  00010	0a000002	 beq         |$LN3@CreateDevi|
  00014	eb000000	 bl          |??0omap35xxBus_t@@IAA@XZ|

; 50   : }

  00018	e49de004	 ldr         lr, [sp], #4
  0001c	e12fff1e	 bx          lr
  00020		 |$LN3@CreateDevi|

; 49   :     return new omap35xxBus_t();

  00020	e3a00000	 mov         r0, #0

; 50   : }

  00024	e49de004	 ldr         lr, [sp], #4
  00028	e12fff1e	 bx          lr
  0002c		 |$M42175|

			 ENDP  ; |?CreateDevice@Driver_t@@SAPAV1@XZ|, Driver_t::CreateDevice

	EXPORT	|DllMain|
	IMPORT	|DisableThreadLibraryCalls|
	IMPORT	|RegisterDbgZones|

  00000			 AREA	 |.pdata|, PDATA
|$T42188| DCD	|$LN8@DllMain|
	DCD	0x40000c01
; Function compile flags: /Ogspy

  00000			 AREA	 |.text|, CODE, ARM

  00000		 |DllMain| PROC

; 65   : {

  00000		 |$LN8@DllMain|
  00000	e92d4010	 stmdb       sp!, {r4, lr}
  00004		 |$M42185|
  00004	e1a04000	 mov         r4, r0

; 66   :     UNREFERENCED_PARAMETER(pReserved);
; 67   :     switch (reason)

  00008	e3510001	 cmp         r1, #1
  0000c	1a000003	 bne         |$LN2@DllMain|

; 68   :         {
; 69   :         case DLL_PROCESS_ATTACH:
; 70   :             RETAILREGISTERZONES(reinterpret_cast<HMODULE>(hDLL));

  00010	e59f1014	 ldr         r1, [pc, #0x14]
  00014	eb000000	 bl          RegisterDbgZones

; 71   :             DisableThreadLibraryCalls((HMODULE)hDLL);

  00018	e1a00004	 mov         r0, r4
  0001c	eb000000	 bl          DisableThreadLibraryCalls
  00020		 |$LN2@DllMain|

; 72   :             break;
; 73   :         }
; 74   :     return TRUE;

  00020	e3a00001	 mov         r0, #1

; 75   : }

  00024	e8bd4010	 ldmia       sp!, {r4, lr}
  00028	e12fff1e	 bx          lr
  0002c		 |$LN9@DllMain|
  0002c		 |$LN10@DllMain|
  0002c	00000000	 DCD         |dpCurSettings|
  00030		 |$M42186|

			 ENDP  ; |DllMain|

	EXPORT	|??__Fcs@?1??get_lock@?$singleton@V?$free_list@$0GE@Vallocator@ce@@@ce@@$03V?$static_allocator@V?$free_list@$0GE@Vallocator@ce@@@ce@@$03@2@@ce@@KAAAVcritical_section@2@XZ@YAXXZ| ; `ce::singleton<ce::free_list<100,ce::allocator>,4,ce::static_allocator<ce::free_list<100,ce::allocator>,4> >::get_lock'::`2'::`dynamic atexit destructor for 'cs''
	EXPORT	|??_B?1??get_lock@?$singleton@V?$free_list@$0GE@Vallocator@ce@@@ce@@$03V?$static_allocator@V?$free_list@$0GE@Vallocator@ce@@@ce@@$03@2@@ce@@KAAAVcritical_section@2@XZ@51| [ DATA ] ; `ce::singleton<ce::free_list<100,ce::allocator>,4,ce::static_allocator<ce::free_list<100,ce::allocator>,4> >::get_lock'::`2'::`local static guard'
	EXPORT	|?get_lock@?$singleton@V?$free_list@$0GE@Vallocator@ce@@@ce@@$03V?$static_allocator@V?$free_list@$0GE@Vallocator@ce@@@ce@@$03@2@@ce@@KAAAVcritical_section@2@XZ| ; ce::singleton<ce::free_list<100,ce::allocator>,4,ce::static_allocator<ce::free_list<100,ce::allocator>,4> >::get_lock
	EXPORT	|?cs@?1??get_lock@?$singleton@V?$free_list@$0GE@Vallocator@ce@@@ce@@$03V?$static_allocator@V?$free_list@$0GE@Vallocator@ce@@@ce@@$03@2@@ce@@KAAAVcritical_section@3@XZ@4V43@A| [ DATA ] ; `ce::singleton<ce::free_list<100,ce::allocator>,4,ce::static_allocator<ce::free_list<100,ce::allocator>,4> >::get_lock'::`2'::cs
	IMPORT	|atexit|
; File c:\wince600\public\common\oak\inc\sync.hxx

  00000			 AREA	 |.bss|, NOINIT
|??_B?1??get_lock@?$singleton@V?$free_list@$0GE@Vallocator@ce@@@ce@@$03V?$static_allocator@V?$free_list@$0GE@Vallocator@ce@@@ce@@$03@2@@ce@@KAAAVcritical_section@2@XZ@51| % 0x4 ; `ce::singleton<ce::free_list<100,ce::allocator>,4,ce::static_allocator<ce::free_list<100,ce::allocator>,4> >::get_lock'::`2'::`local static guard'

  00000			 AREA	 |.bss|, NOINIT
|?cs@?1??get_lock@?$singleton@V?$free_list@$0GE@Vallocator@ce@@@ce@@$03V?$static_allocator@V?$free_list@$0GE@Vallocator@ce@@@ce@@$03@2@@ce@@KAAAVcritical_section@3@XZ@4V43@A| % 0x14 ; `ce::singleton<ce::free_list<100,ce::allocator>,4,ce::static_allocator<ce::free_list<100,ce::allocator>,4> >::get_lock'::`2'::cs

  00000			 AREA	 |.pdata|, PDATA
|$T42202| DCD	|$LN8@get_lock|
	DCD	0x40001602
; Function compile flags: /Ogspy
; File c:\wince600\public\common\oak\inc\singleton.hxx

  00000			 AREA	 |.text|, CODE, ARM

  00000		 |?get_lock@?$singleton@V?$free_list@$0GE@Vallocator@ce@@@ce@@$03V?$static_allocator@V?$free_list@$0GE@Vallocator@ce@@@ce@@$03@2@@ce@@KAAAVcritical_section@2@XZ| PROC ; ce::singleton<ce::free_list<100,ce::allocator>,4,ce::static_allocator<ce::free_list<100,ce::allocator>,4> >::get_lock

; 320  :     {

  00000		 |$LN8@get_lock|
  00000	e52de004	 str         lr, [sp, #-4]!
  00004	e24dd004	 sub         sp, sp, #4
  00008		 |$M42199|

; 321  :         static critical_section cs;

  00008	e59f2044	 ldr         r2, [pc, #0x44]
  0000c	e5923000	 ldr         r3, [r2]
  00010	e3130001	 tst         r3, #1
  00014	1a000005	 bne         |$LN1@get_lock|
  00018	e59f0028	 ldr         r0, [pc, #0x28]
  0001c	e3833001	 orr         r3, r3, #1
  00020	e5823000	 str         r3, [r2]
  00024	eb000000	 bl          InitializeCriticalSection
  00028	e59f0020	 ldr         r0, [pc, #0x20]
  0002c	eb000000	 bl          atexit
  00030		 |$LN1@get_lock|

; 322  :         
; 323  :         //
; 324  :         // This statement forces compiler to instantiate _factory member
; 325  :         // thus assuring that lock_factory ctor is called. 
; 326  :         //
; 327  :         lock_factory* volatile p = &_factory;

  00030	e59f3014	 ldr         r3, [pc, #0x14]

; 328  : 
; 329  :         return cs;
; 330  :     }

  00034	e59f000c	 ldr         r0, [pc, #0xC]
  00038	e58d3000	 str         r3, [sp]
  0003c	e28dd004	 add         sp, sp, #4
  00040	e49de004	 ldr         lr, [sp], #4
  00044	e12fff1e	 bx          lr
  00048		 |$LN9@get_lock|
  00048		 |$LN10@get_lock|
  00048	00000000	 DCD         |?cs@?1??get_lock@?$singleton@V?$free_list@$0GE@Vallocator@ce@@@ce@@$03V?$static_allocator@V?$free_list@$0GE@Vallocator@ce@@@ce@@$03@2@@ce@@KAAAVcritical_section@3@XZ@4V43@A|
  0004c		 |$LN11@get_lock|
  0004c	00000000	 DCD         |?_factory@?$singleton@V?$free_list@$0GE@Vallocator@ce@@@ce@@$03V?$static_allocator@V?$free_list@$0GE@Vallocator@ce@@@ce@@$03@2@@ce@@1Ulock_factory@12@A|
  00050		 |$LN12@get_lock|
  00050	00000000	 DCD         |??__Fcs@?1??get_lock@?$singleton@V?$free_list@$0GE@Vallocator@ce@@@ce@@$03V?$static_allocator@V?$free_list@$0GE@Vallocator@ce@@@ce@@$03@2@@ce@@KAAAVcritical_section@2@XZ@YAXXZ|
  00054		 |$LN13@get_lock|
  00054	00000000	 DCD         |??_B?1??get_lock@?$singleton@V?$free_list@$0GE@Vallocator@ce@@@ce@@$03V?$static_allocator@V?$free_list@$0GE@Vallocator@ce@@@ce@@$03@2@@ce@@KAAAVcritical_section@2@XZ@51|
  00058		 |$M42200|

			 ENDP  ; |?get_lock@?$singleton@V?$free_list@$0GE@Vallocator@ce@@@ce@@$03V?$static_allocator@V?$free_list@$0GE@Vallocator@ce@@@ce@@$03@2@@ce@@KAAAVcritical_section@2@XZ|, ce::singleton<ce::free_list<100,ce::allocator>,4,ce::static_allocator<ce::free_list<100,ce::allocator>,4> >::get_lock

	EXPORT	|??0lock_factory@?$singleton@V?$free_list@$0GE@Vallocator@ce@@@ce@@$03V?$static_allocator@V?$free_list@$0GE@Vallocator@ce@@@ce@@$03@2@@ce@@QAA@XZ| ; ce::singleton<ce::free_list<100,ce::allocator>,4,ce::static_allocator<ce::free_list<100,ce::allocator>,4> >::lock_factory::lock_factory

  00000			 AREA	 |.pdata|, PDATA
|$T42217| DCD	|$LN5@lock_facto|
	DCD	0x40000601
; Function compile flags: /Ogspy

  00000			 AREA	 |.text|, CODE, ARM

  00000		 |??0lock_factory@?$singleton@V?$free_list@$0GE@Vallocator@ce@@@ce@@$03V?$static_allocator@V?$free_list@$0GE@Vallocator@ce@@@ce@@$03@2@@ce@@QAA@XZ| PROC ; ce::singleton<ce::free_list<100,ce::allocator>,4,ce::static_allocator<ce::free_list<100,ce::allocator>,4> >::lock_factory::lock_factory

; 339  :         lock_factory()

  00000		 |$LN5@lock_facto|
  00000	e92d4010	 stmdb       sp!, {r4, lr}
  00004		 |$M42214|
  00004	e1a04000	 mov         r4, r0
  00008	eb000000	 bl          |?get_lock@?$singleton@V?$free_list@$0GE@Vallocator@ce@@@ce@@$03V?$static_allocator@V?$free_list@$0GE@Vallocator@ce@@@ce@@$03@2@@ce@@KAAAVcritical_section@2@XZ|

; 340  :             {get_lock(); }

  0000c	e1a00004	 mov         r0, r4
  00010	e8bd4010	 ldmia       sp!, {r4, lr}
  00014	e12fff1e	 bx          lr
  00018		 |$M42215|

			 ENDP  ; |??0lock_factory@?$singleton@V?$free_list@$0GE@Vallocator@ce@@@ce@@$03V?$static_allocator@V?$free_list@$0GE@Vallocator@ce@@@ce@@$03@2@@ce@@QAA@XZ|, ce::singleton<ce::free_list<100,ce::allocator>,4,ce::static_allocator<ce::free_list<100,ce::allocator>,4> >::lock_factory::lock_factory


  00000			 AREA	 |.pdata|, PDATA
|$T42227| DCD	|$LN7@factory|
	DCD	0x40000401
; Function compile flags: /Ogspy

  00000			 AREA	 |.text$yc|, CODE, ARM

  00000		 |??__E?_factory@?$singleton@V?$free_list@$0GE@Vallocator@ce@@@ce@@$03V?$static_allocator@V?$free_list@$0GE@Vallocator@ce@@@ce@@$03@2@@ce@@1Ulock_factory@12@A@@YAXXZ| PROC ; `dynamic initializer for 'ce::singleton<ce::free_list<100,ce::allocator>,4,ce::static_allocator<ce::free_list<100,ce::allocator>,4> >::_factory''

; 390  :     {

  00000		 |$LN7@factory|
  00000	e52de004	 str         lr, [sp, #-4]!
  00004		 |$M42224|
  00004	eb000000	 bl          |?get_lock@?$singleton@V?$free_list@$0GE@Vallocator@ce@@@ce@@$03V?$static_allocator@V?$free_list@$0GE@Vallocator@ce@@@ce@@$03@2@@ce@@KAAAVcritical_section@2@XZ|
  00008	e49de004	 ldr         lr, [sp], #4
  0000c	e12fff1e	 bx          lr
  00010		 |$M42225|

			 ENDP  ; |??__E?_factory@?$singleton@V?$free_list@$0GE@Vallocator@ce@@@ce@@$03V?$static_allocator@V?$free_list@$0GE@Vallocator@ce@@@ce@@$03@2@@ce@@1Ulock_factory@12@A@@YAXXZ|, `dynamic initializer for 'ce::singleton<ce::free_list<100,ce::allocator>,4,ce::static_allocator<ce::free_list<100,ce::allocator>,4> >::_factory''


  00000			 AREA	 |.pdata|, PDATA
|$T42237| DCD	|$LN7@dynamic|
	DCD	0x40000601
; Function compile flags: /Ogspy

  00000			 AREA	 |.text$yd|, CODE, ARM

  00000		 |??__Fcs@?1??get_lock@?$singleton@V?$free_list@$0GE@Vallocator@ce@@@ce@@$03V?$static_allocator@V?$free_list@$0GE@Vallocator@ce@@@ce@@$03@2@@ce@@KAAAVcritical_section@2@XZ@YAXXZ| PROC ; `ce::singleton<ce::free_list<100,ce::allocator>,4,ce::static_allocator<ce::free_list<100,ce::allocator>,4> >::get_lock'::`2'::`dynamic atexit destructor for 'cs''
  00000		 |$LN7@dynamic|
  00000	e52de004	 str         lr, [sp, #-4]!
  00004		 |$M42234|
  00004	e59f0008	 ldr         r0, [pc, #8]
  00008	eb000000	 bl          DeleteCriticalSection
  0000c	e49de004	 ldr         lr, [sp], #4
  00010	e12fff1e	 bx          lr
  00014		 |$LN8@dynamic|
  00014		 |$LN9@dynamic|
  00014	00000000	 DCD         |?cs@?1??get_lock@?$singleton@V?$free_list@$0GE@Vallocator@ce@@@ce@@$03V?$static_allocator@V?$free_list@$0GE@Vallocator@ce@@@ce@@$03@2@@ce@@KAAAVcritical_section@3@XZ@4V43@A|
  00018		 |$M42235|

			 ENDP  ; |??__Fcs@?1??get_lock@?$singleton@V?$free_list@$0GE@Vallocator@ce@@@ce@@$03V?$static_allocator@V?$free_list@$0GE@Vallocator@ce@@@ce@@$03@2@@ce@@KAAAVcritical_section@2@XZ@YAXXZ|, `ce::singleton<ce::free_list<100,ce::allocator>,4,ce::static_allocator<ce::free_list<100,ce::allocator>,4> >::get_lock'::`2'::`dynamic atexit destructor for 'cs''

	EXPORT	|?_factory@?$singleton@V?$free_list@$0GE@Vallocator@ce@@@ce@@$03V?$static_allocator@V?$free_list@$0GE@Vallocator@ce@@@ce@@$03@2@@ce@@1Ulock_factory@12@A| [ DATA ] ; ce::singleton<ce::free_list<100,ce::allocator>,4,ce::static_allocator<ce::free_list<100,ce::allocator>,4> >::_factory

  00000			 AREA	 |.bss|, NOINIT
|?_factory@?$singleton@V?$free_list@$0GE@Vallocator@ce@@@ce@@$03V?$static_allocator@V?$free_list@$0GE@Vallocator@ce@@@ce@@$03@2@@ce@@1Ulock_factory@12@A| % 0x1 ; ce::singleton<ce::free_list<100,ce::allocator>,4,ce::static_allocator<ce::free_list<100,ce::allocator>,4> >::_factory

  00000			 AREA	 |.CRT$XCU|, DATA
|?_factory$initializer$@?$singleton@V?$free_list@$0GE@Vallocator@ce@@@ce@@$03V?$static_allocator@V?$free_list@$0GE@Vallocator@ce@@@ce@@$03@2@@ce@@1P6AXXZA| DCD |??__E?_factory@?$singleton@V?$free_list@$0GE@Vallocator@ce@@@ce@@$03V?$static_allocator@V?$free_list@$0GE@Vallocator@ce@@@ce@@$03@2@@ce@@1Ulock_factory@12@A@@YAXXZ| ; ce::singleton<ce::free_list<100,ce::allocator>,4,ce::static_allocator<ce::free_list<100,ce::allocator>,4> >::_factory$initializer$
	END
