; Listing generated by Microsoft (R) Optimizing Compiler Version 14.01.60511.01 

	TTL	C:\WINCE600\PLATFORM\COMMON\SRC\SOC\COMMON_TI_V1\COMMON_TI\BUS\OMAPBUS\omap35xxbuschild.cpp
	CODE32

  00000			 AREA	 |.drectve|, DRECTVE
	DCB	"/include:?_factory@?$$singleton@V?$$free_list@$$0GE@Vall"
	DCB	"ocator@ce@@@ce@@$$03V?$$static_allocator@V?$$free_list@$$"
	DCB	"0GE@Vallocator@ce@@@ce@@$$03@2@@ce@@1Ulock_factory@12@A "
	DCB	"-defaultlib:LIBCMT "
	DCB	"-defaultlib:OLDNAMES "

	EXPORT	|??0critical_section@ce@@QAA@XZ|	; ce::critical_section::critical_section
	IMPORT	|InitializeCriticalSection|
; File c:\wince600\public\common\oak\inc\sync.hxx

  00000			 AREA	 |.pdata|, PDATA
|$T42368| DCD	|$LN5@critical_s|
	DCD	0x40000601
; Function compile flags: /Ogspy

  00000			 AREA	 |.text|, CODE, ARM

  00000		 |??0critical_section@ce@@QAA@XZ| PROC	; ce::critical_section::critical_section

; 125  :     critical_section()

  00000		 |$LN5@critical_s|
  00000	e92d4010	 stmdb       sp!, {r4, lr}
  00004		 |$M42365|
  00004	e1a04000	 mov         r4, r0
  00008	eb000000	 bl          InitializeCriticalSection
  0000c	e1a00004	 mov         r0, r4
  00010	e8bd4010	 ldmia       sp!, {r4, lr}
  00014	e12fff1e	 bx          lr
  00018		 |$M42366|

			 ENDP  ; |??0critical_section@ce@@QAA@XZ|, ce::critical_section::critical_section

	EXPORT	|??1critical_section@ce@@QAA@XZ|	; ce::critical_section::~critical_section
	IMPORT	|DeleteCriticalSection|

  00000			 AREA	 |.pdata|, PDATA
|$T42376| DCD	|$LN5@critical_s@2|
	DCD	0x40000401
; Function compile flags: /Ogspy

  00000			 AREA	 |.text|, CODE, ARM

  00000		 |??1critical_section@ce@@QAA@XZ| PROC	; ce::critical_section::~critical_section

; 129  :         {DeleteCriticalSection(this); }

  00000		 |$LN5@critical_s@2|
  00000	e52de004	 str         lr, [sp, #-4]!
  00004		 |$M42373|
  00004	eb000000	 bl          DeleteCriticalSection
  00008	e49de004	 ldr         lr, [sp], #4
  0000c	e12fff1e	 bx          lr
  00010		 |$M42374|

			 ENDP  ; |??1critical_section@ce@@QAA@XZ|, ce::critical_section::~critical_section

	EXPORT	|??0omap35xxBusChild_t@@IAA@PAVomap35xxBus_t@@K@Z| ; omap35xxBusChild_t::omap35xxBusChild_t
	EXPORT	|??_7omap35xxBusChild_t@@6B@| [ DATA ]	; omap35xxBusChild_t::`vftable'
	EXPORT	|?Init@omap35xxBusChild_t@@UAAHKPBG@Z|	; omap35xxBusChild_t::Init
	EXPORT	|?IoCtlGetPowerState@omap35xxBusChild_t@@UAAHPAW4_CEDEVICE_POWER_STATE@@@Z| ; omap35xxBusChild_t::IoCtlGetPowerState
	EXPORT	|?IoCtlSetPowerState@omap35xxBusChild_t@@UAAHPAW4_CEDEVICE_POWER_STATE@@@Z| ; omap35xxBusChild_t::IoCtlSetPowerState
	EXPORT	|?IoControl@omap35xxBusChild_t@@UAAHKPAEK0KPAK@Z| ; omap35xxBusChild_t::IoControl
	IMPORT	|??0DefaultBusChild_t@@IAA@PAVDefaultBus_t@@@Z| ; DefaultBusChild_t::DefaultBusChild_t
	IMPORT	|??_Eomap35xxBusChild_t@@UAAPAXI@Z|, WEAK |??_Gomap35xxBusChild_t@@UAAPAXI@Z| ; omap35xxBusChild_t::`vector deleting destructor', omap35xxBusChild_t::`scalar deleting destructor'
	IMPORT	|?DriverId@DefaultBusChild_t@@UAAKXZ|	; DefaultBusChild_t::DriverId
	IMPORT	|?DeviceName@DefaultBusChild_t@@UAAPBGXZ| ; DefaultBusChild_t::DeviceName
	IMPORT	|?IoCtlTranslateBusAddress@DefaultBusChild_t@@UAAHW4_INTERFACE_TYPE@@KT_LARGE_INTEGER@@PAKPAT3@@Z| ; DefaultBusChild_t::IoCtlTranslateBusAddress
	IMPORT	|?IoCtlTranslateSystemAddress@DefaultBusChild_t@@UAAHW4_INTERFACE_TYPE@@KT_LARGE_INTEGER@@PAT3@@Z| ; DefaultBusChild_t::IoCtlTranslateSystemAddress
	IMPORT	|?IoCtlGetConfigurationData@DefaultBusChild_t@@UAAHKKKPAX@Z| ; DefaultBusChild_t::IoCtlGetConfigurationData
	IMPORT	|?IoCtlSetConfigurationData@DefaultBusChild_t@@UAAHKKKPAX@Z| ; DefaultBusChild_t::IoCtlSetConfigurationData
	IMPORT	|?IoCtlActivateChild@DefaultBusChild_t@@UAAHXZ| ; DefaultBusChild_t::IoCtlActivateChild
	IMPORT	|?IoCtlDeactivateChild@DefaultBusChild_t@@UAAHXZ| ; DefaultBusChild_t::IoCtlDeactivateChild
	IMPORT	|?IoCtlIsChildRemoved@DefaultBusChild_t@@UAAHXZ| ; DefaultBusChild_t::IoCtlIsChildRemoved
; File c:\wince600\platform\common\src\soc\common_ti_v1\common_ti\bus\omapbus\omap35xxbuschild.cpp

  00000			 AREA	 |.pdata|, PDATA
|$T42388| DCD	|$LN5@omap35xxBu|
	DCD	0x40000d01

  00000			 AREA	 |.rdata|, DATA, READONLY
|??_7omap35xxBusChild_t@@6B@| DCD |??_Eomap35xxBusChild_t@@UAAPAXI@Z| ; omap35xxBusChild_t::`vftable'
	DCD	|?Init@omap35xxBusChild_t@@UAAHKPBG@Z|
	DCD	|?DriverId@DefaultBusChild_t@@UAAKXZ|
	DCD	|?DeviceName@DefaultBusChild_t@@UAAPBGXZ|
	DCD	|?IoCtlTranslateBusAddress@DefaultBusChild_t@@UAAHW4_INTERFACE_TYPE@@KT_LARGE_INTEGER@@PAKPAT3@@Z|
	DCD	|?IoCtlTranslateSystemAddress@DefaultBusChild_t@@UAAHW4_INTERFACE_TYPE@@KT_LARGE_INTEGER@@PAT3@@Z|
	DCD	|?IoCtlGetPowerState@omap35xxBusChild_t@@UAAHPAW4_CEDEVICE_POWER_STATE@@@Z|
	DCD	|?IoCtlSetPowerState@omap35xxBusChild_t@@UAAHPAW4_CEDEVICE_POWER_STATE@@@Z|
	DCD	|?IoCtlGetConfigurationData@DefaultBusChild_t@@UAAHKKKPAX@Z|
	DCD	|?IoCtlSetConfigurationData@DefaultBusChild_t@@UAAHKKKPAX@Z|
	DCD	|?IoCtlActivateChild@DefaultBusChild_t@@UAAHXZ|
	DCD	|?IoCtlDeactivateChild@DefaultBusChild_t@@UAAHXZ|
	DCD	|?IoCtlIsChildRemoved@DefaultBusChild_t@@UAAHXZ|
	DCD	|?IoControl@omap35xxBusChild_t@@UAAHKPAEK0KPAK@Z|
; Function compile flags: /Ogspy

  00000			 AREA	 |.text|, CODE, ARM

  00000		 |??0omap35xxBusChild_t@@IAA@PAVomap35xxBus_t@@K@Z| PROC ; omap35xxBusChild_t::omap35xxBusChild_t

; 39   : {

  00000		 |$LN5@omap35xxBu|
  00000	e92d4030	 stmdb       sp!, {r4, r5, lr}
  00004		 |$M42385|
  00004	e1a04002	 mov         r4, r2
  00008	e1a05000	 mov         r5, r0
  0000c	eb000000	 bl          |??0DefaultBusChild_t@@IAA@PAVDefaultBus_t@@@Z|
  00010	e59f3018	 ldr         r3, [pc, #0x18]

; 40   :     // Let assume we start with power off device...
; 41   :     m_powerState = D4;

  00014	e3a02004	 mov         r2, #4
  00018	e58540e0	 str         r4, [r5, #0xE0]
  0001c	e5853000	 str         r3, [r5]
  00020	e58520dc	 str         r2, [r5, #0xDC]

; 42   : }

  00024	e1a00005	 mov         r0, r5
  00028	e8bd4030	 ldmia       sp!, {r4, r5, lr}
  0002c	e12fff1e	 bx          lr
  00030		 |$LN6@omap35xxBu|
  00030		 |$LN7@omap35xxBu|
  00030	00000000	 DCD         |??_7omap35xxBusChild_t@@6B@|
  00034		 |$M42386|

			 ENDP  ; |??0omap35xxBusChild_t@@IAA@PAVomap35xxBus_t@@K@Z|, omap35xxBusChild_t::omap35xxBusChild_t

	EXPORT	|??1omap35xxBusChild_t@@UAA@XZ|		; omap35xxBusChild_t::~omap35xxBusChild_t
	IMPORT	|??1DefaultBusChild_t@@MAA@XZ|		; DefaultBusChild_t::~DefaultBusChild_t

  00000			 AREA	 |.pdata|, PDATA
|$T42398| DCD	|$LN5@omap35xxBu@2|
	DCD	0x40000401
; Function compile flags: /Ogspy

  00000			 AREA	 |.text|, CODE, ARM

  00000		 |??1omap35xxBusChild_t@@UAA@XZ| PROC	; omap35xxBusChild_t::~omap35xxBusChild_t
  00000		 |$LN5@omap35xxBu@2|
  00000	e52de004	 str         lr, [sp, #-4]!
  00004		 |$M42395|
  00004	eb000000	 bl          |??1DefaultBusChild_t@@MAA@XZ|
  00008	e49de004	 ldr         lr, [sp], #4
  0000c	e12fff1e	 bx          lr
  00010		 |$M42396|

			 ENDP  ; |??1omap35xxBusChild_t@@UAA@XZ|, omap35xxBusChild_t::~omap35xxBusChild_t

	IMPORT	|?Init@DefaultBusChild_t@@UAAHKPBG@Z|	; DefaultBusChild_t::Init

  00000			 AREA	 |.pdata|, PDATA
|$T42417| DCD	|$LN17@Init|
	DCD	0x40002c01
; Function compile flags: /Ogspy

  00000			 AREA	 |.text|, CODE, ARM

  00000		 |?Init@omap35xxBusChild_t@@UAAHKPBG@Z| PROC ; omap35xxBusChild_t::Init

; 54   : {

  00000		 |$LN17@Init|
  00000	e92d4030	 stmdb       sp!, {r4, r5, lr}
  00004		 |$M42414|
  00004	e1a04000	 mov         r4, r0

; 55   :     // if m_devId == OMAP_DEVICE_GENERIC, then the child is a generic 
; 56   :     // child used to communicate with the dvfs policy.  Don't try to 
; 57   :     // pull data from the registery for the child
; 58   :     
; 59   :     BOOL rc = FALSE;
; 60   :     if (m_devId != OMAP_MAX_DEVICE_COUNT)

  00008	e59430e0	 ldr         r3, [r4, #0xE0]
  0000c	e3a05000	 mov         r5, #0
  00010	e3530080	 cmp         r3, #0x80
  00014	0a00000b	 beq         |$LN2@Init|
  00018	e3a03c01	 mov         r3, #1, 24

; 61   :         {
; 62   :         // assume context restore, pre/post device notifications are
; 63   :         // required
; 64   :         m_ffPower = POWERFLAGS_PRESTATECHANGENOTIFY | 
; 65   :                     POWERFLAGS_POSTSTATECHANGENOTIFY |
; 66   :                     POWERFLAGS_CONTEXTRESTORE;

  0001c	e3833003	 orr         r3, r3, #3
  00020	e58430d8	 str         r3, [r4, #0xD8]

; 67   : 
; 68   :         if (deviceRegistryKey != NULL)

  00024	e3520000	 cmp         r2, #0
  00028	0a000003	 beq         |$LN5@Init|

; 69   :             {
; 70   :             if (DefaultBusChild_t::Init(index, deviceRegistryKey) == FALSE)

  0002c	eb000000	 bl          |?Init@DefaultBusChild_t@@UAAHKPBG@Z|
  00030	e3500000	 cmp         r0, #0
  00034	0a00001a	 beq         |$cleanUp$41736|

; 71   :                 {
; 72   :                 goto cleanUp;
; 73   :                 }
; 74   :             }
; 75   :         else

  00038	ea000002	 b           |$LN2@Init|
  0003c		 |$LN5@Init|

; 76   :             {
; 77   :             m_flags |= DEVFLAGS_NOLOAD;

  0003c	e594306c	 ldr         r3, [r4, #0x6C]
  00040	e3833004	 orr         r3, r3, #4
  00044	e584306c	 str         r3, [r4, #0x6C]
  00048		 |$LN2@Init|

; 78   :             }            
; 79   :         }
; 80   : 
; 81   :     // if default id is not set then use m_devId
; 82   :     //
; 83   :     if (m_driverId == -1)

  00048	e59430d4	 ldr         r3, [r4, #0xD4]

; 84   :         m_driverId = m_devId;
; 85   : 
; 86   :     // check if pre/post device state change notifications should
; 87   :     // be sent for this driver
; 88   :     m_bSendPrePinMuxChange = TRUE;
; 89   :     m_bSendPostPinMuxChange = TRUE;
; 90   :     m_bSendPreDevicePowerStateChange = TRUE;
; 91   :     m_bSendPostDevicePowerStateChange = TRUE;
; 92   :     m_bSendPreNotifyDevicePowerStateChange = (m_ffPower & POWERFLAGS_PRESTATECHANGENOTIFY) != 0;

  0004c	e3a02001	 mov         r2, #1
  00050	e58420e4	 str         r2, [r4, #0xE4]
  00054	e3730001	 cmn         r3, #1
  00058	059430e0	 ldreq       r3, [r4, #0xE0]
  0005c	e58420e8	 str         r2, [r4, #0xE8]
  00060	e58420ec	 str         r2, [r4, #0xEC]
  00064	058430d4	 streq       r3, [r4, #0xD4]
  00068	e59430d8	 ldr         r3, [r4, #0xD8]
  0006c	e58420f0	 str         r2, [r4, #0xF0]

; 93   :     m_bSendPostNotifyDevicePowerStateChange = (m_ffPower & POWERFLAGS_POSTSTATECHANGENOTIFY) != 0;
; 94   :     m_bRequestContextRestoreNotice = (m_ffPower & POWERFLAGS_CONTEXTRESTORE) != 0;
; 95   : 
; 96   :     rc = TRUE;

  00070	e3a05001	 mov         r5, #1
  00074	e3130001	 tst         r3, #1
  00078	13a02001	 movne       r2, #1
  0007c	03a02000	 moveq       r2, #0
  00080	e3130002	 tst         r3, #2
  00084	e58420f4	 str         r2, [r4, #0xF4]
  00088	13a02001	 movne       r2, #1
  0008c	03a02000	 moveq       r2, #0
  00090	e3130c01	 tst         r3, #1, 24
  00094	13a03001	 movne       r3, #1
  00098	03a03000	 moveq       r3, #0
  0009c	e58430fc	 str         r3, [r4, #0xFC]
  000a0	e58420f8	 str         r2, [r4, #0xF8]
  000a4		 |$cleanUp$41736|

; 97   : cleanUp:    
; 98   :     return rc;
; 99   : }

  000a4	e1a00005	 mov         r0, r5
  000a8	e8bd4030	 ldmia       sp!, {r4, r5, lr}
  000ac	e12fff1e	 bx          lr
  000b0		 |$M42415|

			 ENDP  ; |?Init@omap35xxBusChild_t@@UAAHKPBG@Z|, omap35xxBusChild_t::Init


  00000			 AREA	 |.pdata|, PDATA
|$T42428| DCD	|$LN5@IoCtlGetPo|
	DCD	0x40000400
; Function compile flags: /Ogspy

  00000			 AREA	 |.text|, CODE, ARM

  00000		 |?IoCtlGetPowerState@omap35xxBusChild_t@@UAAHPAW4_CEDEVICE_POWER_STATE@@@Z| PROC ; omap35xxBusChild_t::IoCtlGetPowerState

; 110  : {

  00000		 |$LN5@IoCtlGetPo|
  00000		 |$M42425|

; 111  :     *pPowerState = m_powerState;

  00000	e59030dc	 ldr         r3, [r0, #0xDC]

; 112  :     return TRUE;

  00004	e3a00001	 mov         r0, #1
  00008	e5813000	 str         r3, [r1]

; 113  : }

  0000c	e12fff1e	 bx          lr
  00010		 |$M42426|

			 ENDP  ; |?IoCtlGetPowerState@omap35xxBusChild_t@@UAAHPAW4_CEDEVICE_POWER_STATE@@@Z|, omap35xxBusChild_t::IoCtlGetPowerState

	IMPORT	|?PostNotifyDevicePowerStateChange@omap35xxBus_t@@QAAKKW4_CEDEVICE_POWER_STATE@@0@Z| ; omap35xxBus_t::PostNotifyDevicePowerStateChange
	IMPORT	|?PostDevicePowerStateChange@omap35xxBus_t@@QAAKKW4_CEDEVICE_POWER_STATE@@0@Z| ; omap35xxBus_t::PostDevicePowerStateChange
	IMPORT	|PmxSendDeviceNotification|
	IMPORT	|?GetDeviceContextState@omap35xxBus_t@@QAAHK@Z| ; omap35xxBus_t::GetDeviceContextState
	IMPORT	|?RequestIClock@omap35xxBus_t@@QAAHK@Z|	; omap35xxBus_t::RequestIClock
	IMPORT	|?RequestFClock@omap35xxBus_t@@QAAHK@Z|	; omap35xxBus_t::RequestFClock
	IMPORT	|?ReleaseIClock@omap35xxBus_t@@QAAHK@Z|	; omap35xxBus_t::ReleaseIClock
	IMPORT	|?ReleaseFClock@omap35xxBus_t@@QAAHK@Z|	; omap35xxBus_t::ReleaseFClock
	IMPORT	|?PreDevicePowerStateChange@omap35xxBus_t@@QAAKKW4_CEDEVICE_POWER_STATE@@0@Z| ; omap35xxBus_t::PreDevicePowerStateChange
	IMPORT	|?PreNotifyDevicePowerStateChange@omap35xxBus_t@@QAAKKW4_CEDEVICE_POWER_STATE@@0@Z| ; omap35xxBus_t::PreNotifyDevicePowerStateChange
	IMPORT	|?UpdateOnDeviceStateChange@omap35xxBus_t@@QAAKKW4_CEDEVICE_POWER_STATE@@0H@Z| ; omap35xxBus_t::UpdateOnDeviceStateChange

  00000			 AREA	 |.pdata|, PDATA
|$T42444| DCD	|$LN28@IoCtlSetPo|
	DCD	0x40008d02
; Function compile flags: /Ogspy

  00000			 AREA	 |.text|, CODE, ARM

  00000		 |?IoCtlSetPowerState@omap35xxBusChild_t@@UAAHPAW4_CEDEVICE_POWER_STATE@@@Z| PROC ; omap35xxBusChild_t::IoCtlSetPowerState

; 124  : {    

  00000		 |$LN28@IoCtlSetPo|
  00000	e92d41f0	 stmdb       sp!, {r4 - r8, lr}
  00004	e24dd010	 sub         sp, sp, #0x10
  00008		 |$M42441|
  00008	e1a04000	 mov         r4, r0

; 125  :     CEDEVICE_POWER_STATE oldState = m_powerState;

  0000c	e59470dc	 ldr         r7, [r4, #0xDC]

; 126  :     CEDEVICE_POWER_STATE newState = *pPowerState;

  00010	e5915000	 ldr         r5, [r1]

; 127  :     omap35xxBus_t* pBus = reinterpret_cast<omap35xxBus_t*>(m_pBus);

  00014	e5946008	 ldr         r6, [r4, #8]

; 128  : 
; 129  :     // notify power bus of device power state change
; 130  :     if (oldState != newState)

  00018	e3a08000	 mov         r8, #0
  0001c	e1570005	 cmp         r7, r5
  00020	0a00001f	 beq         |$LN18@IoCtlSetPo|

; 131  :         {
; 132  :         if (m_bSendPrePinMuxChange == TRUE &&
; 133  :             pBus->UpdateOnDeviceStateChange(m_devId, oldState, newState, TRUE) == -1)

  00024	e59430e4	 ldr         r3, [r4, #0xE4]
  00028	e3530001	 cmp         r3, #1
  0002c	1a000008	 bne         |$LN20@IoCtlSetPo|
  00030	e59410e0	 ldr         r1, [r4, #0xE0]
  00034	e3a0e001	 mov         lr, #1
  00038	e1a03005	 mov         r3, r5
  0003c	e1a02007	 mov         r2, r7
  00040	e1a00006	 mov         r0, r6
  00044	e58de000	 str         lr, [sp]
  00048	eb000000	 bl          |?UpdateOnDeviceStateChange@omap35xxBus_t@@QAAKKW4_CEDEVICE_POWER_STATE@@0H@Z|
  0004c	e3700001	 cmn         r0, #1

; 134  :             {
; 135  :             m_bSendPrePinMuxChange = FALSE;

  00050	058480e4	 streq       r8, [r4, #0xE4]
  00054		 |$LN20@IoCtlSetPo|

; 136  :             }
; 137  :         
; 138  :         if (m_bSendPreNotifyDevicePowerStateChange == TRUE &&
; 139  :             pBus->PreNotifyDevicePowerStateChange(m_devId, oldState, newState) == -1)

  00054	e59430f4	 ldr         r3, [r4, #0xF4]
  00058	e3530001	 cmp         r3, #1
  0005c	1a000006	 bne         |$LN19@IoCtlSetPo|
  00060	e59410e0	 ldr         r1, [r4, #0xE0]
  00064	e1a03005	 mov         r3, r5
  00068	e1a02007	 mov         r2, r7
  0006c	e1a00006	 mov         r0, r6
  00070	eb000000	 bl          |?PreNotifyDevicePowerStateChange@omap35xxBus_t@@QAAKKW4_CEDEVICE_POWER_STATE@@0@Z|
  00074	e3700001	 cmn         r0, #1

; 140  :             {
; 141  :             m_bSendPreNotifyDevicePowerStateChange = FALSE;

  00078	058480f4	 streq       r8, [r4, #0xF4]
  0007c		 |$LN19@IoCtlSetPo|

; 142  :             }
; 143  : 
; 144  :         if (m_bSendPreDevicePowerStateChange == TRUE &&
; 145  :             pBus->PreDevicePowerStateChange(m_devId, oldState, newState) == -1)

  0007c	e59430ec	 ldr         r3, [r4, #0xEC]
  00080	e3530001	 cmp         r3, #1
  00084	1a000006	 bne         |$LN18@IoCtlSetPo|
  00088	e59410e0	 ldr         r1, [r4, #0xE0]
  0008c	e1a03005	 mov         r3, r5
  00090	e1a02007	 mov         r2, r7
  00094	e1a00006	 mov         r0, r6
  00098	eb000000	 bl          |?PreDevicePowerStateChange@omap35xxBus_t@@QAAKKW4_CEDEVICE_POWER_STATE@@0@Z|
  0009c	e3700001	 cmn         r0, #1

; 146  :             {
; 147  :             m_bSendPreDevicePowerStateChange = FALSE;

  000a0	058480ec	 streq       r8, [r4, #0xEC]
  000a4		 |$LN18@IoCtlSetPo|

; 148  :             }
; 149  :         }
; 150  :     
; 151  :     switch (newState)

  000a4	e3550000	 cmp         r5, #0
  000a8	4a000022	 bmi         |$LN14@IoCtlSetPo|
  000ac	e3550001	 cmp         r5, #1
  000b0	da000016	 ble         |$LN15@IoCtlSetPo|
  000b4	e3550002	 cmp         r5, #2
  000b8	0a00000c	 beq         |$LN12@IoCtlSetPo|
  000bc	da00001d	 ble         |$LN14@IoCtlSetPo|
  000c0	e3550004	 cmp         r5, #4
  000c4	ca00001b	 bgt         |$LN14@IoCtlSetPo|

; 177  :             
; 178  :         case D3:
; 179  :         case D4:
; 180  :             if (m_powerState < D3)

  000c8	e59430dc	 ldr         r3, [r4, #0xDC]
  000cc	e3530003	 cmp         r3, #3
  000d0	aa000018	 bge         |$LN14@IoCtlSetPo|

; 181  :                 {                
; 182  :                 pBus->ReleaseFClock(m_devId);

  000d4	e59410e0	 ldr         r1, [r4, #0xE0]
  000d8	e1a00006	 mov         r0, r6
  000dc	eb000000	 bl          |?ReleaseFClock@omap35xxBus_t@@QAAHK@Z|
  000e0		 |$LN25@IoCtlSetPo|

; 183  :                 pBus->ReleaseIClock(m_devId);

  000e0	e59410e0	 ldr         r1, [r4, #0xE0]
  000e4	e1a00006	 mov         r0, r6
  000e8	eb000000	 bl          |?ReleaseIClock@omap35xxBus_t@@QAAHK@Z|

; 184  :                 }
; 185  :             break;

  000ec	ea000011	 b           |$LN14@IoCtlSetPo|
  000f0		 |$LN12@IoCtlSetPo|

; 163  :                 }
; 164  :             break;
; 165  :             
; 166  :         case D2:
; 167  :             // enable only functional clocks
; 168  :             if (m_powerState < D2)

  000f0	e59430dc	 ldr         r3, [r4, #0xDC]
  000f4	e3530002	 cmp         r3, #2

; 169  :                 {
; 170  :                 pBus->ReleaseIClock(m_devId);

  000f8	bafffff8	 blt         |$LN25@IoCtlSetPo|

; 171  :                 }
; 172  :             else if (m_powerState > D2)

  000fc	da00000d	 ble         |$LN14@IoCtlSetPo|

; 173  :                 {                
; 174  :                 pBus->RequestFClock(m_devId);

  00100	e59410e0	 ldr         r1, [r4, #0xE0]
  00104	e1a00006	 mov         r0, r6
  00108	eb000000	 bl          |?RequestFClock@omap35xxBus_t@@QAAHK@Z|

; 175  :                 }
; 176  :             break;

  0010c	ea000009	 b           |$LN14@IoCtlSetPo|
  00110		 |$LN15@IoCtlSetPo|

; 152  :         {
; 153  :         case D0:
; 154  :         case D1:
; 155  :             // enable interface and function clocks
; 156  :             if (m_powerState > D1)

  00110	e59430dc	 ldr         r3, [r4, #0xDC]
  00114	e3530001	 cmp         r3, #1
  00118	da000006	 ble         |$LN14@IoCtlSetPo|

; 157  :                 {
; 158  :                 if (m_powerState > D2)

  0011c	e3530002	 cmp         r3, #2

; 159  :                     {                    
; 160  :                     pBus->RequestFClock(m_devId);

  00120	c59410e0	 ldrgt       r1, [r4, #0xE0]
  00124	c1a00006	 movgt       r0, r6
  00128	cb000000	 blgt        |?RequestFClock@omap35xxBus_t@@QAAHK@Z|

; 161  :                     } 
; 162  :                 pBus->RequestIClock(m_devId);                               

  0012c	e59410e0	 ldr         r1, [r4, #0xE0]
  00130	e1a00006	 mov         r0, r6
  00134	eb000000	 bl          |?RequestIClock@omap35xxBus_t@@QAAHK@Z|
  00138		 |$LN14@IoCtlSetPo|

; 186  :         }
; 187  : 
; 188  :     // Disable power if new state is D4
; 189  :     if (oldState != newState)

  00138	e1570005	 cmp         r7, r5
  0013c	0a000036	 beq         |$LN1@IoCtlSetPo|

; 190  :         {
; 191  :         // check if context restore needs to be sent
; 192  :         if (((m_ffPower & POWERFLAGS_CONTEXTRESTORE) != 0) &&
; 193  :             (oldState >= D3 && newState <= D2))

  00140	e59430d8	 ldr         r3, [r4, #0xD8]
  00144	e3130c01	 tst         r3, #1, 24
  00148	0a000014	 beq         |$LN4@IoCtlSetPo|
  0014c	e3570003	 cmp         r7, #3
  00150	ba000012	 blt         |$LN4@IoCtlSetPo|
  00154	e3550002	 cmp         r5, #2
  00158	ca000010	 bgt         |$LN4@IoCtlSetPo|

; 194  :             {
; 195  :             // Check if the device context state is retained and device isn't being
; 196  :             // initialized
; 197  :             if(pBus->GetDeviceContextState(m_devId) == FALSE && m_hDevice != NULL)

  0015c	e59410e0	 ldr         r1, [r4, #0xE0]
  00160	e1a00006	 mov         r0, r6
  00164	eb000000	 bl          |?GetDeviceContextState@omap35xxBus_t@@QAAHK@Z|
  00168	e3500000	 cmp         r0, #0
  0016c	1a00000b	 bne         |$LN4@IoCtlSetPo|
  00170	e59430d0	 ldr         r3, [r4, #0xD0]
  00174	e3530000	 cmp         r3, #0
  00178	0a000008	 beq         |$LN4@IoCtlSetPo|

; 198  :                 {
; 199  :                 PmxSendDeviceNotification(DEVICEMEDIATOR_DEVICE_LIST,
; 200  :                         m_devId, IOCTL_CONTEXT_RESTORE,
; 201  :                         NULL, 0, NULL, 0, NULL);

  0017c	e59f20ac	 ldr         r2, [pc, #0xAC]
  00180	e59410e0	 ldr         r1, [r4, #0xE0]
  00184	e3a03000	 mov         r3, #0
  00188	e3a00001	 mov         r0, #1
  0018c	e58d800c	 str         r8, [sp, #0xC]
  00190	e58d8008	 str         r8, [sp, #8]
  00194	e58d8004	 str         r8, [sp, #4]
  00198	e58d8000	 str         r8, [sp]
  0019c	eb000000	 bl          PmxSendDeviceNotification
  001a0		 |$LN4@IoCtlSetPo|

; 202  :                 }
; 203  :             }
; 204  : 
; 205  :         if (m_bSendPostDevicePowerStateChange == TRUE &&
; 206  :             pBus->PostDevicePowerStateChange(m_devId, oldState, newState) == -1)

  001a0	e59430f0	 ldr         r3, [r4, #0xF0]
  001a4	e3530001	 cmp         r3, #1
  001a8	1a000006	 bne         |$LN3@IoCtlSetPo|
  001ac	e59410e0	 ldr         r1, [r4, #0xE0]
  001b0	e1a03005	 mov         r3, r5
  001b4	e1a02007	 mov         r2, r7
  001b8	e1a00006	 mov         r0, r6
  001bc	eb000000	 bl          |?PostDevicePowerStateChange@omap35xxBus_t@@QAAKKW4_CEDEVICE_POWER_STATE@@0@Z|
  001c0	e3700001	 cmn         r0, #1

; 207  :             {
; 208  :             m_bSendPostDevicePowerStateChange = FALSE;

  001c4	058480f0	 streq       r8, [r4, #0xF0]
  001c8		 |$LN3@IoCtlSetPo|

; 209  :             }
; 210  : 
; 211  :         if (m_bSendPostNotifyDevicePowerStateChange == TRUE &&
; 212  :             pBus->PostNotifyDevicePowerStateChange(m_devId, oldState, newState) == -1)

  001c8	e59430f8	 ldr         r3, [r4, #0xF8]
  001cc	e3530001	 cmp         r3, #1
  001d0	1a000006	 bne         |$LN2@IoCtlSetPo|
  001d4	e59410e0	 ldr         r1, [r4, #0xE0]
  001d8	e1a03005	 mov         r3, r5
  001dc	e1a02007	 mov         r2, r7
  001e0	e1a00006	 mov         r0, r6
  001e4	eb000000	 bl          |?PostNotifyDevicePowerStateChange@omap35xxBus_t@@QAAKKW4_CEDEVICE_POWER_STATE@@0@Z|
  001e8	e3700001	 cmn         r0, #1

; 213  :             {
; 214  :             m_bSendPostNotifyDevicePowerStateChange = FALSE;

  001ec	058480f8	 streq       r8, [r4, #0xF8]
  001f0		 |$LN2@IoCtlSetPo|

; 215  :             }
; 216  : 
; 217  :         if (m_bSendPostPinMuxChange == TRUE &&
; 218  :             pBus->UpdateOnDeviceStateChange(m_devId, oldState, newState, FALSE) == -1)

  001f0	e59430e8	 ldr         r3, [r4, #0xE8]
  001f4	e3530001	 cmp         r3, #1
  001f8	1a000007	 bne         |$LN1@IoCtlSetPo|
  001fc	e59410e0	 ldr         r1, [r4, #0xE0]
  00200	e1a03005	 mov         r3, r5
  00204	e1a02007	 mov         r2, r7
  00208	e1a00006	 mov         r0, r6
  0020c	e58d8000	 str         r8, [sp]
  00210	eb000000	 bl          |?UpdateOnDeviceStateChange@omap35xxBus_t@@QAAKKW4_CEDEVICE_POWER_STATE@@0H@Z|
  00214	e3700001	 cmn         r0, #1

; 219  :             {
; 220  :             m_bSendPostPinMuxChange = FALSE;

  00218	058480e8	 streq       r8, [r4, #0xE8]
  0021c		 |$LN1@IoCtlSetPo|

; 221  :             }
; 222  :         }
; 223  :     
; 224  :     // Save new power state
; 225  :     m_powerState = newState;

  0021c	e58450dc	 str         r5, [r4, #0xDC]

; 226  :     return TRUE;

  00220	e3a00001	 mov         r0, #1

; 227  : }

  00224	e28dd010	 add         sp, sp, #0x10
  00228	e8bd41f0	 ldmia       sp!, {r4 - r8, lr}
  0022c	e12fff1e	 bx          lr
  00230		 |$LN29@IoCtlSetPo|
  00230		 |$LN30@IoCtlSetPo|
  00230	80038140	 DCD         0x80038140
  00234		 |$M42442|

			 ENDP  ; |?IoCtlSetPowerState@omap35xxBusChild_t@@UAAHPAW4_CEDEVICE_POWER_STATE@@@Z|, omap35xxBusChild_t::IoCtlSetPowerState


  00000			 AREA	 |.pdata|, PDATA
|$T42455| DCD	|$LN5@IoControl|
	DCD	0x40000200
; Function compile flags: /Ogspy

  00000			 AREA	 |.text|, CODE, ARM

  00000		 |?IoControl@omap35xxBusChild_t@@UAAHKPAEK0KPAK@Z| PROC ; omap35xxBusChild_t::IoControl

; 243  : {

  00000		 |$LN5@IoControl|
  00000		 |$M42452|

; 244  :     BOOL rc = FALSE;
; 245  :     UNREFERENCED_PARAMETER(code);
; 246  :     UNREFERENCED_PARAMETER(pInBuffer);
; 247  :     UNREFERENCED_PARAMETER(inSize);
; 248  :     UNREFERENCED_PARAMETER(pOutBuffer);
; 249  :     UNREFERENCED_PARAMETER(outSize);
; 250  :     UNREFERENCED_PARAMETER(pOutSize);    
; 251  :     return rc;

  00000	e3a00000	 mov         r0, #0

; 252  : }

  00004	e12fff1e	 bx          lr
  00008		 |$M42453|

			 ENDP  ; |?IoControl@omap35xxBusChild_t@@UAAHKPAEK0KPAK@Z|, omap35xxBusChild_t::IoControl

	IMPORT	|??3@YAXPAX@Z|				; operator delete

  00000			 AREA	 |.pdata|, PDATA
|$T42469| DCD	|$LN8@scalar|
	DCD	0x40000a01
; Function compile flags: /Ogspy

  00000			 AREA	 |.text|, CODE, ARM

  00000		 |??_Gomap35xxBusChild_t@@UAAPAXI@Z| PROC ; omap35xxBusChild_t::`scalar deleting destructor'
  00000		 |$LN8@scalar|
  00000	e92d4030	 stmdb       sp!, {r4, r5, lr}
  00004		 |$M42466|
  00004	e1a04001	 mov         r4, r1
  00008	e1a05000	 mov         r5, r0
  0000c	eb000000	 bl          |??1DefaultBusChild_t@@MAA@XZ|
  00010	e3140001	 tst         r4, #1
  00014	11a00005	 movne       r0, r5
  00018	1b000000	 blne        |??3@YAXPAX@Z|
  0001c	e1a00005	 mov         r0, r5
  00020	e8bd4030	 ldmia       sp!, {r4, r5, lr}
  00024	e12fff1e	 bx          lr
  00028		 |$M42467|

			 ENDP  ; |??_Gomap35xxBusChild_t@@UAAPAXI@Z|, omap35xxBusChild_t::`scalar deleting destructor'

	EXPORT	|??__Fcs@?1??get_lock@?$singleton@V?$free_list@$0GE@Vallocator@ce@@@ce@@$03V?$static_allocator@V?$free_list@$0GE@Vallocator@ce@@@ce@@$03@2@@ce@@KAAAVcritical_section@2@XZ@YAXXZ| ; `ce::singleton<ce::free_list<100,ce::allocator>,4,ce::static_allocator<ce::free_list<100,ce::allocator>,4> >::get_lock'::`2'::`dynamic atexit destructor for 'cs''
	EXPORT	|??_B?1??get_lock@?$singleton@V?$free_list@$0GE@Vallocator@ce@@@ce@@$03V?$static_allocator@V?$free_list@$0GE@Vallocator@ce@@@ce@@$03@2@@ce@@KAAAVcritical_section@2@XZ@51| [ DATA ] ; `ce::singleton<ce::free_list<100,ce::allocator>,4,ce::static_allocator<ce::free_list<100,ce::allocator>,4> >::get_lock'::`2'::`local static guard'
	EXPORT	|?get_lock@?$singleton@V?$free_list@$0GE@Vallocator@ce@@@ce@@$03V?$static_allocator@V?$free_list@$0GE@Vallocator@ce@@@ce@@$03@2@@ce@@KAAAVcritical_section@2@XZ| ; ce::singleton<ce::free_list<100,ce::allocator>,4,ce::static_allocator<ce::free_list<100,ce::allocator>,4> >::get_lock
	EXPORT	|?cs@?1??get_lock@?$singleton@V?$free_list@$0GE@Vallocator@ce@@@ce@@$03V?$static_allocator@V?$free_list@$0GE@Vallocator@ce@@@ce@@$03@2@@ce@@KAAAVcritical_section@3@XZ@4V43@A| [ DATA ] ; `ce::singleton<ce::free_list<100,ce::allocator>,4,ce::static_allocator<ce::free_list<100,ce::allocator>,4> >::get_lock'::`2'::cs
	IMPORT	|atexit|
; File c:\wince600\public\common\oak\inc\sync.hxx

  00000			 AREA	 |.bss|, NOINIT
|??_B?1??get_lock@?$singleton@V?$free_list@$0GE@Vallocator@ce@@@ce@@$03V?$static_allocator@V?$free_list@$0GE@Vallocator@ce@@@ce@@$03@2@@ce@@KAAAVcritical_section@2@XZ@51| % 0x4 ; `ce::singleton<ce::free_list<100,ce::allocator>,4,ce::static_allocator<ce::free_list<100,ce::allocator>,4> >::get_lock'::`2'::`local static guard'

  00000			 AREA	 |.bss|, NOINIT
|?cs@?1??get_lock@?$singleton@V?$free_list@$0GE@Vallocator@ce@@@ce@@$03V?$static_allocator@V?$free_list@$0GE@Vallocator@ce@@@ce@@$03@2@@ce@@KAAAVcritical_section@3@XZ@4V43@A| % 0x14 ; `ce::singleton<ce::free_list<100,ce::allocator>,4,ce::static_allocator<ce::free_list<100,ce::allocator>,4> >::get_lock'::`2'::cs

  00000			 AREA	 |.pdata|, PDATA
|$T42481| DCD	|$LN8@get_lock|
	DCD	0x40001602
; Function compile flags: /Ogspy
; File c:\wince600\public\common\oak\inc\singleton.hxx

  00000			 AREA	 |.text|, CODE, ARM

  00000		 |?get_lock@?$singleton@V?$free_list@$0GE@Vallocator@ce@@@ce@@$03V?$static_allocator@V?$free_list@$0GE@Vallocator@ce@@@ce@@$03@2@@ce@@KAAAVcritical_section@2@XZ| PROC ; ce::singleton<ce::free_list<100,ce::allocator>,4,ce::static_allocator<ce::free_list<100,ce::allocator>,4> >::get_lock

; 320  :     {

  00000		 |$LN8@get_lock|
  00000	e52de004	 str         lr, [sp, #-4]!
  00004	e24dd004	 sub         sp, sp, #4
  00008		 |$M42478|

; 321  :         static critical_section cs;

  00008	e59f2044	 ldr         r2, [pc, #0x44]
  0000c	e5923000	 ldr         r3, [r2]
  00010	e3130001	 tst         r3, #1
  00014	1a000005	 bne         |$LN1@get_lock|
  00018	e59f0028	 ldr         r0, [pc, #0x28]
  0001c	e3833001	 orr         r3, r3, #1
  00020	e5823000	 str         r3, [r2]
  00024	eb000000	 bl          InitializeCriticalSection
  00028	e59f0020	 ldr         r0, [pc, #0x20]
  0002c	eb000000	 bl          atexit
  00030		 |$LN1@get_lock|

; 322  :         
; 323  :         //
; 324  :         // This statement forces compiler to instantiate _factory member
; 325  :         // thus assuring that lock_factory ctor is called. 
; 326  :         //
; 327  :         lock_factory* volatile p = &_factory;

  00030	e59f3014	 ldr         r3, [pc, #0x14]

; 328  : 
; 329  :         return cs;
; 330  :     }

  00034	e59f000c	 ldr         r0, [pc, #0xC]
  00038	e58d3000	 str         r3, [sp]
  0003c	e28dd004	 add         sp, sp, #4
  00040	e49de004	 ldr         lr, [sp], #4
  00044	e12fff1e	 bx          lr
  00048		 |$LN9@get_lock|
  00048		 |$LN10@get_lock|
  00048	00000000	 DCD         |?cs@?1??get_lock@?$singleton@V?$free_list@$0GE@Vallocator@ce@@@ce@@$03V?$static_allocator@V?$free_list@$0GE@Vallocator@ce@@@ce@@$03@2@@ce@@KAAAVcritical_section@3@XZ@4V43@A|
  0004c		 |$LN11@get_lock|
  0004c	00000000	 DCD         |?_factory@?$singleton@V?$free_list@$0GE@Vallocator@ce@@@ce@@$03V?$static_allocator@V?$free_list@$0GE@Vallocator@ce@@@ce@@$03@2@@ce@@1Ulock_factory@12@A|
  00050		 |$LN12@get_lock|
  00050	00000000	 DCD         |??__Fcs@?1??get_lock@?$singleton@V?$free_list@$0GE@Vallocator@ce@@@ce@@$03V?$static_allocator@V?$free_list@$0GE@Vallocator@ce@@@ce@@$03@2@@ce@@KAAAVcritical_section@2@XZ@YAXXZ|
  00054		 |$LN13@get_lock|
  00054	00000000	 DCD         |??_B?1??get_lock@?$singleton@V?$free_list@$0GE@Vallocator@ce@@@ce@@$03V?$static_allocator@V?$free_list@$0GE@Vallocator@ce@@@ce@@$03@2@@ce@@KAAAVcritical_section@2@XZ@51|
  00058		 |$M42479|

			 ENDP  ; |?get_lock@?$singleton@V?$free_list@$0GE@Vallocator@ce@@@ce@@$03V?$static_allocator@V?$free_list@$0GE@Vallocator@ce@@@ce@@$03@2@@ce@@KAAAVcritical_section@2@XZ|, ce::singleton<ce::free_list<100,ce::allocator>,4,ce::static_allocator<ce::free_list<100,ce::allocator>,4> >::get_lock

	EXPORT	|??0lock_factory@?$singleton@V?$free_list@$0GE@Vallocator@ce@@@ce@@$03V?$static_allocator@V?$free_list@$0GE@Vallocator@ce@@@ce@@$03@2@@ce@@QAA@XZ| ; ce::singleton<ce::free_list<100,ce::allocator>,4,ce::static_allocator<ce::free_list<100,ce::allocator>,4> >::lock_factory::lock_factory

  00000			 AREA	 |.pdata|, PDATA
|$T42496| DCD	|$LN5@lock_facto|
	DCD	0x40000601
; Function compile flags: /Ogspy

  00000			 AREA	 |.text|, CODE, ARM

  00000		 |??0lock_factory@?$singleton@V?$free_list@$0GE@Vallocator@ce@@@ce@@$03V?$static_allocator@V?$free_list@$0GE@Vallocator@ce@@@ce@@$03@2@@ce@@QAA@XZ| PROC ; ce::singleton<ce::free_list<100,ce::allocator>,4,ce::static_allocator<ce::free_list<100,ce::allocator>,4> >::lock_factory::lock_factory

; 339  :         lock_factory()

  00000		 |$LN5@lock_facto|
  00000	e92d4010	 stmdb       sp!, {r4, lr}
  00004		 |$M42493|
  00004	e1a04000	 mov         r4, r0
  00008	eb000000	 bl          |?get_lock@?$singleton@V?$free_list@$0GE@Vallocator@ce@@@ce@@$03V?$static_allocator@V?$free_list@$0GE@Vallocator@ce@@@ce@@$03@2@@ce@@KAAAVcritical_section@2@XZ|

; 340  :             {get_lock(); }

  0000c	e1a00004	 mov         r0, r4
  00010	e8bd4010	 ldmia       sp!, {r4, lr}
  00014	e12fff1e	 bx          lr
  00018		 |$M42494|

			 ENDP  ; |??0lock_factory@?$singleton@V?$free_list@$0GE@Vallocator@ce@@@ce@@$03V?$static_allocator@V?$free_list@$0GE@Vallocator@ce@@@ce@@$03@2@@ce@@QAA@XZ|, ce::singleton<ce::free_list<100,ce::allocator>,4,ce::static_allocator<ce::free_list<100,ce::allocator>,4> >::lock_factory::lock_factory


  00000			 AREA	 |.pdata|, PDATA
|$T42506| DCD	|$LN7@factory|
	DCD	0x40000401
; Function compile flags: /Ogspy

  00000			 AREA	 |.text$yc|, CODE, ARM

  00000		 |??__E?_factory@?$singleton@V?$free_list@$0GE@Vallocator@ce@@@ce@@$03V?$static_allocator@V?$free_list@$0GE@Vallocator@ce@@@ce@@$03@2@@ce@@1Ulock_factory@12@A@@YAXXZ| PROC ; `dynamic initializer for 'ce::singleton<ce::free_list<100,ce::allocator>,4,ce::static_allocator<ce::free_list<100,ce::allocator>,4> >::_factory''

; 390  :     {

  00000		 |$LN7@factory|
  00000	e52de004	 str         lr, [sp, #-4]!
  00004		 |$M42503|
  00004	eb000000	 bl          |?get_lock@?$singleton@V?$free_list@$0GE@Vallocator@ce@@@ce@@$03V?$static_allocator@V?$free_list@$0GE@Vallocator@ce@@@ce@@$03@2@@ce@@KAAAVcritical_section@2@XZ|
  00008	e49de004	 ldr         lr, [sp], #4
  0000c	e12fff1e	 bx          lr
  00010		 |$M42504|

			 ENDP  ; |??__E?_factory@?$singleton@V?$free_list@$0GE@Vallocator@ce@@@ce@@$03V?$static_allocator@V?$free_list@$0GE@Vallocator@ce@@@ce@@$03@2@@ce@@1Ulock_factory@12@A@@YAXXZ|, `dynamic initializer for 'ce::singleton<ce::free_list<100,ce::allocator>,4,ce::static_allocator<ce::free_list<100,ce::allocator>,4> >::_factory''


  00000			 AREA	 |.pdata|, PDATA
|$T42516| DCD	|$LN7@dynamic|
	DCD	0x40000601
; Function compile flags: /Ogspy

  00000			 AREA	 |.text$yd|, CODE, ARM

  00000		 |??__Fcs@?1??get_lock@?$singleton@V?$free_list@$0GE@Vallocator@ce@@@ce@@$03V?$static_allocator@V?$free_list@$0GE@Vallocator@ce@@@ce@@$03@2@@ce@@KAAAVcritical_section@2@XZ@YAXXZ| PROC ; `ce::singleton<ce::free_list<100,ce::allocator>,4,ce::static_allocator<ce::free_list<100,ce::allocator>,4> >::get_lock'::`2'::`dynamic atexit destructor for 'cs''
  00000		 |$LN7@dynamic|
  00000	e52de004	 str         lr, [sp, #-4]!
  00004		 |$M42513|
  00004	e59f0008	 ldr         r0, [pc, #8]
  00008	eb000000	 bl          DeleteCriticalSection
  0000c	e49de004	 ldr         lr, [sp], #4
  00010	e12fff1e	 bx          lr
  00014		 |$LN8@dynamic|
  00014		 |$LN9@dynamic|
  00014	00000000	 DCD         |?cs@?1??get_lock@?$singleton@V?$free_list@$0GE@Vallocator@ce@@@ce@@$03V?$static_allocator@V?$free_list@$0GE@Vallocator@ce@@@ce@@$03@2@@ce@@KAAAVcritical_section@3@XZ@4V43@A|
  00018		 |$M42514|

			 ENDP  ; |??__Fcs@?1??get_lock@?$singleton@V?$free_list@$0GE@Vallocator@ce@@@ce@@$03V?$static_allocator@V?$free_list@$0GE@Vallocator@ce@@@ce@@$03@2@@ce@@KAAAVcritical_section@2@XZ@YAXXZ|, `ce::singleton<ce::free_list<100,ce::allocator>,4,ce::static_allocator<ce::free_list<100,ce::allocator>,4> >::get_lock'::`2'::`dynamic atexit destructor for 'cs''

	EXPORT	|?_factory@?$singleton@V?$free_list@$0GE@Vallocator@ce@@@ce@@$03V?$static_allocator@V?$free_list@$0GE@Vallocator@ce@@@ce@@$03@2@@ce@@1Ulock_factory@12@A| [ DATA ] ; ce::singleton<ce::free_list<100,ce::allocator>,4,ce::static_allocator<ce::free_list<100,ce::allocator>,4> >::_factory

  00000			 AREA	 |.bss|, NOINIT
|?_factory@?$singleton@V?$free_list@$0GE@Vallocator@ce@@@ce@@$03V?$static_allocator@V?$free_list@$0GE@Vallocator@ce@@@ce@@$03@2@@ce@@1Ulock_factory@12@A| % 0x1 ; ce::singleton<ce::free_list<100,ce::allocator>,4,ce::static_allocator<ce::free_list<100,ce::allocator>,4> >::_factory

  00000			 AREA	 |.CRT$XCU|, DATA
|?_factory$initializer$@?$singleton@V?$free_list@$0GE@Vallocator@ce@@@ce@@$03V?$static_allocator@V?$free_list@$0GE@Vallocator@ce@@@ce@@$03@2@@ce@@1P6AXXZA| DCD |??__E?_factory@?$singleton@V?$free_list@$0GE@Vallocator@ce@@@ce@@$03V?$static_allocator@V?$free_list@$0GE@Vallocator@ce@@@ce@@$03@2@@ce@@1Ulock_factory@12@A@@YAXXZ| ; ce::singleton<ce::free_list<100,ce::allocator>,4,ce::static_allocator<ce::free_list<100,ce::allocator>,4> >::_factory$initializer$
	END
