; Listing generated by Microsoft (R) Optimizing Compiler Version 14.01.60511.01 

	TTL	C:\WINCE600\PLATFORM\Z2170P\SRC\test\Tux_SPI\globals.cpp
	CODE32

  00000			 AREA	 |.drectve|, DRECTVE
	DCB	"-defaultlib:LIBCMT "
	DCB	"-defaultlib:OLDNAMES "

	EXPORT	|??_C@_1CI@FHAKNBED@?$AAM?$AAu?$AAl?$AAt?$AAi?$AA?5?$AAI?$AAn?$AAs?$AAt?$AAa?$AAn?$AAc?$AAe?$AA?5?$AAT?$AAe?$AAs?$AAt?$AA?$AA@| [ DATA ] ; `string'
	EXPORT	|??_C@_1CE@GDOGJLMD@?$AAS?$AAa?$AAm?$AAp?$AAl?$AAe?$AA?5?$AAt?$AAe?$AAs?$AAt?$AA?5?$AAc?$AAa?$AAs?$AAe?$AAs?$AA?$AA@| [ DATA ] ; `string'
	EXPORT	|?g_pShellInfo@@3PAU_SPS_SHELL_INFO@@A| [ DATA ] ; g_pShellInfo
	EXPORT	|?g_spsShellInfo@@3U_SPS_SHELL_INFO@@A| [ DATA ] ; g_spsShellInfo
	EXPORT	|?g_pKato@@3PAVCKato@@A| [ DATA ]	; g_pKato
	EXPORT	|?g_lpFTE@@3PAU_FUNCTION_TABLE_ENTRY@@A| [ DATA ] ; g_lpFTE
	IMPORT	|?TestSPIMultipleInstances@@YAHIPAKPAU_FUNCTION_TABLE_ENTRY@@@Z| ; TestSPIMultipleInstances

  00000			 AREA	 |.bss|, NOINIT
|?g_pShellInfo@@3PAU_SPS_SHELL_INFO@@A| % 0x4		; g_pShellInfo
|?g_spsShellInfo@@3U_SPS_SHELL_INFO@@A| % 0x1c		; g_spsShellInfo
|?g_pKato@@3PAVCKato@@A| % 0x4				; g_pKato

  00000			 AREA	 |.data|, DATA
|?g_lpFTE@@3PAU_FUNCTION_TABLE_ENTRY@@A| DCD |??_C@_1CE@GDOGJLMD@?$AAS?$AAa?$AAm?$AAp?$AAl?$AAe?$AA?5?$AAt?$AAe?$AAs?$AAt?$AA?5?$AAc?$AAa?$AAs?$AAe?$AAs?$AA?$AA@| ; g_lpFTE
	DCD	0x0
	DCD	0x0
	DCD	0x0
	DCD	0x0
	DCD	|??_C@_1CI@FHAKNBED@?$AAM?$AAu?$AAl?$AAt?$AAi?$AA?5?$AAI?$AAn?$AAs?$AAt?$AAa?$AAn?$AAc?$AAe?$AA?5?$AAT?$AAe?$AAs?$AAt?$AA?$AA@|
	DCD	0x1
	DCD	0x0
	DCD	0x1
	DCD	|?TestSPIMultipleInstances@@YAHIPAKPAU_FUNCTION_TABLE_ENTRY@@@Z|
	DCD	0x0
	DCD	0x0
	DCD	0x0
	DCD	0x0
	DCD	0x0

  00000			 AREA	 |.rdata|, DATA, READONLY
|??_C@_1CI@FHAKNBED@?$AAM?$AAu?$AAl?$AAt?$AAi?$AA?5?$AAI?$AAn?$AAs?$AAt?$AAa?$AAn?$AAc?$AAe?$AA?5?$AAT?$AAe?$AAs?$AAt?$AA?$AA@| DCB "M"
	DCB	0x0, "u", 0x0, "l", 0x0, "t", 0x0, "i", 0x0, " ", 0x0, "I"
	DCB	0x0, "n", 0x0, "s", 0x0, "t", 0x0, "a", 0x0, "n", 0x0, "c"
	DCB	0x0, "e", 0x0, " ", 0x0, "T", 0x0, "e", 0x0, "s", 0x0, "t"
	DCB	0x0, 0x0, 0x0				; `string'

  00000			 AREA	 |.rdata|, DATA, READONLY
|??_C@_1CE@GDOGJLMD@?$AAS?$AAa?$AAm?$AAp?$AAl?$AAe?$AA?5?$AAt?$AAe?$AAs?$AAt?$AA?5?$AAc?$AAa?$AAs?$AAe?$AAs?$AA?$AA@| DCB "S"
	DCB	0x0, "a", 0x0, "m", 0x0, "p", 0x0, "l", 0x0, "e", 0x0, " "
	DCB	0x0, "t", 0x0, "e", 0x0, "s", 0x0, "t", 0x0, " ", 0x0, "c"
	DCB	0x0, "a", 0x0, "s", 0x0, "e", 0x0, "s", 0x0, 0x0, 0x0 ; `string'
	END
