; Listing generated by Microsoft (R) Optimizing Compiler Version 14.01.60511.01 

	TTL	C:\WINCE600\PLATFORM\COMMON\SRC\COMMON\IOCTL\procinfo.c
	CODE32

  00000			 AREA	 |.drectve|, DRECTVE
	DCB	"-defaultlib:LIBCMT "
	DCB	"-defaultlib:OLDNAMES "


  00000			 AREA	 |.rdata|, DATA, READONLY
|EdbgVendorIds| DCW 0x0
	DCW	0x0
	DCD	0x4033
	DCB	0x1
	DCB	"AD", 0x0
	DCW	0x1050
	DCW	0x940
	DCD	0x4005
	DCB	0x1
	DCB	"LS", 0x0
	DCW	0x1050
	DCW	0x940
	DCD	0x2078
	DCB	0x1
	DCB	"LS", 0x0
	DCW	0x10ec
	DCW	0x8029
	DCD	0xc0f0
	DCB	0x1
	DCB	"KS", 0x0
	DCW	0x10ec
	DCW	0x8129
	DCD	0x0
	DCB	0x4
	DCB	"RT", 0x0
	DCW	0x10ec
	DCW	0x8139
	DCD	0x900b
	DCB	0x4
	DCB	"RT", 0x0
	DCW	0x10ec
	DCW	0x8139
	DCD	0xd0c9
	DCB	0x4
	DCB	"RT", 0x0
	DCW	0x10ec
	DCW	0x8139
	DCD	0xe04c
	DCB	0x4
	DCB	"RT", 0x0
	DCW	0x1186
	DCW	0x1300
	DCD	0x50ba
	DCB	0x4
	DCB	"DL", 0x0
	DCW	0x100b
	DCW	0x20
	DCD	0xa0cc
	DCB	0x5
	DCB	"NG", 0x0
	DCW	0x10b7
	DCW	0x9050
	DCD	0x6008
	DCB	0x6
	DCB	"3C", 0x0
	DCW	0x10b7
	DCW	0x9200
	DCD	0x476
	DCB	0x6
	DCB	"3C", 0x0
	EXPORT	|OALIoCtlProcessorInfo|
	EXPORT	|??_C@_1EE@LLJFHFAM@?$AA?9?$AAO?$AAA?$AAL?$AAI?$AAo?$AAC?$AAt?$AAl?$AAP?$AAr?$AAo?$AAc?$AAe?$AAs?$AAs?$AAo?$AAr?$AAI?$AAn?$AAf?$AAo?$AA?$CI?$AAr?$AAc?$AA?5?$AA?$DN?$AA?5?$AA?$CF?$AAd?$AA?$CJ?$AA?$AN@| [ DATA ] ; `string'
	EXPORT	|??_C@_1GA@EACFLEMI@?$AAW?$AAA?$AAR?$AAN?$AA?3?$AA?5?$AAO?$AAA?$AAL?$AAI?$AAo?$AAC?$AAt?$AAl?$AAP?$AAr?$AAo?$AAc?$AAe?$AAs?$AAs?$AAo?$AAr?$AAI?$AAn?$AAf?$AAo?$AA?3?$AA?5?$AAB?$AAu?$AAf@| [ DATA ] ; `string'
	EXPORT	|??_C@_1GI@EFCEJCLG@?$AAE?$AAR?$AAR?$AAO?$AAR?$AA?3?$AAO?$AAA?$AAL?$AAI?$AAo?$AAC?$AAt?$AAl?$AAP?$AAr?$AAo?$AAc?$AAe?$AAs?$AAs?$AAo?$AAr?$AAI?$AAn?$AAf?$AAo?$AA?3?$AA?5?$AAV?$AAe?$AAn@| [ DATA ] ; `string'
	EXPORT	|??_C@_1GE@JPAPEENG@?$AAE?$AAR?$AAR?$AAO?$AAR?$AA?3?$AAO?$AAA?$AAL?$AAI?$AAo?$AAC?$AAt?$AAl?$AAP?$AAr?$AAo?$AAc?$AAe?$AAs?$AAs?$AAo?$AAr?$AAI?$AAn?$AAf?$AAo?$AA?3?$AA?5?$AAN?$AAa?$AAm@| [ DATA ] ; `string'
	EXPORT	|??_C@_1GE@OFFJPJMM@?$AAE?$AAR?$AAR?$AAO?$AAR?$AA?3?$AAO?$AAA?$AAL?$AAI?$AAo?$AAC?$AAt?$AAl?$AAP?$AAr?$AAo?$AAc?$AAe?$AAs?$AAs?$AAo?$AAr?$AAI?$AAn?$AAf?$AAo?$AA?3?$AA?5?$AAC?$AAo?$AAr@| [ DATA ] ; `string'
	EXPORT	|??_C@_1GK@MJNAOGCM@?$AAW?$AAA?$AAR?$AAN?$AA?3?$AA?5?$AAO?$AAA?$AAL?$AAI?$AAo?$AAC?$AAt?$AAl?$AAP?$AAr?$AAo?$AAc?$AAe?$AAs?$AAs?$AAo?$AAr?$AAI?$AAn?$AAf?$AAo?$AA?3?$AA?5?$AAI?$AAn?$AAv@| [ DATA ] ; `string'
	EXPORT	|??_C@_1DM@NEACNOML@?$AA?$CL?$AAO?$AAA?$AAL?$AAI?$AAo?$AAC?$AAt?$AAl?$AAP?$AAr?$AAo?$AAc?$AAe?$AAs?$AAs?$AAo?$AAr?$AAI?$AAn?$AAf?$AAo?$AA?$CI?$AA?4?$AA?4?$AA?4?$AA?$CJ?$AA?$AN?$AA?6?$AA?$AA@| [ DATA ] ; `string'
	IMPORT	|g_oalIoCtlClockSpeed|
	IMPORT	|g_oalIoCtlInstructionSet|
	IMPORT	|g_oalIoCtlProcessorVendor|
	IMPORT	|g_oalIoCtlProcessorName|
	IMPORT	|NKwcslen|
	IMPORT	|g_oalIoCtlProcessorCore|
	IMPORT	|NKSetLastError|
	IMPORT	|NKDbgPrintfW|
	IMPORT	|dpCurSettings|
	IMPORT	|memcpy|
	IMPORT	|memset|
; File c:\wince600\platform\common\src\common\ioctl\procinfo.c

  00000			 AREA	 |.pdata|, PDATA
|$T43108| DCD	|$LN28@OALIoCtlPr|
	DCD	0x40007802

  00000			 AREA	 |.rdata|, DATA, READONLY
|??_C@_1EE@LLJFHFAM@?$AA?9?$AAO?$AAA?$AAL?$AAI?$AAo?$AAC?$AAt?$AAl?$AAP?$AAr?$AAo?$AAc?$AAe?$AAs?$AAs?$AAo?$AAr?$AAI?$AAn?$AAf?$AAo?$AA?$CI?$AAr?$AAc?$AA?5?$AA?$DN?$AA?5?$AA?$CF?$AAd?$AA?$CJ?$AA?$AN@| DCB "-"
	DCB	0x0, "O", 0x0, "A", 0x0, "L", 0x0, "I", 0x0, "o", 0x0, "C"
	DCB	0x0, "t", 0x0, "l", 0x0, "P", 0x0, "r", 0x0, "o", 0x0, "c"
	DCB	0x0, "e", 0x0, "s", 0x0, "s", 0x0, "o", 0x0, "r", 0x0, "I"
	DCB	0x0, "n", 0x0, "f", 0x0, "o", 0x0, "(", 0x0, "r", 0x0, "c"
	DCB	0x0, " ", 0x0, "=", 0x0, " ", 0x0, "%", 0x0, "d", 0x0, ")"
	DCB	0x0, 0xd, 0x0, 0xa, 0x0, 0x0, 0x0	; `string'

  00000			 AREA	 |.rdata|, DATA, READONLY
|??_C@_1GA@EACFLEMI@?$AAW?$AAA?$AAR?$AAN?$AA?3?$AA?5?$AAO?$AAA?$AAL?$AAI?$AAo?$AAC?$AAt?$AAl?$AAP?$AAr?$AAo?$AAc?$AAe?$AAs?$AAs?$AAo?$AAr?$AAI?$AAn?$AAf?$AAo?$AA?3?$AA?5?$AAB?$AAu?$AAf@| DCB "W"
	DCB	0x0, "A", 0x0, "R", 0x0, "N", 0x0, ":", 0x0, " ", 0x0, "O"
	DCB	0x0, "A", 0x0, "L", 0x0, "I", 0x0, "o", 0x0, "C", 0x0, "t"
	DCB	0x0, "l", 0x0, "P", 0x0, "r", 0x0, "o", 0x0, "c", 0x0, "e"
	DCB	0x0, "s", 0x0, "s", 0x0, "o", 0x0, "r", 0x0, "I", 0x0, "n"
	DCB	0x0, "f", 0x0, "o", 0x0, ":", 0x0, " ", 0x0, "B", 0x0, "u"
	DCB	0x0, "f", 0x0, "f", 0x0, "e", 0x0, "r", 0x0, " ", 0x0, "t"
	DCB	0x0, "o", 0x0, "o", 0x0, " ", 0x0, "s", 0x0, "m", 0x0, "a"
	DCB	0x0, "l", 0x0, "l", 0x0, 0xd, 0x0, 0xa, 0x0, 0x0, 0x0 ; `string'

  00000			 AREA	 |.rdata|, DATA, READONLY
|??_C@_1GI@EFCEJCLG@?$AAE?$AAR?$AAR?$AAO?$AAR?$AA?3?$AAO?$AAA?$AAL?$AAI?$AAo?$AAC?$AAt?$AAl?$AAP?$AAr?$AAo?$AAc?$AAe?$AAs?$AAs?$AAo?$AAr?$AAI?$AAn?$AAf?$AAo?$AA?3?$AA?5?$AAV?$AAe?$AAn@| DCB "E"
	DCB	0x0, "R", 0x0, "R", 0x0, "O", 0x0, "R", 0x0, ":", 0x0, "O"
	DCB	0x0, "A", 0x0, "L", 0x0, "I", 0x0, "o", 0x0, "C", 0x0, "t"
	DCB	0x0, "l", 0x0, "P", 0x0, "r", 0x0, "o", 0x0, "c", 0x0, "e"
	DCB	0x0, "s", 0x0, "s", 0x0, "o", 0x0, "r", 0x0, "I", 0x0, "n"
	DCB	0x0, "f", 0x0, "o", 0x0, ":", 0x0, " ", 0x0, "V", 0x0, "e"
	DCB	0x0, "n", 0x0, "d", 0x0, "o", 0x0, "r", 0x0, " ", 0x0, "v"
	DCB	0x0, "a", 0x0, "l", 0x0, "u", 0x0, "e", 0x0, " ", 0x0, "t"
	DCB	0x0, "o", 0x0, "o", 0x0, " ", 0x0, "b", 0x0, "i", 0x0, "g"
	DCB	0x0, 0xd, 0x0, 0xa, 0x0, 0x0, 0x0	; `string'

  00000			 AREA	 |.rdata|, DATA, READONLY
|??_C@_1GE@JPAPEENG@?$AAE?$AAR?$AAR?$AAO?$AAR?$AA?3?$AAO?$AAA?$AAL?$AAI?$AAo?$AAC?$AAt?$AAl?$AAP?$AAr?$AAo?$AAc?$AAe?$AAs?$AAs?$AAo?$AAr?$AAI?$AAn?$AAf?$AAo?$AA?3?$AA?5?$AAN?$AAa?$AAm@| DCB "E"
	DCB	0x0, "R", 0x0, "R", 0x0, "O", 0x0, "R", 0x0, ":", 0x0, "O"
	DCB	0x0, "A", 0x0, "L", 0x0, "I", 0x0, "o", 0x0, "C", 0x0, "t"
	DCB	0x0, "l", 0x0, "P", 0x0, "r", 0x0, "o", 0x0, "c", 0x0, "e"
	DCB	0x0, "s", 0x0, "s", 0x0, "o", 0x0, "r", 0x0, "I", 0x0, "n"
	DCB	0x0, "f", 0x0, "o", 0x0, ":", 0x0, " ", 0x0, "N", 0x0, "a"
	DCB	0x0, "m", 0x0, "e", 0x0, " ", 0x0, "v", 0x0, "a", 0x0, "l"
	DCB	0x0, "u", 0x0, "e", 0x0, " ", 0x0, "t", 0x0, "o", 0x0, "o"
	DCB	0x0, " ", 0x0, "b", 0x0, "i", 0x0, "g", 0x0, 0xd, 0x0, 0xa
	DCB	0x0, 0x0, 0x0				; `string'

  00000			 AREA	 |.rdata|, DATA, READONLY
|??_C@_1GE@OFFJPJMM@?$AAE?$AAR?$AAR?$AAO?$AAR?$AA?3?$AAO?$AAA?$AAL?$AAI?$AAo?$AAC?$AAt?$AAl?$AAP?$AAr?$AAo?$AAc?$AAe?$AAs?$AAs?$AAo?$AAr?$AAI?$AAn?$AAf?$AAo?$AA?3?$AA?5?$AAC?$AAo?$AAr@| DCB "E"
	DCB	0x0, "R", 0x0, "R", 0x0, "O", 0x0, "R", 0x0, ":", 0x0, "O"
	DCB	0x0, "A", 0x0, "L", 0x0, "I", 0x0, "o", 0x0, "C", 0x0, "t"
	DCB	0x0, "l", 0x0, "P", 0x0, "r", 0x0, "o", 0x0, "c", 0x0, "e"
	DCB	0x0, "s", 0x0, "s", 0x0, "o", 0x0, "r", 0x0, "I", 0x0, "n"
	DCB	0x0, "f", 0x0, "o", 0x0, ":", 0x0, " ", 0x0, "C", 0x0, "o"
	DCB	0x0, "r", 0x0, "e", 0x0, " ", 0x0, "v", 0x0, "a", 0x0, "l"
	DCB	0x0, "u", 0x0, "e", 0x0, " ", 0x0, "t", 0x0, "o", 0x0, "o"
	DCB	0x0, " ", 0x0, "b", 0x0, "i", 0x0, "g", 0x0, 0xd, 0x0, 0xa
	DCB	0x0, 0x0, 0x0				; `string'

  00000			 AREA	 |.rdata|, DATA, READONLY
|??_C@_1GK@MJNAOGCM@?$AAW?$AAA?$AAR?$AAN?$AA?3?$AA?5?$AAO?$AAA?$AAL?$AAI?$AAo?$AAC?$AAt?$AAl?$AAP?$AAr?$AAo?$AAc?$AAe?$AAs?$AAs?$AAo?$AAr?$AAI?$AAn?$AAf?$AAo?$AA?3?$AA?5?$AAI?$AAn?$AAv@| DCB "W"
	DCB	0x0, "A", 0x0, "R", 0x0, "N", 0x0, ":", 0x0, " ", 0x0, "O"
	DCB	0x0, "A", 0x0, "L", 0x0, "I", 0x0, "o", 0x0, "C", 0x0, "t"
	DCB	0x0, "l", 0x0, "P", 0x0, "r", 0x0, "o", 0x0, "c", 0x0, "e"
	DCB	0x0, "s", 0x0, "s", 0x0, "o", 0x0, "r", 0x0, "I", 0x0, "n"
	DCB	0x0, "f", 0x0, "o", 0x0, ":", 0x0, " ", 0x0, "I", 0x0, "n"
	DCB	0x0, "v", 0x0, "a", 0x0, "l", 0x0, "i", 0x0, "d", 0x0, " "
	DCB	0x0, "o", 0x0, "u", 0x0, "t", 0x0, "p", 0x0, "u", 0x0, "t"
	DCB	0x0, " ", 0x0, "b", 0x0, "u", 0x0, "f", 0x0, "f", 0x0, "e"
	DCB	0x0, "r", 0x0, 0xd, 0x0, 0xa, 0x0, 0x0, 0x0 ; `string'

  00000			 AREA	 |.rdata|, DATA, READONLY
|??_C@_1DM@NEACNOML@?$AA?$CL?$AAO?$AAA?$AAL?$AAI?$AAo?$AAC?$AAt?$AAl?$AAP?$AAr?$AAo?$AAc?$AAe?$AAs?$AAs?$AAo?$AAr?$AAI?$AAn?$AAf?$AAo?$AA?$CI?$AA?4?$AA?4?$AA?4?$AA?$CJ?$AA?$AN?$AA?6?$AA?$AA@| DCB "+"
	DCB	0x0, "O", 0x0, "A", 0x0, "L", 0x0, "I", 0x0, "o", 0x0, "C"
	DCB	0x0, "t", 0x0, "l", 0x0, "P", 0x0, "r", 0x0, "o", 0x0, "c"
	DCB	0x0, "e", 0x0, "s", 0x0, "s", 0x0, "o", 0x0, "r", 0x0, "I"
	DCB	0x0, "n", 0x0, "f", 0x0, "o", 0x0, "(", 0x0, ".", 0x0, "."
	DCB	0x0, ".", 0x0, ")", 0x0, 0xd, 0x0, 0xa, 0x0, 0x0, 0x0 ; `string'
; Function compile flags: /Ogspy

  00000			 AREA	 |.text|, CODE, ARM

  00000		 |OALIoCtlProcessorInfo| PROC

; 30   : ) {

  00000		 |$LN28@OALIoCtlPr|
  00000	e92d4ff0	 stmdb       sp!, {r4 - r11, lr}
  00004	e24dd004	 sub         sp, sp, #4
  00008		 |$M43105|
  00008	e1a06003	 mov         r6, r3

; 31   :     BOOL rc = FALSE;
; 32   :     PROCESSOR_INFO *pInfo = (PROCESSOR_INFO*)pOutBuffer;
; 33   :     UINT32 length1, length2, length3;
; 34   : 
; 35   :     OALMSG(OAL_FUNC, (L"+OALIoCtlProcessorInfo(...)\r\n"));

  0000c	e59f41c8	 ldr         r4, [pc, #0x1C8]
  00010	e3a05000	 mov         r5, #0
  00014	e5942440	 ldr         r2, [r4, #0x440]
  00018	e3120004	 tst         r2, #4
  0001c	159f01b4	 ldrne       r0, [pc, #0x1B4]
  00020	1b000000	 blne        NKDbgPrintfW

; 36   : 
; 37   :     // Set required/returned size if pointer isn't NULL
; 38   :     if (pOutSize != NULL) {

  00024	e59d202c	 ldr         r2, [sp, #0x2C]
  00028	e3520000	 cmp         r2, #0

; 39   :         *pOutSize = sizeof(PROCESSOR_INFO);

  0002c	13a03d09	 movne       r3, #9, 26
  00030	15823000	 strne       r3, [r2]

; 40   :     }
; 41   :     
; 42   :     // Validate inputs
; 43   :     if (pOutBuffer == NULL && outSize > 0) {

  00034	e59d3028	 ldr         r3, [sp, #0x28]
  00038	e3560000	 cmp         r6, #0
  0003c	1a000008	 bne         |$LN24@OALIoCtlPr|
  00040	e3530000	 cmp         r3, #0
  00044	0a000048	 beq         |$LN4@OALIoCtlPr|

; 44   :         NKSetLastError(ERROR_INVALID_PARAMETER);

  00048	e3a00057	 mov         r0, #0x57
  0004c	eb000000	 bl          NKSetLastError

; 45   :         OALMSG(OAL_WARN, (
; 46   :             L"WARN: OALIoCtlProcessorInfo: Invalid output buffer\r\n"
; 47   :         ));

  00050	e5943440	 ldr         r3, [r4, #0x440]
  00054	e3130002	 tst         r3, #2
  00058	0a00004a	 beq         |$cleanUp$43036|
  0005c	e59f0170	 ldr         r0, [pc, #0x170]

; 48   :         goto cleanUp;

  00060	ea000047	 b           |$LN25@OALIoCtlPr|
  00064		 |$LN24@OALIoCtlPr|

; 49   :     }
; 50   : 
; 51   :     if (pOutBuffer == NULL || outSize < sizeof(PROCESSOR_INFO)) {

  00064	e3530d09	 cmp         r3, #9, 26
  00068	3a00003f	 bcc         |$LN4@OALIoCtlPr|

; 56   :         goto cleanUp;
; 57   :     }
; 58   : 
; 59   :     // Verify OAL lengths
; 60   :     length1 = (NKwcslen(g_oalIoCtlProcessorCore) + 1) * sizeof(WCHAR);

  0006c	e59f715c	 ldr         r7, [pc, #0x15C]
  00070	e5970000	 ldr         r0, [r7]
  00074	eb000000	 bl          NKwcslen
  00078	e2803001	 add         r3, r0, #1
  0007c	e1a08083	 mov         r8, r3, lsl #1

; 61   :     if (length1 > sizeof(pInfo->szProcessCore)) {

  00080	e3580050	 cmp         r8, #0x50
  00084	9a000004	 bls         |$LN3@OALIoCtlPr|
  00088	e5943440	 ldr         r3, [r4, #0x440]

; 62   :         OALMSG(OAL_ERROR, (
; 63   :             L"ERROR:OALIoCtlProcessorInfo: Core value too big\r\n"
; 64   :         ));

  0008c	e3130001	 tst         r3, #1
  00090	0a00003c	 beq         |$cleanUp$43036|
  00094	e59f0130	 ldr         r0, [pc, #0x130]

; 65   :         goto cleanUp;

  00098	ea000039	 b           |$LN25@OALIoCtlPr|
  0009c		 |$LN3@OALIoCtlPr|

; 66   :     }
; 67   : 
; 68   :     length2 = (NKwcslen(g_oalIoCtlProcessorName) + 1) * sizeof(WCHAR);

  0009c	e59f9124	 ldr         r9, [pc, #0x124]
  000a0	e5990000	 ldr         r0, [r9]
  000a4	eb000000	 bl          NKwcslen
  000a8	e2803001	 add         r3, r0, #1
  000ac	e1a0a083	 mov         r10, r3, lsl #1

; 69   :     if (length2 > sizeof(pInfo->szProcessorName)) {

  000b0	e35a0050	 cmp         r10, #0x50
  000b4	9a000004	 bls         |$LN2@OALIoCtlPr|
  000b8	e5943440	 ldr         r3, [r4, #0x440]

; 70   :         OALMSG(OAL_ERROR, (
; 71   :             L"ERROR:OALIoCtlProcessorInfo: Name value too big\r\n"
; 72   :         ));

  000bc	e3130001	 tst         r3, #1
  000c0	0a000030	 beq         |$cleanUp$43036|
  000c4	e59f00f8	 ldr         r0, [pc, #0xF8]

; 73   :         goto cleanUp;

  000c8	ea00002d	 b           |$LN25@OALIoCtlPr|
  000cc		 |$LN2@OALIoCtlPr|

; 74   :     }
; 75   : 
; 76   :     length3 = (NKwcslen(g_oalIoCtlProcessorVendor) + 1) * sizeof(WCHAR);

  000cc	e59fb0ec	 ldr         r11, [pc, #0xEC]
  000d0	e59b0000	 ldr         r0, [r11]
  000d4	eb000000	 bl          NKwcslen
  000d8	e2803001	 add         r3, r0, #1
  000dc	e1a03083	 mov         r3, r3, lsl #1
  000e0	e58d3000	 str         r3, [sp]

; 77   :     if (length3 > sizeof(pInfo->szVendor)) {

  000e4	e35300c8	 cmp         r3, #0xC8
  000e8	9a000004	 bls         |$LN1@OALIoCtlPr|
  000ec	e5943440	 ldr         r3, [r4, #0x440]

; 78   :         OALMSG(OAL_ERROR, (
; 79   :             L"ERROR:OALIoCtlProcessorInfo: Vendor value too big\r\n"
; 80   :         ));

  000f0	e3130001	 tst         r3, #1
  000f4	0a000023	 beq         |$cleanUp$43036|
  000f8	e59f00bc	 ldr         r0, [pc, #0xBC]

; 81   :         goto cleanUp;

  000fc	ea000020	 b           |$LN25@OALIoCtlPr|
  00100		 |$LN1@OALIoCtlPr|

; 82   :     }
; 83   : 
; 84   :     // Copy in processor information    
; 85   :     memset(pInfo, 0, sizeof(PROCESSOR_INFO));

  00100	e3a02d09	 mov         r2, #9, 26
  00104	e3a01000	 mov         r1, #0
  00108	e1a00006	 mov         r0, r6
  0010c	eb000000	 bl          memset

; 86   :     pInfo->wVersion = 1;

  00110	e3a03001	 mov         r3, #1

; 87   :     memcpy(pInfo->szProcessCore, g_oalIoCtlProcessorCore, length1);

  00114	e1a00006	 mov         r0, r6
  00118	e0c030b2	 strh        r3, [r0], #2
  0011c	e5971000	 ldr         r1, [r7]
  00120	e1a02008	 mov         r2, r8
  00124	eb000000	 bl          memcpy

; 88   :     memcpy(pInfo->szProcessorName, g_oalIoCtlProcessorName, length2);

  00128	e5991000	 ldr         r1, [r9]
  0012c	e1a0200a	 mov         r2, r10
  00130	e2860054	 add         r0, r6, #0x54
  00134	eb000000	 bl          memcpy

; 89   :     memcpy(pInfo->szVendor, g_oalIoCtlProcessorVendor, length3);

  00138	e59b1000	 ldr         r1, [r11]
  0013c	e59d2000	 ldr         r2, [sp]
  00140	e2863c01	 add         r3, r6, #1, 24
  00144	e283006e	 add         r0, r3, #0x6E
  00148	eb000000	 bl          memcpy

; 90   :     pInfo->dwInstructionSet = g_oalIoCtlInstructionSet;

  0014c	e59f3064	 ldr         r3, [pc, #0x64]

; 91   :     pInfo->dwClockSpeed  = g_oalIoCtlClockSpeed;

  00150	e59f205c	 ldr         r2, [pc, #0x5C]

; 92   : 
; 93   :     // Indicate success
; 94   :     rc = TRUE;

  00154	e3a05001	 mov         r5, #1
  00158	e5933000	 ldr         r3, [r3]
  0015c	e5863238	 str         r3, [r6, #0x238]
  00160	e5923000	 ldr         r3, [r2]
  00164	e586323c	 str         r3, [r6, #0x23C]
  00168	ea000006	 b           |$cleanUp$43036|
  0016c		 |$LN4@OALIoCtlPr|

; 52   :         NKSetLastError(ERROR_INSUFFICIENT_BUFFER);

  0016c	e3a0007a	 mov         r0, #0x7A
  00170	eb000000	 bl          NKSetLastError
  00174	e5943440	 ldr         r3, [r4, #0x440]

; 53   :         OALMSG(OAL_WARN, (
; 54   :             L"WARN: OALIoCtlProcessorInfo: Buffer too small\r\n"
; 55   :         ));

  00178	e3130002	 tst         r3, #2
  0017c	0a000001	 beq         |$cleanUp$43036|
  00180	e59f0028	 ldr         r0, [pc, #0x28]
  00184		 |$LN25@OALIoCtlPr|
  00184	eb000000	 bl          NKDbgPrintfW
  00188		 |$cleanUp$43036|
  00188	e5943440	 ldr         r3, [r4, #0x440]

; 95   : 
; 96   : cleanUp:
; 97   :     OALMSG(OAL_FUNC, (L"-OALIoCtlProcessorInfo(rc = %d)\r\n", rc));

  0018c	e3130004	 tst         r3, #4
  00190	159f0014	 ldrne       r0, [pc, #0x14]
  00194	11a01005	 movne       r1, r5
  00198	1b000000	 blne        NKDbgPrintfW

; 98   :     return rc;
; 99   : }

  0019c	e1a00005	 mov         r0, r5
  001a0	e28dd004	 add         sp, sp, #4
  001a4	e8bd4ff0	 ldmia       sp!, {r4 - r11, lr}
  001a8	e12fff1e	 bx          lr
  001ac		 |$LN29@OALIoCtlPr|
  001ac		 |$LN30@OALIoCtlPr|
  001ac	00000000	 DCD         |??_C@_1EE@LLJFHFAM@?$AA?9?$AAO?$AAA?$AAL?$AAI?$AAo?$AAC?$AAt?$AAl?$AAP?$AAr?$AAo?$AAc?$AAe?$AAs?$AAs?$AAo?$AAr?$AAI?$AAn?$AAf?$AAo?$AA?$CI?$AAr?$AAc?$AA?5?$AA?$DN?$AA?5?$AA?$CF?$AAd?$AA?$CJ?$AA?$AN@|
  001b0		 |$LN31@OALIoCtlPr|
  001b0	00000000	 DCD         |??_C@_1GA@EACFLEMI@?$AAW?$AAA?$AAR?$AAN?$AA?3?$AA?5?$AAO?$AAA?$AAL?$AAI?$AAo?$AAC?$AAt?$AAl?$AAP?$AAr?$AAo?$AAc?$AAe?$AAs?$AAs?$AAo?$AAr?$AAI?$AAn?$AAf?$AAo?$AA?3?$AA?5?$AAB?$AAu?$AAf@|
  001b4		 |$LN32@OALIoCtlPr|
  001b4	00000000	 DCD         |g_oalIoCtlClockSpeed|
  001b8		 |$LN33@OALIoCtlPr|
  001b8	00000000	 DCD         |g_oalIoCtlInstructionSet|
  001bc		 |$LN34@OALIoCtlPr|
  001bc	00000000	 DCD         |??_C@_1GI@EFCEJCLG@?$AAE?$AAR?$AAR?$AAO?$AAR?$AA?3?$AAO?$AAA?$AAL?$AAI?$AAo?$AAC?$AAt?$AAl?$AAP?$AAr?$AAo?$AAc?$AAe?$AAs?$AAs?$AAo?$AAr?$AAI?$AAn?$AAf?$AAo?$AA?3?$AA?5?$AAV?$AAe?$AAn@|
  001c0		 |$LN35@OALIoCtlPr|
  001c0	00000000	 DCD         |g_oalIoCtlProcessorVendor|
  001c4		 |$LN36@OALIoCtlPr|
  001c4	00000000	 DCD         |??_C@_1GE@JPAPEENG@?$AAE?$AAR?$AAR?$AAO?$AAR?$AA?3?$AAO?$AAA?$AAL?$AAI?$AAo?$AAC?$AAt?$AAl?$AAP?$AAr?$AAo?$AAc?$AAe?$AAs?$AAs?$AAo?$AAr?$AAI?$AAn?$AAf?$AAo?$AA?3?$AA?5?$AAN?$AAa?$AAm@|
  001c8		 |$LN37@OALIoCtlPr|
  001c8	00000000	 DCD         |g_oalIoCtlProcessorName|
  001cc		 |$LN38@OALIoCtlPr|
  001cc	00000000	 DCD         |??_C@_1GE@OFFJPJMM@?$AAE?$AAR?$AAR?$AAO?$AAR?$AA?3?$AAO?$AAA?$AAL?$AAI?$AAo?$AAC?$AAt?$AAl?$AAP?$AAr?$AAo?$AAc?$AAe?$AAs?$AAs?$AAo?$AAr?$AAI?$AAn?$AAf?$AAo?$AA?3?$AA?5?$AAC?$AAo?$AAr@|
  001d0		 |$LN39@OALIoCtlPr|
  001d0	00000000	 DCD         |g_oalIoCtlProcessorCore|
  001d4		 |$LN40@OALIoCtlPr|
  001d4	00000000	 DCD         |??_C@_1GK@MJNAOGCM@?$AAW?$AAA?$AAR?$AAN?$AA?3?$AA?5?$AAO?$AAA?$AAL?$AAI?$AAo?$AAC?$AAt?$AAl?$AAP?$AAr?$AAo?$AAc?$AAe?$AAs?$AAs?$AAo?$AAr?$AAI?$AAn?$AAf?$AAo?$AA?3?$AA?5?$AAI?$AAn?$AAv@|
  001d8		 |$LN41@OALIoCtlPr|
  001d8	00000000	 DCD         |??_C@_1DM@NEACNOML@?$AA?$CL?$AAO?$AAA?$AAL?$AAI?$AAo?$AAC?$AAt?$AAl?$AAP?$AAr?$AAo?$AAc?$AAe?$AAs?$AAs?$AAo?$AAr?$AAI?$AAn?$AAf?$AAo?$AA?$CI?$AA?4?$AA?4?$AA?4?$AA?$CJ?$AA?$AN?$AA?6?$AA?$AA@|
  001dc		 |$LN42@OALIoCtlPr|
  001dc	00000000	 DCD         |dpCurSettings|
  001e0		 |$M43106|

			 ENDP  ; |OALIoCtlProcessorInfo|

	END
