; Listing generated by Microsoft (R) Optimizing Compiler Version 14.01.60511.01 

	TTL	C:\WINCE600\PLATFORM\COMMON\SRC\SOC\COMMON_TI_V1\AM3517\USB\USBH\cohcd.cpp
	CODE32

  00000			 AREA	 |.drectve|, DRECTVE
	DCB	"-defaultlib:LIBCMT "
	DCB	"-defaultlib:OLDNAMES "

	EXPORT	|?GetRootHub@CHcd@@QAAPAVCRootHub@@XZ|	; CHcd::GetRootHub
; File c:\wince600\public\common\oak\drivers\usb\hcd\usb20\usb2com\hcd.hpp

  00000			 AREA	 |.pdata|, PDATA
|$T41529| DCD	|$LN5@GetRootHub|
	DCD	0x40000200
; Function compile flags: /Ogspy

  00000			 AREA	 |.text|, CODE, ARM

  00000		 |?GetRootHub@CHcd@@QAAPAVCRootHub@@XZ| PROC ; CHcd::GetRootHub

; 90   :     CRootHub* GetRootHub() { return m_pCRootHub;};

  00000		 |$LN5@GetRootHub|
  00000		 |$M41526|
  00000	e59000a0	 ldr         r0, [r0, #0xA0]
  00004	e12fff1e	 bx          lr
  00008		 |$M41527|

			 ENDP  ; |?GetRootHub@CHcd@@QAAPAVCRootHub@@XZ|, CHcd::GetRootHub

	EXPORT	|??0COhcd@@QAA@PAXPAVCPhysMem@@PBGRAE3KK@Z| ; COhcd::COhcd
	EXPORT	|??_7COhcd@@6B@| [ DATA ]		; COhcd::`vftable'
	EXPORT	|?AddedTt@COhcd@@UAAHEE@Z|		; COhcd::AddedTt
	EXPORT	|?DeleteTt@COhcd@@UAAHEE@Z|		; COhcd::DeleteTt
	EXPORT	|?DeviceInitialize@COhcd@@UAAHXZ|	; COhcd::DeviceInitialize
	EXPORT	|?DeviceDeInitialize@COhcd@@UAAXXZ|	; COhcd::DeviceDeInitialize
	EXPORT	|?StopAdjustingFrame@CHW@@UAAHXZ|	; CHW::StopAdjustingFrame
	EXPORT	|?SetCapability@?ICHcd@CHW@@UAAKK@Z|	; CHW[::CHcd]::SetCapability
	EXPORT	|?GetCapability@?ICHcd@CHW@@UAAKXZ|	; CHW[::CHcd]::GetCapability
	EXPORT	|?SuspendHC@CHcd@@UAAHXZ|		; CHcd::SuspendHC
	EXPORT	|?ResumeNotification@CHcd@@MAAHXZ|	; CHcd::ResumeNotification
	EXPORT	|?SignalCheckForDoneTransfers@CHW@@UAAXK@Z| ; CHW::SignalCheckForDoneTransfers
	IMPORT	|??0CHCCArea@@QAA@QAVCPhysMem@@@Z|	; CHCCArea::CHCCArea
	IMPORT	|??0CHW@@QAA@SAE0KKQAVCPhysMem@@PAX@Z|	; CHW::CHW
	IMPORT	|??_ECOhcd@@UAAPAXI@Z|, WEAK |??_GCOhcd@@UAAPAXI@Z| ; COhcd::`vector deleting destructor', COhcd::`scalar deleting destructor'
	IMPORT	|?GetFrameNumber@CHW@@UAAHPAK@Z|	; CHW::GetFrameNumber
	IMPORT	|?GetFrameLength@CHW@@UAAHPAG@Z|	; CHW::GetFrameLength
	IMPORT	|?SetFrameLength@CHW@@UAAHPAXG@Z|	; CHW::SetFrameLength
	IMPORT	|?PowerMgmtCallback@CHW@@UAAXH@Z|	; CHW::PowerMgmtCallback
	IMPORT	|?DisableDevice@CHcd@@UAAHIH@Z|		; CHcd::DisableDevice
	IMPORT	|?SuspendResume@CHcd@@UAAHIH@Z|		; CHcd::SuspendResume
	IMPORT	|?DidPortStatusChange@CHW@@UAAHE@Z|	; CHW::DidPortStatusChange
	IMPORT	|?GetPortStatus@CHW@@UAAHEAAU_USB_HUB_AND_PORT_STATUS@@@Z| ; CHW::GetPortStatus
	IMPORT	|?RootHubFeature@CHW@@UAAHEEG@Z|	; CHW::RootHubFeature
	IMPORT	|?ResetAndEnablePort@CHW@@UAAHE@Z|	; CHW::ResetAndEnablePort
	IMPORT	|?DisablePort@CHW@@UAAXE@Z|		; CHW::DisablePort
	IMPORT	|?WaitForPortStatusChange@CHW@@UAAHPAX@Z| ; CHW::WaitForPortStatusChange
	IMPORT	|?Initialize@CHW@@UAAHXZ|		; CHW::Initialize
	IMPORT	|?DeInitialize@CHW@@UAAXXZ|		; CHW::DeInitialize
; File c:\wince600\platform\common\src\soc\common_ti_v1\am3517\usb\usbh\cohcd.cpp

  00000			 AREA	 |.pdata|, PDATA
|$T41542| DCD	|$LN5@COhcd|
	DCD	0x40001902

  00000			 AREA	 |.rdata|, DATA, READONLY
|??_7COhcd@@6B@| DCD |?AddedTt@COhcd@@UAAHEE@Z|		; COhcd::`vftable'
	DCD	|?DeleteTt@COhcd@@UAAHEE@Z|
	DCD	|??_ECOhcd@@UAAPAXI@Z|
	DCD	|?DeviceInitialize@COhcd@@UAAHXZ|
	DCD	|?DeviceDeInitialize@COhcd@@UAAXXZ|
	DCD	|?GetFrameNumber@CHW@@UAAHPAK@Z|
	DCD	|?GetFrameLength@CHW@@UAAHPAG@Z|
	DCD	|?SetFrameLength@CHW@@UAAHPAXG@Z|
	DCD	|?StopAdjustingFrame@CHW@@UAAHXZ|
	DCD	|?PowerMgmtCallback@CHW@@UAAXH@Z|
	DCD	|?DisableDevice@CHcd@@UAAHIH@Z|
	DCD	|?SuspendResume@CHcd@@UAAHIH@Z|
	DCD	|?DidPortStatusChange@CHW@@UAAHE@Z|
	DCD	|?GetPortStatus@CHW@@UAAHEAAU_USB_HUB_AND_PORT_STATUS@@@Z|
	DCD	|?RootHubFeature@CHW@@UAAHEEG@Z|
	DCD	|?ResetAndEnablePort@CHW@@UAAHE@Z|
	DCD	|?DisablePort@CHW@@UAAXE@Z|
	DCD	|?WaitForPortStatusChange@CHW@@UAAHPAX@Z|
	DCD	|?SetCapability@?ICHcd@CHW@@UAAKK@Z|
	DCD	|?GetCapability@?ICHcd@CHW@@UAAKXZ|
	DCD	|?SuspendHC@CHcd@@UAAHXZ|
	DCD	|?ResumeNotification@CHcd@@MAAHXZ|
	DCD	|?Initialize@CHW@@UAAHXZ|
	DCD	|?DeInitialize@CHW@@UAAXXZ|
	DCD	|?SignalCheckForDoneTransfers@CHW@@UAAXK@Z|
; Function compile flags: /Ogspy

  00000			 AREA	 |.text|, CODE, ARM

  00000		 |??0COhcd@@QAA@PAXPAVCPhysMem@@PBGRAE3KK@Z| PROC ; COhcd::COhcd

; 66   : {

  00000		 |$LN5@COhcd|
  00000	e92d40f0	 stmdb       sp!, {r4 - r7, lr}
  00004	e24dd00c	 sub         sp, sp, #0xC
  00008		 |$M41539|
  00008	e1a05002	 mov         r5, r2
  0000c	e1a04001	 mov         r4, r1
  00010	e1a07000	 mov         r7, r0
  00014	e59d6028	 ldr         r6, [sp, #0x28]
  00018	e59de02c	 ldr         lr, [sp, #0x2C]
  0001c	e59d2024	 ldr         r2, [sp, #0x24]
  00020	e59d1020	 ldr         r1, [sp, #0x20]
  00024	e1a03006	 mov         r3, r6
  00028	e58d4008	 str         r4, [sp, #8]
  0002c	e58d5004	 str         r5, [sp, #4]
  00030	e58de000	 str         lr, [sp]
  00034	eb000000	 bl          |??0CHW@@QAA@SAE0KKQAVCPhysMem@@PAX@Z|
  00038	e1a01005	 mov         r1, r5
  0003c	e2870e47	 add         r0, r7, #0x47, 28
  00040	eb000000	 bl          |??0CHCCArea@@QAA@QAVCPhysMem@@@Z|
  00044	e59f3014	 ldr         r3, [pc, #0x14]

; 67   :     DEBUGMSG(ZONE_HCD && ZONE_VERBOSE, (TEXT("+COhcd::COhcd\n")));
; 68   :     m_dwSysIntr = dwSysIntr;

  00048	e587659c	 str         r6, [r7, #0x59C]

; 69   :     DEBUGMSG(ZONE_HCD && ZONE_VERBOSE, (TEXT("-COhcd::COhcd\n")));
; 70   : }

  0004c	e1a00007	 mov         r0, r7
  00050	e5873000	 str         r3, [r7]
  00054	e28dd00c	 add         sp, sp, #0xC
  00058	e8bd40f0	 ldmia       sp!, {r4 - r7, lr}
  0005c	e12fff1e	 bx          lr
  00060		 |$LN6@COhcd|
  00060		 |$LN7@COhcd|
  00060	00000000	 DCD         |??_7COhcd@@6B@|
  00064		 |$M41540|

			 ENDP  ; |??0COhcd@@QAA@PAXPAVCPhysMem@@PBGRAE3KK@Z|, COhcd::COhcd

	EXPORT	|?Lock@LockObject@@QAAXXZ|		; LockObject::Lock
	IMPORT	|EnterCriticalSection|
; File c:\wince600\public\common\oak\drivers\usb\hcd\usb20\usb2com\sync.hpp

  00000			 AREA	 |.pdata|, PDATA
|$T41552| DCD	|$LN5@Lock|
	DCD	0x40000401
; Function compile flags: /Ogspy

  00000			 AREA	 |.text|, CODE, ARM

  00000		 |?Lock@LockObject@@QAAXXZ| PROC	; LockObject::Lock

; 74   :     void Lock(void) { EnterCriticalSection(&m_CSection); };

  00000		 |$LN5@Lock|
  00000	e52de004	 str         lr, [sp, #-4]!
  00004		 |$M41549|
  00004	eb000000	 bl          EnterCriticalSection
  00008	e49de004	 ldr         lr, [sp], #4
  0000c	e12fff1e	 bx          lr
  00010		 |$M41550|

			 ENDP  ; |?Lock@LockObject@@QAAXXZ|, LockObject::Lock

	EXPORT	|?Unlock@LockObject@@QAAXXZ|		; LockObject::Unlock
	IMPORT	|LeaveCriticalSection|

  00000			 AREA	 |.pdata|, PDATA
|$T41560| DCD	|$LN5@Unlock|
	DCD	0x40000401
; Function compile flags: /Ogspy

  00000			 AREA	 |.text|, CODE, ARM

  00000		 |?Unlock@LockObject@@QAAXXZ| PROC	; LockObject::Unlock

; 75   :     void Unlock(void) {LeaveCriticalSection( &m_CSection); };

  00000		 |$LN5@Unlock|
  00000	e52de004	 str         lr, [sp, #-4]!
  00004		 |$M41557|
  00004	eb000000	 bl          LeaveCriticalSection
  00008	e49de004	 ldr         lr, [sp], #4
  0000c	e12fff1e	 bx          lr
  00010		 |$M41558|

			 ENDP  ; |?Unlock@LockObject@@QAAXXZ|, LockObject::Unlock

; File c:\wince600\public\common\oak\drivers\usb\hcd\usb20\usb2com\hcd.hpp

  00000			 AREA	 |.pdata|, PDATA
|$T41569| DCD	|$LN5@SuspendHC|
	DCD	0x40000200
; Function compile flags: /Ogspy

  00000			 AREA	 |.text|, CODE, ARM

  00000		 |?SuspendHC@CHcd@@UAAHXZ| PROC		; CHcd::SuspendHC

; 112  :     virtual BOOL    SuspendHC() { return FALSE; }; // Default does not support it function.

  00000		 |$LN5@SuspendHC|
  00000		 |$M41566|
  00000	e3a00000	 mov         r0, #0
  00004	e12fff1e	 bx          lr
  00008		 |$M41567|

			 ENDP  ; |?SuspendHC@CHcd@@UAAHXZ|, CHcd::SuspendHC

; File c:\wince600\public\common\oak\drivers\usb\hcd\usb20\usb2com\sync.hpp

  00000			 AREA	 |.pdata|, PDATA
|$T41586| DCD	|$LN10@ResumeNoti|
	DCD	0x40002001
; Function compile flags: /Ogspy
; File c:\wince600\public\common\oak\drivers\usb\hcd\usb20\usb2com\hcd.hpp

  00000			 AREA	 |.text|, CODE, ARM

  00000		 |?ResumeNotification@CHcd@@MAAHXZ| PROC ; CHcd::ResumeNotification

; 120  :     virtual BOOL ResumeNotification ()  {

  00000		 |$LN10@ResumeNoti|
  00000	e92d4030	 stmdb       sp!, {r4, r5, lr}
  00004		 |$M41583|
  00004	e1a04000	 mov         r4, r0

; 121  :         Lock();

  00008	e284008c	 add         r0, r4, #0x8C
  0000c	eb000000	 bl          EnterCriticalSection

; 122  :         BOOL fReturn = FALSE;
; 123  :         if (m_pCRootHub) {

  00010	e59430a0	 ldr         r3, [r4, #0xA0]
  00014	e3a05000	 mov         r5, #0
  00018	e3530000	 cmp         r3, #0
  0001c	0a000012	 beq         |$LN1@ResumeNoti|

; 124  :             fReturn = m_pCRootHub->ResumeNotification();

  00020	e1a00003	 mov         r0, r3
  00024	e5903000	 ldr         r3, [r0]
  00028	e5933028	 ldr         r3, [r3, #0x28]
  0002c	e1a0e00f	 mov         lr, pc
  00030	e12fff13	 bx          r3

; 125  :             m_pCRootHub->NotifyOnSuspendedResumed(FALSE);

  00034	e59420a0	 ldr         r2, [r4, #0xA0]
  00038	e1a05000	 mov         r5, r0
  0003c	e3a01000	 mov         r1, #0
  00040	e5923000	 ldr         r3, [r2]
  00044	e1a00002	 mov         r0, r2
  00048	e593302c	 ldr         r3, [r3, #0x2C]
  0004c	e1a0e00f	 mov         lr, pc
  00050	e12fff13	 bx          r3

; 126  :             m_pCRootHub->NotifyOnSuspendedResumed(TRUE);

  00054	e59400a0	 ldr         r0, [r4, #0xA0]
  00058	e3a01001	 mov         r1, #1
  0005c	e5903000	 ldr         r3, [r0]
  00060	e593302c	 ldr         r3, [r3, #0x2C]
  00064	e1a0e00f	 mov         lr, pc
  00068	e12fff13	 bx          r3
  0006c		 |$LN1@ResumeNoti|

; 127  :         }
; 128  :         Unlock();

  0006c	e284008c	 add         r0, r4, #0x8C
  00070	eb000000	 bl          LeaveCriticalSection

; 129  :         return fReturn;
; 130  :     }

  00074	e1a00005	 mov         r0, r5
  00078	e8bd4030	 ldmia       sp!, {r4, r5, lr}
  0007c	e12fff1e	 bx          lr
  00080		 |$M41584|

			 ENDP  ; |?ResumeNotification@CHcd@@MAAHXZ|, CHcd::ResumeNotification

; File c:\wince600\platform\common\src\soc\common_ti_v1\am3517\usb\usbh\chw.hpp

  00000			 AREA	 |.pdata|, PDATA
|$T41593| DCD	|$LN5@SignalChec|
	DCD	0x40000100
; Function compile flags: /Ogspy

  00000			 AREA	 |.text|, CODE, ARM

  00000		 |?SignalCheckForDoneTransfers@CHW@@UAAXK@Z| PROC ; CHW::SignalCheckForDoneTransfers

; 85   :     virtual void   SignalCheckForDoneTransfers ( DWORD  ) { ASSERT(FALSE); };

  00000		 |$LN5@SignalChec|
  00000		 |$M41590|
  00000	e12fff1e	 bx          lr
  00004		 |$M41591|

			 ENDP  ; |?SignalCheckForDoneTransfers@CHW@@UAAXK@Z|, CHW::SignalCheckForDoneTransfers


  00000			 AREA	 |.pdata|, PDATA
|$T41602| DCD	|$LN5@StopAdjust|
	DCD	0x40000200
; Function compile flags: /Ogspy

  00000			 AREA	 |.text|, CODE, ARM

  00000		 |?StopAdjustingFrame@CHW@@UAAHXZ| PROC	; CHW::StopAdjustingFrame

; 94   :     BOOL StopAdjustingFrame(void) { return TRUE; };

  00000		 |$LN5@StopAdjust|
  00000		 |$M41599|
  00000	e3a00001	 mov         r0, #1
  00004	e12fff1e	 bx          lr
  00008		 |$M41600|

			 ENDP  ; |?StopAdjustingFrame@CHW@@UAAHXZ|, CHW::StopAdjustingFrame


  00000			 AREA	 |.pdata|, PDATA
|$T41612| DCD	|$LN5@GetCapabil|
	DCD	0x40000200
; Function compile flags: /Ogspy

  00000			 AREA	 |.text|, CODE, ARM

  00000		 |?GetCapability@?ICHcd@CHW@@UAAKXZ| PROC ; CHW[::CHcd]::GetCapability

; 116  :     DWORD CHcd::GetCapability(void) { return m_dwCap; }

  00000		 |$LN5@GetCapabil|
  00000		 |$M41609|
  00000	e5900198	 ldr         r0, [r0, #0x198]
  00004	e12fff1e	 bx          lr
  00008		 |$M41610|

			 ENDP  ; |?GetCapability@?ICHcd@CHW@@UAAKXZ|, CHW[::CHcd]::GetCapability


  00000			 AREA	 |.pdata|, PDATA
|$T41623| DCD	|$LN5@SetCapabil|
	DCD	0x40000500
; Function compile flags: /Ogspy

  00000			 AREA	 |.text|, CODE, ARM

  00000		 |?SetCapability@?ICHcd@CHW@@UAAKK@Z| PROC ; CHW[::CHcd]::SetCapability

; 117  :     DWORD CHcd::SetCapability(DWORD dwCap) { return (m_dwCap |= dwCap); }

  00000		 |$LN5@SetCapabil|
  00000		 |$M41620|
  00000	e5903198	 ldr         r3, [r0, #0x198]
  00004	e1833001	 orr         r3, r3, r1
  00008	e5803198	 str         r3, [r0, #0x198]
  0000c	e1a00003	 mov         r0, r3
  00010	e12fff1e	 bx          lr
  00014		 |$M41621|

			 ENDP  ; |?SetCapability@?ICHcd@CHW@@UAAKK@Z|, CHW[::CHcd]::SetCapability

; File c:\wince600\platform\common\src\soc\common_ti_v1\am3517\usb\usbh\cohcd.hpp

  00000			 AREA	 |.pdata|, PDATA
|$T41632| DCD	|$LN5@AddedTt|
	DCD	0x40000200
; Function compile flags: /Ogspy

  00000			 AREA	 |.text|, CODE, ARM

  00000		 |?AddedTt@COhcd@@UAAHEE@Z| PROC	; COhcd::AddedTt

; 71   :     virtual BOOL AddedTt( UCHAR uHubAddress,UCHAR uPort) { uHubAddress = uHubAddress;uPort = uPort;return TRUE; };

  00000		 |$LN5@AddedTt|
  00000		 |$M41629|
  00000	e3a00001	 mov         r0, #1
  00004	e12fff1e	 bx          lr
  00008		 |$M41630|

			 ENDP  ; |?AddedTt@COhcd@@UAAHEE@Z|, COhcd::AddedTt


  00000			 AREA	 |.pdata|, PDATA
|$T41641| DCD	|$LN5@DeleteTt|
	DCD	0x40000200
; Function compile flags: /Ogspy

  00000			 AREA	 |.text|, CODE, ARM

  00000		 |?DeleteTt@COhcd@@UAAHEE@Z| PROC	; COhcd::DeleteTt

; 72   :     virtual BOOL DeleteTt( UCHAR uHubAddress,UCHAR uPort) { uHubAddress = uHubAddress;uPort = uPort;return TRUE; };

  00000		 |$LN5@DeleteTt|
  00000		 |$M41638|
  00000	e3a00001	 mov         r0, #1
  00004	e12fff1e	 bx          lr
  00008		 |$M41639|

			 ENDP  ; |?DeleteTt@COhcd@@UAAHEE@Z|, COhcd::DeleteTt

	EXPORT	|??1COhcd@@UAA@XZ|			; COhcd::~COhcd
	IMPORT	|??1CHW@@UAA@XZ|			; CHW::~CHW
	IMPORT	|??1CHCCArea@@QAA@XZ|			; CHCCArea::~CHCCArea
	IMPORT	|?StopHostController@CHW@@QAAXXZ|	; CHW::StopHostController
	IMPORT	|?SetRootHub@CHcd@@QAAPAVCRootHub@@PAV2@@Z| ; CHcd::SetRootHub
; File c:\wince600\platform\common\src\soc\common_ti_v1\am3517\usb\usbh\cohcd.cpp

  00000			 AREA	 |.pdata|, PDATA
|$T41656| DCD	|$LN10@COhcd@2|
	DCD	0x40001c01
; Function compile flags: /Ogspy

  00000			 AREA	 |.text|, CODE, ARM

  00000		 |??1COhcd@@UAA@XZ| PROC		; COhcd::~COhcd

; 83   : {

  00000		 |$LN10@COhcd@2|
  00000	e92d4030	 stmdb       sp!, {r4, r5, lr}
  00004		 |$M41653|
  00004	e1a04000	 mov         r4, r0
  00008	e59f305c	 ldr         r3, [pc, #0x5C]

; 84   :     DEBUGMSG(ZONE_HCD && ZONE_VERBOSE, (TEXT("+COhcd::~COhcd\n")));
; 85   : 
; 86   :     // make the API set inaccessible
; 87   :     CRootHub *pRoot = SetRootHub(NULL);

  0000c	e3a01000	 mov         r1, #0
  00010	e5843000	 str         r3, [r4]
  00014	eb000000	 bl          |?SetRootHub@CHcd@@QAAPAVCRootHub@@PAV2@@Z|
  00018	e1b05000	 movs        r5, r0

; 88   :     // signal root hub to close
; 89   :     if ( pRoot ) {

  0001c	0a00000a	 beq         |$LN6@COhcd@2|

; 90   :         pRoot->HandleDetach();

  00020	e5953000	 ldr         r3, [r5]
  00024	e1a00005	 mov         r0, r5
  00028	e5933030	 ldr         r3, [r3, #0x30]
  0002c	e1a0e00f	 mov         lr, pc
  00030	e12fff13	 bx          r3

; 91   :         delete pRoot;

  00034	e5953000	 ldr         r3, [r5]
  00038	e3a01001	 mov         r1, #1
  0003c	e1a00005	 mov         r0, r5
  00040	e5933000	 ldr         r3, [r3]
  00044	e1a0e00f	 mov         lr, pc
  00048	e12fff13	 bx          r3
  0004c		 |$LN6@COhcd@2|

; 92   :     }
; 93   :     CHW::StopHostController();

  0004c	e1a00004	 mov         r0, r4
  00050	eb000000	 bl          |?StopHostController@CHW@@QAAXXZ|

; 94   : 
; 95   :     DEBUGMSG(ZONE_HCD && ZONE_VERBOSE, (TEXT("-COhcd::~COhcd\n")));
; 96   : }

  00054	e2840e47	 add         r0, r4, #0x47, 28
  00058	eb000000	 bl          |??1CHCCArea@@QAA@XZ|
  0005c	e1a00004	 mov         r0, r4
  00060	eb000000	 bl          |??1CHW@@UAA@XZ|
  00064	e8bd4030	 ldmia       sp!, {r4, r5, lr}
  00068	e12fff1e	 bx          lr
  0006c		 |$LN11@COhcd@2|
  0006c		 |$LN12@COhcd@2|
  0006c	00000000	 DCD         |??_7COhcd@@6B@|
  00070		 |$M41654|

			 ENDP  ; |??1COhcd@@UAA@XZ|, COhcd::~COhcd

	IMPORT	|?DeInitialize@CDeviceGlobal@@QAAXXZ|	; CDeviceGlobal::DeInitialize
	IMPORT	|?DeInitialize@CHCCArea@@QAAXXZ|	; CHCCArea::DeInitialize
	IMPORT	|?WaitForPipes@CHCCArea@@QAAHK@Z|	; CHCCArea::WaitForPipes

  00000			 AREA	 |.pdata|, PDATA
|$T41671| DCD	|$LN8@DeviceDeIn|
	DCD	0x40002001
; Function compile flags: /Ogspy

  00000			 AREA	 |.text|, CODE, ARM

  00000		 |?DeviceDeInitialize@COhcd@@UAAXXZ| PROC ; COhcd::DeviceDeInitialize

; 98   : {

  00000		 |$LN8@DeviceDeIn|
  00000	e92d4030	 stmdb       sp!, {r4, r5, lr}
  00004		 |$M41668|
  00004	e1a04000	 mov         r4, r0

; 99   :     DEBUGMSG(ZONE_HCD && ZONE_VERBOSE, (TEXT("+COhcd::DeInitialize\n")));
; 100  : 
; 101  :     // Wait for all the pipes to finish first...
; 102  :     CHCCArea::WaitForPipes(3000);

  00008	e3a03c0b	 mov         r3, #0xB, 24
  0000c	e38310b8	 orr         r1, r3, #0xB8
  00010	e2840e47	 add         r0, r4, #0x47, 28
  00014	eb000000	 bl          |?WaitForPipes@CHCCArea@@QAAHK@Z|

; 103  : 
; 104  :     CHW::StopHostController();

  00018	e1a00004	 mov         r0, r4
  0001c	eb000000	 bl          |?StopHostController@CHW@@QAAXXZ|

; 105  : 
; 106  :     // make the API set inaccessible
; 107  :     CRootHub *pRoot = SetRootHub(NULL);

  00020	e3a01000	 mov         r1, #0
  00024	e1a00004	 mov         r0, r4
  00028	eb000000	 bl          |?SetRootHub@CHcd@@QAAPAVCRootHub@@PAV2@@Z|
  0002c	e1b05000	 movs        r5, r0

; 108  :     // signal root hub to close
; 109  :     if ( pRoot ) {

  00030	0a00000a	 beq         |$LN4@DeviceDeIn|

; 110  :         pRoot->HandleDetach();

  00034	e5953000	 ldr         r3, [r5]
  00038	e1a00005	 mov         r0, r5
  0003c	e5933030	 ldr         r3, [r3, #0x30]
  00040	e1a0e00f	 mov         lr, pc
  00044	e12fff13	 bx          r3

; 111  :         delete pRoot;

  00048	e5953000	 ldr         r3, [r5]
  0004c	e3a01001	 mov         r1, #1
  00050	e1a00005	 mov         r0, r5
  00054	e5933000	 ldr         r3, [r3]
  00058	e1a0e00f	 mov         lr, pc
  0005c	e12fff13	 bx          r3
  00060		 |$LN4@DeviceDeIn|

; 112  :     }
; 113  :     // this is safe because by now all clients have been unloaded
; 114  :     //DeleteCriticalSection ( &m_csHCLock );
; 115  : 
; 116  :     CHW::DeInitialize();

  00060	e1a00004	 mov         r0, r4
  00064	eb000000	 bl          |?DeInitialize@CHW@@UAAXXZ|

; 117  :     CHCCArea::DeInitialize();

  00068	e2840e47	 add         r0, r4, #0x47, 28
  0006c	eb000000	 bl          |?DeInitialize@CHCCArea@@QAAXXZ|

; 118  :     CDeviceGlobal::DeInitialize();

  00070	e1a00004	 mov         r0, r4
  00074	eb000000	 bl          |?DeInitialize@CDeviceGlobal@@QAAXXZ|

; 119  : 
; 120  :     DEBUGMSG(ZONE_HCD && ZONE_VERBOSE, (TEXT("-COhcd::DeInitialize\n")));
; 121  : }

  00078	e8bd4030	 ldmia       sp!, {r4, r5, lr}
  0007c	e12fff1e	 bx          lr
  00080		 |$M41669|

			 ENDP  ; |?DeviceDeInitialize@COhcd@@UAAXXZ|, COhcd::DeviceDeInitialize

	EXPORT	|__$ArrayPad$| [ DATA ]
	IMPORT	|?EnterOperationalState@CHW@@QAAXXZ|	; CHW::EnterOperationalState
	IMPORT	|??0CRootHub@@QAA@ABU_USB_DEVICE_INFO@@HHABU_USB_HUB_DESCRIPTOR@@QAVCHcd@@@Z| ; CRootHub::CRootHub
	IMPORT	|??2@YAPAXI@Z|				; operator new
	IMPORT	|?GetRootHubDescriptor@CHW@@QAAXAAU_USB_HUB_DESCRIPTOR@@@Z| ; CHW::GetRootHubDescriptor
	IMPORT	|?Initialize@CHCCArea@@QAAHPAVCOhcd@@@Z| ; CHCCArea::Initialize
	IMPORT	|?Initialize@CDeviceGlobal@@QAAHPAX@Z|	; CDeviceGlobal::Initialize
	IMPORT	|__GSHandlerCheck|
	IMPORT	|__security_cookie|
	IMPORT	|__security_check_cookie|
; File c:\wince600\public\common\oak\drivers\usb\hcd\usb20\usb2com\hcd.hpp

  00000			 AREA	 |.pdata|, PDATA
|$T41703| DCD	|$LN15@DeviceInit|
	DCD	0xc0005502

  00000			 AREA	 |.xdata|, DATA
|$T41699| DCD	0xffffffdc
; Function compile flags: /Ogspy
; File c:\wince600\platform\common\src\soc\common_ti_v1\am3517\usb\usbh\cohcd.cpp

  00000			 AREA	 |.text|, CODE, ARM

  00000	00000000	 DCD         |__GSHandlerCheck|
  00004	00000000	 DCD         |$T41699|

  00008		 |?DeviceInitialize@COhcd@@UAAHXZ| PROC	; COhcd::DeviceInitialize

; 148  : {

  00008		 |$LN15@DeviceInit|
  00008	e92d47f0	 stmdb       sp!, {r4 - r10, lr}
  0000c	e24dd074	 sub         sp, sp, #0x74
  00010		 |$M41700|
  00010	e1a05000	 mov         r5, r0
  00014	e59f313c	 ldr         r3, [pc, #0x13C]
  00018	e5933000	 ldr         r3, [r3]
  0001c	e58d3070	 str         r3, [sp, #0x70]

; 149  :     DEBUGMSG(ZONE_INIT,(TEXT("+COhcd::DeviceInitialize. Entry\r\n")));
; 150  : 
; 151  :     // All Initialize routines must be called, so we can't write
; 152  :     // if ( !CDevice::Initialize() || !CPipe::Initialize() etc )
; 153  :     // due to short circuit eval.
; 154  :     {
; 155  :         BOOL fCDeviceInitOK = CDeviceGlobal::Initialize(this);

  00020	e1a01005	 mov         r1, r5
  00024	eb000000	 bl          |?Initialize@CDeviceGlobal@@QAAHPAX@Z|
  00028	e1a04000	 mov         r4, r0

; 156  :         BOOL fCHWInitOK = CHW::Initialize( );

  0002c	e1a00005	 mov         r0, r5
  00030	eb000000	 bl          |?Initialize@CHW@@UAAHXZ|
  00034	e1a06000	 mov         r6, r0

; 157  :         BOOL fCPipeInitOK = CHCCArea::Initialize(this);

  00038	e2850e47	 add         r0, r5, #0x47, 28
  0003c	e1a01005	 mov         r1, r5
  00040	eb000000	 bl          |?Initialize@CHCCArea@@QAAHPAVCOhcd@@@Z|

; 158  : 
; 159  :         if ( !fCDeviceInitOK || !fCPipeInitOK || !fCHWInitOK ) {

  00044	e3540000	 cmp         r4, #0
  00048	0a00003c	 beq         |$LN3@DeviceInit|
  0004c	e3500000	 cmp         r0, #0
  00050	0a00003a	 beq         |$LN3@DeviceInit|
  00054	e3560000	 cmp         r6, #0
  00058	0a000038	 beq         |$LN3@DeviceInit|

; 162  :         }
; 163  :     }
; 164  : 
; 165  :     // set up the root hub object
; 166  :     {
; 167  :         USB_DEVICE_INFO deviceInfo;
; 168  :         USB_HUB_DESCRIPTOR usbHubDescriptor;
; 169  : 
; 170  :         deviceInfo.dwCount = sizeof( USB_DEVICE_INFO );
; 171  :         deviceInfo.lpConfigs = NULL;
; 172  :         deviceInfo.lpActiveConfig = NULL;

  0005c	e3a01000	 mov         r1, #0

; 173  :         deviceInfo.Descriptor.bLength = sizeof( USB_DEVICE_DESCRIPTOR );

  00060	e3a00012	 mov         r0, #0x12

; 174  :         deviceInfo.Descriptor.bDescriptorType = USB_DEVICE_DESCRIPTOR_TYPE;
; 175  :         deviceInfo.Descriptor.bcdUSB = 0x110; // USB spec 1.10
; 176  :         deviceInfo.Descriptor.bDeviceClass = USB_DEVICE_CLASS_HUB;
; 177  :         deviceInfo.Descriptor.bDeviceSubClass = 0xff;
; 178  :         deviceInfo.Descriptor.bDeviceProtocol = 0xff;
; 179  :         deviceInfo.Descriptor.bMaxPacketSize0 = 0;
; 180  :         deviceInfo.Descriptor.bNumConfigurations = 0;

  00064	e58d1024	 str         r1, [sp, #0x24]
  00068	e5cd000c	 strb        r0, [sp, #0xC]
  0006c	e3a03020	 mov         r3, #0x20
  00070	e3a02000	 mov         r2, #0
  00074	e3a0e001	 mov         lr, #1
  00078	e3a04e11	 mov         r4, #0x11, 28
  0007c	e3a06009	 mov         r6, #9
  00080	e3a070ff	 mov         r7, #0xFF
  00084	e3a080ff	 mov         r8, #0xFF
  00088	e3a09000	 mov         r9, #0
  0008c	e3a0a000	 mov         r10, #0

; 181  : 
; 182  :         CHW::GetRootHubDescriptor(usbHubDescriptor);

  00090	e28d1028	 add         r1, sp, #0x28
  00094	e1a00005	 mov         r0, r5
  00098	e58d3008	 str         r3, [sp, #8]
  0009c	e58d2020	 str         r2, [sp, #0x20]
  000a0	e5cde00d	 strb        lr, [sp, #0xD]
  000a4	e1cd40be	 strh        r4, [sp, #0xE]
  000a8	e5cd6010	 strb        r6, [sp, #0x10]
  000ac	e5cd7011	 strb        r7, [sp, #0x11]
  000b0	e5cd8012	 strb        r8, [sp, #0x12]
  000b4	e5cd9013	 strb        r9, [sp, #0x13]
  000b8	e5cda01d	 strb        r10, [sp, #0x1D]
  000bc	eb000000	 bl          |?GetRootHubDescriptor@CHW@@QAAXAAU_USB_HUB_DESCRIPTOR@@@Z|

; 183  : 
; 184  :         // FALSE indicates root hub is not low speed
; 185  :         // (though, this is ignored for hubs anyway)
; 186  :         // during root hub object creation, we are configuring as
; 187  :         // though the root hub is operation in High speed. But actually,
; 188  :         // the root hub should(will?) be configured to match the speed of the device
; 189  :         // directly connected to root hub
; 190  : 
; 191  :         /*2 & 3 arguments may be confusing. these two arguments initialize
; 192  :         m_fIsLowSpeed & m_fIsHighSpeed but it is updated in CRootHub::GetStatus
; 193  :         */
; 194  :         SetRootHub( new CRootHub( deviceInfo, FALSE,TRUE, usbHubDescriptor,this ));

  000c0	e3a000cc	 mov         r0, #0xCC
  000c4	eb000000	 bl          |??2@YAPAXI@Z|
  000c8	e3500000	 cmp         r0, #0
  000cc	0a000007	 beq         |$LN7@DeviceInit|
  000d0	e28d3028	 add         r3, sp, #0x28
  000d4	e58d3000	 str         r3, [sp]
  000d8	e3a03001	 mov         r3, #1
  000dc	e3a02000	 mov         r2, #0
  000e0	e28d1008	 add         r1, sp, #8
  000e4	e58d5004	 str         r5, [sp, #4]
  000e8	eb000000	 bl          |??0CRootHub@@QAA@ABU_USB_DEVICE_INFO@@HHABU_USB_HUB_DESCRIPTOR@@QAVCHcd@@@Z|
  000ec	ea000000	 b           |$LN8@DeviceInit|
  000f0		 |$LN7@DeviceInit|
  000f0	e3a00000	 mov         r0, #0
  000f4		 |$LN8@DeviceInit|
  000f4	e1a01000	 mov         r1, r0
  000f8	e1a00005	 mov         r0, r5
  000fc	eb000000	 bl          |?SetRootHub@CHcd@@QAAPAVCRootHub@@PAV2@@Z|

; 195  :     }
; 196  :     if ( !GetRootHub() ) {

  00100	e59530a0	 ldr         r3, [r5, #0xA0]
  00104	e1b00003	 movs        r0, r3

; 197  :         DEBUGMSG( ZONE_ERROR, (TEXT("-COhcd::DeviceInitialize - unable to create root hub object\n")) );
; 198  :         return FALSE;

  00108	0a00000c	 beq         |$LN3@DeviceInit|

; 199  :     }
; 200  : 
; 201  :     // Signal root hub to start processing port changes
; 202  :     // The root hub doesn't have any pipes, so we pass NULL as the
; 203  :     // endpoint0 pipe
; 204  :     if ( !GetRootHub()->EnterOperationalState( NULL ) ) {

  0010c	e5903000	 ldr         r3, [r0]
  00110	e3a01000	 mov         r1, #0
  00114	e5933004	 ldr         r3, [r3, #4]
  00118	e1a0e00f	 mov         lr, pc
  0011c	e12fff13	 bx          r3
  00120	e3500000	 cmp         r0, #0

; 205  :         DEBUGMSG(ZONE_ERROR, (TEXT("-COhcd::DeviceInitialize. Error initializing root hub\n")));
; 206  :         return FALSE;

  00124	0a000005	 beq         |$LN3@DeviceInit|

; 207  :     }
; 208  : 
; 209  :     // Start processing frames
; 210  :     CHW::EnterOperationalState();

  00128	e1a00005	 mov         r0, r5
  0012c	eb000000	 bl          |?EnterOperationalState@CHW@@QAAXXZ|

; 211  : 
; 212  :     DEBUGMSG(ZONE_INIT,(TEXT("-COhcd::DeviceInitialize. Success!!\r\n")));
; 213  :     return TRUE;

  00130	e59d0070	 ldr         r0, [sp, #0x70]
  00134	eb000000	 bl          __security_check_cookie
  00138	e3a00001	 mov         r0, #1
  0013c	ea000002	 b           |$LN5@DeviceInit|
  00140		 |$LN3@DeviceInit|

; 160  :             DEBUGMSG(ZONE_ERROR, (TEXT("-COhcd::DeviceInitialize. Error - could not initialize device/pipe/hw classes\n")));
; 161  :             return FALSE;

  00140	e59d0070	 ldr         r0, [sp, #0x70]
  00144	eb000000	 bl          __security_check_cookie
  00148	e3a00000	 mov         r0, #0
  0014c		 |$LN5@DeviceInit|

; 214  : };

  0014c	e28dd074	 add         sp, sp, #0x74
  00150	e8bd47f0	 ldmia       sp!, {r4 - r10, lr}
  00154	e12fff1e	 bx          lr
  00158		 |$LN16@DeviceInit|
  00158		 |$LN17@DeviceInit|
  00158	00000000	 DCD         |__security_cookie|
  0015c		 |$M41701|

			 ENDP  ; |?DeviceInitialize@COhcd@@UAAHXZ|, COhcd::DeviceInitialize

	EXPORT	|?CreateHCDObject@@YAPAVCHcd@@PAXPAVCPhysMem@@PBGRAEK@Z| ; CreateHCDObject

  00000			 AREA	 |.pdata|, PDATA
|$T41724| DCD	|$LN8@CreateHCDO|
	DCD	0x40001d04
; Function compile flags: /Ogspy

  00000			 AREA	 |.text|, CODE, ARM

  00000		 |?CreateHCDObject@@YAPAVCHcd@@PAXPAVCPhysMem@@PBGRAEK@Z| PROC ; CreateHCDObject

; 221  : {

  00000		 |$LN8@CreateHCDO|
  00000	e1a0c00d	 mov         r12, sp
  00004	e92d000f	 stmdb       sp!, {r0 - r3}
  00008	e92d51f0	 stmdb       sp!, {r4 - r8, r12, lr}
  0000c	e24dd010	 sub         sp, sp, #0x10
  00010		 |$M41721|
  00010	e1a07002	 mov         r7, r2
  00014	e1a08001	 mov         r8, r1
  00018	e1b04000	 movs        r4, r0

; 222  :     SOhcdPdd *pPddObject = (SOhcdPdd *)pvOhcdPddObject;
; 223  : 
; 224  :     DEBUGCHK(pPddObject != NULL);
; 225  :     if (pPddObject == NULL)
; 226  :         return NULL;

  0001c	0a000010	 beq         |$LN4@CreateHCDO|

; 227  : 
; 228  :     PUCHAR cppiBase = pPddObject->ioCppiBase;
; 229  :     DWORD dwDescriptorCount = pPddObject->dwDescriptorCount;
; 230  : 
; 231  :     return new COhcd(pvOhcdPddObject,
; 232  :         pCPhysMem,
; 233  :         szDriverRegistryKey,
; 234  :         portBase,
; 235  :         cppiBase,
; 236  :         dwSysIntr,
; 237  :         dwDescriptorCount);

  00020	e5945214	 ldr         r5, [r4, #0x214]
  00024	e5946228	 ldr         r6, [r4, #0x228]
  00028	e3a00e5a	 mov         r0, #0x5A, 28
  0002c	eb000000	 bl          |??2@YAPAXI@Z|
  00030	e3500000	 cmp         r0, #0
  00034	0a00000a	 beq         |$LN4@CreateHCDO|
  00038	e59d203c	 ldr         r2, [sp, #0x3C]
  0003c	e59d1038	 ldr         r1, [sp, #0x38]
  00040	e1a03007	 mov         r3, r7
  00044	e58d2008	 str         r2, [sp, #8]
  00048	e58d1000	 str         r1, [sp]
  0004c	e1a02008	 mov         r2, r8
  00050	e1a01004	 mov         r1, r4
  00054	e58d600c	 str         r6, [sp, #0xC]
  00058	e58d5004	 str         r5, [sp, #4]
  0005c	eb000000	 bl          |??0COhcd@@QAA@PAXPAVCPhysMem@@PBGRAE3KK@Z|
  00060	ea000000	 b           |$LN5@CreateHCDO|
  00064		 |$LN4@CreateHCDO|
  00064	e3a00000	 mov         r0, #0
  00068		 |$LN5@CreateHCDO|

; 238  : }

  00068	e28dd010	 add         sp, sp, #0x10
  0006c	e89d61f0	 ldmia       sp, {r4 - r8, sp, lr}
  00070	e12fff1e	 bx          lr
  00074		 |$M41722|

			 ENDP  ; |?CreateHCDObject@@YAPAVCHcd@@PAXPAVCPhysMem@@PBGRAEK@Z|, CreateHCDObject

	IMPORT	|??3@YAXPAX@Z|				; operator delete

  00000			 AREA	 |.pdata|, PDATA
|$T41735| DCD	|$LN6@scalar|
	DCD	0x40000a01
; Function compile flags: /Ogspy

  00000			 AREA	 |.text|, CODE, ARM

  00000		 |??_GCOhcd@@UAAPAXI@Z| PROC		; COhcd::`scalar deleting destructor'
  00000		 |$LN6@scalar|
  00000	e92d4030	 stmdb       sp!, {r4, r5, lr}
  00004		 |$M41732|
  00004	e1a04001	 mov         r4, r1
  00008	e1a05000	 mov         r5, r0
  0000c	eb000000	 bl          |??1COhcd@@UAA@XZ|
  00010	e3140001	 tst         r4, #1
  00014	11a00005	 movne       r0, r5
  00018	1b000000	 blne        |??3@YAXPAX@Z|
  0001c	e1a00005	 mov         r0, r5
  00020	e8bd4030	 ldmia       sp!, {r4, r5, lr}
  00024	e12fff1e	 bx          lr
  00028		 |$M41733|

			 ENDP  ; |??_GCOhcd@@UAAPAXI@Z|, COhcd::`scalar deleting destructor'

	END
