; Listing generated by Microsoft (R) Optimizing Compiler Version 14.01.60511.01 

	TTL	C:\WINCE600\PLATFORM\COMMON\SRC\SOC\COMMON_TI_V1\COMMON_TI\SDHC\BASE\sdhc.cpp
	CODE32

  00000			 AREA	 |.drectve|, DRECTVE
	DCB	"-defaultlib:LIBCMT "
	DCB	"-defaultlib:OLDNAMES "

	EXPORT	|??_C@_1BG@PCNFFOOE@?$AAS?$AAl?$AAo?$AAt?$AAN?$AAu?$AAm?$AAb?$AAe?$AAr?$AA?$AA@| [ DATA ] ; `string'
	EXPORT	|??_C@_1BI@EJNOAJAN@?$AAS?$AAD?$AAC?$AAl?$AAo?$AAc?$AAk?$AAM?$AAo?$AAd?$AAe?$AA?$AA@| [ DATA ] ; `string'
	EXPORT	|??_C@_1CG@CNGMEHNJ@?$AAS?$AAD?$AAH?$AAi?$AAg?$AAh?$AAS?$AAp?$AAe?$AAe?$AAd?$AAS?$AAu?$AAp?$AAp?$AAo?$AAr?$AAt?$AA?$AA@| [ DATA ] ; `string'
	EXPORT	|??_C@_1BM@JHFMHONC@?$AAD?$AAM?$AAA?$AAB?$AAu?$AAf?$AAf?$AAe?$AAr?$AAS?$AAi?$AAz?$AAe?$AA?$AA@| [ DATA ] ; `string'
	EXPORT	|??_C@_1DA@KLIJNKLI@?$AAC?$AAa?$AAr?$AAd?$AAW?$AAr?$AAi?$AAt?$AAe?$AAP?$AAr?$AAo?$AAt?$AAe?$AAc?$AAt?$AAe?$AAd?$AAS?$AAt?$AAa?$AAt?$AAe?$AA?$AA@| [ DATA ] ; `string'
	EXPORT	|??_C@_1BG@HDJCPCIJ@?$AAC?$AAa?$AAr?$AAd?$AAW?$AAP?$AAG?$AAP?$AAI?$AAO?$AA?$AA@| [ DATA ] ; `string'
	EXPORT	|??_C@_1CE@MKPLCKIN@?$AAC?$AAa?$AAr?$AAd?$AAI?$AAn?$AAs?$AAe?$AAr?$AAt?$AAe?$AAd?$AAS?$AAt?$AAa?$AAt?$AAe?$AA?$AA@| [ DATA ] ; `string'
	EXPORT	|??_C@_1BO@LKNMDJEA@?$AAC?$AAa?$AAr?$AAd?$AAD?$AAe?$AAt?$AAe?$AAc?$AAt?$AAG?$AAP?$AAI?$AAO?$AA?$AA@| [ DATA ] ; `string'
	EXPORT	|??_C@_1BM@NNIPIGOJ@?$AAW?$AAa?$AAk?$AAe?$AAu?$AAp?$AAS?$AAo?$AAu?$AAr?$AAc?$AAe?$AAs?$AA?$AA@| [ DATA ] ; `string'
	EXPORT	|??_C@_1CC@LMBBBPNF@?$AAR?$AAe?$AAa?$AAd?$AAW?$AAr?$AAi?$AAt?$AAe?$AAT?$AAi?$AAm?$AAe?$AAo?$AAu?$AAt?$AA?$AA@| [ DATA ] ; `string'
	EXPORT	|??_C@_1CG@OOJEOPHC@?$AAB?$AAa?$AAs?$AAe?$AAC?$AAl?$AAo?$AAc?$AAk?$AAF?$AAr?$AAe?$AAq?$AAu?$AAe?$AAn?$AAc?$AAy?$AA?$AA@| [ DATA ] ; `string'
	EXPORT	|??_C@_1BG@NAMMPMDB@?$AAC?$AAD?$AAP?$AAr?$AAi?$AAo?$AAr?$AAi?$AAt?$AAy?$AA?$AA@| [ DATA ] ; `string'
	EXPORT	|??_C@_1BK@KBGNDCFC@?$AAS?$AAD?$AAI?$AAO?$AAP?$AAr?$AAi?$AAo?$AAr?$AAi?$AAt?$AAy?$AA?$AA@| [ DATA ] ; `string'
	EXPORT	|??_C@_1BG@BPLBIFEM@?$AAD?$AAT?$AAO?$AAT?$AAi?$AAm?$AAe?$AAo?$AAu?$AAt?$AA?$AA@| [ DATA ] ; `string'
	EXPORT	|??_C@_1BG@HKGILLAM@?$AAC?$AAT?$AAO?$AAT?$AAi?$AAm?$AAe?$AAo?$AAu?$AAt?$AA?$AA@| [ DATA ] ; `string'
	EXPORT	|??_C@_1CC@HBIKPBAC@?$AAS?$AAd?$AAM?$AAe?$AAm?$AA4?$AAB?$AAi?$AAt?$AAD?$AAi?$AAs?$AAa?$AAb?$AAl?$AAe?$AA?$AA@| [ DATA ] ; `string'
	EXPORT	|??_C@_1CA@JDJLDHKA@?$AAS?$AAd?$AAi?$AAo?$AA4?$AAB?$AAi?$AAt?$AAD?$AAi?$AAs?$AAa?$AAb?$AAl?$AAe?$AA?$AA@| [ DATA ] ; `string'
	EXPORT	|??_C@_1BO@KFEHNIN@?$AAL?$AAo?$AAw?$AAV?$AAo?$AAl?$AAt?$AAa?$AAg?$AAe?$AAS?$AAl?$AAo?$AAt?$AA?$AA@| [ DATA ] ; `string'
	EXPORT	|??_C@_1BM@MAOJDGGP@?$AAF?$AAa?$AAs?$AAt?$AAP?$AAa?$AAt?$AAh?$AA_?$AAS?$AAD?$AAI?$AAO?$AA?$AA@| [ DATA ] ; `string'
	EXPORT	|??_C@_1BO@GBHAIPGE@?$AAF?$AAa?$AAs?$AAt?$AAP?$AAa?$AAt?$AAh?$AA_?$AAS?$AAD?$AAM?$AAE?$AAM?$AA?$AA@| [ DATA ] ; `string'
	EXPORT	|??_C@_1CI@MJKCNHDK@?$AAS?$AAD?$AAI?$AAO?$AAA?$AAc?$AAt?$AAi?$AAv?$AAi?$AAt?$AAy?$AAT?$AAi?$AAm?$AAe?$AAo?$AAu?$AAt?$AA?$AA@| [ DATA ] ; `string'
	EXPORT	|??_C@_1CO@BIPPPOIB@?$AAN?$AAo?$AAn?$AAS?$AAD?$AAI?$AAO?$AAA?$AAc?$AAt?$AAi?$AAv?$AAi?$AAt?$AAy?$AAT?$AAi?$AAm?$AAe?$AAo?$AAu?$AAt?$AA?$AA@| [ DATA ] ; `string'
	EXPORT	|?m_cmdArrSize@CSDIOControllerBase@@2KB| [ DATA ] ; CSDIOControllerBase::m_cmdArrSize
	EXPORT	|?gwaCMD@@3PAUCMD@@A| [ DATA ]		; gwaCMD
	EXPORT	|?gwaCMD60_HS@@3UCMD@@A| [ DATA ]	; gwaCMD60_HS

  00000			 AREA	 |.data|, DATA
|?gwaCMD@@3PAUCMD@@A| DCB 0x1				; gwaCMD
	DCB	0x0
	DCB	0x0
	%	1
	DCD	0x0
	DCB	0x0
	DCB	0x0
	DCB	0x1
	%	1
	DCD	0x120000
	DCB	0x1
	DCB	0x0
	DCB	0x1
	%	1
	DCD	0x90000
	DCB	0x1
	DCB	0x0
	DCB	0x1
	%	1
	DCD	0x20000
	DCB	0x1
	DCB	0x0
	DCB	0x0
	%	1
	DCD	0x0
	DCB	0x2
	DCB	0x0
	DCB	0x0
	%	1
	DCD	0x20000
	DCB	0x0
	DCB	0x1
	DCB	0x0
	%	1
	DCD	0x30000
	DCB	0x1
	DCB	0x0
	DCB	0x0
	%	1
	DCD	0x20000
	DCB	0x1
	DCB	0x0
	DCB	0x0
	%	1
	DCD	0x20000
	DCB	0x1
	DCB	0x0
	DCB	0x0
	%	1
	DCD	0x10000
	DCB	0x1
	DCB	0x0
	DCB	0x0
	%	1
	DCD	0x10000
	DCB	0x0
	DCB	0x0
	DCB	0x1
	%	1
	DCD	0x220010
	DCB	0x1
	DCB	0x0
	DCB	0x0
	%	1
	DCD	0xc30000
	DCB	0x1
	DCB	0x1
	DCB	0x0
	%	1
	DCD	0x20000
	DCB	0x0
	DCB	0x0
	DCB	0x0
	%	1
	DCD	0x0
	DCB	0x1
	DCB	0x0
	DCB	0x0
	%	1
	DCD	0x0
	DCB	0x1
	DCB	0x0
	DCB	0x0
	%	1
	DCD	0x1a0000
	DCB	0x1
	DCB	0x1
	DCB	0x0
	%	1
	DCD	0x220032
	DCB	0x1
	DCB	0x1
	DCB	0x0
	%	1
	DCD	0x220032
	DCB	0x0
	DCB	0x1
	DCB	0x0
	%	1
	DCD	0x0
	DCB	0x0
	DCB	0x1
	DCB	0x1
	%	1
	DCD	0x230000
	DCB	0x0
	DCB	0x1
	DCB	0x0
	%	1
	DCD	0x0
	DCB	0x0
	DCB	0x1
	DCB	0x0
	%	1
	DCD	0x20010
	DCB	0x0
	DCB	0x1
	DCB	0x0
	%	1
	DCD	0x0
	DCB	0x1
	DCB	0x1
	DCB	0x0
	%	1
	DCD	0x220022
	DCB	0x1
	DCB	0x1
	DCB	0x0
	%	1
	DCD	0x220022
	DCB	0x0
	DCB	0x1
	DCB	0x0
	%	1
	DCD	0x20000
	DCB	0x1
	DCB	0x0
	DCB	0x0
	%	1
	DCD	0x20000
	DCB	0x1
	DCB	0x0
	DCB	0x0
	%	1
	DCD	0x30000
	DCB	0x1
	DCB	0x0
	DCB	0x0
	%	1
	DCD	0x30000
	DCB	0x1
	DCB	0x0
	DCB	0x0
	%	1
	DCD	0x20010
	DCB	0x0
	DCB	0x0
	DCB	0x0
	%	1
	DCD	0x0
	DCB	0x1
	DCB	0x0
	DCB	0x0
	%	1
	DCD	0x0
	DCB	0x1
	DCB	0x0
	DCB	0x0
	%	1
	DCD	0x0
	DCB	0x0
	DCB	0x0
	DCB	0x0
	%	1
	DCD	0x0
	DCB	0x1
	DCB	0x0
	DCB	0x0
	%	1
	DCD	0x20000
	DCB	0x1
	DCB	0x0
	DCB	0x0
	%	1
	DCD	0x20000
	DCB	0x0
	DCB	0x0
	DCB	0x0
	%	1
	DCD	0x0
	DCB	0x1
	DCB	0x1
	DCB	0x0
	%	1
	DCD	0x30000
	DCB	0x0
	DCB	0x1
	DCB	0x0
	%	1
	DCD	0x20000
	DCB	0x1
	DCB	0x1
	DCB	0x1
	%	1
	DCD	0x20000
	DCB	0x0
	DCB	0x1
	DCB	0x0
	%	1
	DCD	0x20000
	DCB	0x1
	DCB	0x1
	DCB	0x0
	%	1
	DCD	0x20000
	DCB	0x0
	DCB	0x1
	DCB	0x0
	%	1
	DCD	0x0
	DCB	0x0
	DCB	0x1
	DCB	0x0
	%	1
	DCD	0x0
	DCB	0x0
	DCB	0x1
	DCB	0x0
	%	1
	DCD	0x0
	DCB	0x0
	DCB	0x1
	DCB	0x0
	%	1
	DCD	0x0
	DCB	0x0
	DCB	0x1
	DCB	0x0
	%	1
	DCD	0x0
	DCB	0x0
	DCB	0x1
	DCB	0x0
	%	1
	DCD	0x0
	DCB	0x0
	DCB	0x1
	DCB	0x0
	%	1
	DCD	0x0
	DCB	0x0
	DCB	0x1
	DCB	0x0
	%	1
	DCD	0x0
	DCB	0x0
	DCB	0x1
	DCB	0x0
	%	1
	DCD	0x220000
	DCB	0x2
	DCB	0x0
	DCB	0x0
	%	1
	DCD	0x20000
	DCB	0x2
	DCB	0x0
	DCB	0x0
	%	1
	DCD	0x220000
	DCB	0x0
	DCB	0x0
	DCB	0x0
	%	1
	DCD	0x0
	DCB	0x1
	DCB	0x0
	DCB	0x0
	%	1
	DCD	0x20000
	DCB	0x1
	DCB	0x0
	DCB	0x0
	%	1
	DCD	0x0
	DCB	0x0
	DCB	0x0
	DCB	0x0
	%	1
	DCD	0x0
	DCB	0x0
	DCB	0x0
	DCB	0x0
	%	1
	DCD	0x0
	DCB	0x0
	DCB	0x0
	DCB	0x0
	%	1
	DCD	0x20000
	DCB	0x0
	DCB	0x0
	DCB	0x0
	%	1
	DCD	0x0
	DCB	0x0
	DCB	0x0
	DCB	0x0
	%	1
	DCD	0x0
	DCB	0x0
	DCB	0x0
	DCB	0x0
	%	1
	DCD	0x0
	DCB	0x0
	DCB	0x0
	DCB	0x0
	%	1
	DCD	0x0
|?gwaCMD60_HS@@3UCMD@@A| DCB 0x1			; gwaCMD60_HS
	DCB	0x0
	DCB	0x0
	%	1
	DCD	0x220032

  00000			 AREA	 |.rdata|, DATA, READONLY
|s_deviceRegParams| DCD |??_C@_1CO@BIPPPOIB@?$AAN?$AAo?$AAn?$AAS?$AAD?$AAI?$AAO?$AAA?$AAc?$AAt?$AAi?$AAv?$AAi?$AAt?$AAy?$AAT?$AAi?$AAm?$AAe?$AAo?$AAu?$AAt?$AA?$AA@|
	DCD	0x1
	DCD	0x0
	DCD	0x1b0
	DCD	0x4
	DCD	0x1
	DCD	|??_C@_1CI@MJKCNHDK@?$AAS?$AAD?$AAI?$AAO?$AAA?$AAc?$AAt?$AAi?$AAv?$AAi?$AAt?$AAy?$AAT?$AAi?$AAm?$AAe?$AAo?$AAu?$AAt?$AA?$AA@|
	DCD	0x1
	DCD	0x0
	DCD	0x1b4
	DCD	0x4
	DCD	0x7d0
	DCD	|??_C@_1BO@GBHAIPGE@?$AAF?$AAa?$AAs?$AAt?$AAP?$AAa?$AAt?$AAh?$AA_?$AAS?$AAD?$AAM?$AAE?$AAM?$AA?$AA@|
	DCD	0x1
	DCD	0x0
	DCD	0x184
	DCD	0x4
	DCD	0x0
	DCD	|??_C@_1BM@MAOJDGGP@?$AAF?$AAa?$AAs?$AAt?$AAP?$AAa?$AAt?$AAh?$AA_?$AAS?$AAD?$AAI?$AAO?$AA?$AA@|
	DCD	0x1
	DCD	0x0
	DCD	0x180
	DCD	0x4
	DCD	0x1
	DCD	|??_C@_1BO@KFEHNIN@?$AAL?$AAo?$AAw?$AAV?$AAo?$AAl?$AAt?$AAa?$AAg?$AAe?$AAS?$AAl?$AAo?$AAt?$AA?$AA@|
	DCD	0x1
	DCD	0x0
	DCD	0x18c
	DCD	0x4
	DCD	0x0
	DCD	|??_C@_1CA@JDJLDHKA@?$AAS?$AAd?$AAi?$AAo?$AA4?$AAB?$AAi?$AAt?$AAD?$AAi?$AAs?$AAa?$AAb?$AAl?$AAe?$AA?$AA@|
	DCD	0x1
	DCD	0x0
	DCD	0x190
	DCD	0x4
	DCD	0x0
	DCD	|??_C@_1CC@HBIKPBAC@?$AAS?$AAd?$AAM?$AAe?$AAm?$AA4?$AAB?$AAi?$AAt?$AAD?$AAi?$AAs?$AAa?$AAb?$AAl?$AAe?$AA?$AA@|
	DCD	0x1
	DCD	0x0
	DCD	0x194
	DCD	0x4
	DCD	0x0
	DCD	|??_C@_1BG@HKGILLAM@?$AAC?$AAT?$AAO?$AAT?$AAi?$AAm?$AAe?$AAo?$AAu?$AAt?$AA?$AA@|
	DCD	0x1
	DCD	0x0
	DCD	0x140
	DCD	0x4
	DCD	0x5
	DCD	|??_C@_1BG@BPLBIFEM@?$AAD?$AAT?$AAO?$AAT?$AAi?$AAm?$AAe?$AAo?$AAu?$AAt?$AA?$AA@|
	DCD	0x1
	DCD	0x0
	DCD	0x144
	DCD	0x4
	DCD	0x200
	DCD	|??_C@_1BK@KBGNDCFC@?$AAS?$AAD?$AAI?$AAO?$AAP?$AAr?$AAi?$AAo?$AAr?$AAi?$AAt?$AAy?$AA?$AA@|
	DCD	0x1
	DCD	0x0
	DCD	0x128
	DCD	0x4
	DCD	0x97
	DCD	|??_C@_1BG@NAMMPMDB@?$AAC?$AAD?$AAP?$AAr?$AAi?$AAo?$AAr?$AAi?$AAt?$AAy?$AA?$AA@|
	DCD	0x1
	DCD	0x0
	DCD	0x12c
	DCD	0x4
	DCD	0x98
	DCD	|??_C@_1CG@OOJEOPHC@?$AAB?$AAa?$AAs?$AAe?$AAC?$AAl?$AAo?$AAc?$AAk?$AAF?$AAr?$AAe?$AAq?$AAu?$AAe?$AAn?$AAc?$AAy?$AA?$AA@|
	DCD	0x1
	DCD	0x0
	DCD	0x148
	DCD	0x4
	DCD	0x2dc6c00
	DCD	|??_C@_1CC@LMBBBPNF@?$AAR?$AAe?$AAa?$AAd?$AAW?$AAr?$AAi?$AAt?$AAe?$AAT?$AAi?$AAm?$AAe?$AAo?$AAu?$AAt?$AA?$AA@|
	DCD	0x1
	DCD	0x0
	DCD	0x150
	DCD	0x4
	DCD	0x2710
	DCD	|??_C@_1BM@NNIPIGOJ@?$AAW?$AAa?$AAk?$AAe?$AAu?$AAp?$AAS?$AAo?$AAu?$AAr?$AAc?$AAe?$AAs?$AA?$AA@|
	DCD	0x1
	DCD	0x0
	DCD	0xe8
	DCD	0x4
	DCD	0x0
	DCD	|??_C@_1BO@LKNMDJEA@?$AAC?$AAa?$AAr?$AAd?$AAD?$AAe?$AAt?$AAe?$AAc?$AAt?$AAG?$AAP?$AAI?$AAO?$AA?$AA@|
	DCD	0x1
	DCD	0x0
	DCD	0x1e4
	DCD	0x4
	DCD	0xffffffff
	DCD	|??_C@_1CE@MKPLCKIN@?$AAC?$AAa?$AAr?$AAd?$AAI?$AAn?$AAs?$AAe?$AAr?$AAt?$AAe?$AAd?$AAS?$AAt?$AAa?$AAt?$AAe?$AA?$AA@|
	DCD	0x1
	DCD	0x0
	DCD	0x1dc
	DCD	0x4
	DCD	0x0
	DCD	|??_C@_1BG@HDJCPCIJ@?$AAC?$AAa?$AAr?$AAd?$AAW?$AAP?$AAG?$AAP?$AAI?$AAO?$AA?$AA@|
	DCD	0x1
	DCD	0x0
	DCD	0x1e8
	DCD	0x4
	DCD	0xffffffff
	DCD	|??_C@_1DA@KLIJNKLI@?$AAC?$AAa?$AAr?$AAd?$AAW?$AAr?$AAi?$AAt?$AAe?$AAP?$AAr?$AAo?$AAt?$AAe?$AAc?$AAt?$AAe?$AAd?$AAS?$AAt?$AAa?$AAt?$AAe?$AA?$AA@|
	DCD	0x1
	DCD	0x0
	DCD	0x1e0
	DCD	0x4
	DCD	0x0
	DCD	|??_C@_1BM@JHFMHONC@?$AAD?$AAM?$AAA?$AAB?$AAu?$AAf?$AAf?$AAe?$AAr?$AAS?$AAi?$AAz?$AAe?$AA?$AA@|
	DCD	0x1
	DCD	0x0
	DCD	0x1fc
	DCD	0x4
	DCD	0x20000
	DCD	|??_C@_1CG@CNGMEHNJ@?$AAS?$AAD?$AAH?$AAi?$AAg?$AAh?$AAS?$AAp?$AAe?$AAe?$AAd?$AAS?$AAu?$AAp?$AAp?$AAo?$AAr?$AAt?$AA?$AA@|
	DCD	0x1
	DCD	0x0
	DCD	0x198
	DCD	0x4
	DCD	0x0
	DCD	|??_C@_1BI@EJNOAJAN@?$AAS?$AAD?$AAC?$AAl?$AAo?$AAc?$AAk?$AAM?$AAo?$AAd?$AAe?$AA?$AA@|
	DCD	0x1
	DCD	0x0
	DCD	0x19c
	DCD	0x4
	DCD	0x0
	DCD	|??_C@_1BG@PCNFFOOE@?$AAS?$AAl?$AAo?$AAt?$AAN?$AAu?$AAm?$AAb?$AAe?$AAr?$AA?$AA@|
	DCD	0x1
	DCD	0x0
	DCD	0x170
	DCD	0x4
	DCD	0x1

  00000			 AREA	 |.rdata|, DATA, READONLY
|??_C@_1BG@PCNFFOOE@?$AAS?$AAl?$AAo?$AAt?$AAN?$AAu?$AAm?$AAb?$AAe?$AAr?$AA?$AA@| DCB "S"
	DCB	0x0, "l", 0x0, "o", 0x0, "t", 0x0, "N", 0x0, "u", 0x0, "m"
	DCB	0x0, "b", 0x0, "e", 0x0, "r", 0x0, 0x0, 0x0 ; `string'

  00000			 AREA	 |.rdata|, DATA, READONLY
|??_C@_1BI@EJNOAJAN@?$AAS?$AAD?$AAC?$AAl?$AAo?$AAc?$AAk?$AAM?$AAo?$AAd?$AAe?$AA?$AA@| DCB "S"
	DCB	0x0, "D", 0x0, "C", 0x0, "l", 0x0, "o", 0x0, "c", 0x0, "k"
	DCB	0x0, "M", 0x0, "o", 0x0, "d", 0x0, "e", 0x0, 0x0, 0x0 ; `string'

  00000			 AREA	 |.rdata|, DATA, READONLY
|??_C@_1CG@CNGMEHNJ@?$AAS?$AAD?$AAH?$AAi?$AAg?$AAh?$AAS?$AAp?$AAe?$AAe?$AAd?$AAS?$AAu?$AAp?$AAp?$AAo?$AAr?$AAt?$AA?$AA@| DCB "S"
	DCB	0x0, "D", 0x0, "H", 0x0, "i", 0x0, "g", 0x0, "h", 0x0, "S"
	DCB	0x0, "p", 0x0, "e", 0x0, "e", 0x0, "d", 0x0, "S", 0x0, "u"
	DCB	0x0, "p", 0x0, "p", 0x0, "o", 0x0, "r", 0x0, "t", 0x0, 0x0
	DCB	0x0					; `string'

  00000			 AREA	 |.rdata|, DATA, READONLY
|??_C@_1BM@JHFMHONC@?$AAD?$AAM?$AAA?$AAB?$AAu?$AAf?$AAf?$AAe?$AAr?$AAS?$AAi?$AAz?$AAe?$AA?$AA@| DCB "D"
	DCB	0x0, "M", 0x0, "A", 0x0, "B", 0x0, "u", 0x0, "f", 0x0, "f"
	DCB	0x0, "e", 0x0, "r", 0x0, "S", 0x0, "i", 0x0, "z", 0x0, "e"
	DCB	0x0, 0x0, 0x0				; `string'

  00000			 AREA	 |.rdata|, DATA, READONLY
|??_C@_1DA@KLIJNKLI@?$AAC?$AAa?$AAr?$AAd?$AAW?$AAr?$AAi?$AAt?$AAe?$AAP?$AAr?$AAo?$AAt?$AAe?$AAc?$AAt?$AAe?$AAd?$AAS?$AAt?$AAa?$AAt?$AAe?$AA?$AA@| DCB "C"
	DCB	0x0, "a", 0x0, "r", 0x0, "d", 0x0, "W", 0x0, "r", 0x0, "i"
	DCB	0x0, "t", 0x0, "e", 0x0, "P", 0x0, "r", 0x0, "o", 0x0, "t"
	DCB	0x0, "e", 0x0, "c", 0x0, "t", 0x0, "e", 0x0, "d", 0x0, "S"
	DCB	0x0, "t", 0x0, "a", 0x0, "t", 0x0, "e", 0x0, 0x0, 0x0 ; `string'

  00000			 AREA	 |.rdata|, DATA, READONLY
|??_C@_1BG@HDJCPCIJ@?$AAC?$AAa?$AAr?$AAd?$AAW?$AAP?$AAG?$AAP?$AAI?$AAO?$AA?$AA@| DCB "C"
	DCB	0x0, "a", 0x0, "r", 0x0, "d", 0x0, "W", 0x0, "P", 0x0, "G"
	DCB	0x0, "P", 0x0, "I", 0x0, "O", 0x0, 0x0, 0x0 ; `string'

  00000			 AREA	 |.rdata|, DATA, READONLY
|??_C@_1CE@MKPLCKIN@?$AAC?$AAa?$AAr?$AAd?$AAI?$AAn?$AAs?$AAe?$AAr?$AAt?$AAe?$AAd?$AAS?$AAt?$AAa?$AAt?$AAe?$AA?$AA@| DCB "C"
	DCB	0x0, "a", 0x0, "r", 0x0, "d", 0x0, "I", 0x0, "n", 0x0, "s"
	DCB	0x0, "e", 0x0, "r", 0x0, "t", 0x0, "e", 0x0, "d", 0x0, "S"
	DCB	0x0, "t", 0x0, "a", 0x0, "t", 0x0, "e", 0x0, 0x0, 0x0 ; `string'

  00000			 AREA	 |.rdata|, DATA, READONLY
|??_C@_1BO@LKNMDJEA@?$AAC?$AAa?$AAr?$AAd?$AAD?$AAe?$AAt?$AAe?$AAc?$AAt?$AAG?$AAP?$AAI?$AAO?$AA?$AA@| DCB "C"
	DCB	0x0, "a", 0x0, "r", 0x0, "d", 0x0, "D", 0x0, "e", 0x0, "t"
	DCB	0x0, "e", 0x0, "c", 0x0, "t", 0x0, "G", 0x0, "P", 0x0, "I"
	DCB	0x0, "O", 0x0, 0x0, 0x0			; `string'

  00000			 AREA	 |.rdata|, DATA, READONLY
|??_C@_1BM@NNIPIGOJ@?$AAW?$AAa?$AAk?$AAe?$AAu?$AAp?$AAS?$AAo?$AAu?$AAr?$AAc?$AAe?$AAs?$AA?$AA@| DCB "W"
	DCB	0x0, "a", 0x0, "k", 0x0, "e", 0x0, "u", 0x0, "p", 0x0, "S"
	DCB	0x0, "o", 0x0, "u", 0x0, "r", 0x0, "c", 0x0, "e", 0x0, "s"
	DCB	0x0, 0x0, 0x0				; `string'

  00000			 AREA	 |.rdata|, DATA, READONLY
|??_C@_1CC@LMBBBPNF@?$AAR?$AAe?$AAa?$AAd?$AAW?$AAr?$AAi?$AAt?$AAe?$AAT?$AAi?$AAm?$AAe?$AAo?$AAu?$AAt?$AA?$AA@| DCB "R"
	DCB	0x0, "e", 0x0, "a", 0x0, "d", 0x0, "W", 0x0, "r", 0x0, "i"
	DCB	0x0, "t", 0x0, "e", 0x0, "T", 0x0, "i", 0x0, "m", 0x0, "e"
	DCB	0x0, "o", 0x0, "u", 0x0, "t", 0x0, 0x0, 0x0 ; `string'

  00000			 AREA	 |.rdata|, DATA, READONLY
|??_C@_1CG@OOJEOPHC@?$AAB?$AAa?$AAs?$AAe?$AAC?$AAl?$AAo?$AAc?$AAk?$AAF?$AAr?$AAe?$AAq?$AAu?$AAe?$AAn?$AAc?$AAy?$AA?$AA@| DCB "B"
	DCB	0x0, "a", 0x0, "s", 0x0, "e", 0x0, "C", 0x0, "l", 0x0, "o"
	DCB	0x0, "c", 0x0, "k", 0x0, "F", 0x0, "r", 0x0, "e", 0x0, "q"
	DCB	0x0, "u", 0x0, "e", 0x0, "n", 0x0, "c", 0x0, "y", 0x0, 0x0
	DCB	0x0					; `string'

  00000			 AREA	 |.rdata|, DATA, READONLY
|??_C@_1BG@NAMMPMDB@?$AAC?$AAD?$AAP?$AAr?$AAi?$AAo?$AAr?$AAi?$AAt?$AAy?$AA?$AA@| DCB "C"
	DCB	0x0, "D", 0x0, "P", 0x0, "r", 0x0, "i", 0x0, "o", 0x0, "r"
	DCB	0x0, "i", 0x0, "t", 0x0, "y", 0x0, 0x0, 0x0 ; `string'

  00000			 AREA	 |.rdata|, DATA, READONLY
|??_C@_1BK@KBGNDCFC@?$AAS?$AAD?$AAI?$AAO?$AAP?$AAr?$AAi?$AAo?$AAr?$AAi?$AAt?$AAy?$AA?$AA@| DCB "S"
	DCB	0x0, "D", 0x0, "I", 0x0, "O", 0x0, "P", 0x0, "r", 0x0, "i"
	DCB	0x0, "o", 0x0, "r", 0x0, "i", 0x0, "t", 0x0, "y", 0x0, 0x0
	DCB	0x0					; `string'

  00000			 AREA	 |.rdata|, DATA, READONLY
|??_C@_1BG@BPLBIFEM@?$AAD?$AAT?$AAO?$AAT?$AAi?$AAm?$AAe?$AAo?$AAu?$AAt?$AA?$AA@| DCB "D"
	DCB	0x0, "T", 0x0, "O", 0x0, "T", 0x0, "i", 0x0, "m", 0x0, "e"
	DCB	0x0, "o", 0x0, "u", 0x0, "t", 0x0, 0x0, 0x0 ; `string'

  00000			 AREA	 |.rdata|, DATA, READONLY
|??_C@_1BG@HKGILLAM@?$AAC?$AAT?$AAO?$AAT?$AAi?$AAm?$AAe?$AAo?$AAu?$AAt?$AA?$AA@| DCB "C"
	DCB	0x0, "T", 0x0, "O", 0x0, "T", 0x0, "i", 0x0, "m", 0x0, "e"
	DCB	0x0, "o", 0x0, "u", 0x0, "t", 0x0, 0x0, 0x0 ; `string'

  00000			 AREA	 |.rdata|, DATA, READONLY
|??_C@_1CC@HBIKPBAC@?$AAS?$AAd?$AAM?$AAe?$AAm?$AA4?$AAB?$AAi?$AAt?$AAD?$AAi?$AAs?$AAa?$AAb?$AAl?$AAe?$AA?$AA@| DCB "S"
	DCB	0x0, "d", 0x0, "M", 0x0, "e", 0x0, "m", 0x0, "4", 0x0, "B"
	DCB	0x0, "i", 0x0, "t", 0x0, "D", 0x0, "i", 0x0, "s", 0x0, "a"
	DCB	0x0, "b", 0x0, "l", 0x0, "e", 0x0, 0x0, 0x0 ; `string'

  00000			 AREA	 |.rdata|, DATA, READONLY
|??_C@_1CA@JDJLDHKA@?$AAS?$AAd?$AAi?$AAo?$AA4?$AAB?$AAi?$AAt?$AAD?$AAi?$AAs?$AAa?$AAb?$AAl?$AAe?$AA?$AA@| DCB "S"
	DCB	0x0, "d", 0x0, "i", 0x0, "o", 0x0, "4", 0x0, "B", 0x0, "i"
	DCB	0x0, "t", 0x0, "D", 0x0, "i", 0x0, "s", 0x0, "a", 0x0, "b"
	DCB	0x0, "l", 0x0, "e", 0x0, 0x0, 0x0	; `string'

  00000			 AREA	 |.rdata|, DATA, READONLY
|??_C@_1BO@KFEHNIN@?$AAL?$AAo?$AAw?$AAV?$AAo?$AAl?$AAt?$AAa?$AAg?$AAe?$AAS?$AAl?$AAo?$AAt?$AA?$AA@| DCB "L"
	DCB	0x0, "o", 0x0, "w", 0x0, "V", 0x0, "o", 0x0, "l", 0x0, "t"
	DCB	0x0, "a", 0x0, "g", 0x0, "e", 0x0, "S", 0x0, "l", 0x0, "o"
	DCB	0x0, "t", 0x0, 0x0, 0x0			; `string'

  00000			 AREA	 |.rdata|, DATA, READONLY
|??_C@_1BM@MAOJDGGP@?$AAF?$AAa?$AAs?$AAt?$AAP?$AAa?$AAt?$AAh?$AA_?$AAS?$AAD?$AAI?$AAO?$AA?$AA@| DCB "F"
	DCB	0x0, "a", 0x0, "s", 0x0, "t", 0x0, "P", 0x0, "a", 0x0, "t"
	DCB	0x0, "h", 0x0, "_", 0x0, "S", 0x0, "D", 0x0, "I", 0x0, "O"
	DCB	0x0, 0x0, 0x0				; `string'

  00000			 AREA	 |.rdata|, DATA, READONLY
|??_C@_1BO@GBHAIPGE@?$AAF?$AAa?$AAs?$AAt?$AAP?$AAa?$AAt?$AAh?$AA_?$AAS?$AAD?$AAM?$AAE?$AAM?$AA?$AA@| DCB "F"
	DCB	0x0, "a", 0x0, "s", 0x0, "t", 0x0, "P", 0x0, "a", 0x0, "t"
	DCB	0x0, "h", 0x0, "_", 0x0, "S", 0x0, "D", 0x0, "M", 0x0, "E"
	DCB	0x0, "M", 0x0, 0x0, 0x0			; `string'

  00000			 AREA	 |.rdata|, DATA, READONLY
|??_C@_1CI@MJKCNHDK@?$AAS?$AAD?$AAI?$AAO?$AAA?$AAc?$AAt?$AAi?$AAv?$AAi?$AAt?$AAy?$AAT?$AAi?$AAm?$AAe?$AAo?$AAu?$AAt?$AA?$AA@| DCB "S"
	DCB	0x0, "D", 0x0, "I", 0x0, "O", 0x0, "A", 0x0, "c", 0x0, "t"
	DCB	0x0, "i", 0x0, "v", 0x0, "i", 0x0, "t", 0x0, "y", 0x0, "T"
	DCB	0x0, "i", 0x0, "m", 0x0, "e", 0x0, "o", 0x0, "u", 0x0, "t"
	DCB	0x0, 0x0, 0x0				; `string'

  00000			 AREA	 |.rdata|, DATA, READONLY
|??_C@_1CO@BIPPPOIB@?$AAN?$AAo?$AAn?$AAS?$AAD?$AAI?$AAO?$AAA?$AAc?$AAt?$AAi?$AAv?$AAi?$AAt?$AAy?$AAT?$AAi?$AAm?$AAe?$AAo?$AAu?$AAt?$AA?$AA@| DCB "N"
	DCB	0x0, "o", 0x0, "n", 0x0, "S", 0x0, "D", 0x0, "I", 0x0, "O"
	DCB	0x0, "A", 0x0, "c", 0x0, "t", 0x0, "i", 0x0, "v", 0x0, "i"
	DCB	0x0, "t", 0x0, "y", 0x0, "T", 0x0, "i", 0x0, "m", 0x0, "e"
	DCB	0x0, "o", 0x0, "u", 0x0, "t", 0x0, 0x0, 0x0 ; `string'

  00000			 AREA	 |.rdata|, DATA, READONLY
|?m_cmdArrSize@CSDIOControllerBase@@2KB| DCD 0x20	; CSDIOControllerBase::m_cmdArrSize
	EXPORT	|CeSetMemoryAttributes|
	IMPORT	|KernelLibIoControl|
; File c:\wince600\public\common\oak\inc\pkfuncs.h

  00000			 AREA	 |.pdata|, PDATA
|$T44713| DCD	|$LN5@CeSetMemor|
	DCD	0x40001002
; Function compile flags: /Ogspy

  00000			 AREA	 |.text|, CODE, ARM

  00000		 |CeSetMemoryAttributes| PROC

; 1422 : {

  00000		 |$LN5@CeSetMemor|
  00000	e92d4010	 stmdb       sp!, {r4, lr}
  00004	e24dd00c	 sub         sp, sp, #0xC
  00008		 |$M44710|
  00008	e1a04003	 mov         r4, r3
  0000c	e1a03002	 mov         r3, r2
  00010	e1a02000	 mov         r2, r0
  00014	e1a0e001	 mov         lr, r1

; 1423 :     return KernelLibIoControl ((HANDLE) KMOD_CORE, IOCTL_KLIB_SETMEMORYATTR,
; 1424 :         pVirtualAddr, cbSize, pShiftedPhysAddr, dwAttributes, NULL);

  00018	e3a01000	 mov         r1, #0
  0001c	e58d1008	 str         r1, [sp, #8]
  00020	e3a0100c	 mov         r1, #0xC
  00024	e3a00001	 mov         r0, #1
  00028	e58d4004	 str         r4, [sp, #4]
  0002c	e58de000	 str         lr, [sp]
  00030	eb000000	 bl          KernelLibIoControl

; 1425 : }

  00034	e28dd00c	 add         sp, sp, #0xC
  00038	e8bd4010	 ldmia       sp!, {r4, lr}
  0003c	e12fff1e	 bx          lr
  00040		 |$M44711|

			 ENDP  ; |CeSetMemoryAttributes|

	EXPORT	|ResetEvent|
	IMPORT	|EventModify|
; File c:\wince600\public\common\sdk\inc\kfuncs.h

  00000			 AREA	 |.pdata|, PDATA
|$T44723| DCD	|$LN5@ResetEvent|
	DCD	0x40000501
; Function compile flags: /Ogspy

  00000			 AREA	 |.text|, CODE, ARM

  00000		 |ResetEvent| PROC

; 223  : _inline BOOL ResetEvent(HANDLE h) {

  00000		 |$LN5@ResetEvent|
  00000	e52de004	 str         lr, [sp, #-4]!
  00004		 |$M44720|

; 224  : 	return EventModify(h,EVENT_RESET);

  00004	e3a01002	 mov         r1, #2
  00008	eb000000	 bl          EventModify

; 225  : }

  0000c	e49de004	 ldr         lr, [sp], #4
  00010	e12fff1e	 bx          lr
  00014		 |$M44721|

			 ENDP  ; |ResetEvent|

	EXPORT	|SetEvent|

  00000			 AREA	 |.pdata|, PDATA
|$T44733| DCD	|$LN5@SetEvent|
	DCD	0x40000501
; Function compile flags: /Ogspy

  00000			 AREA	 |.text|, CODE, ARM

  00000		 |SetEvent| PROC

; 235  : _inline BOOL SetEvent(HANDLE h) {

  00000		 |$LN5@SetEvent|
  00000	e52de004	 str         lr, [sp, #-4]!
  00004		 |$M44730|

; 236  : 	return EventModify(h,EVENT_SET);

  00004	e3a01003	 mov         r1, #3
  00008	eb000000	 bl          EventModify

; 237  : }

  0000c	e49de004	 ldr         lr, [sp], #4
  00010	e12fff1e	 bx          lr
  00014		 |$M44731|

			 ENDP  ; |SetEvent|

	EXPORT	|GetCurrentThread|

  00000			 AREA	 |.pdata|, PDATA
|$T44742| DCD	|$LN5@GetCurrent|
	DCD	0x40000200
; Function compile flags: /Ogspy

  00000			 AREA	 |.text|, CODE, ARM

  00000		 |GetCurrentThread| PROC

; 351  : _inline HANDLE GetCurrentThread(void) {

  00000		 |$LN5@GetCurrent|
  00000		 |$M44739|

; 352  : 	return ((HANDLE)(SH_CURTHREAD+SYS_HANDLE_BASE));

  00000	e3a00041	 mov         r0, #0x41

; 353  : }

  00004	e12fff1e	 bx          lr
  00008		 |$M44740|

			 ENDP  ; |GetCurrentThread|

	EXPORT	|?ZeroEntries@CReg@@AAAXXZ|		; CReg::ZeroEntries
; File c:\wince600\public\common\sdk\inc\creg.hxx

  00000			 AREA	 |.pdata|, PDATA
|$T44750| DCD	|$LN5@ZeroEntrie|
	DCD	0x40000600
; Function compile flags: /Ogspy

  00000			 AREA	 |.text|, CODE, ARM

  00000		 |?ZeroEntries@CReg@@AAAXXZ| PROC	; CReg::ZeroEntries

; 35   : 	void ZeroEntries() {

  00000		 |$LN5@ZeroEntrie|
  00000		 |$M44747|

; 36   : 		m_hKey      = NULL;

  00000	e3a03000	 mov         r3, #0
  00004	e5803000	 str         r3, [r0]

; 37   : 		m_Index     = 0;

  00008	e5803004	 str         r3, [r0, #4]

; 38   : 		m_lpbValue  = NULL;

  0000c	e5803008	 str         r3, [r0, #8]

; 39   : 		m_iValueLen = 0;

  00010	e580300c	 str         r3, [r0, #0xC]

; 40   : 	}

  00014	e12fff1e	 bx          lr
  00018		 |$M44748|

			 ENDP  ; |?ZeroEntries@CReg@@AAAXXZ|, CReg::ZeroEntries

	EXPORT	|??0CReg@@QAA@XZ|			; CReg::CReg

  00000			 AREA	 |.pdata|, PDATA
|$T44763| DCD	|$LN7@CReg|
	DCD	0x40000600
; Function compile flags: /Ogspy

  00000			 AREA	 |.text|, CODE, ARM

  00000		 |??0CReg@@QAA@XZ| PROC			; CReg::CReg

; 63   : 	CReg() {

  00000		 |$LN7@CReg|
  00000		 |$M44760|

; 64   : 		ZeroEntries();

  00000	e3a03000	 mov         r3, #0
  00004	e5803000	 str         r3, [r0]
  00008	e5803004	 str         r3, [r0, #4]
  0000c	e5803008	 str         r3, [r0, #8]
  00010	e580300c	 str         r3, [r0, #0xC]

; 65   : 	}

  00014	e12fff1e	 bx          lr
  00018		 |$M44761|

			 ENDP  ; |??0CReg@@QAA@XZ|, CReg::CReg

	EXPORT	|??1CReg@@QAA@XZ|			; CReg::~CReg
	IMPORT	|LocalFree|
	IMPORT	|RegCloseKey|

  00000			 AREA	 |.pdata|, PDATA
|$T44771| DCD	|$LN7@CReg@2|
	DCD	0x40000c01
; Function compile flags: /Ogspy

  00000			 AREA	 |.text|, CODE, ARM

  00000		 |??1CReg@@QAA@XZ| PROC			; CReg::~CReg

; 67   : 	~CReg() { 

  00000		 |$LN7@CReg@2|
  00000	e92d4010	 stmdb       sp!, {r4, lr}
  00004		 |$M44768|
  00004	e1a04000	 mov         r4, r0

; 68   : 		if(m_hKey) RegCloseKey(m_hKey); 

  00008	e5943000	 ldr         r3, [r4]
  0000c	e3530000	 cmp         r3, #0
  00010	11a00003	 movne       r0, r3
  00014	1b000000	 blne        RegCloseKey

; 69   : 		if (m_lpbValue) {

  00018	e5943008	 ldr         r3, [r4, #8]
  0001c	e3530000	 cmp         r3, #0

; 70   : 			ASSERT(m_iValueLen != 0);
; 71   : 			LocalFree(m_lpbValue);

  00020	11a00003	 movne       r0, r3
  00024	1b000000	 blne        LocalFree

; 72   : 		}
; 73   : 	}

  00028	e8bd4010	 ldmia       sp!, {r4, lr}
  0002c	e12fff1e	 bx          lr
  00030		 |$M44769|

			 ENDP  ; |??1CReg@@QAA@XZ|, CReg::~CReg

	EXPORT	|??0CSDIOControllerBase@@QAA@XZ|	; CSDIOControllerBase::CSDIOControllerBase
	EXPORT	|??_7CSDIOControllerBase@@6B@| [ DATA ]	; CSDIOControllerBase::`vftable'
	EXPORT	|?InterpretCapabilities@CSDIOControllerBase@@UAAHXZ| ; CSDIOControllerBase::InterpretCapabilities
	IMPORT	|InitializeCriticalSection|
	IMPORT	|_purecall|
; File c:\wince600\platform\common\src\soc\common_ti_v1\common_ti\sdhc\base\sdhc.cpp

  00000			 AREA	 |.pdata|, PDATA
|$T44781| DCD	|$LN5@CSDIOContr|
	DCD	0x40004101

  00000			 AREA	 |.rdata|, DATA, READONLY
|??_7CSDIOControllerBase@@6B@| DCD |_purecall|		; CSDIOControllerBase::`vftable'
	DCD	|_purecall|
	DCD	|_purecall|
	DCD	|_purecall|
	DCD	|_purecall|
	DCD	|_purecall|
	DCD	|_purecall|
	DCD	|_purecall|
	DCD	|_purecall|
	DCD	|?InterpretCapabilities@CSDIOControllerBase@@UAAHXZ|
; Function compile flags: /Ogspy

  00000			 AREA	 |.text|, CODE, ARM

  00000		 |??0CSDIOControllerBase@@QAA@XZ| PROC	; CSDIOControllerBase::CSDIOControllerBase

; 267  : {

  00000		 |$LN5@CSDIOContr|
  00000	e92d4010	 stmdb       sp!, {r4, lr}
  00004		 |$M44778|
  00004	e1a04000	 mov         r4, r0
  00008	e59f30f0	 ldr         r3, [pc, #0xF0]

; 268  :     InitializeCriticalSection( &m_critSec );

  0000c	e48030b0	 str         r3, [r0], #0xB0
  00010	eb000000	 bl          InitializeCriticalSection

; 269  :     InitializeCriticalSection( &m_powerCS );

  00014	e28400c4	 add         r0, r4, #0xC4
  00018	eb000000	 bl          InitializeCriticalSection
  0001c	e3a03c27	 mov         r3, #0x27, 24

; 270  :     m_fSDIOInterruptInService = FALSE;
; 271  :     m_fFirstTime = TRUE;
; 272  :     m_hControllerISTEvent = NULL;
; 273  :     m_htControllerIST = NULL;
; 274  :     m_dwControllerSysIntr = SYSINTR_UNDEFINED;
; 275  :     m_hCardDetectEvent = NULL;
; 276  :     m_htCardDetectIST = NULL;
; 277  :     m_fAppCmdMode = FALSE;
; 278  : 
; 279  :     m_pbRegisters = NULL;
; 280  :     m_fCardPresent = FALSE;
; 281  :     m_fSDIOInterruptsEnabled = FALSE;
; 282  :     m_pDmaBuffer = NULL;
; 283  :     m_pCachedDmaBuffer = NULL;
; 284  :     m_pDmaBufferPhys.QuadPart = 0;
; 285  : 
; 286  :     m_dwMaxTimeout = DEFAULT_TIMEOUT_VALUE;

  00020	e3833010	 orr         r3, r3, #0x10
  00024	e3a02a61	 mov         r2, #0x61, 20

; 287  :     m_bReinsertTheCard = FALSE;
; 288  :     m_dwWakeupSources = 0;
; 289  :     m_dwCurrentWakeupSources = 0;
; 290  :     m_fMMCMode = FALSE;
; 291  : 
; 292  :     m_InternPowerState = D4;
; 293  :     m_ActualPowerState = D4;
; 294  :     m_hParentBus = NULL;
; 295  :     m_hGPIO = NULL;
; 296  : 
; 297  :     m_dwSlot = MMCSLOT_1;
; 298  : 	m_dwDeviceID = OMAP_DEVICE_NONE;
; 299  :     m_dwSDIOCard = 0;
; 300  :     m_fDriverShutdown = FALSE;
; 301  : 
; 302  :     bRxDmaActive = FALSE;
; 303  :     bTxDmaActive = FALSE;
; 304  :     m_dwClockCnt = 0;
; 305  :     m_fCardInitialized = FALSE;
; 306  :     m_bExitThread = FALSE;
; 307  : 	m_hTimerThreadIST = NULL;
; 308  : 	m_hTimerEvent = NULL;
; 309  :     //m_TransferClass = NULL;
; 310  : 
; 311  :     m_pCurrentRecieveBuffer = NULL;
; 312  :     m_dwCurrentRecieveBufferLength = 0;
; 313  :     m_CardDetectInterruptStatus = 0;
; 314  :     m_bCommandPending = FALSE;
; 315  : 
; 316  :     m_sContext.dwClockRate = MMCSD_CLOCK_INIT;

  00028	e5843150	 str         r3, [r4, #0x150]
  0002c	e3e00000	 mvn         r0, #0
  00030	e3a0e000	 mov         lr, #0
  00034	e3a03004	 mov         r3, #4
  00038	e3822d2a	 orr         r2, r2, #0x2A, 26
  0003c	e3a01001	 mov         r1, #1
  00040	e5840134	 str         r0, [r4, #0x134]
  00044	e5840174	 str         r0, [r4, #0x174]
  00048	e58430dc	 str         r3, [r4, #0xDC]
  0004c	e58430e0	 str         r3, [r4, #0xE0]
  00050	e5842200	 str         r2, [r4, #0x200]
  00054	e584e0d8	 str         lr, [r4, #0xD8]
  00058	e5841154	 str         r1, [r4, #0x154]
  0005c	e584e118	 str         lr, [r4, #0x118]
  00060	e584e11c	 str         lr, [r4, #0x11C]
  00064	e584e120	 str         lr, [r4, #0x120]
  00068	e584e124	 str         lr, [r4, #0x124]
  0006c	e584e114	 str         lr, [r4, #0x114]
  00070	e584e15c	 str         lr, [r4, #0x15C]
  00074	e584e0f0	 str         lr, [r4, #0xF0]
  00078	e584e0f4	 str         lr, [r4, #0xF4]
  0007c	e584e0fc	 str         lr, [r4, #0xFC]
  00080	e584e100	 str         lr, [r4, #0x100]
  00084	e584e108	 str         lr, [r4, #0x108]
  00088	e584e10c	 str         lr, [r4, #0x10C]
  0008c	e584e0e4	 str         lr, [r4, #0xE4]
  00090	e584e0e8	 str         lr, [r4, #0xE8]
  00094	e584e0ec	 str         lr, [r4, #0xEC]
  00098	e584e0f8	 str         lr, [r4, #0xF8]
  0009c	e584e0ac	 str         lr, [r4, #0xAC]
  000a0	e584e164	 str         lr, [r4, #0x164]
  000a4	e5841170	 str         r1, [r4, #0x170]
  000a8	e584e178	 str         lr, [r4, #0x178]
  000ac	e584e130	 str         lr, [r4, #0x130]
  000b0	e584e1d0	 str         lr, [r4, #0x1D0]
  000b4	e584e1d4	 str         lr, [r4, #0x1D4]
  000b8	e584e1a0	 str         lr, [r4, #0x1A0]
  000bc	e584e13c	 str         lr, [r4, #0x13C]
  000c0	e584e1a4	 str         lr, [r4, #0x1A4]
  000c4	e584e1ac	 str         lr, [r4, #0x1AC]
  000c8	e584e1a8	 str         lr, [r4, #0x1A8]
  000cc	e584e1ec	 str         lr, [r4, #0x1EC]
  000d0	e584e1f0	 str         lr, [r4, #0x1F0]
  000d4	e584e1f4	 str         lr, [r4, #0x1F4]
  000d8	e584e1f8	 str         lr, [r4, #0x1F8]

; 317  :     m_sContext.eSDHCIntr = SDHC_INTR_DISABLED;

  000dc	e584e204	 str         lr, [r4, #0x204]

; 318  :     m_sContext.eInterfaceMode = SD_INTERFACE_SD_MMC_1BIT;

  000e0	e584e208	 str         lr, [r4, #0x208]

; 319  : 
; 320  : #ifdef SDIO_DMA_ENABLED
; 321  : 	m_TxDmaInfo = NULL;

  000e4	e584e098	 str         lr, [r4, #0x98]

; 322  :     m_RxDmaInfo = NULL;

  000e8	e584e0a0	 str         lr, [r4, #0xA0]

; 323  :     m_hTxDmaChannel = NULL;

  000ec	e584e09c	 str         lr, [r4, #0x9C]

; 324  :     m_hRxDmaChannel = NULL;

  000f0	e584e0a4	 str         lr, [r4, #0xA4]

; 325  : #endif
; 326  : }

  000f4	e1a00004	 mov         r0, r4
  000f8	e8bd4010	 ldmia       sp!, {r4, lr}
  000fc	e12fff1e	 bx          lr
  00100		 |$LN6@CSDIOContr|
  00100		 |$LN7@CSDIOContr|
  00100	00000000	 DCD         |??_7CSDIOControllerBase@@6B@|
  00104		 |$M44779|

			 ENDP  ; |??0CSDIOControllerBase@@QAA@XZ|, CSDIOControllerBase::CSDIOControllerBase

	EXPORT	|?Read_MMC_STAT@CSDIOControllerBase@@QAAKXZ| ; CSDIOControllerBase::Read_MMC_STAT
	IMPORT	|LeaveCriticalSection|
	IMPORT	|EnterCriticalSection|

  00000			 AREA	 |.pdata|, PDATA
|$T44794| DCD	|$LN5@Read_MMC_S|
	DCD	0x40000b01
; Function compile flags: /Ogspy

  00000			 AREA	 |.text|, CODE, ARM

  00000		 |?Read_MMC_STAT@CSDIOControllerBase@@QAAKXZ| PROC ; CSDIOControllerBase::Read_MMC_STAT

; 330  : {

  00000		 |$LN5@Read_MMC_S|
  00000	e92d4010	 stmdb       sp!, {r4, lr}
  00004		 |$M44791|
  00004	e1a04000	 mov         r4, r0

; 331  :     DWORD dwVal;
; 332  :     EnterCriticalSection( &m_critSec );

  00008	e28400b0	 add         r0, r4, #0xB0
  0000c	eb000000	 bl          EnterCriticalSection

; 333  :     dwVal = INREG32(&m_pbRegisters->MMCHS_STAT);

  00010	e594315c	 ldr         r3, [r4, #0x15C]

; 334  :     LeaveCriticalSection( &m_critSec );

  00014	e28400b0	 add         r0, r4, #0xB0
  00018	e5934130	 ldr         r4, [r3, #0x130]
  0001c	eb000000	 bl          LeaveCriticalSection

; 335  :     return dwVal;
; 336  : }

  00020	e1a00004	 mov         r0, r4
  00024	e8bd4010	 ldmia       sp!, {r4, lr}
  00028	e12fff1e	 bx          lr
  0002c		 |$M44792|

			 ENDP  ; |?Read_MMC_STAT@CSDIOControllerBase@@QAAKXZ|, CSDIOControllerBase::Read_MMC_STAT

	EXPORT	|?Write_MMC_STAT@CSDIOControllerBase@@QAAXK@Z| ; CSDIOControllerBase::Write_MMC_STAT

  00000			 AREA	 |.pdata|, PDATA
|$T44803| DCD	|$LN5@Write_MMC_|
	DCD	0x40000b01
; Function compile flags: /Ogspy

  00000			 AREA	 |.text|, CODE, ARM

  00000		 |?Write_MMC_STAT@CSDIOControllerBase@@QAAXK@Z| PROC ; CSDIOControllerBase::Write_MMC_STAT

; 340  : {

  00000		 |$LN5@Write_MMC_|
  00000	e92d4030	 stmdb       sp!, {r4, r5, lr}
  00004		 |$M44800|
  00004	e1a05001	 mov         r5, r1
  00008	e1a04000	 mov         r4, r0

; 341  :     EnterCriticalSection( &m_critSec );

  0000c	e28400b0	 add         r0, r4, #0xB0
  00010	eb000000	 bl          EnterCriticalSection

; 342  :     OUTREG32(&m_pbRegisters->MMCHS_STAT, dwVal);

  00014	e594315c	 ldr         r3, [r4, #0x15C]

; 343  :     LeaveCriticalSection( &m_critSec );

  00018	e28400b0	 add         r0, r4, #0xB0
  0001c	e5835130	 str         r5, [r3, #0x130]
  00020	eb000000	 bl          LeaveCriticalSection

; 344  : }

  00024	e8bd4030	 ldmia       sp!, {r4, r5, lr}
  00028	e12fff1e	 bx          lr
  0002c		 |$M44801|

			 ENDP  ; |?Write_MMC_STAT@CSDIOControllerBase@@QAAXK@Z|, CSDIOControllerBase::Write_MMC_STAT

	EXPORT	|?Set_MMC_STAT@CSDIOControllerBase@@QAAXK@Z| ; CSDIOControllerBase::Set_MMC_STAT

  00000			 AREA	 |.pdata|, PDATA
|$T44812| DCD	|$LN5@Set_MMC_ST|
	DCD	0x40000b01
; Function compile flags: /Ogspy

  00000			 AREA	 |.text|, CODE, ARM

  00000		 |?Set_MMC_STAT@CSDIOControllerBase@@QAAXK@Z| PROC ; CSDIOControllerBase::Set_MMC_STAT

; 348  : {

  00000		 |$LN5@Set_MMC_ST|
  00000	e92d4030	 stmdb       sp!, {r4, r5, lr}
  00004		 |$M44809|
  00004	e1a05001	 mov         r5, r1
  00008	e1a04000	 mov         r4, r0

; 349  :     EnterCriticalSection( &m_critSec );

  0000c	e28400b0	 add         r0, r4, #0xB0
  00010	eb000000	 bl          EnterCriticalSection

; 350  :     OUTREG32(&m_pbRegisters->MMCHS_STAT, dwVal);

  00014	e594315c	 ldr         r3, [r4, #0x15C]

; 351  :     LeaveCriticalSection( &m_critSec );

  00018	e28400b0	 add         r0, r4, #0xB0
  0001c	e5835130	 str         r5, [r3, #0x130]
  00020	eb000000	 bl          LeaveCriticalSection

; 352  : }

  00024	e8bd4030	 ldmia       sp!, {r4, r5, lr}
  00028	e12fff1e	 bx          lr
  0002c		 |$M44810|

			 ENDP  ; |?Set_MMC_STAT@CSDIOControllerBase@@QAAXK@Z|, CSDIOControllerBase::Set_MMC_STAT

	EXPORT	|?SoftwareReset@CSDIOControllerBase@@QAAXK@Z| ; CSDIOControllerBase::SoftwareReset
	IMPORT	|Sleep|
	IMPORT	|GetTickCount|

  00000			 AREA	 |.pdata|, PDATA
|$T44829| DCD	|$LN14@SoftwareRe|
	DCD	0x40001701
; Function compile flags: /Ogspy

  00000			 AREA	 |.text|, CODE, ARM

  00000		 |?SoftwareReset@CSDIOControllerBase@@QAAXK@Z| PROC ; CSDIOControllerBase::SoftwareReset

; 357  : {

  00000		 |$LN14@SoftwareRe|
  00000	e92d4070	 stmdb       sp!, {r4 - r6, lr}
  00004		 |$M44826|
  00004	e1a04000	 mov         r4, r0

; 358  :     DWORD               dwCountStart;
; 359  : 
; 360  :     DEBUGCHK(sizeof(OMAP_MMCHS_REGS) % sizeof(DWORD) == 0);
; 361  : 
; 362  :     dwResetBits &= (MMCHS_SYSCTL_SRA | MMCHS_SYSCTL_SRC | MMCHS_SYSCTL_SRD);
; 363  : 
; 364  :     // Reset the controller
; 365  :     SETREG32(&m_pbRegisters->MMCHS_SYSCTL, dwResetBits);

  00008	e594215c	 ldr         r2, [r4, #0x15C]
  0000c	e2015407	 and         r5, r1, #7, 8
  00010	e592312c	 ldr         r3, [r2, #0x12C]
  00014	e1833005	 orr         r3, r3, r5
  00018	e582312c	 str         r3, [r2, #0x12C]

; 366  : 
; 367  :     // get starting tick count for timeout
; 368  :     dwCountStart = GetTickCount();

  0001c	eb000000	 bl          GetTickCount

; 369  : 
; 370  :     // Verify that reset has completed.
; 371  :     while ((INREG32(&m_pbRegisters->MMCHS_SYSCTL) & dwResetBits))

  00020	e1a06000	 mov         r6, r0
  00024	ea000006	 b           |$LN11@SoftwareRe|
  00028		 |$LL3@SoftwareRe|

; 372  :     {
; 373  :         // check for timeout (see CE Help to understand how this calculation works)
; 374  :         if (GetTickCount() - dwCountStart > m_dwMaxTimeout)

  00028	eb000000	 bl          GetTickCount
  0002c	e5942150	 ldr         r2, [r4, #0x150]
  00030	e0403006	 sub         r3, r0, r6
  00034	e1530002	 cmp         r3, r2
  00038	8a000005	 bhi         |$LN9@SoftwareRe|

; 375  :         {
; 376  :             DEBUGMSG(ZONE_ENABLE_ERROR, (TEXT("SoftwareReset() - exit: TIMEOUT.\r\n")));
; 377  :             break;
; 378  :         }
; 379  : 
; 380  :         Sleep(0);

  0003c	e3a00000	 mov         r0, #0
  00040	eb000000	 bl          Sleep
  00044		 |$LN11@SoftwareRe|
  00044	e594315c	 ldr         r3, [r4, #0x15C]
  00048	e593312c	 ldr         r3, [r3, #0x12C]
  0004c	e1130005	 tst         r3, r5
  00050	1afffff4	 bne         |$LL3@SoftwareRe|
  00054		 |$LN9@SoftwareRe|

; 381  :     }
; 382  : }

  00054	e8bd4070	 ldmia       sp!, {r4 - r6, lr}
  00058	e12fff1e	 bx          lr
  0005c		 |$M44827|

			 ENDP  ; |?SoftwareReset@CSDIOControllerBase@@QAAXK@Z|, CSDIOControllerBase::SoftwareReset

	EXPORT	|?SetSDInterfaceMode@CSDIOControllerBase@@IAAXW4SD_INTERFACE_MODE@@@Z| ; CSDIOControllerBase::SetSDInterfaceMode
	EXPORT	|??_C@_1FG@KBLCJKOK@?$AAS?$AAD?$AAH?$AAC?$AA?$CB?$AAE?$AAR?$AAR?$AAO?$AAR?$AA?5?$AA?9?$AA?5?$AAU?$AAn?$AAe?$AAx?$AAp?$AAe?$AAc?$AAt?$AAe?$AAd?$AA?5?$AAS?$AAD?$AA?5?$AAi?$AAn?$AAt?$AAe?$AAr@| [ DATA ] ; `string'
	IMPORT	|NKDbgPrintfW|
	IMPORT	|dpCurSettings|

  00000			 AREA	 |.pdata|, PDATA
|$T44841| DCD	|$LN12@SetSDInter|
	DCD	0x40001801

  00000			 AREA	 |.rdata|, DATA, READONLY
|??_C@_1FG@KBLCJKOK@?$AAS?$AAD?$AAH?$AAC?$AA?$CB?$AAE?$AAR?$AAR?$AAO?$AAR?$AA?5?$AA?9?$AA?5?$AAU?$AAn?$AAe?$AAx?$AAp?$AAe?$AAc?$AAt?$AAe?$AAd?$AA?5?$AAS?$AAD?$AA?5?$AAi?$AAn?$AAt?$AAe?$AAr@| DCB "S"
	DCB	0x0, "D", 0x0, "H", 0x0, "C", 0x0, "!", 0x0, "E", 0x0, "R"
	DCB	0x0, "R", 0x0, "O", 0x0, "R", 0x0, " ", 0x0, "-", 0x0, " "
	DCB	0x0, "U", 0x0, "n", 0x0, "e", 0x0, "x", 0x0, "p", 0x0, "e"
	DCB	0x0, "c", 0x0, "t", 0x0, "e", 0x0, "d", 0x0, " ", 0x0, "S"
	DCB	0x0, "D", 0x0, " ", 0x0, "i", 0x0, "n", 0x0, "t", 0x0, "e"
	DCB	0x0, "r", 0x0, "f", 0x0, "a", 0x0, "c", 0x0, "e", 0x0, "("
	DCB	0x0, "%", 0x0, "d", 0x0, ")", 0x0, 0xd, 0x0, 0xa, 0x0, 0x0
	DCB	0x0					; `string'
; Function compile flags: /Ogspy

  00000			 AREA	 |.text|, CODE, ARM

  00000		 |?SetSDInterfaceMode@CSDIOControllerBase@@IAAXW4SD_INTERFACE_MODE@@@Z| PROC ; CSDIOControllerBase::SetSDInterfaceMode

; 387  : {

  00000		 |$LN12@SetSDInter|
  00000	e52de004	 str         lr, [sp, #-4]!
  00004		 |$M44838|
  00004	e3510000	 cmp         r1, #0

; 388  :     if (SD_INTERFACE_SD_MMC_1BIT == eSDInterfaceMode)
; 389  :     {
; 390  :         CLRREG32(&m_pbRegisters->MMCHS_HCTL, MMCHS_HCTL_DTW);

  00008	0590215c	 ldreq       r2, [r0, #0x15C]
  0000c	05923128	 ldreq       r3, [r2, #0x128]
  00010	03c33002	 biceq       r3, r3, #2

; 394  :     {
; 395  :         SETREG32(&m_pbRegisters->MMCHS_HCTL, MMCHS_HCTL_DTW);

  00014	05823128	 streq       r3, [r2, #0x128]

; 404  :         }
; 405  :     }

  00018	049de004	 ldreq       lr, [sp], #4
  0001c	012fff1e	 bxeq        lr

; 391  :         DEBUGMSG(SDCARD_ZONE_INIT,(TEXT("SetInterface MMCHS_HCTL value = %X\r\n"), m_pbRegisters->MMCHS_HCTL ));
; 392  :     }
; 393  :     else if (SD_INTERFACE_SD_4BIT == eSDInterfaceMode)

  00020	e3510001	 cmp         r1, #1

; 394  :     {
; 395  :         SETREG32(&m_pbRegisters->MMCHS_HCTL, MMCHS_HCTL_DTW);

  00024	0590215c	 ldreq       r2, [r0, #0x15C]
  00028	05923128	 ldreq       r3, [r2, #0x128]
  0002c	03833002	 orreq       r3, r3, #2
  00030	05823128	 streq       r3, [r2, #0x128]

; 404  :         }
; 405  :     }

  00034	049de004	 ldreq       lr, [sp], #4
  00038	012fff1e	 bxeq        lr

; 396  :         DEBUGMSG(SDCARD_ZONE_INIT,(TEXT("SetInterface MMCHS_HCTL value = %X\r\n"), m_pbRegisters->MMCHS_HCTL ));
; 397  :     }
; 398  :     else
; 399  :     {
; 400  :         RETAILMSG(SDCARD_ZONE_ERROR, 
; 401  :             (L"SDHC!ERROR - Unexpected SD interface(%d)\r\n",
; 402  :             eSDInterfaceMode)
; 403  :             );

  0003c	e59f3018	 ldr         r3, [pc, #0x18]
  00040	e5933440	 ldr         r3, [r3, #0x440]
  00044	e3130902	 tst         r3, #2, 18
  00048	159f0008	 ldrne       r0, [pc, #8]
  0004c	1b000000	 blne        NKDbgPrintfW

; 404  :         }
; 405  :     }

  00050	e49de004	 ldr         lr, [sp], #4
  00054	e12fff1e	 bx          lr
  00058		 |$LN13@SetSDInter|
  00058		 |$LN14@SetSDInter|
  00058	00000000	 DCD         |??_C@_1FG@KBLCJKOK@?$AAS?$AAD?$AAH?$AAC?$AA?$CB?$AAE?$AAR?$AAR?$AAO?$AAR?$AA?5?$AA?9?$AA?5?$AAU?$AAn?$AAe?$AAx?$AAp?$AAe?$AAc?$AAt?$AAe?$AAd?$AA?5?$AAS?$AAD?$AA?5?$AAi?$AAn?$AAt?$AAe?$AAr@|
  0005c		 |$LN15@SetSDInter|
  0005c	00000000	 DCD         |dpCurSettings|
  00060		 |$M44839|

			 ENDP  ; |?SetSDInterfaceMode@CSDIOControllerBase@@IAAXW4SD_INTERFACE_MODE@@@Z|, CSDIOControllerBase::SetSDInterfaceMode

	EXPORT	|?EnableSDHCInterrupts@CSDIOControllerBase@@QAAXXZ| ; CSDIOControllerBase::EnableSDHCInterrupts

  00000			 AREA	 |.pdata|, PDATA
|$T44852| DCD	|$LN5@EnableSDHC|
	DCD	0x40001001
; Function compile flags: /Ogspy

  00000			 AREA	 |.text|, CODE, ARM

  00000		 |?EnableSDHCInterrupts@CSDIOControllerBase@@QAAXXZ| PROC ; CSDIOControllerBase::EnableSDHCInterrupts

; 427  : {

  00000		 |$LN5@EnableSDHC|
  00000	e92d4010	 stmdb       sp!, {r4, lr}
  00004		 |$M44849|
  00004	e1a04000	 mov         r4, r0

; 428  :     EnterCriticalSection( &m_critSec );

  00008	e28400b0	 add         r0, r4, #0xB0
  0000c	eb000000	 bl          EnterCriticalSection

; 429  :     OUTREG32(&m_pbRegisters->MMCHS_ISE, MMC_INT_EN_MASK);

  00010	e594315c	 ldr         r3, [r4, #0x15C]
  00014	e3a02833	 mov         r2, #0x33, 16
  00018	e3822033	 orr         r2, r2, #0x33

; 430  :     OUTREG32(&m_pbRegisters->MMCHS_IE,  MMC_INT_EN_MASK);
; 431  :     m_sContext.eSDHCIntr = SDHC_MMC_INTR_ENABLED;

  0001c	e5832138	 str         r2, [r3, #0x138]
  00020	e594315c	 ldr         r3, [r4, #0x15C]
  00024	e3a01001	 mov         r1, #1

; 432  :     LeaveCriticalSection( &m_critSec );

  00028	e28400b0	 add         r0, r4, #0xB0
  0002c	e5832134	 str         r2, [r3, #0x134]
  00030	e5841204	 str         r1, [r4, #0x204]
  00034	eb000000	 bl          LeaveCriticalSection

; 433  : }

  00038	e8bd4010	 ldmia       sp!, {r4, lr}
  0003c	e12fff1e	 bx          lr
  00040		 |$M44850|

			 ENDP  ; |?EnableSDHCInterrupts@CSDIOControllerBase@@QAAXXZ|, CSDIOControllerBase::EnableSDHCInterrupts

	EXPORT	|?DisableSDHCInterrupts@CSDIOControllerBase@@QAAXXZ| ; CSDIOControllerBase::DisableSDHCInterrupts

  00000			 AREA	 |.pdata|, PDATA
|$T44860| DCD	|$LN5@DisableSDH|
	DCD	0x40000e01
; Function compile flags: /Ogspy

  00000			 AREA	 |.text|, CODE, ARM

  00000		 |?DisableSDHCInterrupts@CSDIOControllerBase@@QAAXXZ| PROC ; CSDIOControllerBase::DisableSDHCInterrupts

; 438  : {

  00000		 |$LN5@DisableSDH|
  00000	e92d4010	 stmdb       sp!, {r4, lr}
  00004		 |$M44857|
  00004	e1a04000	 mov         r4, r0

; 439  :     EnterCriticalSection( &m_critSec );

  00008	e28400b0	 add         r0, r4, #0xB0
  0000c	eb000000	 bl          EnterCriticalSection

; 440  :     OUTREG32(&m_pbRegisters->MMCHS_ISE, 0);

  00010	e594315c	 ldr         r3, [r4, #0x15C]
  00014	e3a02000	 mov         r2, #0

; 441  :     OUTREG32(&m_pbRegisters->MMCHS_IE,  0);
; 442  :     m_sContext.eSDHCIntr = SDHC_INTR_DISABLED;
; 443  :     LeaveCriticalSection( &m_critSec );

  00018	e28400b0	 add         r0, r4, #0xB0
  0001c	e5832138	 str         r2, [r3, #0x138]
  00020	e594315c	 ldr         r3, [r4, #0x15C]
  00024	e5832134	 str         r2, [r3, #0x134]
  00028	e5842204	 str         r2, [r4, #0x204]
  0002c	eb000000	 bl          LeaveCriticalSection

; 444  : }

  00030	e8bd4010	 ldmia       sp!, {r4, lr}
  00034	e12fff1e	 bx          lr
  00038		 |$M44858|

			 ENDP  ; |?DisableSDHCInterrupts@CSDIOControllerBase@@QAAXXZ|, CSDIOControllerBase::DisableSDHCInterrupts

	EXPORT	|?EnableSDIOInterrupts@CSDIOControllerBase@@QAAXXZ| ; CSDIOControllerBase::EnableSDIOInterrupts

  00000			 AREA	 |.pdata|, PDATA
|$T44868| DCD	|$LN6@EnableSDIO|
	DCD	0x40002001
; Function compile flags: /Ogspy

  00000			 AREA	 |.text|, CODE, ARM

  00000		 |?EnableSDIOInterrupts@CSDIOControllerBase@@QAAXXZ| PROC ; CSDIOControllerBase::EnableSDIOInterrupts

; 449  : {

  00000		 |$LN6@EnableSDIO|
  00000	e92d4010	 stmdb       sp!, {r4, lr}
  00004		 |$M44865|
  00004	e1a04000	 mov         r4, r0

; 450  :     ASSERT( !m_fSDIOInterruptsEnabled );
; 451  :     m_fSDIOInterruptsEnabled = TRUE;
; 452  : 
; 453  :     DEBUGMSG(SHC_INTERRUPT_ZONE, (TEXT("CSDHCSlot::EnableSDIOInterrupts\r\n")));
; 454  : #ifdef ENABLE_RETAIL_OUTPUT
; 455  :         RETAILMSG(1, (TEXT("CSDHCSlot::EnableSDIOInterrupts\r\n")));
; 456  : #endif
; 457  :     EnterCriticalSection( &m_critSec );

  00008	e3a03001	 mov         r3, #1
  0000c	e28400b0	 add         r0, r4, #0xB0
  00010	e58430f4	 str         r3, [r4, #0xF4]
  00014	eb000000	 bl          EnterCriticalSection

; 458  :     SETREG32(&m_pbRegisters->MMCHS_CON, MMCHS_CON_CTPL);

  00018	e594215c	 ldr         r2, [r4, #0x15C]

; 459  :     if (!m_Sdio4BitDisable && (m_sContext.eInterfaceMode == SD_INTERFACE_SD_4BIT))
; 460  :     {
; 461  :         SETREG32(&m_pbRegisters->MMCHS_CON, MMCHS_CON_CLKEXTFREE);
; 462  :     }
; 463  : 
; 464  :     // enable exit from smart idle mode on SD/SDIO card interrupt
; 465  :     SETREG32(&m_pbRegisters->MMCHS_ISE, MMCHS_ISE_CIRQ);
; 466  :     // enable SD/SDIO card interrupt
; 467  :     SETREG32(&m_pbRegisters->MMCHS_IE, MMCHS_IE_CIRQ);
; 468  : 
; 469  :     m_sContext.eSDHCIntr = SDHC_SDIO_INTR_ENABLED;

  0001c	e3a01002	 mov         r1, #2

; 470  :     LeaveCriticalSection( &m_critSec );

  00020	e28400b0	 add         r0, r4, #0xB0
  00024	e592302c	 ldr         r3, [r2, #0x2C]
  00028	e3833b02	 orr         r3, r3, #2, 22
  0002c	e582302c	 str         r3, [r2, #0x2C]
  00030	e5943190	 ldr         r3, [r4, #0x190]
  00034	e3530000	 cmp         r3, #0
  00038	05943208	 ldreq       r3, [r4, #0x208]
  0003c	03530001	 cmpeq       r3, #1
  00040	0594215c	 ldreq       r2, [r4, #0x15C]
  00044	0592302c	 ldreq       r3, [r2, #0x2C]
  00048	03833801	 orreq       r3, r3, #1, 16
  0004c	0582302c	 streq       r3, [r2, #0x2C]
  00050	e594215c	 ldr         r2, [r4, #0x15C]
  00054	e5923138	 ldr         r3, [r2, #0x138]
  00058	e3833c01	 orr         r3, r3, #1, 24
  0005c	e5823138	 str         r3, [r2, #0x138]
  00060	e594215c	 ldr         r2, [r4, #0x15C]
  00064	e5923134	 ldr         r3, [r2, #0x134]
  00068	e3833c01	 orr         r3, r3, #1, 24
  0006c	e5823134	 str         r3, [r2, #0x134]
  00070	e5841204	 str         r1, [r4, #0x204]
  00074	eb000000	 bl          LeaveCriticalSection

; 471  : }

  00078	e8bd4010	 ldmia       sp!, {r4, lr}
  0007c	e12fff1e	 bx          lr
  00080		 |$M44866|

			 ENDP  ; |?EnableSDIOInterrupts@CSDIOControllerBase@@QAAXXZ|, CSDIOControllerBase::EnableSDIOInterrupts

	EXPORT	|?AckSDIOInterrupt@CSDIOControllerBase@@QAAXXZ| ; CSDIOControllerBase::AckSDIOInterrupt
	IMPORT	|SDHCDIndicateSlotStateChange|

  00000			 AREA	 |.pdata|, PDATA
|$T44884| DCD	|$LN11@AckSDIOInt|
	DCD	0x40002201
; Function compile flags: /Ogspy

  00000			 AREA	 |.text|, CODE, ARM

  00000		 |?AckSDIOInterrupt@CSDIOControllerBase@@QAAXXZ| PROC ; CSDIOControllerBase::AckSDIOInterrupt

; 477  : {

  00000		 |$LN11@AckSDIOInt|
  00000	e92d4030	 stmdb       sp!, {r4, r5, lr}
  00004		 |$M44881|
  00004	e1a05000	 mov         r5, r0

; 478  :     ASSERT( m_fSDIOInterruptsEnabled );
; 479  :     DEBUGMSG(SHC_INTERRUPT_ZONE, (TEXT("CSDHCSlot::AckSDIOInterrupt\r\n")));
; 480  : #ifdef ENABLE_RETAIL_OUTPUT
; 481  :         RETAILMSG(1, (TEXT("CSDHCSlot::AckSDIOInterrupt\r\n")));
; 482  : #endif
; 483  :     DWORD dwRegValue = Read_MMC_STAT();

  00008	e28500b0	 add         r0, r5, #0xB0
  0000c	eb000000	 bl          EnterCriticalSection
  00010	e595315c	 ldr         r3, [r5, #0x15C]
  00014	e28500b0	 add         r0, r5, #0xB0
  00018	e5934130	 ldr         r4, [r3, #0x130]
  0001c	eb000000	 bl          LeaveCriticalSection

; 484  :     if( dwRegValue & MMCHS_STAT_CIRQ )

  00020	e3140c01	 tst         r4, #1, 24

; 485  :     {
; 486  :         Set_MMC_STAT(MMCHS_STAT_CIRQ);

  00024	e28500b0	 add         r0, r5, #0xB0
  00028	0a00000b	 beq         |$LN2@AckSDIOInt|
  0002c	eb000000	 bl          EnterCriticalSection
  00030	e595315c	 ldr         r3, [r5, #0x15C]
  00034	e3a02c01	 mov         r2, #1, 24
  00038	e28500b0	 add         r0, r5, #0xB0
  0003c	e5832130	 str         r2, [r3, #0x130]
  00040	eb000000	 bl          LeaveCriticalSection

; 487  :         SDHCDIndicateSlotStateChange(m_pHCContext, 0, DeviceInterrupting);

  00044	e59500a8	 ldr         r0, [r5, #0xA8]
  00048	e3a02003	 mov         r2, #3
  0004c	e3a01000	 mov         r1, #0
  00050	eb000000	 bl          SDHCDIndicateSlotStateChange

; 495  :     }
; 496  : }

  00054	e8bd4030	 ldmia       sp!, {r4, r5, lr}
  00058	e12fff1e	 bx          lr
  0005c		 |$LN2@AckSDIOInt|

; 488  :     }
; 489  :     else
; 490  :     {
; 491  :         EnterCriticalSection( &m_critSec );

  0005c	eb000000	 bl          EnterCriticalSection

; 492  :         SETREG32(&m_pbRegisters->MMCHS_IE,  MMCHS_IE_CIRQ);

  00060	e595215c	 ldr         r2, [r5, #0x15C]

; 493  :         LeaveCriticalSection( &m_critSec );

  00064	e28500b0	 add         r0, r5, #0xB0
  00068	e5923134	 ldr         r3, [r2, #0x134]
  0006c	e3833c01	 orr         r3, r3, #1, 24
  00070	e5823134	 str         r3, [r2, #0x134]
  00074	eb000000	 bl          LeaveCriticalSection

; 494  :         m_fSDIOInterruptInService = FALSE;

  00078	e3a03000	 mov         r3, #0
  0007c	e58530d8	 str         r3, [r5, #0xD8]

; 495  :     }
; 496  : }

  00080	e8bd4030	 ldmia       sp!, {r4, r5, lr}
  00084	e12fff1e	 bx          lr
  00088		 |$M44882|

			 ENDP  ; |?AckSDIOInterrupt@CSDIOControllerBase@@QAAXXZ|, CSDIOControllerBase::AckSDIOInterrupt

	EXPORT	|?DisableSDIOInterrupts@CSDIOControllerBase@@QAAXXZ| ; CSDIOControllerBase::DisableSDIOInterrupts

  00000			 AREA	 |.pdata|, PDATA
|$T44892| DCD	|$LN5@DisableSDI|
	DCD	0x40001301
; Function compile flags: /Ogspy

  00000			 AREA	 |.text|, CODE, ARM

  00000		 |?DisableSDIOInterrupts@CSDIOControllerBase@@QAAXXZ| PROC ; CSDIOControllerBase::DisableSDIOInterrupts

; 501  : {

  00000		 |$LN5@DisableSDI|
  00000	e92d4030	 stmdb       sp!, {r4, r5, lr}
  00004		 |$M44889|
  00004	e1a04000	 mov         r4, r0

; 502  :     ASSERT( m_fSDIOInterruptsEnabled );
; 503  :     m_fSDIOInterruptsEnabled = FALSE;
; 504  : 
; 505  :     DEBUGMSG(SHC_INTERRUPT_ZONE, (TEXT("CSDHCSlot::DisableSDIOInterrupts\r\n")));
; 506  : #ifdef ENABLE_RETAIL_OUTPUT
; 507  :         RETAILMSG(1, (TEXT("CSDHCSlot::DisableSDIOInterrupts\r\n")));
; 508  : #endif
; 509  :     EnterCriticalSection( &m_critSec );

  00008	e3a05000	 mov         r5, #0
  0000c	e28400b0	 add         r0, r4, #0xB0
  00010	e58450f4	 str         r5, [r4, #0xF4]
  00014	eb000000	 bl          EnterCriticalSection

; 510  :     CLRREG32(&m_pbRegisters->MMCHS_ISE, MMCHS_ISE_CIRQ);

  00018	e594215c	 ldr         r2, [r4, #0x15C]

; 511  :     CLRREG32(&m_pbRegisters->MMCHS_IE,  MMCHS_IE_CIRQ);
; 512  :     m_sContext.eSDHCIntr = SDHC_INTR_DISABLED;
; 513  :     LeaveCriticalSection( &m_critSec );

  0001c	e28400b0	 add         r0, r4, #0xB0
  00020	e5923138	 ldr         r3, [r2, #0x138]
  00024	e3c33c01	 bic         r3, r3, #1, 24
  00028	e5823138	 str         r3, [r2, #0x138]
  0002c	e594215c	 ldr         r2, [r4, #0x15C]
  00030	e5923134	 ldr         r3, [r2, #0x134]
  00034	e3c33c01	 bic         r3, r3, #1, 24
  00038	e5823134	 str         r3, [r2, #0x134]
  0003c	e5845204	 str         r5, [r4, #0x204]
  00040	eb000000	 bl          LeaveCriticalSection

; 514  : }

  00044	e8bd4030	 ldmia       sp!, {r4, r5, lr}
  00048	e12fff1e	 bx          lr
  0004c		 |$M44890|

			 ENDP  ; |?DisableSDIOInterrupts@CSDIOControllerBase@@QAAXXZ|, CSDIOControllerBase::DisableSDIOInterrupts

	EXPORT	|?SetClockRate@CSDIOControllerBase@@QAAXPAK@Z| ; CSDIOControllerBase::SetClockRate
	IMPORT	|__rt_udiv|

  00000			 AREA	 |.pdata|, PDATA
|$T44917| DCD	|$LN21@SetClockRa|
	DCD	0x40004701
; Function compile flags: /Ogspy

  00000			 AREA	 |.text|, CODE, ARM

  00000		 |?SetClockRate@CSDIOControllerBase@@QAAXPAK@Z| PROC ; CSDIOControllerBase::SetClockRate

; 519  : {

  00000		 |$LN21@SetClockRa|
  00000	e92d4030	 stmdb       sp!, {r4, r5, lr}
  00004		 |$M44914|
  00004	e1a05001	 mov         r5, r1
  00008	e1a04000	 mov         r4, r0

; 520  :     DWORD dwClockRate = *pdwRate;

  0000c	e5952000	 ldr         r2, [r5]

; 521  : 
; 522  :     if(dwClockRate > m_dwMaxClockRate) dwClockRate = m_dwMaxClockRate;

  00010	e5943148	 ldr         r3, [r4, #0x148]
  00014	e1520003	 cmp         r2, r3
  00018	81a02003	 movhi       r2, r3

; 523  : 
; 524  :     // calculate the register value
; 525  :     DWORD dwDiv = (DWORD)((MMCSD_CLOCK_INPUT + dwClockRate - 1) / dwClockRate);

  0001c	e59f30f4	 ldr         r3, [pc, #0xF4]
  00020	e1a00002	 mov         r0, r2
  00024	e0821003	 add         r1, r2, r3
  00028	eb000000	 bl          __rt_udiv

; 526  : 
; 527  :     DEBUGMSG(SHC_CLOCK_ZONE, (TEXT("actual wDiv = 0x%x  requested:0x%x"), dwDiv, *pdwRate));
; 528  :     // Only 10 bits available for the divider, so mmc base clock / 1024 is minimum.
; 529  :     if ( dwDiv > 0x03FF )

  0002c	e3a03c03	 mov         r3, #3, 24

; 530  :         dwDiv = 0x03FF;
; 531  : 
; 532  :     DEBUGMSG(SHC_CLOCK_ZONE, (TEXT("dwDiv = 0x%x 0x%x"), dwDiv, *pdwRate));
; 533  : 
; 534  :     // Program the divisor, but leave the rest of the register alone.
; 535  :     INT32 dwRegValue = INREG32(&m_pbRegisters->MMCHS_SYSCTL);

  00030	e594e15c	 ldr         lr, [r4, #0x15C]
  00034	e38330ff	 orr         r3, r3, #0xFF
  00038	e1500003	 cmp         r0, r3

; 536  : 
; 537  :     dwRegValue = (dwRegValue & ~MMCHS_SYSCTL_CLKD_MASK) | MMCHS_SYSCTL_CLKD(dwDiv);
; 538  :     dwRegValue = (dwRegValue & ~MMCHS_SYSCTL_DTO_MASK) | MMCHS_SYSCTL_DTO(0x0e); // DTO
; 539  :     dwRegValue &= ~MMCHS_SYSCTL_CEN;
; 540  :     dwRegValue &= ~MMCHS_SYSCTL_ICE;
; 541  : 
; 542  :     CLRREG32(&m_pbRegisters->MMCHS_SYSCTL, MMCHS_SYSCTL_CEN);

  0003c	e59e212c	 ldr         r2, [lr, #0x12C]
  00040	81a00003	 movhi       r0, r3
  00044	e59e112c	 ldr         r1, [lr, #0x12C]
  00048	e3e03cff	 mvn         r3, #0xFF, 24

; 543  : 
; 544  :     OUTREG32(&m_pbRegisters->MMCHS_SYSCTL, dwRegValue);

  0004c	e22330c0	 eor         r3, r3, #0xC0
  00050	e0022003	 and         r2, r2, r3
  00054	e3c13004	 bic         r3, r1, #4
  00058	e58e312c	 str         r3, [lr, #0x12C]
  0005c	e3e03801	 mvn         r3, #1, 16
  00060	e2233005	 eor         r3, r3, #5
  00064	e594115c	 ldr         r1, [r4, #0x15C]
  00068	e1822300	 orr         r2, r2, r0, lsl #6
  0006c	e0023003	 and         r3, r2, r3
  00070	e383380e	 orr         r3, r3, #0xE, 16
  00074	e581312c	 str         r3, [r1, #0x12C]

; 545  : 
; 546  :     SETREG32(&m_pbRegisters->MMCHS_SYSCTL, MMCHS_SYSCTL_ICE); // enable internal clock

  00078	e594215c	 ldr         r2, [r4, #0x15C]

; 547  : 
; 548  :     DWORD dwTimeout = 500;

  0007c	e3a01f7d	 mov         r1, #0x7D, 30
  00080	e592312c	 ldr         r3, [r2, #0x12C]
  00084	e3833001	 orr         r3, r3, #1
  00088	e582312c	 str         r3, [r2, #0x12C]

; 549  :     while(((INREG32(&m_pbRegisters->MMCHS_SYSCTL) & MMCHS_SYSCTL_ICS) != MMCHS_SYSCTL_ICS) && (dwTimeout>0))

  0008c	e594215c	 ldr         r2, [r4, #0x15C]
  00090	e592312c	 ldr         r3, [r2, #0x12C]
  00094	ea000004	 b           |$LN16@SetClockRa|
  00098		 |$LL4@SetClockRa|
  00098	e3510000	 cmp         r1, #0
  0009c	0a000005	 beq         |$LN13@SetClockRa|
  000a0	e594315c	 ldr         r3, [r4, #0x15C]

; 550  :     {
; 551  :         dwTimeout--;

  000a4	e2411001	 sub         r1, r1, #1
  000a8	e593312c	 ldr         r3, [r3, #0x12C]
  000ac		 |$LN16@SetClockRa|
  000ac	e2033002	 and         r3, r3, #2
  000b0	e3530002	 cmp         r3, #2
  000b4	1afffff7	 bne         |$LL4@SetClockRa|
  000b8		 |$LN13@SetClockRa|

; 552  :     }
; 553  : 
; 554  :     SETREG32(&m_pbRegisters->MMCHS_SYSCTL, MMCHS_SYSCTL_CEN);

  000b8	e592312c	 ldr         r3, [r2, #0x12C]

; 555  :     SETREG32(&m_pbRegisters->MMCHS_HCTL, MMCHS_HCTL_SDBP); // power up the card
; 556  : 
; 557  :     dwTimeout = 500;

  000bc	e3a01f7d	 mov         r1, #0x7D, 30
  000c0	e3833004	 orr         r3, r3, #4
  000c4	e582312c	 str         r3, [r2, #0x12C]
  000c8	e594215c	 ldr         r2, [r4, #0x15C]
  000cc	e5923128	 ldr         r3, [r2, #0x128]
  000d0	e3833c01	 orr         r3, r3, #1, 24
  000d4	e5823128	 str         r3, [r2, #0x128]

; 558  :     while(((INREG32(&m_pbRegisters->MMCHS_SYSCTL) & MMCHS_SYSCTL_CEN) != MMCHS_SYSCTL_CEN) && (dwTimeout>0))

  000d8	ea000002	 b           |$LN18@SetClockRa|
  000dc		 |$LL2@SetClockRa|
  000dc	e3510000	 cmp         r1, #0
  000e0	0a000005	 beq         |$LN14@SetClockRa|

; 559  :     {
; 560  :         dwTimeout--;

  000e4	e2411001	 sub         r1, r1, #1
  000e8		 |$LN18@SetClockRa|

; 558  :     while(((INREG32(&m_pbRegisters->MMCHS_SYSCTL) & MMCHS_SYSCTL_CEN) != MMCHS_SYSCTL_CEN) && (dwTimeout>0))

  000e8	e594315c	 ldr         r3, [r4, #0x15C]

; 559  :     {
; 560  :         dwTimeout--;

  000ec	e593312c	 ldr         r3, [r3, #0x12C]
  000f0	e2033004	 and         r3, r3, #4
  000f4	e3530004	 cmp         r3, #4
  000f8	1afffff7	 bne         |$LL2@SetClockRa|
  000fc		 |$LN14@SetClockRa|

; 561  :     }
; 562  : 
; 563  :     *pdwRate = MMCSD_CLOCK_INPUT / dwDiv;

  000fc	e59f1010	 ldr         r1, [pc, #0x10]
  00100	eb000000	 bl          __rt_udiv
  00104	e5850000	 str         r0, [r5]

; 564  :     m_sContext.dwClockRate = MMCSD_CLOCK_INPUT / dwDiv;

  00108	e5840200	 str         r0, [r4, #0x200]

; 565  : 
; 566  :     DEBUGMSG(SHC_CLOCK_ZONE,(TEXT("SDHCSetRate - Actual clock rate = 0x%x, MMCHS_SYSCTL = 0x%x\r\n"), *pdwRate, INREG32(&m_pbRegisters->MMCHS_SYSCTL)));
; 567  :     //RETAILMSG(1,(TEXT("SDHCSetRate - Actual clock rate = %d, MMCHS_SYSCTL = 0x%x\r\n"), *pdwRate, INREG32(&m_pbRegisters->MMCHS_SYSCTL)));
; 568  : }

  0010c	e8bd4030	 ldmia       sp!, {r4, r5, lr}
  00110	e12fff1e	 bx          lr
  00114		 |$LN22@SetClockRa|
  00114		 |$LN23@SetClockRa|
  00114	05b8d800	 DCD         0x5b8d800
  00118		 |$LN24@SetClockRa|
  00118	05b8d7ff	 DCD         0x5b8d7ff
  0011c		 |$M44915|

			 ENDP  ; |?SetClockRate@CSDIOControllerBase@@QAAXPAK@Z|, CSDIOControllerBase::SetClockRate

	EXPORT	|?IsMultipleBlockReadSupported@CSDIOControllerBase@@IAAHXZ| ; CSDIOControllerBase::IsMultipleBlockReadSupported

  00000			 AREA	 |.pdata|, PDATA
|$T44929| DCD	|$LN6@IsMultiple|
	DCD	0x40000200
; Function compile flags: /Ogspy

  00000			 AREA	 |.text|, CODE, ARM

  00000		 |?IsMultipleBlockReadSupported@CSDIOControllerBase@@IAAHXZ| PROC ; CSDIOControllerBase::IsMultipleBlockReadSupported

; 571  : {

  00000		 |$LN6@IsMultiple|
  00000		 |$M44926|

; 572  :     BOOL bVal = FALSE;//TRUE;
; 573  :     // work around for a OMAP35XX silicon issue (data CRC error on READ_MULTIPLE_BLOCK command)
; 574  :     // This is present in earley processor revisions
; 575  :     if(m_dwCPURev <= CPU_FAMILY_35XX_REVISION_ES_3_0)
; 576  :     {
; 577  :         bVal = FALSE;
; 578  :     }
; 579  :     return bVal;

  00000	e3a00000	 mov         r0, #0

; 580  : }

  00004	e12fff1e	 bx          lr
  00008		 |$M44927|

			 ENDP  ; |?IsMultipleBlockReadSupported@CSDIOControllerBase@@IAAHXZ|, CSDIOControllerBase::IsMultipleBlockReadSupported

	EXPORT	|?SetSDVSVoltage@CSDIOControllerBase@@QAAXXZ| ; CSDIOControllerBase::SetSDVSVoltage
	EXPORT	|??_C@_1DO@OCDBIGLO@?$AAM?$AAM?$AAC?$AA?5?$AAS?$AAl?$AAo?$AAt?$AA?5?$AAn?$AAu?$AAm?$AAb?$AAe?$AAr?$AA?5?$AAi?$AAs?$AA?5?$AAn?$AAo?$AAt?$AA?5?$AAV?$AAa?$AAl?$AAi?$AAd?$AA?$AN?$AA?6?$AA?$AA@| [ DATA ] ; `string'

  00000			 AREA	 |.pdata|, PDATA
|$T44945| DCD	|$LN29@SetSDVSVol|
	DCD	0x40003001

  00000			 AREA	 |.rdata|, DATA, READONLY
|??_C@_1DO@OCDBIGLO@?$AAM?$AAM?$AAC?$AA?5?$AAS?$AAl?$AAo?$AAt?$AA?5?$AAn?$AAu?$AAm?$AAb?$AAe?$AAr?$AA?5?$AAi?$AAs?$AA?5?$AAn?$AAo?$AAt?$AA?5?$AAV?$AAa?$AAl?$AAi?$AAd?$AA?$AN?$AA?6?$AA?$AA@| DCB "M"
	DCB	0x0, "M", 0x0, "C", 0x0, " ", 0x0, "S", 0x0, "l", 0x0, "o"
	DCB	0x0, "t", 0x0, " ", 0x0, "n", 0x0, "u", 0x0, "m", 0x0, "b"
	DCB	0x0, "e", 0x0, "r", 0x0, " ", 0x0, "i", 0x0, "s", 0x0, " "
	DCB	0x0, "n", 0x0, "o", 0x0, "t", 0x0, " ", 0x0, "V", 0x0, "a"
	DCB	0x0, "l", 0x0, "i", 0x0, "d", 0x0, 0xd, 0x0, 0xa, 0x0, 0x0
	DCB	0x0					; `string'
; Function compile flags: /Ogspy

  00000			 AREA	 |.text|, CODE, ARM

  00000		 |?SetSDVSVoltage@CSDIOControllerBase@@QAAXXZ| PROC ; CSDIOControllerBase::SetSDVSVoltage

; 585  : {

  00000		 |$LN29@SetSDVSVol|
  00000	e52de004	 str         lr, [sp, #-4]!
  00004		 |$M44942|

; 586  :     UINT32 val1, val2;
; 587  : 
; 588  :     if ( m_dwSlot == MMCSLOT_1 )

  00004	e5903170	 ldr         r3, [r0, #0x170]
  00008	e3530001	 cmp         r3, #1
  0000c	1a000007	 bne         |$LN20@SetSDVSVol|

; 589  :     {
; 590  :         if(m_dwCPURev == CPU_FAMILY_35XX_REVISION_ES_1_0) // ES 1.0

  00010	e590317c	 ldr         r3, [r0, #0x17C]
  00014	e3530000	 cmp         r3, #0

; 591  :         {
; 592  :           val1 = MMCHS_CAPA_VS30;
; 593  :           val2 = MMCHS_HCTL_SDVS_3V0;

  00018	0a000010	 beq         |$LN15@SetSDVSVol|

; 594  :         }
; 595  :         else if(m_dwCPURev == CPU_FAMILY_35XX_REVISION_ES_2_0) // ES 2.0

  0001c	e3530001	 cmp         r3, #1

; 596  :         {
; 597  :           val1 = MMCHS_CAPA_VS18;
; 598  :           val2 = MMCHS_HCTL_SDVS_1V8;

  00020	0a000011	 beq         |$LN5@SetSDVSVol|

; 599  :         }
; 600  :         else if(m_dwCPURev == CPU_FAMILY_35XX_REVISION_ES_2_1) // ES 2.1

  00024	e3530002	 cmp         r3, #2
  00028	1a00000c	 bne         |$LN15@SetSDVSVol|

; 601  :         {
; 602  :             if (m_LowVoltageSlot)
; 603  :             {
; 604  :                 val1 = MMCHS_CAPA_VS18;
; 605  :                 val2 = MMCHS_HCTL_SDVS_1V8;
; 606  :             }
; 607  :             else
; 608  :             {
; 609  :                 val1 = MMCHS_CAPA_VS30;
; 610  :                 val2 = MMCHS_HCTL_SDVS_3V0;
; 611  :             }
; 612  :         }
; 613  :         else // ES3.x and later
; 614  :         {
; 615  :           val1 = MMCHS_CAPA_VS30;
; 616  :           val2 = MMCHS_HCTL_SDVS_3V0;
; 617  :         }
; 618  : 
; 619  :         SETREG32(&m_pbRegisters->MMCHS_CAPA, val1);
; 620  :         SETREG32(&m_pbRegisters->MMCHS_HCTL, val2);

  0002c	ea000008	 b           |$LN26@SetSDVSVol|
  00030		 |$LN20@SetSDVSVol|

; 621  :     }
; 622  :     else if (m_dwSlot == MMCSLOT_2)

  00030	e3530002	 cmp         r3, #2
  00034	1a000018	 bne         |$LN10@SetSDVSVol|

; 623  :     {
; 624  :         if(m_dwCPURev == CPU_FAMILY_35XX_REVISION_ES_1_0) // ES 1.0

  00038	e590317c	 ldr         r3, [r0, #0x17C]
  0003c	e3530000	 cmp         r3, #0

; 625  :         {
; 626  :           val1 = MMCHS_CAPA_VS18;
; 627  :           val2 = MMCHS_HCTL_SDVS_1V8;

  00040	0a000009	 beq         |$LN5@SetSDVSVol|

; 628  :         }
; 629  :         else if(m_dwCPURev == CPU_FAMILY_35XX_REVISION_ES_2_0) // ES 2.0

  00044	e3530001	 cmp         r3, #1

; 630  :         {
; 631  :           val1 = MMCHS_CAPA_VS18;
; 632  :           val2 = MMCHS_HCTL_SDVS_1V8;

  00048	0a000007	 beq         |$LN5@SetSDVSVol|

; 633  :         }
; 634  :         else if(m_dwCPURev == CPU_FAMILY_35XX_REVISION_ES_2_1) // ES 2.1

  0004c	e3530002	 cmp         r3, #2
  00050	1a000005	 bne         |$LN5@SetSDVSVol|
  00054		 |$LN26@SetSDVSVol|

; 635  :         {
; 636  :             if (m_LowVoltageSlot)

  00054	e590318c	 ldr         r3, [r0, #0x18C]
  00058	e3530000	 cmp         r3, #0

; 637  :             {
; 638  :                 val1 = MMCHS_CAPA_VS18;
; 639  :                 val2 = MMCHS_HCTL_SDVS_1V8;
; 640  :             }
; 641  :             else

  0005c	1a000002	 bne         |$LN5@SetSDVSVol|
  00060		 |$LN15@SetSDVSVol|

; 642  :             {
; 643  :                 val1 = MMCHS_CAPA_VS30;

  00060	e3a01402	 mov         r1, #2, 8

; 644  :                 val2 = MMCHS_HCTL_SDVS_3V0;

  00064	e3a0eb03	 mov         lr, #3, 22

; 645  :             }
; 646  :         }
; 647  :         else // ES 3.x and later

  00068	ea000001	 b           |$LN2@SetSDVSVol|
  0006c		 |$LN5@SetSDVSVol|

; 648  :         {
; 649  :           val1 = MMCHS_CAPA_VS18;

  0006c	e3a01301	 mov         r1, #1, 6

; 650  :           val2 = MMCHS_HCTL_SDVS_1V8;

  00070	e3a0ec0a	 mov         lr, #0xA, 24
  00074		 |$LN2@SetSDVSVol|

; 651  :         }
; 652  :         SETREG32(&m_pbRegisters->MMCHS_CAPA, val1);

  00074	e590215c	 ldr         r2, [r0, #0x15C]
  00078	e5923140	 ldr         r3, [r2, #0x140]
  0007c	e1833001	 orr         r3, r3, r1
  00080	e5823140	 str         r3, [r2, #0x140]

; 653  :         SETREG32(&m_pbRegisters->MMCHS_HCTL, val2);

  00084	e590215c	 ldr         r2, [r0, #0x15C]
  00088	e5923128	 ldr         r3, [r2, #0x128]
  0008c	e183300e	 orr         r3, r3, lr
  00090	e5823128	 str         r3, [r2, #0x128]

; 658  :         return;
; 659  :     }
; 660  : }

  00094	e49de004	 ldr         lr, [sp], #4
  00098	e12fff1e	 bx          lr
  0009c		 |$LN10@SetSDVSVol|

; 654  :     }
; 655  :     else
; 656  :     {
; 657  :         RETAILMSG(SDCARD_ZONE_WARN, (L"MMC Slot number is not Valid\r\n"));

  0009c	e59f3018	 ldr         r3, [pc, #0x18]
  000a0	e5933440	 ldr         r3, [r3, #0x440]
  000a4	e3130901	 tst         r3, #1, 18
  000a8	159f0008	 ldrne       r0, [pc, #8]
  000ac	1b000000	 blne        NKDbgPrintfW

; 658  :         return;
; 659  :     }
; 660  : }

  000b0	e49de004	 ldr         lr, [sp], #4
  000b4	e12fff1e	 bx          lr
  000b8		 |$LN30@SetSDVSVol|
  000b8		 |$LN31@SetSDVSVol|
  000b8	00000000	 DCD         |??_C@_1DO@OCDBIGLO@?$AAM?$AAM?$AAC?$AA?5?$AAS?$AAl?$AAo?$AAt?$AA?5?$AAn?$AAu?$AAm?$AAb?$AAe?$AAr?$AA?5?$AAi?$AAs?$AA?5?$AAn?$AAo?$AAt?$AA?5?$AAV?$AAa?$AAl?$AAi?$AAd?$AA?$AN?$AA?6?$AA?$AA@|
  000bc		 |$LN32@SetSDVSVol|
  000bc	00000000	 DCD         |dpCurSettings|
  000c0		 |$M44943|

			 ENDP  ; |?SetSDVSVoltage@CSDIOControllerBase@@QAAXXZ|, CSDIOControllerBase::SetSDVSVoltage

	EXPORT	|?UpdateDevicePowerState@CSDIOControllerBase@@QAAXH@Z| ; CSDIOControllerBase::UpdateDevicePowerState
	IMPORT	|SetDevicePowerState|

  00000			 AREA	 |.pdata|, PDATA
|$T44962| DCD	|$LN16@UpdateDevi|
	DCD	0x40003101
; Function compile flags: /Ogspy

  00000			 AREA	 |.text|, CODE, ARM

  00000		 |?UpdateDevicePowerState@CSDIOControllerBase@@QAAXH@Z| PROC ; CSDIOControllerBase::UpdateDevicePowerState

; 841  : {

  00000		 |$LN16@UpdateDevi|
  00000	e92d4070	 stmdb       sp!, {r4 - r6, lr}
  00004		 |$M44959|
  00004	e1a06001	 mov         r6, r1
  00008	e1a05000	 mov         r5, r0

; 842  :     CEDEVICE_POWER_STATE curPowerState = D4;
; 843  : 
; 844  :     // if card is present then lowest power state is D3
; 845  :     if (m_fCardPresent)

  0000c	e59530f0	 ldr         r3, [r5, #0xF0]
  00010	e3a04004	 mov         r4, #4
  00014	e3530000	 cmp         r3, #0

; 846  :         curPowerState = D3;
; 847  : 
; 848  :     curPowerState = min(curPowerState, m_InternPowerState);

  00018	e59530dc	 ldr         r3, [r5, #0xDC]
  0001c	13a04003	 movne       r4, #3
  00020	e1540003	 cmp         r4, r3
  00024	a1a04003	 movge       r4, r3

; 849  : 
; 850  :     if((m_ActualPowerState == D4 && curPowerState < D4 ) || (m_ActualPowerState < D4 && curPowerState == D4 ))

  00028	e59530e0	 ldr         r3, [r5, #0xE0]
  0002c	e3530004	 cmp         r3, #4
  00030	1a000002	 bne         |$LN12@UpdateDevi|
  00034	e3540004	 cmp         r4, #4
  00038	ba000003	 blt         |$LN5@UpdateDevi|
  0003c	e3530004	 cmp         r3, #4
  00040		 |$LN12@UpdateDevi|
  00040	aa000008	 bge         |$LN6@UpdateDevi|
  00044	e3540004	 cmp         r4, #4
  00048	1a000006	 bne         |$LN6@UpdateDevi|
  0004c		 |$LN5@UpdateDevi|

; 851  :         PreparePowerChange(curPowerState, bInPowerHandler);

  0004c	e5953000	 ldr         r3, [r5]
  00050	e1a02006	 mov         r2, r6
  00054	e1a01004	 mov         r1, r4
  00058	e593301c	 ldr         r3, [r3, #0x1C]
  0005c	e1a00005	 mov         r0, r5
  00060	e1a0e00f	 mov         lr, pc
  00064	e12fff13	 bx          r3
  00068		 |$LN6@UpdateDevi|

; 852  : 
; 853  :     SetDevicePowerState( m_hParentBus, curPowerState, NULL );

  00068	e59500ac	 ldr         r0, [r5, #0xAC]
  0006c	e3a02000	 mov         r2, #0
  00070	e1a01004	 mov         r1, r4
  00074	eb000000	 bl          SetDevicePowerState

; 854  : 
; 855  :     if((m_ActualPowerState == D4 && curPowerState < D4 ) || (m_ActualPowerState < D4 && curPowerState == D4 ))

  00078	e59530e0	 ldr         r3, [r5, #0xE0]
  0007c	e3530004	 cmp         r3, #4
  00080	1a000002	 bne         |$LN13@UpdateDevi|
  00084	e3540004	 cmp         r4, #4
  00088	ba000003	 blt         |$LN2@UpdateDevi|
  0008c	e3530004	 cmp         r3, #4
  00090		 |$LN13@UpdateDevi|
  00090	aa000008	 bge         |$LN3@UpdateDevi|
  00094	e3540004	 cmp         r4, #4
  00098	1a000006	 bne         |$LN3@UpdateDevi|
  0009c		 |$LN2@UpdateDevi|

; 856  :         PostPowerChange(curPowerState, bInPowerHandler);

  0009c	e5953000	 ldr         r3, [r5]
  000a0	e1a02006	 mov         r2, r6
  000a4	e1a01004	 mov         r1, r4
  000a8	e5933020	 ldr         r3, [r3, #0x20]
  000ac	e1a00005	 mov         r0, r5
  000b0	e1a0e00f	 mov         lr, pc
  000b4	e12fff13	 bx          r3
  000b8		 |$LN3@UpdateDevi|

; 857  : 
; 858  :     m_ActualPowerState = curPowerState;

  000b8	e58540e0	 str         r4, [r5, #0xE0]

; 859  : }

  000bc	e8bd4070	 ldmia       sp!, {r4 - r6, lr}
  000c0	e12fff1e	 bx          lr
  000c4		 |$M44960|

			 ENDP  ; |?UpdateDevicePowerState@CSDIOControllerBase@@QAAXH@Z|, CSDIOControllerBase::UpdateDevicePowerState

	EXPORT	|?SendCmdNoResp@CSDIOControllerBase@@QAAJKK@Z| ; CSDIOControllerBase::SendCmdNoResp

  00000			 AREA	 |.pdata|, PDATA
|$T44991| DCD	|$LN19@SendCmdNoR|
	DCD	0x40002d01
; Function compile flags: /Ogspy

  00000			 AREA	 |.text|, CODE, ARM

  00000		 |?SendCmdNoResp@CSDIOControllerBase@@QAAJKK@Z| PROC ; CSDIOControllerBase::SendCmdNoResp

; 864  : {

  00000		 |$LN19@SendCmdNoR|
  00000	e92d4030	 stmdb       sp!, {r4, r5, lr}
  00004		 |$M44988|

; 865  :     DWORD MMC_CMD;
; 866  :     DWORD dwTimeout;
; 867  : 
; 868  :     OUTREG32(&m_pbRegisters->MMCHS_STAT, 0xFFFFFFFF);

  00004	e590315c	 ldr         r3, [r0, #0x15C]
  00008	e3e0e000	 mvn         lr, #0
  0000c	e3a05b4e	 mov         r5, #0x4E, 22
  00010	e583e130	 str         lr, [r3, #0x130]

; 869  :     dwTimeout = 80000;
; 870  :     while(((INREG32(&m_pbRegisters->MMCHS_PSTATE) & MMCHS_PSTAT_CMDI)) && (dwTimeout>0))

  00014	e590415c	 ldr         r4, [r0, #0x15C]
  00018	e385e080	 orr         lr, r5, #0x80
  0001c	ea000002	 b           |$LN16@SendCmdNoR|
  00020		 |$LL5@SendCmdNoR|
  00020	e35e0000	 cmp         lr, #0
  00024	0a000003	 beq         |$LN14@SendCmdNoR|

; 871  :     {
; 872  :         dwTimeout--;

  00028	e24ee001	 sub         lr, lr, #1
  0002c		 |$LN16@SendCmdNoR|

; 869  :     dwTimeout = 80000;
; 870  :     while(((INREG32(&m_pbRegisters->MMCHS_PSTATE) & MMCHS_PSTAT_CMDI)) && (dwTimeout>0))

  0002c	e5943124	 ldr         r3, [r4, #0x124]

; 871  :     {
; 872  :         dwTimeout--;

  00030	e3130001	 tst         r3, #1
  00034	1afffff9	 bne         |$LL5@SendCmdNoR|
  00038		 |$LN14@SendCmdNoR|

; 873  :     }
; 874  : 
; 875  :     MMC_CMD = MMCHS_INDX(cmd);
; 876  :     MMC_CMD |= LOOKUP_CMD(cmd).flags;

  00038	e351003c	 cmp         r1, #0x3C
  0003c	1a000004	 bne         |$LN8@SendCmdNoR|
  00040	e5903198	 ldr         r3, [r0, #0x198]
  00044	e3530000	 cmp         r3, #0
  00048	159f3060	 ldrne       r3, [pc, #0x60]
  0004c	12833c02	 addne       r3, r3, #2, 24
  00050	1a000001	 bne         |$LN9@SendCmdNoR|
  00054		 |$LN8@SendCmdNoR|
  00054	e59f3054	 ldr         r3, [pc, #0x54]
  00058	e0833181	 add         r3, r3, r1, lsl #3
  0005c		 |$LN9@SendCmdNoR|

; 877  : 
; 878  :     // Program the argument into the argument registers
; 879  :     OUTREG32(&m_pbRegisters->MMCHS_ARG, arg);

  0005c	e5933004	 ldr         r3, [r3, #4]
  00060	e5842108	 str         r2, [r4, #0x108]

; 880  :     // Issue the command.
; 881  :     OUTREG32(&m_pbRegisters->MMCHS_CMD, MMC_CMD);

  00064	e590215c	 ldr         r2, [r0, #0x15C]
  00068	e1833c01	 orr         r3, r3, r1, lsl #24
  0006c	e3a01c13	 mov         r1, #0x13, 24
  00070	e582310c	 str         r3, [r2, #0x10C]

; 882  : 
; 883  :     dwTimeout = 5000;

  00074	e590215c	 ldr         r2, [r0, #0x15C]
  00078	e3a03211	 mov         r3, #0x11, 4
  0007c	e3830801	 orr         r0, r3, #1, 16
  00080	e3811088	 orr         r1, r1, #0x88
  00084		 |$LL3@SendCmdNoR|

; 886  :     {
; 887  :         dwTimeout --;
; 888  :         dwVal = INREG32(&m_pbRegisters->MMCHS_STAT);

  00084	e5923130	 ldr         r3, [r2, #0x130]
  00088	e2411001	 sub         r1, r1, #1

; 889  :         if(dwVal & (MMCHS_STAT_CC | MMCHS_STAT_CTO | MMCHS_STAT_CERR)) break;

  0008c	e1130000	 tst         r3, r0
  00090	1a000001	 bne         |$LN12@SendCmdNoR|

; 884  :     DWORD dwVal;
; 885  :     while(dwTimeout > 0)

  00094	e3510000	 cmp         r1, #0
  00098	1afffff9	 bne         |$LL3@SendCmdNoR|
  0009c		 |$LN12@SendCmdNoR|

; 890  :     }
; 891  : 
; 892  :     dwVal = INREG32(&m_pbRegisters->MMCHS_STAT);

  0009c	e5923130	 ldr         r3, [r2, #0x130]

; 893  :     OUTREG32(&m_pbRegisters->MMCHS_STAT, dwVal);
; 894  : 
; 895  :     // always return 0 if no response needed
; 896  :     return SD_API_STATUS_SUCCESS;

  000a0	e3a00000	 mov         r0, #0
  000a4	e5823130	 str         r3, [r2, #0x130]

; 897  : }

  000a8	e8bd4030	 ldmia       sp!, {r4, r5, lr}
  000ac	e12fff1e	 bx          lr
  000b0		 |$LN20@SendCmdNoR|
  000b0		 |$LN21@SendCmdNoR|
  000b0	00000000	 DCD         |?gwaCMD@@3PAUCMD@@A|
  000b4		 |$M44989|

			 ENDP  ; |?SendCmdNoResp@CSDIOControllerBase@@QAAJKK@Z|, CSDIOControllerBase::SendCmdNoResp

	EXPORT	|?SendInitSequence@CSDIOControllerBase@@QAAXXZ| ; CSDIOControllerBase::SendInitSequence

  00000			 AREA	 |.pdata|, PDATA
|$T45003| DCD	|$LN10@SendInitSe|
	DCD	0x40001d01
; Function compile flags: /Ogspy

  00000			 AREA	 |.text|, CODE, ARM

  00000		 |?SendInitSequence@CSDIOControllerBase@@QAAXXZ| PROC ; CSDIOControllerBase::SendInitSequence

; 902  : {

  00000		 |$LN10@SendInitSe|
  00000	e92d4070	 stmdb       sp!, {r4 - r6, lr}
  00004		 |$M45000|
  00004	e1a04000	 mov         r4, r0

; 903  :     EnterCriticalSection( &m_critSec );

  00008	e28400b0	 add         r0, r4, #0xB0
  0000c	eb000000	 bl          EnterCriticalSection

; 904  :     OUTREG32(&m_pbRegisters->MMCHS_IE,  0xFFFFFEFF);

  00010	e594315c	 ldr         r3, [r4, #0x15C]
  00014	e3e02c01	 mvn         r2, #1, 24
  00018	e3a0500a	 mov         r5, #0xA
  0001c	e5832134	 str         r2, [r3, #0x134]

; 905  :     SETREG32(&m_pbRegisters->MMCHS_CON, MMCHS_CON_INIT);

  00020	e594215c	 ldr         r2, [r4, #0x15C]
  00024	e3e06000	 mvn         r6, #0
  00028	e592302c	 ldr         r3, [r2, #0x2C]
  0002c	e3833002	 orr         r3, r3, #2
  00030	e582302c	 str         r3, [r2, #0x2C]
  00034		 |$LL3@SendInitSe|

; 906  : 
; 907  :     DWORD dwCount;
; 908  :     for(dwCount = 0; dwCount < 10; dwCount ++)
; 909  :     {
; 910  :         SendCmdNoResp(SD_CMD_GO_IDLE_STATE, 0xFFFFFFFF);

  00034	e1a02006	 mov         r2, r6
  00038	e3a01000	 mov         r1, #0
  0003c	e1a00004	 mov         r0, r4
  00040	eb000000	 bl          |?SendCmdNoResp@CSDIOControllerBase@@QAAJKK@Z|
  00044	e2555001	 subs        r5, r5, #1
  00048	1afffff9	 bne         |$LL3@SendInitSe|

; 911  :     }
; 912  :     OUTREG32(&m_pbRegisters->MMCHS_STAT, 0xFFFFFFFF);

  0004c	e594315c	 ldr         r3, [r4, #0x15C]

; 913  :     CLRREG32(&m_pbRegisters->MMCHS_CON, MMCHS_CON_INIT);
; 914  :     LeaveCriticalSection( &m_critSec );

  00050	e28400b0	 add         r0, r4, #0xB0
  00054	e5836130	 str         r6, [r3, #0x130]
  00058	e594215c	 ldr         r2, [r4, #0x15C]
  0005c	e592302c	 ldr         r3, [r2, #0x2C]
  00060	e3c33002	 bic         r3, r3, #2
  00064	e582302c	 str         r3, [r2, #0x2C]
  00068	eb000000	 bl          LeaveCriticalSection

; 915  : }

  0006c	e8bd4070	 ldmia       sp!, {r4 - r6, lr}
  00070	e12fff1e	 bx          lr
  00074		 |$M45001|

			 ENDP  ; |?SendInitSequence@CSDIOControllerBase@@QAAXXZ|, CSDIOControllerBase::SendInitSequence

	EXPORT	|?SendCommand@CSDIOControllerBase@@QAAJPAU_SD_BUS_REQUEST@@@Z| ; CSDIOControllerBase::SendCommand
	IMPORT	|?SDIO_InitOutputDMA@CSDIOControllerBase@@QAAXKK@Z| ; CSDIOControllerBase::SDIO_InitOutputDMA
	IMPORT	|?SDIO_InitInputDMA@CSDIOControllerBase@@QAAXKK@Z| ; CSDIOControllerBase::SDIO_InitInputDMA

  00000			 AREA	 |.pdata|, PDATA
|$T45039| DCD	|$LN44@SendComman|
	DCD	0x4000a901
; Function compile flags: /Ogspy

  00000			 AREA	 |.text|, CODE, ARM

  00000		 |?SendCommand@CSDIOControllerBase@@QAAJPAU_SD_BUS_REQUEST@@@Z| PROC ; CSDIOControllerBase::SendCommand

; 920  : {

  00000		 |$LN44@SendComman|
  00000	e92d47f0	 stmdb       sp!, {r4 - r10, lr}
  00004		 |$M45036|
  00004	e1a05001	 mov         r5, r1
  00008	e1a04000	 mov         r4, r0

; 921  :     DWORD MMC_CMD;
; 922  :     DWORD dwTimeout;
; 923  :     DWORD Cmd = pRequest->CommandCode;
; 924  :     DWORD Arg = pRequest->CommandArgument;
; 925  :     UINT16 respType = (UINT16)pRequest->CommandResponse.ResponseType;

  0000c	e595301c	 ldr         r3, [r5, #0x1C]
  00010	e5d56014	 ldrb        r6, [r5, #0x14]

; 926  :     DWORD dwRegVal;
; 927  : 
; 928  :     m_TransferClass = pRequest->TransferClass;

  00014	e5952010	 ldr         r2, [r5, #0x10]
  00018	e5958018	 ldr         r8, [r5, #0x18]
  0001c	e1a07803	 mov         r7, r3, lsl #16
  00020	e1a07827	 mov         r7, r7, lsr #16
  00024	e58421d8	 str         r2, [r4, #0x1D8]

; 929  : 
; 930  :     DEBUGMSG(SHC_SEND_ZONE, (TEXT("SendCommand() - Cmd = 0x%x Arg = 0x%x respType = 0x%x m_TransferClass = 0x%x\r\n"),
; 931  :         Cmd, Arg, respType, m_TransferClass));
; 932  : 
; 933  :     if ((Cmd == SD_CMD_IO_RW_EXTENDED) || (Cmd == SD_CMD_IO_RW_DIRECT))

  00028	e3560035	 cmp         r6, #0x35
  0002c	e3a09000	 mov         r9, #0
  00030	e3a0a001	 mov         r10, #1
  00034	0a000007	 beq         |$LN24@SendComman|
  00038	e3560034	 cmp         r6, #0x34
  0003c	0a000005	 beq         |$LN24@SendComman|

; 936  :     } else
; 937  :     if ((Cmd == SD_CMD_MMC_SEND_OPCOND) || (Cmd == SD_CMD_GO_IDLE_STATE))

  00040	e3560001	 cmp         r6, #1
  00044	0a000001	 beq         |$LN21@SendComman|
  00048	e3560000	 cmp         r6, #0
  0004c	1a000002	 bne         |$LN22@SendComman|
  00050		 |$LN21@SendComman|

; 938  :     {
; 939  :         m_dwSDIOCard = 0;

  00050	e5849178	 str         r9, [r4, #0x178]
  00054	ea000000	 b           |$LN22@SendComman|
  00058		 |$LN24@SendComman|

; 934  :     {
; 935  :         m_dwSDIOCard = 1;

  00058	e584a178	 str         r10, [r4, #0x178]
  0005c		 |$LN22@SendComman|

; 940  :     }
; 941  : 
; 942  :     if( m_TransferClass == SD_READ || m_TransferClass == SD_WRITE )
; 943  :     {
; 944  :         DEBUGMSG(SHC_SDBUS_INTERACT_ZONE, (TEXT("SendCommand (Cmd=0x%08X, Arg=0x%08x, RespType=0x%08X, Data=0x%x <%dx%d>) starts\r\n"),
; 945  :             Cmd, Arg, respType, (m_TransferClass==SD_COMMAND)?FALSE:TRUE, pRequest->NumBlocks, pRequest->BlockSize ) );
; 946  : #ifdef ENABLE_RETAIL_OUTPUT
; 947  :         RETAILMSG(1, (TEXT("SendCommand (Cmd=0x%08X, Arg=0x%08x, RespType=0x%08X, Data=0x%x <%dx%d>) starts\r\n"),
; 948  :             Cmd, Arg, respType, (m_TransferClass==SD_COMMAND)?FALSE:TRUE, pRequest->NumBlocks, pRequest->BlockSize ) );
; 949  : #endif
; 950  :     }
; 951  :     else
; 952  :     {
; 953  :         DEBUGMSG(SHC_SDBUS_INTERACT_ZONE, (TEXT("SendCommand (Cmd=0x%08X, Arg=0x%08x, RespType=0x%08X, Data=0x%x) starts\r\n"),
; 954  :             Cmd, Arg, respType, (m_TransferClass==SD_COMMAND)?FALSE:TRUE) );
; 955  : #ifdef ENABLE_RETAIL_OUTPUT
; 956  :         RETAILMSG(1, (TEXT("SendCommand (Cmd=0x%08X, Arg=0x%08x, RespType=0x%08X, Data=0x%x) starts\r\n"),
; 957  :             Cmd, Arg, respType, (m_TransferClass==SD_COMMAND)?FALSE:TRUE) );
; 958  : #endif
; 959  :     }
; 960  : 
; 961  :     // turn the clock on
; 962  :     //if(!(pRequest->SystemFlags & SD_FAST_PATH_AVAILABLE))
; 963  :     //   UpdateSystemClock(TRUE);
; 964  : 
; 965  :     Write_MMC_STAT(0xFFFFFFFF);

  0005c	e28400b0	 add         r0, r4, #0xB0
  00060	eb000000	 bl          EnterCriticalSection
  00064	e594315c	 ldr         r3, [r4, #0x15C]
  00068	e3e02000	 mvn         r2, #0
  0006c	e28400b0	 add         r0, r4, #0xB0
  00070	e5832130	 str         r2, [r3, #0x130]
  00074	eb000000	 bl          LeaveCriticalSection

; 966  :     dwTimeout = 2000;
; 967  :     while(((INREG32(&m_pbRegisters->MMCHS_PSTATE) & MMCHS_PSTAT_CMDI)) && (dwTimeout>0))

  00078	e3a02e7d	 mov         r2, #0x7D, 28
  0007c	ea000002	 b           |$LN41@SendComman|
  00080		 |$LL17@SendComman|
  00080	e3520000	 cmp         r2, #0
  00084	0a000004	 beq         |$LN39@SendComman|

; 968  :     {
; 969  :         dwTimeout--;

  00088	e2422001	 sub         r2, r2, #1
  0008c		 |$LN41@SendComman|

; 966  :     dwTimeout = 2000;
; 967  :     while(((INREG32(&m_pbRegisters->MMCHS_PSTATE) & MMCHS_PSTAT_CMDI)) && (dwTimeout>0))

  0008c	e594315c	 ldr         r3, [r4, #0x15C]

; 968  :     {
; 969  :         dwTimeout--;

  00090	e5933124	 ldr         r3, [r3, #0x124]
  00094	e3130001	 tst         r3, #1
  00098	1afffff8	 bne         |$LL17@SendComman|
  0009c		 |$LN39@SendComman|

; 970  :     }
; 971  :     MMC_CMD = MMCHS_INDX(Cmd);
; 972  : 
; 973  :     // CMD6 is defined differently in MMC and SD specifications, try to identify them here 
; 974  :     // and use appropriate controller settings. 
; 975  :     if (IS_SDHC_SWITCH_COMMAND(pRequest,Cmd))

  0009c	e5943198	 ldr         r3, [r4, #0x198]
  000a0	e1b02003	 movs        r2, r3
  000a4	0a000006	 beq         |$LN15@SendComman|
  000a8	e5953010	 ldr         r3, [r5, #0x10]
  000ac	e3530000	 cmp         r3, #0
  000b0	03560006	 cmpeq       r6, #6

; 976  :     	{
; 977  :         DEBUGMSG(SHC_SDBUS_INTERACT_ZONE,(TEXT("SendCommand:: branch for switch command\r\n")));
; 978  :         MMC_CMD |= ADJUST_FOR_SDHC_SWITCH_CMD(Cmd);

  000b4	059f31e4	 ldreq       r3, [pc, #0x1E4]
  000b8	05933204	 ldreq       r3, [r3, #0x204]
  000bc	01833c06	 orreq       r3, r3, r6, lsl #24
  000c0	0a00000c	 beq         |$LN13@SendComman|
  000c4		 |$LN15@SendComman|

; 979  :     	}
; 980  :     else
; 981  :         MMC_CMD |= LOOKUP_CMD(Cmd).flags;

  000c4	e356003c	 cmp         r6, #0x3C
  000c8	1a000003	 bne         |$LN32@SendComman|
  000cc	e3520000	 cmp         r2, #0
  000d0	159f31c8	 ldrne       r3, [pc, #0x1C8]
  000d4	12833c02	 addne       r3, r3, #2, 24
  000d8	1a000001	 bne         |$LN33@SendComman|
  000dc		 |$LN32@SendComman|
  000dc	e59f31bc	 ldr         r3, [pc, #0x1BC]
  000e0	e0833186	 add         r3, r3, r6, lsl #3
  000e4		 |$LN33@SendComman|
  000e4	e5933004	 ldr         r3, [r3, #4]

; 982  : 	
; 983  :     if ((Cmd == SD_CMD_SELECT_DESELECT_CARD) && (respType == NoResponse))

  000e8	e3560007	 cmp         r6, #7
  000ec	03570000	 cmpeq       r7, #0
  000f0	e1833c06	 orr         r3, r3, r6, lsl #24

; 984  :     {
; 985  :         MMC_CMD &= ~MMCHS_RSP_MASK;

  000f4	03c33803	 biceq       r3, r3, #3, 16
  000f8		 |$LN13@SendComman|

; 986  :         MMC_CMD |= MMCHS_RSP_NONE;
; 987  :     }
; 988  : 
; 989  :     m_fDMATransfer = FALSE;
; 990  :     MMC_CMD &= ~MMCHS_CMD_DE;

  000f8	e3c37001	 bic         r7, r3, #1
  000fc	e5849110	 str         r9, [r4, #0x110]

; 991  : 
; 992  :     if (Cmd == SD_CMD_IO_RW_EXTENDED)

  00100	e3560035	 cmp         r6, #0x35
  00104	1a000002	 bne         |$LN11@SendComman|

; 993  :     {
; 994  :         if(pRequest->NumBlocks > 1)

  00108	e595303c	 ldr         r3, [r5, #0x3C]
  0010c	e3530001	 cmp         r3, #1

; 995  :         {
; 996  :            MMC_CMD |= MMCHS_CMD_MSBS | MMCHS_CMD_BCE;

  00110	83877022	 orrhi       r7, r7, #0x22
  00114		 |$LN11@SendComman|

; 997  :         }
; 998  :     }
; 999  : 
; 1000 :     if( m_TransferClass == SD_READ )

  00114	e59431d8	 ldr         r3, [r4, #0x1D8]
  00118	e3530000	 cmp         r3, #0
  0011c	1a000025	 bne         |$LN10@SendComman|

; 1001 :     {
; 1002 :         MMC_CMD |= MMCHS_CMD_DDIR;
; 1003 : 
; 1004 : #ifdef SDIO_DMA_READ_ENABLED
; 1005 :        // if we can use the DMA for transfer...
; 1006 :        if( ((( pRequest->NumBlocks > 1) && !(pRequest->SystemFlags & SD_FAST_PATH_AVAILABLE)) || 
; 1007 :        (( pRequest->NumBlocks > 0) && (pRequest->SystemFlags & SD_FAST_PATH_AVAILABLE))) &&
; 1008 :             ( TRANSFER_SIZE(pRequest) % MIN_MMC_BLOCK_SIZE == 0 ) &&
; 1009 :             ( TRANSFER_SIZE(pRequest) <= m_dwDMABufferSize ) )

  00120	e595203c	 ldr         r2, [r5, #0x3C]
  00124	e3877010	 orr         r7, r7, #0x10
  00128	e3520001	 cmp         r2, #1
  0012c	9a000002	 bls         |$LN7@SendComman|
  00130	e595300c	 ldr         r3, [r5, #0xC]
  00134	e3130102	 tst         r3, #2, 2
  00138	0a000004	 beq         |$LN8@SendComman|
  0013c		 |$LN7@SendComman|
  0013c	e3520000	 cmp         r2, #0
  00140	0a000043	 beq         |$LN4@SendComman|
  00144	e595300c	 ldr         r3, [r5, #0xC]
  00148	e3130102	 tst         r3, #2, 2
  0014c	0a000040	 beq         |$LN4@SendComman|
  00150		 |$LN8@SendComman|
  00150	e5953040	 ldr         r3, [r5, #0x40]
  00154	e0010392	 mul         r1, r2, r3
  00158	e3110003	 tst         r1, #3
  0015c	1a00003c	 bne         |$LN4@SendComman|
  00160	e59431fc	 ldr         r3, [r4, #0x1FC]
  00164	e1510003	 cmp         r1, r3
  00168	8a000039	 bhi         |$LN4@SendComman|

; 1010 :         {
; 1011 :             MMC_CMD |= MMCHS_CMD_DE;
; 1012 :             m_fDMATransfer = TRUE;
; 1013 :             // program the DMA controller
; 1014 :             EnterCriticalSection( &m_critSec );

  0016c	e28400b0	 add         r0, r4, #0xB0
  00170	e3877001	 orr         r7, r7, #1
  00174	e584a110	 str         r10, [r4, #0x110]
  00178	eb000000	 bl          EnterCriticalSection

; 1015 :             SETREG32(&m_pbRegisters->MMCHS_IE, MMCHS_IE_BRR);

  0017c	e594215c	 ldr         r2, [r4, #0x15C]

; 1016 :             SETREG32(&m_pbRegisters->MMCHS_ISE, MMCHS_IE_BRR);
; 1017 :             LeaveCriticalSection( &m_critSec );

  00180	e28400b0	 add         r0, r4, #0xB0
  00184	e5923134	 ldr         r3, [r2, #0x134]
  00188	e3833020	 orr         r3, r3, #0x20
  0018c	e5823134	 str         r3, [r2, #0x134]
  00190	e594215c	 ldr         r2, [r4, #0x15C]
  00194	e5923138	 ldr         r3, [r2, #0x138]
  00198	e3833020	 orr         r3, r3, #0x20
  0019c	e5823138	 str         r3, [r2, #0x138]
  001a0	eb000000	 bl          LeaveCriticalSection

; 1018 :             SDIO_InitInputDMA( pRequest->NumBlocks,  pRequest->BlockSize);

  001a4	e5952040	 ldr         r2, [r5, #0x40]
  001a8	e595103c	 ldr         r1, [r5, #0x3C]
  001ac	e1a00004	 mov         r0, r4
  001b0	eb000000	 bl          |?SDIO_InitInputDMA@CSDIOControllerBase@@QAAXKK@Z|

; 1019 :         }
; 1020 : #endif
; 1021 :         dwRegVal = (DWORD)(pRequest->BlockSize & 0xFFFF);
; 1022 :         dwRegVal += ((DWORD)(pRequest->NumBlocks & 0xFFFF)) << 16;
; 1023 :         OUTREG32(&m_pbRegisters->MMCHS_BLK, dwRegVal);

  001b4	ea000026	 b           |$LN4@SendComman|
  001b8		 |$LN10@SendComman|

; 1024 :     }
; 1025 :     else if( m_TransferClass == SD_WRITE )

  001b8	e3530001	 cmp         r3, #1
  001bc	1a00002c	 bne         |$LN5@SendComman|

; 1026 :     {
; 1027 :         MMC_CMD &= ~MMCHS_CMD_DDIR;
; 1028 : 
; 1029 : #ifdef SDIO_DMA_WRITE_ENABLED
; 1030 :         // if we can use the DMA for transfer...
; 1031 :        if( ((( pRequest->NumBlocks > 1) && !(pRequest->SystemFlags & SD_FAST_PATH_AVAILABLE)) || 
; 1032 :        (( pRequest->NumBlocks > 0) && (pRequest->SystemFlags & SD_FAST_PATH_AVAILABLE))) &&
; 1033 :             ( TRANSFER_SIZE(pRequest) % MIN_MMC_BLOCK_SIZE == 0 ) &&
; 1034 :             ( TRANSFER_SIZE(pRequest) <= m_dwDMABufferSize ) )

  001c0	e595203c	 ldr         r2, [r5, #0x3C]
  001c4	e3c77010	 bic         r7, r7, #0x10
  001c8	e3520001	 cmp         r2, #1
  001cc	9a000002	 bls         |$LN2@SendComman|
  001d0	e595300c	 ldr         r3, [r5, #0xC]
  001d4	e3130102	 tst         r3, #2, 2
  001d8	0a000004	 beq         |$LN3@SendComman|
  001dc		 |$LN2@SendComman|
  001dc	e3520000	 cmp         r2, #0
  001e0	0a00001b	 beq         |$LN4@SendComman|
  001e4	e595300c	 ldr         r3, [r5, #0xC]
  001e8	e3130102	 tst         r3, #2, 2
  001ec	0a000018	 beq         |$LN4@SendComman|
  001f0		 |$LN3@SendComman|
  001f0	e5953040	 ldr         r3, [r5, #0x40]
  001f4	e0010392	 mul         r1, r2, r3
  001f8	e3110003	 tst         r1, #3
  001fc	1a000014	 bne         |$LN4@SendComman|
  00200	e59431fc	 ldr         r3, [r4, #0x1FC]
  00204	e1510003	 cmp         r1, r3
  00208	8a000011	 bhi         |$LN4@SendComman|

; 1035 :         {
; 1036 :             MMC_CMD |= MMCHS_CMD_DE;
; 1037 :             m_fDMATransfer = TRUE;
; 1038 :             // program the DMA controller
; 1039 :             EnterCriticalSection( &m_critSec );

  0020c	e28400b0	 add         r0, r4, #0xB0
  00210	e3877001	 orr         r7, r7, #1
  00214	e584a110	 str         r10, [r4, #0x110]
  00218	eb000000	 bl          EnterCriticalSection

; 1040 :             SETREG32(&m_pbRegisters->MMCHS_IE, MMCHS_IE_BWR);

  0021c	e594215c	 ldr         r2, [r4, #0x15C]

; 1041 :             SETREG32(&m_pbRegisters->MMCHS_ISE, MMCHS_ISE_BWR);
; 1042 :             LeaveCriticalSection( &m_critSec );

  00220	e28400b0	 add         r0, r4, #0xB0
  00224	e5923134	 ldr         r3, [r2, #0x134]
  00228	e3833010	 orr         r3, r3, #0x10
  0022c	e5823134	 str         r3, [r2, #0x134]
  00230	e594215c	 ldr         r2, [r4, #0x15C]
  00234	e5923138	 ldr         r3, [r2, #0x138]
  00238	e3833010	 orr         r3, r3, #0x10
  0023c	e5823138	 str         r3, [r2, #0x138]
  00240	eb000000	 bl          LeaveCriticalSection

; 1043 :             SDIO_InitOutputDMA( pRequest->NumBlocks,  pRequest->BlockSize );

  00244	e5952040	 ldr         r2, [r5, #0x40]
  00248	e595103c	 ldr         r1, [r5, #0x3C]
  0024c	e1a00004	 mov         r0, r4
  00250	eb000000	 bl          |?SDIO_InitOutputDMA@CSDIOControllerBase@@QAAXKK@Z|
  00254		 |$LN4@SendComman|

; 1044 :         }
; 1045 : #endif
; 1046 :         dwRegVal = (DWORD)(pRequest->BlockSize & 0xFFFF);

  00254	e5950040	 ldr         r0, [r5, #0x40]
  00258	e3a03cff	 mov         r3, #0xFF, 24

; 1047 :         dwRegVal += ((DWORD)(pRequest->NumBlocks & 0xFFFF)) << 16;

  0025c	e595203c	 ldr         r2, [r5, #0x3C]
  00260	e38330ff	 orr         r3, r3, #0xFF

; 1048 :         OUTREG32(&m_pbRegisters->MMCHS_BLK, dwRegVal);

  00264	e594115c	 ldr         r1, [r4, #0x15C]
  00268	e0003003	 and         r3, r0, r3
  0026c	e0833802	 add         r3, r3, r2, lsl #16
  00270	e5813104	 str         r3, [r1, #0x104]
  00274		 |$LN5@SendComman|

; 1049 :     }
; 1050 :     //check for card initialization is done.
; 1051 :     if(!m_fCardInitialized && (Cmd == SD_CMD_READ_SINGLE_BLOCK))

  00274	e594313c	 ldr         r3, [r4, #0x13C]

; 1052 :         m_fCardInitialized = TRUE;
; 1053 : 
; 1054 :     // Program the argument into the argument registers
; 1055 :     OUTREG32(&m_pbRegisters->MMCHS_ARG, Arg);
; 1056 : 
; 1057 :     DEBUGMSG(SHC_SEND_ZONE, (TEXT("SendCommand() - registers:Command = 0x%x, MMCHS_ARG = 0x%x%x\r\n"), MMC_CMD, INREG32(&m_pbRegisters->MMCHS_ARG)));
; 1058 : 
; 1059 :     // Issue the command.
; 1060 :     OUTREG32(&m_pbRegisters->MMCHS_CMD, MMC_CMD);
; 1061 : 
; 1062 :     return SD_API_STATUS_SUCCESS;

  00278	e3a00000	 mov         r0, #0
  0027c	e3530000	 cmp         r3, #0
  00280	e594315c	 ldr         r3, [r4, #0x15C]
  00284	03560011	 cmpeq       r6, #0x11
  00288	0584a13c	 streq       r10, [r4, #0x13C]
  0028c	e5838108	 str         r8, [r3, #0x108]
  00290	e594315c	 ldr         r3, [r4, #0x15C]
  00294	e583710c	 str         r7, [r3, #0x10C]

; 1063 : }

  00298	e8bd47f0	 ldmia       sp!, {r4 - r10, lr}
  0029c	e12fff1e	 bx          lr
  002a0		 |$LN45@SendComman|
  002a0		 |$LN46@SendComman|
  002a0	00000000	 DCD         |?gwaCMD@@3PAUCMD@@A|
  002a4		 |$M45037|

			 ENDP  ; |?SendCommand@CSDIOControllerBase@@QAAJPAU_SD_BUS_REQUEST@@@Z|, CSDIOControllerBase::SendCommand

	EXPORT	|?CardInterrupt@CSDIOControllerBase@@QAAXH@Z| ; CSDIOControllerBase::CardInterrupt
; File c:\wince600\public\common\sdk\inc\kfuncs.h

  00000			 AREA	 |.pdata|, PDATA
|$T45056| DCD	|$LN9@CardInterr|
	DCD	0x40001201
; Function compile flags: /Ogspy
; File c:\wince600\platform\common\src\soc\common_ti_v1\common_ti\sdhc\base\sdhc.cpp

  00000			 AREA	 |.text|, CODE, ARM

  00000		 |?CardInterrupt@CSDIOControllerBase@@QAAXH@Z| PROC ; CSDIOControllerBase::CardInterrupt

; 1070 : {

  00000		 |$LN9@CardInterr|
  00000	e92d4030	 stmdb       sp!, {r4, r5, lr}
  00004		 |$M45053|
  00004	e1a04001	 mov         r4, r1
  00008	e1a05000	 mov         r5, r0

; 1071 :     DEBUGMSG(SDCARD_ZONE_INIT, (TEXT("CardInterrupt(%d)\r\n"), bInsert));
; 1072 : 
; 1073 :     EnterCriticalSection( &m_critSec );

  0000c	e28500b0	 add         r0, r5, #0xB0
  00010	eb000000	 bl          EnterCriticalSection

; 1074 :     m_CardDetectInterruptStatus |= (bInsert ? EXT_MMCHS_STAT_CD_INSERT_INTR : EXT_MMCHS_STAT_CD_REMOVE_INTR);

  00014	e59531f4	 ldr         r3, [r5, #0x1F4]
  00018	e3540000	 cmp         r4, #0
  0001c	13a02102	 movne       r2, #2, 2
  00020	03a02101	 moveq       r2, #1, 2

; 1075 :     LeaveCriticalSection( &m_critSec );

  00024	e1833002	 orr         r3, r3, r2
  00028	e28500b0	 add         r0, r5, #0xB0
  0002c	e58531f4	 str         r3, [r5, #0x1F4]
  00030	eb000000	 bl          LeaveCriticalSection

; 1076 : 
; 1077 :     SetEvent(m_hControllerISTEvent);

  00034	e5950118	 ldr         r0, [r5, #0x118]
  00038	e3a01003	 mov         r1, #3
  0003c	eb000000	 bl          EventModify

; 1078 : }

  00040	e8bd4030	 ldmia       sp!, {r4, r5, lr}
  00044	e12fff1e	 bx          lr
  00048		 |$M45054|

			 ENDP  ; |?CardInterrupt@CSDIOControllerBase@@QAAXH@Z|, CSDIOControllerBase::CardInterrupt

	EXPORT	|?HandleInsertion@CSDIOControllerBase@@QAAXXZ| ; CSDIOControllerBase::HandleInsertion

  00000			 AREA	 |.pdata|, PDATA
|$T45070| DCD	|$LN13@HandleInse|
	DCD	0x40003c02
; Function compile flags: /Ogspy

  00000			 AREA	 |.text|, CODE, ARM

  00000		 |?HandleInsertion@CSDIOControllerBase@@QAAXXZ| PROC ; CSDIOControllerBase::HandleInsertion

; 1197 : {

  00000		 |$LN13@HandleInse|
  00000	e92d4030	 stmdb       sp!, {r4, r5, lr}
  00004	e24dd004	 sub         sp, sp, #4
  00008		 |$M45067|
  00008	e1a04000	 mov         r4, r0

; 1198 :     DWORD dwClockRate = SD_DEFAULT_CARD_ID_CLOCK_RATE;
; 1199 : 
; 1200 :     DEBUGMSG(SDCARD_ZONE_INIT, (TEXT("HandleInsertion\r\n")));
; 1201 : 
; 1202 :     m_fCardPresent = TRUE;
; 1203 :     m_dwSDIOCard = 0;
; 1204 : 
; 1205 :     // turn power to the card on
; 1206 :     TurnCardPowerOn();

  0000c	e5943000	 ldr         r3, [r4]
  00010	e3a02b61	 mov         r2, #0x61, 22
  00014	e3822e2a	 orr         r2, r2, #0x2A, 28
  00018	e5933014	 ldr         r3, [r3, #0x14]
  0001c	e3a01001	 mov         r1, #1
  00020	e3a05000	 mov         r5, #0
  00024	e58d2000	 str         r2, [sp]
  00028	e58410f0	 str         r1, [r4, #0xF0]
  0002c	e5845178	 str         r5, [r4, #0x178]
  00030	e1a0e00f	 mov         lr, pc
  00034	e12fff13	 bx          r3

; 1207 : 
; 1208 :     SoftwareReset(SOFT_RESET_ALL);

  00038	e3a01401	 mov         r1, #1, 8
  0003c	e1a00004	 mov         r0, r4
  00040	eb000000	 bl          |?SoftwareReset@CSDIOControllerBase@@QAAXK@Z|

; 1209 : 
; 1210 :     // Check for debounce stable
; 1211 :     DWORD dwTimeout = 5000;
; 1212 :     while(((INREG32(&m_pbRegisters->MMCHS_PSTATE) & 0x00020000)!= 0x00020000) && (dwTimeout>0))

  00044	e594115c	 ldr         r1, [r4, #0x15C]
  00048	e3a03c13	 mov         r3, #0x13, 24
  0004c	e3832088	 orr         r2, r3, #0x88
  00050	e5913124	 ldr         r3, [r1, #0x124]
  00054	ea000004	 b           |$LN10@HandleInse|
  00058		 |$LL3@HandleInse|
  00058	e3520000	 cmp         r2, #0
  0005c	0a000005	 beq         |$LN8@HandleInse|
  00060	e594315c	 ldr         r3, [r4, #0x15C]

; 1213 :     {
; 1214 :         dwTimeout--;

  00064	e2422001	 sub         r2, r2, #1
  00068	e5933124	 ldr         r3, [r3, #0x124]
  0006c		 |$LN10@HandleInse|
  0006c	e2033802	 and         r3, r3, #2, 16
  00070	e3530802	 cmp         r3, #2, 16
  00074	1afffff7	 bne         |$LL3@HandleInse|
  00078		 |$LN8@HandleInse|

; 1215 :     }
; 1216 : 
; 1217 :     OUTREG32(&m_pbRegisters->MMCHS_CON, 0x01 << 7); // CDP

  00078	e3a03080	 mov         r3, #0x80

; 1218 : 
; 1219 :     SetSDVSVoltage();

  0007c	e1a00004	 mov         r0, r4
  00080	e581302c	 str         r3, [r1, #0x2C]
  00084	eb000000	 bl          |?SetSDVSVoltage@CSDIOControllerBase@@QAAXXZ|

; 1220 : 
; 1221 :     SetClockRate(&dwClockRate);

  00088	e28d1000	 add         r1, sp, #0
  0008c	e1a00004	 mov         r0, r4
  00090	eb000000	 bl          |?SetClockRate@CSDIOControllerBase@@QAAXPAK@Z|

; 1222 :     if (m_LowVoltageSlot && m_dwSlot == MMCSLOT_1 && m_dwCPURev == CPU_FAMILY_35XX_REVISION_ES_2_1)

  00094	e594318c	 ldr         r3, [r4, #0x18C]
  00098	e3530000	 cmp         r3, #0
  0009c	0a000005	 beq         |$LN1@HandleInse|
  000a0	e5943170	 ldr         r3, [r4, #0x170]
  000a4	e3530001	 cmp         r3, #1
  000a8	0594317c	 ldreq       r3, [r4, #0x17C]
  000ac	03530002	 cmpeq       r3, #2

; 1223 :     {
; 1224 :         SendInitSequence();

  000b0	01a00004	 moveq       r0, r4
  000b4	0b000000	 bleq        |?SendInitSequence@CSDIOControllerBase@@QAAXXZ|
  000b8		 |$LN1@HandleInse|

; 1225 :     }
; 1226 :     EnableSDHCInterrupts();

  000b8	e1a00004	 mov         r0, r4
  000bc	eb000000	 bl          |?EnableSDHCInterrupts@CSDIOControllerBase@@QAAXXZ|

; 1227 : 
; 1228 :     // indicate device arrival
; 1229 :     IndicateSlotStateChange(DeviceInserted);

  000c0	e59400a8	 ldr         r0, [r4, #0xA8]
  000c4	e3a02002	 mov         r2, #2
  000c8	e3a01000	 mov         r1, #0
  000cc	eb000000	 bl          SDHCDIndicateSlotStateChange

; 1230 : 
; 1231 :     TurnCardPowerOff();

  000d0	e5943000	 ldr         r3, [r4]
  000d4	e1a00004	 mov         r0, r4
  000d8	e5933018	 ldr         r3, [r3, #0x18]
  000dc	e1a0e00f	 mov         lr, pc
  000e0	e12fff13	 bx          r3

; 1232 : }

  000e4	e28dd004	 add         sp, sp, #4
  000e8	e8bd4030	 ldmia       sp!, {r4, r5, lr}
  000ec	e12fff1e	 bx          lr
  000f0		 |$M45068|

			 ENDP  ; |?HandleInsertion@CSDIOControllerBase@@QAAXXZ|, CSDIOControllerBase::HandleInsertion

	EXPORT	|??1CSDIOControllerBase@@QAA@XZ|	; CSDIOControllerBase::~CSDIOControllerBase
	IMPORT	|DeleteCriticalSection|

  00000			 AREA	 |.pdata|, PDATA
|$T45078| DCD	|$LN5@CSDIOContr@2|
	DCD	0x40000a01
; Function compile flags: /Ogspy

  00000			 AREA	 |.text|, CODE, ARM

  00000		 |??1CSDIOControllerBase@@QAA@XZ| PROC	; CSDIOControllerBase::~CSDIOControllerBase

; 1236 : {

  00000		 |$LN5@CSDIOContr@2|
  00000	e92d4010	 stmdb       sp!, {r4, lr}
  00004		 |$M45075|
  00004	e1a04000	 mov         r4, r0
  00008	e59f3014	 ldr         r3, [pc, #0x14]

; 1237 :     DeleteCriticalSection( &m_critSec );

  0000c	e48030b0	 str         r3, [r0], #0xB0
  00010	eb000000	 bl          DeleteCriticalSection

; 1238 :     DeleteCriticalSection( &m_powerCS );

  00014	e28400c4	 add         r0, r4, #0xC4
  00018	eb000000	 bl          DeleteCriticalSection

; 1239 : }

  0001c	e8bd4010	 ldmia       sp!, {r4, lr}
  00020	e12fff1e	 bx          lr
  00024		 |$LN6@CSDIOContr@2|
  00024		 |$LN7@CSDIOContr@2|
  00024	00000000	 DCD         |??_7CSDIOControllerBase@@6B@|
  00028		 |$M45076|

			 ENDP  ; |??1CSDIOControllerBase@@QAA@XZ|, CSDIOControllerBase::~CSDIOControllerBase

	EXPORT	|?FreeHostContext@CSDIOControllerBase@@QAAXHH@Z| ; CSDIOControllerBase::FreeHostContext
	IMPORT	|SDHCDDeleteContext|
	IMPORT	|GPIOClose|
	IMPORT	|CloseBusAccessHandle|
	IMPORT	|MmUnmapIoSpace|
	IMPORT	|SDHCDDeregisterHostController|

  00000			 AREA	 |.pdata|, PDATA
|$T45089| DCD	|$LN9@FreeHostCo|
	DCD	0x40002501
; Function compile flags: /Ogspy

  00000			 AREA	 |.text|, CODE, ARM

  00000		 |?FreeHostContext@CSDIOControllerBase@@QAAXHH@Z| PROC ; CSDIOControllerBase::FreeHostContext

; 1391 : {

  00000		 |$LN9@FreeHostCo|
  00000	e92d4030	 stmdb       sp!, {r4, r5, lr}
  00004		 |$M45086|
  00004	e3510000	 cmp         r1, #0
  00008	e1a04000	 mov         r4, r0

; 1392 :     UNREFERENCED_PARAMETER(fHardwareInitialized);
; 1393 :     DEBUGCHK(m_pHCContext);
; 1394 : 
; 1395 :     if (fRegisteredWithBusDriver)
; 1396 :     {
; 1397 :         // deregister the host controller
; 1398 :         SDHCDDeregisterHostController(m_pHCContext);

  0000c	159400a8	 ldrne       r0, [r4, #0xA8]
  00010	1b000000	 blne        SDHCDDeregisterHostController

; 1399 :     }
; 1400 : 
; 1401 :     // unmap hardware memory space
; 1402 : 
; 1403 :     DeinitializeHardware();

  00014	e5943000	 ldr         r3, [r4]
  00018	e1a00004	 mov         r0, r4
  0001c	e5933004	 ldr         r3, [r3, #4]
  00020	e1a0e00f	 mov         lr, pc
  00024	e12fff13	 bx          r3

; 1404 :     if (m_pbRegisters)  

  00028	e594315c	 ldr         r3, [r4, #0x15C]
  0002c	e3530000	 cmp         r3, #0

; 1405 : 	    MmUnmapIoSpace((PVOID)m_pbRegisters, sizeof(OMAP_MMCHS_REGS));

  00030	13a01c02	 movne       r1, #2, 24
  00034	11a00003	 movne       r0, r3
  00038	1b000000	 blne        MmUnmapIoSpace

; 1406 : 
; 1407 :     if( m_hParentBus != NULL )

  0003c	e59430ac	 ldr         r3, [r4, #0xAC]
  00040	e3a05000	 mov         r5, #0
  00044	e3530000	 cmp         r3, #0
  00048	0a000007	 beq         |$LN2@FreeHostCo|

; 1408 :     {
; 1409 :         TurnCardPowerOff();

  0004c	e5943000	 ldr         r3, [r4]
  00050	e1a00004	 mov         r0, r4
  00054	e5933018	 ldr         r3, [r3, #0x18]
  00058	e1a0e00f	 mov         lr, pc
  0005c	e12fff13	 bx          r3

; 1410 :         CloseBusAccessHandle( m_hParentBus );

  00060	e59400ac	 ldr         r0, [r4, #0xAC]
  00064	eb000000	 bl          CloseBusAccessHandle

; 1411 :         m_hParentBus = NULL;

  00068	e58450ac	 str         r5, [r4, #0xAC]
  0006c		 |$LN2@FreeHostCo|

; 1412 :     }
; 1413 : 
; 1414 :     if( m_hGPIO != NULL )

  0006c	e5943164	 ldr         r3, [r4, #0x164]
  00070	e3530000	 cmp         r3, #0
  00074	0a000002	 beq         |$LN1@FreeHostCo|

; 1415 :     {
; 1416 :         GPIOClose( m_hGPIO );

  00078	e1a00003	 mov         r0, r3
  0007c	eb000000	 bl          GPIOClose

; 1417 :         m_hGPIO = NULL;

  00080	e5845164	 str         r5, [r4, #0x164]
  00084		 |$LN1@FreeHostCo|

; 1418 :     }
; 1419 : 
; 1420 :     // cleanup the host context
; 1421 :     SDHCDDeleteContext(m_pHCContext);

  00084	e59400a8	 ldr         r0, [r4, #0xA8]
  00088	eb000000	 bl          SDHCDDeleteContext

; 1422 : }

  0008c	e8bd4030	 ldmia       sp!, {r4, r5, lr}
  00090	e12fff1e	 bx          lr
  00094		 |$M45087|

			 ENDP  ; |?FreeHostContext@CSDIOControllerBase@@QAAXHH@Z|, CSDIOControllerBase::FreeHostContext

	EXPORT	|?CheckIntrStatus@CSDIOControllerBase@@QAAJKPAK@Z| ; CSDIOControllerBase::CheckIntrStatus

  00000			 AREA	 |.pdata|, PDATA
|$T45106| DCD	|$LN13@CheckIntrS|
	DCD	0x40001e01
; Function compile flags: /Ogspy

  00000			 AREA	 |.text|, CODE, ARM

  00000		 |?CheckIntrStatus@CSDIOControllerBase@@QAAJKPAK@Z| PROC ; CSDIOControllerBase::CheckIntrStatus

; 1631 : {

  00000		 |$LN13@CheckIntrS|
  00000	e92d40f0	 stmdb       sp!, {r4 - r7, lr}
  00004		 |$M45103|
  00004	e1a06002	 mov         r6, r2
  00008	e1a07000	 mov         r7, r0

; 1632 :     SD_API_STATUS status        = SD_API_STATUS_PENDING;  
; 1633 :     DWORD         dwOverwrite   = 0;
; 1634 : 
; 1635 :     if( dwIntrStatus & MMCHS_STAT_CCRC ) // command CRC error

  0000c	e3110802	 tst         r1, #2, 16
  00010	e3a05001	 mov         r5, #1
  00014	e3a04000	 mov         r4, #0

; 1636 :         {
; 1637 :         status = SD_API_STATUS_CRC_ERROR;

  00018	13a05137	 movne       r5, #0x37, 2

; 1638 :         dwOverwrite |= MMCHS_STAT_CCRC;

  0001c	13a04802	 movne       r4, #2, 16

; 1639 :         DEBUGMSG(SDCARD_ZONE_ERROR, (TEXT("SDHControllerIstThread() - Got command CRC error!\r\n")));
; 1640 :         }
; 1641 :     if( dwIntrStatus & MMCHS_STAT_CTO ) // command response timeout

  00020	e3110801	 tst         r1, #1, 16

; 1642 :     {
; 1643 :         status = SD_API_STATUS_RESPONSE_TIMEOUT;

  00024	13a05153	 movne       r5, #0x53, 2

; 1644 :         dwOverwrite |= MMCHS_STAT_CTO;

  00028	13844801	 orrne       r4, r4, #1, 16

; 1645 :         DEBUGMSG(SDCARD_ZONE_ERROR, (TEXT("SDHControllerIstThread() - Got command response timeout!\r\n")));
; 1646 :         }
; 1647 :     if( dwIntrStatus & MMCHS_STAT_DTO ) // data timeout

  0002c	e3110601	 tst         r1, #1, 12

; 1648 :         {
; 1649 :         status = SD_API_STATUS_RESPONSE_TIMEOUT;

  00030	13a05153	 movne       r5, #0x53, 2

; 1650 :         dwOverwrite |= MMCHS_STAT_DTO;

  00034	13844601	 orrne       r4, r4, #1, 12

; 1651 :         DEBUGMSG(SDCARD_ZONE_ERROR, (TEXT("SDHControllerIstThread() - Got command response timeout!\r\n")));
; 1652 :         }
; 1653 :     if( dwIntrStatus & MMCHS_STAT_DCRC ) // data CRC error

  00038	e3110602	 tst         r1, #2, 12

; 1654 :         {
; 1655 :         status = SD_API_STATUS_RESPONSE_TIMEOUT;
; 1656 :         dwOverwrite |= MMCHS_STAT_DCRC;

  0003c	13844602	 orrne       r4, r4, #2, 12
  00040	13a05153	 movne       r5, #0x53, 2

; 1657 :         DEBUGMSG(SDCARD_ZONE_ERROR, (TEXT("SDHControllerIstThread() - Got command response timeout!\r\n")));
; 1658 :         }
; 1659 :     if( dwOverwrite ) // clear the status error bits

  00044	e3540000	 cmp         r4, #0
  00048	0a000005	 beq         |$LN9@CheckIntrS|

; 1660 :         {
; 1661 :         Write_MMC_STAT(dwOverwrite);

  0004c	e28700b0	 add         r0, r7, #0xB0
  00050	eb000000	 bl          EnterCriticalSection
  00054	e597315c	 ldr         r3, [r7, #0x15C]
  00058	e28700b0	 add         r0, r7, #0xB0
  0005c	e5834130	 str         r4, [r3, #0x130]
  00060	eb000000	 bl          LeaveCriticalSection
  00064		 |$LN9@CheckIntrS|

; 1662 :         }
; 1663 : 
; 1664 :     if (pOverwrite != NULL)

  00064	e3560000	 cmp         r6, #0

; 1665 :         {
; 1666 :         *pOverwrite = dwOverwrite;

  00068	15864000	 strne       r4, [r6]

; 1667 :         }
; 1668 : 
; 1669 :     return status;
; 1670 : }

  0006c	e1a00005	 mov         r0, r5
  00070	e8bd40f0	 ldmia       sp!, {r4 - r7, lr}
  00074	e12fff1e	 bx          lr
  00078		 |$M45104|

			 ENDP  ; |?CheckIntrStatus@CSDIOControllerBase@@QAAJKPAK@Z|, CSDIOControllerBase::CheckIntrStatus

	EXPORT	|?ProcessCommandTransferStatus@CSDIOControllerBase@@QAAJPAU_SD_BUS_REQUEST@@JK@Z| ; CSDIOControllerBase::ProcessCommandTransferStatus
	IMPORT	|SDHCDIndicateBusRequestComplete|

  00000			 AREA	 |.pdata|, PDATA
|$T45126| DCD	|$LN17@ProcessCom|
	DCD	0x40002a01
; Function compile flags: /Ogspy

  00000			 AREA	 |.text|, CODE, ARM

  00000		 |?ProcessCommandTransferStatus@CSDIOControllerBase@@QAAJPAU_SD_BUS_REQUEST@@JK@Z| PROC ; CSDIOControllerBase::ProcessCommandTransferStatus

; 1943 : {

  00000		 |$LN17@ProcessCom|
  00000	e92d4070	 stmdb       sp!, {r4 - r6, lr}
  00004		 |$M45123|
  00004	e1b06002	 movs        r6, r2
  00008	e1a05000	 mov         r5, r0

; 1944 :     UNREFERENCED_PARAMETER(dwStatusOverwrite);
; 1945 : 
; 1946 :     if( status == SD_API_STATUS_SUCCESS )

  0000c	1a00000d	 bne         |$LN4@ProcessCom|

; 1947 :         {
; 1948 :         if( m_fAppCmdMode )

  00010	e5953114	 ldr         r3, [r5, #0x114]
  00014	e3a02001	 mov         r2, #1
  00018	e3530000	 cmp         r3, #0

; 1949 :             {
; 1950 :             m_fAppCmdMode = FALSE;

  0001c	13a03000	 movne       r3, #0
  00020	15853114	 strne       r3, [r5, #0x114]
  00024	1a000004	 bne         |$LN5@ProcessCom|

; 1951 :             DEBUGMSG(SHC_SEND_ZONE, (TEXT("CSDIOControllerBase::ProcessCommandTransferStatus - Switched to Standard Command Mode\r\n")));
; 1952 :             }
; 1953 :         else if( pRequest && pRequest->CommandCode == 55 )

  00028	e3510000	 cmp         r1, #0
  0002c	0a000002	 beq         |$LN5@ProcessCom|
  00030	e5d13014	 ldrb        r3, [r1, #0x14]
  00034	e3530037	 cmp         r3, #0x37

; 1954 :             {
; 1955 :             m_fAppCmdMode = TRUE;

  00038	05852114	 streq       r2, [r5, #0x114]
  0003c		 |$LN5@ProcessCom|

; 1956 :             DEBUGMSG(SHC_SEND_ZONE, (TEXT("CSDIOControllerBase::ProcessCommandTransferStatus - Switched to Application Specific Command Mode\r\n")));
; 1957 :             }
; 1958 : 
; 1959 :         if( pRequest->CommandCode == SD_CMD_MMC_SEND_OPCOND )

  0003c	e5d13014	 ldrb        r3, [r1, #0x14]
  00040	e3530001	 cmp         r3, #1

; 1960 :             {
; 1961 :             DEBUGMSG(SHC_SDBUS_INTERACT_ZONE, (TEXT("CSDIOControllerBase::ProcessCommandTransferStatus Card is recognized as a MMC\r\n") ) );
; 1962 :             m_fMMCMode = TRUE;

  00044	058520f8	 streq       r2, [r5, #0xF8]
  00048		 |$LN4@ProcessCom|

; 1963 :             }
; 1964 :         }
; 1965 : 
; 1966 :     if(m_ActualPowerState == D4)

  00048	e59530e0	 ldr         r3, [r5, #0xE0]
  0004c	e3530004	 cmp         r3, #4
  00050	1a000005	 bne         |$LN3@ProcessCom|

; 1967 :         {
; 1968 :         if( pRequest != NULL )

  00054	e3510000	 cmp         r1, #0

; 1969 :             SDHCDIndicateBusRequestComplete(m_pHCContext, pRequest, status);

  00058	159500a8	 ldrne       r0, [r5, #0xA8]
  0005c	11a02006	 movne       r2, r6
  00060	1b000000	 blne        SDHCDIndicateBusRequestComplete

; 1970 :         return TRUE;

  00064	e3a06001	 mov         r6, #1
  00068	ea00000b	 b           |$LN9@ProcessCom|
  0006c		 |$LN3@ProcessCom|

; 1971 :         }
; 1972 : 
; 1973 : 
; 1974 :     // Clear the MMC_STAT register
; 1975 :     DWORD MMC_STAT = Read_MMC_STAT();

  0006c	e28500b0	 add         r0, r5, #0xB0
  00070	eb000000	 bl          EnterCriticalSection
  00074	e595315c	 ldr         r3, [r5, #0x15C]
  00078	e28500b0	 add         r0, r5, #0xB0
  0007c	e5934130	 ldr         r4, [r3, #0x130]
  00080	eb000000	 bl          LeaveCriticalSection

; 1976 :     Write_MMC_STAT(MMC_STAT);

  00084	e28500b0	 add         r0, r5, #0xB0
  00088	eb000000	 bl          EnterCriticalSection
  0008c	e595315c	 ldr         r3, [r5, #0x15C]
  00090	e28500b0	 add         r0, r5, #0xB0
  00094	e5834130	 str         r4, [r3, #0x130]
  00098	eb000000	 bl          LeaveCriticalSection

; 1977 : 
; 1978 :     if (MMC_STAT)
; 1979 :         {
; 1980 :         DEBUGMSG(SDCARD_ZONE_ERROR, (TEXT("+CSDIOControllerBase::ProcessCommandTransferStatus: status = %x\r\n"), MMC_STAT));
; 1981 :         }
; 1982 : 
; 1983 :     return status;

  0009c		 |$LN9@ProcessCom|

; 1984 : }

  0009c	e1a00006	 mov         r0, r6
  000a0	e8bd4070	 ldmia       sp!, {r4 - r6, lr}
  000a4	e12fff1e	 bx          lr
  000a8		 |$M45124|

			 ENDP  ; |?ProcessCommandTransferStatus@CSDIOControllerBase@@QAAJPAU_SD_BUS_REQUEST@@JK@Z|, CSDIOControllerBase::ProcessCommandTransferStatus

	EXPORT	|?StartDMAReceive@CSDIOControllerBase@@QAAHPAEK@Z| ; CSDIOControllerBase::StartDMAReceive
	IMPORT	|CacheRangeFlush|
	IMPORT	|?SDIO_StartInputDMA@CSDIOControllerBase@@QAAXXZ| ; CSDIOControllerBase::SDIO_StartInputDMA

  00000			 AREA	 |.pdata|, PDATA
|$T45147| DCD	|$LN12@StartDMARe|
	DCD	0x40002801
; Function compile flags: /Ogspy

  00000			 AREA	 |.text|, CODE, ARM

  00000		 |?StartDMAReceive@CSDIOControllerBase@@QAAHPAEK@Z| PROC ; CSDIOControllerBase::StartDMAReceive

; 1997 : {

  00000		 |$LN12@StartDMARe|
  00000	e92d41f0	 stmdb       sp!, {r4 - r8, lr}
  00004		 |$M45144|
  00004	e1a07002	 mov         r7, r2
  00008	e1a08001	 mov         r8, r1
  0000c	e1a05000	 mov         r5, r0

; 1998 :     BOOL    bRet = TRUE;
; 1999 : 
; 2000 :     DWORD MMC_STAT = Read_MMC_STAT();

  00010	e28500b0	 add         r0, r5, #0xB0
  00014	e3a06001	 mov         r6, #1
  00018	eb000000	 bl          EnterCriticalSection
  0001c	e595315c	 ldr         r3, [r5, #0x15C]
  00020	e28500b0	 add         r0, r5, #0xB0
  00024	e5934130	 ldr         r4, [r3, #0x130]
  00028	eb000000	 bl          LeaveCriticalSection

; 2001 : 
; 2002 :     Write_MMC_STAT(MMC_STAT);

  0002c	e28500b0	 add         r0, r5, #0xB0
  00030	eb000000	 bl          EnterCriticalSection
  00034	e595315c	 ldr         r3, [r5, #0x15C]
  00038	e28500b0	 add         r0, r5, #0xB0
  0003c	e5834130	 str         r4, [r3, #0x130]
  00040	eb000000	 bl          LeaveCriticalSection

; 2003 : 
; 2004 :     if( MMC_STAT & (MMCHS_STAT_DTO | MMCHS_STAT_DCRC))

  00044	e3140603	 tst         r4, #3, 12

; 2005 :         {
; 2006 :         DEBUGMSG(SDCARD_ZONE_ERROR, (TEXT("SDIDMAReceive() - exit: STAT register indicates MMC_STAT_DTO or MMC_STAT_DCRC error (%x).\r\n"), MMC_STAT));
; 2007 :         bRet = FALSE;

  00048	13a06000	 movne       r6, #0
  0004c	1a000010	 bne         |$LN1@StartDMARe|

; 2008 :         }
; 2009 :     else
; 2010 :         {
; 2011 :         EnterCriticalSection( &m_critSec );

  00050	e28500b0	 add         r0, r5, #0xB0
  00054	eb000000	 bl          EnterCriticalSection

; 2012 :         OUTREG32(&m_pbRegisters->MMCHS_STAT, 0xFFFFFFFF);

  00058	e595315c	 ldr         r3, [r5, #0x15C]
  0005c	e3e02000	 mvn         r2, #0

; 2013 :         LeaveCriticalSection( &m_critSec );

  00060	e28500b0	 add         r0, r5, #0xB0
  00064	e5832130	 str         r2, [r3, #0x130]
  00068	eb000000	 bl          LeaveCriticalSection

; 2014 : 
; 2015 :         m_pCurrentRecieveBuffer = pBuff;
; 2016 :         m_dwCurrentRecieveBufferLength = dwLen;
; 2017 : 
; 2018 :         // start the DMA
; 2019 :         SDIO_StartInputDMA();

  0006c	e1a00005	 mov         r0, r5
  00070	e58581ec	 str         r8, [r5, #0x1EC]
  00074	e58571f0	 str         r7, [r5, #0x1F0]
  00078	eb000000	 bl          |?SDIO_StartInputDMA@CSDIOControllerBase@@QAAXXZ|

; 2020 : 
; 2021 :         if (m_pCachedDmaBuffer != NULL)

  0007c	e5953100	 ldr         r3, [r5, #0x100]
  00080	e3530000	 cmp         r3, #0

; 2022 :             {
; 2023 :             CacheRangeFlush(m_pCachedDmaBuffer, m_dwCurrentRecieveBufferLength, TI_CACHE_SYNC_INVALIDATE);

  00084	159511f0	 ldrne       r1, [r5, #0x1F0]
  00088	13a02102	 movne       r2, #2, 2
  0008c	11a00003	 movne       r0, r3
  00090	1b000000	 blne        CacheRangeFlush
  00094		 |$LN1@StartDMARe|

; 2024 :             }
; 2025 :         }
; 2026 : 
; 2027 :     return bRet;
; 2028 : }

  00094	e1a00006	 mov         r0, r6
  00098	e8bd41f0	 ldmia       sp!, {r4 - r8, lr}
  0009c	e12fff1e	 bx          lr
  000a0		 |$M45145|

			 ENDP  ; |?StartDMAReceive@CSDIOControllerBase@@QAAHPAEK@Z|, CSDIOControllerBase::StartDMAReceive

	EXPORT	|?StartDMATransmit@CSDIOControllerBase@@QAAHPAEK@Z| ; CSDIOControllerBase::StartDMATransmit
	IMPORT	|?SDIO_StartOutputDMA@CSDIOControllerBase@@QAAXXZ| ; CSDIOControllerBase::SDIO_StartOutputDMA
	IMPORT	|SDPerformSafeCopy|

  00000			 AREA	 |.pdata|, PDATA
|$T45168| DCD	|$LN13@StartDMATr|
	DCD	0x40002901
; Function compile flags: /Ogspy

  00000			 AREA	 |.text|, CODE, ARM

  00000		 |?StartDMATransmit@CSDIOControllerBase@@QAAHPAEK@Z| PROC ; CSDIOControllerBase::StartDMATransmit

; 2040 : {

  00000		 |$LN13@StartDMATr|
  00000	e92d4070	 stmdb       sp!, {r4 - r6, lr}
  00004		 |$M45165|
  00004	e1a05000	 mov         r5, r0

; 2041 :     BOOL    bRet;
; 2042 : 
; 2043 :     // first copy the data to the DMA buffer, then to the user buffer, which maybe SG buffer,
; 2044 : #if 1
; 2045 :     // We use uncached DMA buffer instead of cached DMA for write operation because it give
; 2046 :     // better performance. 
; 2047 :     bRet = SDPerformSafeCopy( m_pDmaBuffer, pBuff, dwLen );

  00008	e59500fc	 ldr         r0, [r5, #0xFC]
  0000c	eb000000	 bl          SDPerformSafeCopy
  00010	e1b06000	 movs        r6, r0

; 2048 : #else
; 2049 :     if (m_pCachedDmaBuffer == NULL)
; 2050 :         {
; 2051 :         bRet = SDPerformSafeCopy( m_pDmaBuffer, pBuff, dwLen );
; 2052 :         }
; 2053 :     else
; 2054 :         {
; 2055 :         bRet = SDPerformSafeCopy( m_pCachedDmaBuffer, pBuff, dwLen );
; 2056 :         CacheRangeFlush(m_pCachedDmaBuffer, dwLen, CACHE_SYNC_WRITEBACK);
; 2057 :         }
; 2058 : #endif
; 2059 : 
; 2060 :     if( bRet == FALSE)

  00014	0a00001f	 beq         |$cleanUp$42951|

; 2061 :         {
; 2062 :         goto cleanUp;
; 2063 :         }
; 2064 : 
; 2065 :     DWORD MMC_STAT = Read_MMC_STAT();

  00018	e28500b0	 add         r0, r5, #0xB0
  0001c	eb000000	 bl          EnterCriticalSection
  00020	e595315c	 ldr         r3, [r5, #0x15C]
  00024	e28500b0	 add         r0, r5, #0xB0
  00028	e5934130	 ldr         r4, [r3, #0x130]
  0002c	eb000000	 bl          LeaveCriticalSection

; 2066 : 
; 2067 :     Write_MMC_STAT(MMC_STAT);

  00030	e28500b0	 add         r0, r5, #0xB0
  00034	eb000000	 bl          EnterCriticalSection
  00038	e595315c	 ldr         r3, [r5, #0x15C]
  0003c	e28500b0	 add         r0, r5, #0xB0
  00040	e5834130	 str         r4, [r3, #0x130]
  00044	eb000000	 bl          LeaveCriticalSection

; 2068 : 
; 2069 :     if( MMC_STAT & (MMCHS_STAT_DTO | MMCHS_STAT_DCRC))

  00048	e3140603	 tst         r4, #3, 12

; 2070 :         {
; 2071 :         DEBUGMSG(SDCARD_ZONE_ERROR, (TEXT("SDIDMATransmit() - exit: STAT register indicates MMC_STAT_DTO or MMC_STAT_DCRC error(%x).\r\n"), MMC_STAT));
; 2072 :         bRet = FALSE;

  0004c	13a06000	 movne       r6, #0
  00050	1a000010	 bne         |$cleanUp$42951|

; 2073 :         }
; 2074 :     else
; 2075 :         {
; 2076 :         // start the DMA
; 2077 :         EnterCriticalSection( &m_critSec );

  00054	e28500b0	 add         r0, r5, #0xB0
  00058	eb000000	 bl          EnterCriticalSection

; 2078 :         SETREG32(&m_pbRegisters->MMCHS_IE, MMCHS_IE_TC);

  0005c	e595215c	 ldr         r2, [r5, #0x15C]

; 2079 :         SETREG32(&m_pbRegisters->MMCHS_ISE, MMCHS_ISE_TC);
; 2080 :         OUTREG32(&m_pbRegisters->MMCHS_STAT, 0xFFFFFFFF);

  00060	e3e01000	 mvn         r1, #0

; 2081 :         LeaveCriticalSection( &m_critSec );

  00064	e28500b0	 add         r0, r5, #0xB0
  00068	e5923134	 ldr         r3, [r2, #0x134]
  0006c	e3833002	 orr         r3, r3, #2
  00070	e5823134	 str         r3, [r2, #0x134]
  00074	e595215c	 ldr         r2, [r5, #0x15C]
  00078	e5923138	 ldr         r3, [r2, #0x138]
  0007c	e3833002	 orr         r3, r3, #2
  00080	e5823138	 str         r3, [r2, #0x138]
  00084	e595315c	 ldr         r3, [r5, #0x15C]
  00088	e5831130	 str         r1, [r3, #0x130]
  0008c	eb000000	 bl          LeaveCriticalSection

; 2082 : 
; 2083 :         SDIO_StartOutputDMA();

  00090	e1a00005	 mov         r0, r5
  00094	eb000000	 bl          |?SDIO_StartOutputDMA@CSDIOControllerBase@@QAAXXZ|
  00098		 |$cleanUp$42951|

; 2084 :         }
; 2085 : 
; 2086 : cleanUp:
; 2087 : 
; 2088 :     return bRet;
; 2089 : }

  00098	e1a00006	 mov         r0, r6
  0009c	e8bd4070	 ldmia       sp!, {r4 - r6, lr}
  000a0	e12fff1e	 bx          lr
  000a4		 |$M45166|

			 ENDP  ; |?StartDMATransmit@CSDIOControllerBase@@QAAHPAEK@Z|, CSDIOControllerBase::StartDMATransmit

	EXPORT	|?DataReceiveCompletedHandler@CSDIOControllerBase@@QAAJPAU_SD_BUS_REQUEST@@KPAW4SDHCCONTROLLERIST_STATE@@@Z| ; CSDIOControllerBase::DataReceiveCompletedHandler
	IMPORT	|?SDIO_StopInputDMA@CSDIOControllerBase@@QAAXXZ| ; CSDIOControllerBase::SDIO_StopInputDMA

  00000			 AREA	 |.pdata|, PDATA
|$T45190| DCD	|$LN17@DataReceiv|
	DCD	0x40002e01
; Function compile flags: /Ogspy

  00000			 AREA	 |.text|, CODE, ARM

  00000		 |?DataReceiveCompletedHandler@CSDIOControllerBase@@QAAJPAU_SD_BUS_REQUEST@@KPAW4SDHCCONTROLLERIST_STATE@@@Z| PROC ; CSDIOControllerBase::DataReceiveCompletedHandler

; 2106 : {

  00000		 |$LN17@DataReceiv|
  00000	e92d4070	 stmdb       sp!, {r4 - r6, lr}
  00004		 |$M45187|
  00004	e1a06003	 mov         r6, r3
  00008	e1a04000	 mov         r4, r0

; 2107 :     SD_API_STATUS   status      = SD_API_STATUS_SUCCESS;

  0000c	e3a05000	 mov         r5, #0

; 2108 : 
; 2109 :     UNREFERENCED_PARAMETER(pRequest);
; 2110 : 
; 2111 :     static DWORD           dwSize      = 0;
; 2112 : 
; 2113 :     if(dwIntrStatus & (MMCHS_STAT_BRR | MMCHS_STAT_TC))

  00010	e3120022	 tst         r2, #0x22
  00014	0a00001d	 beq         |$LN6@DataReceiv|

; 2114 :         {
; 2115 :         Read_MMC_STAT();

  00018	e28400b0	 add         r0, r4, #0xB0
  0001c	eb000000	 bl          EnterCriticalSection
  00020	e594215c	 ldr         r2, [r4, #0x15C]
  00024	e28400b0	 add         r0, r4, #0xB0
  00028	e5922130	 ldr         r2, [r2, #0x130]
  0002c	eb000000	 bl          LeaveCriticalSection

; 2116 :    
; 2117 :         // stop DMA
; 2118 :         SDIO_StopInputDMA();

  00030	e1a00004	 mov         r0, r4
  00034	eb000000	 bl          |?SDIO_StopInputDMA@CSDIOControllerBase@@QAAXXZ|

; 2119 : 
; 2120 :         Set_MMC_STAT(MMCHS_STAT_TC);

  00038	e28400b0	 add         r0, r4, #0xB0
  0003c	eb000000	 bl          EnterCriticalSection
  00040	e594215c	 ldr         r2, [r4, #0x15C]
  00044	e3a03002	 mov         r3, #2
  00048	e28400b0	 add         r0, r4, #0xB0
  0004c	e5823130	 str         r3, [r2, #0x130]
  00050	eb000000	 bl          LeaveCriticalSection

; 2121 : 
; 2122 :         if ((m_pCurrentRecieveBuffer != NULL) && (m_dwCurrentRecieveBufferLength != 0))

  00054	e59431ec	 ldr         r3, [r4, #0x1EC]
  00058	e1b00003	 movs        r0, r3
  0005c	0a00000f	 beq         |$LN2@DataReceiv|
  00060	e59431f0	 ldr         r3, [r4, #0x1F0]
  00064	e1b02003	 movs        r2, r3
  00068	0a00000c	 beq         |$LN2@DataReceiv|

; 2123 :             {
; 2124 :             // finally, copy the data from DMA buffer to the user buffer, which maybe SG buffer,
; 2125 :             SDPerformSafeCopy(m_pCurrentRecieveBuffer, (m_pCachedDmaBuffer!=NULL) ? m_pCachedDmaBuffer : m_pDmaBuffer, m_dwCurrentRecieveBufferLength);

  0006c	e5943100	 ldr         r3, [r4, #0x100]
  00070	e3530000	 cmp         r3, #0
  00074	059430fc	 ldreq       r3, [r4, #0xFC]
  00078	e1a01003	 mov         r1, r3
  0007c	eb000000	 bl          SDPerformSafeCopy

; 2126 : 
; 2127 :             m_pCurrentRecieveBuffer = NULL;

  00080	e3a03000	 mov         r3, #0
  00084	e58431ec	 str         r3, [r4, #0x1EC]

; 2128 :             m_dwCurrentRecieveBufferLength = 0;

  00088	e58431f0	 str         r3, [r4, #0x1F0]

; 2129 :             }
; 2130 :         }
; 2131 :     else

  0008c	ea000003	 b           |$LN2@DataReceiv|
  00090		 |$LN6@DataReceiv|

; 2132 :         {
; 2133 :         if( dwIntrStatus & MMCHS_STAT_DTO )

  00090	e3120601	 tst         r2, #1, 12

; 2134 :             {
; 2135 :             DEBUGMSG(SDCARD_ZONE_ERROR, (TEXT("SDIDMAReceive() - exit: STAT register indicates MMC_STAT_DTO error.\r\n")));
; 2136 :             status = SD_API_STATUS_RESPONSE_TIMEOUT;

  00094	13a05153	 movne       r5, #0x53, 2

; 2137 :             }
; 2138 :         if( dwIntrStatus & MMCHS_STAT_DCRC ) // DATA CRC Error

  00098	e3120602	 tst         r2, #2, 12

; 2139 :             {
; 2140 :             DEBUGMSG(SDCARD_ZONE_ERROR, (TEXT("SDIDMAReceive() - exit: STAT register indicates MMC_STAT_DCRC error.\r\n")));
; 2141 :             status = SD_API_STATUS_RESPONSE_TIMEOUT;

  0009c	13a05153	 movne       r5, #0x53, 2
  000a0		 |$LN2@DataReceiv|

; 2142 :             }
; 2143 :         }
; 2144 : 
; 2145 :     if (pNextState != NULL)

  000a0	e3560000	 cmp         r6, #0

; 2146 :         {
; 2147 :         *pNextState = COMMAND_TRANSFER_STATE;

  000a4	13a03001	 movne       r3, #1
  000a8	15863000	 strne       r3, [r6]

; 2148 :         }
; 2149 : 
; 2150 :     return status;
; 2151 : }

  000ac	e1a00005	 mov         r0, r5
  000b0	e8bd4070	 ldmia       sp!, {r4 - r6, lr}
  000b4	e12fff1e	 bx          lr
  000b8		 |$M45188|

			 ENDP  ; |?DataReceiveCompletedHandler@CSDIOControllerBase@@QAAJPAU_SD_BUS_REQUEST@@KPAW4SDHCCONTROLLERIST_STATE@@@Z|, CSDIOControllerBase::DataReceiveCompletedHandler

	EXPORT	|?DataTransmitCompletedHandler@CSDIOControllerBase@@QAAJPAU_SD_BUS_REQUEST@@KPAW4SDHCCONTROLLERIST_STATE@@@Z| ; CSDIOControllerBase::DataTransmitCompletedHandler
	IMPORT	|?SDIO_StopOutputDMA@CSDIOControllerBase@@QAAXXZ| ; CSDIOControllerBase::SDIO_StopOutputDMA

  00000			 AREA	 |.pdata|, PDATA
|$T45210| DCD	|$LN14@DataTransm|
	DCD	0x40002301
; Function compile flags: /Ogspy

  00000			 AREA	 |.text|, CODE, ARM

  00000		 |?DataTransmitCompletedHandler@CSDIOControllerBase@@QAAJPAU_SD_BUS_REQUEST@@KPAW4SDHCCONTROLLERIST_STATE@@@Z| PROC ; CSDIOControllerBase::DataTransmitCompletedHandler

; 2167 : {

  00000		 |$LN14@DataTransm|
  00000	e92d40f0	 stmdb       sp!, {r4 - r7, lr}
  00004		 |$M45207|
  00004	e1a06003	 mov         r6, r3
  00008	e1a05002	 mov         r5, r2
  0000c	e1a07000	 mov         r7, r0

; 2168 :     SD_API_STATUS   status = SD_API_STATUS_SUCCESS;

  00010	e3a04000	 mov         r4, #0

; 2169 : 
; 2170 :     UNREFERENCED_PARAMETER(pRequest);
; 2171 : 
; 2172 :     if (dwIntrStatus & MMCHS_STAT_TC)

  00014	e3150002	 tst         r5, #2
  00018	0a00000f	 beq         |$LN5@DataTransm|

; 2173 :         {
; 2174 :         Read_MMC_STAT();

  0001c	e28700b0	 add         r0, r7, #0xB0
  00020	eb000000	 bl          EnterCriticalSection
  00024	e597215c	 ldr         r2, [r7, #0x15C]
  00028	e28700b0	 add         r0, r7, #0xB0
  0002c	e5922130	 ldr         r2, [r2, #0x130]
  00030	eb000000	 bl          LeaveCriticalSection

; 2175 : 
; 2176 :         // stop DMA
; 2177 :         SDIO_StopOutputDMA();

  00034	e1a00007	 mov         r0, r7
  00038	eb000000	 bl          |?SDIO_StopOutputDMA@CSDIOControllerBase@@QAAXXZ|

; 2178 : 
; 2179 :         Set_MMC_STAT(MMCHS_STAT_TC);

  0003c	e28700b0	 add         r0, r7, #0xB0
  00040	eb000000	 bl          EnterCriticalSection
  00044	e597215c	 ldr         r2, [r7, #0x15C]
  00048	e3a03002	 mov         r3, #2
  0004c	e28700b0	 add         r0, r7, #0xB0
  00050	e5823130	 str         r3, [r2, #0x130]
  00054	eb000000	 bl          LeaveCriticalSection

; 2180 :         }
; 2181 :     else

  00058	ea000005	 b           |$LN2@DataTransm|
  0005c		 |$LN5@DataTransm|

; 2182 :         {
; 2183 :         // stop DMA
; 2184 :         SDIO_StopOutputDMA();

  0005c	e1a00007	 mov         r0, r7
  00060	eb000000	 bl          |?SDIO_StopOutputDMA@CSDIOControllerBase@@QAAXXZ|

; 2185 : 
; 2186 :         if( dwIntrStatus & MMCHS_STAT_DTO )

  00064	e3150601	 tst         r5, #1, 12

; 2187 :             {
; 2188 :             DEBUGMSG(SDCARD_ZONE_ERROR, (TEXT("DataTransmitCompletedHandler() - exit: STAT register indicates MMC_STAT_DTO error.\r\n")));
; 2189 :             status = SD_API_STATUS_RESPONSE_TIMEOUT;

  00068	13a04153	 movne       r4, #0x53, 2

; 2190 :             }
; 2191 :         if( dwIntrStatus & MMCHS_STAT_DCRC ) // DATA CRC Error

  0006c	e3150602	 tst         r5, #2, 12

; 2192 :             {
; 2193 :             DEBUGMSG(SDCARD_ZONE_ERROR, (TEXT("DataTransmitCompletedHandler() - exit: STAT register indicates MMC_CRC_ERROR_RCVD error.\r\n")));
; 2194 :             status = SD_API_STATUS_RESPONSE_TIMEOUT;

  00070	13a04153	 movne       r4, #0x53, 2
  00074		 |$LN2@DataTransm|

; 2195 :             }
; 2196 :         }
; 2197 : 
; 2198 :     if (pNextState != NULL)

  00074	e3560000	 cmp         r6, #0

; 2199 :         {
; 2200 :         *pNextState = COMMAND_TRANSFER_STATE;

  00078	13a03001	 movne       r3, #1
  0007c	15863000	 strne       r3, [r6]

; 2201 :         }
; 2202 : 
; 2203 :     return status;
; 2204 : }

  00080	e1a00004	 mov         r0, r4
  00084	e8bd40f0	 ldmia       sp!, {r4 - r7, lr}
  00088	e12fff1e	 bx          lr
  0008c		 |$M45208|

			 ENDP  ; |?DataTransmitCompletedHandler@CSDIOControllerBase@@QAAJPAU_SD_BUS_REQUEST@@KPAW4SDHCCONTROLLERIST_STATE@@@Z|, CSDIOControllerBase::DataTransmitCompletedHandler

	EXPORT	|?SDHCCardDetectIstThread@CSDIOControllerBase@@SAKPAX@Z| ; CSDIOControllerBase::SDHCCardDetectIstThread

  00000			 AREA	 |.pdata|, PDATA
|$T45220| DCD	|$LN5@SDHCCardDe|
	DCD	0x40000701
; Function compile flags: /Ogspy

  00000			 AREA	 |.text|, CODE, ARM

  00000		 |?SDHCCardDetectIstThread@CSDIOControllerBase@@SAKPAX@Z| PROC ; CSDIOControllerBase::SDHCCardDetectIstThread

; 2233 : {

  00000		 |$LN5@SDHCCardDe|
  00000	e52de004	 str         lr, [sp, #-4]!
  00004		 |$M45217|

; 2234 :     CSDIOControllerBase *pController = (CSDIOControllerBase*)lpParameter;
; 2235 :     return pController->SDHCCardDetectIstThreadImpl();

  00004	e5903000	 ldr         r3, [r0]
  00008	e5933010	 ldr         r3, [r3, #0x10]
  0000c	e1a0e00f	 mov         lr, pc
  00010	e12fff13	 bx          r3

; 2236 : }

  00014	e49de004	 ldr         lr, [sp], #4
  00018	e12fff1e	 bx          lr
  0001c		 |$M45218|

			 ENDP  ; |?SDHCCardDetectIstThread@CSDIOControllerBase@@SAKPAX@Z|, CSDIOControllerBase::SDHCCardDetectIstThread

	EXPORT	|?SDHCCancelIoHandlerImpl@CSDIOControllerBase@@QAAEEPAU_SD_BUS_REQUEST@@@Z| ; CSDIOControllerBase::SDHCCancelIoHandlerImpl

  00000			 AREA	 |.pdata|, PDATA
|$T45229| DCD	|$LN5@SDHCCancel|
	DCD	0x40000200
; Function compile flags: /Ogspy

  00000			 AREA	 |.text|, CODE, ARM

  00000		 |?SDHCCancelIoHandlerImpl@CSDIOControllerBase@@QAAEEPAU_SD_BUS_REQUEST@@@Z| PROC ; CSDIOControllerBase::SDHCCancelIoHandlerImpl

; 2545 : {

  00000		 |$LN5@SDHCCancel|
  00000		 |$M45226|

; 2546 :     // for now, we should never get here because all requests are non-cancelable
; 2547 :     // the hardware supports timeouts so it is impossible for the controller to get stuck
; 2548 :     DEBUGCHK(FALSE);
; 2549 : 
; 2550 :     UNREFERENCED_PARAMETER(Slot);
; 2551 :     UNREFERENCED_PARAMETER(pRequest);
; 2552 : 
; 2553 :     return TRUE;

  00000	e3a00001	 mov         r0, #1

; 2554 : }

  00004	e12fff1e	 bx          lr
  00008		 |$M45227|

			 ENDP  ; |?SDHCCancelIoHandlerImpl@CSDIOControllerBase@@QAAEEPAU_SD_BUS_REQUEST@@@Z|, CSDIOControllerBase::SDHCCancelIoHandlerImpl

	EXPORT	|?SetSlotPowerState@CSDIOControllerBase@@QAAXW4_CEDEVICE_POWER_STATE@@@Z| ; CSDIOControllerBase::SetSlotPowerState

  00000			 AREA	 |.pdata|, PDATA
|$T45236| DCD	|$LN5@SetSlotPow|
	DCD	0x40000100
; Function compile flags: /Ogspy

  00000			 AREA	 |.text|, CODE, ARM

  00000		 |?SetSlotPowerState@CSDIOControllerBase@@QAAXW4_CEDEVICE_POWER_STATE@@@Z| PROC ; CSDIOControllerBase::SetSlotPowerState

; 3039 : {

  00000		 |$LN5@SetSlotPow|
  00000		 |$M45233|

; 3040 :     UNREFERENCED_PARAMETER(state);
; 3041 : }

  00000	e12fff1e	 bx          lr
  00004		 |$M45234|

			 ENDP  ; |?SetSlotPowerState@CSDIOControllerBase@@QAAXW4_CEDEVICE_POWER_STATE@@@Z|, CSDIOControllerBase::SetSlotPowerState

	EXPORT	|?GetSlotPowerState@CSDIOControllerBase@@QAA?AW4_CEDEVICE_POWER_STATE@@XZ| ; CSDIOControllerBase::GetSlotPowerState

  00000			 AREA	 |.pdata|, PDATA
|$T45245| DCD	|$LN5@GetSlotPow|
	DCD	0x40000200
; Function compile flags: /Ogspy

  00000			 AREA	 |.text|, CODE, ARM

  00000		 |?GetSlotPowerState@CSDIOControllerBase@@QAA?AW4_CEDEVICE_POWER_STATE@@XZ| PROC ; CSDIOControllerBase::GetSlotPowerState

; 3045 : {

  00000		 |$LN5@GetSlotPow|
  00000		 |$M45242|

; 3046 :     return D3;

  00000	e3a00003	 mov         r0, #3

; 3047 : }

  00004	e12fff1e	 bx          lr
  00008		 |$M45243|

			 ENDP  ; |?GetSlotPowerState@CSDIOControllerBase@@QAA?AW4_CEDEVICE_POWER_STATE@@XZ|, CSDIOControllerBase::GetSlotPowerState

	EXPORT	|?SDHCCancelIoHandler@CSDIOControllerBase@@SAEPAU_SDCARD_HC_CONTEXT@@KPAU_SD_BUS_REQUEST@@@Z| ; CSDIOControllerBase::SDHCCancelIoHandler

  00000			 AREA	 |.pdata|, PDATA
|$T45257| DCD	|$LN7@SDHCCancel@2|
	DCD	0x40000200
; Function compile flags: /Ogspy

  00000			 AREA	 |.text|, CODE, ARM

  00000		 |?SDHCCancelIoHandler@CSDIOControllerBase@@SAEPAU_SDCARD_HC_CONTEXT@@KPAU_SD_BUS_REQUEST@@@Z| PROC ; CSDIOControllerBase::SDHCCancelIoHandler

; 3390 : {

  00000		 |$LN7@SDHCCancel@2|
  00000		 |$M45254|

; 3391 :     // get our extension
; 3392 :     CSDIOControllerBase *pController = GET_PCONTROLLER_FROM_HCD(pHCContext);
; 3393 :     return pController->SDHCCancelIoHandlerImpl((UCHAR)Slot, pRequest);

  00000	e3a00001	 mov         r0, #1

; 3394 : }

  00004	e12fff1e	 bx          lr
  00008		 |$M45255|

			 ENDP  ; |?SDHCCancelIoHandler@CSDIOControllerBase@@SAEPAU_SDCARD_HC_CONTEXT@@KPAU_SD_BUS_REQUEST@@@Z|, CSDIOControllerBase::SDHCCancelIoHandler

	EXPORT	|?SetPower@CSDIOControllerBase@@QAAHW4_CEDEVICE_POWER_STATE@@@Z| ; CSDIOControllerBase::SetPower
	IMPORT	|EnableDeviceClocks|
	IMPORT	|SDHCDPowerUpDown|
; File c:\wince600\public\common\sdk\inc\kfuncs.h

  00000			 AREA	 |.pdata|, PDATA
|$T45273| DCD	|$LN13@SetPower|
	DCD	0x40002901
; Function compile flags: /Ogspy
; File c:\wince600\platform\common\src\soc\common_ti_v1\common_ti\sdhc\base\sdhc.cpp

  00000			 AREA	 |.text|, CODE, ARM

  00000		 |?SetPower@CSDIOControllerBase@@QAAHW4_CEDEVICE_POWER_STATE@@@Z| PROC ; CSDIOControllerBase::SetPower

; 3445 : {

  00000		 |$LN13@SetPower|
  00000	e92d4070	 stmdb       sp!, {r4 - r6, lr}
  00004		 |$M45270|
  00004	e1a06001	 mov         r6, r1
  00008	e1a04000	 mov         r4, r0

; 3446 :     BOOL rc = FALSE;
; 3447 : 
; 3448 :     EnterCriticalSection(&m_powerCS);

  0000c	e28400c4	 add         r0, r4, #0xC4
  00010	e3a05000	 mov         r5, #0
  00014	eb000000	 bl          EnterCriticalSection

; 3449 :     if(m_ActualPowerState != dx)

  00018	e59430e0	 ldr         r3, [r4, #0xE0]
  0001c	e1530006	 cmp         r3, r6
  00020	0a00001a	 beq         |$LN4@SetPower|

; 3450 : 	{ 
; 3451 : 	    switch(dx)

  00024	e3560000	 cmp         r6, #0
  00028	0a00000a	 beq         |$LN3@SetPower|
  0002c	e3560004	 cmp         r6, #4
  00030	1a000016	 bne         |$LN4@SetPower|

; 3461 :         break;
; 3462 : 
; 3463 :       case D4:
; 3464 :         // Notify the SD Bus driver of the PowerDown event
; 3465 :         SDHCDPowerUpDown(m_pHCContext, FALSE, FALSE, 0);

  00034	e59400a8	 ldr         r0, [r4, #0xA8]
  00038	e3a03000	 mov         r3, #0
  0003c	e3a02000	 mov         r2, #0
  00040	e3a01000	 mov         r1, #0
  00044	eb000000	 bl          SDHCDPowerUpDown

; 3466 : 		EnableDeviceClocks(m_dwDeviceID, FALSE);

  00048	e5940174	 ldr         r0, [r4, #0x174]
  0004c	e3a01000	 mov         r1, #0
  00050	eb000000	 bl          EnableDeviceClocks

; 3467 : 
; 3468 :         rc = TRUE;
; 3469 :         break;

  00054	ea00000c	 b           |$LN9@SetPower|
  00058		 |$LN3@SetPower|

; 3452 :     {
; 3453 :       case D0:
; 3454 : 		EnableDeviceClocks(m_dwDeviceID, TRUE);

  00058	e5940174	 ldr         r0, [r4, #0x174]
  0005c	e3a01001	 mov         r1, #1
  00060	eb000000	 bl          EnableDeviceClocks

; 3455 : 		// Notify the SD Bus driver of the PowerUp event
; 3456 :         SDHCDPowerUpDown(m_pHCContext, TRUE, FALSE, 0);

  00064	e59400a8	 ldr         r0, [r4, #0xA8]
  00068	e3a03000	 mov         r3, #0
  0006c	e3a02000	 mov         r2, #0
  00070	e3a01001	 mov         r1, #1
  00074	eb000000	 bl          SDHCDPowerUpDown

; 3457 :         if(!m_fCardPresent)

  00078	e59430f0	 ldr         r3, [r4, #0xF0]
  0007c	e3530000	 cmp         r3, #0

; 3458 :             SetEvent(m_hCardDetectEvent);

  00080	05940120	 ldreq       r0, [r4, #0x120]
  00084	03a01003	 moveq       r1, #3
  00088	0b000000	 bleq        EventModify
  0008c		 |$LN9@SetPower|

; 3459 : 
; 3460 :         rc = TRUE;

  0008c	e3a05001	 mov         r5, #1
  00090		 |$LN4@SetPower|

; 3470 :     }
; 3471 :     }
; 3472 :     LeaveCriticalSection(&m_powerCS);

  00090	e28400c4	 add         r0, r4, #0xC4
  00094	eb000000	 bl          LeaveCriticalSection

; 3473 :     return rc;
; 3474 : }

  00098	e1a00005	 mov         r0, r5
  0009c	e8bd4070	 ldmia       sp!, {r4 - r6, lr}
  000a0	e12fff1e	 bx          lr
  000a4		 |$M45271|

			 ENDP  ; |?SetPower@CSDIOControllerBase@@QAAHW4_CEDEVICE_POWER_STATE@@@Z|, CSDIOControllerBase::SetPower

	EXPORT	|?PowerUp@CSDIOControllerBase@@QAAXXZ|	; CSDIOControllerBase::PowerUp

  00000			 AREA	 |.pdata|, PDATA
|$T45280| DCD	|$LN5@PowerUp|
	DCD	0x40000100
; Function compile flags: /Ogspy

  00000			 AREA	 |.text|, CODE, ARM

  00000		 |?PowerUp@CSDIOControllerBase@@QAAXXZ| PROC ; CSDIOControllerBase::PowerUp

; 3516 : {

  00000		 |$LN5@PowerUp|
  00000		 |$M45277|

; 3517 : }

  00000	e12fff1e	 bx          lr
  00004		 |$M45278|

			 ENDP  ; |?PowerUp@CSDIOControllerBase@@QAAXXZ|, CSDIOControllerBase::PowerUp

	EXPORT	|?ContextRestore@CSDIOControllerBase@@QAAHXZ| ; CSDIOControllerBase::ContextRestore
	IMPORT	|StallExecution|
	IMPORT	|SocSdhcDevconf|

  00000			 AREA	 |.pdata|, PDATA
|$T45292| DCD	|$LN13@ContextRes|
	DCD	0x40003602
; Function compile flags: /Ogspy

  00000			 AREA	 |.text|, CODE, ARM

  00000		 |?ContextRestore@CSDIOControllerBase@@QAAHXZ| PROC ; CSDIOControllerBase::ContextRestore

; 3527 : {

  00000		 |$LN13@ContextRes|
  00000	e92d4030	 stmdb       sp!, {r4, r5, lr}
  00004	e24dd004	 sub         sp, sp, #4
  00008		 |$M45289|
  00008	e1a04000	 mov         r4, r0

; 3528 :     SD_API_STATUS      status;              // SD status
; 3529 :     BOOL               fRegisteredWithBusDriver = FALSE;
; 3530 :     BOOL               fHardwareInitialized = FALSE;
; 3531 :     BOOL               bRet = FALSE;
; 3532 :     DWORD              dwClockRate;
; 3533 : 
; 3534 :     DEBUGMSG(SHC_RESPONSE_ZONE, (L"CSDIOControllerBase:+ContextRestore\r\n"));
; 3535 : 	
; 3536 : 	if( !InitializeHardware() )

  0000c	e5943000	 ldr         r3, [r4]
  00010	e3a05000	 mov         r5, #0
  00014	e5933000	 ldr         r3, [r3]
  00018	e1a0e00f	 mov         lr, pc
  0001c	e12fff13	 bx          r3
  00020	e3500000	 cmp         r0, #0
  00024	0a000021	 beq         |$LN10@ContextRes|

; 3537 :     {
; 3538 :         DEBUGMSG(SDCARD_ZONE_ERROR, (TEXT("InitializeHardware:: Error allocating CD/RW GPIO registers\r\n")));
; 3539 :         status = SD_API_STATUS_INSUFFICIENT_RESOURCES;
; 3540 :         goto cleanUp;
; 3541 :     }
; 3542 : 
; 3543 : 	// Perform SOC-specific configuration
; 3544 : 	SocSdhcDevconf(m_dwSlot);

  00028	e5940170	 ldr         r0, [r4, #0x170]
  0002c	eb000000	 bl          SocSdhcDevconf

; 3545 : 
; 3546 :     fHardwareInitialized = TRUE;
; 3547 : 
; 3548 :     // Initialize the slot
; 3549 :     SoftwareReset(SOFT_RESET_ALL);

  00030	e3a01401	 mov         r1, #1, 8
  00034	e1a00004	 mov         r0, r4
  00038	eb000000	 bl          |?SoftwareReset@CSDIOControllerBase@@QAAXK@Z|
  0003c	e3a03c27	 mov         r3, #0x27, 24

; 3550 : 
; 3551 : 	// Allow time for card to power down after a device reset
; 3552 :     StallExecution(10000);

  00040	e3830010	 orr         r0, r3, #0x10
  00044	eb000000	 bl          StallExecution

; 3553 : 
; 3554 :     dwClockRate = m_sContext.dwClockRate;
; 3555 : 
; 3556 :     OUTREG32(&m_pbRegisters->MMCHS_CON, 0x01 << 7); // CDP

  00048	e594315c	 ldr         r3, [r4, #0x15C]
  0004c	e5942200	 ldr         r2, [r4, #0x200]
  00050	e3a01080	 mov         r1, #0x80

; 3557 :     SetSDVSVoltage();

  00054	e1a00004	 mov         r0, r4
  00058	e583102c	 str         r1, [r3, #0x2C]
  0005c	e58d2000	 str         r2, [sp]
  00060	eb000000	 bl          |?SetSDVSVoltage@CSDIOControllerBase@@QAAXXZ|

; 3558 :     SetSDInterfaceMode(m_sContext.eInterfaceMode);

  00064	e5941208	 ldr         r1, [r4, #0x208]
  00068	e1a00004	 mov         r0, r4
  0006c	eb000000	 bl          |?SetSDInterfaceMode@CSDIOControllerBase@@IAAXW4SD_INTERFACE_MODE@@@Z|

; 3559 :     SetClockRate(&dwClockRate);

  00070	e28d1000	 add         r1, sp, #0
  00074	e1a00004	 mov         r0, r4
  00078	eb000000	 bl          |?SetClockRate@CSDIOControllerBase@@QAAXPAK@Z|

; 3560 : 
; 3561 :     switch (m_sContext.eSDHCIntr)

  0007c	e5943204	 ldr         r3, [r4, #0x204]
  00080	e3530001	 cmp         r3, #1
  00084	0a000005	 beq         |$LN3@ContextRes|
  00088	e3530002	 cmp         r3, #2
  0008c	1a000005	 bne         |$LN4@ContextRes|

; 3565 :             break;
; 3566 : 
; 3567 :         case SDHC_SDIO_INTR_ENABLED:
; 3568 :             EnableSDIOInterrupts();

  00090	e1a00004	 mov         r0, r4
  00094	eb000000	 bl          |?EnableSDIOInterrupts@CSDIOControllerBase@@QAAXXZ|

; 3569 :             break;
; 3570 :         }
; 3571 : 
; 3572 :     fRegisteredWithBusDriver = TRUE;
; 3573 : 
; 3574 :     bRet = TRUE;

  00098	e3a05001	 mov         r5, #1
  0009c		 |$cleanUp$43441|

; 3575 : 
; 3576 : cleanUp:
; 3577 :     if ( (bRet == FALSE) && (m_pHCContext) )

  0009c	ea000009	 b           |$LN1@ContextRes|
  000a0		 |$LN3@ContextRes|

; 3562 :         {
; 3563 :         case SDHC_MMC_INTR_ENABLED:
; 3564 :             EnableSDHCInterrupts();

  000a0	e1a00004	 mov         r0, r4
  000a4	eb000000	 bl          |?EnableSDHCInterrupts@CSDIOControllerBase@@QAAXXZ|
  000a8		 |$LN4@ContextRes|

; 3569 :             break;
; 3570 :         }
; 3571 : 
; 3572 :     fRegisteredWithBusDriver = TRUE;
; 3573 : 
; 3574 :     bRet = TRUE;

  000a8	e3a05001	 mov         r5, #1
  000ac		 |$cleanUp_1$43441|

; 3575 : 
; 3576 : cleanUp:
; 3577 :     if ( (bRet == FALSE) && (m_pHCContext) )

  000ac	ea000005	 b           |$LN1@ContextRes|
  000b0		 |$LN10@ContextRes|
  000b0	e59430a8	 ldr         r3, [r4, #0xA8]
  000b4	e3530000	 cmp         r3, #0

; 3578 :     {
; 3579 :         FreeHostContext( fRegisteredWithBusDriver, fHardwareInitialized );

  000b8	13a02000	 movne       r2, #0
  000bc	13a01000	 movne       r1, #0
  000c0	11a00004	 movne       r0, r4
  000c4	1b000000	 blne        |?FreeHostContext@CSDIOControllerBase@@QAAXHH@Z|
  000c8		 |$LN1@ContextRes|

; 3580 :     }
; 3581 :     DEBUGMSG(SHC_RESPONSE_ZONE, (L"CSDIOControllerBase:-ContextRestore\r\n"));
; 3582 : 
; 3583 :     return bRet;
; 3584 : }

  000c8	e1a00005	 mov         r0, r5
  000cc	e28dd004	 add         sp, sp, #4
  000d0	e8bd4030	 ldmia       sp!, {r4, r5, lr}
  000d4	e12fff1e	 bx          lr
  000d8		 |$M45290|

			 ENDP  ; |?ContextRestore@CSDIOControllerBase@@QAAHXZ|, CSDIOControllerBase::ContextRestore

	EXPORT	|?GetCommandResponse@CSDIOControllerBase@@QAAJPAU_SD_BUS_REQUEST@@@Z| ; CSDIOControllerBase::GetCommandResponse

  00000			 AREA	 |.pdata|, PDATA
|$T45329| DCD	|$LN29@GetCommand|
	DCD	0x40005001
; Function compile flags: /Ogspy

  00000			 AREA	 |.text|, CODE, ARM

  00000		 |?GetCommandResponse@CSDIOControllerBase@@QAAJPAU_SD_BUS_REQUEST@@@Z| PROC ; CSDIOControllerBase::GetCommandResponse

; 3593 : {

  00000		 |$LN29@GetCommand|
  00000	e92d4070	 stmdb       sp!, {r4 - r6, lr}
  00004		 |$M45326|
  00004	e1a05001	 mov         r5, r1
  00008	e1a06000	 mov         r6, r0

; 3594 :     DWORD  dwRegVal;
; 3595 :     PUCHAR  respBuff;       // response buffer
; 3596 :     DWORD dwRSP;
; 3597 : 
; 3598 :     dwRegVal = Read_MMC_STAT();

  0000c	e28600b0	 add         r0, r6, #0xB0
  00010	eb000000	 bl          EnterCriticalSection
  00014	e596315c	 ldr         r3, [r6, #0x15C]
  00018	e28600b0	 add         r0, r6, #0xB0
  0001c	e5934130	 ldr         r4, [r3, #0x130]
  00020	eb000000	 bl          LeaveCriticalSection
  00024	e3a03211	 mov         r3, #0x11, 4

; 3599 : 
; 3600 :     DEBUGMSG(SHC_RESPONSE_ZONE, (TEXT("GetCommandResponse() - MMC_STAT = 0x%08X.\r\n"), dwRegVal));
; 3601 : 
; 3602 : 
; 3603 :     if ( dwRegVal & (MMCHS_STAT_CC | MMCHS_STAT_CERR | MMCHS_STAT_CCRC))

  00028	e3833802	 orr         r3, r3, #2, 16
  0002c	e1140003	 tst         r4, r3
  00030	0a00003f	 beq         |$LN1@GetCommand|

; 3604 :     {
; 3605 :         respBuff = pRequest->CommandResponse.ResponseBuffer;
; 3606 : 
; 3607 :         switch(pRequest->CommandResponse.ResponseType)

  00034	e595301c	 ldr         r3, [r5, #0x1C]
  00038	e2432001	 sub         r2, r3, #1
  0003c	e3520007	 cmp         r2, #7
  00040	8a00003b	 bhi         |$LN1@GetCommand|
  00044	e28f3004	 add         r3, pc, #4
  00048	e7d33002	 ldrb        r3, [r3, +r2]
  0004c	e08ff003	 add         pc, pc, r3
  00050		 |$LN18@GetCommand|
  00050		 |$LN17@GetCommand|
  00050		 |$LN19@GetCommand|
  00050	04ed		 DCB         0x4
  00051		 |$LN20@GetCommand|
  00051	04ed		 DCB         0x4
  00052		 |$LN21@GetCommand|
  00052	50ed		 DCB         0x50
  00053		 |$LN22@GetCommand|
  00053	3ced		 DCB         0x3c
  00054		 |$LN23@GetCommand|
  00054	3ced		 DCB         0x3c
  00055		 |$LN24@GetCommand|
  00055	44ed		 DCB         0x44
  00056		 |$LN25@GetCommand|
  00056	44ed		 DCB         0x44
  00057		 |$LN26@GetCommand|
  00057	3ced		 DCB         0x3c
  00058		 |$LN5@GetCommand|

; 3608 :         {
; 3609 :         case NoResponse:
; 3610 :             break;
; 3611 : 
; 3612 :         case ResponseR1:
; 3613 :         case ResponseR1b:
; 3614 :             //--- SHORT RESPONSE (48 bits total)---
; 3615 :             // Format: { START_BIT(1) | TRANSMISSION_BIT(1) | COMMAND_INDEX(6) | CARD_STATUS(32) | CRC7(7) | END_BIT(1) }
; 3616 :             // NOTE: START_BIT and TRANSMISSION_BIT = 0, END_BIT = 1
; 3617 :             //
; 3618 :             // Dummy byte needed by calling function.
; 3619 :             *respBuff = (BYTE)(START_BIT | TRANSMISSION_BIT | pRequest->CommandCode);

  00058	e5d53014	 ldrb        r3, [r5, #0x14]
  0005c		 |$LN16@GetCommand|

; 3620 : 
; 3621 :             dwRSP = INREG32(&m_pbRegisters->MMCHS_RSP10);
; 3622 : 
; 3623 :             *(respBuff + 1) = (BYTE)(dwRSP & 0xFF);
; 3624 :             *(respBuff + 2) = (BYTE)(dwRSP >> 8);
; 3625 :             *(respBuff + 3) = (BYTE)(dwRSP >> 16);
; 3626 :             *(respBuff + 4) = (BYTE)(dwRSP >> 24);
; 3627 : 
; 3628 : 
; 3629 :             *(respBuff + 5) = (BYTE)(END_RESERVED | END_BIT);

  0005c	e3a020ff	 mov         r2, #0xFF
  00060		 |$LN15@GetCommand|
  00060	e5c53020	 strb        r3, [r5, #0x20]
  00064	e596315c	 ldr         r3, [r6, #0x15C]
  00068	e5930110	 ldr         r0, [r3, #0x110]
  0006c	e5c52025	 strb        r2, [r5, #0x25]
  00070	e1a03420	 mov         r3, r0, lsr #8
  00074	e1a02820	 mov         r2, r0, lsr #16
  00078	e1a01c20	 mov         r1, r0, lsr #24
  0007c	e5c53022	 strb        r3, [r5, #0x22]
  00080	e5c52023	 strb        r2, [r5, #0x23]
  00084	e5c51024	 strb        r1, [r5, #0x24]
  00088	e5c50021	 strb        r0, [r5, #0x21]

; 3630 : 
; 3631 :             DEBUGMSG(SHC_RESPONSE_ZONE, (TEXT("GetCommandResponse() - R1 R1b : 0x%x 0x%x 0x%x 0x%x 0x%x 0x%x \r\n"), *(respBuff + 0),
; 3632 :                 *(respBuff + 1), *(respBuff + 2), *(respBuff + 3), *(respBuff + 4), *(respBuff + 5)));
; 3633 :             DEBUGMSG (SHC_SDBUS_INTERACT_ZONE,(TEXT("GetCmdResponse returned [%02x%02x%02x%02x%02x]\r\n"),
; 3634 :                 respBuff[0], respBuff[1], respBuff[2], respBuff[3], respBuff[4], respBuff[5] ));
; 3635 : #ifdef ENABLE_RETAIL_OUTPUT
; 3636 :             RETAILMSG (1,(TEXT("GetCmdResponse returned [%02x%02x%02x%02x%02x]\r\n"),
; 3637 :                 respBuff[0], respBuff[1], respBuff[2], respBuff[3], respBuff[4], respBuff[5] ));
; 3638 : #endif
; 3639 :             break;

  0008c	ea000028	 b           |$LN1@GetCommand|
  00090		 |$LN4@GetCommand|

; 3640 : 
; 3641 :         case ResponseR3:
; 3642 :         case ResponseR4:
; 3643 :         case ResponseR7:
; 3644 :             DEBUGMSG(SHC_RESPONSE_ZONE, (TEXT("ResponseR3 ResponseR4\r\n")));
; 3645 :             //--- SHORT RESPONSE (48 bits total)---
; 3646 :             // Format: { START_BIT(1) | TRANSMISSION_BIT(1) | RESERVED(6) | CARD_STATUS(32) | RESERVED(7) | END_BIT(1) }
; 3647 :             //
; 3648 :             *respBuff = (BYTE)(START_BIT | TRANSMISSION_BIT | START_RESERVED);

  00090	e3a0303f	 mov         r3, #0x3F

; 3649 : 
; 3650 :             dwRSP = INREG32(&m_pbRegisters->MMCHS_RSP10);
; 3651 : 
; 3652 :             *(respBuff + 1) = (BYTE)(dwRSP & 0xFF);
; 3653 :             *(respBuff + 2) = (BYTE)(dwRSP >> 8);
; 3654 :             *(respBuff + 3) = (BYTE)(dwRSP >> 16);
; 3655 :             *(respBuff + 4) = (BYTE)(dwRSP >> 24);
; 3656 : 
; 3657 :             *(respBuff + 5) = (BYTE)(END_RESERVED | END_BIT);
; 3658 : 
; 3659 :             DEBUGMSG (SHC_SDBUS_INTERACT_ZONE,(TEXT("GetCmdResponse returned [%02x%02x%02x%02x%02x]\r\n"),
; 3660 :                 respBuff[0], respBuff[1], respBuff[2], respBuff[3], respBuff[4], respBuff[5] ));
; 3661 : #ifdef ENABLE_RETAIL_OUTPUT
; 3662 :             RETAILMSG (1,(TEXT("GetCmdResponse returned [%02x%02x%02x%02x%02x]\r\n"),
; 3663 :                 respBuff[0], respBuff[1], respBuff[2], respBuff[3], respBuff[4], respBuff[5] ));
; 3664 : #endif
; 3665 :             break;

  00094	eafffff0	 b           |$LN16@GetCommand|
  00098		 |$LN3@GetCommand|

; 3666 : 
; 3667 :         case ResponseR5:
; 3668 :         case ResponseR6:
; 3669 :             DEBUGMSG(SHC_RESPONSE_ZONE, (TEXT("ResponseR5 ResponseR6\r\n")));
; 3670 :             //--- SHORT RESPONSE (48 bits total)---
; 3671 :             // Format: { START_BIT(1) | TRANSMISSION_BIT(1) | COMMAND_INDEX(6) | RCA(16) | CARD_STATUS(16) | CRC7(7) | END_BIT(1) }
; 3672 :             //
; 3673 :             *respBuff = (BYTE)(START_BIT | TRANSMISSION_BIT | pRequest->CommandCode);

  00098	e5d53014	 ldrb        r3, [r5, #0x14]

; 3674 : 
; 3675 :             dwRSP = INREG32(&m_pbRegisters->MMCHS_RSP10);
; 3676 : 
; 3677 :             *(respBuff + 1) = (BYTE)(dwRSP & 0xFF);
; 3678 :             *(respBuff + 2) = (BYTE)(dwRSP >> 8);
; 3679 :             *(respBuff + 3) = (BYTE)(dwRSP >> 16);
; 3680 :             *(respBuff + 4) = (BYTE)(dwRSP >> 24);
; 3681 : 
; 3682 :             *(respBuff + 5) = (BYTE)(END_BIT);

  0009c	e3a02001	 mov         r2, #1

; 3683 : 
; 3684 :             DEBUGMSG(SHC_RESPONSE_ZONE, (TEXT("GetCommandResponse() - R5 R6 : 0x%x 0x%x 0x%x 0x%x 0x%x 0x%x\r\n"), *(respBuff + 0),
; 3685 :                 *(respBuff + 1), *(respBuff + 2), *(respBuff + 3), *(respBuff + 4), *(respBuff + 5)));
; 3686 : 
; 3687 :             DEBUGMSG (SHC_SDBUS_INTERACT_ZONE,(TEXT("GetCmdResponse returned [%02x%02x%02x%02x%02x]\r\n"),
; 3688 :                 respBuff[0], respBuff[1], respBuff[2], respBuff[3], respBuff[4], respBuff[5] ));
; 3689 : #ifdef ENABLE_RETAIL_OUTPUT
; 3690 :             RETAILMSG (1,(TEXT("GetCmdResponse returned [%02x%02x%02x%02x%02x]\r\n"),
; 3691 :                 respBuff[0], respBuff[1], respBuff[2], respBuff[3], respBuff[4], respBuff[5] ));
; 3692 : #endif
; 3693 :             break;

  000a0	eaffffee	 b           |$LN15@GetCommand|
  000a4		 |$LN2@GetCommand|

; 3694 : 
; 3695 :         case ResponseR2:
; 3696 : 
; 3697 :             dwRSP = INREG32(&m_pbRegisters->MMCHS_RSP10);

  000a4	e596315c	 ldr         r3, [r6, #0x15C]
  000a8	e5930110	 ldr         r0, [r3, #0x110]

; 3698 : 
; 3699 :             *(respBuff + 0) = (BYTE)(dwRSP & 0xFF);
; 3700 :             *(respBuff + 1) = (BYTE)(dwRSP >> 8);

  000ac	e1a03420	 mov         r3, r0, lsr #8

; 3701 :             *(respBuff + 2) = (BYTE)(dwRSP >> 16);

  000b0	e1a02820	 mov         r2, r0, lsr #16

; 3702 :             *(respBuff + 3) = (BYTE)(dwRSP >> 24);

  000b4	e1a01c20	 mov         r1, r0, lsr #24
  000b8	e5c53021	 strb        r3, [r5, #0x21]
  000bc	e5c52022	 strb        r2, [r5, #0x22]
  000c0	e5c51023	 strb        r1, [r5, #0x23]
  000c4	e5c50020	 strb        r0, [r5, #0x20]

; 3703 : 
; 3704 :             dwRSP = INREG32(&m_pbRegisters->MMCHS_RSP32);

  000c8	e596315c	 ldr         r3, [r6, #0x15C]
  000cc	e5930114	 ldr         r0, [r3, #0x114]

; 3705 : 
; 3706 :             *(respBuff + 4) = (BYTE)(dwRSP & 0xFF);
; 3707 :             *(respBuff + 5) = (BYTE)(dwRSP >> 8);

  000d0	e1a03420	 mov         r3, r0, lsr #8

; 3708 :             *(respBuff + 6) = (BYTE)(dwRSP >> 16);

  000d4	e1a02820	 mov         r2, r0, lsr #16

; 3709 :             *(respBuff + 7) = (BYTE)(dwRSP >> 24);

  000d8	e1a01c20	 mov         r1, r0, lsr #24
  000dc	e5c53025	 strb        r3, [r5, #0x25]
  000e0	e5c52026	 strb        r2, [r5, #0x26]
  000e4	e5c51027	 strb        r1, [r5, #0x27]
  000e8	e5c50024	 strb        r0, [r5, #0x24]

; 3710 : 
; 3711 :             dwRSP = INREG32(&m_pbRegisters->MMCHS_RSP54);

  000ec	e596315c	 ldr         r3, [r6, #0x15C]
  000f0	e5930118	 ldr         r0, [r3, #0x118]

; 3712 : 
; 3713 :             *(respBuff + 8) = (BYTE)(dwRSP & 0xFF);
; 3714 :             *(respBuff + 9) = (BYTE)(dwRSP >> 8);

  000f4	e1a03420	 mov         r3, r0, lsr #8

; 3715 :             *(respBuff + 10) = (BYTE)(dwRSP >> 16);

  000f8	e1a02820	 mov         r2, r0, lsr #16

; 3716 :             *(respBuff + 11) = (BYTE)(dwRSP >> 24);

  000fc	e1a01c20	 mov         r1, r0, lsr #24
  00100	e5c53029	 strb        r3, [r5, #0x29]
  00104	e5c5202a	 strb        r2, [r5, #0x2A]
  00108	e5c5102b	 strb        r1, [r5, #0x2B]
  0010c	e5c50028	 strb        r0, [r5, #0x28]

; 3717 : 
; 3718 : 
; 3719 :             dwRSP = INREG32(&m_pbRegisters->MMCHS_RSP76);

  00110	e596315c	 ldr         r3, [r6, #0x15C]
  00114	e593011c	 ldr         r0, [r3, #0x11C]

; 3720 : 
; 3721 :             *(respBuff + 12) = (BYTE)(dwRSP & 0xFF);
; 3722 :             *(respBuff + 13) = (BYTE)(dwRSP >> 8);

  00118	e1a03420	 mov         r3, r0, lsr #8

; 3723 :             *(respBuff + 14) = (BYTE)(dwRSP >> 16);

  0011c	e1a02820	 mov         r2, r0, lsr #16

; 3724 :             *(respBuff + 15) = (BYTE)(dwRSP >> 24);

  00120	e1a01c20	 mov         r1, r0, lsr #24
  00124	e5c5302d	 strb        r3, [r5, #0x2D]
  00128	e5c5202e	 strb        r2, [r5, #0x2E]
  0012c	e5c5102f	 strb        r1, [r5, #0x2F]
  00130	e5c5002c	 strb        r0, [r5, #0x2C]
  00134		 |$LN1@GetCommand|

; 3725 : 
; 3726 :             DEBUGMSG (SHC_SDBUS_INTERACT_ZONE,(TEXT("GetCmdResponse returned [%02x%02x%02x%02x %02x%02x%02x%02x %02x%02x%02x%02x %02x%02x%02x%02x]\r\n"),
; 3727 :                 respBuff[0], respBuff[1], respBuff[2], respBuff[3], respBuff[4], respBuff[5], respBuff[6], respBuff[7],
; 3728 :                 respBuff[8], respBuff[9], respBuff[10], respBuff[11], respBuff[12], respBuff[13], respBuff[14], respBuff[15]));
; 3729 : 
; 3730 : #ifdef ENABLE_RETAIL_OUTPUT
; 3731 :             RETAILMSG (1, (TEXT("GetCmdResponse returned [%02x%02x%02x%02x %02x%02x%02x%02x %02x%02x%02x%02x %02x%02x%02x%02x]\r\n"),
; 3732 :                 respBuff[0], respBuff[1], respBuff[2], respBuff[3], respBuff[4], respBuff[5], respBuff[6], respBuff[7],
; 3733 :                 respBuff[8], respBuff[9], respBuff[10], respBuff[11], respBuff[12], respBuff[13], respBuff[14], respBuff[15]));
; 3734 : #endif
; 3735 :             break;
; 3736 : 
; 3737 :         default:
; 3738 :             DEBUGMSG(SDCARD_ZONE_ERROR, (TEXT("GetCommandResponse() - Unrecognized response type!\r\n")));
; 3739 :             break;
; 3740 :         }
; 3741 :     }
; 3742 :     return SD_API_STATUS_SUCCESS;

  00134	e3a00000	 mov         r0, #0

; 3743 : }

  00138	e8bd4070	 ldmia       sp!, {r4 - r6, lr}
  0013c	e12fff1e	 bx          lr
  00140		 |$M45327|

			 ENDP  ; |?GetCommandResponse@CSDIOControllerBase@@QAAJPAU_SD_BUS_REQUEST@@@Z|, CSDIOControllerBase::GetCommandResponse

	EXPORT	|?SDIDMAReceive@CSDIOControllerBase@@QAAHPAEKH@Z| ; CSDIOControllerBase::SDIDMAReceive
	EXPORT	|??_C@_1GE@EMGJJJMP@?$AAA?$AA?4?$AAS?$AA?4?$AA?5?$AAT?$AAi?$AAm?$AAe?$AAo?$AAu?$AAt?$AA?5?$AAw?$AAh?$AAi?$AAl?$AAe?$AA?5?$AAp?$AAo?$AAl?$AAl?$AAi?$AAn?$AAg?$AA?5?$AAD?$AAM?$AAA?$AA?5?$AAR@| [ DATA ] ; `string'

  00000			 AREA	 |.pdata|, PDATA
|$T45383| DCD	|$LN52@SDIDMARece|
	DCD	0x40006801

  00000			 AREA	 |.rdata|, DATA, READONLY
|??_C@_1GE@EMGJJJMP@?$AAA?$AA?4?$AAS?$AA?4?$AA?5?$AAT?$AAi?$AAm?$AAe?$AAo?$AAu?$AAt?$AA?5?$AAw?$AAh?$AAi?$AAl?$AAe?$AA?5?$AAp?$AAo?$AAl?$AAl?$AAi?$AAn?$AAg?$AA?5?$AAD?$AAM?$AAA?$AA?5?$AAR@| DCB "A"
	DCB	0x0, ".", 0x0, "S", 0x0, ".", 0x0, " ", 0x0, "T", 0x0, "i"
	DCB	0x0, "m", 0x0, "e", 0x0, "o", 0x0, "u", 0x0, "t", 0x0, " "
	DCB	0x0, "w", 0x0, "h", 0x0, "i", 0x0, "l", 0x0, "e", 0x0, " "
	DCB	0x0, "p", 0x0, "o", 0x0, "l", 0x0, "l", 0x0, "i", 0x0, "n"
	DCB	0x0, "g", 0x0, " ", 0x0, "D", 0x0, "M", 0x0, "A", 0x0, " "
	DCB	0x0, "R", 0x0, "e", 0x0, "c", 0x0, "e", 0x0, "i", 0x0, "v"
	DCB	0x0, "e", 0x0, " ", 0x0, "c", 0x0, "o", 0x0, "m", 0x0, "p"
	DCB	0x0, "l", 0x0, "e", 0x0, "t", 0x0, "e", 0x0, ".", 0x0, 0xa
	DCB	0x0, 0x0, 0x0				; `string'
; Function compile flags: /Ogspy

  00000			 AREA	 |.text|, CODE, ARM

  00000		 |?SDIDMAReceive@CSDIOControllerBase@@QAAHPAEKH@Z| PROC ; CSDIOControllerBase::SDIDMAReceive

; 3779 : {

  00000		 |$LN52@SDIDMARece|
  00000	e92d43f0	 stmdb       sp!, {r4 - r9, lr}
  00004		 |$M45380|
  00004	e1a08002	 mov         r8, r2
  00008	e1a09001	 mov         r9, r1
  0000c	e1a05000	 mov         r5, r0

; 3780 :     DWORD dwCountStart;
; 3781 :     DWORD __unaligned *pbuf2 = (DWORD *) pBuff;
; 3782 : 
; 3783 :     DWORD MMC_STAT = Read_MMC_STAT(); 

  00010	e28500b0	 add         r0, r5, #0xB0
  00014	eb000000	 bl          EnterCriticalSection
  00018	e595315c	 ldr         r3, [r5, #0x15C]
  0001c	e28500b0	 add         r0, r5, #0xB0
  00020	e5934130	 ldr         r4, [r3, #0x130]
  00024	eb000000	 bl          LeaveCriticalSection

; 3784 : 
; 3785 :     UNREFERENCED_PARAMETER(FastPathMode);
; 3786 : 
; 3787 :     if( MMC_STAT & MMCHS_STAT_DTO )

  00028	e3140601	 tst         r4, #1, 12
  0002c	1a00003f	 bne         |$cleanUp$43551|

; 3788 :     {
; 3789 :         DEBUGMSG(SDCARD_ZONE_ERROR, (TEXT("SDIDMAReceive() - exit: STAT register indicates MMC_STAT_DTO error.\n")));
; 3790 :         goto cleanUp;
; 3791 :     }
; 3792 :     if( MMC_STAT & MMCHS_STAT_DCRC ) // DATA CRC Error

  00030	e3140602	 tst         r4, #2, 12
  00034	1a00003d	 bne         |$cleanUp$43551|

; 3793 :     {
; 3794 :         DEBUGMSG(SDCARD_ZONE_ERROR, (TEXT("SDIDMAReceive() - exit: STAT register indicates MMC_CRC_ERROR_RCVD error.\n")));
; 3795 :         goto cleanUp;
; 3796 :     }
; 3797 : 
; 3798 :     // Clear interrupt status
; 3799 :         EnterCriticalSection( &m_critSec );

  00038	e28500b0	 add         r0, r5, #0xB0
  0003c	eb000000	 bl          EnterCriticalSection

; 3800 :         SETREG32(&m_pbRegisters->MMCHS_IE, MMCHS_IE_TC);

  00040	e595e15c	 ldr         lr, [r5, #0x15C]

; 3801 :         CLRREG32(&m_pbRegisters->MMCHS_ISE, MMCHS_ISE_TC);
; 3802 :         OUTREG32(&m_pbRegisters->MMCHS_STAT, 0xFFFFFFFF);

  00044	e3e01000	 mvn         r1, #0

; 3803 :         LeaveCriticalSection( &m_critSec );

  00048	e28500b0	 add         r0, r5, #0xB0
  0004c	e59e3134	 ldr         r3, [lr, #0x134]
  00050	e3833002	 orr         r3, r3, #2
  00054	e58e3134	 str         r3, [lr, #0x134]
  00058	e595215c	 ldr         r2, [r5, #0x15C]
  0005c	e5923138	 ldr         r3, [r2, #0x138]
  00060	e3c33002	 bic         r3, r3, #2
  00064	e5823138	 str         r3, [r2, #0x138]
  00068	e595315c	 ldr         r3, [r5, #0x15C]
  0006c	e5831130	 str         r1, [r3, #0x130]
  00070	eb000000	 bl          LeaveCriticalSection

; 3804 : 
; 3805 :     SDIO_StartInputDMA();

  00074	e1a00005	 mov         r0, r5
  00078	eb000000	 bl          |?SDIO_StartInputDMA@CSDIOControllerBase@@QAAXXZ|

; 3806 : 
; 3807 :     StallExecution(1);

  0007c	e3a00001	 mov         r0, #1
  00080	eb000000	 bl          StallExecution

; 3808 : 
; 3809 :     // calculate timeout conditions
; 3810 :     dwCountStart = GetTickCount();

  00084	eb000000	 bl          GetTickCount
  00088	e1a07000	 mov         r7, r0

; 3811 : 
; 3812 :     // wait for the SDIO/controller interrupt
; 3813 :     for(;;)
; 3814 :     {
; 3815 :         // check for a timeout
; 3816 :         if (GetTickCount() - dwCountStart > m_dwMaxTimeout)

  0008c	ea000020	 b           |$LN47@SDIDMARece|
  00090		 |$LL16@SDIDMARece|

; 3821 :             goto cleanUp;
; 3822 :         }
; 3823 : 
; 3824 :            DWORD retries = 0;
; 3825 :            // polling end-of-command
; 3826 :            while (!(Read_MMC_STAT() & MMCHS_STAT_TC)) {

  00090	e3a06000	 mov         r6, #0
  00094	ea000002	 b           |$LN49@SDIDMARece|
  00098		 |$LL12@SDIDMARece|

; 3827 :                if (retries > SDIO_MAX_LOOP) {

  00098	e3560702	 cmp         r6, #2, 14
  0009c	8a000009	 bhi         |$LN38@SDIDMARece|

; 3829 :                    break;      
; 3830 :                }
; 3831 :                retries++;

  000a0	e2866001	 add         r6, r6, #1
  000a4		 |$LN49@SDIDMARece|

; 3827 :                if (retries > SDIO_MAX_LOOP) {

  000a4	e28500b0	 add         r0, r5, #0xB0

; 3829 :                    break;      
; 3830 :                }
; 3831 :                retries++;

  000a8	eb000000	 bl          EnterCriticalSection
  000ac	e595315c	 ldr         r3, [r5, #0x15C]
  000b0	e28500b0	 add         r0, r5, #0xB0
  000b4	e5934130	 ldr         r4, [r3, #0x130]
  000b8	eb000000	 bl          LeaveCriticalSection
  000bc	e3140002	 tst         r4, #2
  000c0	0afffff4	 beq         |$LL12@SDIDMARece|

; 3852 :         {
; 3853 :             DEBUGMSG(SDCARD_ZONE_ERROR, (TEXT("SDIDMAReceive() - exit: STAT register indicates MMC_STAT_DTO error.\n")));
; 3854 :             // stop DMA
; 3855 :             SDIO_StopInputDMA();
; 3856 :             goto cleanUp;
; 3857 :         }
; 3858 :         if( MMC_STAT & MMCHS_STAT_DCRC ) // DATA CRC Error

  000c4	ea000001	 b           |$LN24@SDIDMARece|
  000c8		 |$LN38@SDIDMARece|

; 3828 :                    RETAILMSG(1, (TEXT("A.S. Timeout while polling DMA Receive complete.\n")));

  000c8	e59f00cc	 ldr         r0, [pc, #0xCC]
  000cc	eb000000	 bl          NKDbgPrintfW
  000d0		 |$LN24@SDIDMARece|

; 3832 :            }
; 3833 : 
; 3834 :         if(!m_fCardPresent)

  000d0	e59530f0	 ldr         r3, [r5, #0xF0]
  000d4	e3530000	 cmp         r3, #0
  000d8	0a000017	 beq         |$LN40@SDIDMARece|

; 3835 :         {
; 3836 : #ifdef ENABLE_RETAIL_OUTPUT
; 3837 :            RETAILMSG(1, (L"Card has been Removed stopping Input DMA\r\n"));
; 3838 : #endif
; 3839 :            break;
; 3840 :         }
; 3841 : 
; 3842 :         MMC_STAT = Read_MMC_STAT(); 

  000dc	e28500b0	 add         r0, r5, #0xB0
  000e0	eb000000	 bl          EnterCriticalSection
  000e4	e595315c	 ldr         r3, [r5, #0x15C]
  000e8	e28500b0	 add         r0, r5, #0xB0
  000ec	e5934130	 ldr         r4, [r3, #0x130]
  000f0	eb000000	 bl          LeaveCriticalSection

; 3843 :         if(MMC_STAT & MMCHS_STAT_BRR)

  000f4	e3140020	 tst         r4, #0x20
  000f8	1a00000f	 bne         |$LN40@SDIDMARece|

; 3844 :         {
; 3845 :             break;
; 3846 :         }
; 3847 :         if(MMC_STAT & MMCHS_STAT_TC)

  000fc	e3140002	 tst         r4, #2
  00100	1a00000d	 bne         |$LN40@SDIDMARece|

; 3848 :         {
; 3849 :             break;
; 3850 :         }
; 3851 :         if( MMC_STAT & MMCHS_STAT_DTO )

  00104	e3140601	 tst         r4, #1, 12
  00108	1a000006	 bne         |$LN39@SDIDMARece|

; 3852 :         {
; 3853 :             DEBUGMSG(SDCARD_ZONE_ERROR, (TEXT("SDIDMAReceive() - exit: STAT register indicates MMC_STAT_DTO error.\n")));
; 3854 :             // stop DMA
; 3855 :             SDIO_StopInputDMA();
; 3856 :             goto cleanUp;
; 3857 :         }
; 3858 :         if( MMC_STAT & MMCHS_STAT_DCRC ) // DATA CRC Error

  0010c	e3140602	 tst         r4, #2, 12
  00110	1a000004	 bne         |$LN39@SDIDMARece|
  00114		 |$LN47@SDIDMARece|
  00114	eb000000	 bl          GetTickCount
  00118	e5952150	 ldr         r2, [r5, #0x150]
  0011c	e0403007	 sub         r3, r0, r7
  00120	e1530002	 cmp         r3, r2
  00124	9affffd9	 bls         |$LL16@SDIDMARece|
  00128		 |$LN39@SDIDMARece|

; 3817 :         {
; 3818 :             DEBUGMSG(SDCARD_ZONE_ERROR, (TEXT("SDIDMAReceive() - exit: TIMEOUT.\n")));
; 3819 :             // stop DMA
; 3820 :             SDIO_StopInputDMA();

  00128	e1a00005	 mov         r0, r5
  0012c	eb000000	 bl          |?SDIO_StopInputDMA@CSDIOControllerBase@@QAAXXZ|

; 3859 :         {
; 3860 :             DEBUGMSG(SDCARD_ZONE_ERROR, (TEXT("SDIDMAReceive() - exit: STAT register indicates MMC_STAT_DCRC error.\n")));
; 3861 :             // stop DMA
; 3862 :             SDIO_StopInputDMA();

  00130		 |$cleanUp$43551|

; 3886 : 
; 3887 : cleanUp:
; 3888 : #ifdef ENABLE_RETAIL_OUTPUT
; 3889 :     RETAILMSG(1, (L"SDIDMAReceive(%08X, %08X, %08X)-\r\n", INREG32(&m_pbRegisters->MMCHS_STAT), INREG32(&m_pbRegisters->MMCHS_PSTATE), INREG32(&m_pbRegisters->MMCHS_DATA)));
; 3890 : #endif
; 3891 :     return FALSE;

  00130	e3a00000	 mov         r0, #0

; 3892 : }

  00134	e8bd43f0	 ldmia       sp!, {r4 - r9, lr}
  00138	e12fff1e	 bx          lr
  0013c		 |$LN40@SDIDMARece|

; 3863 :             goto cleanUp;
; 3864 :         }
; 3865 : 
; 3866 :     }
; 3867 : 
; 3868 :     MMC_STAT = Read_MMC_STAT(); 

  0013c	e28500b0	 add         r0, r5, #0xB0
  00140	eb000000	 bl          EnterCriticalSection
  00144	e595315c	 ldr         r3, [r5, #0x15C]
  00148	e28500b0	 add         r0, r5, #0xB0
  0014c	e5933130	 ldr         r3, [r3, #0x130]
  00150	eb000000	 bl          LeaveCriticalSection

; 3869 : 
; 3870 :     // stop DMA
; 3871 :     SDIO_StopInputDMA();

  00154	e1a00005	 mov         r0, r5
  00158	eb000000	 bl          |?SDIO_StopInputDMA@CSDIOControllerBase@@QAAXXZ|

; 3872 : 
; 3873 :     Set_MMC_STAT(MMCHS_STAT_TC);

  0015c	e28500b0	 add         r0, r5, #0xB0
  00160	eb000000	 bl          EnterCriticalSection
  00164	e595315c	 ldr         r3, [r5, #0x15C]
  00168	e3a02002	 mov         r2, #2
  0016c	e28500b0	 add         r0, r5, #0xB0
  00170	e5832130	 str         r2, [r3, #0x130]
  00174	eb000000	 bl          LeaveCriticalSection

; 3874 : 
; 3875 :     // finally, copy the data from DMA buffer to the user buffer, which maybe SG buffer, 
; 3876 :     if( !SDPerformSafeCopy( pbuf2, m_pDmaBuffer, dwLen ) )

  00178	e59510fc	 ldr         r1, [r5, #0xFC]
  0017c	e1a02008	 mov         r2, r8
  00180	e1a00009	 mov         r0, r9
  00184	eb000000	 bl          SDPerformSafeCopy
  00188	e3500000	 cmp         r0, #0
  0018c	0affffe7	 beq         |$cleanUp$43551|

; 3877 :     {
; 3878 :         goto cleanUp;
; 3879 :     }
; 3880 : 
; 3881 : #ifdef ENABLE_RETAIL_OUTPUT
; 3882 :     RETAILMSG(1, (L"SDIDMAReceive(dwLen 0x%x,%08x,%08x,%08x,%08x,%08x,%08x,%08x,%08x)+\r\n", 
; 3883 :       dwLen, pbuf2[0], pbuf2[1], pbuf2[2], pbuf2[3], pbuf2[4], pbuf2[5], pbuf2[6], pbuf2[7])); 
; 3884 : #endif      
; 3885 :     return TRUE;  

  00190	e3a00001	 mov         r0, #1

; 3892 : }

  00194	e8bd43f0	 ldmia       sp!, {r4 - r9, lr}
  00198	e12fff1e	 bx          lr
  0019c		 |$LN53@SDIDMARece|
  0019c		 |$LN54@SDIDMARece|
  0019c	00000000	 DCD         |??_C@_1GE@EMGJJJMP@?$AAA?$AA?4?$AAS?$AA?4?$AA?5?$AAT?$AAi?$AAm?$AAe?$AAo?$AAu?$AAt?$AA?5?$AAw?$AAh?$AAi?$AAl?$AAe?$AA?5?$AAp?$AAo?$AAl?$AAl?$AAi?$AAn?$AAg?$AA?5?$AAD?$AAM?$AAA?$AA?5?$AAR@|
  001a0		 |$M45381|

			 ENDP  ; |?SDIDMAReceive@CSDIOControllerBase@@QAAHPAEKH@Z|, CSDIOControllerBase::SDIDMAReceive

	EXPORT	|?SDIDMATransmit@CSDIOControllerBase@@QAAHPAEKH@Z| ; CSDIOControllerBase::SDIDMATransmit
	EXPORT	|??_C@_1GG@GOJDNFHN@?$AAA?$AA?4?$AAS?$AA?4?$AA?5?$AAT?$AAi?$AAm?$AAe?$AAo?$AAu?$AAt?$AA?5?$AAw?$AAh?$AAi?$AAl?$AAe?$AA?5?$AAp?$AAo?$AAl?$AAl?$AAi?$AAn?$AAg?$AA?5?$AAD?$AAM?$AAA?$AA?5?$AAT@| [ DATA ] ; `string'

  00000			 AREA	 |.pdata|, PDATA
|$T45438| DCD	|$LN50@SDIDMATran|
	DCD	0x40006301

  00000			 AREA	 |.rdata|, DATA, READONLY
|??_C@_1GG@GOJDNFHN@?$AAA?$AA?4?$AAS?$AA?4?$AA?5?$AAT?$AAi?$AAm?$AAe?$AAo?$AAu?$AAt?$AA?5?$AAw?$AAh?$AAi?$AAl?$AAe?$AA?5?$AAp?$AAo?$AAl?$AAl?$AAi?$AAn?$AAg?$AA?5?$AAD?$AAM?$AAA?$AA?5?$AAT@| DCB "A"
	DCB	0x0, ".", 0x0, "S", 0x0, ".", 0x0, " ", 0x0, "T", 0x0, "i"
	DCB	0x0, "m", 0x0, "e", 0x0, "o", 0x0, "u", 0x0, "t", 0x0, " "
	DCB	0x0, "w", 0x0, "h", 0x0, "i", 0x0, "l", 0x0, "e", 0x0, " "
	DCB	0x0, "p", 0x0, "o", 0x0, "l", 0x0, "l", 0x0, "i", 0x0, "n"
	DCB	0x0, "g", 0x0, " ", 0x0, "D", 0x0, "M", 0x0, "A", 0x0, " "
	DCB	0x0, "T", 0x0, "r", 0x0, "a", 0x0, "n", 0x0, "s", 0x0, "m"
	DCB	0x0, "i", 0x0, "t", 0x0, " ", 0x0, "c", 0x0, "o", 0x0, "m"
	DCB	0x0, "p", 0x0, "l", 0x0, "e", 0x0, "t", 0x0, "e", 0x0, "."
	DCB	0x0, 0xa, 0x0, 0x0, 0x0			; `string'
; Function compile flags: /Ogspy

  00000			 AREA	 |.text|, CODE, ARM

  00000		 |?SDIDMATransmit@CSDIOControllerBase@@QAAHPAEKH@Z| PROC ; CSDIOControllerBase::SDIDMATransmit

; 3896 : {

  00000		 |$LN50@SDIDMATran|
  00000	e92d40f0	 stmdb       sp!, {r4 - r7, lr}
  00004		 |$M45435|
  00004	e1a05000	 mov         r5, r0

; 3897 :     DWORD dwCountStart;
; 3898 :     DWORD __unaligned *pbuf2 = (DWORD *) pBuff;
; 3899 : 
; 3900 :     UNREFERENCED_PARAMETER(FastPathMode);
; 3901 : 
; 3902 :     // first copy the data to the DMA buffer, then to the user buffer, which maybe SG buffer,
; 3903 :     if( !SDPerformSafeCopy( m_pDmaBuffer, pbuf2, dwLen ) )

  00008	e59500fc	 ldr         r0, [r5, #0xFC]
  0000c	eb000000	 bl          SDPerformSafeCopy
  00010	e3500000	 cmp         r0, #0
  00014	0a000043	 beq         |$cleanUp$43597|

; 3904 :     {
; 3905 :         goto cleanUp;
; 3906 :     }
; 3907 : 
; 3908 :     DWORD MMC_STAT = Read_MMC_STAT(); 

  00018	e28500b0	 add         r0, r5, #0xB0
  0001c	eb000000	 bl          EnterCriticalSection
  00020	e595315c	 ldr         r3, [r5, #0x15C]
  00024	e28500b0	 add         r0, r5, #0xB0
  00028	e5934130	 ldr         r4, [r3, #0x130]
  0002c	eb000000	 bl          LeaveCriticalSection

; 3909 : #ifdef ENABLE_RETAIL_OUTPUT
; 3910 :     RETAILMSG(1, (L"SDIDMATransmit(dwLen 0x%x,%08x,%08x,%08x,%08x,%08x,%08x,%08x,%08x)+\r\n", 
; 3911 :       dwLen, pbuf2[0], pbuf2[1], pbuf2[2], pbuf2[3], pbuf2[4], pbuf2[5], pbuf2[6], pbuf2[7])); 
; 3912 : #endif      
; 3913 :     if( MMC_STAT & MMCHS_STAT_DTO )

  00030	e3140601	 tst         r4, #1, 12
  00034	1a00003b	 bne         |$cleanUp$43597|

; 3914 :     {
; 3915 :         DEBUGMSG(SDCARD_ZONE_ERROR, (TEXT("SDIDMATransmit() - exit: STAT register indicates MMC_STAT_DTO error.\n")));
; 3916 :         goto cleanUp;
; 3917 :     }
; 3918 :     if( MMC_STAT & MMCHS_STAT_DCRC ) // DATA CRC Error

  00038	e3140602	 tst         r4, #2, 12
  0003c	1a000039	 bne         |$cleanUp$43597|

; 3919 :     {
; 3920 :         DEBUGMSG(SDCARD_ZONE_ERROR, (TEXT("SDIDMATransmit() - exit: STAT register indicates MMC_STAT_DCRC error.\n")));
; 3921 :         goto cleanUp;
; 3922 :     }
; 3923 : 
; 3924 :     // Clear interrupt status
; 3925 :         EnterCriticalSection( &m_critSec );

  00040	e28500b0	 add         r0, r5, #0xB0
  00044	eb000000	 bl          EnterCriticalSection

; 3926 :         SETREG32(&m_pbRegisters->MMCHS_IE, MMCHS_IE_TC);

  00048	e595215c	 ldr         r2, [r5, #0x15C]

; 3927 :         CLRREG32(&m_pbRegisters->MMCHS_ISE, MMCHS_ISE_TC);
; 3928 :         OUTREG32(&m_pbRegisters->MMCHS_STAT, 0xFFFFFFFF);

  0004c	e3e01000	 mvn         r1, #0

; 3929 :         LeaveCriticalSection( &m_critSec );

  00050	e28500b0	 add         r0, r5, #0xB0
  00054	e5923134	 ldr         r3, [r2, #0x134]
  00058	e3833002	 orr         r3, r3, #2
  0005c	e5823134	 str         r3, [r2, #0x134]
  00060	e595215c	 ldr         r2, [r5, #0x15C]
  00064	e5923138	 ldr         r3, [r2, #0x138]
  00068	e3c33002	 bic         r3, r3, #2
  0006c	e5823138	 str         r3, [r2, #0x138]
  00070	e595315c	 ldr         r3, [r5, #0x15C]
  00074	e5831130	 str         r1, [r3, #0x130]
  00078	eb000000	 bl          LeaveCriticalSection

; 3930 : 
; 3931 :     SDIO_StartOutputDMA();

  0007c	e1a00005	 mov         r0, r5
  00080	eb000000	 bl          |?SDIO_StartOutputDMA@CSDIOControllerBase@@QAAXXZ|

; 3932 : 
; 3933 :     StallExecution(1);

  00084	e3a00001	 mov         r0, #1
  00088	eb000000	 bl          StallExecution

; 3934 : 
; 3935 :     // calculate timeout conditions
; 3936 :     dwCountStart = GetTickCount();

  0008c	eb000000	 bl          GetTickCount
  00090	e1a07000	 mov         r7, r0

; 3937 : 
; 3938 :     // wait for the SDIO/controller interrupt
; 3939 :     for(;;)
; 3940 :     {
; 3941 :         // check for a timeout
; 3942 :         if (GetTickCount() - dwCountStart > m_dwMaxTimeout)

  00094	ea00001e	 b           |$LN45@SDIDMATran|
  00098		 |$LL13@SDIDMATran|

; 3943 :         {
; 3944 :             DEBUGMSG(ZONE_ENABLE_ERROR, (TEXT("SDIDMATransmit() - exit: TIMEOUT.\n")));
; 3945 : #ifdef ENABLE_RETAIL_OUTPUT
; 3946 :             RETAILMSG(1, (TEXT("SDIDMATransmit() - exit: TIMEOUT.\n")));
; 3947 : #endif            
; 3948 :             goto cleanUp;
; 3949 :         }
; 3950 : 
; 3951 :             DWORD retries = 0;
; 3952 :             // polling end-of-command
; 3953 :             while (!(Read_MMC_STAT() & MMCHS_STAT_TC)) {

  00098	e3a06000	 mov         r6, #0
  0009c	ea000002	 b           |$LN47@SDIDMATran|
  000a0		 |$LL9@SDIDMATran|

; 3954 :                 if (retries > SDIO_MAX_LOOP) {

  000a0	e3560702	 cmp         r6, #2, 14
  000a4	8a000009	 bhi         |$LN37@SDIDMATran|

; 3956 :                     break;      
; 3957 :                 }
; 3958 :                 retries++;

  000a8	e2866001	 add         r6, r6, #1
  000ac		 |$LN47@SDIDMATran|

; 3954 :                 if (retries > SDIO_MAX_LOOP) {

  000ac	e28500b0	 add         r0, r5, #0xB0

; 3956 :                     break;      
; 3957 :                 }
; 3958 :                 retries++;

  000b0	eb000000	 bl          EnterCriticalSection
  000b4	e595315c	 ldr         r3, [r5, #0x15C]
  000b8	e28500b0	 add         r0, r5, #0xB0
  000bc	e5934130	 ldr         r4, [r3, #0x130]
  000c0	eb000000	 bl          LeaveCriticalSection
  000c4	e3140002	 tst         r4, #2
  000c8	0afffff4	 beq         |$LL9@SDIDMATran|

; 3983 :             goto cleanUp;
; 3984 :         }
; 3985 :         if( MMC_STAT & MMCHS_STAT_DCRC ) // DATA CRC Error

  000cc	ea000001	 b           |$LN23@SDIDMATran|
  000d0		 |$LN37@SDIDMATran|

; 3955 :                     RETAILMSG(1, (TEXT("A.S. Timeout while polling DMA Transmit complete.\n")));

  000d0	e59f00b0	 ldr         r0, [pc, #0xB0]
  000d4	eb000000	 bl          NKDbgPrintfW
  000d8		 |$LN23@SDIDMATran|

; 3959 :             }
; 3960 : 
; 3961 : 
; 3962 :         if(!m_fCardPresent)

  000d8	e59530f0	 ldr         r3, [r5, #0xF0]
  000dc	e3530000	 cmp         r3, #0
  000e0	0a000016	 beq         |$LN39@SDIDMATran|

; 3963 :         {
; 3964 : #ifdef ENABLE_RETAIL_OUTPUT
; 3965 :            RETAILMSG(1, (L"Card has been Removed stopping Output DMA\r\n"));
; 3966 : #endif
; 3967 :            break;
; 3968 :         }
; 3969 : 
; 3970 :         MMC_STAT = Read_MMC_STAT(); 

  000e4	e28500b0	 add         r0, r5, #0xB0
  000e8	eb000000	 bl          EnterCriticalSection
  000ec	e595315c	 ldr         r3, [r5, #0x15C]
  000f0	e28500b0	 add         r0, r5, #0xB0
  000f4	e5934130	 ldr         r4, [r3, #0x130]
  000f8	eb000000	 bl          LeaveCriticalSection

; 3971 :         if(MMC_STAT & MMCHS_STAT_TC)

  000fc	e3140002	 tst         r4, #2
  00100	1a00000e	 bne         |$LN39@SDIDMATran|

; 3972 :         {
; 3973 :             break;
; 3974 :         }
; 3975 :         if( MMC_STAT & MMCHS_STAT_DTO )

  00104	e3140601	 tst         r4, #1, 12
  00108	1a000009	 bne         |$LN41@SDIDMATran|

; 3983 :             goto cleanUp;
; 3984 :         }
; 3985 :         if( MMC_STAT & MMCHS_STAT_DCRC ) // DATA CRC Error

  0010c	e3140602	 tst         r4, #2, 12
  00110	1a000007	 bne         |$LN41@SDIDMATran|
  00114		 |$LN45@SDIDMATran|
  00114	eb000000	 bl          GetTickCount
  00118	e5952150	 ldr         r2, [r5, #0x150]
  0011c	e0403007	 sub         r3, r0, r7
  00120	e1530002	 cmp         r3, r2
  00124	9affffdb	 bls         |$LL13@SDIDMATran|

; 3986 :         {
; 3987 :             DEBUGMSG(SDCARD_ZONE_ERROR, (TEXT("SDIDMATransmit() - exit: STAT register indicates MMC_CRC_ERROR_RCVD error.\n")));
; 3988 : #ifdef ENABLE_RETAIL_OUTPUT
; 3989 :             RETAILMSG(1, (TEXT("SDIDMATransmit() - exit: STAT register indicates MMC_CRC_ERROR_RCVD error.\n")));
; 3990 : #endif
; 3991 :             // stop DMA
; 3992 :             SDIO_StopInputDMA();

  00128		 |$cleanUp$43597|

; 4003 : 
; 4004 : cleanUp:
; 4005 : #ifdef ENABLE_RETAIL_OUTPUT
; 4006 :     RETAILMSG(1, (L"CSDIOControllerBase::SDIDMATransmit(%08X, %08X)-\r\n", INREG32(&m_pbRegisters->MMCHS_STAT), INREG32(&m_pbRegisters->MMCHS_PSTATE)));
; 4007 : #endif
; 4008 :     return FALSE;

  00128	e3a00000	 mov         r0, #0

; 4009 : }

  0012c	e8bd40f0	 ldmia       sp!, {r4 - r7, lr}
  00130	e12fff1e	 bx          lr
  00134		 |$LN41@SDIDMATran|

; 3976 :         {
; 3977 :             DEBUGMSG(SDCARD_ZONE_ERROR, (TEXT("SDIDMATransmit() - exit: STAT register indicates MMC_STAT_DTO error.\n")));
; 3978 : #ifdef ENABLE_RETAIL_OUTPUT
; 3979 :             RETAILMSG(1, (TEXT("SDIDMATransmit() - exit: STAT register indicates MMC_STAT_DTO error.\n")));
; 3980 : #endif            
; 3981 :             // stop DMA
; 3982 :             SDIO_StopInputDMA();

  00134	e1a00005	 mov         r0, r5
  00138	eb000000	 bl          |?SDIO_StopInputDMA@CSDIOControllerBase@@QAAXXZ|

; 4001 : 
; 4002 :     return TRUE;

  0013c	eafffff9	 b           |$cleanUp$43597|
  00140		 |$LN39@SDIDMATran|

; 3993 :             goto cleanUp;
; 3994 :         }
; 3995 :     }
; 3996 :     MMC_STAT = Read_MMC_STAT();

  00140	e28500b0	 add         r0, r5, #0xB0
  00144	eb000000	 bl          EnterCriticalSection
  00148	e595315c	 ldr         r3, [r5, #0x15C]
  0014c	e28500b0	 add         r0, r5, #0xB0
  00150	e5933130	 ldr         r3, [r3, #0x130]
  00154	eb000000	 bl          LeaveCriticalSection

; 3997 : 
; 3998 :     // stop DMA
; 3999 :     SDIO_StopOutputDMA();

  00158	e1a00005	 mov         r0, r5
  0015c	eb000000	 bl          |?SDIO_StopOutputDMA@CSDIOControllerBase@@QAAXXZ|

; 4000 :     Set_MMC_STAT(MMCHS_STAT_TC);

  00160	e28500b0	 add         r0, r5, #0xB0
  00164	eb000000	 bl          EnterCriticalSection
  00168	e595315c	 ldr         r3, [r5, #0x15C]
  0016c	e3a02002	 mov         r2, #2
  00170	e28500b0	 add         r0, r5, #0xB0
  00174	e5832130	 str         r2, [r3, #0x130]
  00178	eb000000	 bl          LeaveCriticalSection

; 4001 : 
; 4002 :     return TRUE;

  0017c	e3a00001	 mov         r0, #1

; 4009 : }

  00180	e8bd40f0	 ldmia       sp!, {r4 - r7, lr}
  00184	e12fff1e	 bx          lr
  00188		 |$LN51@SDIDMATran|
  00188		 |$LN52@SDIDMATran|
  00188	00000000	 DCD         |??_C@_1GG@GOJDNFHN@?$AAA?$AA?4?$AAS?$AA?4?$AA?5?$AAT?$AAi?$AAm?$AAe?$AAo?$AAu?$AAt?$AA?5?$AAw?$AAh?$AAi?$AAl?$AAe?$AA?5?$AAp?$AAo?$AAl?$AAl?$AAi?$AAn?$AAg?$AA?5?$AAD?$AAM?$AAA?$AA?5?$AAT@|
  0018c		 |$M45436|

			 ENDP  ; |?SDIDMATransmit@CSDIOControllerBase@@QAAHPAEKH@Z|, CSDIOControllerBase::SDIDMATransmit

	EXPORT	|?SDIPollingReceive@CSDIOControllerBase@@QAAHPAEK@Z| ; CSDIOControllerBase::SDIPollingReceive

  00000			 AREA	 |.pdata|, PDATA
|$T45528| DCD	|$LN72@SDIPolling|
	DCD	0x4000a401
; Function compile flags: /Ogspy

  00000			 AREA	 |.text|, CODE, ARM

  00000		 |?SDIPollingReceive@CSDIOControllerBase@@QAAHPAEK@Z| PROC ; CSDIOControllerBase::SDIPollingReceive

; 4020 : {

  00000		 |$LN72@SDIPolling|
  00000	e92d4ff0	 stmdb       sp!, {r4 - r11, lr}
  00004		 |$M45525|
  00004	e1a07002	 mov         r7, r2
  00008	e1a06001	 mov         r6, r1
  0000c	e1a05000	 mov         r5, r0

; 4021 :     DWORD fifoSizeW, blockLengthW; // Almost Full level and block length
; 4022 :     DWORD dwCount1, dwCount2;
; 4023 : 
; 4024 :     DWORD *pbuf = (DWORD *) pBuff;
; 4025 :     DWORD __unaligned *pbuf2 = (DWORD *) pBuff;
; 4026 : #ifdef ENABLE_RETAIL_OUTPUT
; 4027 :     UINT16 __unaligned *pbuf3 = (UINT16 *) pBuff;
; 4028 : #endif
; 4029 :     DWORD dwCountStart;
; 4030 : 
; 4031 :     DEBUGMSG(SHC_RECEIVE_ZONE, (TEXT("R(0x%x)\n"), dwLen));
; 4032 :     //check the parameters
; 4033 : 
; 4034 :     DWORD MMC_STAT = Read_MMC_STAT();

  00010	e28500b0	 add         r0, r5, #0xB0
  00014	eb000000	 bl          EnterCriticalSection
  00018	e595315c	 ldr         r3, [r5, #0x15C]
  0001c	e28500b0	 add         r0, r5, #0xB0
  00020	e5933130	 ldr         r3, [r3, #0x130]
  00024	eb000000	 bl          LeaveCriticalSection

; 4035 :     INREG32(&m_pbRegisters->MMCHS_PSTATE);

  00028	e595315c	 ldr         r3, [r5, #0x15C]
  0002c	e5933124	 ldr         r3, [r3, #0x124]

; 4036 : 
; 4037 :     // calculate timeout conditions
; 4038 :     dwCountStart = GetTickCount();

  00030	eb000000	 bl          GetTickCount
  00034	e3a03c01	 mov         r3, #1, 24

; 4039 : 
; 4040 : 
; 4041 :     if(dwLen % MMC_BLOCK_SIZE || m_dwSDIOCard)

  00038	e38330ff	 orr         r3, r3, #0xFF
  0003c	e1170003	 tst         r7, r3
  00040	e1a0a000	 mov         r10, r0
  00044	1a000033	 bne         |$LN57@SDIPolling|
  00048	e5953178	 ldr         r3, [r5, #0x178]
  0004c	e3530000	 cmp         r3, #0
  00050	1a000030	 bne         |$LN57@SDIPolling|

; 4060 :            }
; 4061 :     } else
; 4062 :     {
; 4063 :       fifoSizeW = INREG32(&m_pbRegisters->MMCHS_BLK) & 0xFFFF;

  00054	e595315c	 ldr         r3, [r5, #0x15C]
  00058	e3a02cff	 mov         r2, #0xFF, 24
  0005c	e38220ff	 orr         r2, r2, #0xFF
  00060	e5933104	 ldr         r3, [r3, #0x104]

; 4064 :       blockLengthW = dwLen / fifoSizeW;

  00064	e1a01007	 mov         r1, r7
  00068	e0038002	 and         r8, r3, r2
  0006c	e1a00008	 mov         r0, r8
  00070	eb000000	 bl          __rt_udiv
  00074	e1b09000	 movs        r9, r0

; 4065 :       for (dwCount1 = 0; dwCount1 < blockLengthW; dwCount1++)

  00078	e3a07000	 mov         r7, #0
  0007c	0a000046	 beq         |$LN18@SDIPolling|
  00080	e3a0b020	 mov         r11, #0x20

; 4066 :       {
; 4067 :         // Wait for Block ready for read
; 4068 :         while((Read_MMC_STAT() & MMCHS_STAT_BRR) != MMCHS_STAT_BRR)

  00084	ea000004	 b           |$LL16@SDIPolling|
  00088		 |$LL13@SDIPolling|

; 4069 :         {
; 4070 :           // check for a timeout
; 4071 :           if (GetTickCount() - dwCountStart > m_dwMaxTimeout)

  00088	eb000000	 bl          GetTickCount
  0008c	e5952150	 ldr         r2, [r5, #0x150]
  00090	e040300a	 sub         r3, r0, r10
  00094	e1530002	 cmp         r3, r2
  00098	8a000079	 bhi         |$READ_ERROR$43658|
  0009c		 |$LL16@SDIPolling|
  0009c	e28500b0	 add         r0, r5, #0xB0
  000a0	eb000000	 bl          EnterCriticalSection
  000a4	e595315c	 ldr         r3, [r5, #0x15C]
  000a8	e28500b0	 add         r0, r5, #0xB0
  000ac	e5934130	 ldr         r4, [r3, #0x130]
  000b0	eb000000	 bl          LeaveCriticalSection
  000b4	e2043020	 and         r3, r4, #0x20
  000b8	e3530020	 cmp         r3, #0x20
  000bc	1afffff1	 bne         |$LL13@SDIPolling|

; 4072 :           {
; 4073 :             DEBUGMSG(ZONE_ENABLE_ERROR, (TEXT("SDIPollingReceive() - exit: TIMEOUT.\n")));
; 4074 :             goto READ_ERROR;
; 4075 :           }
; 4076 :         }
; 4077 :         Set_MMC_STAT(MMCHS_STAT_BRR);

  000c0	e28500b0	 add         r0, r5, #0xB0
  000c4	eb000000	 bl          EnterCriticalSection
  000c8	e595315c	 ldr         r3, [r5, #0x15C]
  000cc	e28500b0	 add         r0, r5, #0xB0
  000d0	e583b130	 str         r11, [r3, #0x130]
  000d4	eb000000	 bl          LeaveCriticalSection

; 4078 : 
; 4079 :         // Get all data from DATA register and write in user buffer
; 4080 :         for (dwCount2 = 0; dwCount2 < (fifoSizeW / sizeof(DWORD)); dwCount2++)

  000d8	e1b02128	 movs        r2, r8, lsr #2
  000dc	0a000004	 beq         |$LN15@SDIPolling|
  000e0		 |$LL9@SDIPolling|

; 4081 :         {
; 4082 :             *pbuf = INREG32(&m_pbRegisters->MMCHS_DATA) ;

  000e0	e595315c	 ldr         r3, [r5, #0x15C]
  000e4	e2522001	 subs        r2, r2, #1
  000e8	e5933120	 ldr         r3, [r3, #0x120]
  000ec	e4863004	 str         r3, [r6], #4
  000f0	1afffffa	 bne         |$LL9@SDIPolling|
  000f4		 |$LN15@SDIPolling|

; 4065 :       for (dwCount1 = 0; dwCount1 < blockLengthW; dwCount1++)

  000f4	e2877001	 add         r7, r7, #1
  000f8	e1570009	 cmp         r7, r9
  000fc	3affffe6	 bcc         |$LL16@SDIPolling|

; 4091 :     {
; 4092 :         // check for a timeout
; 4093 :         if (GetTickCount() - dwCountStart > m_dwMaxTimeout)

  00100	ea000025	 b           |$LN18@SDIPolling|
  00104		 |$LL25@SDIPolling|

; 4042 :         {
; 4043 :           while ((Read_MMC_STAT() & MMCHS_STAT_BRR) != MMCHS_STAT_BRR)
; 4044 :           {
; 4045 :            // check for a timeout
; 4046 :             if (GetTickCount() - dwCountStart > m_dwMaxTimeout)

  00104	eb000000	 bl          GetTickCount
  00108	e5952150	 ldr         r2, [r5, #0x150]
  0010c	e040300a	 sub         r3, r0, r10
  00110	e1530002	 cmp         r3, r2
  00114	8a00005a	 bhi         |$READ_ERROR$43658|
  00118		 |$LN57@SDIPolling|
  00118	e28500b0	 add         r0, r5, #0xB0
  0011c	eb000000	 bl          EnterCriticalSection
  00120	e595315c	 ldr         r3, [r5, #0x15C]
  00124	e28500b0	 add         r0, r5, #0xB0
  00128	e5934130	 ldr         r4, [r3, #0x130]
  0012c	eb000000	 bl          LeaveCriticalSection
  00130	e2043020	 and         r3, r4, #0x20
  00134	e3530020	 cmp         r3, #0x20
  00138	1afffff1	 bne         |$LL25@SDIPolling|

; 4047 :             {
; 4048 :               DEBUGMSG(ZONE_ENABLE_ERROR, (TEXT("SDIPollingReceive() - exit: TIMEOUT.\n")));
; 4049 :               goto READ_ERROR;
; 4050 :             }
; 4051 :           }
; 4052 : 
; 4053 :            Set_MMC_STAT(MMCHS_STAT_BRR);

  0013c	e28500b0	 add         r0, r5, #0xB0
  00140	eb000000	 bl          EnterCriticalSection
  00144	e595315c	 ldr         r3, [r5, #0x15C]
  00148	e3a02020	 mov         r2, #0x20
  0014c	e28500b0	 add         r0, r5, #0xB0
  00150	e5832130	 str         r2, [r3, #0x130]
  00154	eb000000	 bl          LeaveCriticalSection

; 4054 :         fifoSizeW = dwLen / sizeof(DWORD);

  00158	e1a0e127	 mov         lr, r7, lsr #2

; 4055 :         if(dwLen % sizeof(DWORD)) fifoSizeW++;

  0015c	e3170003	 tst         r7, #3
  00160	128ee001	 addne       lr, lr, #1

; 4056 :            for (dwCount2 = 0; dwCount2 < fifoSizeW; dwCount2++)

  00164	e35e0000	 cmp         lr, #0
  00168	0a00000b	 beq         |$LN18@SDIPolling|
  0016c		 |$LL20@SDIPolling|

; 4057 :            {
; 4058 :                *pbuf2 = INREG32(&m_pbRegisters->MMCHS_DATA) ;

  0016c	e595315c	 ldr         r3, [r5, #0x15C]
  00170	e25ee001	 subs        lr, lr, #1
  00174	e5930120	 ldr         r0, [r3, #0x120]
  00178	e1a03420	 mov         r3, r0, lsr #8
  0017c	e1a02820	 mov         r2, r0, lsr #16
  00180	e1a01c20	 mov         r1, r0, lsr #24
  00184	e5c63001	 strb        r3, [r6, #1]
  00188	e5c62002	 strb        r2, [r6, #2]
  0018c	e5c61003	 strb        r1, [r6, #3]
  00190	e5c60000	 strb        r0, [r6]

; 4059 :                pbuf2++;

  00194	e2866004	 add         r6, r6, #4
  00198	1afffff3	 bne         |$LL20@SDIPolling|
  0019c		 |$LN18@SDIPolling|

; 4083 :             pbuf++;
; 4084 :         }
; 4085 :       }
; 4086 :     }
; 4087 :     // recalculate timeout conditions
; 4088 :     dwCountStart = GetTickCount();

  0019c	eb000000	 bl          GetTickCount
  001a0	e1a06000	 mov         r6, r0

; 4089 : 
; 4090 :     while (((Read_MMC_STAT()&MMCHS_STAT_TC) != MMCHS_STAT_TC))

  001a4	ea000004	 b           |$LN69@SDIPolling|
  001a8		 |$LL6@SDIPolling|

; 4091 :     {
; 4092 :         // check for a timeout
; 4093 :         if (GetTickCount() - dwCountStart > m_dwMaxTimeout)

  001a8	eb000000	 bl          GetTickCount
  001ac	e5952150	 ldr         r2, [r5, #0x150]
  001b0	e0403006	 sub         r3, r0, r6
  001b4	e1530002	 cmp         r3, r2
  001b8	8a000031	 bhi         |$READ_ERROR$43658|
  001bc		 |$LN69@SDIPolling|
  001bc	e28500b0	 add         r0, r5, #0xB0
  001c0	eb000000	 bl          EnterCriticalSection
  001c4	e595315c	 ldr         r3, [r5, #0x15C]
  001c8	e28500b0	 add         r0, r5, #0xB0
  001cc	e5934130	 ldr         r4, [r3, #0x130]
  001d0	eb000000	 bl          LeaveCriticalSection
  001d4	e2043002	 and         r3, r4, #2
  001d8	e3530002	 cmp         r3, #2
  001dc	1afffff1	 bne         |$LL6@SDIPolling|

; 4094 :         {
; 4095 :             DEBUGMSG(ZONE_ENABLE_ERROR, (TEXT("SDIPollingReceive() - exit: TIMEOUT.\n")));
; 4096 :             goto READ_ERROR;
; 4097 :         }
; 4098 :     }
; 4099 : 
; 4100 :     Set_MMC_STAT(MMCHS_STAT_TC);

  001e0	e28500b0	 add         r0, r5, #0xB0
  001e4	eb000000	 bl          EnterCriticalSection
  001e8	e595315c	 ldr         r3, [r5, #0x15C]
  001ec	e3a02002	 mov         r2, #2
  001f0	e28500b0	 add         r0, r5, #0xB0
  001f4	e5832130	 str         r2, [r3, #0x130]
  001f8	eb000000	 bl          LeaveCriticalSection

; 4101 :     // Check if there is no CRC error
; 4102 :     if (!(Read_MMC_STAT() & MMCHS_STAT_DCRC))

  001fc	e28500b0	 add         r0, r5, #0xB0
  00200	eb000000	 bl          EnterCriticalSection
  00204	e595315c	 ldr         r3, [r5, #0x15C]
  00208	e28500b0	 add         r0, r5, #0xB0
  0020c	e5934130	 ldr         r4, [r3, #0x130]
  00210	eb000000	 bl          LeaveCriticalSection
  00214	e3140602	 tst         r4, #2, 12

; 4103 :     {
; 4104 :         MMC_STAT = Read_MMC_STAT();

  00218	e28500b0	 add         r0, r5, #0xB0
  0021c	1a00000d	 bne         |$LN2@SDIPolling|
  00220	eb000000	 bl          EnterCriticalSection
  00224	e595315c	 ldr         r3, [r5, #0x15C]
  00228	e28500b0	 add         r0, r5, #0xB0
  0022c	e5934130	 ldr         r4, [r3, #0x130]
  00230	eb000000	 bl          LeaveCriticalSection

; 4105 :         Write_MMC_STAT(MMC_STAT);

  00234	e28500b0	 add         r0, r5, #0xB0
  00238	eb000000	 bl          EnterCriticalSection
  0023c	e595315c	 ldr         r3, [r5, #0x15C]
  00240	e28500b0	 add         r0, r5, #0xB0
  00244	e5834130	 str         r4, [r3, #0x130]
  00248	eb000000	 bl          LeaveCriticalSection

; 4106 :         return TRUE;

  0024c	e3a00001	 mov         r0, #1

; 4116 :     }
; 4117 : #ifdef ENABLE_RETAIL_OUTPUT
; 4118 :     if (dwLen == 2)
; 4119 :       RETAILMSG(1, (TEXT("SDIPollingReceive([%d: %04x])\n"), dwLen, pbuf3[0]));
; 4120 :     else
; 4121 :       RETAILMSG(1, (TEXT("SDIPollingReceive([%d: %08x,%08x])\n"), dwLen, pbuf2[0], pbuf2[1]));
; 4122 : #endif
; 4123 : 
; 4124 : READ_ERROR:
; 4125 : 
; 4126 : #ifdef ENABLE_RETAIL_OUTPUT
; 4127 :     RETAILMSG(1, (L"CSDIOControllerBase::SDIPollingReceive(BUSY:%08X)\r\n", INREG32(&m_pbRegisters->MMCHS_STAT)));
; 4128 : #endif
; 4129 :     return FALSE;
; 4130 : }

  00250	e8bd4ff0	 ldmia       sp!, {r4 - r11, lr}
  00254	e12fff1e	 bx          lr
  00258		 |$LN2@SDIPolling|

; 4107 :     }
; 4108 :     else
; 4109 :     {
; 4110 : #ifdef ENABLE_RETAIL_OUTPUT
; 4111 :         RETAILMSG(1, (L"CSDIOControllerBase::SDIPollingReceive(ERROR:%08X)\r\n", INREG32(&m_pbRegisters->MMCHS_STAT)));
; 4112 : #endif
; 4113 :         MMC_STAT = Read_MMC_STAT();

  00258	eb000000	 bl          EnterCriticalSection
  0025c	e595315c	 ldr         r3, [r5, #0x15C]
  00260	e28500b0	 add         r0, r5, #0xB0
  00264	e5934130	 ldr         r4, [r3, #0x130]
  00268	eb000000	 bl          LeaveCriticalSection

; 4114 :         Write_MMC_STAT(MMC_STAT);

  0026c	e28500b0	 add         r0, r5, #0xB0
  00270	eb000000	 bl          EnterCriticalSection
  00274	e595315c	 ldr         r3, [r5, #0x15C]
  00278	e28500b0	 add         r0, r5, #0xB0
  0027c	e5834130	 str         r4, [r3, #0x130]
  00280	eb000000	 bl          LeaveCriticalSection
  00284		 |$READ_ERROR$43658|

; 4115 :         return FALSE;

  00284	e3a00000	 mov         r0, #0

; 4116 :     }
; 4117 : #ifdef ENABLE_RETAIL_OUTPUT
; 4118 :     if (dwLen == 2)
; 4119 :       RETAILMSG(1, (TEXT("SDIPollingReceive([%d: %04x])\n"), dwLen, pbuf3[0]));
; 4120 :     else
; 4121 :       RETAILMSG(1, (TEXT("SDIPollingReceive([%d: %08x,%08x])\n"), dwLen, pbuf2[0], pbuf2[1]));
; 4122 : #endif
; 4123 : 
; 4124 : READ_ERROR:
; 4125 : 
; 4126 : #ifdef ENABLE_RETAIL_OUTPUT
; 4127 :     RETAILMSG(1, (L"CSDIOControllerBase::SDIPollingReceive(BUSY:%08X)\r\n", INREG32(&m_pbRegisters->MMCHS_STAT)));
; 4128 : #endif
; 4129 :     return FALSE;
; 4130 : }

  00288	e8bd4ff0	 ldmia       sp!, {r4 - r11, lr}
  0028c	e12fff1e	 bx          lr
  00290		 |$M45526|

			 ENDP  ; |?SDIPollingReceive@CSDIOControllerBase@@QAAHPAEK@Z|, CSDIOControllerBase::SDIPollingReceive

	EXPORT	|?SDIPollingTransmit@CSDIOControllerBase@@QAAHPAEK@Z| ; CSDIOControllerBase::SDIPollingTransmit

  00000			 AREA	 |.pdata|, PDATA
|$T45593| DCD	|$LN60@SDIPolling@2|
	DCD	0x40007d01
; Function compile flags: /Ogspy

  00000			 AREA	 |.text|, CODE, ARM

  00000		 |?SDIPollingTransmit@CSDIOControllerBase@@QAAHPAEK@Z| PROC ; CSDIOControllerBase::SDIPollingTransmit

; 4134 : {

  00000		 |$LN60@SDIPolling@2|
  00000	e92d4ff0	 stmdb       sp!, {r4 - r11, lr}
  00004		 |$M45590|
  00004	e1a06002	 mov         r6, r2
  00008	e1a07001	 mov         r7, r1
  0000c	e1a05000	 mov         r5, r0

; 4135 :     DWORD fifoSizeW, blockLengthW; // Almost Full level and block length
; 4136 :     DWORD dwCount1, dwCount2;
; 4137 :     DWORD *pbuf = (DWORD *) pBuff; // short* of buffer
; 4138 :     DWORD __unaligned *pbuf2 = (DWORD *) pBuff;
; 4139 : #ifdef ENABLE_RETAIL_OUTPUT
; 4140 :     UINT16 __unaligned *pbuf3 = (UINT16 *) pBuff;
; 4141 : #endif
; 4142 :     DWORD dwCountStart;
; 4143 : 
; 4144 : #ifdef ENABLE_RETAIL_OUTPUT
; 4145 :     if (dwLen == 2)
; 4146 :       RETAILMSG(1, (TEXT("SDIPollingTransmit([%d: %04x])\n"), dwLen, pbuf3[0]));
; 4147 :     else
; 4148 :       RETAILMSG(1, (TEXT("SDIPollingTransmit([%d: %08x,%08x])\n"), dwLen, pbuf2[0], pbuf2[1]));
; 4149 : #endif
; 4150 : 
; 4151 :     // calculate timeout conditions
; 4152 :     dwCountStart = GetTickCount();

  00010	eb000000	 bl          GetTickCount
  00014	e3a03c01	 mov         r3, #1, 24

; 4153 : 
; 4154 :     if(dwLen % MMC_BLOCK_SIZE || m_dwSDIOCard)

  00018	e38330ff	 orr         r3, r3, #0xFF
  0001c	e1160003	 tst         r6, r3
  00020	e1a08000	 mov         r8, r0
  00024	1a000033	 bne         |$LN45@SDIPolling@2|
  00028	e5953178	 ldr         r3, [r5, #0x178]
  0002c	e3530000	 cmp         r3, #0
  00030	1a000030	 bne         |$LN45@SDIPolling@2|

; 4171 :           }
; 4172 :     } else
; 4173 :     {
; 4174 :       fifoSizeW = INREG32(&m_pbRegisters->MMCHS_BLK) & 0xFFFF;

  00034	e595315c	 ldr         r3, [r5, #0x15C]
  00038	e3a02cff	 mov         r2, #0xFF, 24
  0003c	e382e0ff	 orr         lr, r2, #0xFF
  00040	e5933104	 ldr         r3, [r3, #0x104]

; 4175 :       blockLengthW = dwLen / fifoSizeW;

  00044	e1a01006	 mov         r1, r6
  00048	e003a00e	 and         r10, r3, lr
  0004c	e1a0000a	 mov         r0, r10
  00050	eb000000	 bl          __rt_udiv
  00054	e1b09000	 movs        r9, r0

; 4176 :       for (dwCount1 = 0; dwCount1 < blockLengthW; dwCount1++)

  00058	e3a06000	 mov         r6, #0
  0005c	0a000046	 beq         |$LN18@SDIPolling@2|
  00060	e3a0b010	 mov         r11, #0x10

; 4177 :       {
; 4178 :         // poll on write ready here
; 4179 :         while((Read_MMC_STAT() & MMCHS_STAT_BWR) != MMCHS_STAT_BWR)

  00064	ea000004	 b           |$LL16@SDIPolling@2|
  00068		 |$LL13@SDIPolling@2|

; 4180 :         {
; 4181 :           if (GetTickCount() - dwCountStart > m_dwMaxTimeout)

  00068	eb000000	 bl          GetTickCount
  0006c	e5952150	 ldr         r2, [r5, #0x150]
  00070	e0403008	 sub         r3, r0, r8
  00074	e1530002	 cmp         r3, r2
  00078	8a00005a	 bhi         |$LN2@SDIPolling@2|

; 4176 :       for (dwCount1 = 0; dwCount1 < blockLengthW; dwCount1++)

  0007c		 |$LL16@SDIPolling@2|

; 4180 :         {
; 4181 :           if (GetTickCount() - dwCountStart > m_dwMaxTimeout)

  0007c	e28500b0	 add         r0, r5, #0xB0
  00080	eb000000	 bl          EnterCriticalSection
  00084	e595315c	 ldr         r3, [r5, #0x15C]
  00088	e28500b0	 add         r0, r5, #0xB0
  0008c	e5934130	 ldr         r4, [r3, #0x130]
  00090	eb000000	 bl          LeaveCriticalSection
  00094	e2043010	 and         r3, r4, #0x10
  00098	e3530010	 cmp         r3, #0x10
  0009c	1afffff1	 bne         |$LL13@SDIPolling@2|

; 4182 :           {
; 4183 :             DEBUGMSG(ZONE_ENABLE_ERROR, (TEXT("SDIPollingTransmit() - exit: TIMEOUT.\n")));
; 4184 :             goto WRITE_ERROR;
; 4185 :           }
; 4186 :         }
; 4187 :         Set_MMC_STAT(MMCHS_STAT_BWR);

  000a0	e28500b0	 add         r0, r5, #0xB0
  000a4	eb000000	 bl          EnterCriticalSection
  000a8	e595315c	 ldr         r3, [r5, #0x15C]
  000ac	e28500b0	 add         r0, r5, #0xB0
  000b0	e583b130	 str         r11, [r3, #0x130]
  000b4	eb000000	 bl          LeaveCriticalSection

; 4188 : 
; 4189 :         for (dwCount2 = 0; dwCount2 < (fifoSizeW /sizeof(DWORD)); dwCount2++) // write data to DATA buffer

  000b8	e1b0112a	 movs        r1, r10, lsr #2
  000bc	0a000004	 beq         |$LN15@SDIPolling@2|
  000c0		 |$LL9@SDIPolling@2|

; 4190 :         {
; 4191 :           OUTREG32(&m_pbRegisters->MMCHS_DATA, *pbuf++);

  000c0	e4973004	 ldr         r3, [r7], #4
  000c4	e595215c	 ldr         r2, [r5, #0x15C]
  000c8	e2511001	 subs        r1, r1, #1
  000cc	e5823120	 str         r3, [r2, #0x120]
  000d0	1afffffa	 bne         |$LL9@SDIPolling@2|
  000d4		 |$LN15@SDIPolling@2|

; 4176 :       for (dwCount1 = 0; dwCount1 < blockLengthW; dwCount1++)

  000d4	e2866001	 add         r6, r6, #1
  000d8	e1560009	 cmp         r6, r9
  000dc	3affffe6	 bcc         |$LL16@SDIPolling@2|

; 4200 :     {
; 4201 :         // check for a timeout
; 4202 :         if (GetTickCount() - dwCountStart > m_dwMaxTimeout)

  000e0	ea000025	 b           |$LN18@SDIPolling@2|
  000e4		 |$LL25@SDIPolling@2|

; 4155 :         {
; 4156 :           while((Read_MMC_STAT() & MMCHS_STAT_BWR) != MMCHS_STAT_BWR)
; 4157 :           {
; 4158 :             if (GetTickCount() - dwCountStart > m_dwMaxTimeout)

  000e4	eb000000	 bl          GetTickCount
  000e8	e5952150	 ldr         r2, [r5, #0x150]
  000ec	e0403008	 sub         r3, r0, r8
  000f0	e1530002	 cmp         r3, r2
  000f4	8a00003b	 bhi         |$LN2@SDIPolling@2|
  000f8		 |$LN45@SDIPolling@2|
  000f8	e28500b0	 add         r0, r5, #0xB0
  000fc	eb000000	 bl          EnterCriticalSection
  00100	e595315c	 ldr         r3, [r5, #0x15C]
  00104	e28500b0	 add         r0, r5, #0xB0
  00108	e5934130	 ldr         r4, [r3, #0x130]
  0010c	eb000000	 bl          LeaveCriticalSection
  00110	e2043010	 and         r3, r4, #0x10
  00114	e3530010	 cmp         r3, #0x10
  00118	1afffff1	 bne         |$LL25@SDIPolling@2|

; 4159 :             {
; 4160 :             DEBUGMSG(ZONE_ENABLE_ERROR, (TEXT("SDIPollingTransmit() - exit: TIMEOUT.\n")));
; 4161 :               goto WRITE_ERROR;
; 4162 :             }
; 4163 :           }
; 4164 :           Set_MMC_STAT(MMCHS_STAT_BWR);

  0011c	e28500b0	 add         r0, r5, #0xB0
  00120	eb000000	 bl          EnterCriticalSection
  00124	e595315c	 ldr         r3, [r5, #0x15C]
  00128	e3a02010	 mov         r2, #0x10
  0012c	e28500b0	 add         r0, r5, #0xB0
  00130	e5832130	 str         r2, [r3, #0x130]
  00134	eb000000	 bl          LeaveCriticalSection

; 4165 : 
; 4166 :         fifoSizeW = dwLen / sizeof(DWORD);

  00138	e1a0e126	 mov         lr, r6, lsr #2

; 4167 :         if(dwLen % sizeof(DWORD)) fifoSizeW++;

  0013c	e3160003	 tst         r6, #3
  00140	128ee001	 addne       lr, lr, #1

; 4168 :           for (dwCount1 = 0; dwCount1 < fifoSizeW; dwCount1++)

  00144	e35e0000	 cmp         lr, #0
  00148	0a00000b	 beq         |$LN18@SDIPolling@2|
  0014c		 |$LL20@SDIPolling@2|

; 4169 :           {
; 4170 :               OUTREG32(&m_pbRegisters->MMCHS_DATA, *pbuf2++) ;

  0014c	e5d72000	 ldrb        r2, [r7]
  00150	e5d73001	 ldrb        r3, [r7, #1]
  00154	e5d71002	 ldrb        r1, [r7, #2]
  00158	e5d70003	 ldrb        r0, [r7, #3]
  0015c	e1823403	 orr         r3, r2, r3, lsl #8
  00160	e595215c	 ldr         r2, [r5, #0x15C]
  00164	e1833801	 orr         r3, r3, r1, lsl #16
  00168	e1833c00	 orr         r3, r3, r0, lsl #24
  0016c	e5823120	 str         r3, [r2, #0x120]
  00170	e2877004	 add         r7, r7, #4
  00174	e25ee001	 subs        lr, lr, #1
  00178	1afffff3	 bne         |$LL20@SDIPolling@2|
  0017c		 |$LN18@SDIPolling@2|

; 4192 :         }
; 4193 :       }
; 4194 :     }
; 4195 : 
; 4196 :     // recalculate timeout conditions
; 4197 :     dwCountStart = GetTickCount();

  0017c	eb000000	 bl          GetTickCount

; 4198 : 
; 4199 :     while (((Read_MMC_STAT()&MMCHS_STAT_TC) != MMCHS_STAT_TC))

  00180	e1a06000	 mov         r6, r0
  00184	ea000004	 b           |$LN57@SDIPolling@2|
  00188		 |$LL6@SDIPolling@2|

; 4200 :     {
; 4201 :         // check for a timeout
; 4202 :         if (GetTickCount() - dwCountStart > m_dwMaxTimeout)

  00188	eb000000	 bl          GetTickCount
  0018c	e5952150	 ldr         r2, [r5, #0x150]
  00190	e0403006	 sub         r3, r0, r6
  00194	e1530002	 cmp         r3, r2
  00198	8a000012	 bhi         |$LN2@SDIPolling@2|
  0019c		 |$LN57@SDIPolling@2|
  0019c	e28500b0	 add         r0, r5, #0xB0
  001a0	eb000000	 bl          EnterCriticalSection
  001a4	e595315c	 ldr         r3, [r5, #0x15C]
  001a8	e28500b0	 add         r0, r5, #0xB0
  001ac	e5934130	 ldr         r4, [r3, #0x130]
  001b0	eb000000	 bl          LeaveCriticalSection
  001b4	e2043002	 and         r3, r4, #2
  001b8	e3530002	 cmp         r3, #2
  001bc	1afffff1	 bne         |$LL6@SDIPolling@2|

; 4203 :         {
; 4204 :             DEBUGMSG(ZONE_ENABLE_ERROR, (TEXT("SDIPollingTransmit() - exit: TIMEOUT.\n")));
; 4205 :             goto WRITE_ERROR;
; 4206 :         }
; 4207 :     }
; 4208 : 
; 4209 :     // Check if there is no CRC error
; 4210 :     if (!(Read_MMC_STAT() & MMCHS_STAT_DCRC))

  001c0	e28500b0	 add         r0, r5, #0xB0
  001c4	eb000000	 bl          EnterCriticalSection
  001c8	e595315c	 ldr         r3, [r5, #0x15C]
  001cc	e28500b0	 add         r0, r5, #0xB0
  001d0	e5934130	 ldr         r4, [r3, #0x130]
  001d4	eb000000	 bl          LeaveCriticalSection
  001d8	e3140602	 tst         r4, #2, 12

; 4211 :     {
; 4212 :         return TRUE;

  001dc	03a00001	 moveq       r0, #1

; 4220 :     }
; 4221 : 
; 4222 : WRITE_ERROR:
; 4223 : #ifdef ENABLE_RETAIL_OUTPUT
; 4224 :     RETAILMSG(1, (L"CSDIOControllerBase::SDIPollingTransmit(BUSY:%08X)\r\n", INREG32(&m_pbRegisters->MMCHS_STAT)));
; 4225 : #endif
; 4226 :     return FALSE;
; 4227 : }

  001e0	08bd4ff0	 ldmeqia     sp!, {r4 - r11, lr}
  001e4	012fff1e	 bxeq        lr
  001e8		 |$LN2@SDIPolling@2|
  001e8		 |$WRITE_ERROR$43712|

; 4213 :     }
; 4214 :     else
; 4215 :     {
; 4216 : #ifdef ENABLE_RETAIL_OUTPUT
; 4217 :         RETAILMSG(1, (L"CSDIOControllerBase::SDIPollingTransmit(ERROR:%08X)\r\n", INREG32(&m_pbRegisters->MMCHS_STAT)));
; 4218 : #endif
; 4219 :         return FALSE;

  001e8	e3a00000	 mov         r0, #0

; 4220 :     }
; 4221 : 
; 4222 : WRITE_ERROR:
; 4223 : #ifdef ENABLE_RETAIL_OUTPUT
; 4224 :     RETAILMSG(1, (L"CSDIOControllerBase::SDIPollingTransmit(BUSY:%08X)\r\n", INREG32(&m_pbRegisters->MMCHS_STAT)));
; 4225 : #endif
; 4226 :     return FALSE;
; 4227 : }

  001ec	e8bd4ff0	 ldmia       sp!, {r4 - r11, lr}
  001f0	e12fff1e	 bx          lr
  001f4		 |$M45591|

			 ENDP  ; |?SDIPollingTransmit@CSDIOControllerBase@@QAAHPAEK@Z|, CSDIOControllerBase::SDIPollingTransmit

	EXPORT	|?SystemClockOn@CSDIOControllerBase@@QAAXH@Z| ; CSDIOControllerBase::SystemClockOn
; File c:\wince600\platform\common\src\soc\common_ti_v1\common_ti\inc\sdhc.h

  00000			 AREA	 |.pdata|, PDATA
|$T45602| DCD	|$LN5@SystemCloc|
	DCD	0x40000601
; Function compile flags: /Ogspy

  00000			 AREA	 |.text|, CODE, ARM

  00000		 |?SystemClockOn@CSDIOControllerBase@@QAAXH@Z| PROC ; CSDIOControllerBase::SystemClockOn

; 194  :     VOID SystemClockOn(BOOL bInPowerHandler) {

  00000		 |$LN5@SystemCloc|
  00000	e52de004	 str         lr, [sp, #-4]!
  00004		 |$M45599|

; 195  :         m_InternPowerState = D0;

  00004	e3a03000	 mov         r3, #0
  00008	e58030dc	 str         r3, [r0, #0xDC]

; 196  :         UpdateDevicePowerState(bInPowerHandler);

  0000c	eb000000	 bl          |?UpdateDevicePowerState@CSDIOControllerBase@@QAAXH@Z|

; 197  :     }

  00010	e49de004	 ldr         lr, [sp], #4
  00014	e12fff1e	 bx          lr
  00018		 |$M45600|

			 ENDP  ; |?SystemClockOn@CSDIOControllerBase@@QAAXH@Z|, CSDIOControllerBase::SystemClockOn

	EXPORT	|?SDHCPowerTimerThreadImpl@CSDIOControllerBase@@QAAKXZ| ; CSDIOControllerBase::SDHCPowerTimerThreadImpl
	IMPORT	|WaitForSingleObject|
	IMPORT	|CeSetThreadPriority|
; File c:\wince600\public\common\sdk\inc\kfuncs.h

  00000			 AREA	 |.pdata|, PDATA
|$T45628| DCD	|$LN29@SDHCPowerT|
	DCD	0x40003f01
; Function compile flags: /Ogspy
; File c:\wince600\platform\common\src\soc\common_ti_v1\common_ti\sdhc\base\sdhc.cpp

  00000			 AREA	 |.text|, CODE, ARM

  00000		 |?SDHCPowerTimerThreadImpl@CSDIOControllerBase@@QAAKXZ| PROC ; CSDIOControllerBase::SDHCPowerTimerThreadImpl

; 684  : {

  00000		 |$LN29@SDHCPowerT|
  00000	e92d40f0	 stmdb       sp!, {r4 - r7, lr}
  00004		 |$M45625|
  00004	e1a04000	 mov         r4, r0

; 685  :     DWORD nTimeout = INFINITE;
; 686  :     RETAILMSG(0, (TEXT("*** start SDHCPowerTimerThreadImpl()\r\n")));
; 687  : 
; 688  :     CeSetThreadPriority(GetCurrentThread(), TIMERTHREAD_PRIORITY);

  00008	e3a010fc	 mov         r1, #0xFC
  0000c	e3a00041	 mov         r0, #0x41
  00010	eb000000	 bl          CeSetThreadPriority

; 689  : 
; 690  :     for(;;)
; 691  :     {
; 692  :         WaitForSingleObject(m_hTimerEvent, nTimeout);

  00014	e59401a8	 ldr         r0, [r4, #0x1A8]
  00018	e3e01000	 mvn         r1, #0
  0001c	eb000000	 bl          WaitForSingleObject

; 693  : 
; 694  :         if (m_bExitThread == TRUE) 

  00020	e59431a4	 ldr         r3, [r4, #0x1A4]
  00024	e3530001	 cmp         r3, #1
  00028	0a000030	 beq         |$LN25@SDHCPowerT|
  0002c	e3a06001	 mov         r6, #1
  00030	e3a07fc2	 mov         r7, #0xC2, 30
  00034		 |$LL12@SDHCPowerT|

; 695  : 		    break;
; 696  : 
; 697  :         // serialize access to power state changes
; 698  :         EnterCriticalSection(&m_critSec);

  00034	e28400b0	 add         r0, r4, #0xB0
  00038	eb000000	 bl          EnterCriticalSection

; 699  : 
; 700  :         // by the time this thread got the cs hTimerEvent may
; 701  :         // have gotten resignaled.  Clear the event to  make
; 702  :         // sure the activity timer thread isn't awaken prematurely
; 703  :         //
; 704  :         ResetEvent(m_hTimerEvent);

  0003c	e59401a8	 ldr         r0, [r4, #0x1A8]
  00040	e3a01002	 mov         r1, #2
  00044	eb000000	 bl          EventModify

; 705  : 
; 706  :         // check if we need to reset the timer
; 707  :         if (m_dwClockCnt == 0)

  00048	e59431a0	 ldr         r3, [r4, #0x1A0]
  0004c	e3530000	 cmp         r3, #0
  00050	1a00001d	 bne         |$LN9@SDHCPowerT|

; 708  :         {
; 709  :             // We disable the clocks only when this thread
; 710  :             // wakes-up twice in a row with no power state
; 711  :             // change to D0.  This is achieved by using the
; 712  :             // bDisablePower flag to determine if power state
; 713  :             // changed since the last time this thread woke-up
; 714  :             //
; 715  :             if ((m_bDisablePower == TRUE) || (m_fCardPresent == FALSE))

  00054	e59431cc	 ldr         r3, [r4, #0x1CC]
  00058	e3530001	 cmp         r3, #1
  0005c	0a00000c	 beq         |$LN7@SDHCPowerT|
  00060	e59430f0	 ldr         r3, [r4, #0xF0]
  00064	e3530000	 cmp         r3, #0
  00068	0a000009	 beq         |$LN7@SDHCPowerT|

; 736  :                  }
; 737  :                 nTimeout = INFINITE;
; 738  :             }
; 739  :             else
; 740  :             {
; 741  :                 // wait for activity time-out before shutting off power.
; 742  :                 m_bDisablePower = TRUE;
; 743  :                 nTimeout = (m_fCardInitialized && !m_dwSDIOCard) ? m_nNonSDIOActivityTimeout : m_nSDIOActivityTimeout;

  0006c	e594313c	 ldr         r3, [r4, #0x13C]
  00070	e58461cc	 str         r6, [r4, #0x1CC]
  00074	e3530000	 cmp         r3, #0
  00078	0a000003	 beq         |$LN17@SDHCPowerT|
  0007c	e5943178	 ldr         r3, [r4, #0x178]
  00080	e3530000	 cmp         r3, #0
  00084	059451b0	 ldreq       r5, [r4, #0x1B0]
  00088	0a000010	 beq         |$LN1@SDHCPowerT|
  0008c		 |$LN17@SDHCPowerT|
  0008c	e59451b4	 ldr         r5, [r4, #0x1B4]
  00090	ea00000e	 b           |$LN1@SDHCPowerT|
  00094		 |$LN7@SDHCPowerT|

; 716  :             {
; 717  :                 if (m_ActualPowerState < D3)

  00094	e59430e0	 ldr         r3, [r4, #0xE0]
  00098	e3530003	 cmp         r3, #3
  0009c	aa00000a	 bge         |$LN9@SDHCPowerT|

; 718  :                 {
; 719  :                     // update clock control
; 720  :                     if (!m_dwSDClockMode || !m_fCardPresent /*|| !(m_dwWakeupSources & WAKEUP_SDIO)*/)

  000a0	e594319c	 ldr         r3, [r4, #0x19C]

; 721  : 					{
; 722  :                         OUTREG32(&m_pbRegisters->MMCHS_SYSCONFIG, 
; 723  :                             MMCHS_SYSCONFIG_CLOCKACTIVITY(0) | 
; 724  :                             MMCHS_SYSCONFIG_SIDLEMODE(SIDLE_FORCE) |
; 725  :                             MMCHS_SYSCONFIG_AUTOIDLE 
; 726  :                             );
; 727  :                     }
; 728  : 					else
; 729  : 					{
; 730  :     	                OUTREG32(&m_pbRegisters->MMCHS_SYSCONFIG, 
; 731  : 	    				    MMCHS_SYSCONFIG_SIDLEMODE(SIDLE_IGNORE) | 
; 732  : 		    				MMCHS_SYSCONFIG_CLOCKACTIVITY(3)
; 733  : 			    			);
; 734  :                     }
; 735  :                     UpdateDevicePowerState(FALSE);

  000a4	e3a01000	 mov         r1, #0
  000a8	e1a00004	 mov         r0, r4
  000ac	e3530000	 cmp         r3, #0
  000b0	159430f0	 ldrne       r3, [r4, #0xF0]
  000b4	13530000	 cmpne       r3, #0
  000b8	1594315c	 ldrne       r3, [r4, #0x15C]
  000bc	15837010	 strne       r7, [r3, #0x10]
  000c0	0594315c	 ldreq       r3, [r4, #0x15C]
  000c4	05836010	 streq       r6, [r3, #0x10]
  000c8	eb000000	 bl          |?UpdateDevicePowerState@CSDIOControllerBase@@QAAXH@Z|
  000cc		 |$LN9@SDHCPowerT|

; 744  :             }
; 745  :         }
; 746  :         else
; 747  :         {
; 748  :             nTimeout = INFINITE;

  000cc	e3e05000	 mvn         r5, #0
  000d0		 |$LN1@SDHCPowerT|

; 749  :         }
; 750  :         LeaveCriticalSection(&m_critSec);

  000d0	e28400b0	 add         r0, r4, #0xB0
  000d4	eb000000	 bl          LeaveCriticalSection
  000d8	e59401a8	 ldr         r0, [r4, #0x1A8]
  000dc	e1a01005	 mov         r1, r5
  000e0	eb000000	 bl          WaitForSingleObject
  000e4	e59431a4	 ldr         r3, [r4, #0x1A4]
  000e8	e3530001	 cmp         r3, #1
  000ec	1affffd0	 bne         |$LL12@SDHCPowerT|
  000f0		 |$LN25@SDHCPowerT|

; 751  :     }
; 752  : 
; 753  :     return 1;

  000f0	e3a00001	 mov         r0, #1

; 754  : }

  000f4	e8bd40f0	 ldmia       sp!, {r4 - r7, lr}
  000f8	e12fff1e	 bx          lr
  000fc		 |$M45626|

			 ENDP  ; |?SDHCPowerTimerThreadImpl@CSDIOControllerBase@@QAAKXZ|, CSDIOControllerBase::SDHCPowerTimerThreadImpl

	EXPORT	|?UpdateSystemClock@CSDIOControllerBase@@QAAHH@Z| ; CSDIOControllerBase::UpdateSystemClock
	IMPORT	|InterlockedDecrement|
	IMPORT	|InterlockedIncrement|
; File c:\wince600\public\common\sdk\inc\kfuncs.h

  00000			 AREA	 |.pdata|, PDATA
|$T45647| DCD	|$LN22@UpdateSyst|
	DCD	0x40003801
; Function compile flags: /Ogspy
; File c:\wince600\platform\common\src\soc\common_ti_v1\common_ti\sdhc\base\sdhc.cpp

  00000			 AREA	 |.text|, CODE, ARM

  00000		 |?UpdateSystemClock@CSDIOControllerBase@@QAAHH@Z| PROC ; CSDIOControllerBase::UpdateSystemClock

; 765  : {

  00000		 |$LN22@UpdateSyst|
  00000	e92d4070	 stmdb       sp!, {r4 - r6, lr}
  00004		 |$M45644|
  00004	e3510000	 cmp         r1, #0
  00008	e1a05000	 mov         r5, r0

; 766  :     LONG   lClockCount;
; 767  : 
; 768  :     DEBUGMSG(SDCARD_ZONE_FUNC, (L"+UpdateSystemClock()\r\n"));
; 769  : 
; 770  :     if (enable)
; 771  :     {
; 772  :         lClockCount = InterlockedIncrement(&m_dwClockCnt);

  0000c	e2850e1a	 add         r0, r5, #0x1A, 28
  00010	0a000017	 beq         |$LN13@UpdateSyst|
  00014	eb000000	 bl          InterlockedIncrement

; 773  : 
; 774  :         EnterCriticalSection( &m_critSec );

  00018	e1a04000	 mov         r4, r0
  0001c	e28500b0	 add         r0, r5, #0xB0
  00020	eb000000	 bl          EnterCriticalSection

; 775  :         m_InternPowerState = D0;

  00024	e3a06000	 mov         r6, #0
  00028	e58560dc	 str         r6, [r5, #0xDC]

; 776  :         if(lClockCount == 1)

  0002c	e3540001	 cmp         r4, #1
  00030	1a00000b	 bne         |$LN9@UpdateSyst|

; 777  :         {
; 778  :             if (m_ActualPowerState >= D3)

  00034	e59530e0	 ldr         r3, [r5, #0xE0]
  00038	e3530003	 cmp         r3, #3
  0003c	ba000008	 blt         |$LN9@UpdateSyst|

; 779  :             {
; 780  :                 UpdateDevicePowerState(FALSE);

  00040	e3a01000	 mov         r1, #0
  00044	e1a00005	 mov         r0, r5
  00048	eb000000	 bl          |?UpdateDevicePowerState@CSDIOControllerBase@@QAAXH@Z|

; 781  :                 
; 782  :                 if (m_dwSDClockMode)

  0004c	e595319c	 ldr         r3, [r5, #0x19C]
  00050	e3530000	 cmp         r3, #0

; 783  : 				{
; 784  :                     OUTREG32(&m_pbRegisters->MMCHS_SYSCONFIG, 
; 785  :                         MMCHS_SYSCONFIG_SIDLEMODE(SIDLE_IGNORE) | 
; 786  :                         MMCHS_SYSCONFIG_CLOCKACTIVITY(3)
; 787  :                         );

  00054	e595315c	 ldr         r3, [r5, #0x15C]
  00058	13a02fc2	 movne       r2, #0xC2, 30

; 788  :                 }
; 789  : 				else
; 790  : 				{
; 791  :                     // update clock control
; 792  :                     OUTREG32(&m_pbRegisters->MMCHS_SYSCONFIG, 
; 793  :                         MMCHS_SYSCONFIG_CLOCKACTIVITY(0) | 
; 794  :                         MMCHS_SYSCONFIG_SIDLEMODE(SIDLE_SMART) |
; 795  :                         MMCHS_SYSCONFIG_ENAWAKEUP |
; 796  :                         MMCHS_SYSCONFIG_AUTOIDLE 
; 797  :                         );

  0005c	03a02015	 moveq       r2, #0x15
  00060	e5832010	 str         r2, [r3, #0x10]
  00064		 |$LN9@UpdateSyst|

; 798  :                 }
; 799  :             }
; 800  :         }
; 801  :         m_bDisablePower = FALSE;
; 802  :         LeaveCriticalSection( &m_critSec );

  00064	e28500b0	 add         r0, r5, #0xB0
  00068	e58561cc	 str         r6, [r5, #0x1CC]
  0006c	eb000000	 bl          LeaveCriticalSection

; 803  :     }
; 804  :     else

  00070	ea000017	 b           |$LN4@UpdateSyst|
  00074		 |$LN13@UpdateSyst|

; 805  :     {
; 806  :         lClockCount = InterlockedDecrement(&m_dwClockCnt);

  00074	eb000000	 bl          InterlockedDecrement
  00078	e3500000	 cmp         r0, #0

; 807  :         if(lClockCount < 0)

  0007c	5a000002	 bpl         |$LN19@UpdateSyst|

; 808  :             m_dwClockCnt = 0;

  00080	e3a03000	 mov         r3, #0
  00084	e58531a0	 str         r3, [r5, #0x1A0]

; 809  : 
; 810  :         if(lClockCount <= 0)

  00088	e3500000	 cmp         r0, #0
  0008c		 |$LN19@UpdateSyst|
  0008c	ca000010	 bgt         |$LN4@UpdateSyst|

; 811  :         {
; 812  :             m_InternPowerState = D4;
; 813  :             if (m_hTimerEvent != NULL)

  00090	e59531a8	 ldr         r3, [r5, #0x1A8]
  00094	e3a02004	 mov         r2, #4
  00098	e58520dc	 str         r2, [r5, #0xDC]
  0009c	e3530000	 cmp         r3, #0
  000a0	0a000003	 beq         |$LN5@UpdateSyst|

; 814  :             {
; 815  :                 SetEvent(m_hTimerEvent);

  000a4	e3a01003	 mov         r1, #3
  000a8	e1a00003	 mov         r0, r3
  000ac	eb000000	 bl          EventModify

; 816  :             }
; 817  :             else

  000b0	ea000007	 b           |$LN4@UpdateSyst|
  000b4		 |$LN5@UpdateSyst|

; 818  :             {
; 819  :                 if (m_ActualPowerState < D3)

  000b4	e59530e0	 ldr         r3, [r5, #0xE0]

; 820  :                 {
; 821  :                     // update clock control
; 822  :                     if (!m_dwSDClockMode || m_InternPowerState == D4)
; 823  : 		    		{
; 824  :                         OUTREG32(&m_pbRegisters->MMCHS_SYSCONFIG, 
; 825  :                             MMCHS_SYSCONFIG_AUTOIDLE | 
; 826  :                             MMCHS_SYSCONFIG_CLOCKACTIVITY(0) | 
; 827  :                             MMCHS_SYSCONFIG_SIDLEMODE(SIDLE_FORCE)
; 828  :                             );
; 829  : 					}
; 830  :                 }
; 831  :                 UpdateDevicePowerState(FALSE);

  000b8	e3a01000	 mov         r1, #0
  000bc	e1a00005	 mov         r0, r5
  000c0	e3530003	 cmp         r3, #3
  000c4	b595315c	 ldrlt       r3, [r5, #0x15C]
  000c8	b3a02001	 movlt       r2, #1
  000cc	b5832010	 strlt       r2, [r3, #0x10]
  000d0	eb000000	 bl          |?UpdateDevicePowerState@CSDIOControllerBase@@QAAXH@Z|
  000d4		 |$LN4@UpdateSyst|

; 832  :             }
; 833  :         }
; 834  :     }
; 835  : 
; 836  :     return TRUE;

  000d4	e3a00001	 mov         r0, #1

; 837  : }

  000d8	e8bd4070	 ldmia       sp!, {r4 - r6, lr}
  000dc	e12fff1e	 bx          lr
  000e0		 |$M45645|

			 ENDP  ; |?UpdateSystemClock@CSDIOControllerBase@@QAAHH@Z|, CSDIOControllerBase::UpdateSystemClock

	EXPORT	|?HandleRemoval@CSDIOControllerBase@@QAAXH@Z| ; CSDIOControllerBase::HandleRemoval
	IMPORT	|SDHCDGetAndLockCurrentRequest|
; File c:\wince600\public\common\sdk\inc\kfuncs.h

  00000			 AREA	 |.pdata|, PDATA
|$T45669| DCD	|$LN20@HandleRemo|
	DCD	0x40004601
; Function compile flags: /Ogspy
; File c:\wince600\platform\common\src\soc\common_ti_v1\common_ti\sdhc\base\sdhc.cpp

  00000			 AREA	 |.text|, CODE, ARM

  00000		 |?HandleRemoval@CSDIOControllerBase@@QAAXH@Z| PROC ; CSDIOControllerBase::HandleRemoval

; 1126 : {

  00000		 |$LN20@HandleRemo|
  00000	e92d4070	 stmdb       sp!, {r4 - r6, lr}
  00004		 |$M45666|
  00004	e1a05001	 mov         r5, r1
  00008	e1a04000	 mov         r4, r0

; 1127 :     PSD_BUS_REQUEST pRequest = NULL;
; 1128 : 
; 1129 :     m_fCardPresent = FALSE;
; 1130 :     m_fMMCMode = FALSE;
; 1131 : 
; 1132 :     DEBUGMSG(SDCARD_ZONE_INIT, (TEXT("HandleRemoval\r\n")));
; 1133 : 
; 1134 :     TurnCardPowerOn();  // try to turn slot power on

  0000c	e5943000	 ldr         r3, [r4]
  00010	e3a06000	 mov         r6, #0
  00014	e58460f0	 str         r6, [r4, #0xF0]
  00018	e5933014	 ldr         r3, [r3, #0x14]
  0001c	e58460f8	 str         r6, [r4, #0xF8]
  00020	e1a0e00f	 mov         lr, pc
  00024	e12fff13	 bx          r3

; 1135 : 
; 1136 :     IndicateSlotStateChange(DeviceEjected);

  00028	e59400a8	 ldr         r0, [r4, #0xA8]
  0002c	e3a02001	 mov         r2, #1
  00030	e3a01000	 mov         r1, #0
  00034	eb000000	 bl          SDHCDIndicateSlotStateChange

; 1137 :     SystemClockOn(FALSE);

  00038	e3a01000	 mov         r1, #0
  0003c	e1a00004	 mov         r0, r4
  00040	e58460dc	 str         r6, [r4, #0xDC]
  00044	eb000000	 bl          |?UpdateDevicePowerState@CSDIOControllerBase@@QAAXH@Z|

; 1138 : 
; 1139 :     // turn off SDIO interrupts
; 1140 :     if( m_fSDIOInterruptsEnabled )

  00048	e59430f4	 ldr         r3, [r4, #0xF4]
  0004c	e3530000	 cmp         r3, #0

; 1141 :         {
; 1142 :     DisableSDIOInterrupts();

  00050	11a00004	 movne       r0, r4
  00054	1b000000	 blne        |?DisableSDIOInterrupts@CSDIOControllerBase@@QAAXXZ|

; 1143 :         }
; 1144 : 
; 1145 :     if (fCancelRequest)

  00058	e3550000	 cmp         r5, #0
  0005c	0a000006	 beq         |$LN5@HandleRemo|

; 1146 :     {
; 1147 :         // get the current request
; 1148 :         pRequest = GetAndLockCurrentRequest();

  00060	e59400a8	 ldr         r0, [r4, #0xA8]
  00064	e3a01000	 mov         r1, #0
  00068	eb000000	 bl          SDHCDGetAndLockCurrentRequest
  0006c	e1b01000	 movs        r1, r0

; 1149 : 
; 1150 :         if (pRequest != NULL)
; 1151 :         {
; 1152 :             DEBUGMSG(SDCARD_ZONE_WARN,
; 1153 :                 (TEXT("Card Removal Detected - Canceling current request: 0x%08X, command: %d\r\n"),
; 1154 :                 pRequest, pRequest->CommandCode));
; 1155 :             DumpRequest(pRequest);
; 1156 :             IndicateBusRequestComplete(pRequest, SD_API_STATUS_DEVICE_REMOVED);

  00070	159400a8	 ldrne       r0, [r4, #0xA8]
  00074	13a02147	 movne       r2, #0x47, 2
  00078	1b000000	 blne        SDHCDIndicateBusRequestComplete
  0007c		 |$LN5@HandleRemo|

; 1157 :         }
; 1158 :     }
; 1159 :     
; 1160 :     if(m_ActualPowerState == D4) return;

  0007c	e59430e0	 ldr         r3, [r4, #0xE0]
  00080	e3530004	 cmp         r3, #4
  00084	0a000021	 beq         |$LN8@HandleRemo|

; 1161 :     SoftwareReset(SOFT_RESET_ALL);

  00088	e3a01401	 mov         r1, #1, 8
  0008c	e1a00004	 mov         r0, r4
  00090	eb000000	 bl          |?SoftwareReset@CSDIOControllerBase@@QAAXK@Z|

; 1162 :     DisableSDHCInterrupts();

  00094	e1a00004	 mov         r0, r4
  00098	eb000000	 bl          |?DisableSDHCInterrupts@CSDIOControllerBase@@QAAXXZ|

; 1163 : 
; 1164 :     if (m_dwSDClockMode)

  0009c	e594319c	 ldr         r3, [r4, #0x19C]

; 1165 :     {
; 1166 :     // turn clock off and remove power from the slot
; 1167 :     OUTREG32(&m_pbRegisters->MMCHS_SYSCONFIG, MMCHS_SYSCONFIG_AUTOIDLE | MMCHS_SYSCONFIG_SIDLEMODE(SIDLE_FORCE));
; 1168 :     }
; 1169 :     
; 1170 :     ResetEvent(m_hControllerISTEvent);

  000a0	e3a01002	 mov         r1, #2
  000a4	e3530000	 cmp         r3, #0
  000a8	1594315c	 ldrne       r3, [r4, #0x15C]
  000ac	13a02001	 movne       r2, #1
  000b0	15832010	 strne       r2, [r3, #0x10]
  000b4	e5940118	 ldr         r0, [r4, #0x118]
  000b8	eb000000	 bl          EventModify

; 1171 :     Sleep(100);

  000bc	e3a00064	 mov         r0, #0x64
  000c0	eb000000	 bl          Sleep

; 1172 : 
; 1173 :     m_fCardInitialized = FALSE;
; 1174 : 
; 1175 :     CLRREG32(&m_pbRegisters->MMCHS_CON, MMCHS_CON_CLKEXTFREE);

  000c4	e594215c	 ldr         r2, [r4, #0x15C]
  000c8	e584613c	 str         r6, [r4, #0x13C]
  000cc	e592302c	 ldr         r3, [r2, #0x2C]

; 1176 : 
; 1177 : #if 0
; 1178 :     // get and lock the current bus request
; 1179 :     while(SDHCDGetAndLockCurrentRequest(m_pHCContext, 0) != NULL)
; 1180 :     {
; 1181 :         CommandCompleteHandler();
; 1182 :     }
; 1183 : #else
; 1184 :     // get and lock the current bus request
; 1185 :     while((pRequest = SDHCDGetAndLockCurrentRequest(m_pHCContext, 0)) != NULL)

  000d0	e3c33801	 bic         r3, r3, #1, 16
  000d4	e582302c	 str         r3, [r2, #0x2C]
  000d8	ea000002	 b           |$LN17@HandleRemo|
  000dc		 |$LL2@HandleRemo|

; 1186 :     {
; 1187 :         IndicateBusRequestComplete(pRequest, SD_API_STATUS_DEVICE_REMOVED);

  000dc	e59400a8	 ldr         r0, [r4, #0xA8]
  000e0	e3a02147	 mov         r2, #0x47, 2
  000e4	eb000000	 bl          SDHCDIndicateBusRequestComplete
  000e8		 |$LN17@HandleRemo|
  000e8	e59400a8	 ldr         r0, [r4, #0xA8]
  000ec	e3a01000	 mov         r1, #0
  000f0	eb000000	 bl          SDHCDGetAndLockCurrentRequest
  000f4	e1b01000	 movs        r1, r0
  000f8	1afffff7	 bne         |$LL2@HandleRemo|

; 1188 :     }
; 1189 : #endif
; 1190 : 
; 1191 :     TurnCardPowerOff();  // try to turn slot power off

  000fc	e5943000	 ldr         r3, [r4]
  00100	e1a00004	 mov         r0, r4
  00104	e5933018	 ldr         r3, [r3, #0x18]
  00108	e1a0e00f	 mov         lr, pc
  0010c	e12fff13	 bx          r3
  00110		 |$LN8@HandleRemo|

; 1192 : }

  00110	e8bd4070	 ldmia       sp!, {r4 - r6, lr}
  00114	e12fff1e	 bx          lr
  00118		 |$M45667|

			 ENDP  ; |?HandleRemoval@CSDIOControllerBase@@QAAXH@Z|, CSDIOControllerBase::HandleRemoval

	EXPORT	|?Init@CSDIOControllerBase@@QAAHPBG@Z|	; CSDIOControllerBase::Init
	EXPORT	|??_C@_1HK@NAJMOFNG@?$AAS?$AAD?$AAH?$AAC?$AAI?$AAn?$AAi?$AAt?$AAi?$AAa?$AAl?$AAi?$AAz?$AAe?$AA?3?$AA?3?$AA?5?$AAE?$AAr?$AAr?$AAo?$AAr?$AA?5?$AAa?$AAl?$AAl?$AAo?$AAc?$AAa?$AAt?$AAi?$AAn@| [ DATA ] ; `string'
	EXPORT	|??_C@_1GE@HPCKCMKC@?$AAS?$AAD?$AAH?$AAC?$AAI?$AAn?$AAi?$AAt?$AAi?$AAa?$AAl?$AAi?$AAz?$AAe?$AA?3?$AA?3?$AA?5?$AAE?$AAr?$AAr?$AAo?$AAr?$AA?5?$AAo?$AAp?$AAe?$AAn?$AAi?$AAn?$AAg?$AA?5?$AAt@| [ DATA ] ; `string'
	EXPORT	|??_C@_1KA@CLLCPJCJ@?$AAC?$AA?3?$AA?2?$AAW?$AAI?$AAN?$AAC?$AAE?$AA6?$AA0?$AA0?$AA?2?$AAP?$AAL?$AAA?$AAT?$AAF?$AAO?$AAR?$AAM?$AA?2?$AAC?$AAO?$AAM?$AAM?$AAO?$AAN?$AA?2?$AAS?$AAR?$AAC?$AA?2@| [ DATA ] ; `string'
	EXPORT	|??_C@_1CI@OHCJFJPM@?$AAE?$AAR?$AAR?$AAO?$AAR?$AA?3?$AA?5?$AA?$CF?$AAs?$AA?5?$AAl?$AAi?$AAn?$AAe?$AA?5?$AA?$CF?$AAd?$AA?3?$AA?5?$AA?$AA@| [ DATA ] ; `string'
	EXPORT	|??_C@_1FC@JCPNFEIG@?$AAS?$AAD?$AAH?$AAC?$AAI?$AAn?$AAi?$AAt?$AAi?$AAa?$AAl?$AAi?$AAz?$AAe?$AA?3?$AA?3?$AA?5?$AAE?$AAr?$AAr?$AAo?$AAr?$AA?5?$AAr?$AAe?$AAq?$AAu?$AAe?$AAs?$AAt?$AAi?$AAn@| [ DATA ] ; `string'
	EXPORT	|??_C@_1JA@BHKFNOIC@?$AAS?$AAD?$AAH?$AAC?$AA?5?$AAh?$AAo?$AAs?$AAt?$AA?5?$AAc?$AAo?$AAn?$AAt?$AAr?$AAo?$AAl?$AAl?$AAe?$AAr?$AA?5?$AAi?$AAn?$AAi?$AAt?$AAi?$AAa?$AAl?$AAi?$AAz?$AAe?$AA?3@| [ DATA ] ; `string'
	EXPORT	|??_C@_1DE@PNOEBOJA@?$AAS?$AAD?$AAH?$AAC?$AA?3?$AA?5?$AAC?$AAP?$AAU?$AA?5?$AAr?$AAe?$AAv?$AAi?$AAs?$AAi?$AAo?$AAn?$AA?5?$AA0?$AAx?$AA?$CF?$AAx?$AA?$AN?$AA?6?$AA?$AA@| [ DATA ] ; `string'
	IMPORT	|CreateThread|
	IMPORT	|SDHCDRegisterHostController|
	IMPORT	|MmMapIoSpace|
	IMPORT	|GetAddressByDevice|
	IMPORT	|GPIOOpen|
	IMPORT	|BSPGetSDHCCardDetect|
	IMPORT	|RequestDevicePads|
	IMPORT	|SOCGetSDHCDeviceBySlot|
	IMPORT	|GetDeviceRegistryParams|
	IMPORT	|SDHCDAllocateContext|
	IMPORT	|CreateBusAccessHandle|
	IMPORT	|KernelIoControl|
	IMPORT	|CalibrateStallCounter|
; File c:\wince600\public\common\sdk\inc\creg.hxx

  00000			 AREA	 |.pdata|, PDATA
|$T45717| DCD	|$LN55@Init|
	DCD	0x4000c502

  00000			 AREA	 |.rdata|, DATA, READONLY
|??_C@_1HK@NAJMOFNG@?$AAS?$AAD?$AAH?$AAC?$AAI?$AAn?$AAi?$AAt?$AAi?$AAa?$AAl?$AAi?$AAz?$AAe?$AA?3?$AA?3?$AA?5?$AAE?$AAr?$AAr?$AAo?$AAr?$AA?5?$AAa?$AAl?$AAl?$AAo?$AAc?$AAa?$AAt?$AAi?$AAn@| DCB "S"
	DCB	0x0, "D", 0x0, "H", 0x0, "C", 0x0, "I", 0x0, "n", 0x0, "i"
	DCB	0x0, "t", 0x0, "i", 0x0, "a", 0x0, "l", 0x0, "i", 0x0, "z"
	DCB	0x0, "e", 0x0, ":", 0x0, ":", 0x0, " ", 0x0, "E", 0x0, "r"
	DCB	0x0, "r", 0x0, "o", 0x0, "r", 0x0, " ", 0x0, "a", 0x0, "l"
	DCB	0x0, "l", 0x0, "o", 0x0, "c", 0x0, "a", 0x0, "t", 0x0, "i"
	DCB	0x0, "n", 0x0, "g", 0x0, " ", 0x0, "S", 0x0, "D", 0x0, "H"
	DCB	0x0, "C", 0x0, " ", 0x0, "c", 0x0, "o", 0x0, "n", 0x0, "t"
	DCB	0x0, "r", 0x0, "o", 0x0, "l", 0x0, "l", 0x0, "e", 0x0, "r"
	DCB	0x0, " ", 0x0, "r", 0x0, "e", 0x0, "g", 0x0, "i", 0x0, "s"
	DCB	0x0, "t", 0x0, "e", 0x0, "r", 0x0, 0xd, 0x0, 0xa, 0x0, 0x0
	DCB	0x0					; `string'

  00000			 AREA	 |.rdata|, DATA, READONLY
|??_C@_1GE@HPCKCMKC@?$AAS?$AAD?$AAH?$AAC?$AAI?$AAn?$AAi?$AAt?$AAi?$AAa?$AAl?$AAi?$AAz?$AAe?$AA?3?$AA?3?$AA?5?$AAE?$AAr?$AAr?$AAo?$AAr?$AA?5?$AAo?$AAp?$AAe?$AAn?$AAi?$AAn?$AAg?$AA?5?$AAt@| DCB "S"
	DCB	0x0, "D", 0x0, "H", 0x0, "C", 0x0, "I", 0x0, "n", 0x0, "i"
	DCB	0x0, "t", 0x0, "i", 0x0, "a", 0x0, "l", 0x0, "i", 0x0, "z"
	DCB	0x0, "e", 0x0, ":", 0x0, ":", 0x0, " ", 0x0, "E", 0x0, "r"
	DCB	0x0, "r", 0x0, "o", 0x0, "r", 0x0, " ", 0x0, "o", 0x0, "p"
	DCB	0x0, "e", 0x0, "n", 0x0, "i", 0x0, "n", 0x0, "g", 0x0, " "
	DCB	0x0, "t", 0x0, "h", 0x0, "e", 0x0, " ", 0x0, "G", 0x0, "P"
	DCB	0x0, "I", 0x0, "O", 0x0, " ", 0x0, "d", 0x0, "r", 0x0, "i"
	DCB	0x0, "v", 0x0, "e", 0x0, "r", 0x0, "!", 0x0, 0xd, 0x0, 0xa
	DCB	0x0, 0x0, 0x0				; `string'

  00000			 AREA	 |.rdata|, DATA, READONLY
|??_C@_1KA@CLLCPJCJ@?$AAC?$AA?3?$AA?2?$AAW?$AAI?$AAN?$AAC?$AAE?$AA6?$AA0?$AA0?$AA?2?$AAP?$AAL?$AAA?$AAT?$AAF?$AAO?$AAR?$AAM?$AA?2?$AAC?$AAO?$AAM?$AAM?$AAO?$AAN?$AA?2?$AAS?$AAR?$AAC?$AA?2@| DCB "C"
	DCB	0x0, ":", 0x0, "\\", 0x0, "W", 0x0, "I", 0x0, "N", 0x0, "C"
	DCB	0x0, "E", 0x0, "6", 0x0, "0", 0x0, "0", 0x0, "\\", 0x0, "P"
	DCB	0x0, "L", 0x0, "A", 0x0, "T", 0x0, "F", 0x0, "O", 0x0, "R"
	DCB	0x0, "M", 0x0, "\\", 0x0, "C", 0x0, "O", 0x0, "M", 0x0, "M"
	DCB	0x0, "O", 0x0, "N", 0x0, "\\", 0x0, "S", 0x0, "R", 0x0, "C"
	DCB	0x0, "\\", 0x0, "S", 0x0, "O", 0x0, "C", 0x0, "\\", 0x0, "C"
	DCB	0x0, "O", 0x0, "M", 0x0, "M", 0x0, "O", 0x0, "N", 0x0, "_"
	DCB	0x0, "T", 0x0, "I", 0x0, "_", 0x0, "V", 0x0, "1", 0x0, "\\"
	DCB	0x0, "C", 0x0, "O", 0x0, "M", 0x0, "M", 0x0, "O", 0x0, "N"
	DCB	0x0, "_", 0x0, "T", 0x0, "I", 0x0, "\\", 0x0, "S", 0x0, "D"
	DCB	0x0, "H", 0x0, "C", 0x0, "\\", 0x0, "B", 0x0, "A", 0x0, "S"
	DCB	0x0, "E", 0x0, "\\", 0x0, ".", 0x0, "\\", 0x0, "s", 0x0, "d"
	DCB	0x0, "h", 0x0, "c", 0x0, ".", 0x0, "c", 0x0, "p", 0x0, "p"
	DCB	0x0, 0x0, 0x0				; `string'

  00000			 AREA	 |.rdata|, DATA, READONLY
|??_C@_1CI@OHCJFJPM@?$AAE?$AAR?$AAR?$AAO?$AAR?$AA?3?$AA?5?$AA?$CF?$AAs?$AA?5?$AAl?$AAi?$AAn?$AAe?$AA?5?$AA?$CF?$AAd?$AA?3?$AA?5?$AA?$AA@| DCB "E"
	DCB	0x0, "R", 0x0, "R", 0x0, "O", 0x0, "R", 0x0, ":", 0x0, " "
	DCB	0x0, "%", 0x0, "s", 0x0, " ", 0x0, "l", 0x0, "i", 0x0, "n"
	DCB	0x0, "e", 0x0, " ", 0x0, "%", 0x0, "d", 0x0, ":", 0x0, " "
	DCB	0x0, 0x0, 0x0				; `string'

  00000			 AREA	 |.rdata|, DATA, READONLY
|??_C@_1FC@JCPNFEIG@?$AAS?$AAD?$AAH?$AAC?$AAI?$AAn?$AAi?$AAt?$AAi?$AAa?$AAl?$AAi?$AAz?$AAe?$AA?3?$AA?3?$AA?5?$AAE?$AAr?$AAr?$AAo?$AAr?$AA?5?$AAr?$AAe?$AAq?$AAu?$AAe?$AAs?$AAt?$AAi?$AAn@| DCB "S"
	DCB	0x0, "D", 0x0, "H", 0x0, "C", 0x0, "I", 0x0, "n", 0x0, "i"
	DCB	0x0, "t", 0x0, "i", 0x0, "a", 0x0, "l", 0x0, "i", 0x0, "z"
	DCB	0x0, "e", 0x0, ":", 0x0, ":", 0x0, " ", 0x0, "E", 0x0, "r"
	DCB	0x0, "r", 0x0, "o", 0x0, "r", 0x0, " ", 0x0, "r", 0x0, "e"
	DCB	0x0, "q", 0x0, "u", 0x0, "e", 0x0, "s", 0x0, "t", 0x0, "i"
	DCB	0x0, "n", 0x0, "g", 0x0, " ", 0x0, "p", 0x0, "a", 0x0, "d"
	DCB	0x0, "s", 0x0, 0xd, 0x0, 0xa, 0x0, 0x0, 0x0 ; `string'

  00000			 AREA	 |.rdata|, DATA, READONLY
|??_C@_1JA@BHKFNOIC@?$AAS?$AAD?$AAH?$AAC?$AA?5?$AAh?$AAo?$AAs?$AAt?$AA?5?$AAc?$AAo?$AAn?$AAt?$AAr?$AAo?$AAl?$AAl?$AAe?$AAr?$AA?5?$AAi?$AAn?$AAi?$AAt?$AAi?$AAa?$AAl?$AAi?$AAz?$AAe?$AA?3@| DCB "S"
	DCB	0x0, "D", 0x0, "H", 0x0, "C", 0x0, " ", 0x0, "h", 0x0, "o"
	DCB	0x0, "s", 0x0, "t", 0x0, " ", 0x0, "c", 0x0, "o", 0x0, "n"
	DCB	0x0, "t", 0x0, "r", 0x0, "o", 0x0, "l", 0x0, "l", 0x0, "e"
	DCB	0x0, "r", 0x0, " ", 0x0, "i", 0x0, "n", 0x0, "i", 0x0, "t"
	DCB	0x0, "i", 0x0, "a", 0x0, "l", 0x0, "i", 0x0, "z", 0x0, "e"
	DCB	0x0, ":", 0x0, " ", 0x0, "m", 0x0, "_", 0x0, "f", 0x0, "a"
	DCB	0x0, "s", 0x0, "t", 0x0, "P", 0x0, "a", 0x0, "t", 0x0, "h"
	DCB	0x0, "S", 0x0, "D", 0x0, "I", 0x0, "O", 0x0, ":", 0x0, "%"
	DCB	0x0, "d", 0x0, " ", 0x0, "m", 0x0, "_", 0x0, "f", 0x0, "a"
	DCB	0x0, "s", 0x0, "t", 0x0, "P", 0x0, "a", 0x0, "t", 0x0, "h"
	DCB	0x0, "S", 0x0, "D", 0x0, "M", 0x0, "E", 0x0, "M", 0x0, ":"
	DCB	0x0, "%", 0x0, "d", 0x0, 0xd, 0x0, 0xa, 0x0, 0x0, 0x0 ; `string'

  00000			 AREA	 |.rdata|, DATA, READONLY
|??_C@_1DE@PNOEBOJA@?$AAS?$AAD?$AAH?$AAC?$AA?3?$AA?5?$AAC?$AAP?$AAU?$AA?5?$AAr?$AAe?$AAv?$AAi?$AAs?$AAi?$AAo?$AAn?$AA?5?$AA0?$AAx?$AA?$CF?$AAx?$AA?$AN?$AA?6?$AA?$AA@| DCB "S"
	DCB	0x0, "D", 0x0, "H", 0x0, "C", 0x0, ":", 0x0, " ", 0x0, "C"
	DCB	0x0, "P", 0x0, "U", 0x0, " ", 0x0, "r", 0x0, "e", 0x0, "v"
	DCB	0x0, "i", 0x0, "s", 0x0, "i", 0x0, "o", 0x0, "n", 0x0, " "
	DCB	0x0, "0", 0x0, "x", 0x0, "%", 0x0, "x", 0x0, 0xd, 0x0, 0xa
	DCB	0x0, 0x0, 0x0				; `string'
; Function compile flags: /Ogspy
; File c:\wince600\platform\common\src\soc\common_ti_v1\common_ti\sdhc\base\sdhc.cpp

  00000			 AREA	 |.text|, CODE, ARM

  00000		 |?Init@CSDIOControllerBase@@QAAHPBG@Z| PROC ; CSDIOControllerBase::Init

; 1243 : {

  00000		 |$LN55@Init|
  00000	e92d40f0	 stmdb       sp!, {r4 - r7, lr}
  00004	e24dd008	 sub         sp, sp, #8
  00008		 |$M45714|
  00008	e1a05001	 mov         r5, r1
  0000c	e1a04000	 mov         r4, r0

; 1244 :     SD_API_STATUS      status;              // SD status
; 1245 :     CReg               regDevice;           // encapsulated device key
; 1246 :     DWORD              dwRet = 0;           // return value

  00010	e3a06000	 mov         r6, #0

; 1247 : 
; 1248 :     PHYSICAL_ADDRESS PortAddress;
; 1249 : 
; 1250 :     DEBUGMSG(SDCARD_ZONE_INIT, (L"SDHC +Init\r\n"));
; 1251 :     DEBUGMSG(SDCARD_ZONE_INIT, (L"SDHC Active RegPath: %s \r\n",pszActiveKey));
; 1252 : 
; 1253 :     CalibrateStallCounter();

  00014	eb000000	 bl          CalibrateStallCounter

; 1254 : 
; 1255 :     m_dwCPURev = (DWORD)CPU_REVISION_UNKNOWN;

  00018	e3e02000	 mvn         r2, #0

; 1256 :     KernelIoControl(IOCTL_HAL_GET_CPUREVISION, NULL, 0, &m_dwCPURev, sizeof(m_dwCPURev), NULL);

  0001c	e1a03004	 mov         r3, r4
  00020	e59f02e8	 ldr         r0, [pc, #0x2E8]
  00024	e5a3217c	 str         r2, [r3, #0x17C]!
  00028	e3a0e004	 mov         lr, #4
  0002c	e3a07000	 mov         r7, #0
  00030	e3a02000	 mov         r2, #0
  00034	e3a01000	 mov         r1, #0
  00038	e58d7004	 str         r7, [sp, #4]
  0003c	e58de000	 str         lr, [sp]
  00040	eb000000	 bl          KernelIoControl

; 1257 :     RETAILMSG(1, (L"SDHC: CPU revision 0x%x\r\n", m_dwCPURev));

  00044	e594117c	 ldr         r1, [r4, #0x17C]
  00048	e59f02bc	 ldr         r0, [pc, #0x2BC]
  0004c	eb000000	 bl          NKDbgPrintfW

; 1258 : 
; 1259 :     // open the parent bus driver handle
; 1260 :     m_hParentBus = CreateBusAccessHandle(pszActiveKey);

  00050	e1a00005	 mov         r0, r5
  00054	eb000000	 bl          CreateBusAccessHandle
  00058	e3500000	 cmp         r0, #0
  0005c	e58400ac	 str         r0, [r4, #0xAC]

; 1261 :     if ( m_hParentBus == NULL )

  00060	0a000038	 beq         |$LN51@Init|

; 1262 :     {
; 1263 :         DEBUGMSG(SDCARD_ZONE_ERROR, 
; 1264 :             (L"SDHC: Failed to obtain parent bus handle\r\n")
; 1265 :             );
; 1266 :         goto cleanUp;
; 1267 :     }
; 1268 : 
; 1269 :     // allocate the context - we only support one slot
; 1270 :     status = SDHCDAllocateContext(1, &m_pHCContext);

  00064	e28410a8	 add         r1, r4, #0xA8
  00068	e3a00001	 mov         r0, #1
  0006c	eb000000	 bl          SDHCDAllocateContext
  00070	e3500000	 cmp         r0, #0

; 1271 :     if (!SD_API_SUCCESS(status))

  00074	4a000033	 bmi         |$LN51@Init|

; 1272 :     {
; 1273 :         DEBUGMSG(SDCARD_ZONE_ERROR, (L"SDHC Failed to allocate context: 0x%08X \r\n", status));
; 1274 :         goto cleanUp;
; 1275 :     }
; 1276 : 
; 1277 :     // Set our extension
; 1278 :     m_pHCContext->pHCSpecificContext = this;

  00078	e59410a8	 ldr         r1, [r4, #0xA8]

; 1279 :     if (GetDeviceRegistryParams(pszActiveKey, this, dimof(s_deviceRegParams), 
; 1280 :         s_deviceRegParams) != ERROR_SUCCESS)

  0007c	e59f3284	 ldr         r3, [pc, #0x284]
  00080	e3a02016	 mov         r2, #0x16
  00084	e581404c	 str         r4, [r1, #0x4C]
  00088	e1a01004	 mov         r1, r4
  0008c	e1a00005	 mov         r0, r5
  00090	eb000000	 bl          GetDeviceRegistryParams
  00094	e3500000	 cmp         r0, #0
  00098	1a00002a	 bne         |$LN51@Init|

; 1281 :     {
; 1282 :         DEBUGMSG(SDCARD_ZONE_ERROR, (L"ERROR: CSDIOControllerBase:Init: "
; 1283 :             L"Failed read SDHC driver registry parameters\r\n"
; 1284 :             ));
; 1285 :         goto cleanUp;
; 1286 :     }
; 1287 : 
; 1288 :     // get the Command and Data timeouts
; 1289 :     m_dwCurrentWakeupSources = m_dwWakeupSources & (~WAKEUP_SDIO);

  0009c	e59430e8	 ldr         r3, [r4, #0xE8]

; 1290 :     m_wCTOTimeout = min(m_wCTOTimeout, MMC_CTO_CONTROL_MAX);

  000a0	e5942140	 ldr         r2, [r4, #0x140]

; 1291 :     m_wDTOTimeout = min(m_wDTOTimeout, MMC_DTO_CONTROL_MAX);

  000a4	e5941144	 ldr         r1, [r4, #0x144]
  000a8	e3c33001	 bic         r3, r3, #1
  000ac	e58430ec	 str         r3, [r4, #0xEC]
  000b0	e3a03cff	 mov         r3, #0xFF, 24
  000b4	e35200fd	 cmp         r2, #0xFD
  000b8	e38330fd	 orr         r3, r3, #0xFD
  000bc	23a020fd	 movcs       r2, #0xFD
  000c0	e1510003	 cmp         r1, r3
  000c4	21a01003	 movcs       r1, r3

; 1292 :     m_dwMaxClockRate = m_dwMaxClockRate == 0 ? STD_HC_MAX_CLOCK_FREQUENCY : 
; 1293 :                                                min(m_dwMaxClockRate, STD_HC_MAX_CLOCK_FREQUENCY);

  000c8	e5943148	 ldr         r3, [r4, #0x148]
  000cc	e5842140	 str         r2, [r4, #0x140]
  000d0	e5841144	 str         r1, [r4, #0x144]
  000d4	e1b02003	 movs        r2, r3
  000d8	e3a037b7	 mov         r3, #0xB7, 14
  000dc	03832b1b	 orreq       r2, r3, #0x1B, 22
  000e0	0a000002	 beq         |$LN32@Init|
  000e4	e3833b1b	 orr         r3, r3, #0x1B, 22
  000e8	e1520003	 cmp         r2, r3
  000ec	21a02003	 movcs       r2, r3
  000f0		 |$LN32@Init|

; 1294 : 
; 1295 : 
; 1296 :     RETAILMSG(SDCARD_ZONE_INFO, 
; 1297 :         (L"SDHC host controller initialize: m_fastPathSDIO:%d m_fastPathSDMEM:%d\r\n",
; 1298 :         m_fastPathSDIO, m_fastPathSDMEM)
; 1299 :         );

  000f0	e59f320c	 ldr         r3, [pc, #0x20C]
  000f4	e5842148	 str         r2, [r4, #0x148]
  000f8	e5933440	 ldr         r3, [r3, #0x440]
  000fc	e3130a01	 tst         r3, #1, 20
  00100	15942184	 ldrne       r2, [r4, #0x184]
  00104	15941180	 ldrne       r1, [r4, #0x180]
  00108	159f01f0	 ldrne       r0, [pc, #0x1F0]
  0010c	1b000000	 blne        NKDbgPrintfW

; 1300 :     
; 1301 : 	m_dwDeviceID = SOCGetSDHCDeviceBySlot(m_dwSlot);

  00110	e5940170	 ldr         r0, [r4, #0x170]
  00114	eb000000	 bl          SOCGetSDHCDeviceBySlot
  00118	e1a03000	 mov         r3, r0

; 1302 : 
; 1303 :     if (!RequestDevicePads(m_dwDeviceID))

  0011c	e5843174	 str         r3, [r4, #0x174]
  00120	eb000000	 bl          RequestDevicePads
  00124	e3500000	 cmp         r0, #0
  00128	1a000010	 bne         |$LN16@Init|

; 1304 : 	{
; 1305 : 	    ERRORMSG(1, (_T("SDHCInitialize:: Error requesting pads\r\n")));

  0012c	e59f11c0	 ldr         r1, [pc, #0x1C0]
  00130	e59f01b8	 ldr         r0, [pc, #0x1B8]
  00134	e3a03c05	 mov         r3, #5, 24
  00138	e3832019	 orr         r2, r3, #0x19
  0013c	eb000000	 bl          NKDbgPrintfW
  00140	e59f01b4	 ldr         r0, [pc, #0x1B4]
  00144		 |$LN52@Init|
  00144	eb000000	 bl          NKDbgPrintfW
  00148		 |$LN51@Init|

; 1377 : 
; 1378 : cleanUp:
; 1379 :     if ( (dwRet == 0) && m_pHCContext )

  00148	e59430a8	 ldr         r3, [r4, #0xA8]
  0014c	e3530000	 cmp         r3, #0

; 1380 :     {
; 1381 :         FreeHostContext(FALSE, TRUE);

  00150	13a02001	 movne       r2, #1
  00154	13a01000	 movne       r1, #0
  00158	11a00004	 movne       r0, r4
  0015c	1b000000	 blne        |?FreeHostContext@CSDIOControllerBase@@QAAXHH@Z|
  00160		 |$LN1@Init|

; 1382 :     }
; 1383 : 
; 1384 :     DEBUGMSG(SDCARD_ZONE_INIT, (TEXT("SDHC -Init\r\n")));
; 1385 :     return dwRet;
; 1386 : }

  00160	e1a00006	 mov         r0, r6
  00164	e28dd008	 add         sp, sp, #8
  00168	e8bd40f0	 ldmia       sp!, {r4 - r7, lr}
  0016c	e12fff1e	 bx          lr
  00170		 |$LN16@Init|

; 1306 :         status = SD_API_STATUS_INSUFFICIENT_RESOURCES;
; 1307 :         goto cleanUp;
; 1308 : 	}
; 1309 : 
; 1310 :     if (m_dwCardDetectGPIO == -1)

  00170	e59431e4	 ldr         r3, [r4, #0x1E4]
  00174	e3730001	 cmn         r3, #1
  00178	1a000002	 bne         |$LN14@Init|

; 1311 :     {
; 1312 :         m_dwCardDetectGPIO = BSPGetSDHCCardDetect(m_dwSlot);

  0017c	e5940170	 ldr         r0, [r4, #0x170]
  00180	eb000000	 bl          BSPGetSDHCCardDetect
  00184	e58401e4	 str         r0, [r4, #0x1E4]
  00188		 |$LN14@Init|

; 1313 :     }
; 1314 : 
; 1315 :     // Open the GPIO driver
; 1316 :     m_hGPIO = GPIOOpen();

  00188	eb000000	 bl          GPIOOpen
  0018c	e3500000	 cmp         r0, #0
  00190	e5840164	 str         r0, [r4, #0x164]

; 1317 :     if( m_hGPIO == NULL )

  00194	1a000006	 bne         |$LN13@Init|

; 1318 :     {
; 1319 :         ERRORMSG(1, (_T("SDHCInitialize:: Error opening the GPIO driver!\r\n")));

  00198	e59f1154	 ldr         r1, [pc, #0x154]
  0019c	e59f014c	 ldr         r0, [pc, #0x14C]
  001a0	e3a03c05	 mov         r3, #5, 24
  001a4	e3832027	 orr         r2, r3, #0x27
  001a8	eb000000	 bl          NKDbgPrintfW
  001ac	e59f0144	 ldr         r0, [pc, #0x144]

; 1320 :         status = SD_API_STATUS_INSUFFICIENT_RESOURCES;
; 1321 :         goto cleanUp;

  001b0	eaffffe3	 b           |$LN52@Init|
  001b4		 |$LN13@Init|

; 1322 :     }
; 1323 : 
; 1324 :     // map hardware memory space
; 1325 :     PortAddress.QuadPart = GetAddressByDevice(m_dwDeviceID);

  001b4	e5940174	 ldr         r0, [r4, #0x174]
  001b8	eb000000	 bl          GetAddressByDevice

; 1326 :     m_pbRegisters = (OMAP_MMCHS_REGS *)MmMapIoSpace(PortAddress, sizeof(OMAP_MMCHS_REGS), FALSE );

  001bc	e3a01000	 mov         r1, #0
  001c0	e3a03000	 mov         r3, #0
  001c4	e3a02c02	 mov         r2, #2, 24
  001c8	eb000000	 bl          MmMapIoSpace
  001cc	e3500000	 cmp         r0, #0
  001d0	e584015c	 str         r0, [r4, #0x15C]

; 1327 :     if ( !m_pbRegisters )

  001d4	1a000006	 bne         |$LN11@Init|

; 1328 :     {
; 1329 :         ERRORMSG(1, (_T("SDHCInitialize:: Error allocating SDHC controller register\r\n")));

  001d8	e59f1114	 ldr         r1, [pc, #0x114]
  001dc	e59f010c	 ldr         r0, [pc, #0x10C]
  001e0	e3a03c05	 mov         r3, #5, 24
  001e4	e3832031	 orr         r2, r3, #0x31
  001e8	eb000000	 bl          NKDbgPrintfW
  001ec	e59f00f8	 ldr         r0, [pc, #0xF8]

; 1330 :         status = SD_API_STATUS_INSUFFICIENT_RESOURCES;
; 1331 :         goto cleanUp;

  001f0	eaffffd3	 b           |$LN52@Init|
  001f4		 |$LN11@Init|

; 1332 :     }
; 1333 : 
; 1334 :     // turn power and system clocks on
; 1335 :     TurnCardPowerOn();

  001f4	e5943000	 ldr         r3, [r4]
  001f8	e1a00004	 mov         r0, r4
  001fc	e5933014	 ldr         r3, [r3, #0x14]
  00200	e1a0e00f	 mov         lr, pc
  00204	e12fff13	 bx          r3

; 1336 :     if( !InitializeHardware() )

  00208	e5943000	 ldr         r3, [r4]
  0020c	e1a00004	 mov         r0, r4
  00210	e5933000	 ldr         r3, [r3]
  00214	e1a0e00f	 mov         lr, pc
  00218	e12fff13	 bx          r3
  0021c	e3500000	 cmp         r0, #0
  00220	1a000005	 bne         |$LN9@Init|

; 1337 :     {
; 1338 :         DEBUGMSG(SDCARD_ZONE_ERROR, (TEXT("InitializeHardware:: Error configuring SDHC hardware\r\n")));
; 1339 :         status = SD_API_STATUS_INSUFFICIENT_RESOURCES;
; 1340 :         TurnCardPowerOff();

  00224	e5943000	 ldr         r3, [r4]
  00228	e1a00004	 mov         r0, r4
  0022c	e5933018	 ldr         r3, [r3, #0x18]
  00230	e1a0e00f	 mov         lr, pc
  00234	e12fff13	 bx          r3

; 1341 :         goto cleanUp;

  00238	eaffffc2	 b           |$LN51@Init|
  0023c		 |$LN9@Init|

; 1342 :     }
; 1343 : 
; 1344 : 	// Perform SOC-specific configuration
; 1345 : 	SocSdhcDevconf(m_dwSlot);

  0023c	e5940170	 ldr         r0, [r4, #0x170]
  00240	eb000000	 bl          SocSdhcDevconf

; 1346 : 
; 1347 :     // Read SD Host Controller Info from register.
; 1348 :     if (!InterpretCapabilities())

  00244	e5943000	 ldr         r3, [r4]
  00248	e1a00004	 mov         r0, r4
  0024c	e5933024	 ldr         r3, [r3, #0x24]
  00250	e1a0e00f	 mov         lr, pc
  00254	e12fff13	 bx          r3
  00258	e3500000	 cmp         r0, #0
  0025c	1a000005	 bne         |$LN7@Init|

; 1349 :     {
; 1350 :         TurnCardPowerOff();

  00260	e5943000	 ldr         r3, [r4]
  00264	e1a00004	 mov         r0, r4
  00268	e5933018	 ldr         r3, [r3, #0x18]
  0026c	e1a0e00f	 mov         lr, pc
  00270	e12fff13	 bx          r3

; 1351 :         goto cleanUp;

  00274	eaffffb3	 b           |$LN51@Init|
  00278		 |$LN7@Init|

; 1352 :     }
; 1353 : 
; 1354 :     // now register the host controller
; 1355 :     status = SDHCDRegisterHostController(m_pHCContext);

  00278	e59400a8	 ldr         r0, [r4, #0xA8]
  0027c	eb000000	 bl          SDHCDRegisterHostController
  00280	e3500000	 cmp         r0, #0

; 1356 :     if (!SD_API_SUCCESS(status))
; 1357 :     {
; 1358 :         DEBUGMSG(SDCARD_ZONE_ERROR, (TEXT("SDHC Failed to register host controller: %0x08X \r\n"),status));
; 1359 :         TurnCardPowerOff();

  00284	e1a00004	 mov         r0, r4
  00288	5a000004	 bpl         |$LN5@Init|
  0028c	e5943000	 ldr         r3, [r4]
  00290	e5933018	 ldr         r3, [r3, #0x18]
  00294	e1a0e00f	 mov         lr, pc
  00298	e12fff13	 bx          r3

; 1360 :         goto cleanUp;

  0029c	eaffffa9	 b           |$LN51@Init|
  002a0		 |$LN5@Init|

; 1361 :     }
; 1362 : 
; 1363 :     EnableSDHCInterrupts();

  002a0	eb000000	 bl          |?EnableSDHCInterrupts@CSDIOControllerBase@@QAAXXZ|

; 1364 :     TurnCardPowerOff();

  002a4	e5943000	 ldr         r3, [r4]
  002a8	e1a00004	 mov         r0, r4
  002ac	e5933018	 ldr         r3, [r3, #0x18]
  002b0	e1a0e00f	 mov         lr, pc
  002b4	e12fff13	 bx          r3

; 1365 : 
; 1366 :     // create the card detect IST thread
; 1367 :     m_htCardDetectIST = CreateThread(NULL, 0, SDHCCardDetectIstThread, this, 0, NULL);

  002b8	e59f2028	 ldr         r2, [pc, #0x28]
  002bc	e1a03004	 mov         r3, r4
  002c0	e3a01000	 mov         r1, #0
  002c4	e3a00000	 mov         r0, #0
  002c8	e58d7004	 str         r7, [sp, #4]
  002cc	e58d7000	 str         r7, [sp]
  002d0	eb000000	 bl          CreateThread
  002d4	e3500000	 cmp         r0, #0
  002d8	e5840124	 str         r0, [r4, #0x124]

; 1368 : 
; 1369 :     if (NULL == m_htCardDetectIST)

  002dc	0affff99	 beq         |$LN51@Init|

; 1370 :         {
; 1371 :         status = SD_API_STATUS_INSUFFICIENT_RESOURCES;
; 1372 :         goto cleanUp;
; 1373 :         }
; 1374 : 
; 1375 :     // return the controller context
; 1376 :     dwRet = (DWORD) this;

  002e0	e1a06004	 mov         r6, r4
  002e4		 |$cleanUp$42676|

; 1377 : 
; 1378 : cleanUp:
; 1379 :     if ( (dwRet == 0) && m_pHCContext )

  002e4	eaffff9d	 b           |$LN1@Init|
  002e8		 |$LN56@Init|
  002e8		 |$LN57@Init|
  002e8	00000000	 DCD         |?SDHCCardDetectIstThread@CSDIOControllerBase@@SAKPAX@Z|
  002ec		 |$LN58@Init|
  002ec	00000000	 DCD         |??_C@_1HK@NAJMOFNG@?$AAS?$AAD?$AAH?$AAC?$AAI?$AAn?$AAi?$AAt?$AAi?$AAa?$AAl?$AAi?$AAz?$AAe?$AA?3?$AA?3?$AA?5?$AAE?$AAr?$AAr?$AAo?$AAr?$AA?5?$AAa?$AAl?$AAl?$AAo?$AAc?$AAa?$AAt?$AAi?$AAn@|
  002f0		 |$LN59@Init|
  002f0	00000000	 DCD         |??_C@_1CI@OHCJFJPM@?$AAE?$AAR?$AAR?$AAO?$AAR?$AA?3?$AA?5?$AA?$CF?$AAs?$AA?5?$AAl?$AAi?$AAn?$AAe?$AA?5?$AA?$CF?$AAd?$AA?3?$AA?5?$AA?$AA@|
  002f4		 |$LN60@Init|
  002f4	00000000	 DCD         |??_C@_1KA@CLLCPJCJ@?$AAC?$AA?3?$AA?2?$AAW?$AAI?$AAN?$AAC?$AAE?$AA6?$AA0?$AA0?$AA?2?$AAP?$AAL?$AAA?$AAT?$AAF?$AAO?$AAR?$AAM?$AA?2?$AAC?$AAO?$AAM?$AAM?$AAO?$AAN?$AA?2?$AAS?$AAR?$AAC?$AA?2@|
  002f8		 |$LN61@Init|
  002f8	00000000	 DCD         |??_C@_1GE@HPCKCMKC@?$AAS?$AAD?$AAH?$AAC?$AAI?$AAn?$AAi?$AAt?$AAi?$AAa?$AAl?$AAi?$AAz?$AAe?$AA?3?$AA?3?$AA?5?$AAE?$AAr?$AAr?$AAo?$AAr?$AA?5?$AAo?$AAp?$AAe?$AAn?$AAi?$AAn?$AAg?$AA?5?$AAt@|
  002fc		 |$LN62@Init|
  002fc	00000000	 DCD         |??_C@_1FC@JCPNFEIG@?$AAS?$AAD?$AAH?$AAC?$AAI?$AAn?$AAi?$AAt?$AAi?$AAa?$AAl?$AAi?$AAz?$AAe?$AA?3?$AA?3?$AA?5?$AAE?$AAr?$AAr?$AAo?$AAr?$AA?5?$AAr?$AAe?$AAq?$AAu?$AAe?$AAs?$AAt?$AAi?$AAn@|
  00300		 |$LN63@Init|
  00300	00000000	 DCD         |??_C@_1JA@BHKFNOIC@?$AAS?$AAD?$AAH?$AAC?$AA?5?$AAh?$AAo?$AAs?$AAt?$AA?5?$AAc?$AAo?$AAn?$AAt?$AAr?$AAo?$AAl?$AAl?$AAe?$AAr?$AA?5?$AAi?$AAn?$AAi?$AAt?$AAi?$AAa?$AAl?$AAi?$AAz?$AAe?$AA?3@|
  00304		 |$LN64@Init|
  00304	00000000	 DCD         |dpCurSettings|
  00308		 |$LN65@Init|
  00308	00000000	 DCD         |s_deviceRegParams|
  0030c		 |$LN66@Init|
  0030c	00000000	 DCD         |??_C@_1DE@PNOEBOJA@?$AAS?$AAD?$AAH?$AAC?$AA?3?$AA?5?$AAC?$AAP?$AAU?$AA?5?$AAr?$AAe?$AAv?$AAi?$AAs?$AAi?$AAo?$AAn?$AA?5?$AA0?$AAx?$AA?$CF?$AAx?$AA?$AN?$AA?6?$AA?$AA@|
  00310		 |$LN67@Init|
  00310	01012010	 DCD         0x1012010
  00314		 |$M45715|

			 ENDP  ; |?Init@CSDIOControllerBase@@QAAHPBG@Z|, CSDIOControllerBase::Init

	EXPORT	|?SDHCDeinitializeImpl@CSDIOControllerBase@@QAAJXZ| ; CSDIOControllerBase::SDHCDeinitializeImpl
	IMPORT	|ReleaseDevicePads|
	IMPORT	|?SDIO_DeinitDMA@CSDIOControllerBase@@QAAXXZ| ; CSDIOControllerBase::SDIO_DeinitDMA
	IMPORT	|CloseHandle|
	IMPORT	|InterruptDisable|
; File c:\wince600\public\common\sdk\inc\kfuncs.h

  00000			 AREA	 |.pdata|, PDATA
|$T45751| DCD	|$LN21@SDHCDeinit|
	DCD	0x40006602
; Function compile flags: /Ogspy
; File c:\wince600\platform\common\src\soc\common_ti_v1\common_ti\sdhc\base\sdhc.cpp

  00000			 AREA	 |.text|, CODE, ARM

  00000		 |?SDHCDeinitializeImpl@CSDIOControllerBase@@QAAJXZ| PROC ; CSDIOControllerBase::SDHCDeinitializeImpl

; 2249 : {

  00000		 |$LN21@SDHCDeinit|
  00000	e92d41f0	 stmdb       sp!, {r4 - r8, lr}
  00004	e24dd008	 sub         sp, sp, #8
  00008		 |$M45748|
  00008	e1a05000	 mov         r5, r0

; 2250 :     DEBUGMSG(SDCARD_ZONE_INFO, (L"CSDIOControllerBase::SDHCDeinitializeImpl++\r\n"));
; 2251 :     
; 2252 :     // mark for shutdown
; 2253 :     m_fDriverShutdown = TRUE;
; 2254 : 
; 2255 :     if (m_fInitialized)

  0000c	e5953138	 ldr         r3, [r5, #0x138]
  00010	e3a08001	 mov         r8, #1
  00014	e5858130	 str         r8, [r5, #0x130]
  00018	e3530000	 cmp         r3, #0
  0001c	e3a06000	 mov         r6, #0
  00020	e3e07000	 mvn         r7, #0
  00024	0a00001b	 beq         |$LN7@SDHCDeinit|

; 2256 :     {
; 2257 :         if( m_dwControllerSysIntr != SYSINTR_UNDEFINED )

  00028	e5953134	 ldr         r3, [r5, #0x134]
  0002c	e3730001	 cmn         r3, #1
  00030	0a000013	 beq         |$LN9@SDHCDeinit|

; 2258 :         {
; 2259 :             // disable wakeup on SDIO interrupt
; 2260 :             if ( m_dwCurrentWakeupSources & WAKEUP_SDIO )

  00034	e59530ec	 ldr         r3, [r5, #0xEC]
  00038	e3130001	 tst         r3, #1

; 2261 :             {
; 2262 :                 KernelIoControl( IOCTL_HAL_DISABLE_WAKE,
; 2263 :                     &m_dwControllerSysIntr,
; 2264 :                     sizeof( m_dwControllerSysIntr ),
; 2265 :                     NULL,
; 2266 :                     0,
; 2267 :                     NULL );

  0003c	159f0150	 ldrne       r0, [pc, #0x150]
  00040	13a03000	 movne       r3, #0
  00044	13a02004	 movne       r2, #4
  00048	12851f4d	 addne       r1, r5, #0x4D, 30
  0004c	158d6004	 strne       r6, [sp, #4]
  00050	158d6000	 strne       r6, [sp]
  00054	1b000000	 blne        KernelIoControl

; 2268 :             }
; 2269 : 
; 2270 :             // disable controller interrupt
; 2271 :             InterruptDisable(m_dwControllerSysIntr);
; 2272 : 
; 2273 :             // release the SYSINTR value
; 2274 :             KernelIoControl(IOCTL_HAL_RELEASE_SYSINTR, &m_dwControllerSysIntr, sizeof(DWORD), NULL, 0, NULL);

  00058	e1a04005	 mov         r4, r5
  0005c	e5b40134	 ldr         r0, [r4, #0x134]!
  00060	eb000000	 bl          InterruptDisable
  00064	e59f0124	 ldr         r0, [pc, #0x124]
  00068	e3a03000	 mov         r3, #0
  0006c	e3a02004	 mov         r2, #4
  00070	e1a01004	 mov         r1, r4
  00074	e58d6004	 str         r6, [sp, #4]
  00078	e58d6000	 str         r6, [sp]
  0007c	eb000000	 bl          KernelIoControl

; 2275 :             m_dwControllerSysIntr = SYSINTR_UNDEFINED;

  00080	e5857134	 str         r7, [r5, #0x134]
  00084		 |$LN9@SDHCDeinit|

; 2276 :         }
; 2277 : 
; 2278 : 
; 2279 :         if (m_fCardPresent)

  00084	e59530f0	 ldr         r3, [r5, #0xF0]
  00088	e3530000	 cmp         r3, #0

; 2280 :         {
; 2281 :            // remove device
; 2282 :            HandleRemoval(FALSE);

  0008c	13a01000	 movne       r1, #0
  00090	11a00005	 movne       r0, r5
  00094	1b000000	 blne        |?HandleRemoval@CSDIOControllerBase@@QAAXH@Z|
  00098		 |$LN7@SDHCDeinit|

; 2283 :         }
; 2284 :     }
; 2285 : 
; 2286 :     // clean up controller IST
; 2287 :     if (NULL != m_htControllerIST)

  00098	e595311c	 ldr         r3, [r5, #0x11C]
  0009c	e3530000	 cmp         r3, #0
  000a0	0a000008	 beq         |$LN6@SDHCDeinit|

; 2288 :     {
; 2289 :         // wake up the IST
; 2290 :         SetEvent(m_hControllerISTEvent);

  000a4	e5950118	 ldr         r0, [r5, #0x118]
  000a8	e3a01003	 mov         r1, #3
  000ac	eb000000	 bl          EventModify

; 2291 :         // wait for the thread to exit
; 2292 :         WaitForSingleObject(m_htControllerIST, INFINITE);

