; Listing generated by Microsoft (R) Optimizing Compiler Version 14.01.60511.01 

	TTL	C:\WINCE600\PLATFORM\Z2170P\SRC\test\PMTEST\PMMON\mon.c
	CODE32

  00000			 AREA	 |.drectve|, DRECTVE
	DCB	"-defaultlib:LIBCMT "
	DCB	"-defaultlib:OLDNAMES "

	EXPORT	|ghPowerNotifications| [ DATA ]
	EXPORT	|ghDeviceNotifications| [ DATA ]
	EXPORT	|ghevTerminate| [ DATA ]

  00000			 AREA	 |.bss|, NOINIT
|ghPowerNotifications| % 0x4
|ghDeviceNotifications| % 0x4
|ghevTerminate| % 0x4
	EXPORT	|SetEvent|
	IMPORT	|EventModify|
; File c:\wince600\public\common\sdk\inc\kfuncs.h

  00000			 AREA	 |.pdata|, PDATA
|$T39456| DCD	|$LN5@SetEvent|
	DCD	0x40000501
; Function compile flags: /Ogspy

  00000			 AREA	 |.text|, CODE, ARM

  00000		 |SetEvent| PROC

; 235  : _inline BOOL SetEvent(HANDLE h) {

  00000		 |$LN5@SetEvent|
  00000	e52de004	 str         lr, [sp, #-4]!
  00004		 |$M39453|

; 236  : 	return EventModify(h,EVENT_SET);

  00004	e3a01003	 mov         r1, #3
  00008	eb000000	 bl          EventModify

; 237  : }

  0000c	e49de004	 ldr         lr, [sp], #4
  00010	e12fff1e	 bx          lr
  00014		 |$M39454|

			 ENDP  ; |SetEvent|

	EXPORT	|GetCurrentThread|

  00000			 AREA	 |.pdata|, PDATA
|$T39465| DCD	|$LN5@GetCurrent|
	DCD	0x40000200
; Function compile flags: /Ogspy

  00000			 AREA	 |.text|, CODE, ARM

  00000		 |GetCurrentThread| PROC

; 351  : _inline HANDLE GetCurrentThread(void) {

  00000		 |$LN5@GetCurrent|
  00000		 |$M39462|

; 352  : 	return ((HANDLE)(SH_CURTHREAD+SYS_HANDLE_BASE));

  00000	e3a00041	 mov         r0, #0x41

; 353  : }

  00004	e12fff1e	 bx          lr
  00008		 |$M39463|

			 ENDP  ; |GetCurrentThread|

	EXPORT	|ConvertStringToGuid|
	EXPORT	|??_C@_1GI@LBPPMOKF@?$AA?$HL?$AA?$CF?$AA0?$AA8?$AAl?$AAX?$AA?9?$AA?$CF?$AA0?$AA4?$AAX?$AA?9?$AA?$CF?$AA0?$AA4?$AAX?$AA?9?$AA?$CF?$AA0?$AA2?$AAX?$AA?$CF?$AA0?$AA2?$AAX?$AA?9?$AA?$CF?$AA0?$AA2?$AAX?$AA?$CF?$AA0@| [ DATA ] ; `string'
	IMPORT	|swscanf|
	IMPORT	|__C_specific_handler|
; File c:\wince600\platform\z2170p\src\test\pmtest\pmmon\mon.c

  00000			 AREA	 |.pdata|, PDATA
|$T39493| DCD	|$LN23@ConvertStr|
	DCD	0xc0003204

  00000			 AREA	 |.pdata|, PDATA
|$T39495| DCD	|$LN9@ConvertStr|
	DCD	0x40000602

  00000			 AREA	 |.xdata|, DATA
|$T39491| DCD	0x1
	DCD	|$LN13@ConvertStr|
	DCD	|$LN14@ConvertStr|
	DCD	|$LN9@ConvertStr|
	DCD	|$LN10@ConvertStr|

  00000			 AREA	 |.rdata|, DATA, READONLY
|??_C@_1GI@LBPPMOKF@?$AA?$HL?$AA?$CF?$AA0?$AA8?$AAl?$AAX?$AA?9?$AA?$CF?$AA0?$AA4?$AAX?$AA?9?$AA?$CF?$AA0?$AA4?$AAX?$AA?9?$AA?$CF?$AA0?$AA2?$AAX?$AA?$CF?$AA0?$AA2?$AAX?$AA?9?$AA?$CF?$AA0?$AA2?$AAX?$AA?$CF?$AA0@| DCB "{"
	DCB	0x0, "%", 0x0, "0", 0x0, "8", 0x0, "l", 0x0, "X", 0x0, "-"
	DCB	0x0, "%", 0x0, "0", 0x0, "4", 0x0, "X", 0x0, "-", 0x0, "%"
	DCB	0x0, "0", 0x0, "4", 0x0, "X", 0x0, "-", 0x0, "%", 0x0, "0"
	DCB	0x0, "2", 0x0, "X", 0x0, "%", 0x0, "0", 0x0, "2", 0x0, "X"
	DCB	0x0, "-", 0x0, "%", 0x0, "0", 0x0, "2", 0x0, "X", 0x0, "%"
	DCB	0x0, "0", 0x0, "2", 0x0, "X", 0x0, "%", 0x0, "0", 0x0, "2"
	DCB	0x0, "X", 0x0, "%", 0x0, "0", 0x0, "2", 0x0, "X", 0x0, "%"
	DCB	0x0, "0", 0x0, "2", 0x0, "X", 0x0, "%", 0x0, "0", 0x0, "2"
	DCB	0x0, "X", 0x0, "}", 0x0, 0x0, 0x0	; `string'
; Function compile flags: /Ogspy

  00000			 AREA	 |.text|, CODE, ARM

  00000	00000000	 DCD         |__C_specific_handler|
  00004	00000000	 DCD         |$T39491|

  00008		 |ConvertStringToGuid| PROC

; 277  : {

  00008		 |$LN23@ConvertStr|
  00008	e1a0c00d	 mov         r12, sp
  0000c	e92d5ff0	 stmdb       sp!, {r4 - r12, lr}
  00010	e28db028	 add         r11, sp, #0x28
  00014	e24dd050	 sub         sp, sp, #0x50
  00018		 |$LN21@ConvertStr|
  00018	e1a02001	 mov         r2, r1
  0001c	e50b2050	 str         r2, [r11, #-0x50]

; 278  : 	UINT Data4[8];
; 279  : 	int  Count;
; 280  : 	BOOL fOk = FALSE;

  00020	e3a03000	 mov         r3, #0
  00024	e50b3054	 str         r3, [r11, #-0x54]
  00028		 |$LN13@ConvertStr|

; 281  : 	TCHAR *pszGuidFormat = _T("{%08lX-%04X-%04X-%02X%02X-%02X%02X%02X%02X%02X%02X}");
; 282  : 
; 283  : 	ASSERT(pGuid != NULL && pszGuid != NULL);
; 284  : 	__try
; 285  : 	{
; 286  : 		if (_stscanf(pszGuid, pszGuidFormat, &pGuid->Data1, 
; 287  : 		    &pGuid->Data2, &pGuid->Data3, &Data4[0], &Data4[1], &Data4[2], &Data4[3], 
; 288  : 		    &Data4[4], &Data4[5], &Data4[6], &Data4[7]) == 11)

  00028	e59f10b4	 ldr         r1, [pc, #0xB4]
  0002c	e24be02c	 sub         lr, r11, #0x2C
  00030	e24b4030	 sub         r4, r11, #0x30
  00034	e24b5034	 sub         r5, r11, #0x34
  00038	e24b6038	 sub         r6, r11, #0x38
  0003c	e24b703c	 sub         r7, r11, #0x3C
  00040	e24b8040	 sub         r8, r11, #0x40
  00044	e24b9044	 sub         r9, r11, #0x44
  00048	e24ba048	 sub         r10, r11, #0x48
  0004c	e2823004	 add         r3, r2, #4
  00050	e58de020	 str         lr, [sp, #0x20]
  00054	e58d401c	 str         r4, [sp, #0x1C]
  00058	e58d5018	 str         r5, [sp, #0x18]
  0005c	e58d6014	 str         r6, [sp, #0x14]
  00060	e58d7010	 str         r7, [sp, #0x10]
  00064	e58d800c	 str         r8, [sp, #0xC]
  00068	e58d9008	 str         r9, [sp, #8]
  0006c	e58da004	 str         r10, [sp, #4]
  00070	e51b4050	 ldr         r4, [r11, #-0x50]
  00074	e284e006	 add         lr, r4, #6
  00078	e58de000	 str         lr, [sp]
  0007c	eb000000	 bl          swscanf
  00080	e350000b	 cmp         r0, #0xB
  00084	1a000008	 bne         |$LN1@ConvertStr|

; 289  : 		{
; 290  : 			for(Count = 0; Count < (sizeof(Data4) / sizeof(Data4[0])); Count++)

  00088	e3a01000	 mov         r1, #0
  0008c		 |$LN20@ConvertStr|
  0008c	e50b104c	 str         r1, [r11, #-0x4C]
  00090	e3510008	 cmp         r1, #8

; 291  : 			{
; 292  : 	        	        pGuid->Data4[Count] = (UCHAR) Data4[Count];

  00094	324b3048	 subcc       r3, r11, #0x48
  00098	37932101	 ldrcc       r2, [r3, +r1, lsl #2]
  0009c	30813004	 addcc       r3, r1, r4
  000a0	35c32008	 strccb      r2, [r3, #8]
  000a4	32811001	 addcc       r1, r1, #1

; 289  : 		{
; 290  : 			for(Count = 0; Count < (sizeof(Data4) / sizeof(Data4[0])); Count++)

  000a8	3afffff7	 bcc         |$LN20@ConvertStr|
  000ac		 |$LN1@ConvertStr|

; 293  : 			}
; 294  : 		}
; 295  : 		fOk = TRUE;

  000ac	e3a00001	 mov         r0, #1
  000b0	e50b0054	 str         r0, [r11, #-0x54]
  000b4		 |$LN14@ConvertStr|

; 296  : 	}

  000b4	ea000002	 b           |$LN6@ConvertStr|
  000b8		 |$LN10@ConvertStr|

; 297  : 	__except(EXCEPTION_EXECUTE_HANDLER)

  000b8	e51b0054	 ldr         r0, [r11, #-0x54]
  000bc	ea000000	 b           |$LN6@ConvertStr|
  000c0		 |$LN19@ConvertStr|

; 298  : 	{		
; 299  : 	}
; 300  : 
; 301  : 	return fOk;

  000c0	e51b0050	 ldr         r0, [r11, #-0x50]
  000c4		 |$LN6@ConvertStr|

; 302  : }

  000c4	e24bd028	 sub         sp, r11, #0x28
  000c8	e89d6ff0	 ldmia       sp, {r4 - r11, sp, lr}
  000cc	e12fff1e	 bx          lr

			 ENDP  ; |ConvertStringToGuid|

  000d0		 |$LN9@ConvertStr|
  000d0		 |$LN22@ConvertStr|

; 297  : 	__except(EXCEPTION_EXECUTE_HANDLER)

  000d0	e52de004	 str         lr, [sp, #-4]!
  000d4	e24dd024	 sub         sp, sp, #0x24
  000d8		 |$LN12@ConvertStr|
  000d8		 |$LN25@ConvertStr|
  000d8	e3a00001	 mov         r0, #1
  000dc		 |$LN11@ConvertStr|
  000dc	e28dd024	 add         sp, sp, #0x24
  000e0	e49df004	 ldr         pc, [sp], #4
  000e4		 |$LN27@ConvertStr|
  000e4		 |$LN28@ConvertStr|
  000e4	00000000	 DCD         |??_C@_1GI@LBPPMOKF@?$AA?$HL?$AA?$CF?$AA0?$AA8?$AAl?$AAX?$AA?9?$AA?$CF?$AA0?$AA4?$AAX?$AA?9?$AA?$CF?$AA0?$AA4?$AAX?$AA?9?$AA?$CF?$AA0?$AA2?$AAX?$AA?$CF?$AA0?$AA2?$AAX?$AA?9?$AA?$CF?$AA0?$AA2?$AAX?$AA?$CF?$AA0@|
  000e8		 |$LN26@ConvertStr|
  000e8		 |$LN24@ConvertStr|
	EXPORT	|__$ArrayPad$| [ DATA ]
	EXPORT	|RetailPrint|
	EXPORT	|??_C@_1BG@BNMMPDJD@?$AAP?$AAM?$AAG?$AAE?$AAT?$AAD?$AA?3?$AA?5?$AA?$CF?$AAs?$AA?$AA@| [ DATA ] ; `string'
	IMPORT	|NKDbgPrintfW|
	IMPORT	|vswprintf|
	IMPORT	|swprintf|
	IMPORT	|vwprintf|
	IMPORT	|__GSHandlerCheck|
	IMPORT	|__security_cookie|
	IMPORT	|__security_check_cookie|

  00000			 AREA	 |.pdata|, PDATA
|$T39514| DCD	|$LN5@RetailPrin|
	DCD	0xc0002905

  00000			 AREA	 |.xdata|, DATA
|$T39510| DCD	0xffffffe4

  00000			 AREA	 |.rdata|, DATA, READONLY
|??_C@_1BG@BNMMPDJD@?$AAP?$AAM?$AAG?$AAE?$AAT?$AAD?$AA?3?$AA?5?$AA?$CF?$AAs?$AA?$AA@| DCB "P"
	DCB	0x0, "M", 0x0, "G", 0x0, "E", 0x0, "T", 0x0, "D", 0x0, ":"
	DCB	0x0, " ", 0x0, "%", 0x0, "s", 0x0, 0x0, 0x0 ; `string'
; Function compile flags: /Ogspy

  00000			 AREA	 |.text|, CODE, ARM

  00000	00000000	 DCD         |__GSHandlerCheck|
  00004	00000000	 DCD         |$T39510|

  00008		 |RetailPrint| PROC

; 455  : {

  00008		 |$LN5@RetailPrin|
  00008	e1a0c00d	 mov         r12, sp
  0000c	e92d000f	 stmdb       sp!, {r0 - r3}
  00010	e92d5000	 stmdb       sp!, {r12, lr}
  00014	e59fc08c	 ldr         r12, [pc, #0x8C]
  00018	e08dd00c	 add         sp, sp, r12
  0001c		 |$M39511|
  0001c	e28dca02	 add         r12, sp, #2, 20
  00020	e58c000c	 str         r0, [r12, #0xC]
  00024	e59f3078	 ldr         r3, [pc, #0x78]
  00028	e5933000	 ldr         r3, [r3]
  0002c	e58c3000	 str         r3, [r12]

; 456  :     va_list al;
; 457  :     wchar_t szTemp[2048];
; 458  :     wchar_t szTempFormat[2048];
; 459  : 
; 460  :     va_start(al, pszFormat);
; 461  : 
; 462  :     // Show message on console
; 463  :     vwprintf(pszFormat, al);

  00030	e3a01a02	 mov         r1, #2, 20
  00034	e3811010	 orr         r1, r1, #0x10
  00038	e08d1001	 add         r1, sp, r1
  0003c	eb000000	 bl          vwprintf

; 464  : 
; 465  :     // Show message on RETAILMSG
; 466  :     swprintf(szTempFormat, L"PMGETD: %s", pszFormat);

  00040	e28d2a02	 add         r2, sp, #2, 20
  00044	e592200c	 ldr         r2, [r2, #0xC]
  00048	e59f1050	 ldr         r1, [pc, #0x50]
  0004c	e28d0000	 add         r0, sp, #0
  00050	eb000000	 bl          swprintf

; 467  :     pszFormat = szTempFormat;

  00054	e28d3000	 add         r3, sp, #0

; 468  :     vswprintf(szTemp, pszFormat, al);

  00058	e3a02a02	 mov         r2, #2, 20
  0005c	e3822010	 orr         r2, r2, #0x10
  00060	e08d2002	 add         r2, sp, r2
  00064	e28d1000	 add         r1, sp, #0
  00068	e28d0a01	 add         r0, sp, #1, 20
  0006c	e28dca02	 add         r12, sp, #2, 20
  00070	e58c300c	 str         r3, [r12, #0xC]
  00074	eb000000	 bl          vswprintf

; 469  :     RETAILMSG(1, (szTemp));

  00078	e28d0a01	 add         r0, sp, #1, 20
  0007c	eb000000	 bl          NKDbgPrintfW
  00080	e28d0a02	 add         r0, sp, #2, 20
  00084	e5900000	 ldr         r0, [r0]
  00088	eb000000	 bl          __security_check_cookie

; 470  : 
; 471  :     va_end(al);
; 472  : }

  0008c	e3a0ca02	 mov         r12, #2, 20
  00090	e38cc004	 orr         r12, r12, #4
  00094	e08dd00c	 add         sp, sp, r12
  00098	e89d6000	 ldmia       sp, {sp, lr}
  0009c	e12fff1e	 bx          lr
  000a0		 |$LN6@RetailPrin|
  000a0		 |$LN7@RetailPrin|
  000a0	00000000	 DCD         |??_C@_1BG@BNMMPDJD@?$AAP?$AAM?$AAG?$AAE?$AAT?$AAD?$AA?3?$AA?5?$AA?$CF?$AAs?$AA?$AA@|
  000a4		 |$LN8@RetailPrin|
  000a4	00000000	 DCD         |__security_cookie|
  000a8		 |$LN9@RetailPrin|
  000a8	ffffdffc	 DCD         0xffffdffc
  000ac		 |$M39512|

			 ENDP  ; |RetailPrint|

	EXPORT	|__$ArrayPad$| [ DATA ]
	EXPORT	|ProcessPowerNotification|
	EXPORT	|??_C@_1EM@MKLJPOCD@?$AA?$CF?$AAs?$AA?3?$AA?7?$AAR?$AAe?$AAc?$AAe?$AAi?$AAv?$AAe?$AAd?$AA?5?$AAs?$AAh?$AAo?$AAr?$AAt?$AA?5?$AAm?$AAe?$AAs?$AAs?$AAa?$AAg?$AAe?$AA?3?$AA?5?$AA?$CF?$AAd?$AA?5?$AAb@| [ DATA ] ; `string'
	EXPORT	|??_C@_1CG@KBMFGIAI@?$AA?$CF?$AAs?$AA?3?$AA?7?$AAM?$AAe?$AAs?$AAs?$AAa?$AAg?$AAe?$AA?3?$AA?5?$AA0?$AAx?$AA?$CF?$AAx?$AA?6?$AA?$AA@| [ DATA ] ; `string'
	EXPORT	|??_C@_1CC@CFBBJNOG@?$AA?$CF?$AAs?$AA?3?$AA?7?$AAF?$AAl?$AAa?$AAg?$AAs?$AA?3?$AA?5?$AA0?$AAx?$AA?$CF?$AAx?$AA?6?$AA?$AA@| [ DATA ] ; `string'
	EXPORT	|??_C@_1BO@MJJMHAKA@?$AA?$CF?$AAs?$AA?3?$AA?7?$AAd?$AAw?$AAL?$AAe?$AAn?$AA?3?$AA?5?$AA?$CF?$AAd?$AA?6?$AA?$AA@| [ DATA ] ; `string'
	EXPORT	|??_C@_1DI@BEAIENFP@?$AA?$CF?$AAs?$AA?3?$AA?$CK?$AA?$CK?$AA?$CK?$AA?$CK?$AA?$CK?$AA?$CK?$AA?$CK?$AA?$CK?$AA?$CK?$AA?$CK?$AA?$CK?$AA?$CK?$AA?$CK?$AA?$CK?$AA?$CK?$AA?$CK?$AA?$CK?$AA?$CK?$AA?$CK?$AA?$CK?$AA?$CK?$AA?$CK?$AA?$CK?$AA?6?$AA?$AA@| [ DATA ] ; `string'
	EXPORT	|??_C@_15JNBOKNOG@?$AA?$AN?$AA?6?$AA?$AA@| [ DATA ] ; `string'
	EXPORT	|??_C@_1BM@OOIHEHKG@?$AA?$CK?$AA?$CK?$AA?$CK?$AAU?$AAN?$AAK?$AAN?$AAO?$AAW?$AAN?$AA?$CK?$AA?$CK?$AA?$CK?$AA?$AA@| [ DATA ] ; `string'
	EXPORT	|??_C@_17GMPJMPF@?$AA?$CF?$AAs?$AA?5?$AA?$AA@| [ DATA ] ; `string'
	EXPORT	|??_C@_1GA@NPEILEGE@?$AA?$CF?$AAs?$AA?3?$AA?7?$AAP?$AAB?$AAT?$AA_?$AAT?$AAR?$AAA?$AAN?$AAS?$AAI?$AAT?$AAI?$AAO?$AAN?$AA?5?$AAt?$AAo?$AA?5?$AAs?$AAy?$AAs?$AAt?$AAe?$AAm?$AA?5?$AAp?$AAo?$AAw@| [ DATA ] ; `string'
	EXPORT	|??_C@_1BI@BMJNILDP@?$AA?$CF?$AAs?$AA?3?$AA?7?$AA0?$AAx?$AA?$CF?$AA0?$AA8?$AAx?$AA?5?$AA?$AA@| [ DATA ] ; `string'
	EXPORT	|??_C@_1BO@JPKIHCGK@?$AAP?$AAO?$AAW?$AAE?$AAR?$AA_?$AAS?$AAT?$AAA?$AAT?$AAE?$AA_?$AAO?$AAN?$AA?$AA@| [ DATA ] ; `string'
	EXPORT	|??_C@_1CA@HDDFIJBJ@?$AAP?$AAO?$AAW?$AAE?$AAR?$AA_?$AAS?$AAT?$AAA?$AAT?$AAE?$AA_?$AAO?$AAF?$AAF?$AA?$AA@| [ DATA ] ; `string'
	EXPORT	|??_C@_1CK@JGJNICCH@?$AAP?$AAO?$AAW?$AAE?$AAR?$AA_?$AAS?$AAT?$AAA?$AAT?$AAE?$AA_?$AAC?$AAR?$AAI?$AAT?$AAI?$AAC?$AAA?$AAL?$AA?$AA@| [ DATA ] ; `string'
	EXPORT	|??_C@_1CC@IGLFLIAP@?$AAP?$AAO?$AAW?$AAE?$AAR?$AA_?$AAS?$AAT?$AAA?$AAT?$AAE?$AA_?$AAB?$AAO?$AAO?$AAT?$AA?$AA@| [ DATA ] ; `string'
	EXPORT	|??_C@_1CC@ENAOBNPK@?$AAP?$AAO?$AAW?$AAE?$AAR?$AA_?$AAS?$AAT?$AAA?$AAT?$AAE?$AA_?$AAI?$AAD?$AAL?$AAE?$AA?$AA@| [ DATA ] ; `string'
	EXPORT	|??_C@_1CI@KCJPAJJK@?$AAP?$AAO?$AAW?$AAE?$AAR?$AA_?$AAS?$AAT?$AAA?$AAT?$AAE?$AA_?$AAS?$AAU?$AAS?$AAP?$AAE?$AAN?$AAD?$AA?$AA@| [ DATA ] ; `string'
	EXPORT	|??_C@_1CE@POOJLBFO@?$AAP?$AAO?$AAW?$AAE?$AAR?$AA_?$AAS?$AAT?$AAA?$AAT?$AAE?$AA_?$AAR?$AAE?$AAS?$AAE?$AAT?$AA?$AA@| [ DATA ] ; `string'
	EXPORT	|??_C@_1CK@HDHEHKIH@?$AAP?$AAO?$AAW?$AAE?$AAR?$AA_?$AAS?$AAT?$AAA?$AAT?$AAE?$AA_?$AAP?$AAA?$AAS?$AAS?$AAW?$AAO?$AAR?$AAD?$AA?$AA@| [ DATA ] ; `string'
	EXPORT	|??_C@_1CA@FIPDAOIH@?$AA?$CF?$AAs?$AA?3?$AA?7?$AAP?$AAB?$AAT?$AA_?$AAR?$AAE?$AAS?$AAU?$AAM?$AAE?$AA?6?$AA?$AA@| [ DATA ] ; `string'
	EXPORT	|??_C@_1DG@NJMACGGK@?$AA?$CF?$AAs?$AA?3?$AA?7?$AAP?$AAB?$AAT?$AA_?$AAP?$AAO?$AAW?$AAE?$AAR?$AAS?$AAT?$AAA?$AAT?$AAU?$AAS?$AAC?$AAH?$AAA?$AAN?$AAG?$AAE?$AA?6?$AA?$AA@| [ DATA ] ; `string'
	EXPORT	|??_C@_1DC@CHMNDBAH@?$AA?$CF?$AAs?$AA?3?$AA?7?$AAP?$AAB?$AAT?$AA_?$AAP?$AAO?$AAW?$AAE?$AAR?$AAI?$AAN?$AAF?$AAO?$AAC?$AAH?$AAA?$AAN?$AAG?$AAE?$AA?6?$AA?$AA@| [ DATA ] ; `string'
	EXPORT	|??_C@_1II@PHIIBGBK@?$AA?$CF?$AAs?$AA?3?$AA?7?$AA?7?$AAA?$AAC?$AA?5?$AAl?$AAi?$AAn?$AAe?$AA?5?$AAs?$AAt?$AAa?$AAt?$AAu?$AAs?$AA?5?$AA?$CF?$AAu?$AA?0?$AA?5?$AAb?$AAa?$AAt?$AAt?$AAe?$AAr?$AAy?$AA?5@| [ DATA ] ; `string'
	EXPORT	|??_C@_1EM@PNCGILHM@?$AA?$CF?$AAs?$AA?3?$AA?7?$AA?7?$AAb?$AAa?$AAt?$AAt?$AAe?$AAr?$AAy?$AA?5?$AAl?$AAi?$AAf?$AAe?$AA?5?$AA?$CF?$AAd?$AA?0?$AA?5?$AAb?$AAa?$AAc?$AAk?$AAu?$AAp?$AA?5?$AAl?$AAi?$AAf@| [ DATA ] ; `string'
	EXPORT	|??_C@_1FI@IAMLNJDP@?$AA?$CF?$AAs?$AA?3?$AA?7?$AA?7?$AAl?$AAi?$AAf?$AAe?$AAt?$AAi?$AAm?$AAe?$AA?5?$AA0?$AAx?$AA?$CF?$AA0?$AA8?$AAx?$AA?0?$AA?5?$AAf?$AAu?$AAl?$AAl?$AA?5?$AAl?$AAi?$AAf?$AAe?$AAt@| [ DATA ] ; `string'
	EXPORT	|??_C@_1HE@BCAILMHM@?$AA?$CF?$AAs?$AA?3?$AA?7?$AA?7?$AAb?$AAa?$AAc?$AAk?$AAu?$AAp?$AA?5?$AAl?$AAi?$AAf?$AAe?$AAt?$AAi?$AAm?$AAe?$AA?5?$AA0?$AAx?$AA?$CF?$AA0?$AA8?$AAx?$AA?0?$AA?5?$AAb?$AAa?$AAc@| [ DATA ] ; `string'
	EXPORT	|??_C@_1DA@HBICEGPJ@?$AA?$CF?$AAs?$AA?3?$AA?7?$AAU?$AAn?$AAk?$AAn?$AAo?$AAw?$AAn?$AA?5?$AAM?$AAe?$AAs?$AAs?$AAa?$AAg?$AAe?$AA?3?$AA?$CF?$AAd?$AA?6?$AA?$AA@| [ DATA ] ; `string'
	EXPORT	|??_C@_1GG@NADFGJIM@?$AA?$CF?$AAs?$AA?3?$AA?5?$AA?$CK?$AA?$CK?$AA?$CK?$AA?5?$AAP?$AAo?$AAw?$AAe?$AAr?$AA?5?$AAN?$AAo?$AAt?$AAi?$AAf?$AAi?$AAc?$AAa?$AAt?$AAi?$AAo?$AAn?$AA?5?$AA?$EA?$AA?5?$AAT?$AAi?$AAc@| [ DATA ] ; `string'
	EXPORT	|??_C@_1DO@LAAJEGMF@?$AAP?$AAM?$AAM?$AAO?$AAN?$AA?$CB?$AAP?$AAr?$AAo?$AAc?$AAe?$AAs?$AAs?$AAP?$AAo?$AAw?$AAe?$AAr?$AAN?$AAo?$AAt?$AAi?$AAf?$AAi?$AAc?$AAa?$AAt?$AAi?$AAo?$AAn?$AA?$AA@| [ DATA ] ; `string'
	EXPORT	|??_C@_1DI@PLPNIFHE@?$AA?$CF?$AAs?$AA?3?$AA?5?$AAR?$AAe?$AAa?$AAd?$AAM?$AAs?$AAg?$AAQ?$AAu?$AAe?$AAu?$AAe?$AA?3?$AA?5?$AAE?$AAR?$AAR?$AAO?$AAR?$AA?3?$AA?$CF?$AAd?$AA?6?$AA?$AA@| [ DATA ] ; `string'
	IMPORT	|GetTickCount|
	IMPORT	|GetLastError|
	IMPORT	|ReadMsgQueue|
	IMPORT	|memset|

  00000			 AREA	 |.pdata|, PDATA
|$T39541| DCD	|$LN25@ProcessPow|
	DCD	0xc000c802

  00000			 AREA	 |.xdata|, DATA
|$T39537| DCD	0xffffffd8

  00000			 AREA	 |.rdata|, DATA, READONLY
|??_C@_1EM@MKLJPOCD@?$AA?$CF?$AAs?$AA?3?$AA?7?$AAR?$AAe?$AAc?$AAe?$AAi?$AAv?$AAe?$AAd?$AA?5?$AAs?$AAh?$AAo?$AAr?$AAt?$AA?5?$AAm?$AAe?$AAs?$AAs?$AAa?$AAg?$AAe?$AA?3?$AA?5?$AA?$CF?$AAd?$AA?5?$AAb@| DCB "%"
	DCB	0x0, "s", 0x0, ":", 0x0, 0x9, 0x0, "R", 0x0, "e", 0x0, "c"
	DCB	0x0, "e", 0x0, "i", 0x0, "v", 0x0, "e", 0x0, "d", 0x0, " "
	DCB	0x0, "s", 0x0, "h", 0x0, "o", 0x0, "r", 0x0, "t", 0x0, " "
	DCB	0x0, "m", 0x0, "e", 0x0, "s", 0x0, "s", 0x0, "a", 0x0, "g"
	DCB	0x0, "e", 0x0, ":", 0x0, " ", 0x0, "%", 0x0, "d", 0x0, " "
	DCB	0x0, "b", 0x0, "y", 0x0, "t", 0x0, "e", 0x0, "s", 0x0, 0xa
	DCB	0x0, 0x0, 0x0				; `string'

  00000			 AREA	 |.rdata|, DATA, READONLY
|??_C@_1CG@KBMFGIAI@?$AA?$CF?$AAs?$AA?3?$AA?7?$AAM?$AAe?$AAs?$AAs?$AAa?$AAg?$AAe?$AA?3?$AA?5?$AA0?$AAx?$AA?$CF?$AAx?$AA?6?$AA?$AA@| DCB "%"
	DCB	0x0, "s", 0x0, ":", 0x0, 0x9, 0x0, "M", 0x0, "e", 0x0, "s"
	DCB	0x0, "s", 0x0, "a", 0x0, "g", 0x0, "e", 0x0, ":", 0x0, " "
	DCB	0x0, "0", 0x0, "x", 0x0, "%", 0x0, "x", 0x0, 0xa, 0x0, 0x0
	DCB	0x0					; `string'

  00000			 AREA	 |.rdata|, DATA, READONLY
|??_C@_1CC@CFBBJNOG@?$AA?$CF?$AAs?$AA?3?$AA?7?$AAF?$AAl?$AAa?$AAg?$AAs?$AA?3?$AA?5?$AA0?$AAx?$AA?$CF?$AAx?$AA?6?$AA?$AA@| DCB "%"
	DCB	0x0, "s", 0x0, ":", 0x0, 0x9, 0x0, "F", 0x0, "l", 0x0, "a"
	DCB	0x0, "g", 0x0, "s", 0x0, ":", 0x0, " ", 0x0, "0", 0x0, "x"
	DCB	0x0, "%", 0x0, "x", 0x0, 0xa, 0x0, 0x0, 0x0 ; `string'

  00000			 AREA	 |.rdata|, DATA, READONLY
|??_C@_1BO@MJJMHAKA@?$AA?$CF?$AAs?$AA?3?$AA?7?$AAd?$AAw?$AAL?$AAe?$AAn?$AA?3?$AA?5?$AA?$CF?$AAd?$AA?6?$AA?$AA@| DCB "%"
	DCB	0x0, "s", 0x0, ":", 0x0, 0x9, 0x0, "d", 0x0, "w", 0x0, "L"
	DCB	0x0, "e", 0x0, "n", 0x0, ":", 0x0, " ", 0x0, "%", 0x0, "d"
	DCB	0x0, 0xa, 0x0, 0x0, 0x0			; `string'

  00000			 AREA	 |.rdata|, DATA, READONLY
|??_C@_1DI@BEAIENFP@?$AA?$CF?$AAs?$AA?3?$AA?$CK?$AA?$CK?$AA?$CK?$AA?$CK?$AA?$CK?$AA?$CK?$AA?$CK?$AA?$CK?$AA?$CK?$AA?$CK?$AA?$CK?$AA?$CK?$AA?$CK?$AA?$CK?$AA?$CK?$AA?$CK?$AA?$CK?$AA?$CK?$AA?$CK?$AA?$CK?$AA?$CK?$AA?$CK?$AA?$CK?$AA?6?$AA?$AA@| DCB "%"
	DCB	0x0, "s", 0x0, ":", 0x0, "*", 0x0, "*", 0x0, "*", 0x0, "*"
	DCB	0x0, "*", 0x0, "*", 0x0, "*", 0x0, "*", 0x0, "*", 0x0, "*"
	DCB	0x0, "*", 0x0, "*", 0x0, "*", 0x0, "*", 0x0, "*", 0x0, "*"
	DCB	0x0, "*", 0x0, "*", 0x0, "*", 0x0, "*", 0x0, "*", 0x0, "*"
	DCB	0x0, "*", 0x0, 0xa, 0x0, 0x0, 0x0	; `string'

  00000			 AREA	 |.rdata|, DATA, READONLY
|??_C@_15JNBOKNOG@?$AA?$AN?$AA?6?$AA?$AA@| DCB 0xd, 0x0, 0xa, 0x0, 0x0, 0x0 ; `string'

  00000			 AREA	 |.rdata|, DATA, READONLY
|??_C@_1BM@OOIHEHKG@?$AA?$CK?$AA?$CK?$AA?$CK?$AAU?$AAN?$AAK?$AAN?$AAO?$AAW?$AAN?$AA?$CK?$AA?$CK?$AA?$CK?$AA?$AA@| DCB "*"
	DCB	0x0, "*", 0x0, "*", 0x0, "U", 0x0, "N", 0x0, "K", 0x0, "N"
	DCB	0x0, "O", 0x0, "W", 0x0, "N", 0x0, "*", 0x0, "*", 0x0, "*"
	DCB	0x0, 0x0, 0x0				; `string'

  00000			 AREA	 |.rdata|, DATA, READONLY
|??_C@_17GMPJMPF@?$AA?$CF?$AAs?$AA?5?$AA?$AA@| DCB "%", 0x0, "s", 0x0, " "
	DCB	0x0, 0x0, 0x0				; `string'

  00000			 AREA	 |.rdata|, DATA, READONLY
|??_C@_1GA@NPEILEGE@?$AA?$CF?$AAs?$AA?3?$AA?7?$AAP?$AAB?$AAT?$AA_?$AAT?$AAR?$AAA?$AAN?$AAS?$AAI?$AAT?$AAI?$AAO?$AAN?$AA?5?$AAt?$AAo?$AA?5?$AAs?$AAy?$AAs?$AAt?$AAe?$AAm?$AA?5?$AAp?$AAo?$AAw@| DCB "%"
	DCB	0x0, "s", 0x0, ":", 0x0, 0x9, 0x0, "P", 0x0, "B", 0x0, "T"
	DCB	0x0, "_", 0x0, "T", 0x0, "R", 0x0, "A", 0x0, "N", 0x0, "S"
	DCB	0x0, "I", 0x0, "T", 0x0, "I", 0x0, "O", 0x0, "N", 0x0, " "
	DCB	0x0, "t", 0x0, "o", 0x0, " ", 0x0, "s", 0x0, "y", 0x0, "s"
	DCB	0x0, "t", 0x0, "e", 0x0, "m", 0x0, " ", 0x0, "p", 0x0, "o"
	DCB	0x0, "w", 0x0, "e", 0x0, "r", 0x0, " ", 0x0, "s", 0x0, "t"
	DCB	0x0, "a", 0x0, "t", 0x0, "e", 0x0, ":", 0x0, " ", 0x0, "'"
	DCB	0x0, "%", 0x0, "s", 0x0, "'", 0x0, 0xa, 0x0, 0x0, 0x0 ; `string'

  00000			 AREA	 |.rdata|, DATA, READONLY
|??_C@_1BI@BMJNILDP@?$AA?$CF?$AAs?$AA?3?$AA?7?$AA0?$AAx?$AA?$CF?$AA0?$AA8?$AAx?$AA?5?$AA?$AA@| DCB "%"
	DCB	0x0, "s", 0x0, ":", 0x0, 0x9, 0x0, "0", 0x0, "x", 0x0, "%"
	DCB	0x0, "0", 0x0, "8", 0x0, "x", 0x0, " ", 0x0, 0x0, 0x0 ; `string'

  00000			 AREA	 |.rdata|, DATA, READONLY
|??_C@_1BO@JPKIHCGK@?$AAP?$AAO?$AAW?$AAE?$AAR?$AA_?$AAS?$AAT?$AAA?$AAT?$AAE?$AA_?$AAO?$AAN?$AA?$AA@| DCB "P"
	DCB	0x0, "O", 0x0, "W", 0x0, "E", 0x0, "R", 0x0, "_", 0x0, "S"
	DCB	0x0, "T", 0x0, "A", 0x0, "T", 0x0, "E", 0x0, "_", 0x0, "O"
	DCB	0x0, "N", 0x0, 0x0, 0x0			; `string'

  00000			 AREA	 |.rdata|, DATA, READONLY
|??_C@_1CA@HDDFIJBJ@?$AAP?$AAO?$AAW?$AAE?$AAR?$AA_?$AAS?$AAT?$AAA?$AAT?$AAE?$AA_?$AAO?$AAF?$AAF?$AA?$AA@| DCB "P"
	DCB	0x0, "O", 0x0, "W", 0x0, "E", 0x0, "R", 0x0, "_", 0x0, "S"
	DCB	0x0, "T", 0x0, "A", 0x0, "T", 0x0, "E", 0x0, "_", 0x0, "O"
	DCB	0x0, "F", 0x0, "F", 0x0, 0x0, 0x0	; `string'

  00000			 AREA	 |.rdata|, DATA, READONLY
|??_C@_1CK@JGJNICCH@?$AAP?$AAO?$AAW?$AAE?$AAR?$AA_?$AAS?$AAT?$AAA?$AAT?$AAE?$AA_?$AAC?$AAR?$AAI?$AAT?$AAI?$AAC?$AAA?$AAL?$AA?$AA@| DCB "P"
	DCB	0x0, "O", 0x0, "W", 0x0, "E", 0x0, "R", 0x0, "_", 0x0, "S"
	DCB	0x0, "T", 0x0, "A", 0x0, "T", 0x0, "E", 0x0, "_", 0x0, "C"
	DCB	0x0, "R", 0x0, "I", 0x0, "T", 0x0, "I", 0x0, "C", 0x0, "A"
	DCB	0x0, "L", 0x0, 0x0, 0x0			; `string'

  00000			 AREA	 |.rdata|, DATA, READONLY
|??_C@_1CC@IGLFLIAP@?$AAP?$AAO?$AAW?$AAE?$AAR?$AA_?$AAS?$AAT?$AAA?$AAT?$AAE?$AA_?$AAB?$AAO?$AAO?$AAT?$AA?$AA@| DCB "P"
	DCB	0x0, "O", 0x0, "W", 0x0, "E", 0x0, "R", 0x0, "_", 0x0, "S"
	DCB	0x0, "T", 0x0, "A", 0x0, "T", 0x0, "E", 0x0, "_", 0x0, "B"
	DCB	0x0, "O", 0x0, "O", 0x0, "T", 0x0, 0x0, 0x0 ; `string'

  00000			 AREA	 |.rdata|, DATA, READONLY
|??_C@_1CC@ENAOBNPK@?$AAP?$AAO?$AAW?$AAE?$AAR?$AA_?$AAS?$AAT?$AAA?$AAT?$AAE?$AA_?$AAI?$AAD?$AAL?$AAE?$AA?$AA@| DCB "P"
	DCB	0x0, "O", 0x0, "W", 0x0, "E", 0x0, "R", 0x0, "_", 0x0, "S"
	DCB	0x0, "T", 0x0, "A", 0x0, "T", 0x0, "E", 0x0, "_", 0x0, "I"
	DCB	0x0, "D", 0x0, "L", 0x0, "E", 0x0, 0x0, 0x0 ; `string'

  00000			 AREA	 |.rdata|, DATA, READONLY
|??_C@_1CI@KCJPAJJK@?$AAP?$AAO?$AAW?$AAE?$AAR?$AA_?$AAS?$AAT?$AAA?$AAT?$AAE?$AA_?$AAS?$AAU?$AAS?$AAP?$AAE?$AAN?$AAD?$AA?$AA@| DCB "P"
	DCB	0x0, "O", 0x0, "W", 0x0, "E", 0x0, "R", 0x0, "_", 0x0, "S"
	DCB	0x0, "T", 0x0, "A", 0x0, "T", 0x0, "E", 0x0, "_", 0x0, "S"
	DCB	0x0, "U", 0x0, "S", 0x0, "P", 0x0, "E", 0x0, "N", 0x0, "D"
	DCB	0x0, 0x0, 0x0				; `string'

  00000			 AREA	 |.rdata|, DATA, READONLY
|??_C@_1CE@POOJLBFO@?$AAP?$AAO?$AAW?$AAE?$AAR?$AA_?$AAS?$AAT?$AAA?$AAT?$AAE?$AA_?$AAR?$AAE?$AAS?$AAE?$AAT?$AA?$AA@| DCB "P"
	DCB	0x0, "O", 0x0, "W", 0x0, "E", 0x0, "R", 0x0, "_", 0x0, "S"
	DCB	0x0, "T", 0x0, "A", 0x0, "T", 0x0, "E", 0x0, "_", 0x0, "R"
	DCB	0x0, "E", 0x0, "S", 0x0, "E", 0x0, "T", 0x0, 0x0, 0x0 ; `string'

  00000			 AREA	 |.rdata|, DATA, READONLY
|??_C@_1CK@HDHEHKIH@?$AAP?$AAO?$AAW?$AAE?$AAR?$AA_?$AAS?$AAT?$AAA?$AAT?$AAE?$AA_?$AAP?$AAA?$AAS?$AAS?$AAW?$AAO?$AAR?$AAD?$AA?$AA@| DCB "P"
	DCB	0x0, "O", 0x0, "W", 0x0, "E", 0x0, "R", 0x0, "_", 0x0, "S"
	DCB	0x0, "T", 0x0, "A", 0x0, "T", 0x0, "E", 0x0, "_", 0x0, "P"
	DCB	0x0, "A", 0x0, "S", 0x0, "S", 0x0, "W", 0x0, "O", 0x0, "R"
	DCB	0x0, "D", 0x0, 0x0, 0x0			; `string'

  00000			 AREA	 |.rdata|, DATA, READONLY
|??_C@_1CA@FIPDAOIH@?$AA?$CF?$AAs?$AA?3?$AA?7?$AAP?$AAB?$AAT?$AA_?$AAR?$AAE?$AAS?$AAU?$AAM?$AAE?$AA?6?$AA?$AA@| DCB "%"
	DCB	0x0, "s", 0x0, ":", 0x0, 0x9, 0x0, "P", 0x0, "B", 0x0, "T"
	DCB	0x0, "_", 0x0, "R", 0x0, "E", 0x0, "S", 0x0, "U", 0x0, "M"
	DCB	0x0, "E", 0x0, 0xa, 0x0, 0x0, 0x0	; `string'

  00000			 AREA	 |.rdata|, DATA, READONLY
|??_C@_1DG@NJMACGGK@?$AA?$CF?$AAs?$AA?3?$AA?7?$AAP?$AAB?$AAT?$AA_?$AAP?$AAO?$AAW?$AAE?$AAR?$AAS?$AAT?$AAA?$AAT?$AAU?$AAS?$AAC?$AAH?$AAA?$AAN?$AAG?$AAE?$AA?6?$AA?$AA@| DCB "%"
	DCB	0x0, "s", 0x0, ":", 0x0, 0x9, 0x0, "P", 0x0, "B", 0x0, "T"
	DCB	0x0, "_", 0x0, "P", 0x0, "O", 0x0, "W", 0x0, "E", 0x0, "R"
	DCB	0x0, "S", 0x0, "T", 0x0, "A", 0x0, "T", 0x0, "U", 0x0, "S"
	DCB	0x0, "C", 0x0, "H", 0x0, "A", 0x0, "N", 0x0, "G", 0x0, "E"
	DCB	0x0, 0xa, 0x0, 0x0, 0x0			; `string'

  00000			 AREA	 |.rdata|, DATA, READONLY
|??_C@_1DC@CHMNDBAH@?$AA?$CF?$AAs?$AA?3?$AA?7?$AAP?$AAB?$AAT?$AA_?$AAP?$AAO?$AAW?$AAE?$AAR?$AAI?$AAN?$AAF?$AAO?$AAC?$AAH?$AAA?$AAN?$AAG?$AAE?$AA?6?$AA?$AA@| DCB "%"
	DCB	0x0, "s", 0x0, ":", 0x0, 0x9, 0x0, "P", 0x0, "B", 0x0, "T"
	DCB	0x0, "_", 0x0, "P", 0x0, "O", 0x0, "W", 0x0, "E", 0x0, "R"
	DCB	0x0, "I", 0x0, "N", 0x0, "F", 0x0, "O", 0x0, "C", 0x0, "H"
	DCB	0x0, "A", 0x0, "N", 0x0, "G", 0x0, "E", 0x0, 0xa, 0x0, 0x0
	DCB	0x0					; `string'

  00000			 AREA	 |.rdata|, DATA, READONLY
|??_C@_1II@PHIIBGBK@?$AA?$CF?$AAs?$AA?3?$AA?7?$AA?7?$AAA?$AAC?$AA?5?$AAl?$AAi?$AAn?$AAe?$AA?5?$AAs?$AAt?$AAa?$AAt?$AAu?$AAs?$AA?5?$AA?$CF?$AAu?$AA?0?$AA?5?$AAb?$AAa?$AAt?$AAt?$AAe?$AAr?$AAy?$AA?5@| DCB "%"
	DCB	0x0, "s", 0x0, ":", 0x0, 0x9, 0x0, 0x9, 0x0, "A", 0x0, "C"
	DCB	0x0, " ", 0x0, "l", 0x0, "i", 0x0, "n", 0x0, "e", 0x0, " "
	DCB	0x0, "s", 0x0, "t", 0x0, "a", 0x0, "t", 0x0, "u", 0x0, "s"
	DCB	0x0, " ", 0x0, "%", 0x0, "u", 0x0, ",", 0x0, " ", 0x0, "b"
	DCB	0x0, "a", 0x0, "t", 0x0, "t", 0x0, "e", 0x0, "r", 0x0, "y"
	DCB	0x0, " ", 0x0, "f", 0x0, "l", 0x0, "a", 0x0, "g", 0x0, " "
	DCB	0x0, "%", 0x0, "u", 0x0, ",", 0x0, " ", 0x0, "b", 0x0, "a"
	DCB	0x0, "c", 0x0, "k", 0x0, "u", 0x0, "p", 0x0, " ", 0x0, "f"
	DCB	0x0, "l", 0x0, "a", 0x0, "g", 0x0, " ", 0x0, "%", 0x0, "u"
	DCB	0x0, ",", 0x0, " ", 0x0, "%", 0x0, "d", 0x0, " ", 0x0, "l"
	DCB	0x0, "e", 0x0, "v", 0x0, "e", 0x0, "l", 0x0, "s", 0x0, 0xa
	DCB	0x0, 0x0, 0x0				; `string'

  00000			 AREA	 |.rdata|, DATA, READONLY
|??_C@_1EM@PNCGILHM@?$AA?$CF?$AAs?$AA?3?$AA?7?$AA?7?$AAb?$AAa?$AAt?$AAt?$AAe?$AAr?$AAy?$AA?5?$AAl?$AAi?$AAf?$AAe?$AA?5?$AA?$CF?$AAd?$AA?0?$AA?5?$AAb?$AAa?$AAc?$AAk?$AAu?$AAp?$AA?5?$AAl?$AAi?$AAf@| DCB "%"
	DCB	0x0, "s", 0x0, ":", 0x0, 0x9, 0x0, 0x9, 0x0, "b", 0x0, "a"
	DCB	0x0, "t", 0x0, "t", 0x0, "e", 0x0, "r", 0x0, "y", 0x0, " "
	DCB	0x0, "l", 0x0, "i", 0x0, "f", 0x0, "e", 0x0, " ", 0x0, "%"
	DCB	0x0, "d", 0x0, ",", 0x0, " ", 0x0, "b", 0x0, "a", 0x0, "c"
	DCB	0x0, "k", 0x0, "u", 0x0, "p", 0x0, " ", 0x0, "l", 0x0, "i"
	DCB	0x0, "f", 0x0, "e", 0x0, " ", 0x0, "%", 0x0, "d", 0x0, 0xa
	DCB	0x0, 0x0, 0x0				; `string'

  00000			 AREA	 |.rdata|, DATA, READONLY
|??_C@_1FI@IAMLNJDP@?$AA?$CF?$AAs?$AA?3?$AA?7?$AA?7?$AAl?$AAi?$AAf?$AAe?$AAt?$AAi?$AAm?$AAe?$AA?5?$AA0?$AAx?$AA?$CF?$AA0?$AA8?$AAx?$AA?0?$AA?5?$AAf?$AAu?$AAl?$AAl?$AA?5?$AAl?$AAi?$AAf?$AAe?$AAt@| DCB "%"
	DCB	0x0, "s", 0x0, ":", 0x0, 0x9, 0x0, 0x9, 0x0, "l", 0x0, "i"
	DCB	0x0, "f", 0x0, "e", 0x0, "t", 0x0, "i", 0x0, "m", 0x0, "e"
	DCB	0x0, " ", 0x0, "0", 0x0, "x", 0x0, "%", 0x0, "0", 0x0, "8"
	DCB	0x0, "x", 0x0, ",", 0x0, " ", 0x0, "f", 0x0, "u", 0x0, "l"
	DCB	0x0, "l", 0x0, " ", 0x0, "l", 0x0, "i", 0x0, "f", 0x0, "e"
	DCB	0x0, "t", 0x0, "i", 0x0, "m", 0x0, "e", 0x0, " ", 0x0, "0"
	DCB	0x0, "x", 0x0, "%", 0x0, "0", 0x0, "8", 0x0, "x", 0x0, 0xa
	DCB	0x0, 0x0, 0x0				; `string'

  00000			 AREA	 |.rdata|, DATA, READONLY
|??_C@_1HE@BCAILMHM@?$AA?$CF?$AAs?$AA?3?$AA?7?$AA?7?$AAb?$AAa?$AAc?$AAk?$AAu?$AAp?$AA?5?$AAl?$AAi?$AAf?$AAe?$AAt?$AAi?$AAm?$AAe?$AA?5?$AA0?$AAx?$AA?$CF?$AA0?$AA8?$AAx?$AA?0?$AA?5?$AAb?$AAa?$AAc@| DCB "%"
	DCB	0x0, "s", 0x0, ":", 0x0, 0x9, 0x0, 0x9, 0x0, "b", 0x0, "a"
	DCB	0x0, "c", 0x0, "k", 0x0, "u", 0x0, "p", 0x0, " ", 0x0, "l"
	DCB	0x0, "i", 0x0, "f", 0x0, "e", 0x0, "t", 0x0, "i", 0x0, "m"
	DCB	0x0, "e", 0x0, " ", 0x0, "0", 0x0, "x", 0x0, "%", 0x0, "0"
	DCB	0x0, "8", 0x0, "x", 0x0, ",", 0x0, " ", 0x0, "b", 0x0, "a"
	DCB	0x0, "c", 0x0, "k", 0x0, "u", 0x0, "p", 0x0, " ", 0x0, "f"
	DCB	0x0, "u", 0x0, "l", 0x0, "l", 0x0, " ", 0x0, "l", 0x0, "i"
	DCB	0x0, "f", 0x0, "e", 0x0, "t", 0x0, "i", 0x0, "m", 0x0, "e"
	DCB	0x0, " ", 0x0, "0", 0x0, "x", 0x0, "%", 0x0, "0", 0x0, "8"
	DCB	0x0, "x", 0x0, 0xa, 0x0, 0x0, 0x0	; `string'

  00000			 AREA	 |.rdata|, DATA, READONLY
|??_C@_1DA@HBICEGPJ@?$AA?$CF?$AAs?$AA?3?$AA?7?$AAU?$AAn?$AAk?$AAn?$AAo?$AAw?$AAn?$AA?5?$AAM?$AAe?$AAs?$AAs?$AAa?$AAg?$AAe?$AA?3?$AA?$CF?$AAd?$AA?6?$AA?$AA@| DCB "%"
	DCB	0x0, "s", 0x0, ":", 0x0, 0x9, 0x0, "U", 0x0, "n", 0x0, "k"
	DCB	0x0, "n", 0x0, "o", 0x0, "w", 0x0, "n", 0x0, " ", 0x0, "M"
	DCB	0x0, "e", 0x0, "s", 0x0, "s", 0x0, "a", 0x0, "g", 0x0, "e"
	DCB	0x0, ":", 0x0, "%", 0x0, "d", 0x0, 0xa, 0x0, 0x0, 0x0 ; `string'

  00000			 AREA	 |.rdata|, DATA, READONLY
|??_C@_1GG@NADFGJIM@?$AA?$CF?$AAs?$AA?3?$AA?5?$AA?$CK?$AA?$CK?$AA?$CK?$AA?5?$AAP?$AAo?$AAw?$AAe?$AAr?$AA?5?$AAN?$AAo?$AAt?$AAi?$AAf?$AAi?$AAc?$AAa?$AAt?$AAi?$AAo?$AAn?$AA?5?$AA?$EA?$AA?5?$AAT?$AAi?$AAc@| DCB "%"
	DCB	0x0, "s", 0x0, ":", 0x0, " ", 0x0, "*", 0x0, "*", 0x0, "*"
	DCB	0x0, " ", 0x0, "P", 0x0, "o", 0x0, "w", 0x0, "e", 0x0, "r"
	DCB	0x0, " ", 0x0, "N", 0x0, "o", 0x0, "t", 0x0, "i", 0x0, "f"
	DCB	0x0, "i", 0x0, "c", 0x0, "a", 0x0, "t", 0x0, "i", 0x0, "o"
	DCB	0x0, "n", 0x0, " ", 0x0, "@", 0x0, " ", 0x0, "T", 0x0, "i"
	DCB	0x0, "c", 0x0, "k", 0x0, ":", 0x0, "%", 0x0, "u", 0x0, ","
	DCB	0x0, " ", 0x0, "C", 0x0, "o", 0x0, "u", 0x0, "n", 0x0, "t"
	DCB	0x0, ":", 0x0, "%", 0x0, "d", 0x0, "*", 0x0, "*", 0x0, "*"
	DCB	0x0, 0xa, 0x0, 0x0, 0x0			; `string'

  00000			 AREA	 |.rdata|, DATA, READONLY
|??_C@_1DO@LAAJEGMF@?$AAP?$AAM?$AAM?$AAO?$AAN?$AA?$CB?$AAP?$AAr?$AAo?$AAc?$AAe?$AAs?$AAs?$AAP?$AAo?$AAw?$AAe?$AAr?$AAN?$AAo?$AAt?$AAi?$AAf?$AAi?$AAc?$AAa?$AAt?$AAi?$AAo?$AAn?$AA?$AA@| DCB "P"
	DCB	0x0, "M", 0x0, "M", 0x0, "O", 0x0, "N", 0x0, "!", 0x0, "P"
	DCB	0x0, "r", 0x0, "o", 0x0, "c", 0x0, "e", 0x0, "s", 0x0, "s"
	DCB	0x0, "P", 0x0, "o", 0x0, "w", 0x0, "e", 0x0, "r", 0x0, "N"
	DCB	0x0, "o", 0x0, "t", 0x0, "i", 0x0, "f", 0x0, "i", 0x0, "c"
	DCB	0x0, "a", 0x0, "t", 0x0, "i", 0x0, "o", 0x0, "n", 0x0, 0x0
	DCB	0x0					; `string'

  00000			 AREA	 |.rdata|, DATA, READONLY
|??_C@_1DI@PLPNIFHE@?$AA?$CF?$AAs?$AA?3?$AA?5?$AAR?$AAe?$AAa?$AAd?$AAM?$AAs?$AAg?$AAQ?$AAu?$AAe?$AAu?$AAe?$AA?3?$AA?5?$AAE?$AAR?$AAR?$AAO?$AAR?$AA?3?$AA?$CF?$AAd?$AA?6?$AA?$AA@| DCB "%"
	DCB	0x0, "s", 0x0, ":", 0x0, " ", 0x0, "R", 0x0, "e", 0x0, "a"
	DCB	0x0, "d", 0x0, "M", 0x0, "s", 0x0, "g", 0x0, "Q", 0x0, "u"
	DCB	0x0, "e", 0x0, "u", 0x0, "e", 0x0, ":", 0x0, " ", 0x0, "E"
	DCB	0x0, "R", 0x0, "R", 0x0, "O", 0x0, "R", 0x0, ":", 0x0, "%"
	DCB	0x0, "d", 0x0, 0xa, 0x0, 0x0, 0x0	; `string'
; Function compile flags: /Ogspy

  00000			 AREA	 |.text|, CODE, ARM

  00000	00000000	 DCD         |__GSHandlerCheck|
  00004	00000000	 DCD         |$T39537|

  00008		 |ProcessPowerNotification| PROC

; 62   : {

  00008		 |$LN25@ProcessPow|
  00008	e92d4ff0	 stmdb       sp!, {r4 - r11, lr}
  0000c	e24ddfb7	 sub         sp, sp, #0xB7, 30
  00010		 |$M39538|
  00010	e1a04000	 mov         r4, r0
  00014	e59f3308	 ldr         r3, [pc, #0x308]
  00018	e5933000	 ldr         r3, [r3]
  0001c	e58d32d8	 str         r3, [sp, #0x2D8]

; 63   :     union {
; 64   :         UCHAR buf[QUEUE_SIZE];
; 65   :         POWER_BROADCAST powerBroadcast;
; 66   :     } u;
; 67   :     int iBytesInQueue;
; 68   :     DWORD dwFlags = 0;
; 69   :     int dwCount = 0;
; 70   :     LPTSTR pszFname = _T("PMMON!ProcessPowerNotification");
; 71   : 
; 72   :     iBytesInQueue = 0;

  00020	e3a02000	 mov         r2, #0
  00024	e58d200c	 str         r2, [sp, #0xC]
  00028	e3a03000	 mov         r3, #0

; 73   :     memset(u.buf, 0, QUEUE_SIZE);

  0002c	e3a02fa2	 mov         r2, #0xA2, 30
  00030	e3a01000	 mov         r1, #0
  00034	e28d0050	 add         r0, sp, #0x50
  00038	e58d3008	 str         r3, [sp, #8]
  0003c	eb000000	 bl          memset

; 74   : 
; 75   :     if ( !ReadMsgQueue(hMsgQ,
; 76   :                        u.buf,
; 77   :                        QUEUE_SIZE,
; 78   :                        &iBytesInQueue,
; 79   :                        INFINITE,    // Timeout
; 80   :                        &dwFlags))

  00040	e28d3008	 add         r3, sp, #8
  00044	e3e02000	 mvn         r2, #0
  00048	e58d3004	 str         r3, [sp, #4]
  0004c	e58d2000	 str         r2, [sp]
  00050	e28d300c	 add         r3, sp, #0xC
  00054	e3a02fa2	 mov         r2, #0xA2, 30
  00058	e28d1050	 add         r1, sp, #0x50
  0005c	e1a00004	 mov         r0, r4
  00060	eb000000	 bl          ReadMsgQueue
  00064	e3500000	 cmp         r0, #0
  00068	1a000003	 bne         |$LN16@ProcessPow|

; 81   :     {
; 82   :         DWORD dwErr = GetLastError();

  0006c	eb000000	 bl          GetLastError
  00070	e1a02000	 mov         r2, r0

; 83   :         RetailPrint  (TEXT("%s: ReadMsgQueue: ERROR:%d\n"), pszFname, dwErr);

  00074	e59f02a4	 ldr         r0, [pc, #0x2A4]
  00078	ea000085	 b           |$LN21@ProcessPow|
  0007c		 |$LN16@ProcessPow|

; 84   :         ASSERT(0);
; 85   :     } else if(iBytesInQueue >= sizeof(POWER_BROADCAST)) {

  0007c	e59d200c	 ldr         r2, [sp, #0xC]
  00080	e3520010	 cmp         r2, #0x10
  00084	3a000081	 bcc         |$LN14@ProcessPow|

; 86   :         //
; 87   :         // process power notifications
; 88   :         //
; 89   :         PPOWER_BROADCAST pB = &u.powerBroadcast;
; 90   :         dwFlags = pB->Flags;

  00088	e59d3054	 ldr         r3, [sp, #0x54]
  0008c	e58d3008	 str         r3, [sp, #8]

; 91   :         
; 92   :         RetailPrint  (TEXT("%s: *** Power Notification @ Tick:%u, Count:%d***\n"), pszFname,
; 93   :             GetTickCount(), dwCount++);

  00090	eb000000	 bl          GetTickCount
  00094	e59f1214	 ldr         r1, [pc, #0x214]
  00098	e1a02000	 mov         r2, r0
  0009c	e59f0278	 ldr         r0, [pc, #0x278]
  000a0	e3a03000	 mov         r3, #0
  000a4	eb000000	 bl          RetailPrint

; 94   :         switch (pB->Message) 

  000a8	e59d2050	 ldr         r2, [sp, #0x50]
  000ac	e3520001	 cmp         r2, #1
  000b0	0a00002a	 beq         |$LN11@ProcessPow|
  000b4	e3520002	 cmp         r2, #2
  000b8	0a000024	 beq         |$LN5@ProcessPow|
  000bc	e3520004	 cmp         r2, #4
  000c0	0a000020	 beq         |$LN4@ProcessPow|

; 152  :                 
; 153  :             default:
; 154  :                 RetailPrint  (TEXT("%s:\tUnknown Message:%d\n"), pszFname, pB->Message);

  000c4	e59f11e4	 ldr         r1, [pc, #0x1E4]
  000c8	e3520008	 cmp         r2, #8
  000cc	0a000002	 beq         |$LN3@ProcessPow|
  000d0	e59f0240	 ldr         r0, [pc, #0x240]
  000d4	eb000000	 bl          RetailPrint

; 155  :                 break;

  000d8	ea00005c	 b           |$LN12@ProcessPow|
  000dc		 |$LN3@ProcessPow|

; 136  :                 
; 137  :             case PBT_POWERINFOCHANGE:
; 138  :                 {
; 139  :                     PPOWER_BROADCAST_POWER_INFO ppbpi = (PPOWER_BROADCAST_POWER_INFO) pB->SystemPowerState;
; 140  : 
; 141  :                     RetailPrint  (TEXT("%s:\tPBT_POWERINFOCHANGE\n"), pszFname);

  000dc	e59f0230	 ldr         r0, [pc, #0x230]
  000e0	eb000000	 bl          RetailPrint

; 142  :                     RetailPrint  (TEXT("%s:\t\tAC line status %u, battery flag %u, backup flag %u, %d levels\n"), pszFname,
; 143  :                         ppbpi->bACLineStatus, ppbpi->bBatteryFlag, ppbpi->bBackupBatteryFlag, ppbpi->dwNumLevels);

  000e4	e59d105c	 ldr         r1, [sp, #0x5C]
  000e8	e5dde073	 ldrb        lr, [sp, #0x73]
  000ec	e5dd3071	 ldrb        r3, [sp, #0x71]
  000f0	e5dd2070	 ldrb        r2, [sp, #0x70]
  000f4	e59f0214	 ldr         r0, [pc, #0x214]
  000f8	e58d1004	 str         r1, [sp, #4]
  000fc	e59f11ac	 ldr         r1, [pc, #0x1AC]
  00100	e58de000	 str         lr, [sp]
  00104	eb000000	 bl          RetailPrint

; 144  :                     RetailPrint  (TEXT("%s:\t\tbattery life %d, backup life %d\n"), pszFname,
; 145  :                         ppbpi->bBatteryLifePercent, ppbpi->bBackupBatteryLifePercent);

  00108	e5dd3074	 ldrb        r3, [sp, #0x74]
  0010c	e5dd2072	 ldrb        r2, [sp, #0x72]
  00110	e59f01f4	 ldr         r0, [pc, #0x1F4]
  00114	e59f1194	 ldr         r1, [pc, #0x194]
  00118	eb000000	 bl          RetailPrint

; 146  :                     RetailPrint  (TEXT("%s:\t\tlifetime 0x%08x, full lifetime 0x%08x\n"), pszFname, 
; 147  :                         ppbpi->dwBatteryLifeTime, ppbpi->dwBatteryFullLifeTime);

  0011c	e59d3064	 ldr         r3, [sp, #0x64]
  00120	e59d2060	 ldr         r2, [sp, #0x60]
  00124	e59f01dc	 ldr         r0, [pc, #0x1DC]
  00128	e59f1180	 ldr         r1, [pc, #0x180]
  0012c	eb000000	 bl          RetailPrint

; 148  :                     RetailPrint  (TEXT("%s:\t\tbackup lifetime 0x%08x, backup full lifetime 0x%08x\n"), pszFname, 
; 149  :                         ppbpi->dwBackupBatteryLifeTime, ppbpi->dwBackupBatteryFullLifeTime);

  00130	e59d306c	 ldr         r3, [sp, #0x6C]
  00134	e59d2068	 ldr         r2, [sp, #0x68]
  00138	e59f01c4	 ldr         r0, [pc, #0x1C4]
  0013c	e59f116c	 ldr         r1, [pc, #0x16C]
  00140	eb000000	 bl          RetailPrint

; 150  :                 }
; 151  :                 break;

  00144	ea000041	 b           |$LN12@ProcessPow|
  00148		 |$LN4@ProcessPow|

; 132  :                 
; 133  :             case PBT_POWERSTATUSCHANGE:
; 134  :                 RetailPrint  (TEXT("%s:\tPBT_POWERSTATUSCHANGE\n"), pszFname);

  00148	e59f01b0	 ldr         r0, [pc, #0x1B0]

; 135  :                 break;

  0014c	ea000000	 b           |$LN22@ProcessPow|
  00150		 |$LN5@ProcessPow|

; 127  :             break;
; 128  :             
; 129  :             case PBT_RESUME:
; 130  :                 RetailPrint  (TEXT("%s:\tPBT_RESUME\n"), pszFname);

  00150	e59f01a4	 ldr         r0, [pc, #0x1A4]
  00154		 |$LN22@ProcessPow|
  00154	e59f1154	 ldr         r1, [pc, #0x154]
  00158	eb000000	 bl          RetailPrint

; 131  :                 break;

  0015c	ea00003b	 b           |$LN12@ProcessPow|
  00160		 |$LN11@ProcessPow|

; 95   :         {
; 96   :         case PBT_TRANSITION:
; 97   :             RetailPrint  (TEXT("%s:\tPBT_TRANSITION to system power state: '%s'\n"), pszFname, pB->SystemPowerState);

  00160	e59f0190	 ldr         r0, [pc, #0x190]
  00164	e59f1144	 ldr         r1, [pc, #0x144]
  00168	e28d205c	 add         r2, sp, #0x5C
  0016c	eb000000	 bl          RetailPrint

; 98   :             RetailPrint  (TEXT("%s:\t0x%08x "), pszFname, dwFlags);

  00170	e59d2008	 ldr         r2, [sp, #8]
  00174	e59f0178	 ldr         r0, [pc, #0x178]
  00178	e59f1130	 ldr         r1, [pc, #0x130]
  0017c	eb000000	 bl          RetailPrint

; 99   :             {
; 100  :                 struct {
; 101  :                     DWORD dwFlag;
; 102  :                     LPCTSTR pszFlagName;
; 103  :                 } sFlagInfo[] = {
; 104  :                     FLAGINFO(POWER_STATE_ON),
; 105  :                     FLAGINFO(POWER_STATE_OFF),

  00180	e59f2168	 ldr         r2, [pc, #0x168]
  00184	e59f3160	 ldr         r3, [pc, #0x160]

; 106  :                     FLAGINFO(POWER_STATE_CRITICAL),
; 107  :                     FLAGINFO(POWER_STATE_BOOT),
; 108  :                     FLAGINFO(POWER_STATE_IDLE),
; 109  :                     FLAGINFO(POWER_STATE_SUSPEND),

  00188	e59f4158	 ldr         r4, [pc, #0x158]

; 110  :                     FLAGINFO(POWER_STATE_RESET),
; 111  :                     FLAGINFO(POWER_STATE_PASSWORD),

  0018c	e58d201c	 str         r2, [sp, #0x1C]
  00190	e3a02602	 mov         r2, #2, 12
  00194	e59f6148	 ldr         r6, [pc, #0x148]
  00198	e58d2038	 str         r2, [sp, #0x38]
  0019c	e59f113c	 ldr         r1, [pc, #0x13C]
  001a0	e59f0134	 ldr         r0, [pc, #0x134]
  001a4	e59fe12c	 ldr         lr, [pc, #0x12C]
  001a8	e59f5124	 ldr         r5, [pc, #0x124]
  001ac	e3a02502	 mov         r2, #2, 10
  001b0	e58d2040	 str         r2, [sp, #0x40]
  001b4	e3a02201	 mov         r2, #1, 4
  001b8	e3a08802	 mov         r8, #2, 16
  001bc	e3a09701	 mov         r9, #1, 14
  001c0	e3a0a702	 mov         r10, #2, 14
  001c4	e3a0b601	 mov         r11, #1, 12
  001c8	e3a07801	 mov         r7, #1, 16
  001cc	e58d3014	 str         r3, [sp, #0x14]
  001d0	e59d3008	 ldr         r3, [sp, #8]
  001d4	e58d403c	 str         r4, [sp, #0x3C]
  001d8	e58d604c	 str         r6, [sp, #0x4C]
  001dc	e58d2048	 str         r2, [sp, #0x48]
  001e0	e58d1024	 str         r1, [sp, #0x24]
  001e4	e58d002c	 str         r0, [sp, #0x2C]
  001e8	e58de034	 str         lr, [sp, #0x34]
  001ec	e58d5044	 str         r5, [sp, #0x44]
  001f0	e58d7010	 str         r7, [sp, #0x10]
  001f4	e58d8018	 str         r8, [sp, #0x18]
  001f8	e58d9020	 str         r9, [sp, #0x20]
  001fc	e58da028	 str         r10, [sp, #0x28]
  00200	e58db030	 str         r11, [sp, #0x30]
  00204	e28d4010	 add         r4, sp, #0x10
  00208	e3a06008	 mov         r6, #8
  0020c		 |$LL10@ProcessPow|

; 112  :                 };
; 113  :                 int i;
; 114  : 
; 115  :                 // display each bit that's in the mask
; 116  :                 for(i = 0; i < dim(sFlagInfo); i++) {
; 117  :                     if((dwFlags & sFlagInfo[i].dwFlag) != 0) {

  0020c	e5945000	 ldr         r5, [r4]
  00210	e1150003	 tst         r5, r3
  00214	0a000005	 beq         |$LN9@ProcessPow|

; 118  :                         RetailPrint  (TEXT("%s "), sFlagInfo[i].pszFlagName);

  00218	e5941004	 ldr         r1, [r4, #4]
  0021c	e59f00ac	 ldr         r0, [pc, #0xAC]
  00220	eb000000	 bl          RetailPrint

; 119  :                         dwFlags &= ~sFlagInfo[i].dwFlag;        // mask off the bit

  00224	e59d3008	 ldr         r3, [sp, #8]
  00228	e1c33005	 bic         r3, r3, r5
  0022c	e58d3008	 str         r3, [sp, #8]
  00230		 |$LN9@ProcessPow|
  00230	e2844008	 add         r4, r4, #8
  00234	e2566001	 subs        r6, r6, #1
  00238	1afffff3	 bne         |$LL10@ProcessPow|

; 120  :                     }
; 121  :                 }
; 122  :                 if(dwFlags != 0) {

  0023c	e3530000	 cmp         r3, #0

; 123  :                     RetailPrint  (TEXT("***UNKNOWN***"));

  00240	159f0084	 ldrne       r0, [pc, #0x84]
  00244	1b000000	 blne        RetailPrint

; 124  :                 }
; 125  :             }
; 126  :             RetailPrint  (TEXT("\r\n"));

  00248	e59f0078	 ldr         r0, [pc, #0x78]
  0024c	eb000000	 bl          RetailPrint
  00250		 |$LN12@ProcessPow|

; 156  :         }
; 157  : 
; 158  :         RetailPrint  (TEXT("%s:\tMessage: 0x%x\n"), pszFname, pB->Message);

  00250	e59d2050	 ldr         r2, [sp, #0x50]
  00254	e59f0068	 ldr         r0, [pc, #0x68]
  00258	e59f1050	 ldr         r1, [pc, #0x50]
  0025c	eb000000	 bl          RetailPrint

; 159  :         RetailPrint  (TEXT("%s:\tFlags: 0x%x\n"), pszFname, pB->Flags);

  00260	e59d2054	 ldr         r2, [sp, #0x54]
  00264	e59f0054	 ldr         r0, [pc, #0x54]
  00268	e59f1040	 ldr         r1, [pc, #0x40]
  0026c	eb000000	 bl          RetailPrint

; 160  :         RetailPrint  (TEXT("%s:\tdwLen: %d\n"), pszFname, pB->Length);

  00270	e59d2058	 ldr         r2, [sp, #0x58]
  00274	e59f0040	 ldr         r0, [pc, #0x40]
  00278	e59f1030	 ldr         r1, [pc, #0x30]
  0027c	eb000000	 bl          RetailPrint

; 161  :         
; 162  :         RetailPrint  (TEXT("%s:***********************\n"), pszFname);

  00280	e59f0030	 ldr         r0, [pc, #0x30]
  00284	e59f1024	 ldr         r1, [pc, #0x24]
  00288	eb000000	 bl          RetailPrint

; 163  :     } else {

  0028c	ea000002	 b           |$LN1@ProcessPow|
  00290		 |$LN14@ProcessPow|

; 164  :         RetailPrint  (TEXT("%s:\tReceived short message: %d bytes\n"), pszFname, iBytesInQueue);

  00290	e59f001c	 ldr         r0, [pc, #0x1C]
  00294		 |$LN21@ProcessPow|
  00294	e59f1014	 ldr         r1, [pc, #0x14]
  00298	eb000000	 bl          RetailPrint
  0029c		 |$LN1@ProcessPow|
  0029c	e59d02d8	 ldr         r0, [sp, #0x2D8]
  002a0	eb000000	 bl          __security_check_cookie

; 165  :         ASSERT(0);
; 166  :     }
; 167  : }

  002a4	e28ddfb7	 add         sp, sp, #0xB7, 30
  002a8	e8bd4ff0	 ldmia       sp!, {r4 - r11, lr}
  002ac	e12fff1e	 bx          lr
  002b0		 |$LN26@ProcessPow|
  002b0		 |$LN27@ProcessPow|
  002b0	00000000	 DCD         |??_C@_1DO@LAAJEGMF@?$AAP?$AAM?$AAM?$AAO?$AAN?$AA?$CB?$AAP?$AAr?$AAo?$AAc?$AAe?$AAs?$AAs?$AAP?$AAo?$AAw?$AAe?$AAr?$AAN?$AAo?$AAt?$AAi?$AAf?$AAi?$AAc?$AAa?$AAt?$AAi?$AAo?$AAn?$AA?$AA@|
  002b4		 |$LN28@ProcessPow|
  002b4	00000000	 DCD         |??_C@_1EM@MKLJPOCD@?$AA?$CF?$AAs?$AA?3?$AA?7?$AAR?$AAe?$AAc?$AAe?$AAi?$AAv?$AAe?$AAd?$AA?5?$AAs?$AAh?$AAo?$AAr?$AAt?$AA?5?$AAm?$AAe?$AAs?$AAs?$AAa?$AAg?$AAe?$AA?3?$AA?5?$AA?$CF?$AAd?$AA?5?$AAb@|
  002b8		 |$LN29@ProcessPow|
  002b8	00000000	 DCD         |??_C@_1DI@BEAIENFP@?$AA?$CF?$AAs?$AA?3?$AA?$CK?$AA?$CK?$AA?$CK?$AA?$CK?$AA?$CK?$AA?$CK?$AA?$CK?$AA?$CK?$AA?$CK?$AA?$CK?$AA?$CK?$AA?$CK?$AA?$CK?$AA?$CK?$AA?$CK?$AA?$CK?$AA?$CK?$AA?$CK?$AA?$CK?$AA?$CK?$AA?$CK?$AA?$CK?$AA?$CK?$AA?6?$AA?$AA@|
  002bc		 |$LN30@ProcessPow|
  002bc	00000000	 DCD         |??_C@_1BO@MJJMHAKA@?$AA?$CF?$AAs?$AA?3?$AA?7?$AAd?$AAw?$AAL?$AAe?$AAn?$AA?3?$AA?5?$AA?$CF?$AAd?$AA?6?$AA?$AA@|
  002c0		 |$LN31@ProcessPow|
  002c0	00000000	 DCD         |??_C@_1CC@CFBBJNOG@?$AA?$CF?$AAs?$AA?3?$AA?7?$AAF?$AAl?$AAa?$AAg?$AAs?$AA?3?$AA?5?$AA0?$AAx?$AA?$CF?$AAx?$AA?6?$AA?$AA@|
  002c4		 |$LN32@ProcessPow|
  002c4	00000000	 DCD         |??_C@_1CG@KBMFGIAI@?$AA?$CF?$AAs?$AA?3?$AA?7?$AAM?$AAe?$AAs?$AAs?$AAa?$AAg?$AAe?$AA?3?$AA?5?$AA0?$AAx?$AA?$CF?$AAx?$AA?6?$AA?$AA@|
  002c8		 |$LN33@ProcessPow|
  002c8	00000000	 DCD         |??_C@_15JNBOKNOG@?$AA?$AN?$AA?6?$AA?$AA@|
  002cc		 |$LN34@ProcessPow|
  002cc	00000000	 DCD         |??_C@_1BM@OOIHEHKG@?$AA?$CK?$AA?$CK?$AA?$CK?$AAU?$AAN?$AAK?$AAN?$AAO?$AAW?$AAN?$AA?$CK?$AA?$CK?$AA?$CK?$AA?$AA@|
  002d0		 |$LN35@ProcessPow|
  002d0	00000000	 DCD         |??_C@_17GMPJMPF@?$AA?$CF?$AAs?$AA?5?$AA?$AA@|
  002d4		 |$LN36@ProcessPow|
  002d4	00000000	 DCD         |??_C@_1CE@POOJLBFO@?$AAP?$AAO?$AAW?$AAE?$AAR?$AA_?$AAS?$AAT?$AAA?$AAT?$AAE?$AA_?$AAR?$AAE?$AAS?$AAE?$AAT?$AA?$AA@|
  002d8		 |$LN37@ProcessPow|
  002d8	00000000	 DCD         |??_C@_1CC@ENAOBNPK@?$AAP?$AAO?$AAW?$AAE?$AAR?$AA_?$AAS?$AAT?$AAA?$AAT?$AAE?$AA_?$AAI?$AAD?$AAL?$AAE?$AA?$AA@|
  002dc		 |$LN38@ProcessPow|
  002dc	00000000	 DCD         |??_C@_1CC@IGLFLIAP@?$AAP?$AAO?$AAW?$AAE?$AAR?$AA_?$AAS?$AAT?$AAA?$AAT?$AAE?$AA_?$AAB?$AAO?$AAO?$AAT?$AA?$AA@|
  002e0		 |$LN39@ProcessPow|
  002e0	00000000	 DCD         |??_C@_1CK@JGJNICCH@?$AAP?$AAO?$AAW?$AAE?$AAR?$AA_?$AAS?$AAT?$AAA?$AAT?$AAE?$AA_?$AAC?$AAR?$AAI?$AAT?$AAI?$AAC?$AAA?$AAL?$AA?$AA@|
  002e4		 |$LN40@ProcessPow|
  002e4	00000000	 DCD         |??_C@_1CK@HDHEHKIH@?$AAP?$AAO?$AAW?$AAE?$AAR?$AA_?$AAS?$AAT?$AAA?$AAT?$AAE?$AA_?$AAP?$AAA?$AAS?$AAS?$AAW?$AAO?$AAR?$AAD?$AA?$AA@|
  002e8		 |$LN41@ProcessPow|
  002e8	00000000	 DCD         |??_C@_1CI@KCJPAJJK@?$AAP?$AAO?$AAW?$AAE?$AAR?$AA_?$AAS?$AAT?$AAA?$AAT?$AAE?$AA_?$AAS?$AAU?$AAS?$AAP?$AAE?$AAN?$AAD?$AA?$AA@|
  002ec		 |$LN42@ProcessPow|
  002ec	00000000	 DCD         |??_C@_1BO@JPKIHCGK@?$AAP?$AAO?$AAW?$AAE?$AAR?$AA_?$AAS?$AAT?$AAA?$AAT?$AAE?$AA_?$AAO?$AAN?$AA?$AA@|
  002f0		 |$LN43@ProcessPow|
  002f0	00000000	 DCD         |??_C@_1CA@HDDFIJBJ@?$AAP?$AAO?$AAW?$AAE?$AAR?$AA_?$AAS?$AAT?$AAA?$AAT?$AAE?$AA_?$AAO?$AAF?$AAF?$AA?$AA@|
  002f4		 |$LN44@ProcessPow|
  002f4	00000000	 DCD         |??_C@_1BI@BMJNILDP@?$AA?$CF?$AAs?$AA?3?$AA?7?$AA0?$AAx?$AA?$CF?$AA0?$AA8?$AAx?$AA?5?$AA?$AA@|
  002f8		 |$LN45@ProcessPow|
  002f8	00000000	 DCD         |??_C@_1GA@NPEILEGE@?$AA?$CF?$AAs?$AA?3?$AA?7?$AAP?$AAB?$AAT?$AA_?$AAT?$AAR?$AAA?$AAN?$AAS?$AAI?$AAT?$AAI?$AAO?$AAN?$AA?5?$AAt?$AAo?$AA?5?$AAs?$AAy?$AAs?$AAt?$AAe?$AAm?$AA?5?$AAp?$AAo?$AAw@|
  002fc		 |$LN46@ProcessPow|
  002fc	00000000	 DCD         |??_C@_1CA@FIPDAOIH@?$AA?$CF?$AAs?$AA?3?$AA?7?$AAP?$AAB?$AAT?$AA_?$AAR?$AAE?$AAS?$AAU?$AAM?$AAE?$AA?6?$AA?$AA@|
  00300		 |$LN47@ProcessPow|
  00300	00000000	 DCD         |??_C@_1DG@NJMACGGK@?$AA?$CF?$AAs?$AA?3?$AA?7?$AAP?$AAB?$AAT?$AA_?$AAP?$AAO?$AAW?$AAE?$AAR?$AAS?$AAT?$AAA?$AAT?$AAU?$AAS?$AAC?$AAH?$AAA?$AAN?$AAG?$AAE?$AA?6?$AA?$AA@|
  00304		 |$LN48@ProcessPow|
  00304	00000000	 DCD         |??_C@_1HE@BCAILMHM@?$AA?$CF?$AAs?$AA?3?$AA?7?$AA?7?$AAb?$AAa?$AAc?$AAk?$AAu?$AAp?$AA?5?$AAl?$AAi?$AAf?$AAe?$AAt?$AAi?$AAm?$AAe?$AA?5?$AA0?$AAx?$AA?$CF?$AA0?$AA8?$AAx?$AA?0?$AA?5?$AAb?$AAa?$AAc@|
  00308		 |$LN49@ProcessPow|
  00308	00000000	 DCD         |??_C@_1FI@IAMLNJDP@?$AA?$CF?$AAs?$AA?3?$AA?7?$AA?7?$AAl?$AAi?$AAf?$AAe?$AAt?$AAi?$AAm?$AAe?$AA?5?$AA0?$AAx?$AA?$CF?$AA0?$AA8?$AAx?$AA?0?$AA?5?$AAf?$AAu?$AAl?$AAl?$AA?5?$AAl?$AAi?$AAf?$AAe?$AAt@|
  0030c		 |$LN50@ProcessPow|
  0030c	00000000	 DCD         |??_C@_1EM@PNCGILHM@?$AA?$CF?$AAs?$AA?3?$AA?7?$AA?7?$AAb?$AAa?$AAt?$AAt?$AAe?$AAr?$AAy?$AA?5?$AAl?$AAi?$AAf?$AAe?$AA?5?$AA?$CF?$AAd?$AA?0?$AA?5?$AAb?$AAa?$AAc?$AAk?$AAu?$AAp?$AA?5?$AAl?$AAi?$AAf@|
  00310		 |$LN51@ProcessPow|
  00310	00000000	 DCD         |??_C@_1II@PHIIBGBK@?$AA?$CF?$AAs?$AA?3?$AA?7?$AA?7?$AAA?$AAC?$AA?5?$AAl?$AAi?$AAn?$AAe?$AA?5?$AAs?$AAt?$AAa?$AAt?$AAu?$AAs?$AA?5?$AA?$CF?$AAu?$AA?0?$AA?5?$AAb?$AAa?$AAt?$AAt?$AAe?$AAr?$AAy?$AA?5@|
  00314		 |$LN52@ProcessPow|
  00314	00000000	 DCD         |??_C@_1DC@CHMNDBAH@?$AA?$CF?$AAs?$AA?3?$AA?7?$AAP?$AAB?$AAT?$AA_?$AAP?$AAO?$AAW?$AAE?$AAR?$AAI?$AAN?$AAF?$AAO?$AAC?$AAH?$AAA?$AAN?$AAG?$AAE?$AA?6?$AA?$AA@|
  00318		 |$LN53@ProcessPow|
  00318	00000000	 DCD         |??_C@_1DA@HBICEGPJ@?$AA?$CF?$AAs?$AA?3?$AA?7?$AAU?$AAn?$AAk?$AAn?$AAo?$AAw?$AAn?$AA?5?$AAM?$AAe?$AAs?$AAs?$AAa?$AAg?$AAe?$AA?3?$AA?$CF?$AAd?$AA?6?$AA?$AA@|
  0031c		 |$LN54@ProcessPow|
  0031c	00000000	 DCD         |??_C@_1GG@NADFGJIM@?$AA?$CF?$AAs?$AA?3?$AA?5?$AA?$CK?$AA?$CK?$AA?$CK?$AA?5?$AAP?$AAo?$AAw?$AAe?$AAr?$AA?5?$AAN?$AAo?$AAt?$AAi?$AAf?$AAi?$AAc?$AAa?$AAt?$AAi?$AAo?$AAn?$AA?5?$AA?$EA?$AA?5?$AAT?$AAi?$AAc@|
  00320		 |$LN55@ProcessPow|
  00320	00000000	 DCD         |??_C@_1DI@PLPNIFHE@?$AA?$CF?$AAs?$AA?3?$AA?5?$AAR?$AAe?$AAa?$AAd?$AAM?$AAs?$AAg?$AAQ?$AAu?$AAe?$AAu?$AAe?$AA?3?$AA?5?$AAE?$AAR?$AAR?$AAO?$AAR?$AA?3?$AA?$CF?$AAd?$AA?6?$AA?$AA@|
  00324		 |$LN56@ProcessPow|
  00324	00000000	 DCD         |__security_cookie|
  00328		 |$M39539|

			 ENDP  ; |ProcessPowerNotification|

	EXPORT	|__$ArrayPad$| [ DATA ]
	EXPORT	|ProcessDeviceNotification|
	EXPORT	|??_C@_1EE@EFOEONDD@?$AA?$CF?$AAs?$AA?3?$AA?5?$AAg?$AAo?$AAt?$AA?5?$AAr?$AAu?$AAn?$AAt?$AA?5?$AAm?$AAe?$AAs?$AAs?$AAa?$AAg?$AAe?$AA?5?$AA?$CI?$AA?$CF?$AAd?$AA?5?$AAb?$AAy?$AAt?$AAe?$AAs?$AA?$CJ?$AA?$AN@| [ DATA ] ; `string'
	EXPORT	|??_C@_1EK@OLPAIFNG@?$AA?$CF?$AAs?$AA?3?$AA?5?$AAd?$AAe?$AAv?$AAi?$AAc?$AAe?$AA?5?$AA?8?$AA?$CF?$AAs?$AA?8?$AA?5?$AA?$CF?$AAs?$AA?5?$AAc?$AAl?$AAa?$AAs?$AAs?$AA?5?$AA?$CF?$AAs?$AA?5?$AA?$CI?$AA?8?$AA?$CF?$AAs@| [ DATA ] ; `string'
	EXPORT	|??_C@_1BA@JGFCMEBJ@?$AAl?$AAe?$AAa?$AAv?$AAi?$AAn?$AAg?$AA?$AA@| [ DATA ] ; `string'
	EXPORT	|??_C@_1BA@CFIBMAIE@?$AAj?$AAo?$AAi?$AAn?$AAi?$AAn?$AAg?$AA?$AA@| [ DATA ] ; `string'
	EXPORT	|??_C@_1CA@BHEGOCDB@?$AA?$DM?$AAu?$AAn?$AAk?$AAn?$AAo?$AAw?$AAn?$AA?5?$AAc?$AAl?$AAa?$AAs?$AAs?$AA?$DO?$AA?$AA@| [ DATA ] ; `string'
	EXPORT	|??_C@_1FO@CLPGINCM@?$AA?$HL?$AA?$CF?$AA0?$AA8?$AAx?$AA?9?$AA?$CF?$AA0?$AA4?$AAx?$AA?9?$AA?$CF?$AA0?$AA4?$AAx?$AA?9?$AA?$CF?$AA0?$AA4?$AAx?$AA?9?$AA?$CF?$AA0?$AA2?$AAx?$AA?$CF?$AA0?$AA2?$AAx?$AA?$CF?$AA0?$AA2@| [ DATA ] ; `string'
	EXPORT	|??_C@_1EO@PFEFPDAL@?$AAS?$AAY?$AAS?$AAT?$AAE?$AAM?$AA?2?$AAC?$AAu?$AAr?$AAr?$AAe?$AAn?$AAt?$AAC?$AAo?$AAn?$AAt?$AAr?$AAo?$AAl?$AAS?$AAe?$AAt?$AA?2?$AAC?$AAo?$AAn?$AAt?$AAr?$AAo?$AAl@| [ DATA ] ; `string'
	EXPORT	|??_C@_1BM@OBHJEKIL@?$AA?$CF?$AAs?$AA?2?$AAI?$AAn?$AAt?$AAe?$AAr?$AAf?$AAa?$AAc?$AAe?$AAs?$AA?$AA@| [ DATA ] ; `string'
	EXPORT	|??_C@_1FI@ONIMKDGK@?$AA?$CF?$AAs?$AA?3?$AA?5?$AAd?$AAe?$AAv?$AAi?$AAc?$AAe?$AA?5?$AAn?$AAa?$AAm?$AAe?$AA?5?$AAl?$AAo?$AAn?$AAg?$AAe?$AAr?$AA?5?$AAt?$AAh?$AAa?$AAn?$AA?5?$AA?$CF?$AAd?$AA?5?$AAc@| [ DATA ] ; `string'
	EXPORT	|??_C@_1EA@EMMPIMIL@?$AAP?$AAM?$AAM?$AAO?$AAN?$AA?$CB?$AAP?$AAr?$AAo?$AAc?$AAe?$AAs?$AAs?$AAD?$AAe?$AAv?$AAi?$AAc?$AAe?$AAN?$AAo?$AAt?$AAi?$AAf?$AAi?$AAc?$AAa?$AAt?$AAi?$AAo?$AAn?$AA?$AA@| [ DATA ] ; `string'
	EXPORT	|??_C@_1DO@DCJBELBH@?$AA?$CF?$AAs?$AA?3?$AA?5?$AAR?$AAe?$AAa?$AAd?$AAM?$AAs?$AAg?$AAQ?$AAu?$AAe?$AAu?$AAe?$AA?$CI?$AA?$CJ?$AA?5?$AAf?$AAa?$AAi?$AAl?$AAe?$AAd?$AA?5?$AA?$CF?$AAd?$AA?$AN?$AA?6?$AA?$AA@| [ DATA ] ; `string'
	IMPORT	|RegCloseKey|
	IMPORT	|RegQueryValueExW|
	IMPORT	|RegOpenKeyExW|
	IMPORT	|wsprintfW|
	IMPORT	|wcscpy|

  00000			 AREA	 |.pdata|, PDATA
|$T39592| DCD	|$LN17@ProcessDev|
	DCD	0xc0008703

  00000			 AREA	 |.xdata|, DATA
|$T39588| DCD	0xffffffdc

  00000			 AREA	 |.rdata|, DATA, READONLY
|??_C@_1EE@EFOEONDD@?$AA?$CF?$AAs?$AA?3?$AA?5?$AAg?$AAo?$AAt?$AA?5?$AAr?$AAu?$AAn?$AAt?$AA?5?$AAm?$AAe?$AAs?$AAs?$AAa?$AAg?$AAe?$AA?5?$AA?$CI?$AA?$CF?$AAd?$AA?5?$AAb?$AAy?$AAt?$AAe?$AAs?$AA?$CJ?$AA?$AN@| DCB "%"
	DCB	0x0, "s", 0x0, ":", 0x0, " ", 0x0, "g", 0x0, "o", 0x0, "t"
	DCB	0x0, " ", 0x0, "r", 0x0, "u", 0x0, "n", 0x0, "t", 0x0, " "
	DCB	0x0, "m", 0x0, "e", 0x0, "s", 0x0, "s", 0x0, "a", 0x0, "g"
	DCB	0x0, "e", 0x0, " ", 0x0, "(", 0x0, "%", 0x0, "d", 0x0, " "
	DCB	0x0, "b", 0x0, "y", 0x0, "t", 0x0, "e", 0x0, "s", 0x0, ")"
	DCB	0x0, 0xd, 0x0, 0xa, 0x0, 0x0, 0x0	; `string'

  00000			 AREA	 |.rdata|, DATA, READONLY
|??_C@_1EK@OLPAIFNG@?$AA?$CF?$AAs?$AA?3?$AA?5?$AAd?$AAe?$AAv?$AAi?$AAc?$AAe?$AA?5?$AA?8?$AA?$CF?$AAs?$AA?8?$AA?5?$AA?$CF?$AAs?$AA?5?$AAc?$AAl?$AAa?$AAs?$AAs?$AA?5?$AA?$CF?$AAs?$AA?5?$AA?$CI?$AA?8?$AA?$CF?$AAs@| DCB "%"
	DCB	0x0, "s", 0x0, ":", 0x0, " ", 0x0, "d", 0x0, "e", 0x0, "v"
	DCB	0x0, "i", 0x0, "c", 0x0, "e", 0x0, " ", 0x0, "'", 0x0, "%"
	DCB	0x0, "s", 0x0, "'", 0x0, " ", 0x0, "%", 0x0, "s", 0x0, " "
	DCB	0x0, "c", 0x0, "l", 0x0, "a", 0x0, "s", 0x0, "s", 0x0, " "
	DCB	0x0, "%", 0x0, "s", 0x0, " ", 0x0, "(", 0x0, "'", 0x0, "%"
	DCB	0x0, "s", 0x0, "'", 0x0, ")", 0x0, 0xd, 0x0, 0xa, 0x0, 0x0
	DCB	0x0					; `string'

  00000			 AREA	 |.rdata|, DATA, READONLY
|??_C@_1BA@JGFCMEBJ@?$AAl?$AAe?$AAa?$AAv?$AAi?$AAn?$AAg?$AA?$AA@| DCB "l", 0x0
	DCB	"e", 0x0, "a", 0x0, "v", 0x0, "i", 0x0, "n", 0x0, "g", 0x0
	DCB	0x0, 0x0				; `string'

  00000			 AREA	 |.rdata|, DATA, READONLY
|??_C@_1BA@CFIBMAIE@?$AAj?$AAo?$AAi?$AAn?$AAi?$AAn?$AAg?$AA?$AA@| DCB "j", 0x0
	DCB	"o", 0x0, "i", 0x0, "n", 0x0, "i", 0x0, "n", 0x0, "g", 0x0
	DCB	0x0, 0x0				; `string'

  00000			 AREA	 |.rdata|, DATA, READONLY
|??_C@_1CA@BHEGOCDB@?$AA?$DM?$AAu?$AAn?$AAk?$AAn?$AAo?$AAw?$AAn?$AA?5?$AAc?$AAl?$AAa?$AAs?$AAs?$AA?$DO?$AA?$AA@| DCB "<"
	DCB	0x0, "u", 0x0, "n", 0x0, "k", 0x0, "n", 0x0, "o", 0x0, "w"
	DCB	0x0, "n", 0x0, " ", 0x0, "c", 0x0, "l", 0x0, "a", 0x0, "s"
	DCB	0x0, "s", 0x0, ">", 0x0, 0x0, 0x0	; `string'

  00000			 AREA	 |.rdata|, DATA, READONLY
|??_C@_1FO@CLPGINCM@?$AA?$HL?$AA?$CF?$AA0?$AA8?$AAx?$AA?9?$AA?$CF?$AA0?$AA4?$AAx?$AA?9?$AA?$CF?$AA0?$AA4?$AAx?$AA?9?$AA?$CF?$AA0?$AA4?$AAx?$AA?9?$AA?$CF?$AA0?$AA2?$AAx?$AA?$CF?$AA0?$AA2?$AAx?$AA?$CF?$AA0?$AA2@| DCB "{"
	DCB	0x0, "%", 0x0, "0", 0x0, "8", 0x0, "x", 0x0, "-", 0x0, "%"
	DCB	0x0, "0", 0x0, "4", 0x0, "x", 0x0, "-", 0x0, "%", 0x0, "0"
	DCB	0x0, "4", 0x0, "x", 0x0, "-", 0x0, "%", 0x0, "0", 0x0, "4"
	DCB	0x0, "x", 0x0, "-", 0x0, "%", 0x0, "0", 0x0, "2", 0x0, "x"
	DCB	0x0, "%", 0x0, "0", 0x0, "2", 0x0, "x", 0x0, "%", 0x0, "0"
	DCB	0x0, "2", 0x0, "x", 0x0, "%", 0x0, "0", 0x0, "2", 0x0, "x"
	DCB	0x0, "%", 0x0, "0", 0x0, "2", 0x0, "x", 0x0, "%", 0x0, "0"
	DCB	0x0, "2", 0x0, "x", 0x0, "}", 0x0, 0x0, 0x0 ; `string'

  00000			 AREA	 |.rdata|, DATA, READONLY
|??_C@_1EO@PFEFPDAL@?$AAS?$AAY?$AAS?$AAT?$AAE?$AAM?$AA?2?$AAC?$AAu?$AAr?$AAr?$AAe?$AAn?$AAt?$AAC?$AAo?$AAn?$AAt?$AAr?$AAo?$AAl?$AAS?$AAe?$AAt?$AA?2?$AAC?$AAo?$AAn?$AAt?$AAr?$AAo?$AAl@| DCB "S"
	DCB	0x0, "Y", 0x0, "S", 0x0, "T", 0x0, "E", 0x0, "M", 0x0, "\\"
	DCB	0x0, "C", 0x0, "u", 0x0, "r", 0x0, "r", 0x0, "e", 0x0, "n"
	DCB	0x0, "t", 0x0, "C", 0x0, "o", 0x0, "n", 0x0, "t", 0x0, "r"
	DCB	0x0, "o", 0x0, "l", 0x0, "S", 0x0, "e", 0x0, "t", 0x0, "\\"
	DCB	0x0, "C", 0x0, "o", 0x0, "n", 0x0, "t", 0x0, "r", 0x0, "o"
	DCB	0x0, "l", 0x0, "\\", 0x0, "P", 0x0, "o", 0x0, "w", 0x0, "e"
	DCB	0x0, "r", 0x0, 0x0, 0x0			; `string'

  00000			 AREA	 |.rdata|, DATA, READONLY
|??_C@_1BM@OBHJEKIL@?$AA?$CF?$AAs?$AA?2?$AAI?$AAn?$AAt?$AAe?$AAr?$AAf?$AAa?$AAc?$AAe?$AAs?$AA?$AA@| DCB "%"
	DCB	0x0, "s", 0x0, "\\", 0x0, "I", 0x0, "n", 0x0, "t", 0x0, "e"
	DCB	0x0, "r", 0x0, "f", 0x0, "a", 0x0, "c", 0x0, "e", 0x0, "s"
	DCB	0x0, 0x0, 0x0				; `string'

  00000			 AREA	 |.rdata|, DATA, READONLY
|??_C@_1FI@ONIMKDGK@?$AA?$CF?$AAs?$AA?3?$AA?5?$AAd?$AAe?$AAv?$AAi?$AAc?$AAe?$AA?5?$AAn?$AAa?$AAm?$AAe?$AA?5?$AAl?$AAo?$AAn?$AAg?$AAe?$AAr?$AA?5?$AAt?$AAh?$AAa?$AAn?$AA?5?$AA?$CF?$AAd?$AA?5?$AAc@| DCB "%"
	DCB	0x0, "s", 0x0, ":", 0x0, " ", 0x0, "d", 0x0, "e", 0x0, "v"
	DCB	0x0, "i", 0x0, "c", 0x0, "e", 0x0, " ", 0x0, "n", 0x0, "a"
	DCB	0x0, "m", 0x0, "e", 0x0, " ", 0x0, "l", 0x0, "o", 0x0, "n"
	DCB	0x0, "g", 0x0, "e", 0x0, "r", 0x0, " ", 0x0, "t", 0x0, "h"
	DCB	0x0, "a", 0x0, "n", 0x0, " ", 0x0, "%", 0x0, "d", 0x0, " "
	DCB	0x0, "c", 0x0, "h", 0x0, "a", 0x0, "r", 0x0, "a", 0x0, "c"
	DCB	0x0, "t", 0x0, "e", 0x0, "r", 0x0, "s", 0x0, 0xd, 0x0, 0xa
	DCB	0x0, 0x0, 0x0				; `string'

  00000			 AREA	 |.rdata|, DATA, READONLY
|??_C@_1EA@EMMPIMIL@?$AAP?$AAM?$AAM?$AAO?$AAN?$AA?$CB?$AAP?$AAr?$AAo?$AAc?$AAe?$AAs?$AAs?$AAD?$AAe?$AAv?$AAi?$AAc?$AAe?$AAN?$AAo?$AAt?$AAi?$AAf?$AAi?$AAc?$AAa?$AAt?$AAi?$AAo?$AAn?$AA?$AA@| DCB "P"
	DCB	0x0, "M", 0x0, "M", 0x0, "O", 0x0, "N", 0x0, "!", 0x0, "P"
	DCB	0x0, "r", 0x0, "o", 0x0, "c", 0x0, "e", 0x0, "s", 0x0, "s"
	DCB	0x0, "D", 0x0, "e", 0x0, "v", 0x0, "i", 0x0, "c", 0x0, "e"
	DCB	0x0, "N", 0x0, "o", 0x0, "t", 0x0, "i", 0x0, "f", 0x0, "i"
	DCB	0x0, "c", 0x0, "a", 0x0, "t", 0x0, "i", 0x0, "o", 0x0, "n"
	DCB	0x0, 0x0, 0x0				; `string'

  00000			 AREA	 |.rdata|, DATA, READONLY
|??_C@_1DO@DCJBELBH@?$AA?$CF?$AAs?$AA?3?$AA?5?$AAR?$AAe?$AAa?$AAd?$AAM?$AAs?$AAg?$AAQ?$AAu?$AAe?$AAu?$AAe?$AA?$CI?$AA?$CJ?$AA?5?$AAf?$AAa?$AAi?$AAl?$AAe?$AAd?$AA?5?$AA?$CF?$AAd?$AA?$AN?$AA?6?$AA?$AA@| DCB "%"
	DCB	0x0, "s", 0x0, ":", 0x0, " ", 0x0, "R", 0x0, "e", 0x0, "a"
	DCB	0x0, "d", 0x0, "M", 0x0, "s", 0x0, "g", 0x0, "Q", 0x0, "u"
	DCB	0x0, "e", 0x0, "u", 0x0, "e", 0x0, "(", 0x0, ")", 0x0, " "
	DCB	0x0, "f", 0x0, "a", 0x0, "i", 0x0, "l", 0x0, "e", 0x0, "d"
	DCB	0x0, " ", 0x0, "%", 0x0, "d", 0x0, 0xd, 0x0, 0xa, 0x0, 0x0
	DCB	0x0					; `string'
; Function compile flags: /Ogspy

  00000			 AREA	 |.text|, CODE, ARM

  00000	00000000	 DCD         |__GSHandlerCheck|
  00004	00000000	 DCD         |$T39588|

  00008		 |ProcessDeviceNotification| PROC

; 171  : {

  00008		 |$LN17@ProcessDev|
  00008	e92d47f0	 stmdb       sp!, {r4 - r10, lr}
  0000c	e59fc20c	 ldr         r12, [pc, #0x20C]
  00010	e08dd00c	 add         sp, sp, r12
  00014		 |$M39589|
  00014	e1a04000	 mov         r4, r0
  00018	e59f31fc	 ldr         r3, [pc, #0x1FC]
  0001c	e5933000	 ldr         r3, [r3]
  00020	e58d37a0	 str         r3, [sp, #0x7A0]

; 172  :     union {
; 173  :         UCHAR deviceBuf[PNP_QUEUE_SIZE];
; 174  :         DEVDETAIL devDetail;
; 175  :     } u;
; 176  :     DWORD iBytesInQueue = 0;
; 177  :     DWORD dwFlags = 0;

  00024	e3a02000	 mov         r2, #0
  00028	e58d202c	 str         r2, [sp, #0x2C]
  0002c	e3a03000	 mov         r3, #0

; 178  :     LPTSTR pszFname = _T("PMMON!ProcessDeviceNotification");
; 179  : 
; 180  :     // read a message from the message queue -- it should be a device advertisement
; 181  :     memset(u.deviceBuf, 0, PNP_QUEUE_SIZE);

  00030	e3a02e36	 mov         r2, #0x36, 28
  00034	e3a01000	 mov         r1, #0
  00038	e28d0030	 add         r0, sp, #0x30
  0003c	e58d3020	 str         r3, [sp, #0x20]
  00040	eb000000	 bl          memset

; 182  :     if ( !ReadMsgQueue(hMsgQ, u.deviceBuf, PNP_QUEUE_SIZE, &iBytesInQueue, 0, &dwFlags)) {

  00044	e28d302c	 add         r3, sp, #0x2C
  00048	e3a02000	 mov         r2, #0
  0004c	e58d3004	 str         r3, [sp, #4]
  00050	e58d2000	 str         r2, [sp]
  00054	e28d3020	 add         r3, sp, #0x20
  00058	e3a02e36	 mov         r2, #0x36, 28
  0005c	e28d1030	 add         r1, sp, #0x30
  00060	e1a00004	 mov         r0, r4
  00064	eb000000	 bl          ReadMsgQueue
  00068	e3500000	 cmp         r0, #0
  0006c	1a000003	 bne         |$LN8@ProcessDev|

; 183  :         // nothing in the queue
; 184  :         RetailPrint  (_T("%s: ReadMsgQueue() failed %d\r\n"), pszFname,
; 185  :             GetLastError());

  00070	eb000000	 bl          GetLastError
  00074	e1a02000	 mov         r2, r0
  00078	e59f0198	 ldr         r0, [pc, #0x198]
  0007c	ea000052	 b           |$LN14@ProcessDev|
  00080		 |$LN8@ProcessDev|

; 186  :     } else if(iBytesInQueue >= sizeof(DEVDETAIL)) {

  00080	e59d2020	 ldr         r2, [sp, #0x20]
  00084	e3520020	 cmp         r2, #0x20
  00088	3a00004e	 bcc         |$LN6@ProcessDev|

; 187  :         // process the message
; 188  :         PDEVDETAIL pDevDetail = &u.devDetail;
; 189  :         //DWORD dwMessageSize = sizeof(DEVDETAIL) + pDevDetail->cbName;
; 190  :         
; 191  :         // check for overlarge names
; 192  :         if(pDevDetail->cbName > ((PNP_MAX_NAMELEN - 1) * sizeof(pDevDetail->szName[0]))) {

  0008c	e59d3048	 ldr         r3, [sp, #0x48]
  00090	e35300fe	 cmp         r3, #0xFE

; 193  :             RetailPrint  (_T("%s: device name longer than %d characters\r\n"), 
; 194  :                 pszFname, PNP_MAX_NAMELEN - 1);

  00094	859f0178	 ldrhi       r0, [pc, #0x178]
  00098	83a0207f	 movhi       r2, #0x7F
  0009c	8a00004a	 bhi         |$LN14@ProcessDev|

; 195  :         } else {
; 196  :             LPCTSTR pszName = pDevDetail->szName;
; 197  :             LPCGUID guidDevClass = &pDevDetail->guidDevClass;
; 198  :             TCHAR szClassDescription[MAX_PATH];
; 199  :             TCHAR szClassName[MAX_PATH];
; 200  :             HKEY hk;
; 201  :             DWORD dwStatus;
; 202  : 
; 203  :             // format the class name
; 204  :             _stprintf(szClassName, _T("{%08x-%04x-%04x-%04x-%02x%02x%02x%02x%02x%02x}"), 
; 205  :                 guidDevClass->Data1, guidDevClass->Data2, guidDevClass->Data3,
; 206  :                 (guidDevClass->Data4[0] << 8) + guidDevClass->Data4[1], guidDevClass->Data4[2], guidDevClass->Data4[3], 
; 207  :                 guidDevClass->Data4[4], guidDevClass->Data4[5], guidDevClass->Data4[6], guidDevClass->Data4[7]);

  000a0	e5dde039	 ldrb        lr, [sp, #0x39]
  000a4	e5dd0038	 ldrb        r0, [sp, #0x38]
  000a8	e5dd403f	 ldrb        r4, [sp, #0x3F]
  000ac	e5dd503e	 ldrb        r5, [sp, #0x3E]
  000b0	e5dd603d	 ldrb        r6, [sp, #0x3D]
  000b4	e5dd703c	 ldrb        r7, [sp, #0x3C]
  000b8	e5dd803b	 ldrb        r8, [sp, #0x3B]
  000bc	e5dd903a	 ldrb        r9, [sp, #0x3A]
  000c0	e1dda3b6	 ldrh        r10, [sp, #0x36]
  000c4	e1dd33b4	 ldrh        r3, [sp, #0x34]
  000c8	e59d2030	 ldr         r2, [sp, #0x30]
  000cc	e59f113c	 ldr         r1, [pc, #0x13C]
  000d0	e08e0400	 add         r0, lr, r0, lsl #8
  000d4	e58d0004	 str         r0, [sp, #4]
  000d8	e3a00c05	 mov         r0, #5, 24
  000dc	e3800098	 orr         r0, r0, #0x98
  000e0	e08d0000	 add         r0, sp, r0
  000e4	e58d401c	 str         r4, [sp, #0x1C]
  000e8	e58d5018	 str         r5, [sp, #0x18]
  000ec	e58d6014	 str         r6, [sp, #0x14]
  000f0	e58d7010	 str         r7, [sp, #0x10]
  000f4	e58d800c	 str         r8, [sp, #0xC]
  000f8	e58d9008	 str         r9, [sp, #8]
  000fc	e58da000	 str         r10, [sp]
  00100	eb000000	 bl          swprintf

; 208  : 
; 209  :             // (inefficiently) look up the class description whenever a device registers
; 210  :             wsprintf(szClassDescription, _T("%s\\Interfaces"), PWRMGR_REG_KEY);

  00104	e59f2100	 ldr         r2, [pc, #0x100]
  00108	e59f10f8	 ldr         r1, [pc, #0xF8]
  0010c	e28d0e39	 add         r0, sp, #0x39, 28
  00110	eb000000	 bl          wsprintfW

; 211  :             dwStatus = RegOpenKeyEx(HKEY_LOCAL_MACHINE, szClassDescription, 0, 0, &hk);

  00114	e28d3024	 add         r3, sp, #0x24
  00118	e58d3000	 str         r3, [sp]
  0011c	e3a03000	 mov         r3, #0
  00120	e3a02000	 mov         r2, #0
  00124	e28d1e39	 add         r1, sp, #0x39, 28
  00128	e3a0010a	 mov         r0, #0xA, 2
  0012c	eb000000	 bl          RegOpenKeyExW
  00130	e3500000	 cmp         r0, #0

; 212  :             if(dwStatus == ERROR_SUCCESS) {

  00134	1a000011	 bne         |$LN13@ProcessDev|

; 213  :                 DWORD dwSize = sizeof(szClassDescription);
; 214  :                 dwStatus = RegQueryValueEx(hk, szClassName, NULL, NULL, (LPBYTE) szClassDescription, &dwSize);

  00138	e59d0024	 ldr         r0, [sp, #0x24]
  0013c	e3a05f82	 mov         r5, #0x82, 30
  00140	e28de028	 add         lr, sp, #0x28
  00144	e28d4e39	 add         r4, sp, #0x39, 28
  00148	e3a03000	 mov         r3, #0
  0014c	e3a02000	 mov         r2, #0
  00150	e3a01c05	 mov         r1, #5, 24
  00154	e3811098	 orr         r1, r1, #0x98
  00158	e08d1001	 add         r1, sp, r1
  0015c	e58d5028	 str         r5, [sp, #0x28]
  00160	e58de004	 str         lr, [sp, #4]
  00164	e58d4000	 str         r4, [sp]
  00168	eb000000	 bl          RegQueryValueExW
  0016c	e1a04000	 mov         r4, r0

; 215  :                 RegCloseKey(hk);

  00170	e59d0024	 ldr         r0, [sp, #0x24]
  00174	eb000000	 bl          RegCloseKey

; 216  :             }
; 217  :             if(dwStatus != ERROR_SUCCESS) {

  00178	e3540000	 cmp         r4, #0
  0017c	0a000002	 beq         |$LN2@ProcessDev|
  00180		 |$LN13@ProcessDev|

; 218  :                 _tcscpy(szClassDescription, (_T("<unknown class>")));

  00180	e59f107c	 ldr         r1, [pc, #0x7C]
  00184	e28d0e39	 add         r0, sp, #0x39, 28
  00188	eb000000	 bl          wcscpy
  0018c		 |$LN2@ProcessDev|

; 219  :             }
; 220  :             
; 221  :             RetailPrint  
; 222  :                 (_T("%s: device '%s' %s class %s ('%s')\r\n"), pszFname,
; 223  :                 pszName, pDevDetail->fAttached ? _T("joining") : _T("leaving"),
; 224  :                 szClassName, szClassDescription);

  0018c	e59d3044	 ldr         r3, [sp, #0x44]
  00190	e59f1058	 ldr         r1, [pc, #0x58]
  00194	e59f0064	 ldr         r0, [pc, #0x64]
  00198	e3530000	 cmp         r3, #0
  0019c	159f3058	 ldrne       r3, [pc, #0x58]
  001a0	059f3050	 ldreq       r3, [pc, #0x50]
  001a4	e28dee39	 add         lr, sp, #0x39, 28
  001a8	e3a04c05	 mov         r4, #5, 24
  001ac	e3844098	 orr         r4, r4, #0x98
  001b0	e08d4004	 add         r4, sp, r4
  001b4	e28d204c	 add         r2, sp, #0x4C
  001b8	e58de004	 str         lr, [sp, #4]
  001bc	e58d4000	 str         r4, [sp]
  001c0	eb000000	 bl          RetailPrint

; 225  :         }
; 226  :     } else {

  001c4	ea000002	 b           |$LN1@ProcessDev|
  001c8		 |$LN6@ProcessDev|

; 227  :         // not enough bytes for a message
; 228  :         RetailPrint  (_T("%s: got runt message (%d bytes)\r\n"), pszFname, 
; 229  :             iBytesInQueue);

  001c8	e59f0024	 ldr         r0, [pc, #0x24]
  001cc		 |$LN14@ProcessDev|
  001cc	e59f101c	 ldr         r1, [pc, #0x1C]
  001d0	eb000000	 bl          RetailPrint
  001d4		 |$LN1@ProcessDev|
  001d4	e59d07a0	 ldr         r0, [sp, #0x7A0]
  001d8	eb000000	 bl          __security_check_cookie

; 230  :     }
; 231  : }

  001dc	e3a0cc07	 mov         r12, #7, 24
  001e0	e38cc0a4	 orr         r12, r12, #0xA4
  001e4	e08dd00c	 add         sp, sp, r12
  001e8	e8bd47f0	 ldmia       sp!, {r4 - r10, lr}
  001ec	e12fff1e	 bx          lr
  001f0		 |$LN18@ProcessDev|
  001f0		 |$LN19@ProcessDev|
  001f0	00000000	 DCD         |??_C@_1EA@EMMPIMIL@?$AAP?$AAM?$AAM?$AAO?$AAN?$AA?$CB?$AAP?$AAr?$AAo?$AAc?$AAe?$AAs?$AAs?$AAD?$AAe?$AAv?$AAi?$AAc?$AAe?$AAN?$AAo?$AAt?$AAi?$AAf?$AAi?$AAc?$AAa?$AAt?$AAi?$AAo?$AAn?$AA?$AA@|
  001f4		 |$LN20@ProcessDev|
  001f4	00000000	 DCD         |??_C@_1EE@EFOEONDD@?$AA?$CF?$AAs?$AA?3?$AA?5?$AAg?$AAo?$AAt?$AA?5?$AAr?$AAu?$AAn?$AAt?$AA?5?$AAm?$AAe?$AAs?$AAs?$AAa?$AAg?$AAe?$AA?5?$AA?$CI?$AA?$CF?$AAd?$AA?5?$AAb?$AAy?$AAt?$AAe?$AAs?$AA?$CJ?$AA?$AN@|
  001f8		 |$LN21@ProcessDev|
  001f8	00000000	 DCD         |??_C@_1BA@JGFCMEBJ@?$AAl?$AAe?$AAa?$AAv?$AAi?$AAn?$AAg?$AA?$AA@|
  001fc		 |$LN22@ProcessDev|
  001fc	00000000	 DCD         |??_C@_1BA@CFIBMAIE@?$AAj?$AAo?$AAi?$AAn?$AAi?$AAn?$AAg?$AA?$AA@|
  00200		 |$LN23@ProcessDev|
  00200	00000000	 DCD         |??_C@_1EK@OLPAIFNG@?$AA?$CF?$AAs?$AA?3?$AA?5?$AAd?$AAe?$AAv?$AAi?$AAc?$AAe?$AA?5?$AA?8?$AA?$CF?$AAs?$AA?8?$AA?5?$AA?$CF?$AAs?$AA?5?$AAc?$AAl?$AAa?$AAs?$AAs?$AA?5?$AA?$CF?$AAs?$AA?5?$AA?$CI?$AA?8?$AA?$CF?$AAs@|
  00204		 |$LN24@ProcessDev|
  00204	00000000	 DCD         |??_C@_1CA@BHEGOCDB@?$AA?$DM?$AAu?$AAn?$AAk?$AAn?$AAo?$AAw?$AAn?$AA?5?$AAc?$AAl?$AAa?$AAs?$AAs?$AA?$DO?$AA?$AA@|
  00208		 |$LN25@ProcessDev|
  00208	00000000	 DCD         |??_C@_1BM@OBHJEKIL@?$AA?$CF?$AAs?$AA?2?$AAI?$AAn?$AAt?$AAe?$AAr?$AAf?$AAa?$AAc?$AAe?$AAs?$AA?$AA@|
  0020c		 |$LN26@ProcessDev|
  0020c	00000000	 DCD         |??_C@_1EO@PFEFPDAL@?$AAS?$AAY?$AAS?$AAT?$AAE?$AAM?$AA?2?$AAC?$AAu?$AAr?$AAr?$AAe?$AAn?$AAt?$AAC?$AAo?$AAn?$AAt?$AAr?$AAo?$AAl?$AAS?$AAe?$AAt?$AA?2?$AAC?$AAo?$AAn?$AAt?$AAr?$AAo?$AAl@|
  00210		 |$LN27@ProcessDev|
  00210	00000000	 DCD         |??_C@_1FO@CLPGINCM@?$AA?$HL?$AA?$CF?$AA0?$AA8?$AAx?$AA?9?$AA?$CF?$AA0?$AA4?$AAx?$AA?9?$AA?$CF?$AA0?$AA4?$AAx?$AA?9?$AA?$CF?$AA0?$AA4?$AAx?$AA?9?$AA?$CF?$AA0?$AA2?$AAx?$AA?$CF?$AA0?$AA2?$AAx?$AA?$CF?$AA0?$AA2@|
  00214		 |$LN28@ProcessDev|
  00214	00000000	 DCD         |??_C@_1FI@ONIMKDGK@?$AA?$CF?$AAs?$AA?3?$AA?5?$AAd?$AAe?$AAv?$AAi?$AAc?$AAe?$AA?5?$AAn?$AAa?$AAm?$AAe?$AA?5?$AAl?$AAo?$AAn?$AAg?$AAe?$AAr?$AA?5?$AAt?$AAh?$AAa?$AAn?$AA?5?$AA?$CF?$AAd?$AA?5?$AAc@|
  00218		 |$LN29@ProcessDev|
  00218	00000000	 DCD         |??_C@_1DO@DCJBELBH@?$AA?$CF?$AAs?$AA?3?$AA?5?$AAR?$AAe?$AAa?$AAd?$AAM?$AAs?$AAg?$AAQ?$AAu?$AAe?$AAu?$AAe?$AA?$CI?$AA?$CJ?$AA?5?$AAf?$AAa?$AAi?$AAl?$AAe?$AAd?$AA?5?$AA?$CF?$AAd?$AA?$AN?$AA?6?$AA?$AA@|
  0021c		 |$LN30@ProcessDev|
  0021c	00000000	 DCD         |__security_cookie|
  00220		 |$LN31@ProcessDev|
  00220	fffff85c	 DCD         0xfffff85c
  00224		 |$M39590|

			 ENDP  ; |ProcessDeviceNotification|

	EXPORT	|MonThreadProc|
	EXPORT	|??_C@_1GI@JCBCIBJH@?$AA?$CF?$AAs?$AA?3?$AA?5?$AAW?$AAa?$AAi?$AAt?$AAF?$AAo?$AAr?$AAM?$AAu?$AAl?$AAt?$AAi?$AAp?$AAl?$AAe?$AAO?$AAb?$AAj?$AAe?$AAc?$AAt?$AAs?$AA?5?$AAr?$AAe?$AAt?$AAu?$AAr@| [ DATA ] ; `string'
	EXPORT	|??_C@_1CI@IDIGOIBE@?$AAP?$AAM?$AAM?$AAO?$AAN?$AA?$CB?$AAM?$AAo?$AAn?$AAT?$AAh?$AAr?$AAe?$AAa?$AAd?$AAP?$AAr?$AAo?$AAc?$AA?$AA@| [ DATA ] ; `string'
	EXPORT	|??_C@_1EC@INJDOOHN@?$AA?$CF?$AAs?$AA?3?$AA?5?$AAt?$AAe?$AAr?$AAm?$AAi?$AAn?$AAa?$AAt?$AAi?$AAo?$AAn?$AA?5?$AAe?$AAv?$AAe?$AAn?$AAt?$AA?5?$AAs?$AAi?$AAg?$AAn?$AAa?$AAl?$AAe?$AAd?$AA?$AN?$AA?6@| [ DATA ] ; `string'
	IMPORT	|WaitForMultipleObjects|
	IMPORT	|SetThreadPriority|
; File c:\wince600\public\common\sdk\inc\kfuncs.h

  00000			 AREA	 |.pdata|, PDATA
|$T39621| DCD	|$LN16@MonThreadP|
	DCD	0x40002f02

  00000			 AREA	 |.rdata|, DATA, READONLY
|??_C@_1GI@JCBCIBJH@?$AA?$CF?$AAs?$AA?3?$AA?5?$AAW?$AAa?$AAi?$AAt?$AAF?$AAo?$AAr?$AAM?$AAu?$AAl?$AAt?$AAi?$AAp?$AAl?$AAe?$AAO?$AAb?$AAj?$AAe?$AAc?$AAt?$AAs?$AA?5?$AAr?$AAe?$AAt?$AAu?$AAr@| DCB "%"
	DCB	0x0, "s", 0x0, ":", 0x0, " ", 0x0, "W", 0x0, "a", 0x0, "i"
	DCB	0x0, "t", 0x0, "F", 0x0, "o", 0x0, "r", 0x0, "M", 0x0, "u"
	DCB	0x0, "l", 0x0, "t", 0x0, "i", 0x0, "p", 0x0, "l", 0x0, "e"
	DCB	0x0, "O", 0x0, "b", 0x0, "j", 0x0, "e", 0x0, "c", 0x0, "t"
	DCB	0x0, "s", 0x0, " ", 0x0, "r", 0x0, "e", 0x0, "t", 0x0, "u"
	DCB	0x0, "r", 0x0, "n", 0x0, "e", 0x0, "d", 0x0, " ", 0x0, "%"
	DCB	0x0, "d", 0x0, " ", 0x0, "(", 0x0, "e", 0x0, "r", 0x0, "r"
	DCB	0x0, "o", 0x0, "r", 0x0, " ", 0x0, "%", 0x0, "d", 0x0, ")"
	DCB	0x0, 0xd, 0x0, 0xa, 0x0, 0x0, 0x0	; `string'

  00000			 AREA	 |.rdata|, DATA, READONLY
|??_C@_1CI@IDIGOIBE@?$AAP?$AAM?$AAM?$AAO?$AAN?$AA?$CB?$AAM?$AAo?$AAn?$AAT?$AAh?$AAr?$AAe?$AAa?$AAd?$AAP?$AAr?$AAo?$AAc?$AA?$AA@| DCB "P"
	DCB	0x0, "M", 0x0, "M", 0x0, "O", 0x0, "N", 0x0, "!", 0x0, "M"
	DCB	0x0, "o", 0x0, "n", 0x0, "T", 0x0, "h", 0x0, "r", 0x0, "e"
	DCB	0x0, "a", 0x0, "d", 0x0, "P", 0x0, "r", 0x0, "o", 0x0, "c"
	DCB	0x0, 0x0, 0x0				; `string'

  00000			 AREA	 |.rdata|, DATA, READONLY
|??_C@_1EC@INJDOOHN@?$AA?$CF?$AAs?$AA?3?$AA?5?$AAt?$AAe?$AAr?$AAm?$AAi?$AAn?$AAa?$AAt?$AAi?$AAo?$AAn?$AA?5?$AAe?$AAv?$AAe?$AAn?$AAt?$AA?5?$AAs?$AAi?$AAg?$AAn?$AAa?$AAl?$AAe?$AAd?$AA?$AN?$AA?6@| DCB "%"
	DCB	0x0, "s", 0x0, ":", 0x0, " ", 0x0, "t", 0x0, "e", 0x0, "r"
	DCB	0x0, "m", 0x0, "i", 0x0, "n", 0x0, "a", 0x0, "t", 0x0, "i"
	DCB	0x0, "o", 0x0, "n", 0x0, " ", 0x0, "e", 0x0, "v", 0x0, "e"
	DCB	0x0, "n", 0x0, "t", 0x0, " ", 0x0, "s", 0x0, "i", 0x0, "g"
	DCB	0x0, "n", 0x0, "a", 0x0, "l", 0x0, "e", 0x0, "d", 0x0, 0xd
	DCB	0x0, 0xa, 0x0, 0x0, 0x0			; `string'
; Function compile flags: /Ogspy
; File c:\wince600\platform\z2170p\src\test\pmtest\pmmon\mon.c

  00000			 AREA	 |.text|, CODE, ARM

  00000		 |MonThreadProc| PROC

; 234  : {

  00000		 |$LN16@MonThreadP|
  00000	e92d4030	 stmdb       sp!, {r4, r5, lr}
  00004	e24dd00c	 sub         sp, sp, #0xC
  00008		 |$M39618|

; 235  :     HANDLE hEvents[3];
; 236  :     LPTSTR pszFname = _T("PMMON!MonThreadProc");
; 237  : 
; 238  :     UNREFERENCED_PARAMETER(pvParam);
; 239  : 
; 240  :     ASSERT(ghPowerNotifications != NULL);
; 241  :     ASSERT(ghDeviceNotifications != NULL);
; 242  :     ASSERT(ghevTerminate != NULL);
; 243  : 
; 244  :     SetThreadPriority(GetCurrentThread(), THREAD_PRIORITY_ABOVE_NORMAL);

  00008	e3a01002	 mov         r1, #2
  0000c	e3a00041	 mov         r0, #0x41
  00010	eb000000	 bl          SetThreadPriority

; 245  : 
; 246  :     hEvents[0] = ghPowerNotifications;

  00014	e59f509c	 ldr         r5, [pc, #0x9C]

; 247  :     hEvents[1] = ghDeviceNotifications;
; 248  :     hEvents[2] = ghevTerminate;

  00018	e5953000	 ldr         r3, [r5]
  0001c	e5952004	 ldr         r2, [r5, #4]
  00020	e5951008	 ldr         r1, [r5, #8]
  00024	e58d3000	 str         r3, [sp]
  00028	e58d2004	 str         r2, [sp, #4]
  0002c	e58d1008	 str         r1, [sp, #8]
  00030		 |$LL8@MonThreadP|

; 249  : 
; 250  :     while (1) 
; 251  :     {
; 252  :         DWORD dwStatus;
; 253  : 
; 254  :         // Block on our message queue.
; 255  :         // This thread runs when the power manager writes a notification into the queue.
; 256  :         dwStatus = WaitForMultipleObjects(3, hEvents, FALSE, INFINITE);

  00030	e3e03000	 mvn         r3, #0
  00034	e3a02000	 mov         r2, #0
  00038	e28d1000	 add         r1, sp, #0
  0003c	e3a00003	 mov         r0, #3
  00040	eb000000	 bl          WaitForMultipleObjects
  00044	e1b04000	 movs        r4, r0

; 257  :         if(dwStatus == WAIT_OBJECT_0) {

  00048	1a000002	 bne         |$LN6@MonThreadP|

; 258  :             ProcessPowerNotification(ghPowerNotifications);

  0004c	e5950000	 ldr         r0, [r5]
  00050	eb000000	 bl          ProcessPowerNotification
  00054	eafffff5	 b           |$LL8@MonThreadP|
  00058		 |$LN6@MonThreadP|

; 259  :         } else if(dwStatus == (WAIT_OBJECT_0 + 1)) {

  00058	e3540001	 cmp         r4, #1
  0005c	1a000002	 bne         |$LN4@MonThreadP|

; 260  :             ProcessDeviceNotification(ghDeviceNotifications);

  00060	e5950004	 ldr         r0, [r5, #4]
  00064	eb000000	 bl          ProcessDeviceNotification
  00068	eafffff0	 b           |$LL8@MonThreadP|
  0006c		 |$LN4@MonThreadP|

; 261  :         } else if(dwStatus == (WAIT_OBJECT_0 + 2)) {

  0006c	e3540002	 cmp         r4, #2
  00070	1a000003	 bne         |$LN2@MonThreadP|

; 262  :             RetailPrint  (TEXT("%s: termination event signaled\r\n"), pszFname);

  00074	e59f1034	 ldr         r1, [pc, #0x34]
  00078	e59f0034	 ldr         r0, [pc, #0x34]
  0007c	eb000000	 bl          RetailPrint

; 266  :             break;
; 267  :         }
; 268  :     }

  00080	eaffffea	 b           |$LL8@MonThreadP|
  00084		 |$LN2@MonThreadP|

; 263  :         } else {
; 264  :             RetailPrint  (TEXT("%s: WaitForMultipleObjects returned %d (error %d)\r\n"), pszFname,
; 265  :                 dwStatus, GetLastError());

  00084	eb000000	 bl          GetLastError
  00088	e59f1020	 ldr         r1, [pc, #0x20]
  0008c	e1a03000	 mov         r3, r0
  00090	e59f0014	 ldr         r0, [pc, #0x14]
  00094	e1a02004	 mov         r2, r4
  00098	eb000000	 bl          RetailPrint

; 269  : 
; 270  :     return 0;

  0009c	e3a00000	 mov         r0, #0

; 271  : }

  000a0	e28dd00c	 add         sp, sp, #0xC
  000a4	e8bd4030	 ldmia       sp!, {r4, r5, lr}
  000a8	e12fff1e	 bx          lr
  000ac		 |$LN17@MonThreadP|
  000ac		 |$LN18@MonThreadP|
  000ac	00000000	 DCD         |??_C@_1GI@JCBCIBJH@?$AA?$CF?$AAs?$AA?3?$AA?5?$AAW?$AAa?$AAi?$AAt?$AAF?$AAo?$AAr?$AAM?$AAu?$AAl?$AAt?$AAi?$AAp?$AAl?$AAe?$AAO?$AAb?$AAj?$AAe?$AAc?$AAt?$AAs?$AA?5?$AAr?$AAe?$AAt?$AAu?$AAr@|
  000b0		 |$LN19@MonThreadP|
  000b0	00000000	 DCD         |??_C@_1CI@IDIGOIBE@?$AAP?$AAM?$AAM?$AAO?$AAN?$AA?$CB?$AAM?$AAo?$AAn?$AAT?$AAh?$AAr?$AAe?$AAa?$AAd?$AAP?$AAr?$AAo?$AAc?$AA?$AA@|
  000b4		 |$LN20@MonThreadP|
  000b4	00000000	 DCD         |??_C@_1EC@INJDOOHN@?$AA?$CF?$AAs?$AA?3?$AA?5?$AAt?$AAe?$AAr?$AAm?$AAi?$AAn?$AAa?$AAt?$AAi?$AAo?$AAn?$AA?5?$AAe?$AAv?$AAe?$AAn?$AAt?$AA?5?$AAs?$AAi?$AAg?$AAn?$AAa?$AAl?$AAe?$AAd?$AA?$AN?$AA?6@|
  000b8		 |$LN21@MonThreadP|
  000b8	00000000	 DCD         |ghPowerNotifications|
  000bc		 |$M39619|

			 ENDP  ; |MonThreadProc|

	EXPORT	|__$ArrayPad$| [ DATA ]
	EXPORT	|RequestPMDeviceNotifications|
	EXPORT	|??_C@_1FM@MMAENAFE@?$AA?$CF?$AAs?$AA?3?$AA?5?$AAR?$AAe?$AAq?$AAu?$AAe?$AAs?$AAt?$AAD?$AAe?$AAv?$AAi?$AAc?$AAe?$AAN?$AAo?$AAt?$AAi?$AAf?$AAi?$AAc?$AAa?$AAt?$AAi?$AAo?$AAn?$AAs?$AA?$CI?$AA?8@| [ DATA ] ; `string'
	EXPORT	|??_C@_1EC@OJCNELMO@?$AA?$CF?$AAs?$AA?3?$AA?5?$AAc?$AAa?$AAn?$AA?8?$AAt?$AA?5?$AAc?$AAo?$AAn?$AAv?$AAe?$AAr?$AAt?$AA?5?$AA?8?$AA?$CF?$AAs?$AA?8?$AA?5?$AAt?$AAo?$AA?5?$AAG?$AAU?$AAI?$AAD?$AA?$AN?$AA?6@| [ DATA ] ; `string'
	EXPORT	|??_C@_1EG@POPNEHC@?$AAP?$AAM?$AAM?$AAO?$AAN?$AA?$CB?$AAR?$AAe?$AAq?$AAu?$AAe?$AAs?$AAt?$AAP?$AAM?$AAD?$AAe?$AAv?$AAi?$AAc?$AAe?$AAN?$AAo?$AAt?$AAi?$AAf?$AAi?$AAc?$AAa?$AAt?$AAi?$AAo@| [ DATA ] ; `string'
	EXPORT	|??_C@_1EE@DAMLNPFA@?$AA?$CF?$AAs?$AA?3?$AA?5?$AAi?$AAn?$AAv?$AAa?$AAl?$AAi?$AAd?$AA?5?$AAt?$AAy?$AAp?$AAe?$AA?5?$AAf?$AAo?$AAr?$AA?5?$AAv?$AAa?$AAl?$AAu?$AAe?$AA?5?$AA?8?$AA?$CF?$AAs?$AA?8?$AA?$AN@| [ DATA ] ; `string'
	IMPORT	|RequestDeviceNotifications|
	IMPORT	|RegEnumValueW|

  00000			 AREA	 |.pdata|, PDATA
|$T39648| DCD	|$LN21@RequestPMD|
	DCD	0xc0005802

  00000			 AREA	 |.xdata|, DATA
|$T39644| DCD	0xffffffd8

  00000			 AREA	 |.rdata|, DATA, READONLY
|??_C@_1FM@MMAENAFE@?$AA?$CF?$AAs?$AA?3?$AA?5?$AAR?$AAe?$AAq?$AAu?$AAe?$AAs?$AAt?$AAD?$AAe?$AAv?$AAi?$AAc?$AAe?$AAN?$AAo?$AAt?$AAi?$AAf?$AAi?$AAc?$AAa?$AAt?$AAi?$AAo?$AAn?$AAs?$AA?$CI?$AA?8@| DCB "%"
	DCB	0x0, "s", 0x0, ":", 0x0, " ", 0x0, "R", 0x0, "e", 0x0, "q"
	DCB	0x0, "u", 0x0, "e", 0x0, "s", 0x0, "t", 0x0, "D", 0x0, "e"
	DCB	0x0, "v", 0x0, "i", 0x0, "c", 0x0, "e", 0x0, "N", 0x0, "o"
	DCB	0x0, "t", 0x0, "i", 0x0, "f", 0x0, "i", 0x0, "c", 0x0, "a"
	DCB	0x0, "t", 0x0, "i", 0x0, "o", 0x0, "n", 0x0, "s", 0x0, "("
	DCB	0x0, "'", 0x0, "%", 0x0, "s", 0x0, "'", 0x0, ")", 0x0, " "
	DCB	0x0, "f", 0x0, "a", 0x0, "i", 0x0, "l", 0x0, "e", 0x0, "d"
	DCB	0x0, 0xd, 0x0, 0xa, 0x0, 0x0, 0x0	; `string'

  00000			 AREA	 |.rdata|, DATA, READONLY
|??_C@_1EC@OJCNELMO@?$AA?$CF?$AAs?$AA?3?$AA?5?$AAc?$AAa?$AAn?$AA?8?$AAt?$AA?5?$AAc?$AAo?$AAn?$AAv?$AAe?$AAr?$AAt?$AA?5?$AA?8?$AA?$CF?$AAs?$AA?8?$AA?5?$AAt?$AAo?$AA?5?$AAG?$AAU?$AAI?$AAD?$AA?$AN?$AA?6@| DCB "%"
	DCB	0x0, "s", 0x0, ":", 0x0, " ", 0x0, "c", 0x0, "a", 0x0, "n"
	DCB	0x0, "'", 0x0, "t", 0x0, " ", 0x0, "c", 0x0, "o", 0x0, "n"
	DCB	0x0, "v", 0x0, "e", 0x0, "r", 0x0, "t", 0x0, " ", 0x0, "'"
	DCB	0x0, "%", 0x0, "s", 0x0, "'", 0x0, " ", 0x0, "t", 0x0, "o"
	DCB	0x0, " ", 0x0, "G", 0x0, "U", 0x0, "I", 0x0, "D", 0x0, 0xd
	DCB	0x0, 0xa, 0x0, 0x0, 0x0			; `string'

  00000			 AREA	 |.rdata|, DATA, READONLY
|??_C@_1EG@POPNEHC@?$AAP?$AAM?$AAM?$AAO?$AAN?$AA?$CB?$AAR?$AAe?$AAq?$AAu?$AAe?$AAs?$AAt?$AAP?$AAM?$AAD?$AAe?$AAv?$AAi?$AAc?$AAe?$AAN?$AAo?$AAt?$AAi?$AAf?$AAi?$AAc?$AAa?$AAt?$AAi?$AAo@| DCB "P"
	DCB	0x0, "M", 0x0, "M", 0x0, "O", 0x0, "N", 0x0, "!", 0x0, "R"
	DCB	0x0, "e", 0x0, "q", 0x0, "u", 0x0, "e", 0x0, "s", 0x0, "t"
	DCB	0x0, "P", 0x0, "M", 0x0, "D", 0x0, "e", 0x0, "v", 0x0, "i"
	DCB	0x0, "c", 0x0, "e", 0x0, "N", 0x0, "o", 0x0, "t", 0x0, "i"
	DCB	0x0, "f", 0x0, "i", 0x0, "c", 0x0, "a", 0x0, "t", 0x0, "i"
	DCB	0x0, "o", 0x0, "n", 0x0, "s", 0x0, 0x0, 0x0 ; `string'

  00000			 AREA	 |.rdata|, DATA, READONLY
|??_C@_1EE@DAMLNPFA@?$AA?$CF?$AAs?$AA?3?$AA?5?$AAi?$AAn?$AAv?$AAa?$AAl?$AAi?$AAd?$AA?5?$AAt?$AAy?$AAp?$AAe?$AA?5?$AAf?$AAo?$AAr?$AA?5?$AAv?$AAa?$AAl?$AAu?$AAe?$AA?5?$AA?8?$AA?$CF?$AAs?$AA?8?$AA?$AN@| DCB "%"
	DCB	0x0, "s", 0x0, ":", 0x0, " ", 0x0, "i", 0x0, "n", 0x0, "v"
	DCB	0x0, "a", 0x0, "l", 0x0, "i", 0x0, "d", 0x0, " ", 0x0, "t"
	DCB	0x0, "y", 0x0, "p", 0x0, "e", 0x0, " ", 0x0, "f", 0x0, "o"
	DCB	0x0, "r", 0x0, " ", 0x0, "v", 0x0, "a", 0x0, "l", 0x0, "u"
	DCB	0x0, "e", 0x0, " ", 0x0, "'", 0x0, "%", 0x0, "s", 0x0, "'"
	DCB	0x0, 0xd, 0x0, 0xa, 0x0, 0x0, 0x0	; `string'
; Function compile flags: /Ogspy

  00000			 AREA	 |.text|, CODE, ARM

  00000	00000000	 DCD         |__GSHandlerCheck|
  00004	00000000	 DCD         |$T39644|

  00008		 |RequestPMDeviceNotifications| PROC

; 306  : {

  00008		 |$LN21@RequestPMD|
  00008	e92d4ff0	 stmdb       sp!, {r4 - r11, lr}
  0000c	e24ddf8e	 sub         sp, sp, #0x8E, 30
  00010		 |$M39645|
  00010	e1a06001	 mov         r6, r1
  00014	e1a09000	 mov         r9, r0
  00018	e59f3144	 ldr         r3, [pc, #0x144]
  0001c	e5933000	 ldr         r3, [r3]
  00020	e58d3234	 str         r3, [sp, #0x234]

; 307  :     BOOL fOk = TRUE;
; 308  :     DWORD dwStatus;
; 309  :     HKEY hk;
; 310  :     TCHAR szBuf[MAX_PATH];
; 311  :     LPTSTR pszFname = _T("PMMON!RequestPMDeviceNotifications");
; 312  : 
; 313  :     // enumerate all the device classes
; 314  :     wsprintf(szBuf, _T("%s\\Interfaces"), PWRMGR_REG_KEY);

  00024	e59f2134	 ldr         r2, [pc, #0x134]
  00028	e59f112c	 ldr         r1, [pc, #0x12C]
  0002c	e28d002c	 add         r0, sp, #0x2C
  00030	e3a04001	 mov         r4, #1
  00034	eb000000	 bl          wsprintfW

; 315  :     dwStatus = RegOpenKeyEx(HKEY_LOCAL_MACHINE, szBuf, 0, 0, &hk);

  00038	e28d3010	 add         r3, sp, #0x10
  0003c	e58d3000	 str         r3, [sp]
  00040	e3a03000	 mov         r3, #0
  00044	e3a02000	 mov         r2, #0
  00048	e28d102c	 add         r1, sp, #0x2C
  0004c	e3a0010a	 mov         r0, #0xA, 2
  00050	eb000000	 bl          RegOpenKeyExW
  00054	e3500000	 cmp         r0, #0

; 316  :     if(dwStatus == ERROR_SUCCESS) {

  00058	1a000034	 bne         |$LN13@RequestPMD|

; 317  :         DWORD dwIndex = 0;

  0005c	e59fb0f4	 ldr         r11, [pc, #0xF4]
  00060	e3a08000	 mov         r8, #0

; 318  :         DWORD dwNotificationIndex = 0;

  00064	e3a05000	 mov         r5, #0
  00068	e3a04000	 mov         r4, #0
  0006c	e3a0ef41	 mov         lr, #0x41, 30
  00070	e28da014	 add         r10, sp, #0x14
  00074		 |$LL12@RequestPMD|

; 319  :         do {
; 320  :             DWORD cbValueName = MAX_PATH, dwType;
; 321  :             GUID idInterface;
; 322  : 
; 323  :             dwStatus = RegEnumValue(hk, dwIndex, szBuf, &cbValueName, NULL,
; 324  :                 &dwType, NULL, NULL);

  00074	e59d0010	 ldr         r0, [sp, #0x10]
  00078	e28d3018	 add         r3, sp, #0x18
  0007c	e28d202c	 add         r2, sp, #0x2C
  00080	e1a01008	 mov         r1, r8
  00084	e58de018	 str         lr, [sp, #0x18]
  00088	e58d400c	 str         r4, [sp, #0xC]
  0008c	e58d4008	 str         r4, [sp, #8]
  00090	e58da004	 str         r10, [sp, #4]
  00094	e58d4000	 str         r4, [sp]
  00098	eb000000	 bl          RegEnumValueW
  0009c	e1b07000	 movs        r7, r0

; 325  :             if(dwStatus == ERROR_SUCCESS) {

  000a0	1a00001b	 bne         |$LN2@RequestPMD|

; 326  :                 if(dwType != REG_SZ) {

  000a4	e59d3014	 ldr         r3, [sp, #0x14]
  000a8	e3530001	 cmp         r3, #1

; 327  :                     RetailPrint  (_T("%s: invalid type for value '%s'\r\n"),
; 328  :                         pszFname, szBuf);

  000ac	159f00a0	 ldrne       r0, [pc, #0xA0]
  000b0	1a00000d	 bne         |$LN18@RequestPMD|

; 329  :                 } else if(!ConvertStringToGuid(szBuf, &idInterface)) {

  000b4	e28d101c	 add         r1, sp, #0x1C
  000b8	e28d002c	 add         r0, sp, #0x2C
  000bc	eb000000	 bl          ConvertStringToGuid
  000c0	e3500000	 cmp         r0, #0

; 330  :                     RetailPrint  (_T("%s: can't convert '%s' to GUID\r\n"),
; 331  :                         pszFname, szBuf);

  000c4	059f0084	 ldreq       r0, [pc, #0x84]
  000c8	0a000007	 beq         |$LN18@RequestPMD|

; 332  :                 } else if((phNotifications[dwNotificationIndex] = RequestDeviceNotifications(&idInterface, ghDeviceNotifications, TRUE)) == NULL) {

  000cc	e59b1000	 ldr         r1, [r11]
  000d0	e3a02001	 mov         r2, #1
  000d4	e28d001c	 add         r0, sp, #0x1C
  000d8	eb000000	 bl          RequestDeviceNotifications
  000dc	e3500000	 cmp         r0, #0
  000e0	e5860000	 str         r0, [r6]
  000e4	1a000004	 bne         |$LN4@RequestPMD|

; 333  :                     RetailPrint  (_T("%s: RequestDeviceNotifications('%s') failed\r\n"), 
; 334  :                         pszFname, szBuf);

  000e8	e59f005c	 ldr         r0, [pc, #0x5C]
  000ec		 |$LN18@RequestPMD|
  000ec	e59f1054	 ldr         r1, [pc, #0x54]
  000f0	e28d202c	 add         r2, sp, #0x2C
  000f4	eb000000	 bl          RetailPrint

; 335  :                 } else {

  000f8	ea000001	 b           |$LN3@RequestPMD|
  000fc		 |$LN4@RequestPMD|

; 336  :                     dwNotificationIndex++;

  000fc	e2855001	 add         r5, r5, #1
  00100	e2866004	 add         r6, r6, #4
  00104		 |$LN3@RequestPMD|

; 337  :                 }
; 338  : 
; 339  :                 // update the index
; 340  :                 dwIndex++;

  00104	e2888001	 add         r8, r8, #1

; 341  :             }
; 342  :         } while(dwStatus == ERROR_SUCCESS && dwNotificationIndex < cNotifications);

  00108	e1550009	 cmp         r5, r9
  0010c	e3a0ef41	 mov         lr, #0x41, 30
  00110	3affffd7	 bcc         |$LL12@RequestPMD|
  00114		 |$LN2@RequestPMD|
  00114	e3a03c01	 mov         r3, #1, 24

; 343  : 
; 344  :         // check for abnormal termination of the loop
; 345  :         if(dwStatus != ERROR_NO_MORE_ITEMS) {
; 346  :             fOk = FALSE;
; 347  :         }
; 348  : 
; 349  :         // close the registry handle
; 350  :         RegCloseKey(hk);

  00118	e59d0010	 ldr         r0, [sp, #0x10]
  0011c	e3833003	 orr         r3, r3, #3
  00120	e1570003	 cmp         r7, r3
  00124	e3a04001	 mov         r4, #1
  00128	13a04000	 movne       r4, #0
  0012c	eb000000	 bl          RegCloseKey
  00130		 |$LN13@RequestPMD|

; 351  :     }
; 352  : 
; 353  :     return fOk;

  00130	e59d0234	 ldr         r0, [sp, #0x234]
  00134	eb000000	 bl          __security_check_cookie

; 354  : }

  00138	e1a00004	 mov         r0, r4
  0013c	e28ddf8e	 add         sp, sp, #0x8E, 30
  00140	e8bd4ff0	 ldmia       sp!, {r4 - r11, lr}
  00144	e12fff1e	 bx          lr
  00148		 |$LN22@RequestPMD|
  00148		 |$LN23@RequestPMD|
  00148	00000000	 DCD         |??_C@_1EG@POPNEHC@?$AAP?$AAM?$AAM?$AAO?$AAN?$AA?$CB?$AAR?$AAe?$AAq?$AAu?$AAe?$AAs?$AAt?$AAP?$AAM?$AAD?$AAe?$AAv?$AAi?$AAc?$AAe?$AAN?$AAo?$AAt?$AAi?$AAf?$AAi?$AAc?$AAa?$AAt?$AAi?$AAo@|
  0014c		 |$LN24@RequestPMD|
  0014c	00000000	 DCD         |??_C@_1FM@MMAENAFE@?$AA?$CF?$AAs?$AA?3?$AA?5?$AAR?$AAe?$AAq?$AAu?$AAe?$AAs?$AAt?$AAD?$AAe?$AAv?$AAi?$AAc?$AAe?$AAN?$AAo?$AAt?$AAi?$AAf?$AAi?$AAc?$AAa?$AAt?$AAi?$AAo?$AAn?$AAs?$AA?$CI?$AA?8@|
  00150		 |$LN25@RequestPMD|
  00150	00000000	 DCD         |??_C@_1EC@OJCNELMO@?$AA?$CF?$AAs?$AA?3?$AA?5?$AAc?$AAa?$AAn?$AA?8?$AAt?$AA?5?$AAc?$AAo?$AAn?$AAv?$AAe?$AAr?$AAt?$AA?5?$AA?8?$AA?$CF?$AAs?$AA?8?$AA?5?$AAt?$AAo?$AA?5?$AAG?$AAU?$AAI?$AAD?$AA?$AN?$AA?6@|
  00154		 |$LN26@RequestPMD|
  00154	00000000	 DCD         |??_C@_1EE@DAMLNPFA@?$AA?$CF?$AAs?$AA?3?$AA?5?$AAi?$AAn?$AAv?$AAa?$AAl?$AAi?$AAd?$AA?5?$AAt?$AAy?$AAp?$AAe?$AA?5?$AAf?$AAo?$AAr?$AA?5?$AAv?$AAa?$AAl?$AAu?$AAe?$AA?5?$AA?8?$AA?$CF?$AAs?$AA?8?$AA?$AN@|
  00158		 |$LN27@RequestPMD|
  00158	00000000	 DCD         |ghDeviceNotifications|
  0015c		 |$LN28@RequestPMD|
  0015c	00000000	 DCD         |??_C@_1BM@OBHJEKIL@?$AA?$CF?$AAs?$AA?2?$AAI?$AAn?$AAt?$AAe?$AAr?$AAf?$AAa?$AAc?$AAe?$AAs?$AA?$AA@|
  00160		 |$LN29@RequestPMD|
  00160	00000000	 DCD         |??_C@_1EO@PFEFPDAL@?$AAS?$AAY?$AAS?$AAT?$AAE?$AAM?$AA?2?$AAC?$AAu?$AAr?$AAr?$AAe?$AAn?$AAt?$AAC?$AAo?$AAn?$AAt?$AAr?$AAo?$AAl?$AAS?$AAe?$AAt?$AA?2?$AAC?$AAo?$AAn?$AAt?$AAr?$AAo?$AAl@|
  00164		 |$LN30@RequestPMD|
  00164	00000000	 DCD         |__security_cookie|
  00168		 |$M39646|

			 ENDP  ; |RequestPMDeviceNotifications|

	EXPORT	|WinMain|
	EXPORT	|??_C@_1BM@OBNKDNPL@?$AA?$CF?$AAs?$AA?3?$AA?5?$AAe?$AAx?$AAi?$AAt?$AAi?$AAn?$AAg?$AA?$AN?$AA?6?$AA?$AA@| [ DATA ] ; `string'
	EXPORT	|??_C@_1EA@HKAEIKIF@?$AA?$CF?$AAs?$AA?3?$AAC?$AAr?$AAe?$AAa?$AAt?$AAe?$AAM?$AAs?$AAg?$AAQ?$AAu?$AAe?$AAu?$AAe?$AA?$CI?$AA?$CJ?$AA?5?$AAf?$AAa?$AAi?$AAl?$AAe?$AAd?$AA?5?$AA?$CF?$AAd?$AA?$AN?$AA?6?$AA?$AA@| [ DATA ] ; `string'
	EXPORT	|??_C@_1EO@MNGHIKIN@?$AA?$CF?$AAs?$AA?3?$AAR?$AAe?$AAq?$AAu?$AAe?$AAs?$AAt?$AAP?$AAo?$AAw?$AAe?$AAr?$AAN?$AAo?$AAt?$AAi?$AAf?$AAi?$AAc?$AAa?$AAt?$AAi?$AAo?$AAn?$AAs?$AA?5?$AAE?$AAR?$AAR@| [ DATA ] ; `string'
	EXPORT	|??_C@_1EA@EMMEOLDM@?$AA?$CF?$AAs?$AA?3?$AAC?$AAr?$AAe?$AAa?$AAt?$AAe?$AAM?$AAe?$AAs?$AAs?$AAa?$AAg?$AAe?$AAQ?$AAu?$AAe?$AAu?$AAe?$AA?5?$AAE?$AAR?$AAR?$AAO?$AAR?$AA?3?$AA?$CF?$AAd?$AA?6?$AA?$AA@| [ DATA ] ; `string'
	EXPORT	|??_C@_1EE@MGFABJCD@?$AA?$CF?$AAs?$AA?3?$AA?5?$AAS?$AAi?$AAg?$AAn?$AAa?$AAl?$AAi?$AAn?$AAg?$AA?5?$AAt?$AAe?$AAr?$AAm?$AAi?$AAn?$AAa?$AAt?$AAi?$AAo?$AAn?$AA?5?$AAe?$AAv?$AAe?$AAn?$AAt?$AA?$AN@| [ DATA ] ; `string'
	EXPORT	|??_C@_1BM@EHNMKFIL@?$AAP?$AAM?$AAM?$AAO?$AAN?$AA?3?$AAW?$AAi?$AAn?$AAM?$AAa?$AAi?$AAn?$AA?$AA@| [ DATA ] ; `string'
	EXPORT	|??_C@_1GI@FIOBDCFJ@?$AA?$CF?$AAs?$AA?3?$AA?5?$AAC?$AAr?$AAe?$AAa?$AAt?$AAe?$AAE?$AAv?$AAe?$AAn?$AAt?$AA?$CI?$AA?$CJ?$AA?5?$AAf?$AAa?$AAi?$AAl?$AAe?$AAd?$AA?5?$AA?$CF?$AAd?$AA?5?$AAf?$AAo?$AAr?$AA?5@| [ DATA ] ; `string'
	EXPORT	|??_C@_1FA@NIDJIEFI@?$AAS?$AAO?$AAF?$AAT?$AAW?$AAA?$AAR?$AAE?$AA?1?$AAP?$AAM?$AAT?$AAe?$AAs?$AAt?$AAP?$AAr?$AAo?$AAg?$AAr?$AAa?$AAm?$AAs?$AA?1?$AAP?$AAM?$AAM?$AAO?$AAN?$AA?1?$AAT?$AAe@| [ DATA ] ; `string'
	IMPORT	|StopDeviceNotifications|
	IMPORT	|CloseMsgQueue|
	IMPORT	|StopPowerNotifications|
	IMPORT	|CloseHandle|
	IMPORT	|WaitForSingleObject|
	IMPORT	|CreateThread|
	IMPORT	|RequestPowerNotifications|
	IMPORT	|CreateMsgQueue|
	IMPORT	|CreateEventW|
; File c:\wince600\public\common\sdk\inc\kfuncs.h

  00000			 AREA	 |.pdata|, PDATA
|$T39681| DCD	|$LN24@WinMain|
	DCD	0x40009402

  00000			 AREA	 |.rdata|, DATA, READONLY
|??_C@_1BM@OBNKDNPL@?$AA?$CF?$AAs?$AA?3?$AA?5?$AAe?$AAx?$AAi?$AAt?$AAi?$AAn?$AAg?$AA?$AN?$AA?6?$AA?$AA@| DCB "%"
	DCB	0x0, "s", 0x0, ":", 0x0, " ", 0x0, "e", 0x0, "x", 0x0, "i"
	DCB	0x0, "t", 0x0, "i", 0x0, "n", 0x0, "g", 0x0, 0xd, 0x0, 0xa
	DCB	0x0, 0x0, 0x0				; `string'

  00000			 AREA	 |.rdata|, DATA, READONLY
|??_C@_1EA@HKAEIKIF@?$AA?$CF?$AAs?$AA?3?$AAC?$AAr?$AAe?$AAa?$AAt?$AAe?$AAM?$AAs?$AAg?$AAQ?$AAu?$AAe?$AAu?$AAe?$AA?$CI?$AA?$CJ?$AA?5?$AAf?$AAa?$AAi?$AAl?$AAe?$AAd?$AA?5?$AA?$CF?$AAd?$AA?$AN?$AA?6?$AA?$AA@| DCB "%"
	DCB	0x0, "s", 0x0, ":", 0x0, "C", 0x0, "r", 0x0, "e", 0x0, "a"
	DCB	0x0, "t", 0x0, "e", 0x0, "M", 0x0, "s", 0x0, "g", 0x0, "Q"
	DCB	0x0, "u", 0x0, "e", 0x0, "u", 0x0, "e", 0x0, "(", 0x0, ")"
	DCB	0x0, " ", 0x0, "f", 0x0, "a", 0x0, "i", 0x0, "l", 0x0, "e"
	DCB	0x0, "d", 0x0, " ", 0x0, "%", 0x0, "d", 0x0, 0xd, 0x0, 0xa
	DCB	0x0, 0x0, 0x0				; `string'

  00000			 AREA	 |.rdata|, DATA, READONLY
|??_C@_1EO@MNGHIKIN@?$AA?$CF?$AAs?$AA?3?$AAR?$AAe?$AAq?$AAu?$AAe?$AAs?$AAt?$AAP?$AAo?$AAw?$AAe?$AAr?$AAN?$AAo?$AAt?$AAi?$AAf?$AAi?$AAc?$AAa?$AAt?$AAi?$AAo?$AAn?$AAs?$AA?5?$AAE?$AAR?$AAR@| DCB "%"
	DCB	0x0, "s", 0x0, ":", 0x0, "R", 0x0, "e", 0x0, "q", 0x0, "u"
	DCB	0x0, "e", 0x0, "s", 0x0, "t", 0x0, "P", 0x0, "o", 0x0, "w"
	DCB	0x0, "e", 0x0, "r", 0x0, "N", 0x0, "o", 0x0, "t", 0x0, "i"
	DCB	0x0, "f", 0x0, "i", 0x0, "c", 0x0, "a", 0x0, "t", 0x0, "i"
	DCB	0x0, "o", 0x0, "n", 0x0, "s", 0x0, " ", 0x0, "E", 0x0, "R"
	DCB	0x0, "R", 0x0, "O", 0x0, "R", 0x0, ":", 0x0, "%", 0x0, "d"
	DCB	0x0, 0xa, 0x0, 0x0, 0x0			; `string'

  00000			 AREA	 |.rdata|, DATA, READONLY
|??_C@_1EA@EMMEOLDM@?$AA?$CF?$AAs?$AA?3?$AAC?$AAr?$AAe?$AAa?$AAt?$AAe?$AAM?$AAe?$AAs?$AAs?$AAa?$AAg?$AAe?$AAQ?$AAu?$AAe?$AAu?$AAe?$AA?5?$AAE?$AAR?$AAR?$AAO?$AAR?$AA?3?$AA?$CF?$AAd?$AA?6?$AA?$AA@| DCB "%"
	DCB	0x0, "s", 0x0, ":", 0x0, "C", 0x0, "r", 0x0, "e", 0x0, "a"
	DCB	0x0, "t", 0x0, "e", 0x0, "M", 0x0, "e", 0x0, "s", 0x0, "s"
	DCB	0x0, "a", 0x0, "g", 0x0, "e", 0x0, "Q", 0x0, "u", 0x0, "e"
	DCB	0x0, "u", 0x0, "e", 0x0, " ", 0x0, "E", 0x0, "R", 0x0, "R"
	DCB	0x0, "O", 0x0, "R", 0x0, ":", 0x0, "%", 0x0, "d", 0x0, 0xa
	DCB	0x0, 0x0, 0x0				; `string'

  00000			 AREA	 |.rdata|, DATA, READONLY
|??_C@_1EE@MGFABJCD@?$AA?$CF?$AAs?$AA?3?$AA?5?$AAS?$AAi?$AAg?$AAn?$AAa?$AAl?$AAi?$AAn?$AAg?$AA?5?$AAt?$AAe?$AAr?$AAm?$AAi?$AAn?$AAa?$AAt?$AAi?$AAo?$AAn?$AA?5?$AAe?$AAv?$AAe?$AAn?$AAt?$AA?$AN@| DCB "%"
	DCB	0x0, "s", 0x0, ":", 0x0, " ", 0x0, "S", 0x0, "i", 0x0, "g"
	DCB	0x0, "n", 0x0, "a", 0x0, "l", 0x0, "i", 0x0, "n", 0x0, "g"
	DCB	0x0, " ", 0x0, "t", 0x0, "e", 0x0, "r", 0x0, "m", 0x0, "i"
	DCB	0x0, "n", 0x0, "a", 0x0, "t", 0x0, "i", 0x0, "o", 0x0, "n"
	DCB	0x0, " ", 0x0, "e", 0x0, "v", 0x0, "e", 0x0, "n", 0x0, "t"
	DCB	0x0, 0xd, 0x0, 0xa, 0x0, 0x0, 0x0	; `string'

  00000			 AREA	 |.rdata|, DATA, READONLY
|??_C@_1BM@EHNMKFIL@?$AAP?$AAM?$AAM?$AAO?$AAN?$AA?3?$AAW?$AAi?$AAn?$AAM?$AAa?$AAi?$AAn?$AA?$AA@| DCB "P"
	DCB	0x0, "M", 0x0, "M", 0x0, "O", 0x0, "N", 0x0, ":", 0x0, "W"
	DCB	0x0, "i", 0x0, "n", 0x0, "M", 0x0, "a", 0x0, "i", 0x0, "n"
	DCB	0x0, 0x0, 0x0				; `string'

  00000			 AREA	 |.rdata|, DATA, READONLY
|??_C@_1GI@FIOBDCFJ@?$AA?$CF?$AAs?$AA?3?$AA?5?$AAC?$AAr?$AAe?$AAa?$AAt?$AAe?$AAE?$AAv?$AAe?$AAn?$AAt?$AA?$CI?$AA?$CJ?$AA?5?$AAf?$AAa?$AAi?$AAl?$AAe?$AAd?$AA?5?$AA?$CF?$AAd?$AA?5?$AAf?$AAo?$AAr?$AA?5@| DCB "%"
	DCB	0x0, "s", 0x0, ":", 0x0, " ", 0x0, "C", 0x0, "r", 0x0, "e"
	DCB	0x0, "a", 0x0, "t", 0x0, "e", 0x0, "E", 0x0, "v", 0x0, "e"
	DCB	0x0, "n", 0x0, "t", 0x0, "(", 0x0, ")", 0x0, " ", 0x0, "f"
	DCB	0x0, "a", 0x0, "i", 0x0, "l", 0x0, "e", 0x0, "d", 0x0, " "
	DCB	0x0, "%", 0x0, "d", 0x0, " ", 0x0, "f", 0x0, "o", 0x0, "r"
	DCB	0x0, " ", 0x0, "t", 0x0, "e", 0x0, "r", 0x0, "m", 0x0, "i"
	DCB	0x0, "n", 0x0, "a", 0x0, "t", 0x0, "i", 0x0, "o", 0x0, "n"
	DCB	0x0, " ", 0x0, "e", 0x0, "v", 0x0, "e", 0x0, "n", 0x0, "t"
	DCB	0x0, 0xd, 0x0, 0xa, 0x0, 0x0, 0x0	; `string'

  00000			 AREA	 |.rdata|, DATA, READONLY
|??_C@_1FA@NIDJIEFI@?$AAS?$AAO?$AAF?$AAT?$AAW?$AAA?$AAR?$AAE?$AA?1?$AAP?$AAM?$AAT?$AAe?$AAs?$AAt?$AAP?$AAr?$AAo?$AAg?$AAr?$AAa?$AAm?$AAs?$AA?1?$AAP?$AAM?$AAM?$AAO?$AAN?$AA?1?$AAT?$AAe@| DCB "S"
	DCB	0x0, "O", 0x0, "F", 0x0, "T", 0x0, "W", 0x0, "A", 0x0, "R"
	DCB	0x0, "E", 0x0, "/", 0x0, "P", 0x0, "M", 0x0, "T", 0x0, "e"
	DCB	0x0, "s", 0x0, "t", 0x0, "P", 0x0, "r", 0x0, "o", 0x0, "g"
	DCB	0x0, "r", 0x0, "a", 0x0, "m", 0x0, "s", 0x0, "/", 0x0, "P"
	DCB	0x0, "M", 0x0, "M", 0x0, "O", 0x0, "N", 0x0, "/", 0x0, "T"
	DCB	0x0, "e", 0x0, "r", 0x0, "m", 0x0, "i", 0x0, "n", 0x0, "a"
	DCB	0x0, "t", 0x0, "e", 0x0, 0x0, 0x0	; `string'
; Function compile flags: /Ogspy
; File c:\wince600\platform\z2170p\src\test\pmtest\pmmon\mon.c

  00000			 AREA	 |.text|, CODE, ARM

  00000		 |WinMain| PROC

; 357  : {

  00000		 |$LN24@WinMain|
  00000	e92d4070	 stmdb       sp!, {r4 - r6, lr}
  00004	e24ddf47	 sub         sp, sp, #0x47, 30
  00008		 |$M39678|

; 358  :     HANDLE hNotifications = NULL;
; 359  :     HANDLE hDeviceNotifications[64];
; 360  :     HANDLE ht;
; 361  :     int i;
; 362  :     LPTSTR pszFname = _T("PMMON:WinMain");
; 363  :     
; 364  :     MSGQUEUEOPTIONS msgOptions = {0};   

  00008	e3a03000	 mov         r3, #0
  0000c	e58d3008	 str         r3, [sp, #8]
  00010	e3a03000	 mov         r3, #0

; 365  : 
; 366  :     UNREFERENCED_PARAMETER(hInst);
; 367  :     UNREFERENCED_PARAMETER(hPrevInst);
; 368  :     UNREFERENCED_PARAMETER(lpCmdLine);
; 369  :     UNREFERENCED_PARAMETER(nCmShow);
; 370  : 
; 371  :     // clear globals
; 372  :     memset(hDeviceNotifications, 0, sizeof(hDeviceNotifications));

  00014	e3a02c01	 mov         r2, #1, 24
  00018	e3a01000	 mov         r1, #0
  0001c	e28d001c	 add         r0, sp, #0x1C
  00020	e58d300c	 str         r3, [sp, #0xC]
  00024	e58d3010	 str         r3, [sp, #0x10]
  00028	e58d3014	 str         r3, [sp, #0x14]
  0002c	e58d3018	 str         r3, [sp, #0x18]
  00030	eb000000	 bl          memset

; 373  : 
; 374  :     // create a termination event
; 375  :     ghevTerminate = CreateEvent(NULL, FALSE, FALSE, _T("SOFTWARE/PMTestPrograms/PMMON/Terminate"));

  00034	e59f3210	 ldr         r3, [pc, #0x210]
  00038	e3a02000	 mov         r2, #0
  0003c	e3a01000	 mov         r1, #0
  00040	e3a00000	 mov         r0, #0
  00044	eb000000	 bl          CreateEventW
  00048	e59f41f8	 ldr         r4, [pc, #0x1F8]
  0004c	e3500000	 cmp         r0, #0
  00050	e5840008	 str         r0, [r4, #8]

; 376  :     if(ghevTerminate == NULL) {

  00054	1a000005	 bne         |$LN13@WinMain|

; 377  :         RetailPrint  (_T("%s: CreateEvent() failed %d for termination event\r\n"),
; 378  :             pszFname, GetLastError());

  00058	eb000000	 bl          GetLastError
  0005c	e1a02000	 mov         r2, r0
  00060	e59f01dc	 ldr         r0, [pc, #0x1DC]
  00064		 |$LN21@WinMain|
  00064	e59f11bc	 ldr         r1, [pc, #0x1BC]
  00068	eb000000	 bl          RetailPrint

; 379  :         goto _Exit;

  0006c	ea000052	 b           |$LN7@WinMain|
  00070		 |$LN13@WinMain|

; 380  :     }
; 381  : 
; 382  :     // did the event already exist?
; 383  :     if(GetLastError() == ERROR_ALREADY_EXISTS) {

  00070	eb000000	 bl          GetLastError
  00074	e35000b7	 cmp         r0, #0xB7
  00078	1a000006	 bne         |$LN12@WinMain|

; 384  :         // yes, kill the existing process
; 385  :         RetailPrint  (_T("%s: Signaling termination event\r\n"), pszFname);

  0007c	e59f01bc	 ldr         r0, [pc, #0x1BC]
  00080	e59f11a0	 ldr         r1, [pc, #0x1A0]
  00084	eb000000	 bl          RetailPrint

; 386  :         SetEvent(ghevTerminate);

  00088	e5940008	 ldr         r0, [r4, #8]
  0008c	e3a01003	 mov         r1, #3
  00090	eb000000	 bl          EventModify

; 387  :         goto _Exit;

  00094	ea000048	 b           |$LN7@WinMain|
  00098		 |$LN12@WinMain|

; 388  :     }
; 389  :     
; 390  :     // create a message queue for Power Manager notifications
; 391  :     msgOptions.dwSize = sizeof(MSGQUEUEOPTIONS);
; 392  :     msgOptions.dwFlags = 0;
; 393  :     msgOptions.dwMaxMessages = QUEUE_ENTRIES;

  00098	e3a01003	 mov         r1, #3

; 394  :     msgOptions.cbMaxMessage = sizeof(POWER_BROADCAST) + MAX_NAMELEN;

  0009c	e3a000d8	 mov         r0, #0xD8

; 395  :     msgOptions.bReadAccess = TRUE;

  000a0	e58d1010	 str         r1, [sp, #0x10]
  000a4	e58d0014	 str         r0, [sp, #0x14]
  000a8	e3a03014	 mov         r3, #0x14
  000ac	e3a02000	 mov         r2, #0
  000b0	e3a0e001	 mov         lr, #1

; 396  : 
; 397  :     ghPowerNotifications= CreateMsgQueue(NULL, &msgOptions);

  000b4	e28d1008	 add         r1, sp, #8
  000b8	e3a00000	 mov         r0, #0
  000bc	e58d3008	 str         r3, [sp, #8]
  000c0	e58d200c	 str         r2, [sp, #0xC]
  000c4	e58de018	 str         lr, [sp, #0x18]
  000c8	eb000000	 bl          CreateMsgQueue
  000cc	e3500000	 cmp         r0, #0
  000d0	e5840000	 str         r0, [r4]

; 398  :     if (!ghPowerNotifications) {

  000d4	1a000003	 bne         |$LN11@WinMain|

; 399  :         DWORD dwErr = GetLastError();

  000d8	eb000000	 bl          GetLastError

; 400  :         RetailPrint  (TEXT("%s:CreateMessageQueue ERROR:%d\n"), pszFname, dwErr);

  000dc	e1a02000	 mov         r2, r0
  000e0	e59f0154	 ldr         r0, [pc, #0x154]

; 401  :         goto _Exit;

  000e4	eaffffde	 b           |$LN21@WinMain|
  000e8		 |$LN11@WinMain|

; 402  :     }
; 403  : 
; 404  :     // request Power notifications
; 405  :     hNotifications = RequestPowerNotifications(ghPowerNotifications, POWER_NOTIFY_ALL); // Flags

  000e8	e3e01000	 mvn         r1, #0
  000ec	eb000000	 bl          RequestPowerNotifications
  000f0	e1b05000	 movs        r5, r0

; 406  :     if (!hNotifications) {

  000f4	1a000005	 bne         |$LN10@WinMain|

; 407  :         DWORD dwErr = GetLastError();

  000f8	eb000000	 bl          GetLastError
  000fc	e1a02000	 mov         r2, r0

; 408  :         RetailPrint  (TEXT("%s:RequestPowerNotifications ERROR:%d\n"), pszFname, dwErr);

  00100	e59f0130	 ldr         r0, [pc, #0x130]
  00104		 |$LN20@WinMain|
  00104	e59f111c	 ldr         r1, [pc, #0x11C]
  00108	eb000000	 bl          RetailPrint

; 409  :         goto _Exit;

  0010c	ea000027	 b           |$_Exit$39314|
  00110		 |$LN10@WinMain|

; 410  :     }
; 411  : 
; 412  :     // create message queues
; 413  :     memset(&msgOptions, 0, sizeof(msgOptions));

  00110	e3a02014	 mov         r2, #0x14
  00114	e3a01000	 mov         r1, #0
  00118	e28d0008	 add         r0, sp, #8
  0011c	eb000000	 bl          memset

; 414  :     msgOptions.dwSize = sizeof(MSGQUEUEOPTIONS);
; 415  :     msgOptions.dwFlags = 0;
; 416  :     msgOptions.cbMaxMessage = PNP_QUEUE_SIZE;

  00120	e3a01e36	 mov         r1, #0x36, 28

; 417  :     msgOptions.bReadAccess = TRUE;

  00124	e3a00001	 mov         r0, #1
  00128	e58d1014	 str         r1, [sp, #0x14]
  0012c	e58d0018	 str         r0, [sp, #0x18]
  00130	e3a03014	 mov         r3, #0x14
  00134	e3a02000	 mov         r2, #0

; 418  :     ghDeviceNotifications = CreateMsgQueue(NULL, &msgOptions);

  00138	e28d1008	 add         r1, sp, #8
  0013c	e3a00000	 mov         r0, #0
  00140	e58d3008	 str         r3, [sp, #8]
  00144	e58d200c	 str         r2, [sp, #0xC]
  00148	eb000000	 bl          CreateMsgQueue
  0014c	e3500000	 cmp         r0, #0
  00150	e5840004	 str         r0, [r4, #4]

; 419  :     if(ghDeviceNotifications == NULL) {

  00154	1a000003	 bne         |$LN9@WinMain|

; 420  :         DWORD dwStatus = GetLastError();

  00158	eb000000	 bl          GetLastError
  0015c	e1a02000	 mov         r2, r0

; 421  :         RetailPrint  (_T("%s:CreateMsgQueue() failed %d\r\n"), pszFname, dwStatus);

  00160	e59f00cc	 ldr         r0, [pc, #0xCC]

; 422  :         goto _Exit;

  00164	eaffffe6	 b           |$LN20@WinMain|
  00168		 |$LN9@WinMain|

; 423  :     }
; 424  : 
; 425  :     // create the monitoring thread
; 426  :     ht = CreateThread(NULL, 0, MonThreadProc, NULL, 0, NULL);

  00168	e59f20c0	 ldr         r2, [pc, #0xC0]
  0016c	e3a0e000	 mov         lr, #0
  00170	e3a03000	 mov         r3, #0
  00174	e3a01000	 mov         r1, #0
  00178	e3a00000	 mov         r0, #0
  0017c	e58de004	 str         lr, [sp, #4]
  00180	e58de000	 str         lr, [sp]
  00184	eb000000	 bl          CreateThread
  00188	e1b06000	 movs        r6, r0

; 427  :     if(ht) {

  0018c	0a000007	 beq         |$_Exit$39314|

; 428  :         // request device notifications (do this after the thread is
; 429  :         // created so we don't drop any notifications)
; 430  :         RequestPMDeviceNotifications(64, hDeviceNotifications);

  00190	e28d101c	 add         r1, sp, #0x1C
  00194	e3a00040	 mov         r0, #0x40
  00198	eb000000	 bl          RequestPMDeviceNotifications

; 431  : 
; 432  :         // wait for the thread to exit
; 433  :         WaitForSingleObject(ht, INFINITE);

  0019c	e3e01000	 mvn         r1, #0
  001a0	e1a00006	 mov         r0, r6
  001a4	eb000000	 bl          WaitForSingleObject

; 434  :         CloseHandle(ht);

  001a8	e1a00006	 mov         r0, r6
  001ac	eb000000	 bl          CloseHandle
  001b0		 |$_Exit$39314|

; 435  :     }
; 436  : 
; 437  : _Exit:
; 438  :     if(hNotifications) StopPowerNotifications(hNotifications);

  001b0	e3550000	 cmp         r5, #0
  001b4	11a00005	 movne       r0, r5
  001b8	1b000000	 blne        StopPowerNotifications
  001bc		 |$LN7@WinMain|

; 439  :     if(ghPowerNotifications) CloseMsgQueue(ghPowerNotifications);

  001bc	e5940000	 ldr         r0, [r4]
  001c0	e3500000	 cmp         r0, #0
  001c4	1b000000	 blne        CloseMsgQueue

; 440  :     for(i = 0; i < 64 && hDeviceNotifications[i] != NULL; i++) {

  001c8	e3a06000	 mov         r6, #0
  001cc	e28d501c	 add         r5, sp, #0x1C
  001d0		 |$LL5@WinMain|
  001d0	e5953000	 ldr         r3, [r5]
  001d4	e3530000	 cmp         r3, #0
  001d8	0a000005	 beq         |$LN3@WinMain|

; 441  :         StopDeviceNotifications(hDeviceNotifications[i]);

  001dc	e1a00003	 mov         r0, r3
  001e0	eb000000	 bl          StopDeviceNotifications
  001e4	e2866001	 add         r6, r6, #1
  001e8	e3560040	 cmp         r6, #0x40
  001ec	e2855004	 add         r5, r5, #4
  001f0	bafffff6	 blt         |$LL5@WinMain|
  001f4		 |$LN3@WinMain|

; 442  :     }
; 443  :     if(ghDeviceNotifications) CloseMsgQueue(ghDeviceNotifications);

  001f4	e5940004	 ldr         r0, [r4, #4]
  001f8	e3500000	 cmp         r0, #0
  001fc	1b000000	 blne        CloseMsgQueue

; 444  :     if(ghevTerminate) CloseHandle(ghevTerminate);

  00200	e5940008	 ldr         r0, [r4, #8]
  00204	e3500000	 cmp         r0, #0
  00208	1b000000	 blne        CloseHandle

; 445  :     RetailPrint  (_T("%s: exiting\r\n"), pszFname);

  0020c	e59f0018	 ldr         r0, [pc, #0x18]
  00210	e59f1010	 ldr         r1, [pc, #0x10]
  00214	eb000000	 bl          RetailPrint

; 446  : 
; 447  :     return 0;

  00218	e3a00000	 mov         r0, #0

; 448  : }

  0021c	e28ddf47	 add         sp, sp, #0x47, 30
  00220	e8bd4070	 ldmia       sp!, {r4 - r6, lr}
  00224	e12fff1e	 bx          lr
  00228		 |$LN25@WinMain|
  00228		 |$LN26@WinMain|
  00228	00000000	 DCD         |??_C@_1BM@EHNMKFIL@?$AAP?$AAM?$AAM?$AAO?$AAN?$AA?3?$AAW?$AAi?$AAn?$AAM?$AAa?$AAi?$AAn?$AA?$AA@|
  0022c		 |$LN27@WinMain|
  0022c	00000000	 DCD         |??_C@_1BM@OBNKDNPL@?$AA?$CF?$AAs?$AA?3?$AA?5?$AAe?$AAx?$AAi?$AAt?$AAi?$AAn?$AAg?$AA?$AN?$AA?6?$AA?$AA@|
  00230		 |$LN28@WinMain|
  00230	00000000	 DCD         |MonThreadProc|
  00234		 |$LN29@WinMain|
  00234	00000000	 DCD         |??_C@_1EA@HKAEIKIF@?$AA?$CF?$AAs?$AA?3?$AAC?$AAr?$AAe?$AAa?$AAt?$AAe?$AAM?$AAs?$AAg?$AAQ?$AAu?$AAe?$AAu?$AAe?$AA?$CI?$AA?$CJ?$AA?5?$AAf?$AAa?$AAi?$AAl?$AAe?$AAd?$AA?5?$AA?$CF?$AAd?$AA?$AN?$AA?6?$AA?$AA@|
  00238		 |$LN30@WinMain|
  00238	00000000	 DCD         |??_C@_1EO@MNGHIKIN@?$AA?$CF?$AAs?$AA?3?$AAR?$AAe?$AAq?$AAu?$AAe?$AAs?$AAt?$AAP?$AAo?$AAw?$AAe?$AAr?$AAN?$AAo?$AAt?$AAi?$AAf?$AAi?$AAc?$AAa?$AAt?$AAi?$AAo?$AAn?$AAs?$AA?5?$AAE?$AAR?$AAR@|
  0023c		 |$LN31@WinMain|
  0023c	00000000	 DCD         |??_C@_1EA@EMMEOLDM@?$AA?$CF?$AAs?$AA?3?$AAC?$AAr?$AAe?$AAa?$AAt?$AAe?$AAM?$AAe?$AAs?$AAs?$AAa?$AAg?$AAe?$AAQ?$AAu?$AAe?$AAu?$AAe?$AA?5?$AAE?$AAR?$AAR?$AAO?$AAR?$AA?3?$AA?$CF?$AAd?$AA?6?$AA?$AA@|
  00240		 |$LN32@WinMain|
  00240	00000000	 DCD         |??_C@_1EE@MGFABJCD@?$AA?$CF?$AAs?$AA?3?$AA?5?$AAS?$AAi?$AAg?$AAn?$AAa?$AAl?$AAi?$AAn?$AAg?$AA?5?$AAt?$AAe?$AAr?$AAm?$AAi?$AAn?$AAa?$AAt?$AAi?$AAo?$AAn?$AA?5?$AAe?$AAv?$AAe?$AAn?$AAt?$AA?$AN@|
  00244		 |$LN33@WinMain|
  00244	00000000	 DCD         |??_C@_1GI@FIOBDCFJ@?$AA?$CF?$AAs?$AA?3?$AA?5?$AAC?$AAr?$AAe?$AAa?$AAt?$AAe?$AAE?$AAv?$AAe?$AAn?$AAt?$AA?$CI?$AA?$CJ?$AA?5?$AAf?$AAa?$AAi?$AAl?$AAe?$AAd?$AA?5?$AA?$CF?$AAd?$AA?5?$AAf?$AAo?$AAr?$AA?5@|
  00248		 |$LN34@WinMain|
  00248	00000000	 DCD         |ghPowerNotifications|
  0024c		 |$LN35@WinMain|
  0024c	00000000	 DCD         |??_C@_1FA@NIDJIEFI@?$AAS?$AAO?$AAF?$AAT?$AAW?$AAA?$AAR?$AAE?$AA?1?$AAP?$AAM?$AAT?$AAe?$AAs?$AAt?$AAP?$AAr?$AAo?$AAg?$AAr?$AAa?$AAm?$AAs?$AA?1?$AAP?$AAM?$AAM?$AAO?$AAN?$AA?1?$AAT?$AAe@|
  00250		 |$M39679|

			 ENDP  ; |WinMain|

	END
