; Listing generated by Microsoft (R) Optimizing Compiler Version 14.01.60511.01 

	TTL	C:\WINCE600\PLATFORM\COMMON\SRC\COMMON\OTHER\debug.c
	CODE32

  00000			 AREA	 |.drectve|, DRECTVE
	DCB	"-defaultlib:LIBCMT "
	DCB	"-defaultlib:OLDNAMES "

	EXPORT	|OEMWriteDebugString|
	IMPORT	|OEMWriteDebugByte|

  00000			 AREA	 |.pdata|, PDATA
|$T38942| DCD	|$LN7@OEMWriteDe|
	DCD	0x40001504
; Function compile flags: /Odtp
; File c:\wince600\platform\common\src\common\other\debug.c

  00000			 AREA	 |.text|, CODE, ARM

  00000		 |OEMWriteDebugString| PROC

; 30   : {

  00000		 |$LN7@OEMWriteDe|
  00000	e1a0c00d	 mov         r12, sp
  00004	e92d0001	 stmdb       sp!, {r0}
  00008	e92d5000	 stmdb       sp!, {r12, lr}
  0000c	e24dd004	 sub         sp, sp, #4
  00010		 |$M38939|
  00010		 |$LN2@OEMWriteDe|

; 31   :     while (*string != L'\0') OEMWriteDebugByte((UINT8)*string++);

  00010	e59d300c	 ldr         r3, [sp, #0xC]
  00014	e1d330b0	 ldrh        r3, [r3]
  00018	e3530000	 cmp         r3, #0
  0001c	0a000009	 beq         |$LN1@OEMWriteDe|
  00020	e59d300c	 ldr         r3, [sp, #0xC]
  00024	e1d330b0	 ldrh        r3, [r3]
  00028	e20330ff	 and         r3, r3, #0xFF
  0002c	e5cd3000	 strb        r3, [sp]
  00030	e5dd0000	 ldrb        r0, [sp]
  00034	eb000000	 bl          OEMWriteDebugByte
  00038	e59d300c	 ldr         r3, [sp, #0xC]
  0003c	e2833002	 add         r3, r3, #2
  00040	e58d300c	 str         r3, [sp, #0xC]
  00044	eafffff1	 b           |$LN2@OEMWriteDe|
  00048		 |$LN1@OEMWriteDe|

; 32   : }

  00048	e28dd004	 add         sp, sp, #4
  0004c	e89d6000	 ldmia       sp, {sp, lr}
  00050	e12fff1e	 bx          lr
  00054		 |$M38940|

			 ENDP  ; |OEMWriteDebugString|

	END
