; Listing generated by Microsoft (R) Optimizing Compiler Version 14.01.60511.01 

	TTL	C:\WINCE600\PLATFORM\COMMON\SRC\COMMON\KITL\kitlioctl.c
	CODE32

  00000			 AREA	 |.drectve|, DRECTVE
	DCB	"-defaultlib:LIBCMT "
	DCB	"-defaultlib:OLDNAMES "

	EXPORT	|OEMKitlIoctl|
	IMPORT	|OALIoCtlVBridge|

  00000			 AREA	 |.pdata|, PDATA
|$T38969| DCD	|$LN8@OEMKitlIoc|
	DCD	0x40001804
; Function compile flags: /Odtp
; File c:\wince600\platform\common\src\common\kitl\kitlioctl.c

  00000			 AREA	 |.text|, CODE, ARM

  00000		 |OEMKitlIoctl| PROC

; 33   : {

  00000		 |$LN8@OEMKitlIoc|
  00000	e1a0c00d	 mov         r12, sp
  00004	e92d000f	 stmdb       sp!, {r0 - r3}
  00008	e92d5000	 stmdb       sp!, {r12, lr}
  0000c	e24dd01c	 sub         sp, sp, #0x1C
  00010		 |$M38966|

; 34   :     BOOL fRet = FALSE;

  00010	e3a03000	 mov         r3, #0
  00014	e58d3008	 str         r3, [sp, #8]

; 35   :     switch (code) {
; 36   : #ifdef KITL_PCI
; 37   :     case IOCTL_HAL_INITREGISTRY:
; 38   : 		OALKitlInitRegistry();
; 39   : 		break;
; 40   : #endif        
; 41   :     default:
; 42   :         fRet = OALIoCtlVBridge (code, pInBuffer, inSize, pOutBuffer, outSize, pOutSize);

  00018	e59d3038	 ldr         r3, [sp, #0x38]
  0001c	e58d3004	 str         r3, [sp, #4]
  00020	e59d3034	 ldr         r3, [sp, #0x34]
  00024	e58d3000	 str         r3, [sp]
  00028	e59d3030	 ldr         r3, [sp, #0x30]
  0002c	e59d202c	 ldr         r2, [sp, #0x2C]
  00030	e59d1028	 ldr         r1, [sp, #0x28]
  00034	e59d0024	 ldr         r0, [sp, #0x24]
  00038	eb000000	 bl          OALIoCtlVBridge
  0003c	e58d0018	 str         r0, [sp, #0x18]
  00040	e59d3018	 ldr         r3, [sp, #0x18]
  00044	e58d3008	 str         r3, [sp, #8]

; 43   :     }
; 44   : 
; 45   :     return fRet;

  00048	e59d3008	 ldr         r3, [sp, #8]
  0004c	e58d3014	 str         r3, [sp, #0x14]

; 46   : }

  00050	e59d0014	 ldr         r0, [sp, #0x14]
  00054	e28dd01c	 add         sp, sp, #0x1C
  00058	e89d6000	 ldmia       sp, {sp, lr}
  0005c	e12fff1e	 bx          lr
  00060		 |$M38967|

			 ENDP  ; |OEMKitlIoctl|

	END
