; Listing generated by Microsoft (R) Optimizing Compiler Version 14.01.60511.01 

	TTL	C:\WINCE600\PLATFORM\COMMON\SRC\COMMON\KITL\kitl.c
	CODE32

  00000			 AREA	 |.drectve|, DRECTVE
	DCB	"-defaultlib:LIBCMT "
	DCB	"-defaultlib:OLDNAMES "


  00000			 AREA	 |.data|, DATA
	 COMMON	|g_oalKitlBuffer|, 0x10000


  00000			 AREA	 |.rdata|, DATA, READONLY
|EdbgVendorIds| DCW 0x0
	DCW	0x0
	DCD	0x4033
	DCB	0x1
	DCB	"AD", 0x0
	DCW	0x1050
	DCW	0x940
	DCD	0x4005
	DCB	0x1
	DCB	"LS", 0x0
	DCW	0x1050
	DCW	0x940
	DCD	0x2078
	DCB	0x1
	DCB	"LS", 0x0
	DCW	0x10ec
	DCW	0x8029
	DCD	0xc0f0
	DCB	0x1
	DCB	"KS", 0x0
	DCW	0x10ec
	DCW	0x8129
	DCD	0x0
	DCB	0x4
	DCB	"RT", 0x0
	DCW	0x10ec
	DCW	0x8139
	DCD	0x900b
	DCB	0x4
	DCB	"RT", 0x0
	DCW	0x10ec
	DCW	0x8139
	DCD	0xd0c9
	DCB	0x4
	DCB	"RT", 0x0
	DCW	0x10ec
	DCW	0x8139
	DCD	0xe04c
	DCB	0x4
	DCB	"RT", 0x0
	DCW	0x1186
	DCW	0x1300
	DCD	0x50ba
	DCB	0x4
	DCB	"DL", 0x0
	DCW	0x100b
	DCW	0x20
	DCD	0xa0cc
	DCB	0x5
	DCB	"NG", 0x0
	DCW	0x10b7
	DCW	0x9050
	DCD	0x6008
	DCB	0x6
	DCB	"3C", 0x0
	DCW	0x10b7
	DCW	0x9200
	DCD	0x476
	DCB	0x6
	DCB	"3C", 0x0
	EXPORT	|OALKitlGetDevLoc|
	IMPORT	|memcpy|

  00000			 AREA	 |.bss|, NOINIT
|g_kitlState| %	0x40

  00000			 AREA	 |.pdata|, PDATA
|$T43158| DCD	|$LN7@OALKitlGet|
	DCD	0x40001704
; Function compile flags: /Odtp
; File c:\wince600\platform\common\src\common\kitl\kitl.c

  00000			 AREA	 |.text|, CODE, ARM

  00000		 |OALKitlGetDevLoc| PROC

; 61   : {

  00000		 |$LN7@OALKitlGet|
  00000	e1a0c00d	 mov         r12, sp
  00004	e92d0001	 stmdb       sp!, {r0}
  00008	e92d5000	 stmdb       sp!, {r12, lr}
  0000c	e24dd004	 sub         sp, sp, #4
  00010		 |$M43155|

; 62   :     if(pDevLoc)

  00010	e59d300c	 ldr         r3, [sp, #0xC]
  00014	e3530000	 cmp         r3, #0
  00018	0a000008	 beq         |$LN2@OALKitlGet|

; 63   :     {
; 64   :         memcpy(pDevLoc, &g_kitlState.args.devLoc, sizeof(*pDevLoc));

  0001c	e3a02014	 mov         r2, #0x14
  00020	e59f3030	 ldr         r3, [pc, #0x30]
  00024	e2831014	 add         r1, r3, #0x14
  00028	e59d000c	 ldr         r0, [sp, #0xC]
  0002c	eb000000	 bl          memcpy

; 65   :         return TRUE;

  00030	e3a03001	 mov         r3, #1
  00034	e58d3000	 str         r3, [sp]
  00038	ea000002	 b           |$LN3@OALKitlGet|

; 66   :     }
; 67   :     else

  0003c	ea000001	 b           |$LN1@OALKitlGet|
  00040		 |$LN2@OALKitlGet|

; 68   :     {
; 69   :         return FALSE;

  00040	e3a03000	 mov         r3, #0
  00044	e58d3000	 str         r3, [sp]
  00048		 |$LN1@OALKitlGet|
  00048		 |$LN3@OALKitlGet|

; 70   :     }
; 71   : }

  00048	e59d0000	 ldr         r0, [sp]
  0004c	e28dd004	 add         sp, sp, #4
  00050	e89d6000	 ldmia       sp, {sp, lr}
  00054	e12fff1e	 bx          lr
  00058		 |$LN8@OALKitlGet|
  00058		 |$LN9@OALKitlGet|
  00058	00000000	 DCD         |g_kitlState|
  0005c		 |$M43156|

			 ENDP  ; |OALKitlGetDevLoc|

	EXPORT	|OALKitlGetFlags|

  00008			 AREA	 |.pdata|, PDATA
|$T43166| DCD	|$LN6@OALKitlGet@2|
	DCD	0x40001304
; Function compile flags: /Odtp

  0005c			 AREA	 |.text|, CODE, ARM

  0005c		 |OALKitlGetFlags| PROC

; 80   : {

  0005c		 |$LN6@OALKitlGet@2|
  0005c	e1a0c00d	 mov         r12, sp
  00060	e92d0001	 stmdb       sp!, {r0}
  00064	e92d5000	 stmdb       sp!, {r12, lr}
  00068	e24dd004	 sub         sp, sp, #4
  0006c		 |$M43163|

; 81   :     if(pFlags)

  0006c	e59d300c	 ldr         r3, [sp, #0xC]
  00070	e3530000	 cmp         r3, #0
  00074	0a000004	 beq         |$LN1@OALKitlGet@2|

; 82   :     {
; 83   :         memcpy(pFlags, &g_kitlState.args.flags, sizeof(*pFlags));

  00078	e3a02004	 mov         r2, #4
  0007c	e59f3020	 ldr         r3, [pc, #0x20]
  00080	e2831010	 add         r1, r3, #0x10
  00084	e59d000c	 ldr         r0, [sp, #0xC]
  00088	eb000000	 bl          memcpy
  0008c		 |$LN1@OALKitlGet@2|

; 84   :     }
; 85   :     return TRUE;

  0008c	e3a03001	 mov         r3, #1
  00090	e58d3000	 str         r3, [sp]

; 86   : }

  00094	e59d0000	 ldr         r0, [sp]
  00098	e28dd004	 add         sp, sp, #4
  0009c	e89d6000	 ldmia       sp, {sp, lr}
  000a0	e12fff1e	 bx          lr
  000a4		 |$LN7@OALKitlGet@2|
  000a4		 |$LN8@OALKitlGet@2|
  000a4	00000000	 DCD         |g_kitlState|
  000a8		 |$M43164|

			 ENDP  ; |OALKitlGetFlags|

	EXPORT	|??_C@_0BI@GBPEIAJI@?9OEMKitlInit?$CIrc?5?$DN?5?$CFd?$CJ?$AN?6?$AA@| [ DATA ] ; `string'
	EXPORT	|OALKitlPowerOff|
	EXPORT	|OALKitlPowerOn|
	EXPORT	|??_C@_0BH@DJPAMHLI@?$CLOEMKitlInit?$CI0x?$CF08x?$CJ?$AN?6?$AA@| [ DATA ] ; `string'
	EXPORT	|OEMKitlInit|
	IMPORT	|OALKitlSerialInit|
	IMPORT	|OALKitlEthInit|
	IMPORT	|KITLOutputDebugString|
	IMPORT	|dpCurSettings|

  00010			 AREA	 |.pdata|, PDATA
|$T43178| DCD	|$LN15@OEMKitlIni|
	DCD	0x40005f04

  00000			 AREA	 |.rdata|, DATA, READONLY
|??_C@_0BI@GBPEIAJI@?9OEMKitlInit?$CIrc?5?$DN?5?$CFd?$CJ?$AN?6?$AA@| DCB "-"
	DCB	"OEMKitlInit(rc = %d)", 0xd, 0xa, 0x0	; `string'

  00000			 AREA	 |.rdata|, DATA, READONLY
|??_C@_0BH@DJPAMHLI@?$CLOEMKitlInit?$CI0x?$CF08x?$CJ?$AN?6?$AA@| DCB "+OE"
	DCB	"MKitlInit(0x%08x)", 0xd, 0xa, 0x0	; `string'
; Function compile flags: /Odtp

  000a8			 AREA	 |.text|, CODE, ARM

  000a8		 |OEMKitlInit| PROC

; 98   : {

  000a8		 |$LN15@OEMKitlIni|
  000a8	e1a0c00d	 mov         r12, sp
  000ac	e92d0001	 stmdb       sp!, {r0}
  000b0	e92d5000	 stmdb       sp!, {r12, lr}
  000b4	e24dd01c	 sub         sp, sp, #0x1C
  000b8		 |$M43175|

; 99   :     BOOL rc = FALSE;

  000b8	e3a03000	 mov         r3, #0
  000bc	e58d3000	 str         r3, [sp]

; 100  : 
; 101  :     KITL_RETAILMSG(ZONE_KITL_OAL, ("+OEMKitlInit(0x%08x)\r\n", pKitl));

  000c0	e59f3148	 ldr         r3, [pc, #0x148]
  000c4	e5933440	 ldr         r3, [r3, #0x440]
  000c8	e3130a01	 tst         r3, #1, 20
  000cc	0a000005	 beq         |$LN9@OEMKitlIni|
  000d0	e59d1024	 ldr         r1, [sp, #0x24]
  000d4	e59f0144	 ldr         r0, [pc, #0x144]
  000d8	eb000000	 bl          KITLOutputDebugString
  000dc	e3a03001	 mov         r3, #1
  000e0	e58d3008	 str         r3, [sp, #8]
  000e4	ea000001	 b           |$LN10@OEMKitlIni|
  000e8		 |$LN9@OEMKitlIni|
  000e8	e3a03000	 mov         r3, #0
  000ec	e58d3008	 str         r3, [sp, #8]
  000f0		 |$LN10@OEMKitlIni|

; 102  : 
; 103  :     switch (g_kitlState.pDevice->type) {

  000f0	e59f3124	 ldr         r3, [pc, #0x124]
  000f4	e593303c	 ldr         r3, [r3, #0x3C]
  000f8	e2833010	 add         r3, r3, #0x10
  000fc	e5933000	 ldr         r3, [r3]
  00100	e58d300c	 str         r3, [sp, #0xC]
  00104	e59d300c	 ldr         r3, [sp, #0xC]
  00108	e3530001	 cmp         r3, #1
  0010c	0a00000e	 beq         |$LN3@OEMKitlIni|
  00110	e59d300c	 ldr         r3, [sp, #0xC]
  00114	e3530002	 cmp         r3, #2
  00118	0a000000	 beq         |$LN4@OEMKitlIni|
  0011c	ea000014	 b           |$LN5@OEMKitlIni|
  00120		 |$LN4@OEMKitlIni|

; 104  : #ifdef KITL_ETHER     
; 105  :     case OAL_KITL_TYPE_ETH:
; 106  :         rc = OALKitlEthInit(
; 107  :             g_kitlState.deviceId, g_kitlState.pDevice,
; 108  :             &g_kitlState.args, pKitl
; 109  :         );

  00120	e59d3024	 ldr         r3, [sp, #0x24]
  00124	e59f20f0	 ldr         r2, [pc, #0xF0]
  00128	e2822010	 add         r2, r2, #0x10
  0012c	e59f10e8	 ldr         r1, [pc, #0xE8]
  00130	e591103c	 ldr         r1, [r1, #0x3C]
  00134	e59f00e0	 ldr         r0, [pc, #0xE0]
  00138	eb000000	 bl          OALKitlEthInit
  0013c	e58d0010	 str         r0, [sp, #0x10]
  00140	e59d3010	 ldr         r3, [sp, #0x10]
  00144	e58d3000	 str         r3, [sp]

; 110  :         break;

  00148	ea000009	 b           |$LN5@OEMKitlIni|
  0014c		 |$LN3@OEMKitlIni|

; 111  : #endif
; 112  : #ifdef KITL_SERIAL
; 113  :     case OAL_KITL_TYPE_SERIAL:
; 114  :         rc = OALKitlSerialInit(
; 115  :             g_kitlState.deviceId, g_kitlState.pDevice,
; 116  :             &g_kitlState.args, pKitl
; 117  :         );

  0014c	e59d3024	 ldr         r3, [sp, #0x24]
  00150	e59f20c4	 ldr         r2, [pc, #0xC4]
  00154	e2822010	 add         r2, r2, #0x10
  00158	e59f10bc	 ldr         r1, [pc, #0xBC]
  0015c	e591103c	 ldr         r1, [r1, #0x3C]
  00160	e59f00b4	 ldr         r0, [pc, #0xB4]
  00164	eb000000	 bl          OALKitlSerialInit
  00168	e58d0014	 str         r0, [sp, #0x14]
  0016c	e59d3014	 ldr         r3, [sp, #0x14]
  00170	e58d3000	 str         r3, [sp]
  00174		 |$LN5@OEMKitlIni|

; 118  :         break;
; 119  : #endif
; 120  :     }
; 121  :     if (rc) {

  00174	e59d3000	 ldr         r3, [sp]
  00178	e3530000	 cmp         r3, #0
  0017c	0a000008	 beq         |$LN2@OEMKitlIni|

; 122  :         pKitl->pfnPowerOn  = OALKitlPowerOn;

  00180	e59d3024	 ldr         r3, [sp, #0x24]
  00184	e283203c	 add         r2, r3, #0x3C
  00188	e59f3088	 ldr         r3, [pc, #0x88]
  0018c	e5823000	 str         r3, [r2]

; 123  :         pKitl->pfnPowerOff = OALKitlPowerOff;

  00190	e59d3024	 ldr         r3, [sp, #0x24]
  00194	e2832040	 add         r2, r3, #0x40
  00198	e59f3074	 ldr         r3, [pc, #0x74]
  0019c	e5823000	 str         r3, [r2]

; 124  :     } else {

  001a0	ea000007	 b           |$LN1@OEMKitlIni|
  001a4		 |$LN2@OEMKitlIni|

; 125  :         pKitl->pfnPowerOn  = NULL;

  001a4	e59d3024	 ldr         r3, [sp, #0x24]
  001a8	e283203c	 add         r2, r3, #0x3C
  001ac	e3a03000	 mov         r3, #0
  001b0	e5823000	 str         r3, [r2]

; 126  :         pKitl->pfnPowerOff = NULL;

  001b4	e59d3024	 ldr         r3, [sp, #0x24]
  001b8	e2832040	 add         r2, r3, #0x40
  001bc	e3a03000	 mov         r3, #0
  001c0	e5823000	 str         r3, [r2]
  001c4		 |$LN1@OEMKitlIni|

; 127  :     }
; 128  : 
; 129  :     KITL_RETAILMSG(ZONE_KITL_OAL, ("-OEMKitlInit(rc = %d)\r\n", rc));

  001c4	e59f3044	 ldr         r3, [pc, #0x44]
  001c8	e5933440	 ldr         r3, [r3, #0x440]
  001cc	e3130a01	 tst         r3, #1, 20
  001d0	0a000005	 beq         |$LN11@OEMKitlIni|
  001d4	e59d1000	 ldr         r1, [sp]
  001d8	e59f002c	 ldr         r0, [pc, #0x2C]
  001dc	eb000000	 bl          KITLOutputDebugString
  001e0	e3a03001	 mov         r3, #1
  001e4	e58d3018	 str         r3, [sp, #0x18]
  001e8	ea000001	 b           |$LN12@OEMKitlIni|
  001ec		 |$LN11@OEMKitlIni|
  001ec	e3a03000	 mov         r3, #0
  001f0	e58d3018	 str         r3, [sp, #0x18]
  001f4		 |$LN12@OEMKitlIni|

; 130  :     return rc;

  001f4	e59d3000	 ldr         r3, [sp]
  001f8	e58d3004	 str         r3, [sp, #4]

; 131  : }

  001fc	e59d0004	 ldr         r0, [sp, #4]
  00200	e28dd01c	 add         sp, sp, #0x1C
  00204	e89d6000	 ldmia       sp, {sp, lr}
  00208	e12fff1e	 bx          lr
  0020c		 |$LN16@OEMKitlIni|
  0020c		 |$LN17@OEMKitlIni|
  0020c	00000000	 DCD         |??_C@_0BI@GBPEIAJI@?9OEMKitlInit?$CIrc?5?$DN?5?$CFd?$CJ?$AN?6?$AA@|
  00210		 |$LN18@OEMKitlIni|
  00210	00000000	 DCD         |dpCurSettings|
  00214		 |$LN19@OEMKitlIni|
  00214	00000000	 DCD         |OALKitlPowerOff|
  00218		 |$LN20@OEMKitlIni|
  00218	00000000	 DCD         |OALKitlPowerOn|
  0021c		 |$LN21@OEMKitlIni|
  0021c	00000000	 DCD         |g_kitlState|
  00220		 |$LN22@OEMKitlIni|
  00220	00000000	 DCD         |??_C@_0BH@DJPAMHLI@?$CLOEMKitlInit?$CI0x?$CF08x?$CJ?$AN?6?$AA@|
  00224		 |$M43176|

			 ENDP  ; |OEMKitlInit|

	EXPORT	|??_C@_0BI@KCIPJAAG@?9OALKitlInit?$CIrc?5?$DN?5?$CFd?$CJ?$AN?6?$AA@| [ DATA ] ; `string'
	EXPORT	|??_C@_0CG@NCCHEHBN@ERROR?3?5OALKitlInit?3?5KitlInit?5fai@| [ DATA ] ; `string'
	EXPORT	|??_C@_0FG@GMOHKIKA@ERROR?3?5OALKitlInit?3?5No?5supported@| [ DATA ] ; `string'
	EXPORT	|??_C@_0CD@KFHIJAFP@WARN?3?5OALKitlInit?3?5KITL?5Disabled@| [ DATA ] ; `string'
	EXPORT	|??_C@_0CB@ICNOHDED@pDevice?9?$DOpDriver?4?4?4?4?4?4?4?4?4?50x?$CFx?$AN?6@| [ DATA ] ; `string'
	EXPORT	|??_C@_0BP@LAJLJKFE@pDevice?9?$DOtype?4?4?4?4?4?4?4?4?4?4?4?4?5?$CFd?$AN?6?$AA@| [ DATA ] ; `string'
	EXPORT	|??_C@_0BP@OJPECLKF@pDevice?9?$DOresource?4?4?4?4?4?4?4?4?5?$CFd?$AN?6?$AA@| [ DATA ] ; `string'
	EXPORT	|??_C@_0CB@JAOILBKH@pDevice?9?$DOid?4?4?4?4?4?4?4?4?4?4?4?4?4?4?50x?$CFx?$AN?6@| [ DATA ] ; `string'
	EXPORT	|??_C@_0BP@ELIKEIPK@pDevice?9?$DOifcType?4?4?4?4?4?4?4?4?4?5?$CFd?$AN?6?$AA@| [ DATA ] ; `string'
	EXPORT	|??_C@_0CA@MADPCADD@pDevice?9?$DOName?4?4?4?4?4?4?4?4?4?4?4?4?5?$CFhs?$AN?6?$AA@| [ DATA ] ; `string'
	EXPORT	|??_C@_0BP@GCIAPLEP@pArgs?9?$DOip4address?4?4?4?4?4?4?4?4?5?$CFs?$AN?6?$AA@| [ DATA ] ; `string'
	EXPORT	|??_C@_0BP@EDAFLEND@pArgs?9?$DOdevLoc?4Pin?4?4?4?4?4?4?4?4?5?$CFd?$AN?6?$AA@| [ DATA ] ; `string'
	EXPORT	|??_C@_0CB@ELNIEECP@pArgs?9?$DOdevLoc?4PhysicalLoc?50x?$CFx?$AN?6@| [ DATA ] ; `string'
	EXPORT	|??_C@_0CB@OOHPGPEK@pArgs?9?$DOdevLoc?4LogicalLoc?4?50x?$CFx?$AN?6@| [ DATA ] ; `string'
	EXPORT	|??_C@_0BP@CLIEPDAL@pArgs?9?$DOdevLoc?4IfcType?4?4?4?4?5?$CFd?$AN?6?$AA@| [ DATA ] ; `string'
	EXPORT	|??_C@_0CB@LJCIEGGC@pArgs?9?$DOflags?4?4?4?4?4?4?4?4?4?4?4?4?4?50x?$CFx?$AN?6@| [ DATA ] ; `string'
	EXPORT	|??_C@_0BP@HJJCJHBD@DeviceId?4?4?4?4?4?4?4?4?4?4?4?4?4?4?4?4?4?5?$CFs?$AN?6?$AA@| [ DATA ] ; `string'
	EXPORT	|??_C@_0DF@BBIFGKFF@?$CLOALKitlInit?$CI?8?$CFhs?8?0?50x?$CF08x?5?9?5?$CFd?1@| [ DATA ] ; `string'
	EXPORT	|OALKitlInit|
	IMPORT	|KitlInit|
	IMPORT	|OALKitlFindDevice|
	IMPORT	|OALKitlIPtoString|

  00018			 AREA	 |.pdata|, PDATA
|$T43232| DCD	|$LN46@OALKitlIni|
	DCD	0x40015504

  00000			 AREA	 |.rdata|, DATA, READONLY
|??_C@_0BI@KCIPJAAG@?9OALKitlInit?$CIrc?5?$DN?5?$CFd?$CJ?$AN?6?$AA@| DCB "-"
	DCB	"OALKitlInit(rc = %d)", 0xd, 0xa, 0x0	; `string'

  00000			 AREA	 |.rdata|, DATA, READONLY
|??_C@_0CG@NCCHEHBN@ERROR?3?5OALKitlInit?3?5KitlInit?5fai@| DCB "ERROR: O"
	DCB	"ALKitlInit: KitlInit failed", 0xd, 0xa, 0x0 ; `string'

  00000			 AREA	 |.rdata|, DATA, READONLY
|??_C@_0FG@GMOHKIKA@ERROR?3?5OALKitlInit?3?5No?5supported@| DCB "ERROR: O"
	DCB	"ALKitlInit: No supported KITL device at interface %d bus"
	DCB	" %d location 0x%08x", 0xd, 0xa, 0x0	; `string'

  00000			 AREA	 |.rdata|, DATA, READONLY
|??_C@_0CD@KFHIJAFP@WARN?3?5OALKitlInit?3?5KITL?5Disabled@| DCB "WARN: OA"
	DCB	"LKitlInit: KITL Disabled", 0xd, 0xa, 0x0 ; `string'

  00000			 AREA	 |.rdata|, DATA, READONLY
|??_C@_0CB@ICNOHDED@pDevice?9?$DOpDriver?4?4?4?4?4?4?4?4?4?50x?$CFx?$AN?6@| DCB "p"
	DCB	"Device->pDriver......... 0x%x", 0xd, 0xa, 0x0 ; `string'

  00000			 AREA	 |.rdata|, DATA, READONLY
|??_C@_0BP@LAJLJKFE@pDevice?9?$DOtype?4?4?4?4?4?4?4?4?4?4?4?4?5?$CFd?$AN?6?$AA@| DCB "p"
	DCB	"Device->type............ %d", 0xd, 0xa, 0x0 ; `string'

  00000			 AREA	 |.rdata|, DATA, READONLY
|??_C@_0BP@OJPECLKF@pDevice?9?$DOresource?4?4?4?4?4?4?4?4?5?$CFd?$AN?6?$AA@| DCB "p"
	DCB	"Device->resource........ %d", 0xd, 0xa, 0x0 ; `string'

  00000			 AREA	 |.rdata|, DATA, READONLY
|??_C@_0CB@JAOILBKH@pDevice?9?$DOid?4?4?4?4?4?4?4?4?4?4?4?4?4?4?50x?$CFx?$AN?6@| DCB "p"
	DCB	"Device->id.............. 0x%x", 0xd, 0xa, 0x0 ; `string'

  00000			 AREA	 |.rdata|, DATA, READONLY
|??_C@_0BP@ELIKEIPK@pDevice?9?$DOifcType?4?4?4?4?4?4?4?4?4?5?$CFd?$AN?6?$AA@| DCB "p"
	DCB	"Device->ifcType......... %d", 0xd, 0xa, 0x0 ; `string'

  00000			 AREA	 |.rdata|, DATA, READONLY
|??_C@_0CA@MADPCADD@pDevice?9?$DOName?4?4?4?4?4?4?4?4?4?4?4?4?5?$CFhs?$AN?6?$AA@| DCB "p"
	DCB	"Device->Name............ %hs", 0xd, 0xa, 0x0 ; `string'

  00000			 AREA	 |.rdata|, DATA, READONLY
|??_C@_0BP@GCIAPLEP@pArgs?9?$DOip4address?4?4?4?4?4?4?4?4?5?$CFs?$AN?6?$AA@| DCB "p"
	DCB	"Args->ip4address........ %s", 0xd, 0xa, 0x0 ; `string'

  00000			 AREA	 |.rdata|, DATA, READONLY
|??_C@_0BP@EDAFLEND@pArgs?9?$DOdevLoc?4Pin?4?4?4?4?4?4?4?4?5?$CFd?$AN?6?$AA@| DCB "p"
	DCB	"Args->devLoc.Pin........ %d", 0xd, 0xa, 0x0 ; `string'

  00000			 AREA	 |.rdata|, DATA, READONLY
|??_C@_0CB@ELNIEECP@pArgs?9?$DOdevLoc?4PhysicalLoc?50x?$CFx?$AN?6@| DCB "p"
	DCB	"Args->devLoc.PhysicalLoc 0x%x", 0xd, 0xa, 0x0 ; `string'

  00000			 AREA	 |.rdata|, DATA, READONLY
|??_C@_0CB@OOHPGPEK@pArgs?9?$DOdevLoc?4LogicalLoc?4?50x?$CFx?$AN?6@| DCB "p"
	DCB	"Args->devLoc.LogicalLoc. 0x%x", 0xd, 0xa, 0x0 ; `string'

  00000			 AREA	 |.rdata|, DATA, READONLY
|??_C@_0BP@CLIEPDAL@pArgs?9?$DOdevLoc?4IfcType?4?4?4?4?5?$CFd?$AN?6?$AA@| DCB "p"
	DCB	"Args->devLoc.IfcType.... %d", 0xd, 0xa, 0x0 ; `string'

  00000			 AREA	 |.rdata|, DATA, READONLY
|??_C@_0CB@LJCIEGGC@pArgs?9?$DOflags?4?4?4?4?4?4?4?4?4?4?4?4?4?50x?$CFx?$AN?6@| DCB "p"
	DCB	"Args->flags............. 0x%x", 0xd, 0xa, 0x0 ; `string'

  00000			 AREA	 |.rdata|, DATA, READONLY
|??_C@_0BP@HJJCJHBD@DeviceId?4?4?4?4?4?4?4?4?4?4?4?4?4?4?4?4?4?5?$CFs?$AN?6?$AA@| DCB "D"
	DCB	"eviceId................. %s", 0xd, 0xa, 0x0 ; `string'

  00000			 AREA	 |.rdata|, DATA, READONLY
|??_C@_0DF@BBIFGKFF@?$CLOALKitlInit?$CI?8?$CFhs?8?0?50x?$CF08x?5?9?5?$CFd?1@| DCB "+"
	DCB	"OALKitlInit('%hs', 0x%08x - %d/%d/0x%08x, 0x%08x)", 0xd, 0xa
	DCB	0x0					; `string'
; Function compile flags: /Odtp

  00224			 AREA	 |.text|, CODE, ARM

  00224		 |OALKitlInit| PROC

; 145  : ) {

  00224		 |$LN46@OALKitlIni|
  00224	e1a0c00d	 mov         r12, sp
  00228	e92d0007	 stmdb       sp!, {r0 - r2}
  0022c	e92d5000	 stmdb       sp!, {r12, lr}
  00230	e24dd078	 sub         sp, sp, #0x78
  00234		 |$M43229|

; 146  :     BOOL rc = FALSE;

  00234	e3a03000	 mov         r3, #0
  00238	e58d300c	 str         r3, [sp, #0xC]

; 147  : 
; 148  :     KITL_RETAILMSG(ZONE_KITL_OAL, (
; 149  :         "+OALKitlInit('%hs', 0x%08x - %d/%d/0x%08x, 0x%08x)\r\n", deviceId, 
; 150  :         pArgs->flags, pArgs->devLoc.IfcType, pArgs->devLoc.BusNumber, 
; 151  :         pArgs->devLoc.LogicalLoc, pDevice
; 152  :     ));

  0023c	e59f34e8	 ldr         r3, [pc, #0x4E8]
  00240	e5933440	 ldr         r3, [r3, #0x440]
  00244	e3130a01	 tst         r3, #1, 20
  00248	0a000014	 beq         |$LN6@OALKitlIni|
  0024c	e59d3088	 ldr         r3, [sp, #0x88]
  00250	e58d3008	 str         r3, [sp, #8]
  00254	e59d3084	 ldr         r3, [sp, #0x84]
  00258	e283300c	 add         r3, r3, #0xC
  0025c	e5933000	 ldr         r3, [r3]
  00260	e58d3004	 str         r3, [sp, #4]
  00264	e59d3084	 ldr         r3, [sp, #0x84]
  00268	e2833008	 add         r3, r3, #8
  0026c	e5933000	 ldr         r3, [r3]
  00270	e58d3000	 str         r3, [sp]
  00274	e59d3084	 ldr         r3, [sp, #0x84]
  00278	e2833004	 add         r3, r3, #4
  0027c	e5933000	 ldr         r3, [r3]
  00280	e59d2084	 ldr         r2, [sp, #0x84]
  00284	e5922000	 ldr         r2, [r2]
  00288	e59d1080	 ldr         r1, [sp, #0x80]
  0028c	e59f04e0	 ldr         r0, [pc, #0x4E0]
  00290	eb000000	 bl          KITLOutputDebugString
  00294	e3a03001	 mov         r3, #1
  00298	e58d3020	 str         r3, [sp, #0x20]
  0029c	ea000001	 b           |$LN7@OALKitlIni|
  002a0		 |$LN6@OALKitlIni|
  002a0	e3a03000	 mov         r3, #0
  002a4	e58d3020	 str         r3, [sp, #0x20]
  002a8		 |$LN7@OALKitlIni|

; 153  : 
; 154  :     // Display KITL parameters
; 155  :     KITL_RETAILMSG(ZONE_INIT, (
; 156  :         "DeviceId................. %s\r\n", deviceId
; 157  :     ));

  002a8	e59f347c	 ldr         r3, [pc, #0x47C]
  002ac	e5933440	 ldr         r3, [r3, #0x440]
  002b0	e3130002	 tst         r3, #2
  002b4	0a000005	 beq         |$LN8@OALKitlIni|
  002b8	e59d1080	 ldr         r1, [sp, #0x80]
  002bc	e59f04ac	 ldr         r0, [pc, #0x4AC]
  002c0	eb000000	 bl          KITLOutputDebugString
  002c4	e3a03001	 mov         r3, #1
  002c8	e58d3024	 str         r3, [sp, #0x24]
  002cc	ea000001	 b           |$LN9@OALKitlIni|
  002d0		 |$LN8@OALKitlIni|
  002d0	e3a03000	 mov         r3, #0
  002d4	e58d3024	 str         r3, [sp, #0x24]
  002d8		 |$LN9@OALKitlIni|

; 158  :     KITL_RETAILMSG(ZONE_INIT, (
; 159  :         "pArgs->flags............. 0x%x\r\n", pArgs->flags
; 160  :     ));

  002d8	e59f344c	 ldr         r3, [pc, #0x44C]
  002dc	e5933440	 ldr         r3, [r3, #0x440]
  002e0	e3130002	 tst         r3, #2
  002e4	0a000006	 beq         |$LN10@OALKitlIni|
  002e8	e59d3084	 ldr         r3, [sp, #0x84]
  002ec	e5931000	 ldr         r1, [r3]
  002f0	e59f0474	 ldr         r0, [pc, #0x474]
  002f4	eb000000	 bl          KITLOutputDebugString
  002f8	e3a03001	 mov         r3, #1
  002fc	e58d3028	 str         r3, [sp, #0x28]
  00300	ea000001	 b           |$LN11@OALKitlIni|
  00304		 |$LN10@OALKitlIni|
  00304	e3a03000	 mov         r3, #0
  00308	e58d3028	 str         r3, [sp, #0x28]
  0030c		 |$LN11@OALKitlIni|

; 161  :     KITL_RETAILMSG(ZONE_INIT, (
; 162  :         "pArgs->devLoc.IfcType.... %d\r\n",   pArgs->devLoc.IfcType
; 163  :     ));

  0030c	e59f3418	 ldr         r3, [pc, #0x418]
  00310	e5933440	 ldr         r3, [r3, #0x440]
  00314	e3130002	 tst         r3, #2
  00318	0a000007	 beq         |$LN12@OALKitlIni|
  0031c	e59d3084	 ldr         r3, [sp, #0x84]
  00320	e2833004	 add         r3, r3, #4
  00324	e5931000	 ldr         r1, [r3]
  00328	e59f0438	 ldr         r0, [pc, #0x438]
  0032c	eb000000	 bl          KITLOutputDebugString
  00330	e3a03001	 mov         r3, #1
  00334	e58d302c	 str         r3, [sp, #0x2C]
  00338	ea000001	 b           |$LN13@OALKitlIni|
  0033c		 |$LN12@OALKitlIni|
  0033c	e3a03000	 mov         r3, #0
  00340	e58d302c	 str         r3, [sp, #0x2C]
  00344		 |$LN13@OALKitlIni|

; 164  :     KITL_RETAILMSG(ZONE_INIT, (
; 165  :         "pArgs->devLoc.LogicalLoc. 0x%x\r\n", pArgs->devLoc.LogicalLoc
; 166  :     ));

  00344	e59f33e0	 ldr         r3, [pc, #0x3E0]
  00348	e5933440	 ldr         r3, [r3, #0x440]
  0034c	e3130002	 tst         r3, #2
  00350	0a000007	 beq         |$LN14@OALKitlIni|
  00354	e59d3084	 ldr         r3, [sp, #0x84]
  00358	e283300c	 add         r3, r3, #0xC
  0035c	e5931000	 ldr         r1, [r3]
  00360	e59f03fc	 ldr         r0, [pc, #0x3FC]
  00364	eb000000	 bl          KITLOutputDebugString
  00368	e3a03001	 mov         r3, #1
  0036c	e58d3030	 str         r3, [sp, #0x30]
  00370	ea000001	 b           |$LN15@OALKitlIni|
  00374		 |$LN14@OALKitlIni|
  00374	e3a03000	 mov         r3, #0
  00378	e58d3030	 str         r3, [sp, #0x30]
  0037c		 |$LN15@OALKitlIni|

; 167  :     KITL_RETAILMSG(ZONE_INIT, (
; 168  :         "pArgs->devLoc.PhysicalLoc 0x%x\r\n", pArgs->devLoc.PhysicalLoc
; 169  :     ));

  0037c	e59f33a8	 ldr         r3, [pc, #0x3A8]
  00380	e5933440	 ldr         r3, [r3, #0x440]
  00384	e3130002	 tst         r3, #2
  00388	0a000007	 beq         |$LN16@OALKitlIni|
  0038c	e59d3084	 ldr         r3, [sp, #0x84]
  00390	e2833010	 add         r3, r3, #0x10
  00394	e5931000	 ldr         r1, [r3]
  00398	e59f03c0	 ldr         r0, [pc, #0x3C0]
  0039c	eb000000	 bl          KITLOutputDebugString
  003a0	e3a03001	 mov         r3, #1
  003a4	e58d3034	 str         r3, [sp, #0x34]
  003a8	ea000001	 b           |$LN17@OALKitlIni|
  003ac		 |$LN16@OALKitlIni|
  003ac	e3a03000	 mov         r3, #0
  003b0	e58d3034	 str         r3, [sp, #0x34]
  003b4		 |$LN17@OALKitlIni|

; 170  :     KITL_RETAILMSG(ZONE_INIT, (
; 171  :         "pArgs->devLoc.Pin........ %d\r\n",   pArgs->devLoc.Pin
; 172  :     ));

  003b4	e59f3370	 ldr         r3, [pc, #0x370]
  003b8	e5933440	 ldr         r3, [r3, #0x440]
  003bc	e3130002	 tst         r3, #2
  003c0	0a000007	 beq         |$LN18@OALKitlIni|
  003c4	e59d3084	 ldr         r3, [sp, #0x84]
  003c8	e2833014	 add         r3, r3, #0x14
  003cc	e5931000	 ldr         r1, [r3]
  003d0	e59f0384	 ldr         r0, [pc, #0x384]
  003d4	eb000000	 bl          KITLOutputDebugString
  003d8	e3a03001	 mov         r3, #1
  003dc	e58d3038	 str         r3, [sp, #0x38]
  003e0	ea000001	 b           |$LN19@OALKitlIni|
  003e4		 |$LN18@OALKitlIni|
  003e4	e3a03000	 mov         r3, #0
  003e8	e58d3038	 str         r3, [sp, #0x38]
  003ec		 |$LN19@OALKitlIni|

; 173  :     KITL_RETAILMSG(ZONE_INIT, (
; 174  :         "pArgs->ip4address........ %s\r\n",   OALKitlIPtoString(pArgs->ipAddress)
; 175  :     ));

  003ec	e59f3338	 ldr         r3, [pc, #0x338]
  003f0	e5933440	 ldr         r3, [r3, #0x440]
  003f4	e3130002	 tst         r3, #2
  003f8	0a00000a	 beq         |$LN20@OALKitlIni|
  003fc	e59d3084	 ldr         r3, [sp, #0x84]
  00400	e2833020	 add         r3, r3, #0x20
  00404	e5930000	 ldr         r0, [r3]
  00408	eb000000	 bl          OALKitlIPtoString
  0040c	e58d003c	 str         r0, [sp, #0x3C]
  00410	e59d103c	 ldr         r1, [sp, #0x3C]
  00414	e59f033c	 ldr         r0, [pc, #0x33C]
  00418	eb000000	 bl          KITLOutputDebugString
  0041c	e3a03001	 mov         r3, #1
  00420	e58d3040	 str         r3, [sp, #0x40]
  00424	ea000001	 b           |$LN21@OALKitlIni|
  00428		 |$LN20@OALKitlIni|
  00428	e3a03000	 mov         r3, #0
  0042c	e58d3040	 str         r3, [sp, #0x40]
  00430		 |$LN21@OALKitlIni|

; 176  :     KITL_RETAILMSG(ZONE_INIT, (
; 177  :         "pDevice->Name............ %hs\r\n",   pDevice->name
; 178  :     ));

  00430	e59f32f4	 ldr         r3, [pc, #0x2F4]
  00434	e5933440	 ldr         r3, [r3, #0x440]
  00438	e3130002	 tst         r3, #2
  0043c	0a000006	 beq         |$LN22@OALKitlIni|
  00440	e59d3088	 ldr         r3, [sp, #0x88]
  00444	e5931000	 ldr         r1, [r3]
  00448	e59f0304	 ldr         r0, [pc, #0x304]
  0044c	eb000000	 bl          KITLOutputDebugString
  00450	e3a03001	 mov         r3, #1
  00454	e58d3044	 str         r3, [sp, #0x44]
  00458	ea000001	 b           |$LN23@OALKitlIni|
  0045c		 |$LN22@OALKitlIni|
  0045c	e3a03000	 mov         r3, #0
  00460	e58d3044	 str         r3, [sp, #0x44]
  00464		 |$LN23@OALKitlIni|

; 179  :     KITL_RETAILMSG(ZONE_INIT, (
; 180  :         "pDevice->ifcType......... %d\r\n",   pDevice->ifcType
; 181  :     ));

  00464	e59f32c0	 ldr         r3, [pc, #0x2C0]
  00468	e5933440	 ldr         r3, [r3, #0x440]
  0046c	e3130002	 tst         r3, #2
  00470	0a000007	 beq         |$LN24@OALKitlIni|
  00474	e59d3088	 ldr         r3, [sp, #0x88]
  00478	e2833004	 add         r3, r3, #4
  0047c	e5931000	 ldr         r1, [r3]
  00480	e59f02c8	 ldr         r0, [pc, #0x2C8]
  00484	eb000000	 bl          KITLOutputDebugString
  00488	e3a03001	 mov         r3, #1
  0048c	e58d3048	 str         r3, [sp, #0x48]
  00490	ea000001	 b           |$LN25@OALKitlIni|
  00494		 |$LN24@OALKitlIni|
  00494	e3a03000	 mov         r3, #0
  00498	e58d3048	 str         r3, [sp, #0x48]
  0049c		 |$LN25@OALKitlIni|

; 182  :     KITL_RETAILMSG(ZONE_INIT, (
; 183  :         "pDevice->id.............. 0x%x\r\n", pDevice->id
; 184  :     ));

  0049c	e59f3288	 ldr         r3, [pc, #0x288]
  004a0	e5933440	 ldr         r3, [r3, #0x440]
  004a4	e3130002	 tst         r3, #2
  004a8	0a000007	 beq         |$LN26@OALKitlIni|
  004ac	e59d3088	 ldr         r3, [sp, #0x88]
  004b0	e2833008	 add         r3, r3, #8
  004b4	e5931000	 ldr         r1, [r3]
  004b8	e59f028c	 ldr         r0, [pc, #0x28C]
  004bc	eb000000	 bl          KITLOutputDebugString
  004c0	e3a03001	 mov         r3, #1
  004c4	e58d304c	 str         r3, [sp, #0x4C]
  004c8	ea000001	 b           |$LN27@OALKitlIni|
  004cc		 |$LN26@OALKitlIni|
  004cc	e3a03000	 mov         r3, #0
  004d0	e58d304c	 str         r3, [sp, #0x4C]
  004d4		 |$LN27@OALKitlIni|

; 185  :     KITL_RETAILMSG(ZONE_INIT, (
; 186  :         "pDevice->resource........ %d\r\n",   pDevice->resource
; 187  :     ));

  004d4	e59f3250	 ldr         r3, [pc, #0x250]
  004d8	e5933440	 ldr         r3, [r3, #0x440]
  004dc	e3130002	 tst         r3, #2
  004e0	0a000007	 beq         |$LN28@OALKitlIni|
  004e4	e59d3088	 ldr         r3, [sp, #0x88]
  004e8	e283300c	 add         r3, r3, #0xC
  004ec	e5931000	 ldr         r1, [r3]
  004f0	e59f0250	 ldr         r0, [pc, #0x250]
  004f4	eb000000	 bl          KITLOutputDebugString
  004f8	e3a03001	 mov         r3, #1
  004fc	e58d3050	 str         r3, [sp, #0x50]
  00500	ea000001	 b           |$LN29@OALKitlIni|
  00504		 |$LN28@OALKitlIni|
  00504	e3a03000	 mov         r3, #0
  00508	e58d3050	 str         r3, [sp, #0x50]
  0050c		 |$LN29@OALKitlIni|

; 188  :     KITL_RETAILMSG(ZONE_INIT, (
; 189  :         "pDevice->type............ %d\r\n",   pDevice->type
; 190  :     ));

  0050c	e59f3218	 ldr         r3, [pc, #0x218]
  00510	e5933440	 ldr         r3, [r3, #0x440]
  00514	e3130002	 tst         r3, #2
  00518	0a000007	 beq         |$LN30@OALKitlIni|
  0051c	e59d3088	 ldr         r3, [sp, #0x88]
  00520	e2833010	 add         r3, r3, #0x10
  00524	e5931000	 ldr         r1, [r3]
  00528	e59f0214	 ldr         r0, [pc, #0x214]
  0052c	eb000000	 bl          KITLOutputDebugString
  00530	e3a03001	 mov         r3, #1
  00534	e58d3054	 str         r3, [sp, #0x54]
  00538	ea000001	 b           |$LN31@OALKitlIni|
  0053c		 |$LN30@OALKitlIni|
  0053c	e3a03000	 mov         r3, #0
  00540	e58d3054	 str         r3, [sp, #0x54]
  00544		 |$LN31@OALKitlIni|

; 191  :     KITL_RETAILMSG(ZONE_INIT, (
; 192  :         "pDevice->pDriver......... 0x%x\r\n", pDevice->pDriver
; 193  :     ));

  00544	e59f31e0	 ldr         r3, [pc, #0x1E0]
  00548	e5933440	 ldr         r3, [r3, #0x440]
  0054c	e3130002	 tst         r3, #2
  00550	0a000007	 beq         |$LN32@OALKitlIni|
  00554	e59d3088	 ldr         r3, [sp, #0x88]
  00558	e2833014	 add         r3, r3, #0x14
  0055c	e5931000	 ldr         r1, [r3]
  00560	e59f01d8	 ldr         r0, [pc, #0x1D8]
  00564	eb000000	 bl          KITLOutputDebugString
  00568	e3a03001	 mov         r3, #1
  0056c	e58d3058	 str         r3, [sp, #0x58]
  00570	ea000001	 b           |$LN33@OALKitlIni|
  00574		 |$LN32@OALKitlIni|
  00574	e3a03000	 mov         r3, #0
  00578	e58d3058	 str         r3, [sp, #0x58]
  0057c		 |$LN33@OALKitlIni|

; 194  : 
; 195  :     // If KITL is disabled simply return
; 196  :     if ((pArgs->flags & OAL_KITL_FLAGS_ENABLED) == 0) {

  0057c	e59d3084	 ldr         r3, [sp, #0x84]
  00580	e5933000	 ldr         r3, [r3]
  00584	e3130001	 tst         r3, #1
  00588	1a00000d	 bne         |$LN3@OALKitlIni|

; 197  :         KITL_RETAILMSG(ZONE_WARNING, ("WARN: OALKitlInit: KITL Disabled\r\n"));

  0058c	e59f3198	 ldr         r3, [pc, #0x198]
  00590	e5933440	 ldr         r3, [r3, #0x440]
  00594	e3130001	 tst         r3, #1
  00598	0a000004	 beq         |$LN34@OALKitlIni|
  0059c	e59f0198	 ldr         r0, [pc, #0x198]
  005a0	eb000000	 bl          KITLOutputDebugString
  005a4	e3a03001	 mov         r3, #1
  005a8	e58d305c	 str         r3, [sp, #0x5C]
  005ac	ea000001	 b           |$LN35@OALKitlIni|
  005b0		 |$LN34@OALKitlIni|
  005b0	e3a03000	 mov         r3, #0
  005b4	e58d305c	 str         r3, [sp, #0x5C]
  005b8		 |$LN35@OALKitlIni|

; 198  :         rc = TRUE;

  005b8	e3a03001	 mov         r3, #1
  005bc	e58d300c	 str         r3, [sp, #0xC]

; 199  :         goto cleanUp;

  005c0	ea000046	 b           |$cleanUp$43073|
  005c4		 |$LN3@OALKitlIni|

; 200  :     }
; 201  : 
; 202  :     // Find if we support device on given location
; 203  :     g_kitlState.pDevice = OALKitlFindDevice(&pArgs->devLoc, pDevice);

  005c4	e59d1088	 ldr         r1, [sp, #0x88]
  005c8	e59d3084	 ldr         r3, [sp, #0x84]
  005cc	e2830004	 add         r0, r3, #4
  005d0	eb000000	 bl          OALKitlFindDevice
  005d4	e58d0060	 str         r0, [sp, #0x60]
  005d8	e59d2060	 ldr         r2, [sp, #0x60]
  005dc	e59f3150	 ldr         r3, [pc, #0x150]
  005e0	e583203c	 str         r2, [r3, #0x3C]

; 204  :     if (g_kitlState.pDevice == NULL) {

  005e4	e59f3148	 ldr         r3, [pc, #0x148]
  005e8	e593303c	 ldr         r3, [r3, #0x3C]
  005ec	e3530000	 cmp         r3, #0
  005f0	1a000014	 bne         |$LN2@OALKitlIni|

; 205  :         KITL_RETAILMSG(ZONE_ERROR, (
; 206  :             "ERROR: OALKitlInit: No supported KITL device at interface %d "
; 207  :             "bus %d location 0x%08x\r\n", pArgs->devLoc.IfcType,
; 208  :             pArgs->devLoc.BusNumber, pArgs->devLoc.LogicalLoc
; 209  :         ));

  005f4	e59f3130	 ldr         r3, [pc, #0x130]
  005f8	e5933440	 ldr         r3, [r3, #0x440]
  005fc	e3130902	 tst         r3, #2, 18
  00600	0a00000d	 beq         |$LN36@OALKitlIni|
  00604	e59d3084	 ldr         r3, [sp, #0x84]
  00608	e283300c	 add         r3, r3, #0xC
  0060c	e5933000	 ldr         r3, [r3]
  00610	e59d2084	 ldr         r2, [sp, #0x84]
  00614	e2822008	 add         r2, r2, #8
  00618	e5922000	 ldr         r2, [r2]
  0061c	e59d1084	 ldr         r1, [sp, #0x84]
  00620	e2811004	 add         r1, r1, #4
  00624	e5911000	 ldr         r1, [r1]
  00628	e59f0108	 ldr         r0, [pc, #0x108]
  0062c	eb000000	 bl          KITLOutputDebugString
  00630	e3a03001	 mov         r3, #1
  00634	e58d3064	 str         r3, [sp, #0x64]
  00638	ea000001	 b           |$LN37@OALKitlIni|
  0063c		 |$LN36@OALKitlIni|
  0063c	e3a03000	 mov         r3, #0
  00640	e58d3064	 str         r3, [sp, #0x64]
  00644		 |$LN37@OALKitlIni|

; 210  :         goto cleanUp;

  00644	ea000025	 b           |$cleanUp$43073|
  00648		 |$LN2@OALKitlIni|

; 211  :     }
; 212  :     
; 213  :     // Save KITL configuration 
; 214  :     memcpy(g_kitlState.deviceId, deviceId, sizeof(g_kitlState.deviceId));

  00648	e3a02010	 mov         r2, #0x10
  0064c	e59d1080	 ldr         r1, [sp, #0x80]
  00650	e59f00dc	 ldr         r0, [pc, #0xDC]
  00654	eb000000	 bl          memcpy

; 215  :     memcpy(&g_kitlState.args, pArgs, sizeof(g_kitlState.args));

  00658	e3a0202c	 mov         r2, #0x2C
  0065c	e59d1084	 ldr         r1, [sp, #0x84]
  00660	e59f30cc	 ldr         r3, [pc, #0xCC]
  00664	e2830010	 add         r0, r3, #0x10
  00668	eb000000	 bl          memcpy

; 216  :             
; 217  :     // Start KITL in desired mode
; 218  :     if (!KitlInit((pArgs->flags & OAL_KITL_FLAGS_PASSIVE) == 0)) {

  0066c	e59d3084	 ldr         r3, [sp, #0x84]
  00670	e5933000	 ldr         r3, [r3]
  00674	e3130002	 tst         r3, #2
  00678	1a000002	 bne         |$LN38@OALKitlIni|
  0067c	e3a03001	 mov         r3, #1
  00680	e58d3068	 str         r3, [sp, #0x68]
  00684	ea000001	 b           |$LN39@OALKitlIni|
  00688		 |$LN38@OALKitlIni|
  00688	e3a03000	 mov         r3, #0
  0068c	e58d3068	 str         r3, [sp, #0x68]
  00690		 |$LN39@OALKitlIni|
  00690	e59d0068	 ldr         r0, [sp, #0x68]
  00694	eb000000	 bl          KitlInit
  00698	e58d006c	 str         r0, [sp, #0x6C]
  0069c	e59d306c	 ldr         r3, [sp, #0x6C]
  006a0	e3530000	 cmp         r3, #0
  006a4	1a00000b	 bne         |$LN1@OALKitlIni|

; 219  :         KITL_RETAILMSG(ZONE_ERROR, ("ERROR: OALKitlInit: KitlInit failed\r\n"));

  006a8	e59f307c	 ldr         r3, [pc, #0x7C]
  006ac	e5933440	 ldr         r3, [r3, #0x440]
  006b0	e3130902	 tst         r3, #2, 18
  006b4	0a000004	 beq         |$LN40@OALKitlIni|
  006b8	e59f0070	 ldr         r0, [pc, #0x70]
  006bc	eb000000	 bl          KITLOutputDebugString
  006c0	e3a03001	 mov         r3, #1
  006c4	e58d3070	 str         r3, [sp, #0x70]
  006c8	ea000001	 b           |$LN41@OALKitlIni|
  006cc		 |$LN40@OALKitlIni|
  006cc	e3a03000	 mov         r3, #0
  006d0	e58d3070	 str         r3, [sp, #0x70]
  006d4		 |$LN41@OALKitlIni|

; 220  :         goto cleanUp;

  006d4	ea000001	 b           |$cleanUp$43073|
  006d8		 |$LN1@OALKitlIni|

; 221  :     }
; 222  :     
; 223  :     rc = TRUE;

  006d8	e3a03001	 mov         r3, #1
  006dc	e58d300c	 str         r3, [sp, #0xC]
  006e0		 |$cleanUp$43073|

; 224  :     
; 225  : cleanUp:
; 226  :     KITL_RETAILMSG(ZONE_KITL_OAL, ("-OALKitlInit(rc = %d)\r\n", rc));

  006e0	e59f3044	 ldr         r3, [pc, #0x44]
  006e4	e5933440	 ldr         r3, [r3, #0x440]
  006e8	e3130a01	 tst         r3, #1, 20
  006ec	0a000005	 beq         |$LN42@OALKitlIni|
  006f0	e59d100c	 ldr         r1, [sp, #0xC]
  006f4	e59f002c	 ldr         r0, [pc, #0x2C]
  006f8	eb000000	 bl          KITLOutputDebugString
  006fc	e3a03001	 mov         r3, #1
  00700	e58d3074	 str         r3, [sp, #0x74]
  00704	ea000001	 b           |$LN43@OALKitlIni|
  00708		 |$LN42@OALKitlIni|
  00708	e3a03000	 mov         r3, #0
  0070c	e58d3074	 str         r3, [sp, #0x74]
  00710		 |$LN43@OALKitlIni|

; 227  :     return rc;

  00710	e59d300c	 ldr         r3, [sp, #0xC]
  00714	e58d301c	 str         r3, [sp, #0x1C]

; 228  : }

  00718	e59d001c	 ldr         r0, [sp, #0x1C]
  0071c	e28dd078	 add         sp, sp, #0x78
  00720	e89d6000	 ldmia       sp, {sp, lr}
  00724	e12fff1e	 bx          lr
  00728		 |$LN47@OALKitlIni|
  00728		 |$LN48@OALKitlIni|
  00728	00000000	 DCD         |??_C@_0BI@KCIPJAAG@?9OALKitlInit?$CIrc?5?$DN?5?$CFd?$CJ?$AN?6?$AA@|
  0072c		 |$LN49@OALKitlIni|
  0072c	00000000	 DCD         |dpCurSettings|
  00730		 |$LN50@OALKitlIni|
  00730	00000000	 DCD         |??_C@_0CG@NCCHEHBN@ERROR?3?5OALKitlInit?3?5KitlInit?5fai@|
  00734		 |$LN51@OALKitlIni|
  00734	00000000	 DCD         |g_kitlState|
  00738		 |$LN52@OALKitlIni|
  00738	00000000	 DCD         |??_C@_0FG@GMOHKIKA@ERROR?3?5OALKitlInit?3?5No?5supported@|
  0073c		 |$LN53@OALKitlIni|
  0073c	00000000	 DCD         |??_C@_0CD@KFHIJAFP@WARN?3?5OALKitlInit?3?5KITL?5Disabled@|
  00740		 |$LN54@OALKitlIni|
  00740	00000000	 DCD         |??_C@_0CB@ICNOHDED@pDevice?9?$DOpDriver?4?4?4?4?4?4?4?4?4?50x?$CFx?$AN?6@|
  00744		 |$LN55@OALKitlIni|
  00744	00000000	 DCD         |??_C@_0BP@LAJLJKFE@pDevice?9?$DOtype?4?4?4?4?4?4?4?4?4?4?4?4?5?$CFd?$AN?6?$AA@|
  00748		 |$LN56@OALKitlIni|
  00748	00000000	 DCD         |??_C@_0BP@OJPECLKF@pDevice?9?$DOresource?4?4?4?4?4?4?4?4?5?$CFd?$AN?6?$AA@|
  0074c		 |$LN57@OALKitlIni|
  0074c	00000000	 DCD         |??_C@_0CB@JAOILBKH@pDevice?9?$DOid?4?4?4?4?4?4?4?4?4?4?4?4?4?4?50x?$CFx?$AN?6@|
  00750		 |$LN58@OALKitlIni|
  00750	00000000	 DCD         |??_C@_0BP@ELIKEIPK@pDevice?9?$DOifcType?4?4?4?4?4?4?4?4?4?5?$CFd?$AN?6?$AA@|
  00754		 |$LN59@OALKitlIni|
  00754	00000000	 DCD         |??_C@_0CA@MADPCADD@pDevice?9?$DOName?4?4?4?4?4?4?4?4?4?4?4?4?5?$CFhs?$AN?6?$AA@|
  00758		 |$LN60@OALKitlIni|
  00758	00000000	 DCD         |??_C@_0BP@GCIAPLEP@pArgs?9?$DOip4address?4?4?4?4?4?4?4?4?5?$CFs?$AN?6?$AA@|
  0075c		 |$LN61@OALKitlIni|
  0075c	00000000	 DCD         |??_C@_0BP@EDAFLEND@pArgs?9?$DOdevLoc?4Pin?4?4?4?4?4?4?4?4?5?$CFd?$AN?6?$AA@|
  00760		 |$LN62@OALKitlIni|
  00760	00000000	 DCD         |??_C@_0CB@ELNIEECP@pArgs?9?$DOdevLoc?4PhysicalLoc?50x?$CFx?$AN?6@|
  00764		 |$LN63@OALKitlIni|
  00764	00000000	 DCD         |??_C@_0CB@OOHPGPEK@pArgs?9?$DOdevLoc?4LogicalLoc?4?50x?$CFx?$AN?6@|
  00768		 |$LN64@OALKitlIni|
  00768	00000000	 DCD         |??_C@_0BP@CLIEPDAL@pArgs?9?$DOdevLoc?4IfcType?4?4?4?4?5?$CFd?$AN?6?$AA@|
  0076c		 |$LN65@OALKitlIni|
  0076c	00000000	 DCD         |??_C@_0CB@LJCIEGGC@pArgs?9?$DOflags?4?4?4?4?4?4?4?4?4?4?4?4?4?50x?$CFx?$AN?6@|
  00770		 |$LN66@OALKitlIni|
  00770	00000000	 DCD         |??_C@_0BP@HJJCJHBD@DeviceId?4?4?4?4?4?4?4?4?4?4?4?4?4?4?4?4?4?5?$CFs?$AN?6?$AA@|
  00774		 |$LN67@OALKitlIni|
  00774	00000000	 DCD         |??_C@_0DF@BBIFGKFF@?$CLOALKitlInit?$CI?8?$CFhs?8?0?50x?$CF08x?5?9?5?$CFd?1@|
  00778		 |$M43230|

			 ENDP  ; |OALKitlInit|

	EXPORT	|??_C@_0BD@GBONLPAN@?9OALKitlPowerOff?$AN?6?$AA@| [ DATA ] ; `string'
	EXPORT	|??_C@_0BD@PMDBLEBO@?$CLOALKitlPowerOff?$AN?6?$AA@| [ DATA ] ; `string'

  00020			 AREA	 |.pdata|, PDATA
|$T43262| DCD	|$LN15@OALKitlPow|
	DCD	0x40005002

  00000			 AREA	 |.rdata|, DATA, READONLY
|??_C@_0BD@GBONLPAN@?9OALKitlPowerOff?$AN?6?$AA@| DCB "-OALKitlPowerOff", 0xd
	DCB	0xa, 0x0				; `string'

  00000			 AREA	 |.rdata|, DATA, READONLY
|??_C@_0BD@PMDBLEBO@?$CLOALKitlPowerOff?$AN?6?$AA@| DCB "+OALKitlPowerOff"
	DCB	0xd, 0xa, 0x0				; `string'
; Function compile flags: /Odtp

  00778			 AREA	 |.text|, CODE, ARM

  00778		 |OALKitlPowerOff| PROC

; 239  : {

  00778		 |$LN15@OALKitlPow|
  00778	e52de004	 str         lr, [sp, #-4]!
  0077c	e24dd014	 sub         sp, sp, #0x14
  00780		 |$M43259|

; 240  :     KITL_RETAILMSG(ZONE_KITL_OAL, ("+OALKitlPowerOff\r\n"));

  00780	e59f3124	 ldr         r3, [pc, #0x124]
  00784	e5933440	 ldr         r3, [r3, #0x440]
  00788	e3130a01	 tst         r3, #1, 20
  0078c	0a000004	 beq         |$LN9@OALKitlPow|
  00790	e59f011c	 ldr         r0, [pc, #0x11C]
  00794	eb000000	 bl          KITLOutputDebugString
  00798	e3a03001	 mov         r3, #1
  0079c	e58d3008	 str         r3, [sp, #8]
  007a0	ea000001	 b           |$LN10@OALKitlPow|
  007a4		 |$LN9@OALKitlPow|
  007a4	e3a03000	 mov         r3, #0
  007a8	e58d3008	 str         r3, [sp, #8]
  007ac		 |$LN10@OALKitlPow|

; 241  :     
; 242  :     switch (g_kitlState.pDevice->type) {

  007ac	e59f30fc	 ldr         r3, [pc, #0xFC]
  007b0	e593303c	 ldr         r3, [r3, #0x3C]
  007b4	e2833010	 add         r3, r3, #0x10
  007b8	e5933000	 ldr         r3, [r3]
  007bc	e58d300c	 str         r3, [sp, #0xC]
  007c0	e59d300c	 ldr         r3, [sp, #0xC]
  007c4	e3530001	 cmp         r3, #1
  007c8	0a000016	 beq         |$LN2@OALKitlPow|
  007cc	e59d300c	 ldr         r3, [sp, #0xC]
  007d0	e3530002	 cmp         r3, #2
  007d4	0a000000	 beq         |$LN4@OALKitlPow|
  007d8	ea000024	 b           |$LN5@OALKitlPow|
  007dc		 |$LN4@OALKitlPow|

; 243  : #ifdef KITL_ETHER
; 244  :     case OAL_KITL_TYPE_ETH:
; 245  :         {
; 246  :             OAL_KITL_ETH_DRIVER *pDriver;
; 247  :             pDriver = (OAL_KITL_ETH_DRIVER*)g_kitlState.pDevice->pDriver;

  007dc	e59f30cc	 ldr         r3, [pc, #0xCC]
  007e0	e593303c	 ldr         r3, [r3, #0x3C]
  007e4	e2833014	 add         r3, r3, #0x14
  007e8	e5933000	 ldr         r3, [r3]
  007ec	e58d3000	 str         r3, [sp]

; 248  :             if (pDriver && pDriver->pfnPowerOff != NULL) pDriver->pfnPowerOff();

  007f0	e59d3000	 ldr         r3, [sp]
  007f4	e3530000	 cmp         r3, #0
  007f8	0a000009	 beq         |$LN3@OALKitlPow|
  007fc	e59d3000	 ldr         r3, [sp]
  00800	e283301c	 add         r3, r3, #0x1C
  00804	e5933000	 ldr         r3, [r3]
  00808	e3530000	 cmp         r3, #0
  0080c	0a000004	 beq         |$LN3@OALKitlPow|
  00810	e59d3000	 ldr         r3, [sp]
  00814	e283301c	 add         r3, r3, #0x1C
  00818	e5933000	 ldr         r3, [r3]
  0081c	e1a0e00f	 mov         lr, pc
  00820	e12fff13	 bx          r3
  00824		 |$LN3@OALKitlPow|

; 249  :         }            
; 250  :         break;

  00824	ea000011	 b           |$LN5@OALKitlPow|
  00828		 |$LN2@OALKitlPow|

; 251  : #endif
; 252  : #ifdef KITL_SERIAL
; 253  :      case OAL_KITL_TYPE_SERIAL:
; 254  :         {
; 255  :             OAL_KITL_SERIAL_DRIVER *pDriver;
; 256  :             pDriver = (OAL_KITL_SERIAL_DRIVER*)g_kitlState.pDevice->pDriver;

  00828	e59f3080	 ldr         r3, [pc, #0x80]
  0082c	e593303c	 ldr         r3, [r3, #0x3C]
  00830	e2833014	 add         r3, r3, #0x14
  00834	e5933000	 ldr         r3, [r3]
  00838	e58d3004	 str         r3, [sp, #4]

; 257  :             if (pDriver && pDriver->pfnPowerOff != NULL) pDriver->pfnPowerOff();

  0083c	e59d3004	 ldr         r3, [sp, #4]
  00840	e3530000	 cmp         r3, #0
  00844	0a000009	 beq         |$LN1@OALKitlPow|
  00848	e59d3004	 ldr         r3, [sp, #4]
  0084c	e283301c	 add         r3, r3, #0x1C
  00850	e5933000	 ldr         r3, [r3]
  00854	e3530000	 cmp         r3, #0
  00858	0a000004	 beq         |$LN1@OALKitlPow|
  0085c	e59d3004	 ldr         r3, [sp, #4]
  00860	e283301c	 add         r3, r3, #0x1C
  00864	e5933000	 ldr         r3, [r3]
  00868	e1a0e00f	 mov         lr, pc
  0086c	e12fff13	 bx          r3
  00870		 |$LN1@OALKitlPow|
  00870		 |$LN5@OALKitlPow|

; 258  :         }
; 259  :         break;
; 260  : #endif
; 261  :     }        
; 262  : 
; 263  :     KITL_RETAILMSG(ZONE_KITL_OAL, ("-OALKitlPowerOff\r\n"));

  00870	e59f3034	 ldr         r3, [pc, #0x34]
  00874	e5933440	 ldr         r3, [r3, #0x440]
  00878	e3130a01	 tst         r3, #1, 20
  0087c	0a000004	 beq         |$LN11@OALKitlPow|
  00880	e59f0020	 ldr         r0, [pc, #0x20]
  00884	eb000000	 bl          KITLOutputDebugString
  00888	e3a03001	 mov         r3, #1
  0088c	e58d3010	 str         r3, [sp, #0x10]
  00890	ea000001	 b           |$LN12@OALKitlPow|
  00894		 |$LN11@OALKitlPow|
  00894	e3a03000	 mov         r3, #0
  00898	e58d3010	 str         r3, [sp, #0x10]
  0089c		 |$LN12@OALKitlPow|

; 264  : }

  0089c	e28dd014	 add         sp, sp, #0x14
  008a0	e49de004	 ldr         lr, [sp], #4
  008a4	e12fff1e	 bx          lr
  008a8		 |$LN16@OALKitlPow|
  008a8		 |$LN17@OALKitlPow|
  008a8	00000000	 DCD         |??_C@_0BD@GBONLPAN@?9OALKitlPowerOff?$AN?6?$AA@|
  008ac		 |$LN18@OALKitlPow|
  008ac	00000000	 DCD         |dpCurSettings|
  008b0		 |$LN19@OALKitlPow|
  008b0	00000000	 DCD         |g_kitlState|
  008b4		 |$LN20@OALKitlPow|
  008b4	00000000	 DCD         |??_C@_0BD@PMDBLEBO@?$CLOALKitlPowerOff?$AN?6?$AA@|
  008b8		 |$M43260|

			 ENDP  ; |OALKitlPowerOff|

	EXPORT	|??_C@_0BC@KIOCKNCJ@?9OALKitlPowerOn?$AN?6?$AA@| [ DATA ] ; `string'
	EXPORT	|??_C@_0BC@KGJOBBKM@?$CLOALKitlPowerOn?$AN?6?$AA@| [ DATA ] ; `string'

  00028			 AREA	 |.pdata|, PDATA
|$T43276| DCD	|$LN15@OALKitlPow@2|
	DCD	0x40004a02

  00000			 AREA	 |.rdata|, DATA, READONLY
|??_C@_0BC@KIOCKNCJ@?9OALKitlPowerOn?$AN?6?$AA@| DCB "-OALKitlPowerOn", 0xd
	DCB	0xa, 0x0				; `string'

  00000			 AREA	 |.rdata|, DATA, READONLY
|??_C@_0BC@KGJOBBKM@?$CLOALKitlPowerOn?$AN?6?$AA@| DCB "+OALKitlPowerOn", 0xd
	DCB	0xa, 0x0				; `string'
; Function compile flags: /Odtp

  008b8			 AREA	 |.text|, CODE, ARM

  008b8		 |OALKitlPowerOn| PROC

; 275  : {

  008b8		 |$LN15@OALKitlPow@2|
  008b8	e52de004	 str         lr, [sp, #-4]!
  008bc	e24dd014	 sub         sp, sp, #0x14
  008c0		 |$M43273|

; 276  :     KITL_RETAILMSG(ZONE_KITL_OAL, ("+OALKitlPowerOn\r\n"));

  008c0	e59f310c	 ldr         r3, [pc, #0x10C]
  008c4	e5933440	 ldr         r3, [r3, #0x440]
  008c8	e3130a01	 tst         r3, #1, 20
  008cc	0a000004	 beq         |$LN9@OALKitlPow@2|
  008d0	e59f0104	 ldr         r0, [pc, #0x104]
  008d4	eb000000	 bl          KITLOutputDebugString
  008d8	e3a03001	 mov         r3, #1
  008dc	e58d3008	 str         r3, [sp, #8]
  008e0	ea000001	 b           |$LN10@OALKitlPow@2|
  008e4		 |$LN9@OALKitlPow@2|
  008e4	e3a03000	 mov         r3, #0
  008e8	e58d3008	 str         r3, [sp, #8]
  008ec		 |$LN10@OALKitlPow@2|

; 277  : 
; 278  :     switch (g_kitlState.pDevice->type) {

  008ec	e59f30e4	 ldr         r3, [pc, #0xE4]
  008f0	e593303c	 ldr         r3, [r3, #0x3C]
  008f4	e2833010	 add         r3, r3, #0x10
  008f8	e5933000	 ldr         r3, [r3]
  008fc	e58d300c	 str         r3, [sp, #0xC]
  00900	e59d300c	 ldr         r3, [sp, #0xC]
  00904	e3530001	 cmp         r3, #1
  00908	0a000013	 beq         |$LN2@OALKitlPow@2|
  0090c	e59d300c	 ldr         r3, [sp, #0xC]
  00910	e3530002	 cmp         r3, #2
  00914	0a000000	 beq         |$LN4@OALKitlPow@2|
  00918	ea00001e	 b           |$LN5@OALKitlPow@2|
  0091c		 |$LN4@OALKitlPow@2|

; 279  : #ifdef KITL_ETHER
; 280  :     case OAL_KITL_TYPE_ETH:
; 281  :         {
; 282  :             OAL_KITL_ETH_DRIVER *pDriver;
; 283  :             pDriver = (OAL_KITL_ETH_DRIVER*)g_kitlState.pDevice->pDriver;

  0091c	e59f30b4	 ldr         r3, [pc, #0xB4]
  00920	e593303c	 ldr         r3, [r3, #0x3C]
  00924	e2833014	 add         r3, r3, #0x14
  00928	e5933000	 ldr         r3, [r3]
  0092c	e58d3000	 str         r3, [sp]

; 284  :             if (pDriver->pfnPowerOn != NULL) pDriver->pfnPowerOn();

  00930	e59d3000	 ldr         r3, [sp]
  00934	e2833020	 add         r3, r3, #0x20
  00938	e5933000	 ldr         r3, [r3]
  0093c	e3530000	 cmp         r3, #0
  00940	0a000004	 beq         |$LN3@OALKitlPow@2|
  00944	e59d3000	 ldr         r3, [sp]
  00948	e2833020	 add         r3, r3, #0x20
  0094c	e5933000	 ldr         r3, [r3]
  00950	e1a0e00f	 mov         lr, pc
  00954	e12fff13	 bx          r3
  00958		 |$LN3@OALKitlPow@2|

; 285  :         }            
; 286  :         break;

  00958	ea00000e	 b           |$LN5@OALKitlPow@2|
  0095c		 |$LN2@OALKitlPow@2|

; 287  : #endif
; 288  : #ifdef KITL_SERIAL
; 289  :      case OAL_KITL_TYPE_SERIAL:
; 290  :         {
; 291  :             OAL_KITL_SERIAL_DRIVER *pDriver;
; 292  :             pDriver = (OAL_KITL_SERIAL_DRIVER*)g_kitlState.pDevice->pDriver;

  0095c	e59f3074	 ldr         r3, [pc, #0x74]
  00960	e593303c	 ldr         r3, [r3, #0x3C]
  00964	e2833014	 add         r3, r3, #0x14
  00968	e5933000	 ldr         r3, [r3]
  0096c	e58d3004	 str         r3, [sp, #4]

; 293  :             if (pDriver->pfnPowerOn != NULL) pDriver->pfnPowerOn();

  00970	e59d3004	 ldr         r3, [sp, #4]
  00974	e2833020	 add         r3, r3, #0x20
  00978	e5933000	 ldr         r3, [r3]
  0097c	e3530000	 cmp         r3, #0
  00980	0a000004	 beq         |$LN1@OALKitlPow@2|
  00984	e59d3004	 ldr         r3, [sp, #4]
  00988	e2833020	 add         r3, r3, #0x20
  0098c	e5933000	 ldr         r3, [r3]
  00990	e1a0e00f	 mov         lr, pc
  00994	e12fff13	 bx          r3
  00998		 |$LN1@OALKitlPow@2|
  00998		 |$LN5@OALKitlPow@2|

; 294  :         }
; 295  :         break;
; 296  : #endif
; 297  :     }        
; 298  : 
; 299  :     KITL_RETAILMSG(ZONE_KITL_OAL, ("-OALKitlPowerOn\r\n"));

  00998	e59f3034	 ldr         r3, [pc, #0x34]
  0099c	e5933440	 ldr         r3, [r3, #0x440]
  009a0	e3130a01	 tst         r3, #1, 20
  009a4	0a000004	 beq         |$LN11@OALKitlPow@2|
  009a8	e59f0020	 ldr         r0, [pc, #0x20]
  009ac	eb000000	 bl          KITLOutputDebugString
  009b0	e3a03001	 mov         r3, #1
  009b4	e58d3010	 str         r3, [sp, #0x10]
  009b8	ea000001	 b           |$LN12@OALKitlPow@2|
  009bc		 |$LN11@OALKitlPow@2|
  009bc	e3a03000	 mov         r3, #0
  009c0	e58d3010	 str         r3, [sp, #0x10]
  009c4		 |$LN12@OALKitlPow@2|

; 300  : }

  009c4	e28dd014	 add         sp, sp, #0x14
  009c8	e49de004	 ldr         lr, [sp], #4
  009cc	e12fff1e	 bx          lr
  009d0		 |$LN16@OALKitlPow@2|
  009d0		 |$LN17@OALKitlPow@2|
  009d0	00000000	 DCD         |??_C@_0BC@KIOCKNCJ@?9OALKitlPowerOn?$AN?6?$AA@|
  009d4		 |$LN18@OALKitlPow@2|
  009d4	00000000	 DCD         |dpCurSettings|
  009d8		 |$LN19@OALKitlPow@2|
  009d8	00000000	 DCD         |g_kitlState|
  009dc		 |$LN20@OALKitlPow@2|
  009dc	00000000	 DCD         |??_C@_0BC@KGJOBBKM@?$CLOALKitlPowerOn?$AN?6?$AA@|
  009e0		 |$M43274|

			 ENDP  ; |OALKitlPowerOn|

	END
