; Listing generated by Microsoft (R) Optimizing Compiler Version 14.01.60511.01 

	TTL	C:\WINCE600\PLATFORM\Z2170\SRC\DRIVERS\sysctrl\ChkDevice.cpp
	CODE32

  00000			 AREA	 |.drectve|, DRECTVE
	DCB	"-defaultlib:LIBCMT "
	DCB	"-defaultlib:OLDNAMES "

	EXPORT	|??_C@_1BE@BKKMLFKH@?$AA8?$AA0?$AA6?$AA?5?$AAH?$AAS?$AAM?$AAH?$AAZ?$AA?$AA@| [ DATA ] ; `string'
	EXPORT	|??_C@_1BA@HLPDAKHN@?$AA8?$AA0?$AA6?$AA?5?$AAM?$AAH?$AAZ?$AA?$AA@| [ DATA ] ; `string'
	EXPORT	|??_C@_1BA@FGCEKGOE@?$AA6?$AA2?$AA4?$AA?5?$AAM?$AAH?$AAZ?$AA?$AA@| [ DATA ] ; `string'
	EXPORT	|??_C@_1BA@EBNODIMD@?$AA4?$AA1?$AA6?$AA?5?$AAM?$AAH?$AAZ?$AA?$AA@| [ DATA ] ; `string'
	EXPORT	|??_C@_1BA@GGHBGDEP@?$AA2?$AA0?$AA8?$AA?5?$AAM?$AAH?$AAZ?$AA?$AA@| [ DATA ] ; `string'
	EXPORT	|??_C@_1BC@EKPDPFCF@?$AAR?$AAi?$AAn?$AAg?$AA?5?$AAO?$AAS?$AAC?$AA?$AA@| [ DATA ] ; `string'

  00000			 AREA	 |.data|, DATA
|g_szOPDescription| DCD |??_C@_1BC@EKPDPFCF@?$AAR?$AAi?$AAn?$AAg?$AA?5?$AAO?$AAS?$AAC?$AA?$AA@|
	DCD	|??_C@_1BA@GGHBGDEP@?$AA2?$AA0?$AA8?$AA?5?$AAM?$AAH?$AAZ?$AA?$AA@|
	DCD	|??_C@_1BA@EBNODIMD@?$AA4?$AA1?$AA6?$AA?5?$AAM?$AAH?$AAZ?$AA?$AA@|
	DCD	|??_C@_1BA@FGCEKGOE@?$AA6?$AA2?$AA4?$AA?5?$AAM?$AAH?$AAZ?$AA?$AA@|
	DCD	|??_C@_1BA@HLPDAKHN@?$AA8?$AA0?$AA6?$AA?5?$AAM?$AAH?$AAZ?$AA?$AA@|
	DCD	|??_C@_1BE@BKKMLFKH@?$AA8?$AA0?$AA6?$AA?5?$AAH?$AAS?$AAM?$AAH?$AAZ?$AA?$AA@|

  00000			 AREA	 |.rdata|, DATA, READONLY
|??_C@_1BE@BKKMLFKH@?$AA8?$AA0?$AA6?$AA?5?$AAH?$AAS?$AAM?$AAH?$AAZ?$AA?$AA@| DCB "8"
	DCB	0x0, "0", 0x0, "6", 0x0, " ", 0x0, "H", 0x0, "S", 0x0, "M"
	DCB	0x0, "H", 0x0, "Z", 0x0, 0x0, 0x0	; `string'

  00000			 AREA	 |.rdata|, DATA, READONLY
|??_C@_1BA@HLPDAKHN@?$AA8?$AA0?$AA6?$AA?5?$AAM?$AAH?$AAZ?$AA?$AA@| DCB "8"
	DCB	0x0, "0", 0x0, "6", 0x0, " ", 0x0, "M", 0x0, "H", 0x0, "Z"
	DCB	0x0, 0x0, 0x0				; `string'

  00000			 AREA	 |.rdata|, DATA, READONLY
|??_C@_1BA@FGCEKGOE@?$AA6?$AA2?$AA4?$AA?5?$AAM?$AAH?$AAZ?$AA?$AA@| DCB "6"
	DCB	0x0, "2", 0x0, "4", 0x0, " ", 0x0, "M", 0x0, "H", 0x0, "Z"
	DCB	0x0, 0x0, 0x0				; `string'

  00000			 AREA	 |.rdata|, DATA, READONLY
|??_C@_1BA@EBNODIMD@?$AA4?$AA1?$AA6?$AA?5?$AAM?$AAH?$AAZ?$AA?$AA@| DCB "4"
	DCB	0x0, "1", 0x0, "6", 0x0, " ", 0x0, "M", 0x0, "H", 0x0, "Z"
	DCB	0x0, 0x0, 0x0				; `string'

  00000			 AREA	 |.rdata|, DATA, READONLY
|??_C@_1BA@GGHBGDEP@?$AA2?$AA0?$AA8?$AA?5?$AAM?$AAH?$AAZ?$AA?$AA@| DCB "2"
	DCB	0x0, "0", 0x0, "8", 0x0, " ", 0x0, "M", 0x0, "H", 0x0, "Z"
	DCB	0x0, 0x0, 0x0				; `string'

  00000			 AREA	 |.rdata|, DATA, READONLY
|??_C@_1BC@EKPDPFCF@?$AAR?$AAi?$AAn?$AAg?$AA?5?$AAO?$AAS?$AAC?$AA?$AA@| DCB "R"
	DCB	0x0, "i", 0x0, "n", 0x0, "g", 0x0, " ", 0x0, "O", 0x0, "S"
	DCB	0x0, "C", 0x0, 0x0, 0x0			; `string'
	EXPORT	|__$ArrayPad$| [ DATA ]
	EXPORT	|?ChkBuiltInRFID@@YAHXZ|		; ChkBuiltInRFID
	EXPORT	|??_C@_1FE@NLOGDNNL@?$AAC?$AAh?$AAk?$AAB?$AAu?$AAi?$AAl?$AAt?$AAI?$AAn?$AAR?$AAF?$AAI?$AAD?$AA?3?$AA?5?$AAR?$AAe?$AAa?$AAd?$AA_?$AAR?$AAF?$AAI?$AAD?$AA_?$AAC?$AAM?$AAD?$AA?5?$AA?9?$AA?5@| [ DATA ] ; `string'
	EXPORT	|??_C@_0BH@KHJEGHFI@010B000304140401000000?$AA@| [ DATA ] ; `string'
	EXPORT	|??_C@_1EM@IGOLJABP@?$AAC?$AAh?$AAk?$AAB?$AAu?$AAi?$AAl?$AAt?$AAI?$AAn?$AAR?$AAF?$AAI?$AAD?$AA?3?$AA?5?$AAW?$AAr?$AAi?$AAt?$AAe?$AA_?$AAR?$AAF?$AAI?$AAD?$AA_?$AAC?$AAM?$AAD?$AA?5?$AA?9@| [ DATA ] ; `string'
	EXPORT	|??_C@_1EG@OKJEDKPN@?$AAC?$AAh?$AAk?$AAB?$AAu?$AAi?$AAl?$AAt?$AAI?$AAn?$AAR?$AAF?$AAI?$AAD?$AA?3?$AA?5?$AAS?$AAe?$AAt?$AAu?$AAp?$AAC?$AAO?$AAM?$AAP?$AAo?$AAr?$AAt?$AA?3?$AA?5?$AA?$CF?$AAs@| [ DATA ] ; `string'
	EXPORT	|??_C@_1EA@DBGAACNK@?$AA?$CL?$AAC?$AAh?$AAk?$AAB?$AAu?$AAi?$AAl?$AAt?$AAI?$AAn?$AAR?$AAF?$AAI?$AAD?$AA?3?$AA?5?$AAE?$AAn?$AAu?$AAm?$AAC?$AAO?$AAM?$AAP?$AAo?$AAr?$AAt?$AAs?$AA?6?$AA?$AN?$AA?$AA@| [ DATA ] ; `string'
	EXPORT	|??_C@_1DA@HCJJIEPA@?$AAD?$AAr?$AAi?$AAv?$AAe?$AAr?$AAs?$AA?2?$AAB?$AAu?$AAi?$AAl?$AAt?$AAI?$AAn?$AA?2?$AAB?$AAC?$AA_?$AAU?$AAA?$AAR?$AAT?$AA?$AA@| [ DATA ] ; `string'
	IMPORT	|??1CComProtocol@@QAA@XZ|		; CComProtocol::~CComProtocol
	IMPORT	|?CloseCOMPort@CComProtocol@@QAAXPAX@Z|	; CComProtocol::CloseCOMPort
	IMPORT	|?Read_RFID_CMD@CComProtocol@@QAAHPAXPAEKPAK@Z| ; CComProtocol::Read_RFID_CMD
	IMPORT	|?Write_RFID_CMD@CComProtocol@@QAAHPAXPAD@Z| ; CComProtocol::Write_RFID_CMD
	IMPORT	|?SetupCOMPort@CComProtocol@@QAAPAXPBGKEEE@Z| ; CComProtocol::SetupCOMPort
	IMPORT	|?EnumCOMPorts@CComProtocol@@QAAHPAG0@Z| ; CComProtocol::EnumCOMPorts
	IMPORT	|NKDbgPrintfW|
	IMPORT	|??0CComProtocol@@QAA@XZ|		; CComProtocol::CComProtocol
	IMPORT	|__GSHandlerCheck|
	IMPORT	|__security_cookie|
	IMPORT	|__security_check_cookie|
; File c:\wince600\platform\z2170\src\drivers\sysctrl\chkdevice.cpp

  00000			 AREA	 |.pdata|, PDATA
|$T37264| DCD	|$LN23@ChkBuiltIn|
	DCD	0xc0005002

  00000			 AREA	 |.xdata|, DATA
|$T37260| DCD	0xffffffe8

  00000			 AREA	 |.rdata|, DATA, READONLY
|??_C@_1FE@NLOGDNNL@?$AAC?$AAh?$AAk?$AAB?$AAu?$AAi?$AAl?$AAt?$AAI?$AAn?$AAR?$AAF?$AAI?$AAD?$AA?3?$AA?5?$AAR?$AAe?$AAa?$AAd?$AA_?$AAR?$AAF?$AAI?$AAD?$AA_?$AAC?$AAM?$AAD?$AA?5?$AA?9?$AA?5@| DCB "C"
	DCB	0x0, "h", 0x0, "k", 0x0, "B", 0x0, "u", 0x0, "i", 0x0, "l"
	DCB	0x0, "t", 0x0, "I", 0x0, "n", 0x0, "R", 0x0, "F", 0x0, "I"
	DCB	0x0, "D", 0x0, ":", 0x0, " ", 0x0, "R", 0x0, "e", 0x0, "a"
	DCB	0x0, "d", 0x0, "_", 0x0, "R", 0x0, "F", 0x0, "I", 0x0, "D"
	DCB	0x0, "_", 0x0, "C", 0x0, "M", 0x0, "D", 0x0, " ", 0x0, "-"
	DCB	0x0, " ", 0x0, "%", 0x0, "d", 0x0, " ", 0x0, "-", 0x0, " "
	DCB	0x0, "%", 0x0, "d", 0x0, 0xa, 0x0, 0xd, 0x0, 0x0, 0x0 ; `string'

  00000			 AREA	 |.rdata|, DATA, READONLY
|??_C@_0BH@KHJEGHFI@010B000304140401000000?$AA@| DCB "010B000304140401000"
	DCB	"000", 0x0				; `string'

  00000			 AREA	 |.rdata|, DATA, READONLY
|??_C@_1EM@IGOLJABP@?$AAC?$AAh?$AAk?$AAB?$AAu?$AAi?$AAl?$AAt?$AAI?$AAn?$AAR?$AAF?$AAI?$AAD?$AA?3?$AA?5?$AAW?$AAr?$AAi?$AAt?$AAe?$AA_?$AAR?$AAF?$AAI?$AAD?$AA_?$AAC?$AAM?$AAD?$AA?5?$AA?9@| DCB "C"
	DCB	0x0, "h", 0x0, "k", 0x0, "B", 0x0, "u", 0x0, "i", 0x0, "l"
	DCB	0x0, "t", 0x0, "I", 0x0, "n", 0x0, "R", 0x0, "F", 0x0, "I"
	DCB	0x0, "D", 0x0, ":", 0x0, " ", 0x0, "W", 0x0, "r", 0x0, "i"
	DCB	0x0, "t", 0x0, "e", 0x0, "_", 0x0, "R", 0x0, "F", 0x0, "I"
	DCB	0x0, "D", 0x0, "_", 0x0, "C", 0x0, "M", 0x0, "D", 0x0, " "
	DCB	0x0, "-", 0x0, " ", 0x0, "%", 0x0, "d", 0x0, 0xa, 0x0, 0xd
	DCB	0x0, 0x0, 0x0				; `string'

  00000			 AREA	 |.rdata|, DATA, READONLY
|??_C@_1EG@OKJEDKPN@?$AAC?$AAh?$AAk?$AAB?$AAu?$AAi?$AAl?$AAt?$AAI?$AAn?$AAR?$AAF?$AAI?$AAD?$AA?3?$AA?5?$AAS?$AAe?$AAt?$AAu?$AAp?$AAC?$AAO?$AAM?$AAP?$AAo?$AAr?$AAt?$AA?3?$AA?5?$AA?$CF?$AAs@| DCB "C"
	DCB	0x0, "h", 0x0, "k", 0x0, "B", 0x0, "u", 0x0, "i", 0x0, "l"
	DCB	0x0, "t", 0x0, "I", 0x0, "n", 0x0, "R", 0x0, "F", 0x0, "I"
	DCB	0x0, "D", 0x0, ":", 0x0, " ", 0x0, "S", 0x0, "e", 0x0, "t"
	DCB	0x0, "u", 0x0, "p", 0x0, "C", 0x0, "O", 0x0, "M", 0x0, "P"
	DCB	0x0, "o", 0x0, "r", 0x0, "t", 0x0, ":", 0x0, " ", 0x0, "%"
	DCB	0x0, "s", 0x0, 0xa, 0x0, 0xd, 0x0, 0x0, 0x0 ; `string'

  00000			 AREA	 |.rdata|, DATA, READONLY
|??_C@_1EA@DBGAACNK@?$AA?$CL?$AAC?$AAh?$AAk?$AAB?$AAu?$AAi?$AAl?$AAt?$AAI?$AAn?$AAR?$AAF?$AAI?$AAD?$AA?3?$AA?5?$AAE?$AAn?$AAu?$AAm?$AAC?$AAO?$AAM?$AAP?$AAo?$AAr?$AAt?$AAs?$AA?6?$AA?$AN?$AA?$AA@| DCB "+"
	DCB	0x0, "C", 0x0, "h", 0x0, "k", 0x0, "B", 0x0, "u", 0x0, "i"
	DCB	0x0, "l", 0x0, "t", 0x0, "I", 0x0, "n", 0x0, "R", 0x0, "F"
	DCB	0x0, "I", 0x0, "D", 0x0, ":", 0x0, " ", 0x0, "E", 0x0, "n"
	DCB	0x0, "u", 0x0, "m", 0x0, "C", 0x0, "O", 0x0, "M", 0x0, "P"
	DCB	0x0, "o", 0x0, "r", 0x0, "t", 0x0, "s", 0x0, 0xa, 0x0, 0xd
	DCB	0x0, 0x0, 0x0				; `string'

  00000			 AREA	 |.rdata|, DATA, READONLY
|??_C@_1DA@HCJJIEPA@?$AAD?$AAr?$AAi?$AAv?$AAe?$AAr?$AAs?$AA?2?$AAB?$AAu?$AAi?$AAl?$AAt?$AAI?$AAn?$AA?2?$AAB?$AAC?$AA_?$AAU?$AAA?$AAR?$AAT?$AA?$AA@| DCB "D"
	DCB	0x0, "r", 0x0, "i", 0x0, "v", 0x0, "e", 0x0, "r", 0x0, "s"
	DCB	0x0, "\\", 0x0, "B", 0x0, "u", 0x0, "i", 0x0, "l", 0x0, "t"
	DCB	0x0, "I", 0x0, "n", 0x0, "\\", 0x0, "B", 0x0, "C", 0x0, "_"
	DCB	0x0, "U", 0x0, "A", 0x0, "R", 0x0, "T", 0x0, 0x0, 0x0 ; `string'
; Function compile flags: /Ogspy

  00000			 AREA	 |.text|, CODE, ARM

  00000	00000000	 DCD         |__GSHandlerCheck|
  00004	00000000	 DCD         |$T37260|

  00008		 |?ChkBuiltInRFID@@YAHXZ| PROC		; ChkBuiltInRFID

; 8    : {

  00008		 |$LN23@ChkBuiltIn|
  00008	e92d40f0	 stmdb       sp!, {r4 - r7, lr}
  0000c	e24dd0d4	 sub         sp, sp, #0xD4
  00010		 |$M37261|
  00010	e59f312c	 ldr         r3, [pc, #0x12C]
  00014	e5933000	 ldr         r3, [r3]
  00018	e58d30d0	 str         r3, [sp, #0xD0]

; 9    : 	CComProtocol hRFID;

  0001c	e28d0008	 add         r0, sp, #8
  00020	eb000000	 bl          |??0CComProtocol@@QAA@XZ|

; 10   : 	TCHAR COMString[32];
; 11   : 	BYTE szBufffer[128];
; 12   : 	DWORD dwReturn=0;
; 13   : 	HANDLE hComPort=INVALID_HANDLE_VALUE;
; 14   : 	int i = 5;
; 15   : 	BOOL retval;
; 16   : 
; 17   : 	RETAILMSG(1, (TEXT("+ChkBuiltInRFID: EnumCOMPorts\n\r")));

  00024	e59f0114	 ldr         r0, [pc, #0x114]
  00028	e3a03000	 mov         r3, #0
  0002c	e58d300c	 str         r3, [sp, #0xC]
  00030	e3a05005	 mov         r5, #5
  00034	eb000000	 bl          NKDbgPrintfW

; 18   : 	if(hRFID.EnumCOMPorts(L"Drivers\\BuiltIn\\BC_UART",COMString))

  00038	e59f10fc	 ldr         r1, [pc, #0xFC]
  0003c	e28d2010	 add         r2, sp, #0x10
  00040	e28d0008	 add         r0, sp, #8
  00044	eb000000	 bl          |?EnumCOMPorts@CComProtocol@@QAAHPAG0@Z|
  00048	e3500000	 cmp         r0, #0
  0004c	0a00002a	 beq         |$LN5@ChkBuiltIn|

; 19   : 	{
; 20   : 		RETAILMSG(1, (TEXT("ChkBuiltInRFID: SetupCOMPort: %s\n\r"),COMString));

  00050	e59f00e0	 ldr         r0, [pc, #0xE0]
  00054	e28d1010	 add         r1, sp, #0x10
  00058	eb000000	 bl          NKDbgPrintfW
  0005c	e3a03907	 mov         r3, #7, 18

; 21   : 		hComPort=hRFID.SetupCOMPort(COMString,CBR_115200, NOPARITY, 8,ONESTOPBIT);

  00060	e3832c02	 orr         r2, r3, #2, 24
  00064	e3a0e000	 mov         lr, #0
  00068	e3a04008	 mov         r4, #8
  0006c	e3a03000	 mov         r3, #0
  00070	e28d1010	 add         r1, sp, #0x10
  00074	e28d0008	 add         r0, sp, #8
  00078	e58de004	 str         lr, [sp, #4]
  0007c	e58d4000	 str         r4, [sp]
  00080	eb000000	 bl          |?SetupCOMPort@CComProtocol@@QAAPAXPBGKEEE@Z|
  00084	e1a06000	 mov         r6, r0

; 22   : 		if( hComPort!=INVALID_HANDLE_VALUE)

  00088	e3760001	 cmn         r6, #1
  0008c	0a00001a	 beq         |$LN5@ChkBuiltIn|

; 23   : 		{			
; 24   : 			retval = hRFID.Write_RFID_CMD(hComPort,"010B000304140401000000"); //UUID CMD

  00090	e59f209c	 ldr         r2, [pc, #0x9C]
  00094	e1a01006	 mov         r1, r6
  00098	e28d0008	 add         r0, sp, #8
  0009c	eb000000	 bl          |?Write_RFID_CMD@CComProtocol@@QAAHPAXPAD@Z|
  000a0	e1a01000	 mov         r1, r0

; 25   : 			RETAILMSG(1, (TEXT("ChkBuiltInRFID: Write_RFID_CMD - %d\n\r"),retval));

  000a4	e59f0084	 ldr         r0, [pc, #0x84]
  000a8	eb000000	 bl          NKDbgPrintfW
  000ac	e28d700c	 add         r7, sp, #0xC
  000b0		 |$LL4@ChkBuiltIn|

; 26   : 			do
; 27   : 			{  
; 28   : 				retval = hRFID.Read_RFID_CMD(hComPort,&szBufffer[0],128,&dwReturn);

  000b0	e3a03080	 mov         r3, #0x80
  000b4	e28d2050	 add         r2, sp, #0x50
  000b8	e1a01006	 mov         r1, r6
  000bc	e28d0008	 add         r0, sp, #8
  000c0	e58d7000	 str         r7, [sp]
  000c4	eb000000	 bl          |?Read_RFID_CMD@CComProtocol@@QAAHPAXPAEKPAK@Z|

; 29   : 				RETAILMSG(1, (TEXT("ChkBuiltInRFID: Read_RFID_CMD - %d - %d\n\r"),retval,dwReturn));

  000c8	e59d200c	 ldr         r2, [sp, #0xC]
  000cc	e1a04000	 mov         r4, r0
  000d0	e59f0054	 ldr         r0, [pc, #0x54]
  000d4	e1a01004	 mov         r1, r4
  000d8	eb000000	 bl          NKDbgPrintfW

; 30   : 				if(retval)           

  000dc	e3540000	 cmp         r4, #0
  000e0	1a000002	 bne         |$LN2@ChkBuiltIn|

; 31   : 					break;
; 32   : 			}while(i & i--);

  000e4	e3550000	 cmp         r5, #0
  000e8	e2455001	 sub         r5, r5, #1
  000ec	1affffef	 bne         |$LL4@ChkBuiltIn|
  000f0		 |$LN2@ChkBuiltIn|

; 33   : 			hRFID.CloseCOMPort(hComPort);

  000f0	e1a01006	 mov         r1, r6
  000f4	e28d0008	 add         r0, sp, #8
  000f8	eb000000	 bl          |?CloseCOMPort@CComProtocol@@QAAXPAX@Z|
  000fc		 |$LN5@ChkBuiltIn|

; 34   : 		}
; 35   : 	}
; 36   : 	return dwReturn ? TRUE : FALSE;

  000fc	e59d300c	 ldr         r3, [sp, #0xC]
  00100	e28d0008	 add         r0, sp, #8
  00104	e3530000	 cmp         r3, #0
  00108	13a04001	 movne       r4, #1
  0010c	03a04000	 moveq       r4, #0
  00110	eb000000	 bl          |??1CComProtocol@@QAA@XZ|
  00114	e59d00d0	 ldr         r0, [sp, #0xD0]
  00118	eb000000	 bl          __security_check_cookie

; 37   : }

  0011c	e1a00004	 mov         r0, r4
  00120	e28dd0d4	 add         sp, sp, #0xD4
  00124	e8bd40f0	 ldmia       sp!, {r4 - r7, lr}
  00128	e12fff1e	 bx          lr
  0012c		 |$LN24@ChkBuiltIn|
  0012c		 |$LN25@ChkBuiltIn|
  0012c	00000000	 DCD         |??_C@_1FE@NLOGDNNL@?$AAC?$AAh?$AAk?$AAB?$AAu?$AAi?$AAl?$AAt?$AAI?$AAn?$AAR?$AAF?$AAI?$AAD?$AA?3?$AA?5?$AAR?$AAe?$AAa?$AAd?$AA_?$AAR?$AAF?$AAI?$AAD?$AA_?$AAC?$AAM?$AAD?$AA?5?$AA?9?$AA?5@|
  00130		 |$LN26@ChkBuiltIn|
  00130	00000000	 DCD         |??_C@_1EM@IGOLJABP@?$AAC?$AAh?$AAk?$AAB?$AAu?$AAi?$AAl?$AAt?$AAI?$AAn?$AAR?$AAF?$AAI?$AAD?$AA?3?$AA?5?$AAW?$AAr?$AAi?$AAt?$AAe?$AA_?$AAR?$AAF?$AAI?$AAD?$AA_?$AAC?$AAM?$AAD?$AA?5?$AA?9@|
  00134		 |$LN27@ChkBuiltIn|
  00134	00000000	 DCD         |??_C@_0BH@KHJEGHFI@010B000304140401000000?$AA@|
  00138		 |$LN28@ChkBuiltIn|
  00138	00000000	 DCD         |??_C@_1EG@OKJEDKPN@?$AAC?$AAh?$AAk?$AAB?$AAu?$AAi?$AAl?$AAt?$AAI?$AAn?$AAR?$AAF?$AAI?$AAD?$AA?3?$AA?5?$AAS?$AAe?$AAt?$AAu?$AAp?$AAC?$AAO?$AAM?$AAP?$AAo?$AAr?$AAt?$AA?3?$AA?5?$AA?$CF?$AAs@|
  0013c		 |$LN29@ChkBuiltIn|
  0013c	00000000	 DCD         |??_C@_1DA@HCJJIEPA@?$AAD?$AAr?$AAi?$AAv?$AAe?$AAr?$AAs?$AA?2?$AAB?$AAu?$AAi?$AAl?$AAt?$AAI?$AAn?$AA?2?$AAB?$AAC?$AA_?$AAU?$AAA?$AAR?$AAT?$AA?$AA@|
  00140		 |$LN30@ChkBuiltIn|
  00140	00000000	 DCD         |??_C@_1EA@DBGAACNK@?$AA?$CL?$AAC?$AAh?$AAk?$AAB?$AAu?$AAi?$AAl?$AAt?$AAI?$AAn?$AAR?$AAF?$AAI?$AAD?$AA?3?$AA?5?$AAE?$AAn?$AAu?$AAm?$AAC?$AAO?$AAM?$AAP?$AAo?$AAr?$AAt?$AAs?$AA?6?$AA?$AN?$AA?$AA@|
  00144		 |$LN31@ChkBuiltIn|
  00144	00000000	 DCD         |__security_cookie|
  00148		 |$M37262|

			 ENDP  ; |?ChkBuiltInRFID@@YAHXZ|, ChkBuiltInRFID

	END
