; Listing generated by Microsoft (R) Optimizing Compiler Version 14.01.60511.01 

	TTL	C:\WINCE600\PLATFORM\Z2170P\SRC\DRIVERS\sysctrl\startup.cpp
	CODE32

  00000			 AREA	 |.drectve|, DRECTVE
	DCB	"-defaultlib:LIBCMT "
	DCB	"-defaultlib:OLDNAMES "

	EXPORT	|?LaunchProgram@@YAXPBG0@Z|		; LaunchProgram
	EXPORT	|??_C@_19BDAJEHDN@?$AAo?$AAp?$AAe?$AAn?$AA?$AA@| [ DATA ] ; `string'
	IMPORT	|ShellExecuteEx|
	IMPORT	|memset|
; File c:\wince600\platform\z2170p\src\drivers\sysctrl\startup.cpp

  00000			 AREA	 |.pdata|, PDATA
|$T32100| DCD	|$LN5@LaunchProg|
	DCD	0x40001a02

  00000			 AREA	 |.rdata|, DATA, READONLY
|??_C@_19BDAJEHDN@?$AAo?$AAp?$AAe?$AAn?$AA?$AA@| DCB "o", 0x0, "p", 0x0, "e"
	DCB	0x0, "n", 0x0, 0x0, 0x0			; `string'
; Function compile flags: /Ogspy

  00000			 AREA	 |.text|, CODE, ARM

  00000		 |?LaunchProgram@@YAXPBG0@Z| PROC	; LaunchProgram

; 97   : {

  00000		 |$LN5@LaunchProg|
  00000	e92d4070	 stmdb       sp!, {r4 - r6, lr}
  00004	e24dd03c	 sub         sp, sp, #0x3C
  00008		 |$M32097|
  00008	e1a05001	 mov         r5, r1
  0000c	e1a04000	 mov         r4, r0

; 98   :     //HANDLE hndFile = INVALID_HANDLE_VALUE;
; 99   :     SHELLEXECUTEINFO shei;
; 100  : 
; 101  : 	memset(&shei, 0, sizeof(shei));

  00010	e3a0203c	 mov         r2, #0x3C
  00014	e3a01000	 mov         r1, #0
  00018	e28d0000	 add         r0, sp, #0
  0001c	eb000000	 bl          memset

; 102  : 	shei.cbSize   = sizeof(shei);
; 103  : 	shei.fMask    = SEE_MASK_NOCLOSEPROCESS | SEE_MASK_FLAG_NO_UI;
; 104  : 	shei.lpVerb   = L"open";

  00020	e59f303c	 ldr         r3, [pc, #0x3C]
  00024	e3a0203c	 mov         r2, #0x3C
  00028	e3a01d11	 mov         r1, #0x11, 26

; 105  : 	shei.nShow = SW_SHOW;

  0002c	e3a0e005	 mov         lr, #5

; 106  : 	shei.hInstApp = NULL;

  00030	e3a06000	 mov         r6, #0

; 107  : 	shei.lpFile = szProgramFile;
; 108  : 	shei.lpParameters = szParameter;
; 109  : 
; 110  : 	ShellExecuteEx(&shei);

  00034	e28d0000	 add         r0, sp, #0
  00038	e58d300c	 str         r3, [sp, #0xC]
  0003c	e58d2000	 str         r2, [sp]
  00040	e58d1004	 str         r1, [sp, #4]
  00044	e58de01c	 str         lr, [sp, #0x1C]
  00048	e58d6020	 str         r6, [sp, #0x20]
  0004c	e58d4010	 str         r4, [sp, #0x10]
  00050	e58d5014	 str         r5, [sp, #0x14]
  00054	eb000000	 bl          ShellExecuteEx

; 111  : }

  00058	e28dd03c	 add         sp, sp, #0x3C
  0005c	e8bd4070	 ldmia       sp!, {r4 - r6, lr}
  00060	e12fff1e	 bx          lr
  00064		 |$LN6@LaunchProg|
  00064		 |$LN7@LaunchProg|
  00064	00000000	 DCD         |??_C@_19BDAJEHDN@?$AAo?$AAp?$AAe?$AAn?$AA?$AA@|
  00068		 |$M32098|

			 ENDP  ; |?LaunchProgram@@YAXPBG0@Z|, LaunchProgram

	EXPORT	|?StartupThread@@YAKPAX@Z|		; StartupThread
	EXPORT	|??_C@_1CK@MGOEHGKG@?$AAS?$AAY?$AAS?$AAT?$AAE?$AAM?$AA?1?$AAS?$AAh?$AAe?$AAl?$AAl?$AAA?$AAP?$AAI?$AAR?$AAe?$AAa?$AAd?$AAy?$AA?$AA@| [ DATA ] ; `string'
	EXPORT	|??_C@_1BI@HFDPHINN@?$AAK?$AAe?$AAy?$AAH?$AAo?$AAo?$AAk?$AA?4?$AAe?$AAx?$AAe?$AA?$AA@| [ DATA ] ; `string'
	IMPORT	|CloseHandle|
	IMPORT	|WaitForSingleObject|
	IMPORT	|CreateEventW|

  00000			 AREA	 |.pdata|, PDATA
|$T32112| DCD	|$LN5@StartupThr|
	DCD	0x40001301

  00000			 AREA	 |.rdata|, DATA, READONLY
|??_C@_1CK@MGOEHGKG@?$AAS?$AAY?$AAS?$AAT?$AAE?$AAM?$AA?1?$AAS?$AAh?$AAe?$AAl?$AAl?$AAA?$AAP?$AAI?$AAR?$AAe?$AAa?$AAd?$AAy?$AA?$AA@| DCB "S"
	DCB	0x0, "Y", 0x0, "S", 0x0, "T", 0x0, "E", 0x0, "M", 0x0, "/"
	DCB	0x0, "S", 0x0, "h", 0x0, "e", 0x0, "l", 0x0, "l", 0x0, "A"
	DCB	0x0, "P", 0x0, "I", 0x0, "R", 0x0, "e", 0x0, "a", 0x0, "d"
	DCB	0x0, "y", 0x0, 0x0, 0x0			; `string'

  00000			 AREA	 |.rdata|, DATA, READONLY
|??_C@_1BI@HFDPHINN@?$AAK?$AAe?$AAy?$AAH?$AAo?$AAo?$AAk?$AA?4?$AAe?$AAx?$AAe?$AA?$AA@| DCB "K"
	DCB	0x0, "e", 0x0, "y", 0x0, "H", 0x0, "o", 0x0, "o", 0x0, "k"
	DCB	0x0, ".", 0x0, "e", 0x0, "x", 0x0, "e", 0x0, 0x0, 0x0 ; `string'
; Function compile flags: /Ogspy

  00000			 AREA	 |.text|, CODE, ARM

  00000		 |?StartupThread@@YAKPAX@Z| PROC	; StartupThread

; 190  : {

  00000		 |$LN5@StartupThr|
  00000	e92d4010	 stmdb       sp!, {r4, lr}
  00004		 |$M32109|

; 191  : 	UNREFERENCED_PARAMETER(pvarg);
; 192  : //	BYTE EngType;
; 193  : 	
; 194  :     HANDLE hShellAPI = CreateEvent(NULL, FALSE, FALSE, _T("SYSTEM/ShellAPIReady"));

  00004	e59f303c	 ldr         r3, [pc, #0x3C]
  00008	e3a02000	 mov         r2, #0
  0000c	e3a01000	 mov         r1, #0
  00010	e3a00000	 mov         r0, #0
  00014	eb000000	 bl          CreateEventW

; 195  :     WaitForSingleObject(hShellAPI, INFINITE);

  00018	e3e01000	 mvn         r1, #0
  0001c	e1a04000	 mov         r4, r0
  00020	eb000000	 bl          WaitForSingleObject

; 196  :     CloseHandle(hShellAPI);  

  00024	e1a00004	 mov         r0, r4
  00028	eb000000	 bl          CloseHandle

; 197  : /*
; 198  : 		
; 199  : 	CeRunAppAtEvent(ActiveSyncAppName,NOTIFICATION_EVENT_NONE);	//20111007 luke
; 200  :     CeRunAppAtEvent(ActiveSyncAppName,NOTIFICATION_EVENT_RS232_DETECTED);	//20111007 luke
; 201  : 	
; 202  : 	if( (*(volatile WORD *)BOOT_MODE_STORE_ADDR&ARSR_HW_RESET) )
; 203  : 	{
; 204  : 		InitDefaultTime();
; 205  : 		//SetSystemMrmory();  
; 206  : 	}
; 207  : 		
; 208  : 	if( *(volatile BYTE *)BCR_ENGINE_TYPE_STORE_ADDR == BCR_ENGINE_UNKNOW )
; 209  : 	{
; 210  : 		RETAILMSG(1, (TEXT("********************SSI_GetEngType***************************\n\r")));
; 211  : 		SysCtrl_BCRSetHWPower(TRUE);	// GPIO_93 High
; 212  : 		SSI_GetEngType(&EngType);
; 213  : 		if( (EngType == BCR_ENGINE_UNKNOW) )// || (EngType == BCR_ENGINE_ZEBEX_Z5111) )
; 214  : 		{
; 215  : 			RETAILMSG(1, (TEXT("********************ZEBEX_GetEngType***************************\n\r")));
; 216  : 			ZEBEX_GetEngType(&EngType);
; 217  : 		}
; 218  : 	
; 219  : 		if( (EngType == BCR_ENGINE_UNKNOW) )//|| (EngType == RFID_ENGINE_JOGTEK) )
; 220  : 		{
; 221  : 			RETAILMSG(1, (TEXT("********************ChkBuiltInRFID***************************\n\r")));
; 222  : 			if(	ChkBuiltInRFID() )
; 223  : 				EngType = RFID_ENGINE_JOGTEK;
; 224  : 			else
; 225  : 				EngType = BCR_ENGINE_UNKNOW;
; 226  : 			SysCtrl_BCRSetHWPower(FALSE);
; 227  : 		}
; 228  : 		*(volatile BYTE *)BCR_ENGINE_TYPE_STORE_ADDR = EngType;
; 229  : 	}
; 230  : 	else
; 231  : 	{
; 232  : 		SysCtrl_BCRSetHWPower(FALSE);
; 233  : 		EngType = *(volatile BYTE *)BCR_ENGINE_TYPE_STORE_ADDR;
; 234  : 	}
; 235  : 	
; 236  : 	BCRSaveEngineType(EngType);
; 237  : 	
; 238  : 	if( EngType == RFID_ENGINE_JOGTEK )
; 239  : 	{*/
; 240  : 		/*RETAILMSG(1, (TEXT("----------------ChkBuiltInRFID---------------\n\r")));
; 241  : 		SysCtrl_BCRSetHWPower(TRUE);	// GPIO_93 High
; 242  : 		if(	ChkBuiltInRFID() )
; 243  : 				EngType = RFID_ENGINE_JOGTEK;
; 244  : 			else
; 245  : 				EngType = BCR_ENGINE_UNKNOW;*/
; 246  : 	/*}
; 247  : 	else
; 248  : 	{
; 249  : 		TCHAR szRFIDProm[MAX_PATH];
; 250  : 		SHGetSpecialFolderPath(NULL, szRFIDProm, CSIDL_PROGRAMS , FALSE);
; 251  : 		wcscat(szRFIDProm, L"\\PowerPack\\RFID.lnk");
; 252  : 		DeleteFile(szRFIDProm);
; 253  : 	}
; 254  : 	if( EngType != BCR_ENGINE_UNKNOW )
; 255  : 		RETAILMSG(1, (TEXT("Found Engine: %d\n\r"),EngType));
; 256  : 	
; 257  :     RETAILMSG(1, (TEXT("\n\r*** Start StartupThread ***\n\r")));
; 258  :   
; 259  :     //******* wait iNand ready *******
; 260  :     WIN32_FIND_DATA file_pro;
; 261  :     HANDLE  hChkFile = INVALID_HANDLE_VALUE;
; 262  :     BOOL FlashReady = FALSE;
; 263  :     DWORD dwTickCount = GetTickCount();
; 264  : 
; 265  :     do
; 266  :     {
; 267  :         FlashReady = SysFindDisk(L"Built-In Flash");
; 268  :         if(FlashReady)
; 269  :         {
; 270  :             hChkFile = FindFirstFile(TEXT("\\Flash Disk"), &file_pro);
; 271  :             if(hChkFile != INVALID_HANDLE_VALUE)
; 272  :             {
; 273  :                 break;
; 274  :             }
; 275  :         }
; 276  : 		else
; 277  :         {
; 278  :             RETAILMSG(1, (TEXT("\n\n\r*** Waiting Built-In Flash Ready ***\n\r")));
; 279  :         }
; 280  :         if((GetTickCount() - dwTickCount) > 5000)
; 281  :         {
; 282  :             break;
; 283  :         }
; 284  :         Sleep(1000);
; 285  :     } while(1);
; 286  : 
; 287  : 
; 288  :     //******* check "Flash Disk" folder *******
; 289  : 
; 290  :     if(hChkFile == INVALID_HANDLE_VALUE)
; 291  :     {
; 292  :         RETAILMSG(1, (TEXT("\n\n\r*** No Flash Disk folder ***\n\r")));
; 293  :     }
; 294  :     else
; 295  :     {
; 296  :         RETAILMSG(1, (TEXT("\n\n\r*** Found Flash Disk folder ***\n\r")));
; 297  :         
; 298  :     }
; 299  :         
; 300  :     if((*(volatile WORD *)BOOT_MODE_STORE_ADDR & SYSTEM_CLEAN_BOOT) || (hChkFile == INVALID_HANDLE_VALUE) )
; 301  :     {
; 302  :         *(volatile WORD *)BOOT_MODE_STORE_ADDR |= SYSTEM_CLEAN_BOOT;
; 303  : 
; 304  :         if(FlashReady)
; 305  :         {
; 306  :             LaunchProgram(L"FlashFormat.exe", NULL);
; 307  :         }
; 308  :         while(IsProcessRunning(L"FlashFormat.exe"))
; 309  :         {
; 310  :             Sleep(1000);
; 311  :         }
; 312  :         *(volatile WORD *)BOOT_MODE_STORE_ADDR &= ~SYSTEM_CLEAN_BOOT;
; 313  :     }
; 314  :     FindClose(hChkFile);
; 315  : 
; 316  :     //LaunchProgram(L"rassync.exe",NULL);
; 317  :     
; 318  : 	//if ( (EngType == BCR_ENGINE_SSI_955) || (EngType == BCR_ENGINE_SSI_4500) || (EngType == BCR_ENGINE_ZEBEX_Z5111) )
; 319  : 	LaunchProgram(L"BCRService.exe", NULL);
; 320  : */
; 321  :     LaunchProgram(L"KeyHook.exe", NULL);

  0002c	e59f0010	 ldr         r0, [pc, #0x10]
  00030	e3a01000	 mov         r1, #0
  00034	eb000000	 bl          |?LaunchProgram@@YAXPBG0@Z|

; 322  :   /*  
; 323  :     //========== Test Mode ===========
; 324  :     if(*(volatile WORD *)BOOT_MODE_STORE_ADDR & SYSTEM_TEST_MODE_BOOT)
; 325  :     {
; 326  :         RETAILMSG(1, (TEXT("\n\n\r*** Test Mode ***\n\r")));
; 327  :         LaunchProgram(L"testing.exe", L"-assembly");
; 328  : 		return 0;
; 329  :     }
; 330  : 
; 331  :     LaunchProgram(L"CalStylus.exe", L"-start");
; 332  :     while(IsProcessRunning(L"CalStylus.exe"))
; 333  :     {
; 334  :         Sleep(500);
; 335  :     }
; 336  : 
; 337  :     HANDLE hPreload = CreateThread(NULL, 0, (LPTHREAD_START_ROUTINE) PreloadThread, NULL, 0, NULL);
; 338  :     CloseHandle(hPreload);
; 339  : 	*/
; 340  :     return 0;

  00038	e3a00000	 mov         r0, #0

; 341  : }

  0003c	e8bd4010	 ldmia       sp!, {r4, lr}
  00040	e12fff1e	 bx          lr
  00044		 |$LN6@StartupThr|
  00044		 |$LN7@StartupThr|
  00044	00000000	 DCD         |??_C@_1BI@HFDPHINN@?$AAK?$AAe?$AAy?$AAH?$AAo?$AAo?$AAk?$AA?4?$AAe?$AAx?$AAe?$AA?$AA@|
  00048		 |$LN8@StartupThr|
  00048	00000000	 DCD         |??_C@_1CK@MGOEHGKG@?$AAS?$AAY?$AAS?$AAT?$AAE?$AAM?$AA?1?$AAS?$AAh?$AAe?$AAl?$AAl?$AAA?$AAP?$AAI?$AAR?$AAe?$AAa?$AAd?$AAy?$AA?$AA@|
  0004c		 |$M32110|

			 ENDP  ; |?StartupThread@@YAKPAX@Z|, StartupThread

	END
