; Listing generated by Microsoft (R) Optimizing Compiler Version 14.01.60511.01 

	TTL	C:\WINCE600\PLATFORM\Z2170\SRC\DRIVERS\sysctrl\TrayIcon.cpp
	CODE32

  00000			 AREA	 |.drectve|, DRECTVE
	DCB	"-defaultlib:LIBCMT "
	DCB	"-defaultlib:OLDNAMES "

	EXPORT	|??_C@_1BE@BKKMLFKH@?$AA8?$AA0?$AA6?$AA?5?$AAH?$AAS?$AAM?$AAH?$AAZ?$AA?$AA@| [ DATA ] ; `string'
	EXPORT	|??_C@_1BA@HLPDAKHN@?$AA8?$AA0?$AA6?$AA?5?$AAM?$AAH?$AAZ?$AA?$AA@| [ DATA ] ; `string'
	EXPORT	|??_C@_1BA@FGCEKGOE@?$AA6?$AA2?$AA4?$AA?5?$AAM?$AAH?$AAZ?$AA?$AA@| [ DATA ] ; `string'
	EXPORT	|??_C@_1BA@EBNODIMD@?$AA4?$AA1?$AA6?$AA?5?$AAM?$AAH?$AAZ?$AA?$AA@| [ DATA ] ; `string'
	EXPORT	|??_C@_1BA@GGHBGDEP@?$AA2?$AA0?$AA8?$AA?5?$AAM?$AAH?$AAZ?$AA?$AA@| [ DATA ] ; `string'
	EXPORT	|??_C@_1BC@EKPDPFCF@?$AAR?$AAi?$AAn?$AAg?$AA?5?$AAO?$AAS?$AAC?$AA?$AA@| [ DATA ] ; `string'

  00000			 AREA	 |.bss|, NOINIT
|hTrayIcon| %	0x4

  00000			 AREA	 |.data|, DATA
|g_szOPDescription| DCD |??_C@_1BC@EKPDPFCF@?$AAR?$AAi?$AAn?$AAg?$AA?5?$AAO?$AAS?$AAC?$AA?$AA@|
	DCD	|??_C@_1BA@GGHBGDEP@?$AA2?$AA0?$AA8?$AA?5?$AAM?$AAH?$AAZ?$AA?$AA@|
	DCD	|??_C@_1BA@EBNODIMD@?$AA4?$AA1?$AA6?$AA?5?$AAM?$AAH?$AAZ?$AA?$AA@|
	DCD	|??_C@_1BA@FGCEKGOE@?$AA6?$AA2?$AA4?$AA?5?$AAM?$AAH?$AAZ?$AA?$AA@|
	DCD	|??_C@_1BA@HLPDAKHN@?$AA8?$AA0?$AA6?$AA?5?$AAM?$AAH?$AAZ?$AA?$AA@|
	DCD	|??_C@_1BE@BKKMLFKH@?$AA8?$AA0?$AA6?$AA?5?$AAH?$AAS?$AAM?$AAH?$AAZ?$AA?$AA@|

  00000			 AREA	 |.rdata|, DATA, READONLY
|??_C@_1BE@BKKMLFKH@?$AA8?$AA0?$AA6?$AA?5?$AAH?$AAS?$AAM?$AAH?$AAZ?$AA?$AA@| DCB "8"
	DCB	0x0, "0", 0x0, "6", 0x0, " ", 0x0, "H", 0x0, "S", 0x0, "M"
	DCB	0x0, "H", 0x0, "Z", 0x0, 0x0, 0x0	; `string'

  00000			 AREA	 |.rdata|, DATA, READONLY
|??_C@_1BA@HLPDAKHN@?$AA8?$AA0?$AA6?$AA?5?$AAM?$AAH?$AAZ?$AA?$AA@| DCB "8"
	DCB	0x0, "0", 0x0, "6", 0x0, " ", 0x0, "M", 0x0, "H", 0x0, "Z"
	DCB	0x0, 0x0, 0x0				; `string'

  00000			 AREA	 |.rdata|, DATA, READONLY
|??_C@_1BA@FGCEKGOE@?$AA6?$AA2?$AA4?$AA?5?$AAM?$AAH?$AAZ?$AA?$AA@| DCB "6"
	DCB	0x0, "2", 0x0, "4", 0x0, " ", 0x0, "M", 0x0, "H", 0x0, "Z"
	DCB	0x0, 0x0, 0x0				; `string'

  00000			 AREA	 |.rdata|, DATA, READONLY
|??_C@_1BA@EBNODIMD@?$AA4?$AA1?$AA6?$AA?5?$AAM?$AAH?$AAZ?$AA?$AA@| DCB "4"
	DCB	0x0, "1", 0x0, "6", 0x0, " ", 0x0, "M", 0x0, "H", 0x0, "Z"
	DCB	0x0, 0x0, 0x0				; `string'

  00000			 AREA	 |.rdata|, DATA, READONLY
|??_C@_1BA@GGHBGDEP@?$AA2?$AA0?$AA8?$AA?5?$AAM?$AAH?$AAZ?$AA?$AA@| DCB "2"
	DCB	0x0, "0", 0x0, "8", 0x0, " ", 0x0, "M", 0x0, "H", 0x0, "Z"
	DCB	0x0, 0x0, 0x0				; `string'

  00000			 AREA	 |.rdata|, DATA, READONLY
|??_C@_1BC@EKPDPFCF@?$AAR?$AAi?$AAn?$AAg?$AA?5?$AAO?$AAS?$AAC?$AA?$AA@| DCB "R"
	DCB	0x0, "i", 0x0, "n", 0x0, "g", 0x0, " ", 0x0, "O", 0x0, "S"
	DCB	0x0, "C", 0x0, 0x0, 0x0			; `string'
	EXPORT	|?IconProc@@YAJPAUHWND__@@IIJ@Z|	; IconProc
	EXPORT	|??_C@_1DG@EKDLBPMO@?$AA?6?$AA?$AN?$AAI?$AAc?$AAo?$AAn?$AAP?$AAr?$AAo?$AAc?$AA?5?$AA?9?$AA?$DO?$AA?5?$AAW?$AAM?$AA_?$AAD?$AAE?$AAS?$AAT?$AAR?$AAO?$AAY?$AA?6?$AA?$AN?$AA?$AA@| [ DATA ] ; `string'
	EXPORT	|??_C@_1CM@IEKCLLO@?$AA?6?$AA?$AN?$AAI?$AAc?$AAo?$AAn?$AAP?$AAr?$AAo?$AAc?$AA?5?$AA?9?$AA?$DO?$AA?5?$AAW?$AAM?$AA_?$AAQ?$AAU?$AAI?$AAT?$AA?$AA@| [ DATA ] ; `string'
	EXPORT	|??_C@_1BG@IKLIHJNO@?$AAb?$AAt?$AAh?$AAp?$AAn?$AAl?$AA?4?$AAc?$AAp?$AAl?$AA?$AA@| [ DATA ] ; `string'
	EXPORT	|??_C@_1BG@MBAMAOHI@?$AAc?$AAt?$AAl?$AAp?$AAn?$AAl?$AA?4?$AAe?$AAx?$AAe?$AA?$AA@| [ DATA ] ; `string'
	IMPORT	|PostQuitMessage|
	IMPORT	|NKDbgPrintfW|
	IMPORT	|DefWindowProcW|
	IMPORT	|?LaunchProgram@@YAXPBG0@Z|		; LaunchProgram
; File c:\wince600\platform\z2170\src\drivers\sysctrl\trayicon.cpp

  00000			 AREA	 |.pdata|, PDATA
|$T37355| DCD	|$LN22@IconProc|
	DCD	0x40002801

  00000			 AREA	 |.rdata|, DATA, READONLY
|??_C@_1DG@EKDLBPMO@?$AA?6?$AA?$AN?$AAI?$AAc?$AAo?$AAn?$AAP?$AAr?$AAo?$AAc?$AA?5?$AA?9?$AA?$DO?$AA?5?$AAW?$AAM?$AA_?$AAD?$AAE?$AAS?$AAT?$AAR?$AAO?$AAY?$AA?6?$AA?$AN?$AA?$AA@| DCB 0xa
	DCB	0x0, 0xd, 0x0, "I", 0x0, "c", 0x0, "o", 0x0, "n", 0x0, "P"
	DCB	0x0, "r", 0x0, "o", 0x0, "c", 0x0, " ", 0x0, "-", 0x0, ">"
	DCB	0x0, " ", 0x0, "W", 0x0, "M", 0x0, "_", 0x0, "D", 0x0, "E"
	DCB	0x0, "S", 0x0, "T", 0x0, "R", 0x0, "O", 0x0, "Y", 0x0, 0xa
	DCB	0x0, 0xd, 0x0, 0x0, 0x0			; `string'

  00000			 AREA	 |.rdata|, DATA, READONLY
|??_C@_1CM@IEKCLLO@?$AA?6?$AA?$AN?$AAI?$AAc?$AAo?$AAn?$AAP?$AAr?$AAo?$AAc?$AA?5?$AA?9?$AA?$DO?$AA?5?$AAW?$AAM?$AA_?$AAQ?$AAU?$AAI?$AAT?$AA?$AA@| DCB 0xa
	DCB	0x0, 0xd, 0x0, "I", 0x0, "c", 0x0, "o", 0x0, "n", 0x0, "P"
	DCB	0x0, "r", 0x0, "o", 0x0, "c", 0x0, " ", 0x0, "-", 0x0, ">"
	DCB	0x0, " ", 0x0, "W", 0x0, "M", 0x0, "_", 0x0, "Q", 0x0, "U"
	DCB	0x0, "I", 0x0, "T", 0x0, 0x0, 0x0	; `string'

  00000			 AREA	 |.rdata|, DATA, READONLY
|??_C@_1BG@IKLIHJNO@?$AAb?$AAt?$AAh?$AAp?$AAn?$AAl?$AA?4?$AAc?$AAp?$AAl?$AA?$AA@| DCB "b"
	DCB	0x0, "t", 0x0, "h", 0x0, "p", 0x0, "n", 0x0, "l", 0x0, "."
	DCB	0x0, "c", 0x0, "p", 0x0, "l", 0x0, 0x0, 0x0 ; `string'

  00000			 AREA	 |.rdata|, DATA, READONLY
|??_C@_1BG@MBAMAOHI@?$AAc?$AAt?$AAl?$AAp?$AAn?$AAl?$AA?4?$AAe?$AAx?$AAe?$AA?$AA@| DCB "c"
	DCB	0x0, "t", 0x0, "l", 0x0, "p", 0x0, "n", 0x0, "l", 0x0, "."
	DCB	0x0, "e", 0x0, "x", 0x0, "e", 0x0, 0x0, 0x0 ; `string'
; Function compile flags: /Ogspy

  00000			 AREA	 |.text|, CODE, ARM

  00000		 |?IconProc@@YAJPAUHWND__@@IIJ@Z| PROC	; IconProc

; 71   : {

  00000		 |$LN22@IconProc|
  00000	e92d4010	 stmdb       sp!, {r4, lr}
  00004		 |$M37352|
  00004	e1a04003	 mov         r4, r3

; 72   : 
; 73   :     UINT uID = (UINT)wParam;
; 74   : 
; 75   :     if(uID == UID_BT_TASK)

  00008	e3520011	 cmp         r2, #0x11
  0000c	1a000007	 bne         |$LN10@IconProc|
  00010	e3a03c02	 mov         r3, #2, 24

; 76   :     {
; 77   :         // what kind of message did we get
; 78   :         switch((UINT)lParam)

  00014	e383e003	 orr         lr, r3, #3
  00018	e154000e	 cmp         r4, lr
  0001c	1a000003	 bne         |$LN10@IconProc|

; 79   :         {
; 80   :             case WM_LBUTTONDBLCLK:
; 81   :                 LaunchProgram(L"ctlpnl.exe", L"bthpnl.cpl");

  00020	e59f1074	 ldr         r1, [pc, #0x74]
  00024	e59f006c	 ldr         r0, [pc, #0x6C]
  00028	eb000000	 bl          |?LaunchProgram@@YAXPBG0@Z|

; 82   :                 return 0;

  0002c	ea000014	 b           |$LN5@IconProc|
  00030		 |$LN10@IconProc|

; 83   : 
; 84   :             default:
; 85   :                 break;
; 86   :         }
; 87   :     }
; 88   : 
; 89   : 
; 90   : 
; 91   : 
; 92   :     switch(uMsg)

  00030	e3510001	 cmp         r1, #1
  00034	0a000012	 beq         |$LN5@IconProc|
  00038	e3510002	 cmp         r1, #2
  0003c	0a00000c	 beq         |$LN2@IconProc|
  00040	e3510012	 cmp         r1, #0x12
  00044	0a000007	 beq         |$LN3@IconProc|
  00048	e3a03c01	 mov         r3, #1, 24
  0004c	e3833011	 orr         r3, r3, #0x11
  00050	e1510003	 cmp         r1, r3
  00054	0a00000a	 beq         |$LN5@IconProc|

; 111  : 
; 112  :             return 0;
; 113  : 
; 114  :         default:
; 115  :             return DefWindowProc(hWnd, uMsg, wParam, lParam);

  00058	e1a03004	 mov         r3, r4
  0005c	eb000000	 bl          DefWindowProcW

; 116  : 
; 117  :     }
; 118  : 
; 119  : 
; 120  :     return 0;
; 121  : }

  00060	e8bd4010	 ldmia       sp!, {r4, lr}
  00064	e12fff1e	 bx          lr
  00068		 |$LN3@IconProc|

; 96   : 
; 97   :         case WM_COMMAND:
; 98   :             return 0;
; 99   : 
; 100  : 
; 101  : 
; 102  :         case WM_QUIT:
; 103  :             RETAILMSG(1, (TEXT("\n\rIconProc -> WM_QUIT")));

  00068	e59f0024	 ldr         r0, [pc, #0x24]
  0006c	eb000000	 bl          NKDbgPrintfW

; 104  :             return 0;

  00070	ea000003	 b           |$LN5@IconProc|
  00074		 |$LN2@IconProc|

; 105  : 
; 106  :         case WM_DESTROY:
; 107  : 
; 108  :             RETAILMSG(1, (TEXT("\n\rIconProc -> WM_DESTROY\n\r")));

  00074	e59f0014	 ldr         r0, [pc, #0x14]
  00078	eb000000	 bl          NKDbgPrintfW

; 109  : 
; 110  :             PostQuitMessage(0);

  0007c	e3a00000	 mov         r0, #0
  00080	eb000000	 bl          PostQuitMessage
  00084		 |$LN5@IconProc|

; 93   :     {
; 94   :         case WM_CREATE:
; 95   :             return 0;

  00084	e3a00000	 mov         r0, #0

; 116  : 
; 117  :     }
; 118  : 
; 119  : 
; 120  :     return 0;
; 121  : }

  00088	e8bd4010	 ldmia       sp!, {r4, lr}
  0008c	e12fff1e	 bx          lr
  00090		 |$LN23@IconProc|
  00090		 |$LN24@IconProc|
  00090	00000000	 DCD         |??_C@_1DG@EKDLBPMO@?$AA?6?$AA?$AN?$AAI?$AAc?$AAo?$AAn?$AAP?$AAr?$AAo?$AAc?$AA?5?$AA?9?$AA?$DO?$AA?5?$AAW?$AAM?$AA_?$AAD?$AAE?$AAS?$AAT?$AAR?$AAO?$AAY?$AA?6?$AA?$AN?$AA?$AA@|
  00094		 |$LN25@IconProc|
  00094	00000000	 DCD         |??_C@_1CM@IEKCLLO@?$AA?6?$AA?$AN?$AAI?$AAc?$AAo?$AAn?$AAP?$AAr?$AAo?$AAc?$AA?5?$AA?9?$AA?$DO?$AA?5?$AAW?$AAM?$AA_?$AAQ?$AAU?$AAI?$AAT?$AA?$AA@|
  00098		 |$LN26@IconProc|
  00098	00000000	 DCD         |??_C@_1BG@MBAMAOHI@?$AAc?$AAt?$AAl?$AAp?$AAn?$AAl?$AA?4?$AAe?$AAx?$AAe?$AA?$AA@|
  0009c		 |$LN27@IconProc|
  0009c	00000000	 DCD         |??_C@_1BG@IKLIHJNO@?$AAb?$AAt?$AAh?$AAp?$AAn?$AAl?$AA?4?$AAc?$AAp?$AAl?$AA?$AA@|
  000a0		 |$M37353|

			 ENDP  ; |?IconProc@@YAJPAUHWND__@@IIJ@Z|, IconProc

	EXPORT	|?AddBluetoothTrayIcon@@YAHXZ|		; AddBluetoothTrayIcon
	EXPORT	|??_C@_1DO@HPKMHGIP@?$AA?6?$AA?$AN?$AA?9?$AAA?$AAd?$AAd?$AAB?$AAl?$AAu?$AAe?$AAt?$AAo?$AAo?$AAt?$AAh?$AAT?$AAr?$AAa?$AAy?$AAI?$AAc?$AAo?$AAn?$AA?5?$AA?$CI?$AA?$CF?$AAx?$AA?$CJ?$AA?$AN?$AA?6?$AA?$AA@| [ DATA ] ; `string'
	EXPORT	|??_C@_1HM@JNFOMEAK@?$AAC?$AA?3?$AA?2?$AAW?$AAI?$AAN?$AAC?$AAE?$AA6?$AA0?$AA0?$AA?2?$AAP?$AAL?$AAA?$AAT?$AAF?$AAO?$AAR?$AAM?$AA?2?$AAZ?$AA2?$AA1?$AA7?$AA0?$AA?2?$AAS?$AAR?$AAC?$AA?2?$AAD@| [ DATA ] ; `string'
	EXPORT	|??_C@_1CI@OHCJFJPM@?$AAE?$AAR?$AAR?$AAO?$AAR?$AA?3?$AA?5?$AA?$CF?$AAs?$AA?5?$AAl?$AAi?$AAn?$AAe?$AA?5?$AA?$CF?$AAd?$AA?3?$AA?5?$AA?$AA@| [ DATA ] ; `string'
	EXPORT	|??_C@_1GC@ELJNEMOC@?$AA?6?$AA?$AN?$AAA?$AAd?$AAd?$AAB?$AAl?$AAu?$AAe?$AAt?$AAo?$AAo?$AAt?$AAh?$AAT?$AAr?$AAa?$AAy?$AAI?$AAc?$AAo?$AAn?$AA?9?$AA?9?$AA?$DO?$AA?5?$AAL?$AAo?$AAa?$AAd?$AAI?$AAm@| [ DATA ] ; `string'
	EXPORT	|??_C@_1DE@HLMEIBHB@?$AA?6?$AA?$AN?$AA?$CL?$AAA?$AAd?$AAd?$AAB?$AAl?$AAu?$AAe?$AAt?$AAo?$AAo?$AAt?$AAh?$AAT?$AAr?$AAa?$AAy?$AAI?$AAc?$AAo?$AAn?$AA?$AN?$AA?6?$AA?$AA@| [ DATA ] ; `string'
	IMPORT	|Sleep|
	IMPORT	|Shell_NotifyIcon|
	IMPORT	|LoadImageW|
	IMPORT	|?ghInstance@@3PAUHINSTANCE__@@A|	; ghInstance

  00004			 AREA	 |.bss|, NOINIT
|BT_NotifyIcon| % 0x98
|BT_NotifyIcon| % 0x98

  00000			 AREA	 |.pdata|, PDATA
|$T37382| DCD	|$LN20@AddBluetoo|
	DCD	0x40004402

  00000			 AREA	 |.rdata|, DATA, READONLY
|??_C@_1DO@HPKMHGIP@?$AA?6?$AA?$AN?$AA?9?$AAA?$AAd?$AAd?$AAB?$AAl?$AAu?$AAe?$AAt?$AAo?$AAo?$AAt?$AAh?$AAT?$AAr?$AAa?$AAy?$AAI?$AAc?$AAo?$AAn?$AA?5?$AA?$CI?$AA?$CF?$AAx?$AA?$CJ?$AA?$AN?$AA?6?$AA?$AA@| DCB 0xa
	DCB	0x0, 0xd, 0x0, "-", 0x0, "A", 0x0, "d", 0x0, "d", 0x0, "B"
	DCB	0x0, "l", 0x0, "u", 0x0, "e", 0x0, "t", 0x0, "o", 0x0, "o"
	DCB	0x0, "t", 0x0, "h", 0x0, "T", 0x0, "r", 0x0, "a", 0x0, "y"
	DCB	0x0, "I", 0x0, "c", 0x0, "o", 0x0, "n", 0x0, " ", 0x0, "("
	DCB	0x0, "%", 0x0, "x", 0x0, ")", 0x0, 0xd, 0x0, 0xa, 0x0, 0x0
	DCB	0x0					; `string'

  00000			 AREA	 |.rdata|, DATA, READONLY
|??_C@_1HM@JNFOMEAK@?$AAC?$AA?3?$AA?2?$AAW?$AAI?$AAN?$AAC?$AAE?$AA6?$AA0?$AA0?$AA?2?$AAP?$AAL?$AAA?$AAT?$AAF?$AAO?$AAR?$AAM?$AA?2?$AAZ?$AA2?$AA1?$AA7?$AA0?$AA?2?$AAS?$AAR?$AAC?$AA?2?$AAD@| DCB "C"
	DCB	0x0, ":", 0x0, "\\", 0x0, "W", 0x0, "I", 0x0, "N", 0x0, "C"
	DCB	0x0, "E", 0x0, "6", 0x0, "0", 0x0, "0", 0x0, "\\", 0x0, "P"
	DCB	0x0, "L", 0x0, "A", 0x0, "T", 0x0, "F", 0x0, "O", 0x0, "R"
	DCB	0x0, "M", 0x0, "\\", 0x0, "Z", 0x0, "2", 0x0, "1", 0x0, "7"
	DCB	0x0, "0", 0x0, "\\", 0x0, "S", 0x0, "R", 0x0, "C", 0x0, "\\"
	DCB	0x0, "D", 0x0, "R", 0x0, "I", 0x0, "V", 0x0, "E", 0x0, "R"
	DCB	0x0, "S", 0x0, "\\", 0x0, "s", 0x0, "y", 0x0, "s", 0x0, "c"
	DCB	0x0, "t", 0x0, "r", 0x0, "l", 0x0, "\\", 0x0, ".", 0x0, "\\"
	DCB	0x0, "T", 0x0, "r", 0x0, "a", 0x0, "y", 0x0, "I", 0x0, "c"
	DCB	0x0, "o", 0x0, "n", 0x0, ".", 0x0, "c", 0x0, "p", 0x0, "p"
	DCB	0x0, 0x0, 0x0				; `string'

  00000			 AREA	 |.rdata|, DATA, READONLY
|??_C@_1CI@OHCJFJPM@?$AAE?$AAR?$AAR?$AAO?$AAR?$AA?3?$AA?5?$AA?$CF?$AAs?$AA?5?$AAl?$AAi?$AAn?$AAe?$AA?5?$AA?$CF?$AAd?$AA?3?$AA?5?$AA?$AA@| DCB "E"
	DCB	0x0, "R", 0x0, "R", 0x0, "O", 0x0, "R", 0x0, ":", 0x0, " "
	DCB	0x0, "%", 0x0, "s", 0x0, " ", 0x0, "l", 0x0, "i", 0x0, "n"
	DCB	0x0, "e", 0x0, " ", 0x0, "%", 0x0, "d", 0x0, ":", 0x0, " "
	DCB	0x0, 0x0, 0x0				; `string'

  00000			 AREA	 |.rdata|, DATA, READONLY
|??_C@_1GC@ELJNEMOC@?$AA?6?$AA?$AN?$AAA?$AAd?$AAd?$AAB?$AAl?$AAu?$AAe?$AAt?$AAo?$AAo?$AAt?$AAh?$AAT?$AAr?$AAa?$AAy?$AAI?$AAc?$AAo?$AAn?$AA?9?$AA?9?$AA?$DO?$AA?5?$AAL?$AAo?$AAa?$AAd?$AAI?$AAm@| DCB 0xa
	DCB	0x0, 0xd, 0x0, "A", 0x0, "d", 0x0, "d", 0x0, "B", 0x0, "l"
	DCB	0x0, "u", 0x0, "e", 0x0, "t", 0x0, "o", 0x0, "o", 0x0, "t"
	DCB	0x0, "h", 0x0, "T", 0x0, "r", 0x0, "a", 0x0, "y", 0x0, "I"
	DCB	0x0, "c", 0x0, "o", 0x0, "n", 0x0, "-", 0x0, "-", 0x0, ">"
	DCB	0x0, " ", 0x0, "L", 0x0, "o", 0x0, "a", 0x0, "d", 0x0, "I"
	DCB	0x0, "m", 0x0, "a", 0x0, "g", 0x0, "e", 0x0, " ", 0x0, "f"
	DCB	0x0, "a", 0x0, "i", 0x0, "l", 0x0, "e", 0x0, "d", 0x0, " "
	DCB	0x0, "!", 0x0, "!", 0x0, "!", 0x0, 0xd, 0x0, 0xa, 0x0, 0x0
	DCB	0x0					; `string'

  00000			 AREA	 |.rdata|, DATA, READONLY
|??_C@_1DE@HLMEIBHB@?$AA?6?$AA?$AN?$AA?$CL?$AAA?$AAd?$AAd?$AAB?$AAl?$AAu?$AAe?$AAt?$AAo?$AAo?$AAt?$AAh?$AAT?$AAr?$AAa?$AAy?$AAI?$AAc?$AAo?$AAn?$AA?$AN?$AA?6?$AA?$AA@| DCB 0xa
	DCB	0x0, 0xd, 0x0, "+", 0x0, "A", 0x0, "d", 0x0, "d", 0x0, "B"
	DCB	0x0, "l", 0x0, "u", 0x0, "e", 0x0, "t", 0x0, "o", 0x0, "o"
	DCB	0x0, "t", 0x0, "h", 0x0, "T", 0x0, "r", 0x0, "a", 0x0, "y"
	DCB	0x0, "I", 0x0, "c", 0x0, "o", 0x0, "n", 0x0, 0xd, 0x0, 0xa
	DCB	0x0, 0x0, 0x0				; `string'
; Function compile flags: /Ogspy

  00000			 AREA	 |.text|, CODE, ARM

  00000		 |?AddBluetoothTrayIcon@@YAHXZ| PROC	; AddBluetoothTrayIcon

; 127  : {

  00000		 |$LN20@AddBluetoo|
  00000	e92d40f0	 stmdb       sp!, {r4 - r7, lr}
  00004	e24dd008	 sub         sp, sp, #8
  00008		 |$M37379|

; 128  : 
; 129  :     BOOL    status = FALSE;
; 130  : 
; 131  :     HICON   hIcon;
; 132  : 
; 133  :     BYTE  	icount = 0;
; 134  : 
; 135  :     RETAILMSG(1, (TEXT("\n\r+AddBluetoothTrayIcon\r\n")));

  00008	e59f00fc	 ldr         r0, [pc, #0xFC]
  0000c	e3a04000	 mov         r4, #0
  00010	e3a06000	 mov         r6, #0
  00014	eb000000	 bl          NKDbgPrintfW

; 136  : 
; 137  :     if(!hTrayIcon)

  00018	e59f50e8	 ldr         r5, [pc, #0xE8]
  0001c	e5953098	 ldr         r3, [r5, #0x98]
  00020	e3530000	 cmp         r3, #0

; 138  :     {
; 139  :         return FALSE;

  00024	03a04000	 moveq       r4, #0
  00028	0a00002d	 beq         |$LN6@AddBluetoo|

; 140  :     }
; 141  : 
; 142  :     hIcon = (HICON) LoadImage(ghInstance, MAKEINTRESOURCE(IDI_BT), IMAGE_ICON, 16, 16, 0);

  0002c	e59f30d0	 ldr         r3, [pc, #0xD0]
  00030	e3a0e000	 mov         lr, #0
  00034	e3a07010	 mov         r7, #0x10
  00038	e5930000	 ldr         r0, [r3]
  0003c	e3a03010	 mov         r3, #0x10
  00040	e3a02001	 mov         r2, #1
  00044	e3a0106c	 mov         r1, #0x6C
  00048	e58de004	 str         lr, [sp, #4]
  0004c	e58d7000	 str         r7, [sp]
  00050	eb000000	 bl          LoadImageW
  00054	e1b07000	 movs        r7, r0

; 143  : 
; 144  :     if(hIcon == NULL)

  00058	1a000005	 bne         |$LN11@AddBluetoo|

; 145  :     {
; 146  :         ERRORMSG(1, (TEXT("\n\rAddBluetoothTrayIcon--> LoadImage failed !!!\r\n")));

  0005c	e59f109c	 ldr         r1, [pc, #0x9C]
  00060	e59f0094	 ldr         r0, [pc, #0x94]
  00064	e3a02092	 mov         r2, #0x92
  00068	eb000000	 bl          NKDbgPrintfW
  0006c	e59f0084	 ldr         r0, [pc, #0x84]
  00070	eb000000	 bl          NKDbgPrintfW
  00074		 |$LN11@AddBluetoo|

; 147  :     }
; 148  : 
; 149  :     BT_NotifyIcon.cbSize = sizeof(NOTIFYICONDATA);
; 150  :     BT_NotifyIcon.hWnd = hTrayIcon;

  00074	e5953098	 ldr         r3, [r5, #0x98]
  00078	e3a02098	 mov         r2, #0x98

; 151  :     BT_NotifyIcon.uID = UID_BT_TASK;
; 152  :     BT_NotifyIcon.uFlags = NIF_ICON | NIF_MESSAGE;
; 153  :     BT_NotifyIcon.uCallbackMessage = BT_TASKBARMSG;
; 154  :     BT_NotifyIcon.hIcon = hIcon;
; 155  : 
; 156  :     // add the icon
; 157  :     while(hIcon && icount < 10)

  0007c	e3570000	 cmp         r7, #0
  00080	e885000c	 stmia       r5, {r2, r3}
  00084	e3a03011	 mov         r3, #0x11
  00088	e5853008	 str         r3, [r5, #8]
  0008c	e3a02b01	 mov         r2, #1, 22
  00090	e3a03003	 mov         r3, #3
  00094	e585300c	 str         r3, [r5, #0xC]
  00098	e3823065	 orr         r3, r2, #0x65
  0009c	e285c010	 add         r12, r5, #0x10
  000a0	e88c0088	 stmia       r12, {r3, r7}
  000a4	0a00000b	 beq         |$LN17@AddBluetoo|
  000a8		 |$LL3@AddBluetoo|
  000a8	e356000a	 cmp         r6, #0xA
  000ac	2a000009	 bcs         |$LN17@AddBluetoo|

; 158  :     {
; 159  : 
; 160  :         status = Shell_NotifyIcon(NIM_ADD, &BT_NotifyIcon);

  000b0	e1a01005	 mov         r1, r5
  000b4	e3a00000	 mov         r0, #0
  000b8	eb000000	 bl          Shell_NotifyIcon
  000bc	e1b04000	 movs        r4, r0

; 161  : 
; 162  :         if(status)

  000c0	1a000004	 bne         |$LN17@AddBluetoo|

; 163  :         {
; 164  :             break;
; 165  :         }
; 166  : 
; 167  :         icount++;

  000c4	e2863001	 add         r3, r6, #1

; 168  : 
; 169  :         Sleep(300);

  000c8	e3a00f4b	 mov         r0, #0x4B, 30
  000cc	e20360ff	 and         r6, r3, #0xFF
  000d0	eb000000	 bl          Sleep
  000d4	eafffff3	 b           |$LL3@AddBluetoo|
  000d8		 |$LN17@AddBluetoo|

; 170  :     }
; 171  : 
; 172  :     RETAILMSG(1, (TEXT("\n\r-AddBluetoothTrayIcon (%x)\r\n"), status));

  000d8	e59f0014	 ldr         r0, [pc, #0x14]
  000dc	e1a01004	 mov         r1, r4
  000e0	eb000000	 bl          NKDbgPrintfW

; 173  : 
; 174  : 
; 175  :     return status;

  000e4		 |$LN6@AddBluetoo|

; 176  : }

  000e4	e1a00004	 mov         r0, r4
  000e8	e28dd008	 add         sp, sp, #8
  000ec	e8bd40f0	 ldmia       sp!, {r4 - r7, lr}
  000f0	e12fff1e	 bx          lr
  000f4		 |$LN21@AddBluetoo|
  000f4		 |$LN22@AddBluetoo|
  000f4	00000000	 DCD         |??_C@_1DO@HPKMHGIP@?$AA?6?$AA?$AN?$AA?9?$AAA?$AAd?$AAd?$AAB?$AAl?$AAu?$AAe?$AAt?$AAo?$AAo?$AAt?$AAh?$AAT?$AAr?$AAa?$AAy?$AAI?$AAc?$AAo?$AAn?$AA?5?$AA?$CI?$AA?$CF?$AAx?$AA?$CJ?$AA?$AN?$AA?6?$AA?$AA@|
  000f8		 |$LN23@AddBluetoo|
  000f8	00000000	 DCD         |??_C@_1GC@ELJNEMOC@?$AA?6?$AA?$AN?$AAA?$AAd?$AAd?$AAB?$AAl?$AAu?$AAe?$AAt?$AAo?$AAo?$AAt?$AAh?$AAT?$AAr?$AAa?$AAy?$AAI?$AAc?$AAo?$AAn?$AA?9?$AA?9?$AA?$DO?$AA?5?$AAL?$AAo?$AAa?$AAd?$AAI?$AAm@|
  000fc		 |$LN24@AddBluetoo|
  000fc	00000000	 DCD         |??_C@_1CI@OHCJFJPM@?$AAE?$AAR?$AAR?$AAO?$AAR?$AA?3?$AA?5?$AA?$CF?$AAs?$AA?5?$AAl?$AAi?$AAn?$AAe?$AA?5?$AA?$CF?$AAd?$AA?3?$AA?5?$AA?$AA@|
  00100		 |$LN25@AddBluetoo|
  00100	00000000	 DCD         |??_C@_1HM@JNFOMEAK@?$AAC?$AA?3?$AA?2?$AAW?$AAI?$AAN?$AAC?$AAE?$AA6?$AA0?$AA0?$AA?2?$AAP?$AAL?$AAA?$AAT?$AAF?$AAO?$AAR?$AAM?$AA?2?$AAZ?$AA2?$AA1?$AA7?$AA0?$AA?2?$AAS?$AAR?$AAC?$AA?2?$AAD@|
  00104		 |$LN26@AddBluetoo|
  00104	00000000	 DCD         |?ghInstance@@3PAUHINSTANCE__@@A|
  00108		 |$LN27@AddBluetoo|
  00108	00000000	 DCD         |BT_NotifyIcon|
  0010c		 |$LN28@AddBluetoo|
  0010c	00000000	 DCD         |??_C@_1DE@HLMEIBHB@?$AA?6?$AA?$AN?$AA?$CL?$AAA?$AAd?$AAd?$AAB?$AAl?$AAu?$AAe?$AAt?$AAo?$AAo?$AAt?$AAh?$AAT?$AAr?$AAa?$AAy?$AAI?$AAc?$AAo?$AAn?$AA?$AN?$AA?6?$AA?$AA@|
  00110		 |$M37380|

			 ENDP  ; |?AddBluetoothTrayIcon@@YAHXZ|, AddBluetoothTrayIcon

	EXPORT	|?RemoveBluetoothTrayIcon@@YAHXZ|	; RemoveBluetoothTrayIcon

  00000			 AREA	 |.pdata|, PDATA
|$T37400| DCD	|$LN6@RemoveBlue|
	DCD	0x40000a01
; Function compile flags: /Ogspy

  00000			 AREA	 |.text|, CODE, ARM

  00000		 |?RemoveBluetoothTrayIcon@@YAHXZ| PROC	; RemoveBluetoothTrayIcon

; 182  : {

  00000		 |$LN6@RemoveBlue|
  00000	e52de004	 str         lr, [sp, #-4]!
  00004		 |$M37397|

; 183  :     //RETAILMSG(1, (TEXT("\n\r+RemoveBluetoothTrayIcon: %d\n\r"),iIcon));
; 184  : 
; 185  :     BOOL status = FALSE;
; 186  : 
; 187  :     if(hTrayIcon)

  00004	e59f1018	 ldr         r1, [pc, #0x18]
  00008	e3a00000	 mov         r0, #0
  0000c	e5913098	 ldr         r3, [r1, #0x98]
  00010	e3530000	 cmp         r3, #0

; 188  :     {
; 189  : 
; 190  :         status = Shell_NotifyIcon(NIM_DELETE, &BT_NotifyIcon);

  00014	13a00002	 movne       r0, #2
  00018	1b000000	 blne        Shell_NotifyIcon

; 191  : 
; 192  : 
; 193  :     }
; 194  : 
; 195  :     //RETAILMSG(1, (TEXT("\n\r-RemoveBluetoothTrayIcon: %d\n\r"),status));
; 196  :     return status;
; 197  : }

  0001c	e49de004	 ldr         lr, [sp], #4
  00020	e12fff1e	 bx          lr
  00024		 |$LN7@RemoveBlue|
  00024		 |$LN8@RemoveBlue|
  00024	00000000	 DCD         |BT_NotifyIcon|
  00028		 |$M37398|

			 ENDP  ; |?RemoveBluetoothTrayIcon@@YAHXZ|, RemoveBluetoothTrayIcon

	EXPORT	|?TrayIconThread@@YAKPAX@Z|		; TrayIconThread
	EXPORT	|??_C@_1EG@BKDBALPF@?$AA?6?$AA?$AN?$AAE?$AAx?$AAi?$AAt?$AAI?$AAc?$AAo?$AAn?$AAP?$AAr?$AAo?$AAc?$AA?5?$AA?9?$AA?$DO?$AA?5?$AAT?$AAr?$AAa?$AAy?$AAI?$AAc?$AAo?$AAn?$AAT?$AAh?$AAr?$AAe?$AAa?$AAd@| [ DATA ] ; `string'
	EXPORT	|??_C@_11LOCGONAA@?$AA?$AA@| [ DATA ]	; `string'
	EXPORT	|??_C@_1BE@DOAMBMM@?$AAZ?$AAT?$AAr?$AAa?$AAy?$AAI?$AAc?$AAo?$AAn?$AA?$AA@| [ DATA ] ; `string'
	IMPORT	|GetMessageW|
	IMPORT	|DispatchMessageW|
	IMPORT	|TranslateMessage|
	IMPORT	|CreateWindowExW|
	IMPORT	|RegisterClassW|
	IMPORT	|GetModuleHandleW|
	IMPORT	|WaitForAPIReady|
	IMPORT	|memset|

  00000			 AREA	 |.pdata|, PDATA
|$T37418| DCD	|$LN14@TrayIconTh|
	DCD	0x40004502

  00000			 AREA	 |.rdata|, DATA, READONLY
|??_C@_1EG@BKDBALPF@?$AA?6?$AA?$AN?$AAE?$AAx?$AAi?$AAt?$AAI?$AAc?$AAo?$AAn?$AAP?$AAr?$AAo?$AAc?$AA?5?$AA?9?$AA?$DO?$AA?5?$AAT?$AAr?$AAa?$AAy?$AAI?$AAc?$AAo?$AAn?$AAT?$AAh?$AAr?$AAe?$AAa?$AAd@| DCB 0xa
	DCB	0x0, 0xd, 0x0, "E", 0x0, "x", 0x0, "i", 0x0, "t", 0x0, "I"
	DCB	0x0, "c", 0x0, "o", 0x0, "n", 0x0, "P", 0x0, "r", 0x0, "o"
	DCB	0x0, "c", 0x0, " ", 0x0, "-", 0x0, ">", 0x0, " ", 0x0, "T"
	DCB	0x0, "r", 0x0, "a", 0x0, "y", 0x0, "I", 0x0, "c", 0x0, "o"
	DCB	0x0, "n", 0x0, "T", 0x0, "h", 0x0, "r", 0x0, "e", 0x0, "a"
	DCB	0x0, "d", 0x0, 0xa, 0x0, 0xd, 0x0, 0x0, 0x0 ; `string'

  00000			 AREA	 |.rdata|, DATA, READONLY
|??_C@_11LOCGONAA@?$AA?$AA@| DCB 0x0, 0x0		; `string'

  00000			 AREA	 |.rdata|, DATA, READONLY
|??_C@_1BE@DOAMBMM@?$AAZ?$AAT?$AAr?$AAa?$AAy?$AAI?$AAc?$AAo?$AAn?$AA?$AA@| DCB "Z"
	DCB	0x0, "T", 0x0, "r", 0x0, "a", 0x0, "y", 0x0, "I", 0x0, "c"
	DCB	0x0, "o", 0x0, "n", 0x0, 0x0, 0x0	; `string'
; Function compile flags: /Ogspy

  00000			 AREA	 |.text|, CODE, ARM

  00000		 |?TrayIconThread@@YAKPAX@Z| PROC	; TrayIconThread

; 30   : {

  00000		 |$LN14@TrayIconTh|
  00000	e92d4030	 stmdb       sp!, {r4, r5, lr}
  00004	e24dd064	 sub         sp, sp, #0x64
  00008		 |$M37415|

; 31   :     LPCTSTR     szClassName = _T("ZTrayIcon");
; 32   : 
; 33   :     WNDCLASS    wc;
; 34   : 
; 35   :     /*while(!IsAPIReady(SH_SHELL))
; 36   :         {}*/
; 37   :     WaitForAPIReady(SH_SHELL, INFINITE);

  00008	e3e01000	 mvn         r1, #0
  0000c	e3a00055	 mov         r0, #0x55
  00010	eb000000	 bl          WaitForAPIReady

; 38   : 
; 39   : 
; 40   :     if(hTrayIcon == NULL)

  00014	e59f50f4	 ldr         r5, [pc, #0xF4]
  00018	e5953000	 ldr         r3, [r5]
  0001c	e3530000	 cmp         r3, #0
  00020	1a000030	 bne         |$LN3@TrayIconTh|

; 41   :     {
; 42   :         ZeroMemory(&wc, sizeof(wc));

  00024	e3a02028	 mov         r2, #0x28
  00028	e3a01000	 mov         r1, #0
  0002c	e28d003c	 add         r0, sp, #0x3C
  00030	eb000000	 bl          memset

; 43   :         wc.lpfnWndProc = IconProc;

  00034	e59f30d0	 ldr         r3, [pc, #0xD0]

; 44   :         wc.hInstance   = GetModuleHandle(NULL);

  00038	e3a00000	 mov         r0, #0
  0003c	e58d3040	 str         r3, [sp, #0x40]
  00040	eb000000	 bl          GetModuleHandleW

; 45   :         wc.lpszClassName = szClassName;

  00044	e59f40bc	 ldr         r4, [pc, #0xBC]
  00048	e1a03000	 mov         r3, r0

; 46   :         wc.hCursor = NULL;

  0004c	e3a02000	 mov         r2, #0

; 47   :         wc.hbrBackground = NULL;

  00050	e3a01000	 mov         r1, #0

; 48   :         RegisterClass(&wc);

  00054	e28d003c	 add         r0, sp, #0x3C
  00058	e58d4060	 str         r4, [sp, #0x60]
  0005c	e58d304c	 str         r3, [sp, #0x4C]
  00060	e58d2054	 str         r2, [sp, #0x54]
  00064	e58d1058	 str         r1, [sp, #0x58]
  00068	eb000000	 bl          RegisterClassW

; 49   : 
; 50   :         hTrayIcon = CreateWindow(szClassName, _T(""), WS_POPUP | WS_CLIPCHILDREN, 0, 0, 0, 0, NULL, NULL, wc.hInstance, NULL);

  0006c	e59d304c	 ldr         r3, [sp, #0x4C]
  00070	e59f208c	 ldr         r2, [pc, #0x8C]
  00074	e3a0e000	 mov         lr, #0
  00078	e58d3018	 str         r3, [sp, #0x18]
  0007c	e3a03482	 mov         r3, #0x82, 8
  00080	e1a01004	 mov         r1, r4
  00084	e3a00000	 mov         r0, #0
  00088	e58de01c	 str         lr, [sp, #0x1C]
  0008c	e58de014	 str         lr, [sp, #0x14]
  00090	e58de010	 str         lr, [sp, #0x10]
  00094	e58de00c	 str         lr, [sp, #0xC]
  00098	e58de008	 str         lr, [sp, #8]
  0009c	e58de004	 str         lr, [sp, #4]
  000a0	e58de000	 str         lr, [sp]
  000a4	eb000000	 bl          CreateWindowExW
  000a8	e1a03000	 mov         r3, r0

; 51   : 
; 52   : 
; 53   :         MSG  msg;
; 54   : 
; 55   :         while(GetMessage(&msg, NULL, 0, 0))

  000ac	e5853000	 str         r3, [r5]
  000b0	ea000003	 b           |$LN11@TrayIconTh|
  000b4		 |$LL2@TrayIconTh|

; 56   :         {
; 57   :             TranslateMessage(&msg);

  000b4	e28d0020	 add         r0, sp, #0x20
  000b8	eb000000	 bl          TranslateMessage

; 58   :             DispatchMessage(&msg);

  000bc	e28d0020	 add         r0, sp, #0x20
  000c0	eb000000	 bl          DispatchMessageW
  000c4		 |$LN11@TrayIconTh|
  000c4	e3a03000	 mov         r3, #0
  000c8	e3a02000	 mov         r2, #0
  000cc	e3a01000	 mov         r1, #0
  000d0	e28d0020	 add         r0, sp, #0x20
  000d4	eb000000	 bl          GetMessageW
  000d8	e3500000	 cmp         r0, #0
  000dc	1afffff4	 bne         |$LL2@TrayIconTh|

; 59   :         }
; 60   : 
; 61   :         hTrayIcon = NULL;

  000e0	e3a03000	 mov         r3, #0
  000e4	e5853000	 str         r3, [r5]
  000e8		 |$LN3@TrayIconTh|

; 62   :     }
; 63   : 
; 64   : 
; 65   :     RETAILMSG(1, (TEXT("\n\rExitIconProc -> TrayIconThread\n\r")));

  000e8	e59f0010	 ldr         r0, [pc, #0x10]
  000ec	eb000000	 bl          NKDbgPrintfW

; 66   : 
; 67   :     return 0;

  000f0	e3a00000	 mov         r0, #0

; 68   : }

  000f4	e28dd064	 add         sp, sp, #0x64
  000f8	e8bd4030	 ldmia       sp!, {r4, r5, lr}
  000fc	e12fff1e	 bx          lr
  00100		 |$LN15@TrayIconTh|
  00100		 |$LN16@TrayIconTh|
  00100	00000000	 DCD         |??_C@_1EG@BKDBALPF@?$AA?6?$AA?$AN?$AAE?$AAx?$AAi?$AAt?$AAI?$AAc?$AAo?$AAn?$AAP?$AAr?$AAo?$AAc?$AA?5?$AA?9?$AA?$DO?$AA?5?$AAT?$AAr?$AAa?$AAy?$AAI?$AAc?$AAo?$AAn?$AAT?$AAh?$AAr?$AAe?$AAa?$AAd@|
  00104		 |$LN17@TrayIconTh|
  00104	00000000	 DCD         |??_C@_11LOCGONAA@?$AA?$AA@|
  00108		 |$LN18@TrayIconTh|
  00108	00000000	 DCD         |??_C@_1BE@DOAMBMM@?$AAZ?$AAT?$AAr?$AAa?$AAy?$AAI?$AAc?$AAo?$AAn?$AA?$AA@|
  0010c		 |$LN19@TrayIconTh|
  0010c	00000000	 DCD         |?IconProc@@YAJPAUHWND__@@IIJ@Z|
  00110		 |$LN20@TrayIconTh|
  00110	00000000	 DCD         |hTrayIcon|
  00114		 |$M37416|

			 ENDP  ; |?TrayIconThread@@YAKPAX@Z|, TrayIconThread

	END
