; Listing generated by Microsoft (R) Optimizing Compiler Version 14.01.60511.01 

	TTL	C:\WINCE600\PLATFORM\COMMON\SRC\SOC\COMMON_TI_V1\OMAP3530\MUSB\MUSBHCD\USB2COM\cdevice.cpp
	CODE32

  00000			 AREA	 |.drectve|, DRECTVE
	DCB	"-defaultlib:LIBCMT "
	DCB	"-defaultlib:OLDNAMES "

	EXPORT	|??_C@_1DK@JPBDFEOB@?$AAD?$AAE?$AAV?$AAI?$AAC?$AAE?$AA_?$AAC?$AAO?$AAN?$AAF?$AAI?$AAG?$AA_?$AAS?$AAT?$AAA?$AAT?$AAU?$AAS?$AA_?$AAI?$AAN?$AAV?$AAA?$AAL?$AAI?$AAD?$AA?$AA@| [ DATA ] ; `string'
	EXPORT	|??_C@_1DE@IMCKALLA@?$AAD?$AAE?$AAV?$AAI?$AAC?$AAE?$AA_?$AAC?$AAO?$AAN?$AAF?$AAI?$AAG?$AA_?$AAS?$AAT?$AAA?$AAT?$AAU?$AAS?$AA_?$AAD?$AAO?$AAN?$AAE?$AA?$AA@| [ DATA ] ; `string'
	EXPORT	|??_C@_1DI@CEGNOBAM@?$AAD?$AAE?$AAV?$AAI?$AAC?$AAE?$AA_?$AAC?$AAO?$AAN?$AAF?$AAI?$AAG?$AA_?$AAS?$AAT?$AAA?$AAT?$AAU?$AAS?$AA_?$AAF?$AAA?$AAI?$AAL?$AAE?$AAD?$AA?$AA@| [ DATA ] ; `string'
	EXPORT	|??_C@_1HO@PGHDEMEK@?$AAD?$AAE?$AAV?$AAI?$AAC?$AAE?$AA_?$AAC?$AAO?$AAN?$AAF?$AAI?$AAG?$AA_?$AAS?$AAT?$AAA?$AAT?$AAU?$AAS?$AA_?$AAS?$AAI?$AAG?$AAN?$AAA?$AAL?$AA_?$AAN?$AAE?$AAW?$AA_@| [ DATA ] ; `string'
	EXPORT	|??_C@_1II@FBBOBKGN@?$AAD?$AAE?$AAV?$AAI?$AAC?$AAE?$AA_?$AAC?$AAO?$AAN?$AAF?$AAI?$AAG?$AA_?$AAS?$AAT?$AAA?$AAT?$AAU?$AAS?$AA_?$AAI?$AAN?$AAS?$AAE?$AAR?$AAT?$AA_?$AAN?$AAE?$AAW?$AA_@| [ DATA ] ; `string'
	EXPORT	|??_C@_1FC@LCLFDJDO@?$AAD?$AAE?$AAV?$AAI?$AAC?$AAE?$AA_?$AAC?$AAO?$AAN?$AAF?$AAI?$AAG?$AA_?$AAS?$AAT?$AAA?$AAT?$AAU?$AAS?$AA_?$AAC?$AAR?$AAE?$AAA?$AAT?$AAE?$AA_?$AAN?$AAE?$AAW?$AA_@| [ DATA ] ; `string'
	EXPORT	|??_C@_1EI@COKEBMOE@?$AAD?$AAE?$AAV?$AAI?$AAC?$AAE?$AA_?$AAC?$AAO?$AAN?$AAF?$AAI?$AAG?$AA_?$AAS?$AAT?$AAA?$AAT?$AAU?$AAS?$AA_?$AAC?$AAR?$AAE?$AAA?$AAT?$AAE?$AA_?$AAN?$AAE?$AAW?$AA_@| [ DATA ] ; `string'
	EXPORT	|??_C@_1GG@HPGGGHKI@?$AAD?$AAE?$AAV?$AAI?$AAC?$AAE?$AA_?$AAC?$AAO?$AAN?$AAF?$AAI?$AAG?$AA_?$AAS?$AAT?$AAA?$AAT?$AAU?$AAS?$AA_?$AAS?$AAC?$AAH?$AAE?$AAD?$AAU?$AAL?$AAI?$AAN?$AAG?$AA_@| [ DATA ] ; `string'
	EXPORT	|??_C@_1HG@KPBCOGEF@?$AAD?$AAE?$AAV?$AAI?$AAC?$AAE?$AA_?$AAC?$AAO?$AAN?$AAF?$AAI?$AAG?$AA_?$AAS?$AAT?$AAA?$AAT?$AAU?$AAS?$AA_?$AAS?$AAC?$AAH?$AAE?$AAD?$AAU?$AAL?$AAI?$AAN?$AAG?$AA_@| [ DATA ] ; `string'
	EXPORT	|??_C@_1FG@CFFAAPDL@?$AAD?$AAE?$AAV?$AAI?$AAC?$AAE?$AA_?$AAC?$AAO?$AAN?$AAF?$AAI?$AAG?$AA_?$AAS?$AAT?$AAA?$AAT?$AAU?$AAS?$AA_?$AAS?$AAC?$AAH?$AAE?$AAD?$AAU?$AAL?$AAI?$AAN?$AAG?$AA_@| [ DATA ] ; `string'
	EXPORT	|??_C@_1GA@NDHJOKMM@?$AAD?$AAE?$AAV?$AAI?$AAC?$AAE?$AA_?$AAC?$AAO?$AAN?$AAF?$AAI?$AAG?$AA_?$AAS?$AAT?$AAA?$AAT?$AAU?$AAS?$AA_?$AAD?$AAE?$AAT?$AAE?$AAR?$AAM?$AAI?$AAN?$AAE?$AA_?$AAC@| [ DATA ] ; `string'
	EXPORT	|??_C@_1GM@JADKDKDC@?$AAD?$AAE?$AAV?$AAI?$AAC?$AAE?$AA_?$AAC?$AAO?$AAN?$AAF?$AAI?$AAG?$AA_?$AAS?$AAT?$AAA?$AAT?$AAU?$AAS?$AA_?$AAS?$AAC?$AAH?$AAE?$AAD?$AAU?$AAL?$AAI?$AAN?$AAG?$AA_@| [ DATA ] ; `string'
	EXPORT	|??_C@_1HM@NPLCKJLH@?$AAD?$AAE?$AAV?$AAI?$AAC?$AAE?$AA_?$AAC?$AAO?$AAN?$AAF?$AAI?$AAG?$AA_?$AAS?$AAT?$AAA?$AAT?$AAU?$AAS?$AA_?$AAS?$AAC?$AAH?$AAE?$AAD?$AAU?$AAL?$AAI?$AAN?$AAG?$AA_@| [ DATA ] ; `string'
	EXPORT	|??_C@_1HE@MEMGEMJJ@?$AAD?$AAE?$AAV?$AAI?$AAC?$AAE?$AA_?$AAC?$AAO?$AAN?$AAF?$AAI?$AAG?$AA_?$AAS?$AAT?$AAA?$AAT?$AAU?$AAS?$AA_?$AAS?$AAE?$AAT?$AAU?$AAP?$AA_?$AAC?$AAO?$AAN?$AAF?$AAI@| [ DATA ] ; `string'
	EXPORT	|??_C@_1GM@BCHKIAPP@?$AAD?$AAE?$AAV?$AAI?$AAC?$AAE?$AA_?$AAC?$AAO?$AAN?$AAF?$AAI?$AAG?$AA_?$AAS?$AAT?$AAA?$AAT?$AAU?$AAS?$AA_?$AAS?$AAC?$AAH?$AAE?$AAD?$AAU?$AAL?$AAI?$AAN?$AAG?$AA_@| [ DATA ] ; `string'
	EXPORT	|??_C@_1HM@FNPCBDHK@?$AAD?$AAE?$AAV?$AAI?$AAC?$AAE?$AA_?$AAC?$AAO?$AAN?$AAF?$AAI?$AAG?$AA_?$AAS?$AAT?$AAA?$AAT?$AAU?$AAS?$AA_?$AAS?$AAC?$AAH?$AAE?$AAD?$AAU?$AAL?$AAI?$AAN?$AAG?$AA_@| [ DATA ] ; `string'
	EXPORT	|??_C@_1EI@BBOOKHNN@?$AAD?$AAE?$AAV?$AAI?$AAC?$AAE?$AA_?$AAC?$AAO?$AAN?$AAF?$AAI?$AAG?$AA_?$AAS?$AAT?$AAA?$AAT?$AAU?$AAS?$AA_?$AAL?$AAE?$AAA?$AAV?$AAE?$AA_?$AAA?$AAD?$AAD?$AAR?$AAE@| [ DATA ] ; `string'
	EXPORT	|??_C@_1FI@LGLHPFAK@?$AAD?$AAE?$AAV?$AAI?$AAC?$AAE?$AA_?$AAC?$AAO?$AAN?$AAF?$AAI?$AAG?$AA_?$AAS?$AAT?$AAA?$AAT?$AAU?$AAS?$AA_?$AAS?$AAC?$AAH?$AAE?$AAD?$AAU?$AAL?$AAI?$AAN?$AAG?$AA_@| [ DATA ] ; `string'
	EXPORT	|??_C@_1HG@BLNLBKIO@?$AAD?$AAE?$AAV?$AAI?$AAC?$AAE?$AA_?$AAC?$AAO?$AAN?$AAF?$AAI?$AAG?$AA_?$AAS?$AAT?$AAA?$AAT?$AAU?$AAS?$AA_?$AAS?$AAC?$AAH?$AAE?$AAD?$AAU?$AAL?$AAI?$AAN?$AAG?$AA_@| [ DATA ] ; `string'
	EXPORT	|??_C@_1FG@NMCKCJLL@?$AAD?$AAE?$AAV?$AAI?$AAC?$AAE?$AA_?$AAC?$AAO?$AAN?$AAF?$AAI?$AAG?$AA_?$AAS?$AAT?$AAA?$AAT?$AAU?$AAS?$AA_?$AAR?$AAE?$AAS?$AAE?$AAT?$AA_?$AAA?$AAN?$AAD?$AA_?$AAE@| [ DATA ] ; `string'
	EXPORT	|??_C@_1EI@KNOIBOPH@?$AAD?$AAE?$AAV?$AAI?$AAC?$AAE?$AA_?$AAC?$AAO?$AAN?$AAF?$AAI?$AAG?$AA_?$AAS?$AAT?$AAA?$AAT?$AAU?$AAS?$AA_?$AAU?$AAS?$AAI?$AAN?$AAG?$AA_?$AAA?$AAD?$AAD?$AAR?$AAE@| [ DATA ] ; `string'
	EXPORT	|??_C@_1FI@COMJHLEF@?$AAD?$AAE?$AAV?$AAI?$AAC?$AAE?$AA_?$AAC?$AAO?$AAN?$AAF?$AAI?$AAG?$AA_?$AAS?$AAT?$AAA?$AAT?$AAU?$AAS?$AA_?$AAO?$AAP?$AAE?$AAN?$AAI?$AAN?$AAG?$AA_?$AAE?$AAN?$AAD@| [ DATA ] ; `string'

  00000			 AREA	 |.data|, DATA
|cszCfgStateStrings| DCD |??_C@_1FI@COMJHLEF@?$AAD?$AAE?$AAV?$AAI?$AAC?$AAE?$AA_?$AAC?$AAO?$AAN?$AAF?$AAI?$AAG?$AA_?$AAS?$AAT?$AAA?$AAT?$AAU?$AAS?$AA_?$AAO?$AAP?$AAE?$AAN?$AAI?$AAN?$AAG?$AA_?$AAE?$AAN?$AAD@|
	DCD	|??_C@_1EI@KNOIBOPH@?$AAD?$AAE?$AAV?$AAI?$AAC?$AAE?$AA_?$AAC?$AAO?$AAN?$AAF?$AAI?$AAG?$AA_?$AAS?$AAT?$AAA?$AAT?$AAU?$AAS?$AA_?$AAU?$AAS?$AAI?$AAN?$AAG?$AA_?$AAA?$AAD?$AAD?$AAR?$AAE@|
	DCD	|??_C@_1FG@NMCKCJLL@?$AAD?$AAE?$AAV?$AAI?$AAC?$AAE?$AA_?$AAC?$AAO?$AAN?$AAF?$AAI?$AAG?$AA_?$AAS?$AAT?$AAA?$AAT?$AAU?$AAS?$AA_?$AAR?$AAE?$AAS?$AAE?$AAT?$AA_?$AAA?$AAN?$AAD?$AA_?$AAE@|
	DCD	|??_C@_1HG@BLNLBKIO@?$AAD?$AAE?$AAV?$AAI?$AAC?$AAE?$AA_?$AAC?$AAO?$AAN?$AAF?$AAI?$AAG?$AA_?$AAS?$AAT?$AAA?$AAT?$AAU?$AAS?$AA_?$AAS?$AAC?$AAH?$AAE?$AAD?$AAU?$AAL?$AAI?$AAN?$AAG?$AA_@|
	DCD	|??_C@_1FI@LGLHPFAK@?$AAD?$AAE?$AAV?$AAI?$AAC?$AAE?$AA_?$AAC?$AAO?$AAN?$AAF?$AAI?$AAG?$AA_?$AAS?$AAT?$AAA?$AAT?$AAU?$AAS?$AA_?$AAS?$AAC?$AAH?$AAE?$AAD?$AAU?$AAL?$AAI?$AAN?$AAG?$AA_@|
	DCD	|??_C@_1EI@BBOOKHNN@?$AAD?$AAE?$AAV?$AAI?$AAC?$AAE?$AA_?$AAC?$AAO?$AAN?$AAF?$AAI?$AAG?$AA_?$AAS?$AAT?$AAA?$AAT?$AAU?$AAS?$AA_?$AAL?$AAE?$AAA?$AAV?$AAE?$AA_?$AAA?$AAD?$AAD?$AAR?$AAE@|
	DCD	|??_C@_1HM@FNPCBDHK@?$AAD?$AAE?$AAV?$AAI?$AAC?$AAE?$AA_?$AAC?$AAO?$AAN?$AAF?$AAI?$AAG?$AA_?$AAS?$AAT?$AAA?$AAT?$AAU?$AAS?$AA_?$AAS?$AAC?$AAH?$AAE?$AAD?$AAU?$AAL?$AAI?$AAN?$AAG?$AA_@|
	DCD	|??_C@_1GM@BCHKIAPP@?$AAD?$AAE?$AAV?$AAI?$AAC?$AAE?$AA_?$AAC?$AAO?$AAN?$AAF?$AAI?$AAG?$AA_?$AAS?$AAT?$AAA?$AAT?$AAU?$AAS?$AA_?$AAS?$AAC?$AAH?$AAE?$AAD?$AAU?$AAL?$AAI?$AAN?$AAG?$AA_@|
	DCD	|??_C@_1HE@MEMGEMJJ@?$AAD?$AAE?$AAV?$AAI?$AAC?$AAE?$AA_?$AAC?$AAO?$AAN?$AAF?$AAI?$AAG?$AA_?$AAS?$AAT?$AAA?$AAT?$AAU?$AAS?$AA_?$AAS?$AAE?$AAT?$AAU?$AAP?$AA_?$AAC?$AAO?$AAN?$AAF?$AAI@|
	DCD	|??_C@_1HM@NPLCKJLH@?$AAD?$AAE?$AAV?$AAI?$AAC?$AAE?$AA_?$AAC?$AAO?$AAN?$AAF?$AAI?$AAG?$AA_?$AAS?$AAT?$AAA?$AAT?$AAU?$AAS?$AA_?$AAS?$AAC?$AAH?$AAE?$AAD?$AAU?$AAL?$AAI?$AAN?$AAG?$AA_@|
	DCD	|??_C@_1GM@JADKDKDC@?$AAD?$AAE?$AAV?$AAI?$AAC?$AAE?$AA_?$AAC?$AAO?$AAN?$AAF?$AAI?$AAG?$AA_?$AAS?$AAT?$AAA?$AAT?$AAU?$AAS?$AA_?$AAS?$AAC?$AAH?$AAE?$AAD?$AAU?$AAL?$AAI?$AAN?$AAG?$AA_@|
	DCD	|??_C@_1GA@NDHJOKMM@?$AAD?$AAE?$AAV?$AAI?$AAC?$AAE?$AA_?$AAC?$AAO?$AAN?$AAF?$AAI?$AAG?$AA_?$AAS?$AAT?$AAA?$AAT?$AAU?$AAS?$AA_?$AAD?$AAE?$AAT?$AAE?$AAR?$AAM?$AAI?$AAN?$AAE?$AA_?$AAC@|
	DCD	|??_C@_1FG@CFFAAPDL@?$AAD?$AAE?$AAV?$AAI?$AAC?$AAE?$AA_?$AAC?$AAO?$AAN?$AAF?$AAI?$AAG?$AA_?$AAS?$AAT?$AAA?$AAT?$AAU?$AAS?$AA_?$AAS?$AAC?$AAH?$AAE?$AAD?$AAU?$AAL?$AAI?$AAN?$AAG?$AA_@|
	DCD	|??_C@_1HG@KPBCOGEF@?$AAD?$AAE?$AAV?$AAI?$AAC?$AAE?$AA_?$AAC?$AAO?$AAN?$AAF?$AAI?$AAG?$AA_?$AAS?$AAT?$AAA?$AAT?$AAU?$AAS?$AA_?$AAS?$AAC?$AAH?$AAE?$AAD?$AAU?$AAL?$AAI?$AAN?$AAG?$AA_@|
	DCD	|??_C@_1GG@HPGGGHKI@?$AAD?$AAE?$AAV?$AAI?$AAC?$AAE?$AA_?$AAC?$AAO?$AAN?$AAF?$AAI?$AAG?$AA_?$AAS?$AAT?$AAA?$AAT?$AAU?$AAS?$AA_?$AAS?$AAC?$AAH?$AAE?$AAD?$AAU?$AAL?$AAI?$AAN?$AAG?$AA_@|
	DCD	|??_C@_1EI@COKEBMOE@?$AAD?$AAE?$AAV?$AAI?$AAC?$AAE?$AA_?$AAC?$AAO?$AAN?$AAF?$AAI?$AAG?$AA_?$AAS?$AAT?$AAA?$AAT?$AAU?$AAS?$AA_?$AAC?$AAR?$AAE?$AAA?$AAT?$AAE?$AA_?$AAN?$AAE?$AAW?$AA_@|
	DCD	|??_C@_1FC@LCLFDJDO@?$AAD?$AAE?$AAV?$AAI?$AAC?$AAE?$AA_?$AAC?$AAO?$AAN?$AAF?$AAI?$AAG?$AA_?$AAS?$AAT?$AAA?$AAT?$AAU?$AAS?$AA_?$AAC?$AAR?$AAE?$AAA?$AAT?$AAE?$AA_?$AAN?$AAE?$AAW?$AA_@|
	DCD	|??_C@_1II@FBBOBKGN@?$AAD?$AAE?$AAV?$AAI?$AAC?$AAE?$AA_?$AAC?$AAO?$AAN?$AAF?$AAI?$AAG?$AA_?$AAS?$AAT?$AAA?$AAT?$AAU?$AAS?$AA_?$AAI?$AAN?$AAS?$AAE?$AAR?$AAT?$AA_?$AAN?$AAE?$AAW?$AA_@|
	DCD	|??_C@_1HO@PGHDEMEK@?$AAD?$AAE?$AAV?$AAI?$AAC?$AAE?$AA_?$AAC?$AAO?$AAN?$AAF?$AAI?$AAG?$AA_?$AAS?$AAT?$AAA?$AAT?$AAU?$AAS?$AA_?$AAS?$AAI?$AAG?$AAN?$AAA?$AAL?$AA_?$AAN?$AAE?$AAW?$AA_@|
	DCD	|??_C@_1DI@CEGNOBAM@?$AAD?$AAE?$AAV?$AAI?$AAC?$AAE?$AA_?$AAC?$AAO?$AAN?$AAF?$AAI?$AAG?$AA_?$AAS?$AAT?$AAA?$AAT?$AAU?$AAS?$AA_?$AAF?$AAA?$AAI?$AAL?$AAE?$AAD?$AA?$AA@|
	DCD	|??_C@_1DE@IMCKALLA@?$AAD?$AAE?$AAV?$AAI?$AAC?$AAE?$AA_?$AAC?$AAO?$AAN?$AAF?$AAI?$AAG?$AA_?$AAS?$AAT?$AAA?$AAT?$AAU?$AAS?$AA_?$AAD?$AAO?$AAN?$AAE?$AA?$AA@|
	DCD	|??_C@_1DK@JPBDFEOB@?$AAD?$AAE?$AAV?$AAI?$AAC?$AAE?$AA_?$AAC?$AAO?$AAN?$AAF?$AAI?$AAG?$AA_?$AAS?$AAT?$AAA?$AAT?$AAU?$AAS?$AA_?$AAI?$AAN?$AAV?$AAA?$AAL?$AAI?$AAD?$AA?$AA@|

  00000			 AREA	 |.rdata|, DATA, READONLY
|??_C@_1DK@JPBDFEOB@?$AAD?$AAE?$AAV?$AAI?$AAC?$AAE?$AA_?$AAC?$AAO?$AAN?$AAF?$AAI?$AAG?$AA_?$AAS?$AAT?$AAA?$AAT?$AAU?$AAS?$AA_?$AAI?$AAN?$AAV?$AAA?$AAL?$AAI?$AAD?$AA?$AA@| DCB "D"
	DCB	0x0, "E", 0x0, "V", 0x0, "I", 0x0, "C", 0x0, "E", 0x0, "_"
	DCB	0x0, "C", 0x0, "O", 0x0, "N", 0x0, "F", 0x0, "I", 0x0, "G"
	DCB	0x0, "_", 0x0, "S", 0x0, "T", 0x0, "A", 0x0, "T", 0x0, "U"
	DCB	0x0, "S", 0x0, "_", 0x0, "I", 0x0, "N", 0x0, "V", 0x0, "A"
	DCB	0x0, "L", 0x0, "I", 0x0, "D", 0x0, 0x0, 0x0 ; `string'

  00000			 AREA	 |.rdata|, DATA, READONLY
|??_C@_1DE@IMCKALLA@?$AAD?$AAE?$AAV?$AAI?$AAC?$AAE?$AA_?$AAC?$AAO?$AAN?$AAF?$AAI?$AAG?$AA_?$AAS?$AAT?$AAA?$AAT?$AAU?$AAS?$AA_?$AAD?$AAO?$AAN?$AAE?$AA?$AA@| DCB "D"
	DCB	0x0, "E", 0x0, "V", 0x0, "I", 0x0, "C", 0x0, "E", 0x0, "_"
	DCB	0x0, "C", 0x0, "O", 0x0, "N", 0x0, "F", 0x0, "I", 0x0, "G"
	DCB	0x0, "_", 0x0, "S", 0x0, "T", 0x0, "A", 0x0, "T", 0x0, "U"
	DCB	0x0, "S", 0x0, "_", 0x0, "D", 0x0, "O", 0x0, "N", 0x0, "E"
	DCB	0x0, 0x0, 0x0				; `string'

  00000			 AREA	 |.rdata|, DATA, READONLY
|??_C@_1DI@CEGNOBAM@?$AAD?$AAE?$AAV?$AAI?$AAC?$AAE?$AA_?$AAC?$AAO?$AAN?$AAF?$AAI?$AAG?$AA_?$AAS?$AAT?$AAA?$AAT?$AAU?$AAS?$AA_?$AAF?$AAA?$AAI?$AAL?$AAE?$AAD?$AA?$AA@| DCB "D"
	DCB	0x0, "E", 0x0, "V", 0x0, "I", 0x0, "C", 0x0, "E", 0x0, "_"
	DCB	0x0, "C", 0x0, "O", 0x0, "N", 0x0, "F", 0x0, "I", 0x0, "G"
	DCB	0x0, "_", 0x0, "S", 0x0, "T", 0x0, "A", 0x0, "T", 0x0, "U"
	DCB	0x0, "S", 0x0, "_", 0x0, "F", 0x0, "A", 0x0, "I", 0x0, "L"
	DCB	0x0, "E", 0x0, "D", 0x0, 0x0, 0x0	; `string'

  00000			 AREA	 |.rdata|, DATA, READONLY
|??_C@_1HO@PGHDEMEK@?$AAD?$AAE?$AAV?$AAI?$AAC?$AAE?$AA_?$AAC?$AAO?$AAN?$AAF?$AAI?$AAG?$AA_?$AAS?$AAT?$AAA?$AAT?$AAU?$AAS?$AA_?$AAS?$AAI?$AAG?$AAN?$AAA?$AAL?$AA_?$AAN?$AAE?$AAW?$AA_@| DCB "D"
	DCB	0x0, "E", 0x0, "V", 0x0, "I", 0x0, "C", 0x0, "E", 0x0, "_"
	DCB	0x0, "C", 0x0, "O", 0x0, "N", 0x0, "F", 0x0, "I", 0x0, "G"
	DCB	0x0, "_", 0x0, "S", 0x0, "T", 0x0, "A", 0x0, "T", 0x0, "U"
	DCB	0x0, "S", 0x0, "_", 0x0, "S", 0x0, "I", 0x0, "G", 0x0, "N"
	DCB	0x0, "A", 0x0, "L", 0x0, "_", 0x0, "N", 0x0, "E", 0x0, "W"
	DCB	0x0, "_", 0x0, "D", 0x0, "E", 0x0, "V", 0x0, "I", 0x0, "C"
	DCB	0x0, "E", 0x0, "_", 0x0, "E", 0x0, "N", 0x0, "T", 0x0, "E"
	DCB	0x0, "R", 0x0, "_", 0x0, "O", 0x0, "P", 0x0, "E", 0x0, "R"
	DCB	0x0, "A", 0x0, "T", 0x0, "I", 0x0, "O", 0x0, "N", 0x0, "A"
	DCB	0x0, "L", 0x0, "_", 0x0, "S", 0x0, "T", 0x0, "A", 0x0, "T"
	DCB	0x0, "E", 0x0, 0x0, 0x0			; `string'

  00000			 AREA	 |.rdata|, DATA, READONLY
|??_C@_1II@FBBOBKGN@?$AAD?$AAE?$AAV?$AAI?$AAC?$AAE?$AA_?$AAC?$AAO?$AAN?$AAF?$AAI?$AAG?$AA_?$AAS?$AAT?$AAA?$AAT?$AAU?$AAS?$AA_?$AAI?$AAN?$AAS?$AAE?$AAR?$AAT?$AA_?$AAN?$AAE?$AAW?$AA_@| DCB "D"
	DCB	0x0, "E", 0x0, "V", 0x0, "I", 0x0, "C", 0x0, "E", 0x0, "_"
	DCB	0x0, "C", 0x0, "O", 0x0, "N", 0x0, "F", 0x0, "I", 0x0, "G"
	DCB	0x0, "_", 0x0, "S", 0x0, "T", 0x0, "A", 0x0, "T", 0x0, "U"
	DCB	0x0, "S", 0x0, "_", 0x0, "I", 0x0, "N", 0x0, "S", 0x0, "E"
	DCB	0x0, "R", 0x0, "T", 0x0, "_", 0x0, "N", 0x0, "E", 0x0, "W"
	DCB	0x0, "_", 0x0, "D", 0x0, "E", 0x0, "V", 0x0, "I", 0x0, "C"
	DCB	0x0, "E", 0x0, "_", 0x0, "I", 0x0, "N", 0x0, "T", 0x0, "O"
	DCB	0x0, "_", 0x0, "U", 0x0, "P", 0x0, "S", 0x0, "T", 0x0, "R"
	DCB	0x0, "E", 0x0, "A", 0x0, "M", 0x0, "_", 0x0, "H", 0x0, "U"
	DCB	0x0, "B", 0x0, "_", 0x0, "P", 0x0, "O", 0x0, "R", 0x0, "T"
	DCB	0x0, "_", 0x0, "A", 0x0, "R", 0x0, "R", 0x0, "A", 0x0, "Y"
	DCB	0x0, 0x0, 0x0				; `string'

  00000			 AREA	 |.rdata|, DATA, READONLY
|??_C@_1FC@LCLFDJDO@?$AAD?$AAE?$AAV?$AAI?$AAC?$AAE?$AA_?$AAC?$AAO?$AAN?$AAF?$AAI?$AAG?$AA_?$AAS?$AAT?$AAA?$AAT?$AAU?$AAS?$AA_?$AAC?$AAR?$AAE?$AAA?$AAT?$AAE?$AA_?$AAN?$AAE?$AAW?$AA_@| DCB "D"
	DCB	0x0, "E", 0x0, "V", 0x0, "I", 0x0, "C", 0x0, "E", 0x0, "_"
	DCB	0x0, "C", 0x0, "O", 0x0, "N", 0x0, "F", 0x0, "I", 0x0, "G"
	DCB	0x0, "_", 0x0, "S", 0x0, "T", 0x0, "A", 0x0, "T", 0x0, "U"
	DCB	0x0, "S", 0x0, "_", 0x0, "C", 0x0, "R", 0x0, "E", 0x0, "A"
	DCB	0x0, "T", 0x0, "E", 0x0, "_", 0x0, "N", 0x0, "E", 0x0, "W"
	DCB	0x0, "_", 0x0, "F", 0x0, "U", 0x0, "N", 0x0, "C", 0x0, "T"
	DCB	0x0, "I", 0x0, "O", 0x0, "N", 0x0, 0x0, 0x0 ; `string'

  00000			 AREA	 |.rdata|, DATA, READONLY
|??_C@_1EI@COKEBMOE@?$AAD?$AAE?$AAV?$AAI?$AAC?$AAE?$AA_?$AAC?$AAO?$AAN?$AAF?$AAI?$AAG?$AA_?$AAS?$AAT?$AAA?$AAT?$AAU?$AAS?$AA_?$AAC?$AAR?$AAE?$AAA?$AAT?$AAE?$AA_?$AAN?$AAE?$AAW?$AA_@| DCB "D"
	DCB	0x0, "E", 0x0, "V", 0x0, "I", 0x0, "C", 0x0, "E", 0x0, "_"
	DCB	0x0, "C", 0x0, "O", 0x0, "N", 0x0, "F", 0x0, "I", 0x0, "G"
	DCB	0x0, "_", 0x0, "S", 0x0, "T", 0x0, "A", 0x0, "T", 0x0, "U"
	DCB	0x0, "S", 0x0, "_", 0x0, "C", 0x0, "R", 0x0, "E", 0x0, "A"
	DCB	0x0, "T", 0x0, "E", 0x0, "_", 0x0, "N", 0x0, "E", 0x0, "W"
	DCB	0x0, "_", 0x0, "H", 0x0, "U", 0x0, "B", 0x0, 0x0, 0x0 ; `string'

  00000			 AREA	 |.rdata|, DATA, READONLY
|??_C@_1GG@HPGGGHKI@?$AAD?$AAE?$AAV?$AAI?$AAC?$AAE?$AA_?$AAC?$AAO?$AAN?$AAF?$AAI?$AAG?$AA_?$AAS?$AAT?$AAA?$AAT?$AAU?$AAS?$AA_?$AAS?$AAC?$AAH?$AAE?$AAD?$AAU?$AAL?$AAI?$AAN?$AAG?$AA_@| DCB "D"
	DCB	0x0, "E", 0x0, "V", 0x0, "I", 0x0, "C", 0x0, "E", 0x0, "_"
	DCB	0x0, "C", 0x0, "O", 0x0, "N", 0x0, "F", 0x0, "I", 0x0, "G"
	DCB	0x0, "_", 0x0, "S", 0x0, "T", 0x0, "A", 0x0, "T", 0x0, "U"
	DCB	0x0, "S", 0x0, "_", 0x0, "S", 0x0, "C", 0x0, "H", 0x0, "E"
	DCB	0x0, "D", 0x0, "U", 0x0, "L", 0x0, "I", 0x0, "N", 0x0, "G"
	DCB	0x0, "_", 0x0, "G", 0x0, "E", 0x0, "T", 0x0, "_", 0x0, "H"
	DCB	0x0, "U", 0x0, "B", 0x0, "_", 0x0, "D", 0x0, "E", 0x0, "S"
	DCB	0x0, "C", 0x0, "R", 0x0, "I", 0x0, "P", 0x0, "T", 0x0, "O"
	DCB	0x0, "R", 0x0, 0x0, 0x0			; `string'

  00000			 AREA	 |.rdata|, DATA, READONLY
|??_C@_1HG@KPBCOGEF@?$AAD?$AAE?$AAV?$AAI?$AAC?$AAE?$AA_?$AAC?$AAO?$AAN?$AAF?$AAI?$AAG?$AA_?$AAS?$AAT?$AAA?$AAT?$AAU?$AAS?$AA_?$AAS?$AAC?$AAH?$AAE?$AAD?$AAU?$AAL?$AAI?$AAN?$AAG?$AA_@| DCB "D"
	DCB	0x0, "E", 0x0, "V", 0x0, "I", 0x0, "C", 0x0, "E", 0x0, "_"
	DCB	0x0, "C", 0x0, "O", 0x0, "N", 0x0, "F", 0x0, "I", 0x0, "G"
	DCB	0x0, "_", 0x0, "S", 0x0, "T", 0x0, "A", 0x0, "T", 0x0, "U"
	DCB	0x0, "S", 0x0, "_", 0x0, "S", 0x0, "C", 0x0, "H", 0x0, "E"
	DCB	0x0, "D", 0x0, "U", 0x0, "L", 0x0, "I", 0x0, "N", 0x0, "G"
	DCB	0x0, "_", 0x0, "G", 0x0, "E", 0x0, "T", 0x0, "_", 0x0, "I"
	DCB	0x0, "N", 0x0, "I", 0x0, "T", 0x0, "I", 0x0, "A", 0x0, "L"
	DCB	0x0, "_", 0x0, "H", 0x0, "U", 0x0, "B", 0x0, "_", 0x0, "D"
	DCB	0x0, "E", 0x0, "S", 0x0, "C", 0x0, "R", 0x0, "I", 0x0, "P"
	DCB	0x0, "T", 0x0, "O", 0x0, "R", 0x0, 0x0, 0x0 ; `string'

  00000			 AREA	 |.rdata|, DATA, READONLY
|??_C@_1FG@CFFAAPDL@?$AAD?$AAE?$AAV?$AAI?$AAC?$AAE?$AA_?$AAC?$AAO?$AAN?$AAF?$AAI?$AAG?$AA_?$AAS?$AAT?$AAA?$AAT?$AAU?$AAS?$AA_?$AAS?$AAC?$AAH?$AAE?$AAD?$AAU?$AAL?$AAI?$AAN?$AAG?$AA_@| DCB "D"
	DCB	0x0, "E", 0x0, "V", 0x0, "I", 0x0, "C", 0x0, "E", 0x0, "_"
	DCB	0x0, "C", 0x0, "O", 0x0, "N", 0x0, "F", 0x0, "I", 0x0, "G"
	DCB	0x0, "_", 0x0, "S", 0x0, "T", 0x0, "A", 0x0, "T", 0x0, "U"
	DCB	0x0, "S", 0x0, "_", 0x0, "S", 0x0, "C", 0x0, "H", 0x0, "E"
	DCB	0x0, "D", 0x0, "U", 0x0, "L", 0x0, "I", 0x0, "N", 0x0, "G"
	DCB	0x0, "_", 0x0, "S", 0x0, "E", 0x0, "T", 0x0, "_", 0x0, "C"
	DCB	0x0, "O", 0x0, "N", 0x0, "F", 0x0, "I", 0x0, "G", 0x0, 0x0
	DCB	0x0					; `string'

  00000			 AREA	 |.rdata|, DATA, READONLY
|??_C@_1GA@NDHJOKMM@?$AAD?$AAE?$AAV?$AAI?$AAC?$AAE?$AA_?$AAC?$AAO?$AAN?$AAF?$AAI?$AAG?$AA_?$AAS?$AAT?$AAA?$AAT?$AAU?$AAS?$AA_?$AAD?$AAE?$AAT?$AAE?$AAR?$AAM?$AAI?$AAN?$AAE?$AA_?$AAC@| DCB "D"
	DCB	0x0, "E", 0x0, "V", 0x0, "I", 0x0, "C", 0x0, "E", 0x0, "_"
	DCB	0x0, "C", 0x0, "O", 0x0, "N", 0x0, "F", 0x0, "I", 0x0, "G"
	DCB	0x0, "_", 0x0, "S", 0x0, "T", 0x0, "A", 0x0, "T", 0x0, "U"
	DCB	0x0, "S", 0x0, "_", 0x0, "D", 0x0, "E", 0x0, "T", 0x0, "E"
	DCB	0x0, "R", 0x0, "M", 0x0, "I", 0x0, "N", 0x0, "E", 0x0, "_"
	DCB	0x0, "C", 0x0, "O", 0x0, "N", 0x0, "F", 0x0, "I", 0x0, "G"
	DCB	0x0, "_", 0x0, "T", 0x0, "O", 0x0, "_", 0x0, "C", 0x0, "H"
	DCB	0x0, "O", 0x0, "O", 0x0, "S", 0x0, "E", 0x0, 0x0, 0x0 ; `string'

  00000			 AREA	 |.rdata|, DATA, READONLY
|??_C@_1GM@JADKDKDC@?$AAD?$AAE?$AAV?$AAI?$AAC?$AAE?$AA_?$AAC?$AAO?$AAN?$AAF?$AAI?$AAG?$AA_?$AAS?$AAT?$AAA?$AAT?$AAU?$AAS?$AA_?$AAS?$AAC?$AAH?$AAE?$AAD?$AAU?$AAL?$AAI?$AAN?$AAG?$AA_@| DCB "D"
	DCB	0x0, "E", 0x0, "V", 0x0, "I", 0x0, "C", 0x0, "E", 0x0, "_"
	DCB	0x0, "C", 0x0, "O", 0x0, "N", 0x0, "F", 0x0, "I", 0x0, "G"
	DCB	0x0, "_", 0x0, "S", 0x0, "T", 0x0, "A", 0x0, "T", 0x0, "U"
	DCB	0x0, "S", 0x0, "_", 0x0, "S", 0x0, "C", 0x0, "H", 0x0, "E"
	DCB	0x0, "D", 0x0, "U", 0x0, "L", 0x0, "I", 0x0, "N", 0x0, "G"
	DCB	0x0, "_", 0x0, "G", 0x0, "E", 0x0, "T", 0x0, "_", 0x0, "C"
	DCB	0x0, "O", 0x0, "N", 0x0, "F", 0x0, "I", 0x0, "G", 0x0, "_"
	DCB	0x0, "D", 0x0, "E", 0x0, "S", 0x0, "C", 0x0, "R", 0x0, "I"
	DCB	0x0, "P", 0x0, "T", 0x0, "O", 0x0, "R", 0x0, 0x0, 0x0 ; `string'

  00000			 AREA	 |.rdata|, DATA, READONLY
|??_C@_1HM@NPLCKJLH@?$AAD?$AAE?$AAV?$AAI?$AAC?$AAE?$AA_?$AAC?$AAO?$AAN?$AAF?$AAI?$AAG?$AA_?$AAS?$AAT?$AAA?$AAT?$AAU?$AAS?$AA_?$AAS?$AAC?$AAH?$AAE?$AAD?$AAU?$AAL?$AAI?$AAN?$AAG?$AA_@| DCB "D"
	DCB	0x0, "E", 0x0, "V", 0x0, "I", 0x0, "C", 0x0, "E", 0x0, "_"
	DCB	0x0, "C", 0x0, "O", 0x0, "N", 0x0, "F", 0x0, "I", 0x0, "G"
	DCB	0x0, "_", 0x0, "S", 0x0, "T", 0x0, "A", 0x0, "T", 0x0, "U"
	DCB	0x0, "S", 0x0, "_", 0x0, "S", 0x0, "C", 0x0, "H", 0x0, "E"
	DCB	0x0, "D", 0x0, "U", 0x0, "L", 0x0, "I", 0x0, "N", 0x0, "G"
	DCB	0x0, "_", 0x0, "G", 0x0, "E", 0x0, "T", 0x0, "_", 0x0, "I"
	DCB	0x0, "N", 0x0, "I", 0x0, "T", 0x0, "I", 0x0, "A", 0x0, "L"
	DCB	0x0, "_", 0x0, "C", 0x0, "O", 0x0, "N", 0x0, "F", 0x0, "I"
	DCB	0x0, "G", 0x0, "_", 0x0, "D", 0x0, "E", 0x0, "S", 0x0, "C"
	DCB	0x0, "R", 0x0, "I", 0x0, "P", 0x0, "T", 0x0, "O", 0x0, "R"
	DCB	0x0, 0x0, 0x0				; `string'

  00000			 AREA	 |.rdata|, DATA, READONLY
|??_C@_1HE@MEMGEMJJ@?$AAD?$AAE?$AAV?$AAI?$AAC?$AAE?$AA_?$AAC?$AAO?$AAN?$AAF?$AAI?$AAG?$AA_?$AAS?$AAT?$AAA?$AAT?$AAU?$AAS?$AA_?$AAS?$AAE?$AAT?$AAU?$AAP?$AA_?$AAC?$AAO?$AAN?$AAF?$AAI@| DCB "D"
	DCB	0x0, "E", 0x0, "V", 0x0, "I", 0x0, "C", 0x0, "E", 0x0, "_"
	DCB	0x0, "C", 0x0, "O", 0x0, "N", 0x0, "F", 0x0, "I", 0x0, "G"
	DCB	0x0, "_", 0x0, "S", 0x0, "T", 0x0, "A", 0x0, "T", 0x0, "U"
	DCB	0x0, "S", 0x0, "_", 0x0, "S", 0x0, "E", 0x0, "T", 0x0, "U"
	DCB	0x0, "P", 0x0, "_", 0x0, "C", 0x0, "O", 0x0, "N", 0x0, "F"
	DCB	0x0, "I", 0x0, "G", 0x0, "U", 0x0, "R", 0x0, "A", 0x0, "T"
	DCB	0x0, "I", 0x0, "O", 0x0, "N", 0x0, "_", 0x0, "D", 0x0, "E"
	DCB	0x0, "S", 0x0, "C", 0x0, "R", 0x0, "I", 0x0, "P", 0x0, "T"
	DCB	0x0, "O", 0x0, "R", 0x0, "_", 0x0, "A", 0x0, "R", 0x0, "R"
	DCB	0x0, "A", 0x0, "Y", 0x0, 0x0, 0x0	; `string'

  00000			 AREA	 |.rdata|, DATA, READONLY
|??_C@_1GM@BCHKIAPP@?$AAD?$AAE?$AAV?$AAI?$AAC?$AAE?$AA_?$AAC?$AAO?$AAN?$AAF?$AAI?$AAG?$AA_?$AAS?$AAT?$AAA?$AAT?$AAU?$AAS?$AA_?$AAS?$AAC?$AAH?$AAE?$AAD?$AAU?$AAL?$AAI?$AAN?$AAG?$AA_@| DCB "D"
	DCB	0x0, "E", 0x0, "V", 0x0, "I", 0x0, "C", 0x0, "E", 0x0, "_"
	DCB	0x0, "C", 0x0, "O", 0x0, "N", 0x0, "F", 0x0, "I", 0x0, "G"
	DCB	0x0, "_", 0x0, "S", 0x0, "T", 0x0, "A", 0x0, "T", 0x0, "U"
	DCB	0x0, "S", 0x0, "_", 0x0, "S", 0x0, "C", 0x0, "H", 0x0, "E"
	DCB	0x0, "D", 0x0, "U", 0x0, "L", 0x0, "I", 0x0, "N", 0x0, "G"
	DCB	0x0, "_", 0x0, "G", 0x0, "E", 0x0, "T", 0x0, "_", 0x0, "D"
	DCB	0x0, "E", 0x0, "V", 0x0, "I", 0x0, "C", 0x0, "E", 0x0, "_"
	DCB	0x0, "D", 0x0, "E", 0x0, "S", 0x0, "C", 0x0, "R", 0x0, "I"
	DCB	0x0, "P", 0x0, "T", 0x0, "O", 0x0, "R", 0x0, 0x0, 0x0 ; `string'

  00000			 AREA	 |.rdata|, DATA, READONLY
|??_C@_1HM@FNPCBDHK@?$AAD?$AAE?$AAV?$AAI?$AAC?$AAE?$AA_?$AAC?$AAO?$AAN?$AAF?$AAI?$AAG?$AA_?$AAS?$AAT?$AAA?$AAT?$AAU?$AAS?$AA_?$AAS?$AAC?$AAH?$AAE?$AAD?$AAU?$AAL?$AAI?$AAN?$AAG?$AA_@| DCB "D"
	DCB	0x0, "E", 0x0, "V", 0x0, "I", 0x0, "C", 0x0, "E", 0x0, "_"
	DCB	0x0, "C", 0x0, "O", 0x0, "N", 0x0, "F", 0x0, "I", 0x0, "G"
	DCB	0x0, "_", 0x0, "S", 0x0, "T", 0x0, "A", 0x0, "T", 0x0, "U"
	DCB	0x0, "S", 0x0, "_", 0x0, "S", 0x0, "C", 0x0, "H", 0x0, "E"
	DCB	0x0, "D", 0x0, "U", 0x0, "L", 0x0, "I", 0x0, "N", 0x0, "G"
	DCB	0x0, "_", 0x0, "G", 0x0, "E", 0x0, "T", 0x0, "_", 0x0, "I"
	DCB	0x0, "N", 0x0, "I", 0x0, "T", 0x0, "I", 0x0, "A", 0x0, "L"
	DCB	0x0, "_", 0x0, "D", 0x0, "E", 0x0, "V", 0x0, "I", 0x0, "C"
	DCB	0x0, "E", 0x0, "_", 0x0, "D", 0x0, "E", 0x0, "S", 0x0, "C"
	DCB	0x0, "R", 0x0, "I", 0x0, "P", 0x0, "T", 0x0, "O", 0x0, "R"
	DCB	0x0, 0x0, 0x0				; `string'

  00000			 AREA	 |.rdata|, DATA, READONLY
|??_C@_1EI@BBOOKHNN@?$AAD?$AAE?$AAV?$AAI?$AAC?$AAE?$AA_?$AAC?$AAO?$AAN?$AAF?$AAI?$AAG?$AA_?$AAS?$AAT?$AAA?$AAT?$AAU?$AAS?$AA_?$AAL?$AAE?$AAA?$AAV?$AAE?$AA_?$AAA?$AAD?$AAD?$AAR?$AAE@| DCB "D"
	DCB	0x0, "E", 0x0, "V", 0x0, "I", 0x0, "C", 0x0, "E", 0x0, "_"
	DCB	0x0, "C", 0x0, "O", 0x0, "N", 0x0, "F", 0x0, "I", 0x0, "G"
	DCB	0x0, "_", 0x0, "S", 0x0, "T", 0x0, "A", 0x0, "T", 0x0, "U"
	DCB	0x0, "S", 0x0, "_", 0x0, "L", 0x0, "E", 0x0, "A", 0x0, "V"
	DCB	0x0, "E", 0x0, "_", 0x0, "A", 0x0, "D", 0x0, "D", 0x0, "R"
	DCB	0x0, "E", 0x0, "S", 0x0, "S", 0x0, "0", 0x0, 0x0, 0x0 ; `string'

  00000			 AREA	 |.rdata|, DATA, READONLY
|??_C@_1FI@LGLHPFAK@?$AAD?$AAE?$AAV?$AAI?$AAC?$AAE?$AA_?$AAC?$AAO?$AAN?$AAF?$AAI?$AAG?$AA_?$AAS?$AAT?$AAA?$AAT?$AAU?$AAS?$AA_?$AAS?$AAC?$AAH?$AAE?$AAD?$AAU?$AAL?$AAI?$AAN?$AAG?$AA_@| DCB "D"
	DCB	0x0, "E", 0x0, "V", 0x0, "I", 0x0, "C", 0x0, "E", 0x0, "_"
	DCB	0x0, "C", 0x0, "O", 0x0, "N", 0x0, "F", 0x0, "I", 0x0, "G"
	DCB	0x0, "_", 0x0, "S", 0x0, "T", 0x0, "A", 0x0, "T", 0x0, "U"
	DCB	0x0, "S", 0x0, "_", 0x0, "S", 0x0, "C", 0x0, "H", 0x0, "E"
	DCB	0x0, "D", 0x0, "U", 0x0, "L", 0x0, "I", 0x0, "N", 0x0, "G"
	DCB	0x0, "_", 0x0, "S", 0x0, "E", 0x0, "T", 0x0, "_", 0x0, "A"
	DCB	0x0, "D", 0x0, "D", 0x0, "R", 0x0, "E", 0x0, "S", 0x0, "S"
	DCB	0x0, 0x0, 0x0				; `string'

  00000			 AREA	 |.rdata|, DATA, READONLY
|??_C@_1HG@BLNLBKIO@?$AAD?$AAE?$AAV?$AAI?$AAC?$AAE?$AA_?$AAC?$AAO?$AAN?$AAF?$AAI?$AAG?$AA_?$AAS?$AAT?$AAA?$AAT?$AAU?$AAS?$AA_?$AAS?$AAC?$AAH?$AAE?$AAD?$AAU?$AAL?$AAI?$AAN?$AAG?$AA_@| DCB "D"
	DCB	0x0, "E", 0x0, "V", 0x0, "I", 0x0, "C", 0x0, "E", 0x0, "_"
	DCB	0x0, "C", 0x0, "O", 0x0, "N", 0x0, "F", 0x0, "I", 0x0, "G"
	DCB	0x0, "_", 0x0, "S", 0x0, "T", 0x0, "A", 0x0, "T", 0x0, "U"
	DCB	0x0, "S", 0x0, "_", 0x0, "S", 0x0, "C", 0x0, "H", 0x0, "E"
	DCB	0x0, "D", 0x0, "U", 0x0, "L", 0x0, "I", 0x0, "N", 0x0, "G"
	DCB	0x0, "_", 0x0, "G", 0x0, "E", 0x0, "T", 0x0, "_", 0x0, "D"
	DCB	0x0, "E", 0x0, "V", 0x0, "I", 0x0, "C", 0x0, "E", 0x0, "_"
	DCB	0x0, "D", 0x0, "E", 0x0, "S", 0x0, "C", 0x0, "R", 0x0, "I"
	DCB	0x0, "P", 0x0, "T", 0x0, "O", 0x0, "R", 0x0, "_", 0x0, "T"
	DCB	0x0, "E", 0x0, "S", 0x0, "T", 0x0, 0x0, 0x0 ; `string'

  00000			 AREA	 |.rdata|, DATA, READONLY
|??_C@_1FG@NMCKCJLL@?$AAD?$AAE?$AAV?$AAI?$AAC?$AAE?$AA_?$AAC?$AAO?$AAN?$AAF?$AAI?$AAG?$AA_?$AAS?$AAT?$AAA?$AAT?$AAU?$AAS?$AA_?$AAR?$AAE?$AAS?$AAE?$AAT?$AA_?$AAA?$AAN?$AAD?$AA_?$AAE@| DCB "D"
	DCB	0x0, "E", 0x0, "V", 0x0, "I", 0x0, "C", 0x0, "E", 0x0, "_"
	DCB	0x0, "C", 0x0, "O", 0x0, "N", 0x0, "F", 0x0, "I", 0x0, "G"
	DCB	0x0, "_", 0x0, "S", 0x0, "T", 0x0, "A", 0x0, "T", 0x0, "U"
	DCB	0x0, "S", 0x0, "_", 0x0, "R", 0x0, "E", 0x0, "S", 0x0, "E"
	DCB	0x0, "T", 0x0, "_", 0x0, "A", 0x0, "N", 0x0, "D", 0x0, "_"
	DCB	0x0, "E", 0x0, "N", 0x0, "A", 0x0, "B", 0x0, "L", 0x0, "E"
	DCB	0x0, "_", 0x0, "P", 0x0, "O", 0x0, "R", 0x0, "T", 0x0, 0x0
	DCB	0x0					; `string'

  00000			 AREA	 |.rdata|, DATA, READONLY
|??_C@_1EI@KNOIBOPH@?$AAD?$AAE?$AAV?$AAI?$AAC?$AAE?$AA_?$AAC?$AAO?$AAN?$AAF?$AAI?$AAG?$AA_?$AAS?$AAT?$AAA?$AAT?$AAU?$AAS?$AA_?$AAU?$AAS?$AAI?$AAN?$AAG?$AA_?$AAA?$AAD?$AAD?$AAR?$AAE@| DCB "D"
	DCB	0x0, "E", 0x0, "V", 0x0, "I", 0x0, "C", 0x0, "E", 0x0, "_"
	DCB	0x0, "C", 0x0, "O", 0x0, "N", 0x0, "F", 0x0, "I", 0x0, "G"
	DCB	0x0, "_", 0x0, "S", 0x0, "T", 0x0, "A", 0x0, "T", 0x0, "U"
	DCB	0x0, "S", 0x0, "_", 0x0, "U", 0x0, "S", 0x0, "I", 0x0, "N"
	DCB	0x0, "G", 0x0, "_", 0x0, "A", 0x0, "D", 0x0, "D", 0x0, "R"
	DCB	0x0, "E", 0x0, "S", 0x0, "S", 0x0, "0", 0x0, 0x0, 0x0 ; `string'

  00000			 AREA	 |.rdata|, DATA, READONLY
|??_C@_1FI@COMJHLEF@?$AAD?$AAE?$AAV?$AAI?$AAC?$AAE?$AA_?$AAC?$AAO?$AAN?$AAF?$AAI?$AAG?$AA_?$AAS?$AAT?$AAA?$AAT?$AAU?$AAS?$AA_?$AAO?$AAP?$AAE?$AAN?$AAI?$AAN?$AAG?$AA_?$AAE?$AAN?$AAD@| DCB "D"
	DCB	0x0, "E", 0x0, "V", 0x0, "I", 0x0, "C", 0x0, "E", 0x0, "_"
	DCB	0x0, "C", 0x0, "O", 0x0, "N", 0x0, "F", 0x0, "I", 0x0, "G"
	DCB	0x0, "_", 0x0, "S", 0x0, "T", 0x0, "A", 0x0, "T", 0x0, "U"
	DCB	0x0, "S", 0x0, "_", 0x0, "O", 0x0, "P", 0x0, "E", 0x0, "N"
	DCB	0x0, "I", 0x0, "N", 0x0, "G", 0x0, "_", 0x0, "E", 0x0, "N"
	DCB	0x0, "D", 0x0, "P", 0x0, "O", 0x0, "I", 0x0, "N", 0x0, "T"
	DCB	0x0, "0", 0x0, "_", 0x0, "P", 0x0, "I", 0x0, "P", 0x0, "E"
	DCB	0x0, 0x0, 0x0				; `string'
	EXPORT	|ResetEvent|
	IMPORT	|EventModify|
; File c:\wince600\public\common\sdk\inc\kfuncs.h

  00000			 AREA	 |.pdata|, PDATA
|$T37639| DCD	|$LN5@ResetEvent|
	DCD	0x40000501
; Function compile flags: /Ogspy

  00000			 AREA	 |.text|, CODE, ARM

  00000		 |ResetEvent| PROC

; 223  : _inline BOOL ResetEvent(HANDLE h) {

  00000		 |$LN5@ResetEvent|
  00000	e52de004	 str         lr, [sp, #-4]!
  00004		 |$M37636|

; 224  : 	return EventModify(h,EVENT_RESET);

  00004	e3a01002	 mov         r1, #2
  00008	eb000000	 bl          EventModify

; 225  : }

  0000c	e49de004	 ldr         lr, [sp], #4
  00010	e12fff1e	 bx          lr
  00014		 |$M37637|

			 ENDP  ; |ResetEvent|

	EXPORT	|SetEvent|

  00000			 AREA	 |.pdata|, PDATA
|$T37649| DCD	|$LN5@SetEvent|
	DCD	0x40000501
; Function compile flags: /Ogspy

  00000			 AREA	 |.text|, CODE, ARM

  00000		 |SetEvent| PROC

; 235  : _inline BOOL SetEvent(HANDLE h) {

  00000		 |$LN5@SetEvent|
  00000	e52de004	 str         lr, [sp, #-4]!
  00004		 |$M37646|

; 236  : 	return EventModify(h,EVENT_SET);

  00004	e3a01003	 mov         r1, #3
  00008	eb000000	 bl          EventModify

; 237  : }

  0000c	e49de004	 ldr         lr, [sp], #4
  00010	e12fff1e	 bx          lr
  00014		 |$M37647|

			 ENDP  ; |SetEvent|

	EXPORT	|GetCurrentThread|

  00000			 AREA	 |.pdata|, PDATA
|$T37658| DCD	|$LN5@GetCurrent|
	DCD	0x40000200
; Function compile flags: /Ogspy

  00000			 AREA	 |.text|, CODE, ARM

  00000		 |GetCurrentThread| PROC

; 351  : _inline HANDLE GetCurrentThread(void) {

  00000		 |$LN5@GetCurrent|
  00000		 |$M37655|

; 352  : 	return ((HANDLE)(SH_CURTHREAD+SYS_HANDLE_BASE));

  00000	e3a00041	 mov         r0, #0x41

; 353  : }

  00004	e12fff1e	 bx          lr
  00008		 |$M37656|

			 ENDP  ; |GetCurrentThread|

	EXPORT	|?UnlockCountdown@Countdown@@QAAXXZ|	; Countdown::UnlockCountdown
	IMPORT	|LeaveCriticalSection|
	IMPORT	|EnterCriticalSection|
; File c:\wince600\platform\common\src\soc\common_ti_v1\omap3530\musb\musbhcd\usb2com\sync.hpp

  00000			 AREA	 |.pdata|, PDATA
|$T37666| DCD	|$LN5@UnlockCoun|
	DCD	0x40000901
; Function compile flags: /Ogspy

  00000			 AREA	 |.text|, CODE, ARM

  00000		 |?UnlockCountdown@Countdown@@QAAXXZ| PROC ; Countdown::UnlockCountdown

; 60   :     void UnlockCountdown () {

  00000		 |$LN5@UnlockCoun|
  00000	e92d4010	 stmdb       sp!, {r4, lr}
  00004		 |$M37663|
  00004	e1a04000	 mov         r4, r0

; 61   :         EnterCriticalSection(&cs);

  00008	eb000000	 bl          EnterCriticalSection

; 62   :         lock = FALSE;

  0000c	e3a03000	 mov         r3, #0

; 63   :         LeaveCriticalSection(&cs);

  00010	e1a00004	 mov         r0, r4
  00014	e5843018	 str         r3, [r4, #0x18]
  00018	eb000000	 bl          LeaveCriticalSection

; 64   :     }

  0001c	e8bd4010	 ldmia       sp!, {r4, lr}
  00020	e12fff1e	 bx          lr
  00024		 |$M37664|

			 ENDP  ; |?UnlockCountdown@Countdown@@QAAXXZ|, Countdown::UnlockCountdown

	EXPORT	|?Addr0LockEntry@CDeviceGlobal@@QAA?AW4e_CritSec_Status@@K@Z| ; CDeviceGlobal::Addr0LockEntry
	IMPORT	|?EnterCritSec_Ex@CritSec_Ex@@QAA?AW4e_CritSec_Status@@K@Z| ; CritSec_Ex::EnterCritSec_Ex
; File c:\wince600\platform\common\src\soc\common_ti_v1\omap3530\musb\musbhcd\usb2com\cdevice.hpp

  00000			 AREA	 |.pdata|, PDATA
|$T37677| DCD	|$LN5@Addr0LockE|
	DCD	0x40000501
; Function compile flags: /Ogspy

  00000			 AREA	 |.text|, CODE, ARM

  00000		 |?Addr0LockEntry@CDeviceGlobal@@QAA?AW4e_CritSec_Status@@K@Z| PROC ; CDeviceGlobal::Addr0LockEntry

; 58   :     CritSec_Status Addr0LockEntry(ULONG ulTimeout) { return m_csAddress0Lock.EnterCritSec_Ex(ulTimeout); };

  00000		 |$LN5@Addr0LockE|
  00000	e52de004	 str         lr, [sp, #-4]!
  00004		 |$M37674|
  00004	e280002c	 add         r0, r0, #0x2C
  00008	eb000000	 bl          |?EnterCritSec_Ex@CritSec_Ex@@QAA?AW4e_CritSec_Status@@K@Z|
  0000c	e49de004	 ldr         lr, [sp], #4
  00010	e12fff1e	 bx          lr
  00014		 |$M37675|

			 ENDP  ; |?Addr0LockEntry@CDeviceGlobal@@QAA?AW4e_CritSec_Status@@K@Z|, CDeviceGlobal::Addr0LockEntry

	EXPORT	|?Addr0LockPrepareDelete@CDeviceGlobal@@QAAXXZ| ; CDeviceGlobal::Addr0LockPrepareDelete
	IMPORT	|?PrepareDeleteCritSec_Ex@CritSec_Ex@@QAAXXZ| ; CritSec_Ex::PrepareDeleteCritSec_Ex

  00000			 AREA	 |.pdata|, PDATA
|$T37685| DCD	|$LN5@Addr0LockP|
	DCD	0x40000501
; Function compile flags: /Ogspy

  00000			 AREA	 |.text|, CODE, ARM

  00000		 |?Addr0LockPrepareDelete@CDeviceGlobal@@QAAXXZ| PROC ; CDeviceGlobal::Addr0LockPrepareDelete

; 59   :     void Addr0LockPrepareDelete() { m_csAddress0Lock.PrepareDeleteCritSec_Ex ();};

  00000		 |$LN5@Addr0LockP|
  00000	e52de004	 str         lr, [sp, #-4]!
  00004		 |$M37682|
  00004	e280002c	 add         r0, r0, #0x2C
  00008	eb000000	 bl          |?PrepareDeleteCritSec_Ex@CritSec_Ex@@QAAXXZ|
  0000c	e49de004	 ldr         lr, [sp], #4
  00010	e12fff1e	 bx          lr
  00014		 |$M37683|

			 ENDP  ; |?Addr0LockPrepareDelete@CDeviceGlobal@@QAAXXZ|, CDeviceGlobal::Addr0LockPrepareDelete

	EXPORT	|?Addr0LockLeave@CDeviceGlobal@@QAAXXZ|	; CDeviceGlobal::Addr0LockLeave
	IMPORT	|?LeaveCritSec_Ex@CritSec_Ex@@QAAXXZ|	; CritSec_Ex::LeaveCritSec_Ex

  00000			 AREA	 |.pdata|, PDATA
|$T37693| DCD	|$LN5@Addr0LockL|
	DCD	0x40000501
; Function compile flags: /Ogspy

  00000			 AREA	 |.text|, CODE, ARM

  00000		 |?Addr0LockLeave@CDeviceGlobal@@QAAXXZ| PROC ; CDeviceGlobal::Addr0LockLeave

; 60   :     void Addr0LockLeave() { m_csAddress0Lock.LeaveCritSec_Ex ();};

  00000		 |$LN5@Addr0LockL|
  00000	e52de004	 str         lr, [sp, #-4]!
  00004		 |$M37690|
  00004	e280002c	 add         r0, r0, #0x2C
  00008	eb000000	 bl          |?LeaveCritSec_Ex@CritSec_Ex@@QAAXXZ|
  0000c	e49de004	 ldr         lr, [sp], #4
  00010	e12fff1e	 bx          lr
  00014		 |$M37691|

			 ENDP  ; |?Addr0LockLeave@CDeviceGlobal@@QAAXXZ|, CDeviceGlobal::Addr0LockLeave

	EXPORT	|?ObjCountdownInc@CDeviceGlobal@@QAAHXZ| ; CDeviceGlobal::ObjCountdownInc
	IMPORT	|?IncrCountdown@Countdown@@QAAHXZ|	; Countdown::IncrCountdown

  00000			 AREA	 |.pdata|, PDATA
|$T37703| DCD	|$LN5@ObjCountdo|
	DCD	0x40000501
; Function compile flags: /Ogspy

  00000			 AREA	 |.text|, CODE, ARM

  00000		 |?ObjCountdownInc@CDeviceGlobal@@QAAHXZ| PROC ; CDeviceGlobal::ObjCountdownInc

; 62   :     BOOL ObjCountdownInc () {return  m_objCountdown.IncrCountdown (); };

  00000		 |$LN5@ObjCountdo|
  00000	e52de004	 str         lr, [sp, #-4]!
  00004		 |$M37700|
  00004	e2800054	 add         r0, r0, #0x54
  00008	eb000000	 bl          |?IncrCountdown@Countdown@@QAAHXZ|
  0000c	e49de004	 ldr         lr, [sp], #4
  00010	e12fff1e	 bx          lr
  00014		 |$M37701|

			 ENDP  ; |?ObjCountdownInc@CDeviceGlobal@@QAAHXZ|, CDeviceGlobal::ObjCountdownInc

	EXPORT	|?ObjCountdownDec@CDeviceGlobal@@QAAXXZ| ; CDeviceGlobal::ObjCountdownDec
	IMPORT	|?DecrCountdown@Countdown@@QAAXXZ|	; Countdown::DecrCountdown

  00000			 AREA	 |.pdata|, PDATA
|$T37711| DCD	|$LN5@ObjCountdo@2|
	DCD	0x40000501
; Function compile flags: /Ogspy

  00000			 AREA	 |.text|, CODE, ARM

  00000		 |?ObjCountdownDec@CDeviceGlobal@@QAAXXZ| PROC ; CDeviceGlobal::ObjCountdownDec

; 63   :     void ObjCountdownDec () { m_objCountdown.DecrCountdown ();};

  00000		 |$LN5@ObjCountdo@2|
  00000	e52de004	 str         lr, [sp, #-4]!
  00004		 |$M37708|
  00004	e2800054	 add         r0, r0, #0x54
  00008	eb000000	 bl          |?DecrCountdown@Countdown@@QAAXXZ|
  0000c	e49de004	 ldr         lr, [sp], #4
  00010	e12fff1e	 bx          lr
  00014		 |$M37709|

			 ENDP  ; |?ObjCountdownDec@CDeviceGlobal@@QAAXXZ|, CDeviceGlobal::ObjCountdownDec

	EXPORT	|?GetpUSBDSelectConfigurationProc@CDeviceGlobal@@QAAP6AHPBU_USB_DEVICE@@PAE@ZXZ| ; CDeviceGlobal::GetpUSBDSelectConfigurationProc

  00000			 AREA	 |.pdata|, PDATA
|$T37721| DCD	|$LN5@GetpUSBDSe|
	DCD	0x40000200
; Function compile flags: /Ogspy

  00000			 AREA	 |.text|, CODE, ARM

  00000		 |?GetpUSBDSelectConfigurationProc@CDeviceGlobal@@QAAP6AHPBU_USB_DEVICE@@PAE@ZXZ| PROC ; CDeviceGlobal::GetpUSBDSelectConfigurationProc

; 68   :     LPUSBD_SELECT_CONFIGURATION_PROC GetpUSBDSelectConfigurationProc() { return m_pUSBDSelectConfigurationProc; };

  00000		 |$LN5@GetpUSBDSe|
  00000		 |$M37718|
  00000	e5900078	 ldr         r0, [r0, #0x78]
  00004	e12fff1e	 bx          lr
  00008		 |$M37719|

			 ENDP  ; |?GetpUSBDSelectConfigurationProc@CDeviceGlobal@@QAAP6AHPBU_USB_DEVICE@@PAE@ZXZ|, CDeviceGlobal::GetpUSBDSelectConfigurationProc

	EXPORT	|?GetpUSBDSuspendedResumed@CDeviceGlobal@@QAAP6AHPAXH@ZXZ| ; CDeviceGlobal::GetpUSBDSuspendedResumed

  00000			 AREA	 |.pdata|, PDATA
|$T37731| DCD	|$LN5@GetpUSBDSu|
	DCD	0x40000200
; Function compile flags: /Ogspy

  00000			 AREA	 |.text|, CODE, ARM

  00000		 |?GetpUSBDSuspendedResumed@CDeviceGlobal@@QAAP6AHPAXH@ZXZ| PROC ; CDeviceGlobal::GetpUSBDSuspendedResumed

; 69   :     LPUSBD_SUSPEND_RESUME_PROC GetpUSBDSuspendedResumed() { return m_pUSBDSuspendResumed; };

  00000		 |$LN5@GetpUSBDSu|
  00000		 |$M37728|
  00000	e5900084	 ldr         r0, [r0, #0x84]
  00004	e12fff1e	 bx          lr
  00008		 |$M37729|

			 ENDP  ; |?GetpUSBDSuspendedResumed@CDeviceGlobal@@QAAP6AHPAXH@ZXZ|, CDeviceGlobal::GetpUSBDSuspendedResumed

	EXPORT	|?GetpUSBDAttachProc@CDeviceGlobal@@QAAP6AHPAXIIPBU_USB_DEVICE@@PAPAX@ZXZ| ; CDeviceGlobal::GetpUSBDAttachProc

  00000			 AREA	 |.pdata|, PDATA
|$T37741| DCD	|$LN5@GetpUSBDAt|
	DCD	0x40000200
; Function compile flags: /Ogspy

  00000			 AREA	 |.text|, CODE, ARM

  00000		 |?GetpUSBDAttachProc@CDeviceGlobal@@QAAP6AHPAXIIPBU_USB_DEVICE@@PAPAX@ZXZ| PROC ; CDeviceGlobal::GetpUSBDAttachProc

; 70   :     LPUSBD_ATTACH_PROC GetpUSBDAttachProc() { return m_pUSBDAttachProc; };

  00000		 |$LN5@GetpUSBDAt|
  00000		 |$M37738|
  00000	e590007c	 ldr         r0, [r0, #0x7C]
  00004	e12fff1e	 bx          lr
  00008		 |$M37739|

			 ENDP  ; |?GetpUSBDAttachProc@CDeviceGlobal@@QAAP6AHPAXIIPBU_USB_DEVICE@@PAPAX@ZXZ|, CDeviceGlobal::GetpUSBDAttachProc

	EXPORT	|?GetpUSBDDetachProc@CDeviceGlobal@@QAAP6AHPAX@ZXZ| ; CDeviceGlobal::GetpUSBDDetachProc

  00000			 AREA	 |.pdata|, PDATA
|$T37751| DCD	|$LN5@GetpUSBDDe|
	DCD	0x40000200
; Function compile flags: /Ogspy

  00000			 AREA	 |.text|, CODE, ARM

  00000		 |?GetpUSBDDetachProc@CDeviceGlobal@@QAAP6AHPAX@ZXZ| PROC ; CDeviceGlobal::GetpUSBDDetachProc

; 71   :     LPUSBD_DETACH_PROC GetpUSBDDetachProc() { return m_pUSBDDetachProc; };

  00000		 |$LN5@GetpUSBDDe|
  00000		 |$M37748|
  00000	e5900080	 ldr         r0, [r0, #0x80]
  00004	e12fff1e	 bx          lr
  00008		 |$M37749|

			 ENDP  ; |?GetpUSBDDetachProc@CDeviceGlobal@@QAAP6AHPAX@ZXZ|, CDeviceGlobal::GetpUSBDDetachProc

	EXPORT	|?GetpHcdContext@CDeviceGlobal@@QAAPAXXZ| ; CDeviceGlobal::GetpHcdContext

  00000			 AREA	 |.pdata|, PDATA
|$T37761| DCD	|$LN5@GetpHcdCon|
	DCD	0x40000200
; Function compile flags: /Ogspy

  00000			 AREA	 |.text|, CODE, ARM

  00000		 |?GetpHcdContext@CDeviceGlobal@@QAAPAXXZ| PROC ; CDeviceGlobal::GetpHcdContext

; 72   :     LPVOID             GetpHcdContext() { return m_pvHcdContext ;};

  00000		 |$LN5@GetpHcdCon|
  00000		 |$M37758|
  00000	e5900088	 ldr         r0, [r0, #0x88]
  00004	e12fff1e	 bx          lr
  00008		 |$M37759|

			 ENDP  ; |?GetpHcdContext@CDeviceGlobal@@QAAPAXXZ|, CDeviceGlobal::GetpHcdContext

	EXPORT	|?GetDeviceAddress@CDevice@@QAAEXZ|	; CDevice::GetDeviceAddress

  00000			 AREA	 |.pdata|, PDATA
|$T37771| DCD	|$LN5@GetDeviceA|
	DCD	0x40000200
; Function compile flags: /Ogspy

  00000			 AREA	 |.text|, CODE, ARM

  00000		 |?GetDeviceAddress@CDevice@@QAAEXZ| PROC ; CDevice::GetDeviceAddress

; 250  :     UCHAR GetDeviceAddress() { return m_address; };

  00000		 |$LN5@GetDeviceA|
  00000		 |$M37768|
  00000	e5d00020	 ldrb        r0, [r0, #0x20]
  00004	e12fff1e	 bx          lr
  00008		 |$M37769|

			 ENDP  ; |?GetDeviceAddress@CDevice@@QAAEXZ|, CDevice::GetDeviceAddress

	EXPORT	|??0CDeviceGlobal@@QAA@XZ|		; CDeviceGlobal::CDeviceGlobal
	EXPORT	|??_7CDeviceGlobal@@6B@| [ DATA ]	; CDeviceGlobal::`vftable'
	IMPORT	|InitializeCriticalSection|
	IMPORT	|??0Countdown@@QAA@K@Z|			; Countdown::Countdown
	IMPORT	|??0CritSec_Ex@@QAA@XZ|			; CritSec_Ex::CritSec_Ex
	IMPORT	|_purecall|
; File c:\wince600\platform\common\src\soc\common_ti_v1\omap3530\musb\musbhcd\usb2com\cdevice.cpp

  00000			 AREA	 |.pdata|, PDATA
|$T37781| DCD	|$LN5@CDeviceGlo|
	DCD	0x40001901

  00000			 AREA	 |.rdata|, DATA, READONLY
|??_7CDeviceGlobal@@6B@| DCD |_purecall|		; CDeviceGlobal::`vftable'
	DCD	|_purecall|
; Function compile flags: /Ogspy

  00000			 AREA	 |.text|, CODE, ARM

  00000		 |??0CDeviceGlobal@@QAA@XZ| PROC	; CDeviceGlobal::CDeviceGlobal

; 87   : {

  00000		 |$LN5@CDeviceGlo|
  00000	e92d4010	 stmdb       sp!, {r4, lr}
  00004		 |$M37778|
  00004	e1a04000	 mov         r4, r0
  00008	e59f3050	 ldr         r3, [pc, #0x50]
  0000c	e480302c	 str         r3, [r0], #0x2C
  00010	eb000000	 bl          |??0CritSec_Ex@@QAA@XZ|
  00014	e3a01000	 mov         r1, #0
  00018	e2840054	 add         r0, r4, #0x54
  0001c	eb000000	 bl          |??0Countdown@@QAA@K@Z|

; 88   : 
; 89   :     m_dwFreeAddressArray[0]=0x00000001;

  00020	e3a03001	 mov         r3, #1
  00024	e584301c	 str         r3, [r4, #0x1C]

; 90   :     m_dwFreeAddressArray[1] = m_dwFreeAddressArray[2] = m_dwFreeAddressArray[3] = 0x00000000;

  00028	e3a03000	 mov         r3, #0

; 91   :     
; 92   :     m_hUSBDInstance = NULL;
; 93   :     m_pUSBDAttachProc = NULL;
; 94   :     m_pUSBDDetachProc = NULL;
; 95   :     m_pvHcdContext = NULL;
; 96   :     m_pUSBDSelectConfigurationProc = NULL;
; 97   : #ifdef DEBUG
; 98   :     g_fAlreadyCalled = FALSE;
; 99   : #endif // DEBUG
; 100  :     //InitCritSec_Ex( &m_csAddress0Lock );
; 101  :     InitializeCriticalSection( &m_csFreeAddressArrayLock );

  0002c	e2840008	 add         r0, r4, #8
  00030	e5843028	 str         r3, [r4, #0x28]
  00034	e5843024	 str         r3, [r4, #0x24]
  00038	e5843020	 str         r3, [r4, #0x20]
  0003c	e5843074	 str         r3, [r4, #0x74]
  00040	e584307c	 str         r3, [r4, #0x7C]
  00044	e5843080	 str         r3, [r4, #0x80]
  00048	e5843088	 str         r3, [r4, #0x88]
  0004c	e5843078	 str         r3, [r4, #0x78]
  00050	eb000000	 bl          InitializeCriticalSection

; 102  : };

  00054	e1a00004	 mov         r0, r4
  00058	e8bd4010	 ldmia       sp!, {r4, lr}
  0005c	e12fff1e	 bx          lr
  00060		 |$LN6@CDeviceGlo|
  00060		 |$LN7@CDeviceGlo|
  00060	00000000	 DCD         |??_7CDeviceGlobal@@6B@|
  00064		 |$M37779|

			 ENDP  ; |??0CDeviceGlobal@@QAA@XZ|, CDeviceGlobal::CDeviceGlobal

	EXPORT	|?Initialize@CDeviceGlobal@@QAAHPAX@Z|	; CDeviceGlobal::Initialize
	EXPORT	|??_C@_1BE@NANPENDH@?$AAH?$AAc?$AAd?$AAA?$AAt?$AAt?$AAa?$AAc?$AAh?$AA?$AA@| [ DATA ] ; `string'
	EXPORT	|??_C@_1CE@MBINLHH@?$AAH?$AAc?$AAd?$AAD?$AAe?$AAv?$AAi?$AAc?$AAe?$AAA?$AAt?$AAt?$AAa?$AAc?$AAh?$AAe?$AAd?$AA?$AA@| [ DATA ] ; `string'
	EXPORT	|??_C@_1CE@KAKNBFJP@?$AAH?$AAc?$AAd?$AAD?$AAe?$AAv?$AAi?$AAc?$AAe?$AAD?$AAe?$AAt?$AAa?$AAc?$AAh?$AAe?$AAd?$AA?$AA@| [ DATA ] ; `string'
	EXPORT	|??_C@_1CO@MCCAIHAO@?$AAH?$AAc?$AAd?$AAS?$AAe?$AAl?$AAe?$AAc?$AAt?$AAC?$AAo?$AAn?$AAf?$AAi?$AAg?$AAu?$AAr?$AAa?$AAt?$AAi?$AAo?$AAn?$AA?$AA@| [ DATA ] ; `string'
	EXPORT	|??_C@_1DC@HKGGOMPG@?$AAH?$AAc?$AAd?$AAD?$AAe?$AAv?$AAi?$AAc?$AAe?$AAS?$AAu?$AAs?$AAp?$AAe?$AAn?$AAd?$AAe?$AAR?$AAe?$AAs?$AAu?$AAm?$AAe?$AAd?$AA?$AA@| [ DATA ] ; `string'
	EXPORT	|??_C@_1BC@MPAIGMIO@?$AAU?$AAS?$AAB?$AAD?$AA?4?$AAD?$AAL?$AAL?$AA?$AA@| [ DATA ] ; `string'
	IMPORT	|GetProcAddressW|
	IMPORT	|LoadDriver|
	IMPORT	|?Initialize@CritSec_Ex@@QAAXXZ|	; CritSec_Ex::Initialize
	IMPORT	|?gc_HcdFuncs@@3U_HCD_FUNCS@@A|		; gc_HcdFuncs
; File c:\wince600\platform\common\src\soc\common_ti_v1\omap3530\musb\musbhcd\usb2com\sync.hpp

  00000			 AREA	 |.pdata|, PDATA
|$T37800| DCD	|$LN10@Initialize|
	DCD	0x40004101

  00000			 AREA	 |.rdata|, DATA, READONLY
|??_C@_1BE@NANPENDH@?$AAH?$AAc?$AAd?$AAA?$AAt?$AAt?$AAa?$AAc?$AAh?$AA?$AA@| DCB "H"
	DCB	0x0, "c", 0x0, "d", 0x0, "A", 0x0, "t", 0x0, "t", 0x0, "a"
	DCB	0x0, "c", 0x0, "h", 0x0, 0x0, 0x0	; `string'

  00000			 AREA	 |.rdata|, DATA, READONLY
|??_C@_1CE@MBINLHH@?$AAH?$AAc?$AAd?$AAD?$AAe?$AAv?$AAi?$AAc?$AAe?$AAA?$AAt?$AAt?$AAa?$AAc?$AAh?$AAe?$AAd?$AA?$AA@| DCB "H"
	DCB	0x0, "c", 0x0, "d", 0x0, "D", 0x0, "e", 0x0, "v", 0x0, "i"
	DCB	0x0, "c", 0x0, "e", 0x0, "A", 0x0, "t", 0x0, "t", 0x0, "a"
	DCB	0x0, "c", 0x0, "h", 0x0, "e", 0x0, "d", 0x0, 0x0, 0x0 ; `string'

  00000			 AREA	 |.rdata|, DATA, READONLY
|??_C@_1CE@KAKNBFJP@?$AAH?$AAc?$AAd?$AAD?$AAe?$AAv?$AAi?$AAc?$AAe?$AAD?$AAe?$AAt?$AAa?$AAc?$AAh?$AAe?$AAd?$AA?$AA@| DCB "H"
	DCB	0x0, "c", 0x0, "d", 0x0, "D", 0x0, "e", 0x0, "v", 0x0, "i"
	DCB	0x0, "c", 0x0, "e", 0x0, "D", 0x0, "e", 0x0, "t", 0x0, "a"
	DCB	0x0, "c", 0x0, "h", 0x0, "e", 0x0, "d", 0x0, 0x0, 0x0 ; `string'

  00000			 AREA	 |.rdata|, DATA, READONLY
|??_C@_1CO@MCCAIHAO@?$AAH?$AAc?$AAd?$AAS?$AAe?$AAl?$AAe?$AAc?$AAt?$AAC?$AAo?$AAn?$AAf?$AAi?$AAg?$AAu?$AAr?$AAa?$AAt?$AAi?$AAo?$AAn?$AA?$AA@| DCB "H"
	DCB	0x0, "c", 0x0, "d", 0x0, "S", 0x0, "e", 0x0, "l", 0x0, "e"
	DCB	0x0, "c", 0x0, "t", 0x0, "C", 0x0, "o", 0x0, "n", 0x0, "f"
	DCB	0x0, "i", 0x0, "g", 0x0, "u", 0x0, "r", 0x0, "a", 0x0, "t"
	DCB	0x0, "i", 0x0, "o", 0x0, "n", 0x0, 0x0, 0x0 ; `string'

  00000			 AREA	 |.rdata|, DATA, READONLY
|??_C@_1DC@HKGGOMPG@?$AAH?$AAc?$AAd?$AAD?$AAe?$AAv?$AAi?$AAc?$AAe?$AAS?$AAu?$AAs?$AAp?$AAe?$AAn?$AAd?$AAe?$AAR?$AAe?$AAs?$AAu?$AAm?$AAe?$AAd?$AA?$AA@| DCB "H"
	DCB	0x0, "c", 0x0, "d", 0x0, "D", 0x0, "e", 0x0, "v", 0x0, "i"
	DCB	0x0, "c", 0x0, "e", 0x0, "S", 0x0, "u", 0x0, "s", 0x0, "p"
	DCB	0x0, "e", 0x0, "n", 0x0, "d", 0x0, "e", 0x0, "R", 0x0, "e"
	DCB	0x0, "s", 0x0, "u", 0x0, "m", 0x0, "e", 0x0, "d", 0x0, 0x0
	DCB	0x0					; `string'

  00000			 AREA	 |.rdata|, DATA, READONLY
|??_C@_1BC@MPAIGMIO@?$AAU?$AAS?$AAB?$AAD?$AA?4?$AAD?$AAL?$AAL?$AA?$AA@| DCB "U"
	DCB	0x0, "S", 0x0, "B", 0x0, "D", 0x0, ".", 0x0, "D", 0x0, "L"
	DCB	0x0, "L", 0x0, 0x0, 0x0			; `string'
; Function compile flags: /Ogspy
; File c:\wince600\platform\common\src\soc\common_ti_v1\omap3530\musb\musbhcd\usb2com\cdevice.cpp

  00000			 AREA	 |.text|, CODE, ARM

  00000		 |?Initialize@CDeviceGlobal@@QAAHPAX@Z| PROC ; CDeviceGlobal::Initialize

; 139  : {

  00000		 |$LN10@Initialize|
  00000	e92d4030	 stmdb       sp!, {r4, r5, lr}
  00004		 |$M37797|
  00004	e1a04000	 mov         r4, r0

; 140  :     DEBUGMSG( ZONE_INIT, (TEXT("%s: +CDeviceGlobal::Initialize\n"),GetControllerName()));
; 141  :     m_pHcd=pHcd;
; 142  : #ifdef DEBUG
; 143  :     DEBUGCHK( !g_fAlreadyCalled );
; 144  :     g_fAlreadyCalled = TRUE;
; 145  : #endif // DEBUG
; 146  : 
; 147  :     DEBUGCHK( DWORD(8 * sizeof( m_dwFreeAddressArray )) == DWORD(USB_MAX_ADDRESS + 1) &&
; 148  :               8 * sizeof( m_dwFreeAddressArray[0] ) == 32 &&
; 149  :               m_dwFreeAddressArray[ 0 ] == 0x00000001 &&
; 150  :               m_dwFreeAddressArray[ 1 ] == 0x00000000 &&
; 151  :               m_dwFreeAddressArray[ 2 ] == 0x00000000 &&
; 152  :               m_dwFreeAddressArray[ 3 ] == 0x00000000 );
; 153  : 
; 154  :     m_csAddress0Lock.Initialize();

  00008	e284002c	 add         r0, r4, #0x2C
  0000c	e5841004	 str         r1, [r4, #4]
  00010	eb000000	 bl          |?Initialize@CritSec_Ex@@QAAXXZ|

; 155  :     m_objCountdown.UnlockCountdown ();

  00014	e2840054	 add         r0, r4, #0x54
  00018	eb000000	 bl          EnterCriticalSection
  0001c	e3a03000	 mov         r3, #0
  00020	e2840054	 add         r0, r4, #0x54
  00024	e584306c	 str         r3, [r4, #0x6C]
  00028	eb000000	 bl          LeaveCriticalSection

; 156  :     // establish links to USBD.dll
; 157  :     {
; 158  :         // this procedure is called to establish a link to USBD
; 159  :         LPUSBD_HCD_ATTACH_PROC  lpHcdAttachProc = NULL;
; 160  :         // this is defined in uhcddrv.cpp
; 161  :         extern HCD_FUNCS gc_HcdFuncs;
; 162  : 
; 163  :         DEBUGCHK( m_pHcd != NULL &&
; 164  :                   m_hUSBDInstance == NULL &&
; 165  :                   m_pUSBDDetachProc == NULL &&
; 166  :                   m_pUSBDAttachProc == NULL &&
; 167  :                   m_pvHcdContext == NULL );
; 168  : 
; 169  :         m_hUSBDInstance = LoadDriver(TEXT("USBD.DLL"));

  0002c	e59f00cc	 ldr         r0, [pc, #0xCC]
  00030	eb000000	 bl          LoadDriver
  00034	e3500000	 cmp         r0, #0
  00038	e5840074	 str         r0, [r4, #0x74]

; 170  :         if ( m_hUSBDInstance == NULL ) {
; 171  :             DEBUGMSG(ZONE_ERROR,(TEXT("%s: -CDevice::Initialize - Could not load USBD.DLL\r\n"),GetControllerName()));
; 172  :             return FALSE;

  0003c	0a000026	 beq         |$LN1@Initialize|

; 173  :         }
; 174  :         lpHcdAttachProc = (LPUSBD_HCD_ATTACH_PROC) GetProcAddress(m_hUSBDInstance, TEXT("HcdAttach"));

  00040	e59f10b4	 ldr         r1, [pc, #0xB4]
  00044	eb000000	 bl          GetProcAddressW

; 175  :         m_pUSBDAttachProc = (LPUSBD_ATTACH_PROC) GetProcAddress(m_hUSBDInstance, TEXT("HcdDeviceAttached"));

  00048	e59f10a8	 ldr         r1, [pc, #0xA8]
  0004c	e1a05000	 mov         r5, r0
  00050	e5940074	 ldr         r0, [r4, #0x74]
  00054	eb000000	 bl          GetProcAddressW

; 176  :         m_pUSBDDetachProc = (LPUSBD_DETACH_PROC) GetProcAddress(m_hUSBDInstance, TEXT("HcdDeviceDetached"));

  00058	e59f1094	 ldr         r1, [pc, #0x94]
  0005c	e1a03000	 mov         r3, r0
  00060	e5940074	 ldr         r0, [r4, #0x74]
  00064	e584307c	 str         r3, [r4, #0x7C]
  00068	eb000000	 bl          GetProcAddressW

; 177  :         m_pUSBDSelectConfigurationProc = (LPUSBD_SELECT_CONFIGURATION_PROC)GetProcAddress(m_hUSBDInstance, TEXT("HcdSelectConfiguration"));// Optional

  0006c	e59f107c	 ldr         r1, [pc, #0x7C]
  00070	e1a03000	 mov         r3, r0
  00074	e5940074	 ldr         r0, [r4, #0x74]
  00078	e5843080	 str         r3, [r4, #0x80]
  0007c	eb000000	 bl          GetProcAddressW

; 178  :         m_pUSBDSuspendResumed = (LPUSBD_SUSPEND_RESUME_PROC) GetProcAddress(m_hUSBDInstance, TEXT("HcdDeviceSuspendeResumed"));

  00080	e59f1064	 ldr         r1, [pc, #0x64]
  00084	e1a03000	 mov         r3, r0
  00088	e5940074	 ldr         r0, [r4, #0x74]
  0008c	e5843078	 str         r3, [r4, #0x78]
  00090	eb000000	 bl          GetProcAddressW

; 179  :         if ( m_pUSBDAttachProc == NULL ||
; 180  :              m_pUSBDDetachProc == NULL ||
; 181  :              lpHcdAttachProc == NULL ||
; 182  :              (*lpHcdAttachProc)(m_pHcd, &gc_HcdFuncs,  &m_pvHcdContext) == FALSE ) {

  00094	e594307c	 ldr         r3, [r4, #0x7C]
  00098	e5840084	 str         r0, [r4, #0x84]
  0009c	e3530000	 cmp         r3, #0
  000a0	0a00000d	 beq         |$LN1@Initialize|
  000a4	e5943080	 ldr         r3, [r4, #0x80]
  000a8	e3530000	 cmp         r3, #0
  000ac	0a00000a	 beq         |$LN1@Initialize|
  000b0	e3550000	 cmp         r5, #0
  000b4	0a000008	 beq         |$LN1@Initialize|
  000b8	e59f1028	 ldr         r1, [pc, #0x28]
  000bc	e5940004	 ldr         r0, [r4, #4]
  000c0	e2842088	 add         r2, r4, #0x88
  000c4	e1a0e00f	 mov         lr, pc
  000c8	e12fff15	 bx          r5
  000cc	e3500000	 cmp         r0, #0

; 186  :         }
; 187  :         DEBUGCHK( m_pvHcdContext != NULL );
; 188  :     }
; 189  : 
; 190  : 
; 191  :     DEBUGMSG( ZONE_INIT, (TEXT("%s: -CDevice::Initialize, success!\n"),GetControllerName()));
; 192  :     return TRUE;

  000d0	13a00001	 movne       r0, #1

; 193  : }

  000d4	18bd4030	 ldmneia     sp!, {r4, r5, lr}
  000d8	112fff1e	 bxne        lr
  000dc		 |$LN1@Initialize|

; 183  : 
; 184  :             DEBUGMSG(ZONE_ERROR, (TEXT("%s: -CDevice::Initialize - Could not establish USBD links\n"),GetControllerName()));
; 185  :             return FALSE;

  000dc	e3a00000	 mov         r0, #0

; 193  : }

  000e0	e8bd4030	 ldmia       sp!, {r4, r5, lr}
  000e4	e12fff1e	 bx          lr
  000e8		 |$LN11@Initialize|
  000e8		 |$LN12@Initialize|
  000e8	00000000	 DCD         |?gc_HcdFuncs@@3U_HCD_FUNCS@@A|
  000ec		 |$LN13@Initialize|
  000ec	00000000	 DCD         |??_C@_1DC@HKGGOMPG@?$AAH?$AAc?$AAd?$AAD?$AAe?$AAv?$AAi?$AAc?$AAe?$AAS?$AAu?$AAs?$AAp?$AAe?$AAn?$AAd?$AAe?$AAR?$AAe?$AAs?$AAu?$AAm?$AAe?$AAd?$AA?$AA@|
  000f0		 |$LN14@Initialize|
  000f0	00000000	 DCD         |??_C@_1CO@MCCAIHAO@?$AAH?$AAc?$AAd?$AAS?$AAe?$AAl?$AAe?$AAc?$AAt?$AAC?$AAo?$AAn?$AAf?$AAi?$AAg?$AAu?$AAr?$AAa?$AAt?$AAi?$AAo?$AAn?$AA?$AA@|
  000f4		 |$LN15@Initialize|
  000f4	00000000	 DCD         |??_C@_1CE@KAKNBFJP@?$AAH?$AAc?$AAd?$AAD?$AAe?$AAv?$AAi?$AAc?$AAe?$AAD?$AAe?$AAt?$AAa?$AAc?$AAh?$AAe?$AAd?$AA?$AA@|
  000f8		 |$LN16@Initialize|
  000f8	00000000	 DCD         |??_C@_1CE@MBINLHH@?$AAH?$AAc?$AAd?$AAD?$AAe?$AAv?$AAi?$AAc?$AAe?$AAA?$AAt?$AAt?$AAa?$AAc?$AAh?$AAe?$AAd?$AA?$AA@|
  000fc		 |$LN17@Initialize|
  000fc	00000000	 DCD         |??_C@_1BE@NANPENDH@?$AAH?$AAc?$AAd?$AAA?$AAt?$AAt?$AAa?$AAc?$AAh?$AA?$AA@|
  00100		 |$LN18@Initialize|
  00100	00000000	 DCD         |??_C@_1BC@MPAIGMIO@?$AAU?$AAS?$AAB?$AAD?$AA?4?$AAD?$AAL?$AAL?$AA?$AA@|
  00104		 |$M37798|

			 ENDP  ; |?Initialize@CDeviceGlobal@@QAAHPAX@Z|, CDeviceGlobal::Initialize

	EXPORT	|?DeInitialize@CDeviceGlobal@@QAAXXZ|	; CDeviceGlobal::DeInitialize
	EXPORT	|??_C@_1BE@MDMBICMJ@?$AAH?$AAc?$AAd?$AAD?$AAe?$AAt?$AAa?$AAc?$AAh?$AA?$AA@| [ DATA ] ; `string'
	IMPORT	|FreeLibrary|
	IMPORT	|?WaitForCountdown@Countdown@@QAAXH@Z|	; Countdown::WaitForCountdown

  00000			 AREA	 |.pdata|, PDATA
|$T37817| DCD	|$LN7@DeInitiali|
	DCD	0x40001e01

  00000			 AREA	 |.rdata|, DATA, READONLY
|??_C@_1BE@MDMBICMJ@?$AAH?$AAc?$AAd?$AAD?$AAe?$AAt?$AAa?$AAc?$AAh?$AA?$AA@| DCB "H"
	DCB	0x0, "c", 0x0, "d", 0x0, "D", 0x0, "e", 0x0, "t", 0x0, "a"
	DCB	0x0, "c", 0x0, "h", 0x0, 0x0, 0x0	; `string'
; Function compile flags: /Ogspy

  00000			 AREA	 |.text|, CODE, ARM

  00000		 |?DeInitialize@CDeviceGlobal@@QAAXXZ| PROC ; CDeviceGlobal::DeInitialize

; 206  : {

  00000		 |$LN7@DeInitiali|
  00000	e92d4030	 stmdb       sp!, {r4, r5, lr}
  00004		 |$M37814|
  00004	e1a04000	 mov         r4, r0

; 207  :     DEBUGMSG( ZONE_INIT, (TEXT("%s: +CDevice::DeInitialize\n"),GetControllerName()));
; 208  : 
; 209  : #ifdef DEBUG
; 210  :     DEBUGCHK(g_fAlreadyCalled == TRUE);
; 211  :     g_fAlreadyCalled = FALSE;
; 212  : #endif // DEBUG
; 213  : 
; 214  :     // wait for any stray detach threads
; 215  :     // This can block waiting for a callback into a client driver to return.
; 216  :     // Since callbacks aren't supposed to block this oughtn't cause deadlock,
; 217  :     // but a misbehaving client driver can cause us serious grief.
; 218  :     // Nonetheless, not waiting means we might free USBD.DLL while it's still in use.
; 219  :     //DeleteCountdown(&m_objCountdown);
; 220  :     m_objCountdown.WaitForCountdown( TRUE);

  00008	e3a01001	 mov         r1, #1
  0000c	e2840054	 add         r0, r4, #0x54
  00010	eb000000	 bl          |?WaitForCountdown@Countdown@@QAAXH@Z|

; 221  : 
; 222  :     // unload USBD.dll
; 223  :     if ( m_hUSBDInstance ) {

  00014	e5943074	 ldr         r3, [r4, #0x74]
  00018	e3a05000	 mov         r5, #0
  0001c	e3530000	 cmp         r3, #0
  00020	0a000009	 beq         |$LN2@DeInitiali|

; 224  :         LPUSBD_HCD_DETACH_PROC lpHcdDetachProc;
; 225  :         lpHcdDetachProc = (LPUSBD_HCD_DETACH_PROC) GetProcAddress(m_hUSBDInstance, TEXT("HcdDetach"));

  00024	e59f1048	 ldr         r1, [pc, #0x48]
  00028	e1a00003	 mov         r0, r3
  0002c	eb000000	 bl          GetProcAddressW
  00030	e1b03000	 movs        r3, r0

; 226  :         if ( lpHcdDetachProc != NULL ) {
; 227  :             (*lpHcdDetachProc)(m_pvHcdContext);

  00034	15940088	 ldrne       r0, [r4, #0x88]
  00038	11a0e00f	 movne       lr, pc
  0003c	112fff13	 bxne        r3

; 228  :         }
; 229  :         FreeLibrary( m_hUSBDInstance );

  00040	e5940074	 ldr         r0, [r4, #0x74]
  00044	eb000000	 bl          FreeLibrary

; 230  :         m_hUSBDInstance = NULL;

  00048	e5845074	 str         r5, [r4, #0x74]
  0004c		 |$LN2@DeInitiali|

; 231  :     }
; 232  :     m_pUSBDAttachProc = NULL;
; 233  :     m_pUSBDDetachProc = NULL;
; 234  :     m_pvHcdContext = NULL;
; 235  : 
; 236  :     m_dwFreeAddressArray[0] = 0x00000001;

  0004c	e3a03001	 mov         r3, #1
  00050	e584301c	 str         r3, [r4, #0x1C]
  00054	e584507c	 str         r5, [r4, #0x7C]
  00058	e5845080	 str         r5, [r4, #0x80]
  0005c	e5845088	 str         r5, [r4, #0x88]

; 237  :     m_dwFreeAddressArray[1] = m_dwFreeAddressArray[2] = m_dwFreeAddressArray[3] = 0x00000000;

  00060	e5845028	 str         r5, [r4, #0x28]
  00064	e5845024	 str         r5, [r4, #0x24]
  00068	e5845020	 str         r5, [r4, #0x20]

; 238  : 
; 239  : 
; 240  :     DEBUGMSG( ZONE_INIT, (TEXT("%s: -CDevice::DeInitialize\n"),GetControllerName()));
; 241  : }

  0006c	e8bd4030	 ldmia       sp!, {r4, r5, lr}
  00070	e12fff1e	 bx          lr
  00074		 |$LN8@DeInitiali|
  00074		 |$LN9@DeInitiali|
  00074	00000000	 DCD         |??_C@_1BE@MDMBICMJ@?$AAH?$AAc?$AAd?$AAD?$AAe?$AAt?$AAa?$AAc?$AAh?$AA?$AA@|
  00078		 |$M37815|

			 ENDP  ; |?DeInitialize@CDeviceGlobal@@QAAXXZ|, CDeviceGlobal::DeInitialize

	EXPORT	|?ReserveAddress@CDeviceGlobal@@QAAHAAE@Z| ; CDeviceGlobal::ReserveAddress

  00000			 AREA	 |.pdata|, PDATA
|$T37837| DCD	|$LN12@ReserveAdd|
	DCD	0x40002201
; Function compile flags: /Ogspy

  00000			 AREA	 |.text|, CODE, ARM

  00000		 |?ReserveAddress@CDeviceGlobal@@QAAHAAE@Z| PROC ; CDeviceGlobal::ReserveAddress

; 256  : {

  00000		 |$LN12@ReserveAdd|
  00000	e92d40f0	 stmdb       sp!, {r4 - r7, lr}
  00004		 |$M37834|
  00004	e1a07001	 mov         r7, r1
  00008	e1a04000	 mov         r4, r0

; 257  :     DEBUGMSG( ZONE_ATTACH && ZONE_VERBOSE, (TEXT("%s: +CDeviceGlobal::ReserveAddress\n"),GetControllerName()) );
; 258  : 
; 259  :     BOOL fSuccess = FALSE;
; 260  : 
; 261  :     EnterCriticalSection( &m_csFreeAddressArrayLock );

  0000c	e2840008	 add         r0, r4, #8
  00010	e3a05000	 mov         r5, #0
  00014	eb000000	 bl          EnterCriticalSection

; 262  : 
; 263  :     // the address has 7 bits:
; 264  :     //
; 265  :     // xxyyyyyb
; 266  :     //
; 267  :     // xxb is the index into the m_dwFreeAddressArray (0-3)
; 268  :     // yyyyyb is the bit of the m_dwFreeAddressArray[xxb] DWORD
; 269  :     // that the address corresponds to
; 270  : 
; 271  :     // address 0 should always be marked used
; 272  :     DEBUGCHK(m_dwFreeAddressArray[0] & 1 );
; 273  : 
; 274  :     for ( UCHAR address = 1; address <= USB_MAX_ADDRESS; address++ ) {

  00018	e3a00001	 mov         r0, #1
  0001c	e3a02001	 mov         r2, #1
  00020	e3a01001	 mov         r1, #1
  00024		 |$LL4@ReserveAdd|

; 275  :         const UCHAR index = (address >> 5); // 5 == log base 2 of 32

  00024	e1a032a0	 mov         r3, r0, lsr #5
  00028	e203e0ff	 and         lr, r3, #0xFF

; 276  :         const UCHAR bit = address & (32 - 1); // 32 == # of bits in DWORD
; 277  :         if ( (m_dwFreeAddressArray[ index ] & (1 << bit)) == 0 ) {

  0002c	e084310e	 add         r3, r4, lr, lsl #2
  00030	e593301c	 ldr         r3, [r3, #0x1C]
  00034	e202601f	 and         r6, r2, #0x1F
  00038	e1130611	 tst         r3, r1, lsl r6
  0003c	0a000005	 beq         |$LN8@ReserveAdd|
  00040	e2823001	 add         r3, r2, #1
  00044	e20300ff	 and         r0, r3, #0xFF
  00048	e1a02000	 mov         r2, r0
  0004c	e350007f	 cmp         r0, #0x7F
  00050	9afffff3	 bls         |$LL4@ReserveAdd|
  00054	ea000006	 b           |$LN2@ReserveAdd|
  00058		 |$LN8@ReserveAdd|

; 278  :             // this address is free
; 279  :             fSuccess = TRUE;
; 280  :             rAddress = address;
; 281  :             // mark address as used
; 282  :             m_dwFreeAddressArray[ index ] |= (1 << bit);

  00058	e084210e	 add         r2, r4, lr, lsl #2
  0005c	e5c70000	 strb        r0, [r7]
  00060	e592301c	 ldr         r3, [r2, #0x1C]
  00064	e3a01001	 mov         r1, #1
  00068	e3a05001	 mov         r5, #1
  0006c	e1833611	 orr         r3, r3, r1, lsl r6
  00070	e582301c	 str         r3, [r2, #0x1C]
  00074		 |$LN2@ReserveAdd|

; 283  :             break;
; 284  :         }
; 285  :     }
; 286  :     LeaveCriticalSection( &m_csFreeAddressArrayLock );

  00074	e2840008	 add         r0, r4, #8
  00078	eb000000	 bl          LeaveCriticalSection

; 287  : 
; 288  :     DEBUGMSG( ZONE_ATTACH && ZONE_VERBOSE, (TEXT("%s: -CDevice::ReserveAddress, returning rAddress %d, success = %d\n"),GetControllerName(), rAddress, fSuccess ) );
; 289  :     return fSuccess;
; 290  : }

  0007c	e1a00005	 mov         r0, r5
  00080	e8bd40f0	 ldmia       sp!, {r4 - r7, lr}
  00084	e12fff1e	 bx          lr
  00088		 |$M37835|

			 ENDP  ; |?ReserveAddress@CDeviceGlobal@@QAAHAAE@Z|, CDeviceGlobal::ReserveAddress

	EXPORT	|?FreeAddress@CDeviceGlobal@@QAAXE@Z|	; CDeviceGlobal::FreeAddress

  00000			 AREA	 |.pdata|, PDATA
|$T37847| DCD	|$LN5@FreeAddres|
	DCD	0x40001101
; Function compile flags: /Ogspy

  00000			 AREA	 |.text|, CODE, ARM

  00000		 |?FreeAddress@CDeviceGlobal@@QAAXE@Z| PROC ; CDeviceGlobal::FreeAddress

; 302  : {

  00000		 |$LN5@FreeAddres|
  00000	e92d4030	 stmdb       sp!, {r4, r5, lr}
  00004		 |$M37844|
  00004	e1a04001	 mov         r4, r1
  00008	e1a05000	 mov         r5, r0

; 303  :     DEBUGMSG( ZONE_ATTACH && ZONE_VERBOSE, (TEXT("%s: +CDeviceGlobal::FreeAddress - address = %d\n"),GetControllerName(), address) );
; 304  : 
; 305  :     EnterCriticalSection( &m_csFreeAddressArrayLock );

  0000c	e2850008	 add         r0, r5, #8
  00010	eb000000	 bl          EnterCriticalSection

; 306  : 
; 307  :     // the address has 7 bits:
; 308  :     //
; 309  :     // xxyyyyyb
; 310  :     //
; 311  :     // xxb is the index into the m_dwFreeAddressArray (0-3)
; 312  :     // yyyyyb is the bit of the m_dwFreeAddressArray[xxb] DWORD
; 313  :     // that the address corresponds to
; 314  : 
; 315  :     const UCHAR index = (address >> 5); // 5 == log base 2 of 32

  00014	e1a032a4	 mov         r3, r4, lsr #5
  00018	e20330ff	 and         r3, r3, #0xFF
  0001c	e085e103	 add         lr, r5, r3, lsl #2

; 316  :     const UCHAR bit = address & (32 - 1); // 32 == # of bits in DWORD
; 317  : 
; 318  :     // make sure this address is marked as used
; 319  :     DEBUGCHK( index < 4 &&
; 320  :               (m_dwFreeAddressArray[ index ] & ( 1 << bit )) );
; 321  : 
; 322  :     // free this address
; 323  :     m_dwFreeAddressArray[ index ] &= ~(1 << bit);

  00020	e59e201c	 ldr         r2, [lr, #0x1C]
  00024	e204301f	 and         r3, r4, #0x1F
  00028	e3a01001	 mov         r1, #1

; 324  : 
; 325  :     LeaveCriticalSection( &m_csFreeAddressArrayLock );

  0002c	e1c23311	 bic         r3, r2, r1, lsl r3
  00030	e2850008	 add         r0, r5, #8
  00034	e58e301c	 str         r3, [lr, #0x1C]
  00038	eb000000	 bl          LeaveCriticalSection

; 326  : 
; 327  :     DEBUGMSG( ZONE_ATTACH && ZONE_VERBOSE, (TEXT("%s: -CDevice::FreeAddress - address = %d\n"),GetControllerName(), address) );
; 328  : }

  0003c	e8bd4030	 ldmia       sp!, {r4, r5, lr}
  00040	e12fff1e	 bx          lr
  00044		 |$M37845|

			 ENDP  ; |?FreeAddress@CDeviceGlobal@@QAAXE@Z|, CDeviceGlobal::FreeAddress

	EXPORT	|?TransferDoneCallbackSetEvent@CDevice@@KAKPAX@Z| ; CDevice::TransferDoneCallbackSetEvent
; File c:\wince600\public\common\sdk\inc\kfuncs.h

  00000			 AREA	 |.pdata|, PDATA
|$T37860| DCD	|$LN7@TransferDo|
	DCD	0x40000601
; Function compile flags: /Ogspy
; File c:\wince600\platform\common\src\soc\common_ti_v1\omap3530\musb\musbhcd\usb2com\cdevice.cpp

  00000			 AREA	 |.text|, CODE, ARM

  00000		 |?TransferDoneCallbackSetEvent@CDevice@@KAKPAX@Z| PROC ; CDevice::TransferDoneCallbackSetEvent

; 345  : {

  00000		 |$LN7@TransferDo|
  00000	e52de004	 str         lr, [sp, #-4]!
  00004		 |$M37857|

; 346  :     DEBUGCHK( context );
; 347  :     SetEvent( (HANDLE) context );

  00004	e3a01003	 mov         r1, #3
  00008	eb000000	 bl          EventModify

; 348  :     return 0;

  0000c	e3a00000	 mov         r0, #0

; 349  : }

  00010	e49de004	 ldr         lr, [sp], #4
  00014	e12fff1e	 bx          lr
  00018		 |$M37858|

			 ENDP  ; |?TransferDoneCallbackSetEvent@CDevice@@KAKPAX@Z|, CDevice::TransferDoneCallbackSetEvent

	EXPORT	|??0CDevice@@QAA@EABU_USB_DEVICE_INFO@@HHEQAVCDeviceGlobal@@QAVCHub@@E@Z| ; CDevice::CDevice
	EXPORT	|??_7CDevice@@6B@| [ DATA ]		; CDevice::`vftable'
	EXPORT	|?DisableDevice@CDevice@@UAA?AW4HCD_REQUEST_STATUS@@IH@Z| ; CDevice::DisableDevice
	EXPORT	|?SuspendResume@CDevice@@UAA?AW4HCD_REQUEST_STATUS@@IH@Z| ; CDevice::SuspendResume
	EXPORT	|?ResumeNotification@CDevice@@UAAHXZ|	; CDevice::ResumeNotification
	EXPORT	|?NotifyOnSuspendedResumed@CDevice@@UAAHH@Z| ; CDevice::NotifyOnSuspendedResumed
	EXPORT	|?GetUSB2TT@CDevice@@UAAPAVCHub@@AAE0AAH@Z| ; CDevice::GetUSB2TT
	EXPORT	|?SignalHub@CDevice@@UAAXXZ|		; CDevice::SignalHub
	IMPORT	|memcpy|
	IMPORT	|??_ECDevice@@UAAPAXI@Z|, WEAK |??_GCDevice@@UAAPAXI@Z| ; CDevice::`vector deleting destructor', CDevice::`scalar deleting destructor'

  00000			 AREA	 |.pdata|, PDATA
|$T37874| DCD	|$LN5@CDevice|
	DCD	0x40002101

  00000			 AREA	 |.rdata|, DATA, READONLY
|??_7CDevice@@6B@| DCD |??_ECDevice@@UAAPAXI@Z|		; CDevice::`vftable'
	DCD	|_purecall|
	DCD	|_purecall|
	DCD	|_purecall|
	DCD	|_purecall|
	DCD	|_purecall|
	DCD	|_purecall|
	DCD	|_purecall|
	DCD	|?DisableDevice@CDevice@@UAA?AW4HCD_REQUEST_STATUS@@IH@Z|
	DCD	|?SuspendResume@CDevice@@UAA?AW4HCD_REQUEST_STATUS@@IH@Z|
	DCD	|?ResumeNotification@CDevice@@UAAHXZ|
	DCD	|?NotifyOnSuspendedResumed@CDevice@@UAAHH@Z|
	DCD	|_purecall|
	DCD	|?GetUSB2TT@CDevice@@UAAPAVCHub@@AAE0AAH@Z|
	DCD	|?SignalHub@CDevice@@UAAXXZ|
; Function compile flags: /Ogspy

  00000			 AREA	 |.text|, CODE, ARM

  00000		 |??0CDevice@@QAA@EABU_USB_DEVICE_INFO@@HHEQAVCDeviceGlobal@@QAVCHub@@E@Z| PROC ; CDevice::CDevice

; 387  : {

  00000		 |$LN5@CDevice|
  00000	e92d43f0	 stmdb       sp!, {r4 - r9, lr}
  00004		 |$M37871|
  00004	e1a08003	 mov         r8, r3
  00008	e1a06002	 mov         r6, r2
  0000c	e1a07001	 mov         r7, r1
  00010	e1a09000	 mov         r9, r0
  00014	e59fe064	 ldr         lr, [pc, #0x64]
  00018	e59d4028	 ldr         r4, [sp, #0x28]
  0001c	e5dd502c	 ldrb        r5, [sp, #0x2C]
  00020	e2890024	 add         r0, r9, #0x24
  00024	e3a02020	 mov         r2, #0x20
  00028	e1a01006	 mov         r1, r6
  0002c	e589e000	 str         lr, [r9]
  00030	e5894004	 str         r4, [r9, #4]
  00034	e5c95008	 strb        r5, [r9, #8]
  00038	e5c97020	 strb        r7, [r9, #0x20]
  0003c	eb000000	 bl          memcpy
  00040	e59de024	 ldr         lr, [sp, #0x24]
  00044	e59d201c	 ldr         r2, [sp, #0x1C]
  00048	e5dd1020	 ldrb        r1, [sp, #0x20]
  0004c	e3a03000	 mov         r3, #0

; 388  :     DEBUGMSG( ZONE_DEVICE && ZONE_VERBOSE, (TEXT("%s: +CDevice::CDevice\n"),GetControllerName()) );
; 389  :     m_fIsSuspend = FALSE;
; 390  :     DEBUGCHK( m_deviceInfo.dwCount == sizeof( USB_DEVICE ) &&
; 391  :               m_deviceInfo.Descriptor.bDescriptorType == USB_DEVICE_DESCRIPTOR_TYPE &&
; 392  :               m_deviceInfo.Descriptor.bLength == sizeof( USB_DEVICE_DESCRIPTOR ) &&
; 393  :               address <= USB_MAX_ADDRESS &&
; 394  :               tierNumber <= USB_MAXIMUM_HUB_TIER + 1 );
; 395  : 
; 396  :     InitializeCriticalSection( &m_csDeviceLock );

  00050	e289000c	 add         r0, r9, #0xC
  00054	e589e050	 str         lr, [r9, #0x50]
  00058	e5892048	 str         r2, [r9, #0x48]
  0005c	e5c9104c	 strb        r1, [r9, #0x4C]
  00060	e5898044	 str         r8, [r9, #0x44]
  00064	e5c93054	 strb        r3, [r9, #0x54]
  00068	e589305c	 str         r3, [r9, #0x5C]
  0006c	e5893058	 str         r3, [r9, #0x58]
  00070	eb000000	 bl          InitializeCriticalSection

; 397  :     DEBUGMSG( ZONE_DEVICE && ZONE_VERBOSE, (TEXT("%s: -CDevice::CDevice\n"),GetControllerName()) );
; 398  : }

  00074	e1a00009	 mov         r0, r9
  00078	e8bd43f0	 ldmia       sp!, {r4 - r9, lr}
  0007c	e12fff1e	 bx          lr
  00080		 |$LN6@CDevice|
  00080		 |$LN7@CDevice|
  00080	00000000	 DCD         |??_7CDevice@@6B@|
  00084		 |$M37872|

			 ENDP  ; |??0CDevice@@QAA@EABU_USB_DEVICE_INFO@@HHEQAVCDeviceGlobal@@QAVCHub@@E@Z|, CDevice::CDevice

; File c:\wince600\platform\common\src\soc\common_ti_v1\omap3530\musb\musbhcd\usb2com\cdevice.hpp

  00000			 AREA	 |.pdata|, PDATA
|$T37885| DCD	|$LN5@ResumeNoti|
	DCD	0x40000200
; Function compile flags: /Ogspy

  00000			 AREA	 |.text|, CODE, ARM

  00000		 |?ResumeNotification@CDevice@@UAAHXZ| PROC ; CDevice::ResumeNotification

; 172  :     virtual BOOL ResumeNotification() { return FALSE; };

  00000		 |$LN5@ResumeNoti|
  00000		 |$M37882|
  00000	e3a00000	 mov         r0, #0
  00004	e12fff1e	 bx          lr
  00008		 |$M37883|

			 ENDP  ; |?ResumeNotification@CDevice@@UAAHXZ|, CDevice::ResumeNotification


  00000			 AREA	 |.pdata|, PDATA
|$T37894| DCD	|$LN5@NotifyOnSu|
	DCD	0x40000200
; Function compile flags: /Ogspy

  00000			 AREA	 |.text|, CODE, ARM

  00000		 |?NotifyOnSuspendedResumed@CDevice@@UAAHH@Z| PROC ; CDevice::NotifyOnSuspendedResumed

; 173  :     virtual BOOL NotifyOnSuspendedResumed(BOOL /*fResumed*/) { return FALSE; };

  00000		 |$LN5@NotifyOnSu|
  00000		 |$M37891|
  00000	e3a00000	 mov         r0, #0
  00004	e12fff1e	 bx          lr
  00008		 |$M37892|

			 ENDP  ; |?NotifyOnSuspendedResumed@CDevice@@UAAHH@Z|, CDevice::NotifyOnSuspendedResumed


  00000			 AREA	 |.pdata|, PDATA
|$T37901| DCD	|$LN5@SignalHub|
	DCD	0x40000100
; Function compile flags: /Ogspy

  00000			 AREA	 |.text|, CODE, ARM

  00000		 |?SignalHub@CDevice@@UAAXXZ| PROC	; CDevice::SignalHub

; 178  :     virtual void SignalHub() { return;};               

  00000		 |$LN5@SignalHub|
  00000		 |$M37898|
  00000	e12fff1e	 bx          lr
  00004		 |$M37899|

			 ENDP  ; |?SignalHub@CDevice@@UAAXXZ|, CDevice::SignalHub

; File c:\wince600\platform\common\src\soc\common_ti_v1\omap3530\musb\musbhcd\usb2com\cdevice.cpp

  00000			 AREA	 |.pdata|, PDATA
|$T37918| DCD	|$LN11@GetUSB2TT|
	DCD	0x40001e01
; Function compile flags: /Ogspy

  00000			 AREA	 |.text|, CODE, ARM

  00000		 |?GetUSB2TT@CDevice@@UAAPAVCHub@@AAE0AAH@Z| PROC ; CDevice::GetUSB2TT

; 461  : {

  00000		 |$LN11@GetUSB2TT|
  00000	e92d4030	 stmdb       sp!, {r4, r5, lr}
  00004		 |$M37915|
  00004	e1a05003	 mov         r5, r3

; 462  :     if (!m_fIsHighSpeed) {

  00008	e590e048	 ldr         lr, [r0, #0x48]
  0000c	e35e0000	 cmp         lr, #0
  00010	1a000014	 bne         |$LN4@GetUSB2TT|

; 463  :         CHub *  pHub = m_pAttachedHub;

  00014	e590e004	 ldr         lr, [r0, #4]

; 464  :         UCHAR  sAttachedPort = m_sAttachedPort;

  00018	e5d04008	 ldrb        r4, [r0, #8]
  0001c	e35e0000	 cmp         lr, #0

; 465  :         while (pHub!=NULL && pHub->m_fIsHighSpeed!=TRUE) {

  00020	0a000011	 beq         |$LN5@GetUSB2TT|
  00024		 |$LL3@GetUSB2TT|
  00024	e59e0048	 ldr         r0, [lr, #0x48]
  00028	e3500001	 cmp         r0, #1
  0002c	0a000003	 beq         |$LN2@GetUSB2TT|

; 466  :             sAttachedPort = pHub->m_sAttachedPort;
; 467  :             pHub =  pHub->m_pAttachedHub;

  00030	e59e0004	 ldr         r0, [lr, #4]
  00034	e5de4008	 ldrb        r4, [lr, #8]
  00038	e1b0e000	 movs        lr, r0
  0003c	1afffff8	 bne         |$LL3@GetUSB2TT|
  00040		 |$LN2@GetUSB2TT|

; 468  :         }
; 469  :         if (pHub) {

  00040	e35e0000	 cmp         lr, #0
  00044	0a000008	 beq         |$LN5@GetUSB2TT|

; 470  :             pTTAddr = pHub->m_address;

  00048	e5de3020	 ldrb        r3, [lr, #0x20]
  0004c	e5c13000	 strb        r3, [r1]

; 471  :             pTTPort = sAttachedPort;

  00050	e5c24000	 strb        r4, [r2]

; 472  :             ASSERT(sAttachedPort!=0 && sAttachedPort<= pHub->m_usbHubDescriptor.bNumberOfPorts);
; 473  :             ttContext = pHub->m_pAddedTT[sAttachedPort-1];

  00054	e59e30b4	 ldr         r3, [lr, #0xB4]
  00058	e0833104	 add         r3, r3, r4, lsl #2
  0005c	e5133004	 ldr         r3, [r3, #-4]
  00060	e5853000	 str         r3, [r5]

; 474  :         }
; 475  :         return pHub;

  00064	ea000000	 b           |$LN5@GetUSB2TT|
  00068		 |$LN4@GetUSB2TT|

; 476  :     }
; 477  :     return NULL;

  00068	e3a0e000	 mov         lr, #0
  0006c		 |$LN5@GetUSB2TT|

; 478  : }

  0006c	e1a0000e	 mov         r0, lr
  00070	e8bd4030	 ldmia       sp!, {r4, r5, lr}
  00074	e12fff1e	 bx          lr
  00078		 |$M37916|

			 ENDP  ; |?GetUSB2TT@CDevice@@UAAPAVCHub@@AAE0AAH@Z|, CDevice::GetUSB2TT

	EXPORT	|?DeleteUsbConfigurationStructure@CDevice@@QBAXAAU_NON_CONST_USB_CONFIGURATION@@@Z| ; CDevice::DeleteUsbConfigurationStructure
	IMPORT	|??3@YAXPAX@Z|				; operator delete

  00000			 AREA	 |.pdata|, PDATA
|$T37939| DCD	|$LN17@DeleteUsbC|
	DCD	0x40002c01
; Function compile flags: /Ogspy

  00000			 AREA	 |.text|, CODE, ARM

  00000		 |?DeleteUsbConfigurationStructure@CDevice@@QBAXAAU_NON_CONST_USB_CONFIGURATION@@@Z| PROC ; CDevice::DeleteUsbConfigurationStructure

; 713  : {

  00000		 |$LN17@DeleteUsbC|
  00000	e92d43f0	 stmdb       sp!, {r4 - r9, lr}
  00004		 |$M37936|
  00004	e1a04001	 mov         r4, r1

; 714  :     DEBUGMSG( ZONE_DEVICE && ZONE_VERBOSE, (TEXT("%s: +CDevice::DeleteUsbConfigurationStructure\n"),GetControllerName()));
; 715  : 
; 716  :     // this code is right out of the destructor of OHCD.cpp
; 717  :     if ( rConfig.lpInterfaces ) {

  00008	e5943018	 ldr         r3, [r4, #0x18]
  0000c	e3a09000	 mov         r9, #0
  00010	e1b05003	 movs        r5, r3
  00014	0a000020	 beq         |$LN8@DeleteUsbC|

; 718  :         DEBUGCHK( rConfig.Descriptor.bDescriptorType == USB_CONFIGURATION_DESCRIPTOR_TYPE &&
; 719  :                   rConfig.Descriptor.bLength == sizeof( USB_CONFIGURATION_DESCRIPTOR ) &&
; 720  :                   rConfig.dwNumInterfaces >= rConfig.Descriptor.bNumInterfaces );
; 721  :         LPNON_CONST_USB_INTERFACE lpInterface = rConfig.lpInterfaces;
; 722  :         for ( UINT iInterface = 0; iInterface < rConfig.dwNumInterfaces; ++iInterface, ++lpInterface ) {

  00018	e5943014	 ldr         r3, [r4, #0x14]
  0001c	e3a06000	 mov         r6, #0
  00020	e3530000	 cmp         r3, #0
  00024	9a000019	 bls         |$LN5@DeleteUsbC|
  00028		 |$LL7@DeleteUsbC|

; 723  :             if ( lpInterface->lpEndpoints ) {

  00028	e5953014	 ldr         r3, [r5, #0x14]
  0002c	e1b07003	 movs        r7, r3
  00030	0a00000e	 beq         |$LN4@DeleteUsbC|

; 724  :                 DEBUGCHK( lpInterface->Descriptor.bDescriptorType == USB_INTERFACE_DESCRIPTOR_TYPE );
; 725  :                 LPNON_CONST_USB_ENDPOINT lpEndpoint = lpInterface->lpEndpoints;
; 726  :                 for ( UINT iEndpoint = 0; iEndpoint < lpInterface->Descriptor.bNumEndpoints; ++iEndpoint, ++lpEndpoint ) {

  00034	e5d53008	 ldrb        r3, [r5, #8]
  00038	e3a08000	 mov         r8, #0
  0003c	e3530000	 cmp         r3, #0
  00040	0a000007	 beq         |$LN1@DeleteUsbC|
  00044		 |$LL3@DeleteUsbC|

; 727  :                     delete [] lpEndpoint->lpbExtended;

  00044	e597000c	 ldr         r0, [r7, #0xC]
  00048	eb000000	 bl          |??3@YAXPAX@Z|

; 728  :                     lpEndpoint->lpbExtended = NULL;

  0004c	e587900c	 str         r9, [r7, #0xC]
  00050	e5d53008	 ldrb        r3, [r5, #8]
  00054	e2888001	 add         r8, r8, #1
  00058	e2877014	 add         r7, r7, #0x14
  0005c	e1580003	 cmp         r8, r3
  00060	3afffff7	 bcc         |$LL3@DeleteUsbC|
  00064		 |$LN1@DeleteUsbC|

; 729  :                 }
; 730  :                 delete [] lpInterface->lpEndpoints;

  00064	e5950014	 ldr         r0, [r5, #0x14]
  00068	eb000000	 bl          |??3@YAXPAX@Z|

; 731  :                 lpInterface->lpEndpoints = NULL;

  0006c	e5859014	 str         r9, [r5, #0x14]
  00070		 |$LN4@DeleteUsbC|

; 732  :             }
; 733  :             delete [] lpInterface->lpbExtended;

  00070	e5950010	 ldr         r0, [r5, #0x10]
  00074	eb000000	 bl          |??3@YAXPAX@Z|

; 734  :             lpInterface->lpbExtended = NULL;

  00078	e5859010	 str         r9, [r5, #0x10]
  0007c	e5943014	 ldr         r3, [r4, #0x14]
  00080	e2866001	 add         r6, r6, #1
  00084	e285501c	 add         r5, r5, #0x1C
  00088	e1560003	 cmp         r6, r3
  0008c	3affffe5	 bcc         |$LL7@DeleteUsbC|
  00090		 |$LN5@DeleteUsbC|

; 735  :         }
; 736  :         delete [] rConfig.lpInterfaces;

  00090	e5940018	 ldr         r0, [r4, #0x18]
  00094	eb000000	 bl          |??3@YAXPAX@Z|

; 737  :         rConfig.lpInterfaces = NULL;

  00098	e5849018	 str         r9, [r4, #0x18]
  0009c		 |$LN8@DeleteUsbC|

; 738  :     }
; 739  :     delete [] rConfig.lpbExtended;

  0009c	e5940010	 ldr         r0, [r4, #0x10]
  000a0	eb000000	 bl          |??3@YAXPAX@Z|

; 740  :     rConfig.lpbExtended = NULL;

  000a4	e5849010	 str         r9, [r4, #0x10]

; 741  : 
; 742  :     DEBUGMSG( ZONE_DEVICE && ZONE_VERBOSE, (TEXT("%s: -CDevice::DeleteUsbConfigurationStructure\n"),GetControllerName()));
; 743  : }

  000a8	e8bd43f0	 ldmia       sp!, {r4 - r9, lr}
  000ac	e12fff1e	 bx          lr
  000b0		 |$M37937|

			 ENDP  ; |?DeleteUsbConfigurationStructure@CDevice@@QBAXAAU_NON_CONST_USB_CONFIGURATION@@@Z|, CDevice::DeleteUsbConfigurationStructure

	EXPORT	|?AllocatePipeArray@CDevice@@IAAHXZ|	; CDevice::AllocatePipeArray
	IMPORT	|??2@YAPAXI@Z|				; operator new
	IMPORT	|memset|

  00000			 AREA	 |.pdata|, PDATA
|$T37961| DCD	|$LN16@AllocatePi|
	DCD	0x40003301
; Function compile flags: /Ogspy

  00000			 AREA	 |.text|, CODE, ARM

  00000		 |?AllocatePipeArray@CDevice@@IAAHXZ| PROC ; CDevice::AllocatePipeArray

; 757  : {

  00000		 |$LN16@AllocatePi|
  00000	e92d43f0	 stmdb       sp!, {r4 - r9, lr}
  00004		 |$M37958|
  00004	e1a05000	 mov         r5, r0

; 758  :     DEBUGMSG( ZONE_DEVICE && ZONE_VERBOSE, (TEXT("%s: +CDevice(%s tier %d)::AllocatePipeArray\n"),GetControllerName(), GetDeviceType(), m_tierNumber ) );
; 759  : 
; 760  :     BOOL fSuccess = FALSE;
; 761  : 
; 762  :     EnterCriticalSection( &m_csDeviceLock );

  00008	e285000c	 add         r0, r5, #0xC
  0000c	e3a06000	 mov         r6, #0
  00010	eb000000	 bl          EnterCriticalSection

; 763  : 
; 764  :     DEBUGCHK( m_ppCPipe == NULL && // shouldn't be allocated yet
; 765  :               m_maxNumPipes == 0 && // shouldn't be allocated yet
; 766  :               m_deviceInfo.lpActiveConfig != NULL &&
; 767  :               m_deviceInfo.lpActiveConfig->lpInterfaces != NULL &&
; 768  :               m_deviceInfo.lpActiveConfig->lpInterfaces[0].Descriptor.bNumEndpoints <= 15 );
; 769  : 
; 770  :     // number of endpoints does not include the endpoint 0
; 771  :     int numPipes = 1;
; 772  : 
; 773  :     int bNumberEndpoints = 0;
; 774  :     int bInterfaceNumber = m_deviceInfo.lpActiveConfig->lpInterfaces[0].Descriptor.bInterfaceNumber;

  00014	e5957040	 ldr         r7, [r5, #0x40]
  00018	e3a0e001	 mov         lr, #1
  0001c	e3a02000	 mov         r2, #0
  00020	e5979018	 ldr         r9, [r7, #0x18]

; 775  :     int bCurNumEndpoints;
; 776  :     for(DWORD i = 0; i < m_deviceInfo.lpActiveConfig->dwNumInterfaces; ++i){

  00024	e5973014	 ldr         r3, [r7, #0x14]
  00028	e5d98006	 ldrb        r8, [r9, #6]
  0002c	e3530000	 cmp         r3, #0
  00030	9a000013	 bls         |$LN5@AllocatePi|
  00034	e1a03007	 mov         r3, r7
  00038	e5934014	 ldr         r4, [r3, #0x14]
  0003c	e3a01000	 mov         r1, #0
  00040		 |$LL7@AllocatePi|

; 777  :         if(bInterfaceNumber == m_deviceInfo.lpActiveConfig->lpInterfaces[i].Descriptor.bInterfaceNumber){

  00040	e0810009	 add         r0, r1, r9
  00044	e5d03006	 ldrb        r3, [r0, #6]
  00048	e1580003	 cmp         r8, r3
  0004c	1a000004	 bne         |$LN4@AllocatePi|

; 778  :             bCurNumEndpoints = m_deviceInfo.lpActiveConfig->lpInterfaces[i].Descriptor.bNumEndpoints;

  00050	e5d03008	 ldrb        r3, [r0, #8]

; 779  :             if(bNumberEndpoints < bCurNumEndpoints)

  00054	e1520003	 cmp         r2, r3
  00058	aa000006	 bge         |$LN6@AllocatePi|

; 780  :                 bNumberEndpoints = bCurNumEndpoints;

  0005c	e1a02003	 mov         r2, r3

; 781  :         } else {

  00060	ea000004	 b           |$LN6@AllocatePi|
  00064		 |$LN4@AllocatePi|

; 782  :             bInterfaceNumber = m_deviceInfo.lpActiveConfig->lpInterfaces[i].Descriptor.bInterfaceNumber;

  00064	e5973018	 ldr         r3, [r7, #0x18]

; 783  :             numPipes += bNumberEndpoints;

  00068	e08ee002	 add         lr, lr, r2
  0006c	e0833001	 add         r3, r3, r1
  00070	e5d38006	 ldrb        r8, [r3, #6]

; 784  :             bNumberEndpoints = m_deviceInfo.lpActiveConfig->lpInterfaces[i].Descriptor.bNumEndpoints;

  00074	e5d32008	 ldrb        r2, [r3, #8]
  00078		 |$LN6@AllocatePi|
  00078	e281101c	 add         r1, r1, #0x1C
  0007c	e2544001	 subs        r4, r4, #1
  00080	1affffee	 bne         |$LL7@AllocatePi|
  00084		 |$LN5@AllocatePi|

; 785  :         }
; 786  :     }
; 787  :     numPipes += bNumberEndpoints;

  00084	e08e4002	 add         r4, lr, r2

; 788  : 
; 789  :     DEBUGMSG( ZONE_DEVICE && ZONE_VERBOSE, (TEXT("%s: CDevice(%s tier %d)::AllocatePipeArray - attempting to allocate %d pipes\n"),GetControllerName(), GetDeviceType(), m_tierNumber, numPipes) );
; 790  :     m_ppCPipe = new CPipeAbs* [ numPipes ];

  00088	e3740107	 cmn         r4, #7, 2
  0008c	91a00104	 movls       r0, r4, lsl #2
  00090	83e00000	 mvnhi       r0, #0
  00094	eb000000	 bl          |??2@YAPAXI@Z|
  00098	e3500000	 cmp         r0, #0
  0009c	e585005c	 str         r0, [r5, #0x5C]

; 791  :     if ( m_ppCPipe != NULL ) {

  000a0	0a000004	 beq         |$LN1@AllocatePi|

; 792  :         memset( m_ppCPipe, 0, numPipes * sizeof( CPipeAbs * ) );

  000a4	e1a02104	 mov         r2, r4, lsl #2
  000a8	e3a01000	 mov         r1, #0
  000ac	eb000000	 bl          memset

; 793  :         m_maxNumPipes = (UCHAR)numPipes;

  000b0	e5c54054	 strb        r4, [r5, #0x54]

; 794  :         fSuccess = TRUE;

  000b4	e3a06001	 mov         r6, #1
  000b8		 |$LN1@AllocatePi|

; 795  :     }
; 796  :     DEBUGMSG( ZONE_ERROR && !m_ppCPipe, (TEXT("%s: CDevice(%s tier %d)::AllocatePipeArray - no memory!\n"),GetControllerName(), GetDeviceType(), m_tierNumber ) );
; 797  : 
; 798  :     LeaveCriticalSection( &m_csDeviceLock );

  000b8	e285000c	 add         r0, r5, #0xC
  000bc	eb000000	 bl          LeaveCriticalSection

; 799  : 
; 800  :     DEBUGMSG( ZONE_DEVICE && ZONE_VERBOSE, (TEXT("%s: -CDevice(%s tier %d)::AllocatePipeArray, returning BOOL %d\n"),GetControllerName(), GetDeviceType(), m_tierNumber, fSuccess) );
; 801  :     return fSuccess;
; 802  : }

  000c0	e1a00006	 mov         r0, r6
  000c4	e8bd43f0	 ldmia       sp!, {r4 - r9, lr}
  000c8	e12fff1e	 bx          lr
  000cc		 |$M37959|

			 ENDP  ; |?AllocatePipeArray@CDevice@@IAAHXZ|, CDevice::AllocatePipeArray


  00000			 AREA	 |.pdata|, PDATA
|$T37974| DCD	|$LN6@DisableDev|
	DCD	0x40000e01
; Function compile flags: /Ogspy

  00000			 AREA	 |.text|, CODE, ARM

  00000		 |?DisableDevice@CDevice@@UAA?AW4HCD_REQUEST_STATUS@@IH@Z| PROC ; CDevice::DisableDevice

; 1276 : {

  00000		 |$LN6@DisableDev|
  00000	e52de004	 str         lr, [sp, #-4]!
  00004		 |$M37971|
  00004	e1a0e000	 mov         lr, r0

; 1277 :     DEBUGMSG( ZONE_HUB && ZONE_VERBOSE, (TEXT("%s: CHub(%s tier %d)::DisableDevice - address = %d, pipeIndex = %d\n"),GetControllerName(), GetDeviceType(), m_tierNumber, address, fReset) );
; 1278 :     HCD_REQUEST_STATUS status = requestIgnored;
; 1279 :     if (address == m_address ) { // If it is this device

  00008	e5de3020	 ldrb        r3, [lr, #0x20]
  0000c	e3a00002	 mov         r0, #2
  00010	e1510003	 cmp         r1, r3
  00014	1a000005	 bne         |$LN1@DisableDev|

; 1280 :         m_pAttachedHub->DisableOffStreamDevice( address, fReset);

  00018	e59e0004	 ldr         r0, [lr, #4]
  0001c	e5903000	 ldr         r3, [r0]
  00020	e593303c	 ldr         r3, [r3, #0x3C]
  00024	e1a0e00f	 mov         lr, pc
  00028	e12fff13	 bx          r3

; 1281 :         status = requestOK;

  0002c	e3a00001	 mov         r0, #1
  00030		 |$LN1@DisableDev|

; 1282 :     }
; 1283 :     return status;
; 1284 : }

  00030	e49de004	 ldr         lr, [sp], #4
  00034	e12fff1e	 bx          lr
  00038		 |$M37972|

			 ENDP  ; |?DisableDevice@CDevice@@UAA?AW4HCD_REQUEST_STATUS@@IH@Z|, CDevice::DisableDevice


  00000			 AREA	 |.pdata|, PDATA
|$T37987| DCD	|$LN8@SuspendRes|
	DCD	0x40001a01
; Function compile flags: /Ogspy

  00000			 AREA	 |.text|, CODE, ARM

  00000		 |?SuspendResume@CDevice@@UAA?AW4HCD_REQUEST_STATUS@@IH@Z| PROC ; CDevice::SuspendResume

; 1302 : {

  00000		 |$LN8@SuspendRes|
  00000	e92d40f0	 stmdb       sp!, {r4 - r7, lr}
  00004		 |$M37984|
  00004	e1a06002	 mov         r6, r2
  00008	e1a07001	 mov         r7, r1
  0000c	e1a05000	 mov         r5, r0

; 1303 :     DEBUGMSG( ZONE_HUB && ZONE_VERBOSE, (TEXT("%s: +CHub(%s tier %d)::SuspendResume - address = %d, fSuspend = %d\n"),GetControllerName(), GetDeviceType(), m_tierNumber, address, fSuspend) );
; 1304 : 
; 1305 :     HCD_REQUEST_STATUS status = requestIgnored;
; 1306 : 
; 1307 :     EnterCriticalSection( &m_csDeviceLock );

  00010	e285000c	 add         r0, r5, #0xC
  00014	e3a04002	 mov         r4, #2
  00018	eb000000	 bl          EnterCriticalSection

; 1308 :     if ( address == m_address ) {

  0001c	e5d53020	 ldrb        r3, [r5, #0x20]
  00020	e1570003	 cmp         r7, r3
  00024	1a00000a	 bne         |$LN1@SuspendRes|

; 1309 :         if (m_pAttachedHub->SuspendResumeOffStreamDevice(address, fSuspend)) {

  00028	e5950004	 ldr         r0, [r5, #4]
  0002c	e1a02006	 mov         r2, r6
  00030	e1a01007	 mov         r1, r7
  00034	e5903000	 ldr         r3, [r0]
  00038	e5933040	 ldr         r3, [r3, #0x40]
  0003c	e1a0e00f	 mov         lr, pc
  00040	e12fff13	 bx          r3
  00044	e3500000	 cmp         r0, #0

; 1310 :             m_fIsSuspend=fSuspend;
; 1311 :             status = requestOK;

  00048	13a04001	 movne       r4, #1

; 1312 :         }
; 1313 :         else
; 1314 :             status = requestFailed;

  0004c	03a04000	 moveq       r4, #0
  00050	15856058	 strne       r6, [r5, #0x58]
  00054		 |$LN1@SuspendRes|

; 1315 :     }
; 1316 :     LeaveCriticalSection( &m_csDeviceLock );

  00054	e285000c	 add         r0, r5, #0xC
  00058	eb000000	 bl          LeaveCriticalSection

; 1317 :     DEBUGMSG( ZONE_HUB && ZONE_VERBOSE, (TEXT("%s: -CHub(%s tier %d)::SuspendResume - address = %d, returing HCD_REQUEST_STATUS %d\n"),GetControllerName(), GetDeviceType(), m_tierNumber, address, status) );
; 1318 :     return status;
; 1319 : }

  0005c	e1a00004	 mov         r0, r4
  00060	e8bd40f0	 ldmia       sp!, {r4 - r7, lr}
  00064	e12fff1e	 bx          lr
  00068		 |$M37985|

			 ENDP  ; |?SuspendResume@CDevice@@UAA?AW4HCD_REQUEST_STATUS@@IH@Z|, CDevice::SuspendResume

	EXPORT	|?GetDescriptor@CHub@@IAAHQAVCPipeAbs@@EEEGPAX@Z| ; CHub::GetDescriptor
	IMPORT	|WaitForSingleObject|
; File c:\wince600\public\common\sdk\inc\kfuncs.h

  00000			 AREA	 |.pdata|, PDATA
|$T38019| DCD	|$LN22@GetDescrip|
	DCD	0x40006e02
; Function compile flags: /Ogspy
; File c:\wince600\platform\common\src\soc\common_ti_v1\omap3530\musb\musbhcd\usb2com\cdevice.cpp

  00000			 AREA	 |.text|, CODE, ARM

  00000		 |?GetDescriptor@CHub@@IAAHQAVCPipeAbs@@EEEGPAX@Z| PROC ; CHub::GetDescriptor

; 2004 : {

  00000		 |$LN22@GetDescrip|
  00000	e92d4ff0	 stmdb       sp!, {r4 - r11, lr}
  00004	e24dd054	 sub         sp, sp, #0x54
  00008		 |$M38016|
  00008	e1a0b003	 mov         r11, r3
  0000c	e5cd2038	 strb        r2, [sp, #0x38]
  00010	e58d1048	 str         r1, [sp, #0x48]
  00014	e1a09000	 mov         r9, r0
  00018	e3a03c01	 mov         r3, #1, 24

; 2005 :     DEBUGMSG( ZONE_ATTACH && ZONE_VERBOSE, (TEXT("%s: +CHub(%s tier %d)::GetDescriptor - address = %d, Type = %d, Index = %d, Size = %d\n"),GetControllerName(), GetDeviceType(), m_tierNumber, address, descriptorType, descriptorIndex, wDescriptorSize) );
; 2006 : 
; 2007 :     PREFAST_DEBUGCHK( pControlPipe != NULL );
; 2008 :     PREFAST_DEBUGCHK( pBuffer != NULL );
; 2009 :     DEBUGCHK( m_hHubStatusChangeEvent != NULL );
; 2010 : 
; 2011 :     BOOL                fTransferDone = FALSE;
; 2012 :     DWORD               dwBytesTransferred = 0;
; 2013 :     DWORD               dwErrorFlags = USB_NOT_COMPLETE_ERROR;
; 2014 :     HCD_REQUEST_STATUS  status = requestFailed;
; 2015 :     USB_DEVICE_REQUEST  usbRequest;
; 2016 : 
; 2017 :     if ( descriptorType == USB_HUB_DESCRIPTOR_TYPE ) {

  0001c	e35b0029	 cmp         r11, #0x29
  00020	e3834003	 orr         r4, r3, #3

; 2018 :         DEBUGCHK( descriptorIndex == 0 &&
; 2019 :                   wDescriptorSize >= USB_HUB_DESCRIPTOR_MINIMUM_SIZE );
; 2020 :         usbRequest.bmRequestType = USB_REQUEST_DEVICE_TO_HOST | USB_REQUEST_CLASS | USB_REQUEST_FOR_DEVICE;

  00024	03a030a0	 moveq       r3, #0xA0

; 2021 :     } else {
; 2022 :         DEBUGCHK( (descriptorType == USB_DEVICE_DESCRIPTOR_TYPE && descriptorIndex == 0 && (wDescriptorSize == ENDPOINT_ZERO_MIN_MAXPACKET_SIZE || wDescriptorSize == sizeof( USB_DEVICE_DESCRIPTOR ) ) ) ||
; 2023 :                   (descriptorType == USB_CONFIGURATION_DESCRIPTOR_TYPE && wDescriptorSize >= sizeof( USB_CONFIGURATION_DESCRIPTOR ) ) );
; 2024 :         usbRequest.bmRequestType = USB_REQUEST_DEVICE_TO_HOST | USB_REQUEST_STANDARD | USB_REQUEST_FOR_DEVICE;

  00028	13a03080	 movne       r3, #0x80
  0002c	e5cd304c	 strb        r3, [sp, #0x4C]

; 2025 :     }
; 2026 :     usbRequest.bRequest = USB_REQUEST_GET_DESCRIPTOR;
; 2027 :     usbRequest.wValue = USB_DESCRIPTOR_MAKE_TYPE_AND_INDEX(descriptorType, descriptorIndex);

  00030	e5dd3078	 ldrb        r3, [sp, #0x78]

; 2028 :     usbRequest.wIndex = 0;
; 2029 :     usbRequest.wLength = wDescriptorSize;

  00034	e1dd07bc	 ldrh        r0, [sp, #0x7C]

; 2030 : 
; 2031 :     if ( !m_fHubThreadClosing ) {

  00038	e59920b8	 ldr         r2, [r9, #0xB8]
  0003c	e183340b	 orr         r3, r3, r11, lsl #8
  00040	e3a0e000	 mov         lr, #0
  00044	e3a05000	 mov         r5, #0
  00048	e3a07006	 mov         r7, #6
  0004c	e3a08000	 mov         r8, #0
  00050	e59da080	 ldr         r10, [sp, #0x80]
  00054	e1cd34be	 strh        r3, [sp, #0x4E]
  00058	e58d4044	 str         r4, [sp, #0x44]
  0005c	e58de03c	 str         lr, [sp, #0x3C]
  00060	e58d5040	 str         r5, [sp, #0x40]
  00064	e3a06000	 mov         r6, #0
  00068	e5cd704d	 strb        r7, [sp, #0x4D]
  0006c	e1cd85b0	 strh        r8, [sp, #0x50]
  00070	e1cd05b2	 strh        r0, [sp, #0x52]
  00074	e3520000	 cmp         r2, #0
  00078	1a00003b	 bne         |$LN13@GetDescrip|

; 2032 :         status = pControlPipe->IssueTransfer(
; 2033 :                                  address, // address of device
; 2034 :                                  TransferDoneCallbackSetEvent, // callback routine
; 2035 :                                  m_hHubStatusChangeEvent, // callback param
; 2036 :                                  USB_IN_TRANSFER | USB_SEND_TO_DEVICE, // transfer flags
; 2037 :                                  &usbRequest, // control request
; 2038 :                                  0, // dwStartingFrame (not used)
; 2039 :                                  0, // dwFrames (not used)
; 2040 :                                  NULL, // aLengths (not used)
; 2041 :                                  wDescriptorSize, // buffer size
; 2042 :                                  pBuffer, // buffer
; 2043 :                                  0, // phys addr of buffer (not used)
; 2044 :                                  this, // cancel ID
; 2045 :                                  NULL, // adwIsochErrors (not used)
; 2046 :                                  NULL, // adwIsochLengths (not used)
; 2047 :                                  &fTransferDone, // OUT status param
; 2048 :                                  &dwBytesTransferred, // OUT status param
; 2049 :                                  &dwErrorFlags ); // OUT status param

  0007c	e28d4044	 add         r4, sp, #0x44
  00080	e58d4034	 str         r4, [sp, #0x34]
  00084	e1dd47bc	 ldrh        r4, [sp, #0x7C]
  00088	e5911000	 ldr         r1, [r1]
  0008c	e28d5040	 add         r5, sp, #0x40
  00090	e58d4014	 str         r4, [sp, #0x14]
  00094	e591800c	 ldr         r8, [r1, #0xC]
  00098	e58d5030	 str         r5, [sp, #0x30]
  0009c	e3a04d42	 mov         r4, #0x42, 26
  000a0	e59930bc	 ldr         r3, [r9, #0xBC]
  000a4	e59f2108	 ldr         r2, [pc, #0x108]
  000a8	e28d603c	 add         r6, sp, #0x3C
  000ac	e28d704c	 add         r7, sp, #0x4C
  000b0	e5dd1038	 ldrb        r1, [sp, #0x38]
  000b4	e59d0048	 ldr         r0, [sp, #0x48]
  000b8	e3a05000	 mov         r5, #0
  000bc	e58d4000	 str         r4, [sp]
  000c0	e58d602c	 str         r6, [sp, #0x2C]
  000c4	e58d5028	 str         r5, [sp, #0x28]
  000c8	e58d5024	 str         r5, [sp, #0x24]
  000cc	e58d9020	 str         r9, [sp, #0x20]
  000d0	e58d501c	 str         r5, [sp, #0x1C]
  000d4	e58da018	 str         r10, [sp, #0x18]
  000d8	e58d5010	 str         r5, [sp, #0x10]
  000dc	e58d500c	 str         r5, [sp, #0xC]
  000e0	e58d5008	 str         r5, [sp, #8]
  000e4	e58d7004	 str         r7, [sp, #4]
  000e8	e1a0e00f	 mov         lr, pc
  000ec	e12fff18	 bx          r8
  000f0	e1a06000	 mov         r6, r0

; 2050 : 
; 2051 :         if ( status == requestOK ) {

  000f4	e3560001	 cmp         r6, #1
  000f8	1a000017	 bne         |$LN17@GetDescrip|

; 2052 :             DWORD dwResult = WaitForSingleObject( m_hHubStatusChangeEvent, STANDARD_REQUEST_TIMEOUT );

  000fc	e59900bc	 ldr         r0, [r9, #0xBC]
  00100	e3a01f7d	 mov         r1, #0x7D, 30
  00104	eb000000	 bl          WaitForSingleObject

; 2053 :             if (!fTransferDone || dwResult!= WAIT_OBJECT_0) {

  00108	e59de03c	 ldr         lr, [sp, #0x3C]
  0010c	e35e0000	 cmp         lr, #0
  00110	0a000001	 beq         |$LN3@GetDescrip|
  00114	e3500000	 cmp         r0, #0

; 2058 :                     ResetEvent(m_hHubStatusChangeEvent);

  00118	0a000010	 beq         |$LN19@GetDescrip|
  0011c		 |$LN3@GetDescrip|

; 2054 :                 pControlPipe->AbortTransfer( NULL, // callback function
; 2055 :                                              NULL, // callback parameter
; 2056 :                                              this ); // cancel ID

  0011c	e59d0048	 ldr         r0, [sp, #0x48]
  00120	e1a03009	 mov         r3, r9
  00124	e3a02000	 mov         r2, #0
  00128	e5901000	 ldr         r1, [r0]
  0012c	e5914010	 ldr         r4, [r1, #0x10]
  00130	e3a01000	 mov         r1, #0
  00134	e1a0e00f	 mov         lr, pc
  00138	e12fff14	 bx          r4

; 2057 :                 if ( !m_fHubThreadClosing && m_hHubStatusChangeEvent!=NULL ) {

  0013c	e59930b8	 ldr         r3, [r9, #0xB8]
  00140	e3530000	 cmp         r3, #0
  00144	1a000004	 bne         |$LN17@GetDescrip|
  00148	e59930bc	 ldr         r3, [r9, #0xBC]
  0014c	e3530000	 cmp         r3, #0

; 2058 :                     ResetEvent(m_hHubStatusChangeEvent);

  00150	13a01002	 movne       r1, #2
  00154	11a00003	 movne       r0, r3
  00158	1b000000	 blne        EventModify
  0015c		 |$LN17@GetDescrip|
  0015c	e59de03c	 ldr         lr, [sp, #0x3C]
  00160		 |$LN19@GetDescrip|
  00160	e1dd07bc	 ldrh        r0, [sp, #0x7C]
  00164	e59d4044	 ldr         r4, [sp, #0x44]
  00168	e59d5040	 ldr         r5, [sp, #0x40]
  0016c		 |$LN13@GetDescrip|

; 2059 :                 }
; 2060 :             }
; 2061 :         }
; 2062 :         DEBUGCHK( fTransferDone );
; 2063 :     }
; 2064 : 
; 2065 : #ifndef USB_STRICT_ENFORCEMENT
; 2066 :     // Some IHVs have lazy firmware writers who didn't bother to set the
; 2067 :     // descriptor type field in all of their descriptors. Sigh.
; 2068 :     if ( PUSB_COMMON_DESCRIPTOR(pBuffer)->bDescriptorType == 0 ) {

  0016c	e5da3001	 ldrb        r3, [r10, #1]
  00170	e3530000	 cmp         r3, #0

; 2069 :         DEBUGMSG(ZONE_WARNING, (TEXT("CHub::GetDescriptor - forcing descr type 0x%x to 0x%x\n"), PUSB_COMMON_DESCRIPTOR(pBuffer)->bDescriptorType, descriptorType));
; 2070 :         PUSB_COMMON_DESCRIPTOR(pBuffer)->bDescriptorType = descriptorType;

  00174	05cab001	 streqb      r11, [r10, #1]

; 2071 :     }
; 2072 : #endif
; 2073 : 
; 2074 :     BOOL fSuccess = (status == requestOK &&
; 2075 :                     fTransferDone &&
; 2076 :                     dwBytesTransferred == wDescriptorSize &&
; 2077 :                     dwErrorFlags == USB_NO_ERROR &&
; 2078 :                     PUSB_COMMON_DESCRIPTOR(pBuffer)->bDescriptorType == descriptorType);

  00178	e3560001	 cmp         r6, #1
  0017c	1a000008	 bne         |$LN11@GetDescrip|
  00180	e35e0000	 cmp         lr, #0
  00184	0a000006	 beq         |$LN11@GetDescrip|
  00188	e1550000	 cmp         r5, r0
  0018c	1a000004	 bne         |$LN11@GetDescrip|
  00190	e3540000	 cmp         r4, #0
  00194	05da3001	 ldreqb      r3, [r10, #1]
  00198	0153000b	 cmpeq       r3, r11
  0019c	03a00001	 moveq       r0, #1
  001a0	0a000000	 beq         |$LN12@GetDescrip|
  001a4		 |$LN11@GetDescrip|
  001a4	e3a00000	 mov         r0, #0
  001a8		 |$LN12@GetDescrip|

; 2079 :     // note, don't check length since some descriptors can be variable
; 2080 :     // length (i.e. configuration descriptor bLength field will read
; 2081 :     // sizeof( USB_CONFIGURATION_DESCRIPTOR ), but we may have requested
; 2082 :     // more than this. Or, we may only have requested USB_HUB_DESCRIPTOR_MINIMUM_SIZE
; 2083 :     // but the hub descriptor can be longer.
; 2084 : 
; 2085 :     DEBUGMSG( ZONE_ATTACH && ZONE_VERBOSE, (TEXT("%s: -CHub(%s tier %d)::GetDescriptor - address = %d, Type = %d, Index = %d, Size = %d, returning %d\n"),GetControllerName(), GetDeviceType(), m_tierNumber, address, descriptorType, descriptorIndex, wDescriptorSize, fSuccess) );
; 2086 :     return fSuccess;
; 2087 : }

  001a8	e28dd054	 add         sp, sp, #0x54
  001ac	e8bd4ff0	 ldmia       sp!, {r4 - r11, lr}
  001b0	e12fff1e	 bx          lr
  001b4		 |$LN23@GetDescrip|
  001b4		 |$LN24@GetDescrip|
  001b4	00000000	 DCD         |?TransferDoneCallbackSetEvent@CDevice@@KAKPAX@Z|
  001b8		 |$M38017|

			 ENDP  ; |?GetDescriptor@CHub@@IAAHQAVCPipeAbs@@EEEGPAX@Z|, CHub::GetDescriptor

	EXPORT	|?DetachDownstreamDeviceThread@CHub@@IAAKXZ| ; CHub::DetachDownstreamDeviceThread
; File c:\wince600\platform\common\src\soc\common_ti_v1\omap3530\musb\musbhcd\usb2com\cdevice.hpp

  00000			 AREA	 |.pdata|, PDATA
|$T38044| DCD	|$LN11@DetachDown|
	DCD	0x40001901
; Function compile flags: /Ogspy
; File c:\wince600\platform\common\src\soc\common_ti_v1\omap3530\musb\musbhcd\usb2com\cdevice.cpp

  00000			 AREA	 |.text|, CODE, ARM

  00000		 |?DetachDownstreamDeviceThread@CHub@@IAAKXZ| PROC ; CHub::DetachDownstreamDeviceThread

; 2112 : {

  00000		 |$LN11@DetachDown|
  00000	e92d4030	 stmdb       sp!, {r4, r5, lr}
  00004		 |$M38041|
  00004	e1a05000	 mov         r5, r0

; 2113 :     DEBUGMSG( ZONE_ATTACH, (TEXT("%s: +CHub::DetachDownstreamDeviceThread\n"),GetControllerName()) );
; 2114 : 
; 2115 :     CDevice* pDeviceToDetach = m_pDetachedDevice;//(CDevice*) context;
; 2116 :     m_pDetachedDevice=NULL;
; 2117 :     SetEvent(m_pDetachedDeviceHandled);

  00008	e5950064	 ldr         r0, [r5, #0x64]
  0000c	e5954060	 ldr         r4, [r5, #0x60]
  00010	e3a03000	 mov         r3, #0
  00014	e3a01003	 mov         r1, #3
  00018	e5853060	 str         r3, [r5, #0x60]
  0001c	eb000000	 bl          EventModify

; 2118 :     PREFAST_DEBUGCHK( pDeviceToDetach != NULL );
; 2119 : 
; 2120 :     pDeviceToDetach->HandleDetach();

  00020	e5943000	 ldr         r3, [r4]
  00024	e1a00004	 mov         r0, r4
  00028	e5933030	 ldr         r3, [r3, #0x30]
  0002c	e1a0e00f	 mov         lr, pc
  00030	e12fff13	 bx          r3

; 2121 :     delete pDeviceToDetach;

  00034	e5943000	 ldr         r3, [r4]
  00038	e3a01001	 mov         r1, #1
  0003c	e1a00004	 mov         r0, r4
  00040	e5933000	 ldr         r3, [r3]
  00044	e1a0e00f	 mov         lr, pc
  00048	e12fff13	 bx          r3

; 2122 : 
; 2123 :     //DecrCountdown(&m_objCountdown);
; 2124 :     m_pDeviceGlobal->ObjCountdownDec();

  0004c	e5953050	 ldr         r3, [r5, #0x50]
  00050	e2830054	 add         r0, r3, #0x54
  00054	eb000000	 bl          |?DecrCountdown@Countdown@@QAAXXZ|

; 2125 : 
; 2126 :     DEBUGMSG( ZONE_ATTACH, (TEXT("%s: -CHub::DetachDownstreamDeviceThread\n"),GetControllerName()) );
; 2127 : 
; 2128 :     return 0;

  00058	e3a00000	 mov         r0, #0

; 2129 : }

  0005c	e8bd4030	 ldmia       sp!, {r4, r5, lr}
  00060	e12fff1e	 bx          lr
  00064		 |$M38042|

			 ENDP  ; |?DetachDownstreamDeviceThread@CHub@@IAAKXZ|, CHub::DetachDownstreamDeviceThread

	EXPORT	|?AllocateDeviceArray@CHub@@IAAHXZ|	; CHub::AllocateDeviceArray

  00000			 AREA	 |.pdata|, PDATA
|$T38060| DCD	|$LN11@AllocateDe|
	DCD	0x40002801
; Function compile flags: /Ogspy

  00000			 AREA	 |.text|, CODE, ARM

  00000		 |?AllocateDeviceArray@CHub@@IAAHXZ| PROC ; CHub::AllocateDeviceArray

; 2220 : {

  00000		 |$LN11@AllocateDe|
  00000	e92d4030	 stmdb       sp!, {r4, r5, lr}
  00004		 |$M38057|
  00004	e1a04000	 mov         r4, r0

; 2221 :     DEBUGMSG( ZONE_HUB && ZONE_VERBOSE, (TEXT("%s: +CHub(%s tier %d)::AllocateDeviceArray\n"),GetControllerName(), GetDeviceType(), m_tierNumber) );
; 2222 : 
; 2223 :     BOOL fSuccess = FALSE;
; 2224 : 
; 2225 :     EnterCriticalSection( &m_csDeviceLock  );

  00008	e284000c	 add         r0, r4, #0xC
  0000c	e3a05000	 mov         r5, #0
  00010	eb000000	 bl          EnterCriticalSection

; 2226 : 
; 2227 :     DEBUGCHK( m_ppCDeviceOnPort == NULL &&
; 2228 :               m_usbHubDescriptor.bNumberOfPorts > 0 );
; 2229 : 
; 2230 :     DEBUGMSG( ZONE_HUB && ZONE_VERBOSE, (TEXT("%s: CHub(%s tier %d)::AllocateDeviceArray - attempting to allocate %d devices\n"),GetControllerName(), GetDeviceType(), m_tierNumber, m_usbHubDescriptor.bNumberOfPorts ) );
; 2231 :     m_ppCDeviceOnPort = new CDevice* [ m_usbHubDescriptor.bNumberOfPorts ];

  00014	e5d4306a	 ldrb        r3, [r4, #0x6A]
  00018	e1a00103	 mov         r0, r3, lsl #2
  0001c	eb000000	 bl          |??2@YAPAXI@Z|

; 2232 :     m_pAddedTT = new BOOL [m_usbHubDescriptor.bNumberOfPorts ];

  00020	e5d4306a	 ldrb        r3, [r4, #0x6A]
  00024	e58400b0	 str         r0, [r4, #0xB0]
  00028	e1a00103	 mov         r0, r3, lsl #2
  0002c	eb000000	 bl          |??2@YAPAXI@Z|

; 2233 :     if ( m_ppCDeviceOnPort != NULL && m_pAddedTT!=NULL ) {

  00030	e59430b0	 ldr         r3, [r4, #0xB0]
  00034	e58400b4	 str         r0, [r4, #0xB4]
  00038	e1b02003	 movs        r2, r3
  0003c	0a000012	 beq         |$LN4@AllocateDe|
  00040	e3500000	 cmp         r0, #0
  00044	0a000010	 beq         |$LN4@AllocateDe|

; 2234 :         memset( m_ppCDeviceOnPort, 0, m_usbHubDescriptor.bNumberOfPorts * sizeof( CDevice* ) );

  00048	e5d4306a	 ldrb        r3, [r4, #0x6A]
  0004c	e1a00002	 mov         r0, r2
  00050	e3a01000	 mov         r1, #0
  00054	e1a02103	 mov         r2, r3, lsl #2
  00058	eb000000	 bl          memset

; 2235 :         for (DWORD dwIndex=0;dwIndex<m_usbHubDescriptor.bNumberOfPorts; dwIndex++)

  0005c	e5d4306a	 ldrb        r3, [r4, #0x6A]
  00060	e3a02000	 mov         r2, #0
  00064	e3530000	 cmp         r3, #0
  00068	0a000006	 beq         |$LN1@AllocateDe|
  0006c	e3a01000	 mov         r1, #0
  00070		 |$LL3@AllocateDe|

; 2236 :             m_pAddedTT[dwIndex] = NULL;

  00070	e59430b4	 ldr         r3, [r4, #0xB4]
  00074	e7831102	 str         r1, [r3, +r2, lsl #2]
  00078	e5d4306a	 ldrb        r3, [r4, #0x6A]
  0007c	e2822001	 add         r2, r2, #1
  00080	e1520003	 cmp         r2, r3
  00084	3afffff9	 bcc         |$LL3@AllocateDe|
  00088		 |$LN1@AllocateDe|

; 2237 :         fSuccess = TRUE;

  00088	e3a05001	 mov         r5, #1
  0008c		 |$LN4@AllocateDe|

; 2238 :     }
; 2239 :     DEBUGMSG( ZONE_HUB && ZONE_ERROR && !m_ppCDeviceOnPort, (TEXT("%s: CHub(%s tier %d)::AllocateDeviceArray - no memory!\n"),GetControllerName(), GetDeviceType(), m_tierNumber ) );
; 2240 : 
; 2241 :     LeaveCriticalSection( &m_csDeviceLock );

  0008c	e284000c	 add         r0, r4, #0xC
  00090	eb000000	 bl          LeaveCriticalSection

; 2242 : 
; 2243 :     DEBUGMSG( ZONE_HUB && ZONE_VERBOSE, (TEXT("%s: -CHub(%s tier %d)::AllocateDeviceArray, returning BOOL %d\n"),GetControllerName(), GetDeviceType(), m_tierNumber, fSuccess) );
; 2244 :     return fSuccess;
; 2245 : }

  00094	e1a00005	 mov         r0, r5
  00098	e8bd4030	 ldmia       sp!, {r4, r5, lr}
  0009c	e12fff1e	 bx          lr
  000a0		 |$M38058|

			 ENDP  ; |?AllocateDeviceArray@CHub@@IAAHXZ|, CHub::AllocateDeviceArray

	EXPORT	|?HandleDetach@CHub@@UAAXXZ|		; CHub::HandleDetach
	IMPORT	|CloseHandle|
; File c:\wince600\platform\common\src\soc\common_ti_v1\omap3530\musb\musbhcd\usb2com\cdevice.hpp

  00000			 AREA	 |.pdata|, PDATA
|$T38112| DCD	|$LN46@HandleDeta|
	DCD	0x40005d01
; Function compile flags: /Ogspy
; File c:\wince600\platform\common\src\soc\common_ti_v1\omap3530\musb\musbhcd\usb2com\cdevice.cpp

  00000			 AREA	 |.text|, CODE, ARM

  00000		 |?HandleDetach@CHub@@UAAXXZ| PROC	; CHub::HandleDetach

; 2258 : {

  00000		 |$LN46@HandleDeta|
  00000	e92d40f0	 stmdb       sp!, {r4 - r7, lr}
  00004		 |$M38109|
  00004	e1a04000	 mov         r4, r0

; 2259 :     DEBUGMSG( ZONE_HUB || ZONE_ATTACH, (TEXT("%s: +CHub(%s tier %d)::HandleDetach\n"),GetControllerName(), GetDeviceType(), m_tierNumber) );
; 2260 : 
; 2261 :     // close our hub thread
; 2262 :     DEBUGCHK( m_hHubStatusChangeEvent && m_hHubStatusChangeThread );
; 2263 :     // tell the thread to abort port status change processing.
; 2264 :     // ***DO NOT*** enter m_csDeviceLock here, otherwise we will
; 2265 :     // block the thread trying to close
; 2266 :     m_fHubThreadClosing = TRUE;
; 2267 :     SetEvent( m_hHubStatusChangeEvent );

  00008	e59400bc	 ldr         r0, [r4, #0xBC]
  0000c	e3a03001	 mov         r3, #1
  00010	e3a01003	 mov         r1, #3
  00014	e58430b8	 str         r3, [r4, #0xB8]
  00018	eb000000	 bl          EventModify

; 2268 :     SetEvent( m_hHubSuspendBlockEvent );

  0001c	e59400c4	 ldr         r0, [r4, #0xC4]
  00020	e3a01003	 mov         r1, #3
  00024	eb000000	 bl          EventModify

; 2269 : 
; 2270 :     // If we are the root hub then this is a total shutdown rather than a detach,
; 2271 :     // so we force anybody in the middle of address assignment to give up.
; 2272 :     if (m_tierNumber == 0)

  00028	e5d4304c	 ldrb        r3, [r4, #0x4C]
  0002c	e3530000	 cmp         r3, #0

; 2273 :         //PrepareDeleteCritSec_Ex( &m_csAddress0Lock );
; 2274 :         m_pDeviceGlobal->Addr0LockPrepareDelete();

  00030	05943050	 ldreq       r3, [r4, #0x50]
  00034	0283002c	 addeq       r0, r3, #0x2C
  00038	0b000000	 bleq        |?PrepareDeleteCritSec_Ex@CritSec_Ex@@QAAXXZ|
  0003c		 |$LL10@HandleDeta|

; 2275 : 
; 2276 :     // In the case where the hub was detached right when a new function was
; 2277 :     // being attached on one of its ports, the hub thread can be at
; 2278 :     // AttachDevice - DEVICE_CONFIG_STATUS_SIGNAL_NEW_DEVICE_ENTER_OPERATIONAL_STATE.
; 2279 :     // At this point, the thread is somewhere in USBD.DLL, and not in UHCI.DLL, and we
; 2280 :     // need to wait until USBD is finished. USBD can have a dialog up asking the
; 2281 :     // user for the driver's DLL name. So, we don't want to just blindly call
; 2282 :     // TerminateThread if the wait fails.
; 2283 :     DWORD dwWaitReturn = WAIT_FAILED;
; 2284 : #ifdef DEBUG
; 2285 :     DWORD dwTickCountStart = GetTickCount();
; 2286 : #endif // DEBUG
; 2287 :     do {
; 2288 :         dwWaitReturn = WaitForSingleObject( m_hHubStatusChangeThread, 1000 );

  0003c	e59400c0	 ldr         r0, [r4, #0xC0]
  00040	e3a01ffa	 mov         r1, #0xFA, 30
  00044	eb000000	 bl          WaitForSingleObject
  00048	e3500000	 cmp         r0, #0

; 2289 :         DEBUGMSG( ZONE_WARNING && dwWaitReturn != WAIT_OBJECT_0, (TEXT("%s: CHub(%s tier %d)::HandleDetach - hub thread blocked - could be waiting for user input\n"),GetControllerName(), GetDeviceType(), m_tierNumber) );
; 2290 :     } while ( dwWaitReturn != WAIT_OBJECT_0 );

  0004c	1afffffa	 bne         |$LL10@HandleDeta|

; 2291 :     DEBUGMSG( ZONE_ATTACH, (TEXT("%s: CHub(%s tier %d)::HandleDetach - status change thread closed in %d ms\n"),GetControllerName(), GetDeviceType(), m_tierNumber, GetTickCount() - dwTickCountStart ) );
; 2292 : 
; 2293 :     EnterCriticalSection( &m_csDeviceLock );

  00050	e284000c	 add         r0, r4, #0xC
  00054	eb000000	 bl          EnterCriticalSection

; 2294 : 
; 2295 : #ifdef DEBUG
; 2296 :     if ( m_address == 0 ) {
; 2297 :         // root hub - no pipes
; 2298 :         DEBUGCHK( m_ppCPipe == NULL &&
; 2299 :                   m_maxNumPipes == 0 );
; 2300 :     } else {
; 2301 :         // external hub - should have two pipes
; 2302 :         DEBUGCHK( m_ppCPipe != NULL &&
; 2303 :                   m_maxNumPipes == 2 &&
; 2304 :                   m_ppCPipe[ ENDPOINT0_CONTROL_PIPE ] != NULL &&
; 2305 :                   m_ppCPipe[ STATUS_CHANGE_INTERRUPT_PIPE ] != NULL );
; 2306 :     }
; 2307 : #endif // DEBUG
; 2308 :     for ( UCHAR pipe = 0; m_ppCPipe!=NULL && pipe < m_maxNumPipes; pipe++ ) {

  00058	e3a05000	 mov         r5, #0
  0005c	e3a07000	 mov         r7, #0
  00060	ea000015	 b           |$LN43@HandleDeta|
  00064		 |$LL7@HandleDeta|
  00064	e5d43054	 ldrb        r3, [r4, #0x54]
  00068	e1550003	 cmp         r5, r3
  0006c	2a000015	 bcs         |$LN41@HandleDeta|

; 2309 :         m_ppCPipe[ pipe ]->ClosePipe();

  00070	e594305c	 ldr         r3, [r4, #0x5C]
  00074	e1a06105	 mov         r6, r5, lsl #2
  00078	e7960003	 ldr         r0, [r6, +r3]
  0007c	e5903000	 ldr         r3, [r0]
  00080	e5933008	 ldr         r3, [r3, #8]
  00084	e1a0e00f	 mov         lr, pc
  00088	e12fff13	 bx          r3

; 2310 :         delete m_ppCPipe[ pipe ];

  0008c	e594305c	 ldr         r3, [r4, #0x5C]
  00090	e7963003	 ldr         r3, [r6, +r3]
  00094	e1b00003	 movs        r0, r3
  00098	15903000	 ldrne       r3, [r0]
  0009c	13a01001	 movne       r1, #1
  000a0	15933000	 ldrne       r3, [r3]
  000a4	11a0e00f	 movne       lr, pc
  000a8	112fff13	 bxne        r3

; 2311 :         m_ppCPipe[ pipe ] = NULL;

  000ac	e594205c	 ldr         r2, [r4, #0x5C]
  000b0	e2853001	 add         r3, r5, #1
  000b4	e20350ff	 and         r5, r3, #0xFF
  000b8	e7867002	 str         r7, [r6, +r2]
  000bc		 |$LN43@HandleDeta|
  000bc	e594305c	 ldr         r3, [r4, #0x5C]
  000c0	e3530000	 cmp         r3, #0
  000c4	1affffe6	 bne         |$LL7@HandleDeta|
  000c8		 |$LN41@HandleDeta|

; 2312 :     }
; 2313 :     // m_ppCPipe[] will be freed in ~CDevice
; 2314 : 
; 2315 :     // if m_ppCDeviceOnPort was not allocated ok, EnterOperationalState
; 2316 :     // would have failed, and we should never be at HandleDetach stage.
; 2317 :     PREFAST_DEBUGCHK( m_ppCDeviceOnPort != NULL );
; 2318 :     // we need to detach all the devices on our ports
; 2319 :     for ( UCHAR port = 1; port <= m_usbHubDescriptor.bNumberOfPorts; port++ ) {

  000c8	e5d4306a	 ldrb        r3, [r4, #0x6A]
  000cc	e3a05001	 mov         r5, #1
  000d0	e3530001	 cmp         r3, #1
  000d4	3a00001c	 bcc         |$LN2@HandleDeta|
  000d8	e3a06001	 mov         r6, #1
  000dc		 |$LL4@HandleDeta|

; 2320 :         // Don't call DetachDevice, because that function is intended for
; 2321 :         // when this hub is active. It has the extra overhead of spinning off
; 2322 :         // a thread to do the detach work. Instead, just call the HandleDetach
; 2323 :         // procedure directly
; 2324 :         if ( m_ppCDeviceOnPort[ port - 1 ] != NULL ) {

  000dc	e59430b0	 ldr         r3, [r4, #0xB0]
  000e0	e0832105	 add         r2, r3, r5, lsl #2
  000e4	e5123004	 ldr         r3, [r2, #-4]
  000e8	e3530000	 cmp         r3, #0
  000ec	0a000010	 beq         |$LN3@HandleDeta|

; 2325 :             m_ppCDeviceOnPort[ port - 1 ]->HandleDetach();

  000f0	e1a00003	 mov         r0, r3
  000f4	e5903000	 ldr         r3, [r0]
  000f8	e5933030	 ldr         r3, [r3, #0x30]
  000fc	e1a0e00f	 mov         lr, pc
  00100	e12fff13	 bx          r3

; 2326 :             delete m_ppCDeviceOnPort[ port - 1 ];

  00104	e59430b0	 ldr         r3, [r4, #0xB0]
  00108	e0833105	 add         r3, r3, r5, lsl #2
  0010c	e5133004	 ldr         r3, [r3, #-4]
  00110	e1b00003	 movs        r0, r3
  00114	15903000	 ldrne       r3, [r0]
  00118	13a01001	 movne       r1, #1
  0011c	15933000	 ldrne       r3, [r3]
  00120	11a0e00f	 movne       lr, pc
  00124	112fff13	 bxne        r3

; 2327 :             m_ppCDeviceOnPort[ port - 1 ] = NULL;

  00128	e59430b0	 ldr         r3, [r4, #0xB0]
  0012c	e0833105	 add         r3, r3, r5, lsl #2
  00130	e5037004	 str         r7, [r3, #-4]
  00134		 |$LN3@HandleDeta|
  00134	e5d4206a	 ldrb        r2, [r4, #0x6A]
  00138	e2863001	 add         r3, r6, #1
  0013c	e20350ff	 and         r5, r3, #0xFF
  00140	e1a06005	 mov         r6, r5
  00144	e1550002	 cmp         r5, r2
  00148	9affffe3	 bls         |$LL4@HandleDeta|
  0014c		 |$LN2@HandleDeta|

; 2328 :         }
; 2329 :     }
; 2330 :     // m_ppCDeviceOnPort[] will be freed in ~CHub
; 2331 : 
; 2332 :     // Now that all pipes are closed, we can close our thread/event handles.
; 2333 :     // If we did this earlier, we would risk having a callback from an
; 2334 :     // active pipe, and having TransferDoneCallbackSetEvent accidentally
; 2335 :     // set a dead m_hHubStatusChangeEvent
; 2336 :     CloseHandle( m_hHubStatusChangeThread );

  0014c	e59400c0	 ldr         r0, [r4, #0xC0]
  00150	eb000000	 bl          CloseHandle

; 2337 :     m_hHubStatusChangeThread = NULL;
; 2338 : 
; 2339 :     CloseHandle( m_hHubStatusChangeEvent );

  00154	e59400bc	 ldr         r0, [r4, #0xBC]
  00158	e58470c0	 str         r7, [r4, #0xC0]
  0015c	eb000000	 bl          CloseHandle

; 2340 :     m_hHubStatusChangeEvent = NULL;
; 2341 : 
; 2342 :     LeaveCriticalSection( &m_csDeviceLock );

  00160	e284000c	 add         r0, r4, #0xC
  00164	e58470bc	 str         r7, [r4, #0xBC]
  00168	eb000000	 bl          LeaveCriticalSection

; 2343 : 
; 2344 :     DEBUGMSG( ZONE_HUB || ZONE_ATTACH, (TEXT("%s: -CHub(%s tier %d)::HandleDetach\n"),GetControllerName(), GetDeviceType(), m_tierNumber ) );
; 2345 : }

  0016c	e8bd40f0	 ldmia       sp!, {r4 - r7, lr}
  00170	e12fff1e	 bx          lr
  00174		 |$M38110|

			 ENDP  ; |?HandleDetach@CHub@@UAAXXZ|, CHub::HandleDetach

	EXPORT	|?OpenPipe@CHub@@UAA?AW4HCD_REQUEST_STATUS@@IQBU_USB_ENDPOINT_DESCRIPTOR@@QAI@Z| ; CHub::OpenPipe

  00000			 AREA	 |.pdata|, PDATA
|$T38129| DCD	|$LN11@OpenPipe|
	DCD	0x40002501
; Function compile flags: /Ogspy

  00000			 AREA	 |.text|, CODE, ARM

  00000		 |?OpenPipe@CHub@@UAA?AW4HCD_REQUEST_STATUS@@IQBU_USB_ENDPOINT_DESCRIPTOR@@QAI@Z| PROC ; CHub::OpenPipe

; 2369 : {

  00000		 |$LN11@OpenPipe|
  00000	e92d43f0	 stmdb       sp!, {r4 - r9, lr}
  00004		 |$M38126|
  00004	e1a07003	 mov         r7, r3
  00008	e1a08002	 mov         r8, r2
  0000c	e1a09001	 mov         r9, r1
  00010	e1a05000	 mov         r5, r0

; 2370 :     DEBUGMSG( ZONE_HUB && ZONE_VERBOSE, (TEXT("%s: +CHub(%s tier %d)::OpenPipe - address = %d\n"),GetControllerName(), GetDeviceType(), m_tierNumber, address) );
; 2371 : 
; 2372 :     HCD_REQUEST_STATUS status = requestIgnored;
; 2373 : 
; 2374 :     EnterCriticalSection( &m_csDeviceLock );

  00014	e285000c	 add         r0, r5, #0xC
  00018	e3a04002	 mov         r4, #2
  0001c	eb000000	 bl          EnterCriticalSection

; 2375 : 
; 2376 :     // no one should be calling OpenPipe on hubs, since we handle
; 2377 :     // hubs internally.
; 2378 :     DEBUGCHK( address != m_address );
; 2379 : 
; 2380 :     PREFAST_DEBUGCHK( m_ppCDeviceOnPort != NULL );
; 2381 :     for ( UCHAR port = 1; status == requestIgnored && port <= m_usbHubDescriptor.bNumberOfPorts; port++ ) {

  00020	e3a06001	 mov         r6, #1
  00024		 |$LL4@OpenPipe|
  00024	e5d5e06a	 ldrb        lr, [r5, #0x6A]
  00028	e156000e	 cmp         r6, lr
  0002c	8a000013	 bhi         |$LN2@OpenPipe|

; 2382 :         if ( m_ppCDeviceOnPort[ port - 1 ] != NULL ) {

  00030	e595e0b0	 ldr         lr, [r5, #0xB0]
  00034	e08ee106	 add         lr, lr, r6, lsl #2
  00038	e51ee004	 ldr         lr, [lr, #-4]
  0003c	e35e0000	 cmp         lr, #0
  00040	0a00000a	 beq         |$LN3@OpenPipe|

; 2383 :             status = m_ppCDeviceOnPort[ port - 1 ]->OpenPipe( address,
; 2384 :                                                               lpEndpointDescriptor,
; 2385 :                                                               lpiEndpointIndex );

  00044	e595e0b0	 ldr         lr, [r5, #0xB0]
  00048	e1a03007	 mov         r3, r7
  0004c	e1a02008	 mov         r2, r8
  00050	e08e1106	 add         r1, lr, r6, lsl #2
  00054	e5110004	 ldr         r0, [r1, #-4]
  00058	e1a01009	 mov         r1, r9
  0005c	e5904000	 ldr         r4, [r0]
  00060	e5944008	 ldr         r4, [r4, #8]
  00064	e1a0e00f	 mov         lr, pc
  00068	e12fff14	 bx          r4
  0006c	e1a04000	 mov         r4, r0
  00070		 |$LN3@OpenPipe|
  00070	e2863001	 add         r3, r6, #1
  00074	e20360ff	 and         r6, r3, #0xFF
  00078	e3540002	 cmp         r4, #2
  0007c	0affffe8	 beq         |$LL4@OpenPipe|
  00080		 |$LN2@OpenPipe|

; 2386 :         }
; 2387 :     }
; 2388 : 
; 2389 :     LeaveCriticalSection( &m_csDeviceLock );

  00080	e285000c	 add         r0, r5, #0xC
  00084	eb000000	 bl          LeaveCriticalSection

; 2390 : 
; 2391 :     DEBUGMSG( ZONE_HUB && ZONE_VERBOSE, (TEXT("-CHub(%s tier %d)::OpenPipe - address = %d, returing HCD_REQUEST_STATUS %d\n"), GetDeviceType(), m_tierNumber, address, status) );
; 2392 :     return status;
; 2393 : }

  00088	e1a00004	 mov         r0, r4
  0008c	e8bd43f0	 ldmia       sp!, {r4 - r9, lr}
  00090	e12fff1e	 bx          lr
  00094		 |$M38127|

			 ENDP  ; |?OpenPipe@CHub@@UAA?AW4HCD_REQUEST_STATUS@@IQBU_USB_ENDPOINT_DESCRIPTOR@@QAI@Z|, CHub::OpenPipe

	EXPORT	|?ClosePipe@CHub@@UAA?AW4HCD_REQUEST_STATUS@@II@Z| ; CHub::ClosePipe

  00000			 AREA	 |.pdata|, PDATA
|$T38145| DCD	|$LN11@ClosePipe|
	DCD	0x40002301
; Function compile flags: /Ogspy

  00000			 AREA	 |.text|, CODE, ARM

  00000		 |?ClosePipe@CHub@@UAA?AW4HCD_REQUEST_STATUS@@II@Z| PROC ; CHub::ClosePipe

; 2411 : {

  00000		 |$LN11@ClosePipe|
  00000	e92d41f0	 stmdb       sp!, {r4 - r8, lr}
  00004		 |$M38142|
  00004	e1a07002	 mov         r7, r2
  00008	e1a08001	 mov         r8, r1
  0000c	e1a04000	 mov         r4, r0

; 2412 :     DEBUGMSG( ZONE_HUB && ZONE_VERBOSE, (TEXT("+CHub(%s tier %d)::ClosePipe - address = %d, pipeIndex = %d\n"), GetDeviceType(), m_tierNumber, address, pipeIndex) );
; 2413 : 
; 2414 :     HCD_REQUEST_STATUS status = requestIgnored;
; 2415 : 
; 2416 :     EnterCriticalSection( &m_csDeviceLock );

  00010	e284000c	 add         r0, r4, #0xC
  00014	e3a06002	 mov         r6, #2
  00018	eb000000	 bl          EnterCriticalSection

; 2417 : 
; 2418 :     // no one should be calling ClosePipe on hubs, since we handle
; 2419 :     // hubs internally.
; 2420 :     DEBUGCHK( address != m_address );
; 2421 : 
; 2422 :     PREFAST_DEBUGCHK( m_ppCDeviceOnPort != NULL );
; 2423 :     for ( UCHAR port = 1; status == requestIgnored && port <= m_usbHubDescriptor.bNumberOfPorts; port++ ) {

  0001c	e3a05001	 mov         r5, #1
  00020		 |$LL4@ClosePipe|
  00020	e5d4306a	 ldrb        r3, [r4, #0x6A]
  00024	e1550003	 cmp         r5, r3
  00028	8a000012	 bhi         |$LN2@ClosePipe|

; 2424 :         if ( m_ppCDeviceOnPort[ port - 1 ] != NULL ) {

  0002c	e59430b0	 ldr         r3, [r4, #0xB0]
  00030	e0833105	 add         r3, r3, r5, lsl #2
  00034	e5133004	 ldr         r3, [r3, #-4]
  00038	e3530000	 cmp         r3, #0
  0003c	0a000009	 beq         |$LN3@ClosePipe|

; 2425 :             status = m_ppCDeviceOnPort[ port - 1 ]->ClosePipe( address,
; 2426 :                                                                pipeIndex );

  00040	e59430b0	 ldr         r3, [r4, #0xB0]
  00044	e1a02007	 mov         r2, r7
  00048	e1a01008	 mov         r1, r8
  0004c	e0833105	 add         r3, r3, r5, lsl #2
  00050	e5130004	 ldr         r0, [r3, #-4]
  00054	e5903000	 ldr         r3, [r0]
  00058	e593300c	 ldr         r3, [r3, #0xC]
  0005c	e1a0e00f	 mov         lr, pc
  00060	e12fff13	 bx          r3
  00064	e1a06000	 mov         r6, r0
  00068		 |$LN3@ClosePipe|
  00068	e2853001	 add         r3, r5, #1
  0006c	e20350ff	 and         r5, r3, #0xFF
  00070	e3560002	 cmp         r6, #2
  00074	0affffe9	 beq         |$LL4@ClosePipe|
  00078		 |$LN2@ClosePipe|

; 2427 :         }
; 2428 :     }
; 2429 : 
; 2430 :     LeaveCriticalSection( &m_csDeviceLock );

  00078	e284000c	 add         r0, r4, #0xC
  0007c	eb000000	 bl          LeaveCriticalSection

; 2431 : 
; 2432 :     DEBUGMSG( ZONE_HUB && ZONE_VERBOSE, (TEXT("%s: -CHub(%s tier %d)::ClosePipe - address = %d, pipeIndex = %d, returing HCD_REQUEST_STATUS %d\n"),GetControllerName(), GetDeviceType(), m_tierNumber, address, pipeIndex, status) );
; 2433 :     return status;
; 2434 : }

  00080	e1a00006	 mov         r0, r6
  00084	e8bd41f0	 ldmia       sp!, {r4 - r8, lr}
  00088	e12fff1e	 bx          lr
  0008c		 |$M38143|

			 ENDP  ; |?ClosePipe@CHub@@UAA?AW4HCD_REQUEST_STATUS@@II@Z|, CHub::ClosePipe

	EXPORT	|?IssueTransfer@CHub@@UAA?AW4HCD_REQUEST_STATUS@@IIQ6AKPAX@ZQAXKQBXKKQBKK2K3QAK5QAH55@Z| ; CHub::IssueTransfer

  00000			 AREA	 |.pdata|, PDATA
|$T38177| DCD	|$LN11@IssueTrans|
	DCD	0x40004602
; Function compile flags: /Ogspy

  00000			 AREA	 |.text|, CODE, ARM

  00000		 |?IssueTransfer@CHub@@UAA?AW4HCD_REQUEST_STATUS@@IIQ6AKPAX@ZQAXKQBXKKQBKK2K3QAK5QAH55@Z| PROC ; CHub::IssueTransfer

; 2471 : {

  00000		 |$LN11@IssueTrans|
  00000	e92d4ff0	 stmdb       sp!, {r4 - r11, lr}
  00004	e24dd03c	 sub         sp, sp, #0x3C
  00008		 |$M38174|
  00008	e1a07003	 mov         r7, r3
  0000c	e1a08002	 mov         r8, r2
  00010	e1a09001	 mov         r9, r1
  00014	e1a05000	 mov         r5, r0

; 2472 :     DEBUGMSG( ZONE_HUB && ZONE_VERBOSE, (TEXT("+CHub(%s tier %d)::IssueTransfer, address = %d, pipe = %d\n"), GetDeviceType(), m_tierNumber, address, pipeIndex));
; 2473 : 
; 2474 :     HCD_REQUEST_STATUS status = requestIgnored;
; 2475 : 
; 2476 :     EnterCriticalSection( &m_csDeviceLock );

  00018	e285000c	 add         r0, r5, #0xC
  0001c	e3a04002	 mov         r4, #2
  00020	eb000000	 bl          EnterCriticalSection

; 2477 : 
; 2478 :     // no one should be calling IssueTransfer on hubs, since we handle
; 2479 :     // hubs internally.
; 2480 :     DEBUGCHK( address != m_address );
; 2481 : 
; 2482 :     PREFAST_DEBUGCHK( m_ppCDeviceOnPort != NULL );
; 2483 :     for ( UCHAR port = 1; status == requestIgnored && port <= m_usbHubDescriptor.bNumberOfPorts; port++ ) {

  00024	e59da098	 ldr         r10, [sp, #0x98]
  00028	e59db094	 ldr         r11, [sp, #0x94]
  0002c	e3a06001	 mov         r6, #1
  00030		 |$LL4@IssueTrans|
  00030	e5d5306a	 ldrb        r3, [r5, #0x6A]
  00034	e1560003	 cmp         r6, r3
  00038	8a000030	 bhi         |$LN2@IssueTrans|

; 2484 :         if ( m_ppCDeviceOnPort[ port - 1 ] != NULL ) {            

  0003c	e59530b0	 ldr         r3, [r5, #0xB0]
  00040	e0833106	 add         r3, r3, r6, lsl #2
  00044	e5133004	 ldr         r3, [r3, #-4]
  00048	e3530000	 cmp         r3, #0
  0004c	0a000027	 beq         |$LN3@IssueTrans|

; 2485 :             status = m_ppCDeviceOnPort[ port - 1 ]->IssueTransfer(
; 2486 :                                                         address,
; 2487 :                                                         pipeIndex,
; 2488 :                                                         lpStartAddress,
; 2489 :                                                         lpvNotifyParameter,
; 2490 :                                                         dwFlags,
; 2491 :                                                         lpvControlHeader,
; 2492 :                                                         dwStartingFrame,
; 2493 :                                                         dwFrames,
; 2494 :                                                         aLengths,
; 2495 :                                                         dwBufferSize,
; 2496 :                                                         lpvBuffer,
; 2497 :                                                         paBuffer,
; 2498 :                                                         lpvCancelId,
; 2499 :                                                         adwIsochErrors,
; 2500 :                                                         adwIsochLengths,
; 2501 :                                                         lpfComplete,
; 2502 :                                                         lpdwBytesTransfered,
; 2503 :                                                         lpdwError );

  00050	e58da038	 str         r10, [sp, #0x38]
  00054	e59da090	 ldr         r10, [sp, #0x90]
  00058	e59510b0	 ldr         r1, [r5, #0xB0]
  0005c	e1a03007	 mov         r3, r7
  00060	e58da030	 str         r10, [sp, #0x30]
  00064	e59da08c	 ldr         r10, [sp, #0x8C]
  00068	e0811106	 add         r1, r1, r6, lsl #2
  0006c	e5110004	 ldr         r0, [r1, #-4]
  00070	e58da02c	 str         r10, [sp, #0x2C]
  00074	e59da088	 ldr         r10, [sp, #0x88]
  00078	e5904000	 ldr         r4, [r0]
  0007c	e1a02008	 mov         r2, r8
  00080	e58da028	 str         r10, [sp, #0x28]
  00084	e59da084	 ldr         r10, [sp, #0x84]
  00088	e5944010	 ldr         r4, [r4, #0x10]
  0008c	e1a01009	 mov         r1, r9
  00090	e58da024	 str         r10, [sp, #0x24]
  00094	e59da080	 ldr         r10, [sp, #0x80]
  00098	e58db034	 str         r11, [sp, #0x34]
  0009c	e58da020	 str         r10, [sp, #0x20]
  000a0	e59da07c	 ldr         r10, [sp, #0x7C]
  000a4	e58da01c	 str         r10, [sp, #0x1C]
  000a8	e59da078	 ldr         r10, [sp, #0x78]
  000ac	e58da018	 str         r10, [sp, #0x18]
  000b0	e59da074	 ldr         r10, [sp, #0x74]
  000b4	e58da014	 str         r10, [sp, #0x14]
  000b8	e59da070	 ldr         r10, [sp, #0x70]
  000bc	e58da010	 str         r10, [sp, #0x10]
  000c0	e59da06c	 ldr         r10, [sp, #0x6C]
  000c4	e58da00c	 str         r10, [sp, #0xC]
  000c8	e59da068	 ldr         r10, [sp, #0x68]
  000cc	e58da008	 str         r10, [sp, #8]
  000d0	e59da064	 ldr         r10, [sp, #0x64]
  000d4	e58da004	 str         r10, [sp, #4]
  000d8	e59da060	 ldr         r10, [sp, #0x60]
  000dc	e58da000	 str         r10, [sp]
  000e0	e1a0e00f	 mov         lr, pc
  000e4	e12fff14	 bx          r4
  000e8	e59da098	 ldr         r10, [sp, #0x98]
  000ec	e1a04000	 mov         r4, r0
  000f0		 |$LN3@IssueTrans|
  000f0	e2863001	 add         r3, r6, #1
  000f4	e20360ff	 and         r6, r3, #0xFF
  000f8	e3540002	 cmp         r4, #2
  000fc	0affffcb	 beq         |$LL4@IssueTrans|
  00100		 |$LN2@IssueTrans|

; 2504 :         }
; 2505 :     }
; 2506 : 
; 2507 :     LeaveCriticalSection( &m_csDeviceLock );

  00100	e285000c	 add         r0, r5, #0xC
  00104	eb000000	 bl          LeaveCriticalSection

; 2508 : 
; 2509 :     DEBUGMSG( ZONE_HUB && ZONE_VERBOSE, (TEXT("-CHub(%s tier %d)::IssueTransfer address = %d, pipe = %d, returing HCD_REQUEST_STATUS %d\n"), GetDeviceType(), m_tierNumber, address, pipeIndex, status ) );
; 2510 :     return status;
; 2511 : }

  00108	e1a00004	 mov         r0, r4
  0010c	e28dd03c	 add         sp, sp, #0x3C
  00110	e8bd4ff0	 ldmia       sp!, {r4 - r11, lr}
  00114	e12fff1e	 bx          lr
  00118		 |$M38175|

			 ENDP  ; |?IssueTransfer@CHub@@UAA?AW4HCD_REQUEST_STATUS@@IIQ6AKPAX@ZQAXKQBXKKQBKK2K3QAK5QAH55@Z|, CHub::IssueTransfer

	EXPORT	|?AbortTransfer@CHub@@UAA?AW4HCD_REQUEST_STATUS@@IIQ6AKPAX@ZQAXQBX@Z| ; CHub::AbortTransfer

  00000			 AREA	 |.pdata|, PDATA
|$T38196| DCD	|$LN11@AbortTrans|
	DCD	0x40002b02
; Function compile flags: /Ogspy

  00000			 AREA	 |.text|, CODE, ARM

  00000		 |?AbortTransfer@CHub@@UAA?AW4HCD_REQUEST_STATUS@@IIQ6AKPAX@ZQAXQBX@Z| PROC ; CHub::AbortTransfer

; 2534 : {

  00000		 |$LN11@AbortTrans|
  00000	e92d4ff0	 stmdb       sp!, {r4 - r11, lr}
  00004	e24dd008	 sub         sp, sp, #8
  00008		 |$M38193|
  00008	e1a07003	 mov         r7, r3
  0000c	e1a08002	 mov         r8, r2
  00010	e1a09001	 mov         r9, r1
  00014	e1a05000	 mov         r5, r0

; 2535 :     DEBUGMSG( ZONE_HUB && ZONE_VERBOSE, (TEXT("%s: +CHub(%s tier %d)::AbortTransfer - address = %d, pipeIndex = %d\n"),GetControllerName(), GetDeviceType(), m_tierNumber, address, pipeIndex) );
; 2536 : 
; 2537 :     HCD_REQUEST_STATUS status = requestIgnored;
; 2538 : 
; 2539 :     EnterCriticalSection( &m_csDeviceLock );

  00018	e285000c	 add         r0, r5, #0xC
  0001c	e3a04002	 mov         r4, #2
  00020	eb000000	 bl          EnterCriticalSection

; 2540 : 
; 2541 :     // no one should be calling AbortTransfer on hubs, since we handle
; 2542 :     // hubs internally.
; 2543 :     DEBUGCHK( address != m_address );
; 2544 : 
; 2545 :     PREFAST_DEBUGCHK( m_ppCDeviceOnPort != NULL );
; 2546 :     for ( UCHAR port = 1; status == requestIgnored && port <= m_usbHubDescriptor.bNumberOfPorts; port++ ) {

  00024	e59da030	 ldr         r10, [sp, #0x30]
  00028	e59db02c	 ldr         r11, [sp, #0x2C]
  0002c	e3a06001	 mov         r6, #1
  00030		 |$LL4@AbortTrans|
  00030	e5d5e06a	 ldrb        lr, [r5, #0x6A]
  00034	e156000e	 cmp         r6, lr
  00038	8a000015	 bhi         |$LN2@AbortTrans|

; 2547 :         if ( m_ppCDeviceOnPort[ port - 1 ] != NULL ) {

  0003c	e595e0b0	 ldr         lr, [r5, #0xB0]
  00040	e08ee106	 add         lr, lr, r6, lsl #2
  00044	e51ee004	 ldr         lr, [lr, #-4]
  00048	e35e0000	 cmp         lr, #0
  0004c	0a00000c	 beq         |$LN3@AbortTrans|

; 2548 :             status = m_ppCDeviceOnPort[ port - 1 ]->AbortTransfer( address,
; 2549 :                                                                    pipeIndex,
; 2550 :                                                                    lpCancelAddress,
; 2551 :                                                                    lpvNotifyParameter,
; 2552 :                                                                    lpvCancelId );

  00050	e59510b0	 ldr         r1, [r5, #0xB0]
  00054	e1a03007	 mov         r3, r7
  00058	e1a02008	 mov         r2, r8
  0005c	e0811106	 add         r1, r1, r6, lsl #2
  00060	e5110004	 ldr         r0, [r1, #-4]
  00064	e1a01009	 mov         r1, r9
  00068	e58da004	 str         r10, [sp, #4]
  0006c	e5904000	 ldr         r4, [r0]
  00070	e58db000	 str         r11, [sp]
  00074	e5944014	 ldr         r4, [r4, #0x14]
  00078	e1a0e00f	 mov         lr, pc
  0007c	e12fff14	 bx          r4
  00080	e1a04000	 mov         r4, r0
  00084		 |$LN3@AbortTrans|
  00084	e2863001	 add         r3, r6, #1
  00088	e20360ff	 and         r6, r3, #0xFF
  0008c	e3540002	 cmp         r4, #2
  00090	0affffe6	 beq         |$LL4@AbortTrans|
  00094		 |$LN2@AbortTrans|

; 2553 :         }
; 2554 :     }
; 2555 : 
; 2556 :     LeaveCriticalSection( &m_csDeviceLock );

  00094	e285000c	 add         r0, r5, #0xC
  00098	eb000000	 bl          LeaveCriticalSection

; 2557 : 
; 2558 :     DEBUGMSG( ZONE_HUB && ZONE_VERBOSE, (TEXT("%s: -CHub(%s tier %d)::AbortTransfer - address = %d, pipeIndex = %d, returing HCD_REQUEST_STATUS %d\n"),GetControllerName(), GetDeviceType(), m_tierNumber, address, pipeIndex, status) );
; 2559 :     return status;
; 2560 : }

  0009c	e1a00004	 mov         r0, r4
  000a0	e28dd008	 add         sp, sp, #8
  000a4	e8bd4ff0	 ldmia       sp!, {r4 - r11, lr}
  000a8	e12fff1e	 bx          lr
  000ac		 |$M38194|

			 ENDP  ; |?AbortTransfer@CHub@@UAA?AW4HCD_REQUEST_STATUS@@IIQ6AKPAX@ZQAXQBX@Z|, CHub::AbortTransfer

	EXPORT	|?IsPipeHalted@CHub@@UAA?AW4HCD_REQUEST_STATUS@@IIQAH@Z| ; CHub::IsPipeHalted

  00000			 AREA	 |.pdata|, PDATA
|$T38213| DCD	|$LN11@IsPipeHalt|
	DCD	0x40002501
; Function compile flags: /Ogspy

  00000			 AREA	 |.text|, CODE, ARM

  00000		 |?IsPipeHalted@CHub@@UAA?AW4HCD_REQUEST_STATUS@@IIQAH@Z| PROC ; CHub::IsPipeHalted

; 2581 : {

  00000		 |$LN11@IsPipeHalt|
  00000	e92d43f0	 stmdb       sp!, {r4 - r9, lr}
  00004		 |$M38210|
  00004	e1a07003	 mov         r7, r3
  00008	e1a08002	 mov         r8, r2
  0000c	e1a09001	 mov         r9, r1
  00010	e1a05000	 mov         r5, r0

; 2582 :     DEBUGMSG( ZONE_HUB && ZONE_VERBOSE, (TEXT("+CHub(%s tier %d)::IsPipeHalted - address = %d, pipeIndex = %d\n"), GetDeviceType(), m_tierNumber, address, pipeIndex) );
; 2583 : 
; 2584 :     HCD_REQUEST_STATUS status = requestIgnored;
; 2585 : 
; 2586 :     EnterCriticalSection( &m_csDeviceLock );

  00014	e285000c	 add         r0, r5, #0xC
  00018	e3a04002	 mov         r4, #2
  0001c	eb000000	 bl          EnterCriticalSection

; 2587 : 
; 2588 :     // no one should be calling IsPipeHalted on hubs, since we handle
; 2589 :     // hubs internally.
; 2590 :     DEBUGCHK( address != m_address );
; 2591 : 
; 2592 :     PREFAST_DEBUGCHK( m_ppCDeviceOnPort != NULL );
; 2593 :     for ( UCHAR port = 1; status == requestIgnored && port <= m_usbHubDescriptor.bNumberOfPorts; port++ ) {

  00020	e3a06001	 mov         r6, #1
  00024		 |$LL4@IsPipeHalt|
  00024	e5d5e06a	 ldrb        lr, [r5, #0x6A]
  00028	e156000e	 cmp         r6, lr
  0002c	8a000013	 bhi         |$LN2@IsPipeHalt|

; 2594 :         if ( m_ppCDeviceOnPort[ port - 1 ] != NULL ) {

  00030	e595e0b0	 ldr         lr, [r5, #0xB0]
  00034	e08ee106	 add         lr, lr, r6, lsl #2
  00038	e51ee004	 ldr         lr, [lr, #-4]
  0003c	e35e0000	 cmp         lr, #0
  00040	0a00000a	 beq         |$LN3@IsPipeHalt|

; 2595 :             status = m_ppCDeviceOnPort[ port - 1 ]->IsPipeHalted( address,
; 2596 :                                                                   pipeIndex,
; 2597 :                                                                   lpbHalted );

  00044	e595e0b0	 ldr         lr, [r5, #0xB0]
  00048	e1a03007	 mov         r3, r7
  0004c	e1a02008	 mov         r2, r8
  00050	e08e1106	 add         r1, lr, r6, lsl #2
  00054	e5110004	 ldr         r0, [r1, #-4]
  00058	e1a01009	 mov         r1, r9
  0005c	e5904000	 ldr         r4, [r0]
  00060	e5944018	 ldr         r4, [r4, #0x18]
  00064	e1a0e00f	 mov         lr, pc
  00068	e12fff14	 bx          r4
  0006c	e1a04000	 mov         r4, r0
  00070		 |$LN3@IsPipeHalt|
  00070	e2863001	 add         r3, r6, #1
  00074	e20360ff	 and         r6, r3, #0xFF
  00078	e3540002	 cmp         r4, #2
  0007c	0affffe8	 beq         |$LL4@IsPipeHalt|
  00080		 |$LN2@IsPipeHalt|

; 2598 :         }
; 2599 :     }
; 2600 : 
; 2601 :     LeaveCriticalSection( &m_csDeviceLock );

  00080	e285000c	 add         r0, r5, #0xC
  00084	eb000000	 bl          LeaveCriticalSection

; 2602 : 
; 2603 :     DEBUGMSG( ZONE_HUB && ZONE_VERBOSE, (TEXT("%s: -CHub(%s tier %d)::IsPipeHalted - address = %d, pipe = %d, returing HCD_REQUEST_STATUS %d\n"),GetControllerName(), GetDeviceType(), m_tierNumber, address, pipeIndex, status) );
; 2604 :     return status;
; 2605 : }

  00088	e1a00004	 mov         r0, r4
  0008c	e8bd43f0	 ldmia       sp!, {r4 - r9, lr}
  00090	e12fff1e	 bx          lr
  00094		 |$M38211|

			 ENDP  ; |?IsPipeHalted@CHub@@UAA?AW4HCD_REQUEST_STATUS@@IIQAH@Z|, CHub::IsPipeHalted

	EXPORT	|?ResetPipe@CHub@@UAA?AW4HCD_REQUEST_STATUS@@II@Z| ; CHub::ResetPipe

  00000			 AREA	 |.pdata|, PDATA
|$T38229| DCD	|$LN11@ResetPipe|
	DCD	0x40002301
; Function compile flags: /Ogspy

  00000			 AREA	 |.text|, CODE, ARM

  00000		 |?ResetPipe@CHub@@UAA?AW4HCD_REQUEST_STATUS@@II@Z| PROC ; CHub::ResetPipe

; 2623 : {

  00000		 |$LN11@ResetPipe|
  00000	e92d41f0	 stmdb       sp!, {r4 - r8, lr}
  00004		 |$M38226|
  00004	e1a07002	 mov         r7, r2
  00008	e1a08001	 mov         r8, r1
  0000c	e1a04000	 mov         r4, r0

; 2624 :     DEBUGMSG( ZONE_HUB && ZONE_VERBOSE, (TEXT("+CHub(%s tier %d)::ResetPipe - address = %d, pipeIndex = %d\n"), GetDeviceType(), m_tierNumber, address, pipeIndex) );
; 2625 : 
; 2626 :     HCD_REQUEST_STATUS status = requestIgnored;
; 2627 : 
; 2628 :     EnterCriticalSection( &m_csDeviceLock );

  00010	e284000c	 add         r0, r4, #0xC
  00014	e3a06002	 mov         r6, #2
  00018	eb000000	 bl          EnterCriticalSection

; 2629 : 
; 2630 :     // no one should be calling ResetPipe on hubs, since we handle
; 2631 :     // hubs internally.
; 2632 :     DEBUGCHK( address != m_address );
; 2633 :     PREFAST_DEBUGCHK( m_ppCDeviceOnPort!=NULL );
; 2634 :     
; 2635 :     DEBUGCHK( m_ppCDeviceOnPort != NULL );
; 2636 :     for ( UCHAR port = 1; status == requestIgnored && port <= m_usbHubDescriptor.bNumberOfPorts; port++ ) {

  0001c	e3a05001	 mov         r5, #1
  00020		 |$LL4@ResetPipe|
  00020	e5d4306a	 ldrb        r3, [r4, #0x6A]
  00024	e1550003	 cmp         r5, r3
  00028	8a000012	 bhi         |$LN2@ResetPipe|

; 2637 :         if ( m_ppCDeviceOnPort[ port - 1 ] != NULL ) {

  0002c	e59430b0	 ldr         r3, [r4, #0xB0]
  00030	e0833105	 add         r3, r3, r5, lsl #2
  00034	e5133004	 ldr         r3, [r3, #-4]
  00038	e3530000	 cmp         r3, #0
  0003c	0a000009	 beq         |$LN3@ResetPipe|

; 2638 :             status = m_ppCDeviceOnPort[ port - 1 ]->ResetPipe( address,
; 2639 :                                                                pipeIndex );

  00040	e59430b0	 ldr         r3, [r4, #0xB0]
  00044	e1a02007	 mov         r2, r7
  00048	e1a01008	 mov         r1, r8
  0004c	e0833105	 add         r3, r3, r5, lsl #2
  00050	e5130004	 ldr         r0, [r3, #-4]
  00054	e5903000	 ldr         r3, [r0]
  00058	e593301c	 ldr         r3, [r3, #0x1C]
  0005c	e1a0e00f	 mov         lr, pc
  00060	e12fff13	 bx          r3
  00064	e1a06000	 mov         r6, r0
  00068		 |$LN3@ResetPipe|
  00068	e2853001	 add         r3, r5, #1
  0006c	e20350ff	 and         r5, r3, #0xFF
  00070	e3560002	 cmp         r6, #2
  00074	0affffe9	 beq         |$LL4@ResetPipe|
  00078		 |$LN2@ResetPipe|

; 2640 :         }
; 2641 :     }
; 2642 : 
; 2643 :     LeaveCriticalSection( &m_csDeviceLock );

  00078	e284000c	 add         r0, r4, #0xC
  0007c	eb000000	 bl          LeaveCriticalSection

; 2644 : 
; 2645 :     DEBUGMSG( ZONE_HUB && ZONE_VERBOSE, (TEXT("%s: -CHub(%s tier %d)::ResetPipe - address = %d, pipeIndex = %d, returing HCD_REQUEST_STATUS %d\n"),GetControllerName(), GetDeviceType(), m_tierNumber, address, pipeIndex, status) );
; 2646 :     return status;
; 2647 : }

  00080	e1a00006	 mov         r0, r6
  00084	e8bd41f0	 ldmia       sp!, {r4 - r8, lr}
  00088	e12fff1e	 bx          lr
  0008c		 |$M38227|

			 ENDP  ; |?ResetPipe@CHub@@UAA?AW4HCD_REQUEST_STATUS@@II@Z|, CHub::ResetPipe

	EXPORT	|?DisableDevice@CHub@@UAA?AW4HCD_REQUEST_STATUS@@IH@Z| ; CHub::DisableDevice

  00000			 AREA	 |.pdata|, PDATA
|$T38245| DCD	|$LN13@DisableDev@2|
	DCD	0x40002801
; Function compile flags: /Ogspy

  00000			 AREA	 |.text|, CODE, ARM

  00000		 |?DisableDevice@CHub@@UAA?AW4HCD_REQUEST_STATUS@@IH@Z| PROC ; CHub::DisableDevice

; 2664 : {

  00000		 |$LN13@DisableDev@2|
  00000	e92d41f0	 stmdb       sp!, {r4 - r8, lr}
  00004		 |$M38242|
  00004	e1a08002	 mov         r8, r2
  00008	e1a07001	 mov         r7, r1
  0000c	e1a04000	 mov         r4, r0

; 2665 :     DEBUGMSG( ZONE_HUB && ZONE_VERBOSE, (TEXT("+CHub(%s tier %d)::DisableDevice - address = %d, pipeIndex = %d\n"), GetDeviceType(), m_tierNumber, address, fReset) );
; 2666 : 
; 2667 :     HCD_REQUEST_STATUS status = requestIgnored;
; 2668 : 
; 2669 :     EnterCriticalSection( &m_csDeviceLock );

  00010	e284000c	 add         r0, r4, #0xC
  00014	e3a06002	 mov         r6, #2
  00018	eb000000	 bl          EnterCriticalSection

; 2670 :     if ( address != m_address ) {

  0001c	e5d43020	 ldrb        r3, [r4, #0x20]
  00020	e1570003	 cmp         r7, r3
  00024	0a000017	 beq         |$LN6@DisableDev@2|

; 2671 :         PREFAST_DEBUGCHK( m_ppCDeviceOnPort != NULL );
; 2672 :         for ( UCHAR port = 1; status == requestIgnored && port <= m_usbHubDescriptor.bNumberOfPorts; port++ ) {

  00028	e3a05001	 mov         r5, #1
  0002c		 |$LL5@DisableDev@2|
  0002c	e5d4306a	 ldrb        r3, [r4, #0x6A]
  00030	e1550003	 cmp         r5, r3
  00034	8a000014	 bhi         |$LN1@DisableDev@2|

; 2673 :             if ( m_ppCDeviceOnPort[ port - 1 ] != NULL ) {

  00038	e59430b0	 ldr         r3, [r4, #0xB0]
  0003c	e0833105	 add         r3, r3, r5, lsl #2
  00040	e5133004	 ldr         r3, [r3, #-4]
  00044	e3530000	 cmp         r3, #0
  00048	0a000009	 beq         |$LN4@DisableDev@2|

; 2674 :                 status =  m_ppCDeviceOnPort[ port - 1 ]-> DisableDevice(address, fReset);

  0004c	e59430b0	 ldr         r3, [r4, #0xB0]
  00050	e1a02008	 mov         r2, r8
  00054	e1a01007	 mov         r1, r7
  00058	e0833105	 add         r3, r3, r5, lsl #2
  0005c	e5130004	 ldr         r0, [r3, #-4]
  00060	e5903000	 ldr         r3, [r0]
  00064	e5933020	 ldr         r3, [r3, #0x20]
  00068	e1a0e00f	 mov         lr, pc
  0006c	e12fff13	 bx          r3
  00070	e1a06000	 mov         r6, r0
  00074		 |$LN4@DisableDev@2|
  00074	e2853001	 add         r3, r5, #1
  00078	e20350ff	 and         r5, r3, #0xFF
  0007c	e3560002	 cmp         r6, #2
  00080	0affffe9	 beq         |$LL5@DisableDev@2|

; 2675 :             }
; 2676 :         }
; 2677 :     }
; 2678 :     else { // It should not happens

  00084	ea000000	 b           |$LN1@DisableDev@2|
  00088		 |$LN6@DisableDev@2|

; 2679 :         ASSERT(FALSE);
; 2680 :         status = requestFailed;

  00088	e3a06000	 mov         r6, #0
  0008c		 |$LN1@DisableDev@2|

; 2681 :     }
; 2682 :     LeaveCriticalSection( &m_csDeviceLock );

  0008c	e284000c	 add         r0, r4, #0xC
  00090	eb000000	 bl          LeaveCriticalSection

; 2683 : 
; 2684 :     DEBUGMSG( ZONE_HUB && ZONE_VERBOSE, (TEXT("%s: -CHub(%s tier %d)::DisableDevice - address = %d, returing HCD_REQUEST_STATUS %d\n"),GetControllerName(), GetDeviceType(), m_tierNumber, address, status) );
; 2685 :     return status;
; 2686 : }

  00094	e1a00006	 mov         r0, r6
  00098	e8bd41f0	 ldmia       sp!, {r4 - r8, lr}
  0009c	e12fff1e	 bx          lr
  000a0		 |$M38243|

			 ENDP  ; |?DisableDevice@CHub@@UAA?AW4HCD_REQUEST_STATUS@@IH@Z|, CHub::DisableDevice

	EXPORT	|?NotifyOnSuspendedResumed@CHub@@UAAHH@Z| ; CHub::NotifyOnSuspendedResumed

  00000			 AREA	 |.pdata|, PDATA
|$T38260| DCD	|$LN12@NotifyOnSu@2|
	DCD	0x40001d01
; Function compile flags: /Ogspy

  00000			 AREA	 |.text|, CODE, ARM

  00000		 |?NotifyOnSuspendedResumed@CHub@@UAAHH@Z| PROC ; CHub::NotifyOnSuspendedResumed

; 2688 : {

  00000		 |$LN12@NotifyOnSu@2|
  00000	e92d4070	 stmdb       sp!, {r4 - r6, lr}
  00004		 |$M38257|
  00004	e1a06001	 mov         r6, r1
  00008	e1a05000	 mov         r5, r0

; 2689 :     for ( UCHAR port = 1; m_ppCDeviceOnPort != NULL && port <= m_usbHubDescriptor.bNumberOfPorts; port++ ) {

  0000c	e59530b0	 ldr         r3, [r5, #0xB0]
  00010	e3a04001	 mov         r4, #1
  00014	e1b02003	 movs        r2, r3
  00018	0a000012	 beq         |$LN9@NotifyOnSu@2|
  0001c		 |$LL4@NotifyOnSu@2|
  0001c	e5d5306a	 ldrb        r3, [r5, #0x6A]
  00020	e1540003	 cmp         r4, r3
  00024	8a00000f	 bhi         |$LN9@NotifyOnSu@2|

; 2690 :         if ( m_ppCDeviceOnPort[ port - 1 ] != NULL ) { // Notify all down stream device.

  00028	e0823104	 add         r3, r2, r4, lsl #2
  0002c	e5133004	 ldr         r3, [r3, #-4]
  00030	e3530000	 cmp         r3, #0

; 2691 :             m_ppCDeviceOnPort[ port - 1 ]-> NotifyOnSuspendedResumed(fResumed);

  00034	159530b0	 ldrne       r3, [r5, #0xB0]
  00038	11a01006	 movne       r1, r6
  0003c	10833104	 addne       r3, r3, r4, lsl #2
  00040	15130004	 ldrne       r0, [r3, #-4]
  00044	15903000	 ldrne       r3, [r0]
  00048	1593302c	 ldrne       r3, [r3, #0x2C]
  0004c	11a0e00f	 movne       lr, pc
  00050	112fff13	 bxne        r3
  00054	e59520b0	 ldr         r2, [r5, #0xB0]
  00058	e2843001	 add         r3, r4, #1
  0005c	e20340ff	 and         r4, r3, #0xFF
  00060	e3520000	 cmp         r2, #0
  00064	1affffec	 bne         |$LL4@NotifyOnSu@2|
  00068		 |$LN9@NotifyOnSu@2|

; 2692 :         }
; 2693 :     }
; 2694 :     return TRUE;

  00068	e3a00001	 mov         r0, #1

; 2695 : }

  0006c	e8bd4070	 ldmia       sp!, {r4 - r6, lr}
  00070	e12fff1e	 bx          lr
  00074		 |$M38258|

			 ENDP  ; |?NotifyOnSuspendedResumed@CHub@@UAAHH@Z|, CHub::NotifyOnSuspendedResumed

	EXPORT	|?SuspendResume@CHub@@UAA?AW4HCD_REQUEST_STATUS@@IH@Z| ; CHub::SuspendResume

  00000			 AREA	 |.pdata|, PDATA
|$T38276| DCD	|$LN13@SuspendRes@2|
	DCD	0x40002801
; Function compile flags: /Ogspy

  00000			 AREA	 |.text|, CODE, ARM

  00000		 |?SuspendResume@CHub@@UAA?AW4HCD_REQUEST_STATUS@@IH@Z| PROC ; CHub::SuspendResume

; 2713 : {

  00000		 |$LN13@SuspendRes@2|
  00000	e92d41f0	 stmdb       sp!, {r4 - r8, lr}
  00004		 |$M38273|
  00004	e1a08002	 mov         r8, r2
  00008	e1a07001	 mov         r7, r1
  0000c	e1a04000	 mov         r4, r0

; 2714 :     DEBUGMSG( ZONE_HUB && ZONE_VERBOSE, (TEXT("+CHub(%s tier %d)::SuspendResume - address = %d, fSuspend = %d\n"), GetDeviceType(), m_tierNumber, address, fSuspend) );
; 2715 : 
; 2716 :     HCD_REQUEST_STATUS status = requestIgnored;
; 2717 : 
; 2718 :     EnterCriticalSection( &m_csDeviceLock );

  00010	e284000c	 add         r0, r4, #0xC
  00014	e3a06002	 mov         r6, #2
  00018	eb000000	 bl          EnterCriticalSection

; 2719 :     if ( address != m_address ) {

  0001c	e5d43020	 ldrb        r3, [r4, #0x20]
  00020	e1570003	 cmp         r7, r3
  00024	0a000017	 beq         |$LN6@SuspendRes@2|

; 2720 :         PREFAST_DEBUGCHK( m_ppCDeviceOnPort != NULL );
; 2721 :         for ( UCHAR port = 1; status == requestIgnored && port <= m_usbHubDescriptor.bNumberOfPorts; port++ ) {

  00028	e3a05001	 mov         r5, #1
  0002c		 |$LL5@SuspendRes@2|
  0002c	e5d4306a	 ldrb        r3, [r4, #0x6A]
  00030	e1550003	 cmp         r5, r3
  00034	8a000014	 bhi         |$LN1@SuspendRes@2|

; 2722 :             if ( m_ppCDeviceOnPort[ port - 1 ] != NULL ) {

  00038	e59430b0	 ldr         r3, [r4, #0xB0]
  0003c	e0833105	 add         r3, r3, r5, lsl #2
  00040	e5133004	 ldr         r3, [r3, #-4]
  00044	e3530000	 cmp         r3, #0
  00048	0a000009	 beq         |$LN4@SuspendRes@2|

; 2723 :                 status = m_ppCDeviceOnPort[ port - 1 ] ->SuspendResume(address, fSuspend) ;

  0004c	e59430b0	 ldr         r3, [r4, #0xB0]
  00050	e1a02008	 mov         r2, r8
  00054	e1a01007	 mov         r1, r7
  00058	e0833105	 add         r3, r3, r5, lsl #2
  0005c	e5130004	 ldr         r0, [r3, #-4]
  00060	e5903000	 ldr         r3, [r0]
  00064	e5933024	 ldr         r3, [r3, #0x24]
  00068	e1a0e00f	 mov         lr, pc
  0006c	e12fff13	 bx          r3
  00070	e1a06000	 mov         r6, r0
  00074		 |$LN4@SuspendRes@2|
  00074	e2853001	 add         r3, r5, #1
  00078	e20350ff	 and         r5, r3, #0xFF
  0007c	e3560002	 cmp         r6, #2
  00080	0affffe9	 beq         |$LL5@SuspendRes@2|

; 2724 :             }
; 2725 :         }
; 2726 :     }
; 2727 :     else { // It should not happens

  00084	ea000000	 b           |$LN1@SuspendRes@2|
  00088		 |$LN6@SuspendRes@2|

; 2728 :         ASSERT(FALSE);
; 2729 :         status = requestFailed;

  00088	e3a06000	 mov         r6, #0
  0008c		 |$LN1@SuspendRes@2|

; 2730 :     }
; 2731 :     LeaveCriticalSection( &m_csDeviceLock );

  0008c	e284000c	 add         r0, r4, #0xC
  00090	eb000000	 bl          LeaveCriticalSection

; 2732 :     DEBUGMSG( ZONE_HUB && ZONE_VERBOSE, (TEXT("%s: -CHub(%s tier %d)::SuspendResume - address = %d, returing HCD_REQUEST_STATUS %d\n"),GetControllerName(), GetDeviceType(), m_tierNumber, address, status) );
; 2733 :     return status;
; 2734 : }

  00094	e1a00006	 mov         r0, r6
  00098	e8bd41f0	 ldmia       sp!, {r4 - r8, lr}
  0009c	e12fff1e	 bx          lr
  000a0		 |$M38274|

			 ENDP  ; |?SuspendResume@CHub@@UAA?AW4HCD_REQUEST_STATUS@@IH@Z|, CHub::SuspendResume

	EXPORT	|?SuspendResumeOffStreamDevice@CHub@@UAAHIH@Z| ; CHub::SuspendResumeOffStreamDevice
	IMPORT	|Sleep|
; File c:\wince600\platform\common\src\soc\common_ti_v1\omap3530\musb\musbhcd\usb2com\cdevice.hpp

  00000			 AREA	 |.pdata|, PDATA
|$T38302| DCD	|$LN21@SuspendRes@3|
	DCD	0x40003b01
; Function compile flags: /Ogspy
; File c:\wince600\platform\common\src\soc\common_ti_v1\omap3530\musb\musbhcd\usb2com\cdevice.cpp

  00000			 AREA	 |.text|, CODE, ARM

  00000		 |?SuspendResumeOffStreamDevice@CHub@@UAAHIH@Z| PROC ; CHub::SuspendResumeOffStreamDevice

; 2762 : {

  00000		 |$LN21@SuspendRes@3|
  00000	e92d41f0	 stmdb       sp!, {r4 - r8, lr}
  00004		 |$M38299|
  00004	e1a07002	 mov         r7, r2
  00008	e1a06000	 mov         r6, r0

; 2763 :     DEBUGMSG( ZONE_HUB && ZONE_VERBOSE, (TEXT("%s: +CHub(%s tier %d)::SuspendResume - address = %d, fSuspend = %d\n"),GetControllerName(), GetDeviceType(), m_tierNumber, address, fSuspend) );
; 2764 :     BOOL fReturn = FALSE;
; 2765 :     for ( UCHAR port = 1; port <= m_usbHubDescriptor.bNumberOfPorts; port++ ) {

  0000c	e5d6006a	 ldrb        r0, [r6, #0x6A]
  00010	e3a08000	 mov         r8, #0
  00014	e3a05001	 mov         r5, #1
  00018	e3500001	 cmp         r0, #1
  0001c	3a00002f	 bcc         |$LN18@SuspendRes@3|
  00020	e596e0b0	 ldr         lr, [r6, #0xB0]
  00024		 |$LL6@SuspendRes@3|

; 2766 :         if (m_ppCDeviceOnPort[ port - 1 ]!= NULL && m_ppCDeviceOnPort[ port - 1 ]->GetDeviceAddress()== address) { // Found.

  00024	e08e2105	 add         r2, lr, r5, lsl #2
  00028	e5123004	 ldr         r3, [r2, #-4]
  0002c	e3530000	 cmp         r3, #0
  00030	0a000002	 beq         |$LN5@SuspendRes@3|
  00034	e5d33020	 ldrb        r3, [r3, #0x20]
  00038	e1530001	 cmp         r3, r1
  0003c	0a000004	 beq         |$LN16@SuspendRes@3|
  00040		 |$LN5@SuspendRes@3|

; 2763 :     DEBUGMSG( ZONE_HUB && ZONE_VERBOSE, (TEXT("%s: +CHub(%s tier %d)::SuspendResume - address = %d, fSuspend = %d\n"),GetControllerName(), GetDeviceType(), m_tierNumber, address, fSuspend) );
; 2764 :     BOOL fReturn = FALSE;
; 2765 :     for ( UCHAR port = 1; port <= m_usbHubDescriptor.bNumberOfPorts; port++ ) {

  00040	e2853001	 add         r3, r5, #1
  00044	e20350ff	 and         r5, r3, #0xFF
  00048	e1550000	 cmp         r5, r0
  0004c	9afffff4	 bls         |$LL6@SuspendRes@3|
  00050	ea000022	 b           |$LN18@SuspendRes@3|
  00054		 |$LN16@SuspendRes@3|

; 2767 :             if (SetOrClearFeature( port,
; 2768 :                    fSuspend? USB_REQUEST_SET_FEATURE: USB_REQUEST_CLEAR_FEATURE,
; 2769 :                    USB_HUB_FEATURE_PORT_SUSPEND)) {

  00054	e5961000	 ldr         r1, [r6]
  00058	e3570000	 cmp         r7, #0
  0005c	13a02003	 movne       r2, #3
  00060	e5914050	 ldr         r4, [r1, #0x50]
  00064	03a02001	 moveq       r2, #1
  00068	e20220ff	 and         r2, r2, #0xFF
  0006c	e1a01005	 mov         r1, r5
  00070	e3a03002	 mov         r3, #2
  00074	e1a00006	 mov         r0, r6
  00078	e1a0e00f	 mov         lr, pc
  0007c	e12fff14	 bx          r4
  00080	e3500000	 cmp         r0, #0
  00084	0a000015	 beq         |$LN18@SuspendRes@3|

; 2770 :                 fReturn = TRUE;

  00088	e3a08001	 mov         r8, #1

; 2771 :                 if ( !fSuspend) { // If it is resume.

  0008c	e3570000	 cmp         r7, #0
  00090	1a00000a	 bne         |$LN11@SuspendRes@3|

; 2772 :                     Sleep(20);

  00094	e3a00014	 mov         r0, #0x14
  00098	eb000000	 bl          Sleep

; 2773 :                     m_ppCDeviceOnPort[ port-1 ]-> ResumeNotification();

  0009c	e59630b0	 ldr         r3, [r6, #0xB0]
  000a0	e0833105	 add         r3, r3, r5, lsl #2
  000a4	e5130004	 ldr         r0, [r3, #-4]
  000a8	e5903000	 ldr         r3, [r0]
  000ac	e5933028	 ldr         r3, [r3, #0x28]
  000b0	e1a0e00f	 mov         lr, pc
  000b4	e12fff13	 bx          r3

; 2774 :                 }
; 2775 :                 m_ppCDeviceOnPort[ port-1 ]-> NotifyOnSuspendedResumed(!fSuspend);

  000b8	e3a01001	 mov         r1, #1
  000bc	ea000000	 b           |$LN12@SuspendRes@3|
  000c0		 |$LN11@SuspendRes@3|
  000c0	e3a01000	 mov         r1, #0
  000c4		 |$LN12@SuspendRes@3|
  000c4	e59630b0	 ldr         r3, [r6, #0xB0]
  000c8	e0833105	 add         r3, r3, r5, lsl #2
  000cc	e5130004	 ldr         r0, [r3, #-4]
  000d0	e5903000	 ldr         r3, [r0]
  000d4	e593302c	 ldr         r3, [r3, #0x2C]
  000d8	e1a0e00f	 mov         lr, pc
  000dc	e12fff13	 bx          r3
  000e0		 |$LN18@SuspendRes@3|

; 2776 :             }
; 2777 :             break;
; 2778 :         }
; 2779 :     }
; 2780 :     DEBUGMSG( ZONE_HUB && ZONE_VERBOSE, (TEXT("-CHub(%s tier %d)::SuspendResume - address = %d, returing HCD_REQUEST_STATUS %d\n"), GetDeviceType(), m_tierNumber, address, fReturn) );
; 2781 :     return fReturn;
; 2782 : }

  000e0	e1a00008	 mov         r0, r8
  000e4	e8bd41f0	 ldmia       sp!, {r4 - r8, lr}
  000e8	e12fff1e	 bx          lr
  000ec		 |$M38300|

			 ENDP  ; |?SuspendResumeOffStreamDevice@CHub@@UAAHIH@Z|, CHub::SuspendResumeOffStreamDevice

	EXPORT	|?PowerAllHubPorts@CRootHub@@EAAHXZ|	; CRootHub::PowerAllHubPorts

  00000			 AREA	 |.pdata|, PDATA
|$T38311| DCD	|$LN5@PowerAllHu|
	DCD	0x40000200
; Function compile flags: /Ogspy

  00000			 AREA	 |.text|, CODE, ARM

  00000		 |?PowerAllHubPorts@CRootHub@@EAAHXZ| PROC ; CRootHub::PowerAllHubPorts

; 2901 : {

  00000		 |$LN5@PowerAllHu|
  00000		 |$M38308|

; 2902 :     DEBUGMSG( ZONE_ATTACH && ZONE_VERBOSE, (TEXT("%s: +CRootHub::PowerAllHubPorts\n"),GetControllerName()) );
; 2903 :     DEBUGMSG( ZONE_ATTACH && ZONE_VERBOSE, (TEXT("-CRootHub::PowerAllHubPorts\n")) );
; 2904 :     return TRUE;

  00000	e3a00001	 mov         r0, #1

; 2905 : }

  00004	e12fff1e	 bx          lr
  00008		 |$M38309|

			 ENDP  ; |?PowerAllHubPorts@CRootHub@@EAAHXZ|, CRootHub::PowerAllHubPorts

	EXPORT	|?WaitForPortStatusChange@CRootHub@@EAAHAAEAAU_USB_HUB_AND_PORT_STATUS@@@Z| ; CRootHub::WaitForPortStatusChange

  00000			 AREA	 |.pdata|, PDATA
|$T38333| DCD	|$LN25@WaitForPor|
	DCD	0x40004e01
; Function compile flags: /Ogspy

  00000			 AREA	 |.text|, CODE, ARM

  00000		 |?WaitForPortStatusChange@CRootHub@@EAAHAAEAAU_USB_HUB_AND_PORT_STATUS@@@Z| PROC ; CRootHub::WaitForPortStatusChange

; 2923 : {

  00000		 |$LN25@WaitForPor|
  00000	e92d47f0	 stmdb       sp!, {r4 - r10, lr}
  00004		 |$M38330|
  00004	e1a08002	 mov         r8, r2
  00008	e1a09001	 mov         r9, r1
  0000c	e1a05000	 mov         r5, r0

; 2924 :     DEBUGMSG( ZONE_ATTACH && ZONE_VERBOSE, (TEXT("+CRootHub::WaitForPortStatusChange\n")) );
; 2925 : 
; 2926 :     BOOL fSuccess = FALSE;
; 2927 :     // root hub - we need to poll for status changes.
; 2928 :     while ( !m_fHubThreadClosing && !fSuccess ) {

  00010	e59530b8	 ldr         r3, [r5, #0xB8]
  00014	e3a06000	 mov         r6, #0
  00018	e3530000	 cmp         r3, #0
  0001c	1a000042	 bne         |$LN2@WaitForPor|
  00020		 |$LL13@WaitForPor|
  00020	e3560000	 cmp         r6, #0
  00024	1a00002a	 bne         |$LN22@WaitForPor|

; 2929 :         if (!m_pCHcd->WaitForPortStatusChange(m_hHubStatusChangeEvent)) {

  00028	e59500c8	 ldr         r0, [r5, #0xC8]
  0002c	e59510bc	 ldr         r1, [r5, #0xBC]
  00030	e5903000	 ldr         r3, [r0]
  00034	e5933038	 ldr         r3, [r3, #0x38]
  00038	e1a0e00f	 mov         lr, pc
  0003c	e12fff13	 bx          r3
  00040	e3500000	 cmp         r0, #0

; 2930 :             // If HCD does not support Root Hub Status Change. We do follows
; 2931 :             WaitForSingleObject( m_hHubStatusChangeEvent, 100 );

  00044	059500bc	 ldreq       r0, [r5, #0xBC]
  00048	03a01064	 moveq       r1, #0x64
  0004c	0b000000	 bleq        WaitForSingleObject

; 2932 :         }
; 2933 :         if ( m_fHubThreadClosing ) {

  00050	e59530b8	 ldr         r3, [r5, #0xB8]
  00054	e3530000	 cmp         r3, #0
  00058	1a000033	 bne         |$LN2@WaitForPor|

; 2934 :             break;
; 2935 :         }
; 2936 : 
; 2937 :         DEBUGMSG(ZONE_ATTACH && ZONE_VERBOSE, (TEXT("CRootHub::WaitForPortStatusChange::NoOfPort(0x%x)\r\n"), m_usbHubDescriptor.bNumberOfPorts));
; 2938 :         for ( UCHAR port = 1; !fSuccess && port <= m_usbHubDescriptor.bNumberOfPorts; port++ ) {

  0005c	e3a04001	 mov         r4, #1
  00060		 |$LL9@WaitForPor|
  00060	e5d5306a	 ldrb        r3, [r5, #0x6A]
  00064	e1540003	 cmp         r4, r3
  00068	8a000014	 bhi         |$LN7@WaitForPor|

; 2939 :             if ( m_pCHcd->DidPortStatusChange( port ) ) {

  0006c	e59500c8	 ldr         r0, [r5, #0xC8]
  00070	e1a01004	 mov         r1, r4
  00074	e5903000	 ldr         r3, [r0]
  00078	e5933024	 ldr         r3, [r3, #0x24]
  0007c	e1a0e00f	 mov         lr, pc
  00080	e12fff13	 bx          r3
  00084	e3500000	 cmp         r0, #0
  00088	0a000008	 beq         |$LN8@WaitForPor|

; 2940 :                 // port status changed on this port
; 2941 :                 rPort = port;

  0008c	e5c94000	 strb        r4, [r9]

; 2942 :                 // we could just call CHW::GetPortStatus, but it is
; 2943 :                 // better to call CRootHub::GetStatus which is
; 2944 :                 // designed to implement the virtual CHub::GetStatus function.
; 2945 :                 fSuccess = GetStatus( port, rStatus );

  00090	e5953000	 ldr         r3, [r5]
  00094	e1a02008	 mov         r2, r8
  00098	e1a01004	 mov         r1, r4
  0009c	e5933058	 ldr         r3, [r3, #0x58]
  000a0	e1a00005	 mov         r0, r5
  000a4	e1a0e00f	 mov         lr, pc
  000a8	e12fff13	 bx          r3
  000ac	e1a06000	 mov         r6, r0
  000b0		 |$LN8@WaitForPor|
  000b0	e2843001	 add         r3, r4, #1
  000b4	e20340ff	 and         r4, r3, #0xFF
  000b8	e3560000	 cmp         r6, #0
  000bc	0affffe7	 beq         |$LL9@WaitForPor|
  000c0		 |$LN7@WaitForPor|

; 2924 :     DEBUGMSG( ZONE_ATTACH && ZONE_VERBOSE, (TEXT("+CRootHub::WaitForPortStatusChange\n")) );
; 2925 : 
; 2926 :     BOOL fSuccess = FALSE;
; 2927 :     // root hub - we need to poll for status changes.
; 2928 :     while ( !m_fHubThreadClosing && !fSuccess ) {

  000c0	e59530b8	 ldr         r3, [r5, #0xB8]
  000c4	e3530000	 cmp         r3, #0
  000c8	0affffd4	 beq         |$LL13@WaitForPor|

; 2946 :                 DEBUGMSG(ZONE_ATTACH && ZONE_VERBOSE, (TEXT("GetStatus return %d\r\n"), fSuccess));
; 2947 :             }
; 2948 :         }
; 2949 :     }
; 2950 :     if (fSuccess) {

  000cc	e3560000	 cmp         r6, #0
  000d0	0a000015	 beq         |$LN2@WaitForPor|
  000d4		 |$LN22@WaitForPor|

; 2951 :         // acknowledge the change bits
; 2952 :         for (USHORT bit = 0; bit < 16; ++bit) {

  000d4	e3a02000	 mov         r2, #0
  000d8	e3a07000	 mov         r7, #0
  000dc	e3a0a001	 mov         r10, #1
  000e0		 |$LL4@WaitForPor|

; 2953 :             if (rStatus.change.word & (1 << bit))

  000e0	e1d830b2	 ldrh        r3, [r8, #2]
  000e4	e113021a	 tst         r3, r10, lsl r2
  000e8	0a000009	 beq         |$LN3@WaitForPor|

; 2954 :                 SetOrClearFeature( rPort, USB_REQUEST_CLEAR_FEATURE, bit | 0x10 );

  000ec	e5952000	 ldr         r2, [r5]
  000f0	e3873010	 orr         r3, r7, #0x10
  000f4	e5d91000	 ldrb        r1, [r9]
  000f8	e5924050	 ldr         r4, [r2, #0x50]
  000fc	e1a03803	 mov         r3, r3, lsl #16
  00100	e3a02001	 mov         r2, #1
  00104	e1a03823	 mov         r3, r3, lsr #16
  00108	e1a00005	 mov         r0, r5
  0010c	e1a0e00f	 mov         lr, pc
  00110	e12fff14	 bx          r4
  00114		 |$LN3@WaitForPor|
  00114	e2873001	 add         r3, r7, #1
  00118	e1a02803	 mov         r2, r3, lsl #16
  0011c	e1a02822	 mov         r2, r2, lsr #16
  00120	e1a07002	 mov         r7, r2
  00124	e3520010	 cmp         r2, #0x10
  00128	3affffec	 bcc         |$LL4@WaitForPor|
  0012c		 |$LN2@WaitForPor|

; 2955 :         }
; 2956 :     }
; 2957 : 
; 2958 :     DEBUGMSG( ZONE_ATTACH && ZONE_VERBOSE, (TEXT("%s: -CRootHub::WaitForPortStatusChange, rPort = %d, fSuccess = %d\n"),GetControllerName(), rPort, fSuccess) );
; 2959 :     return fSuccess;
; 2960 : }

  0012c	e1a00006	 mov         r0, r6
  00130	e8bd47f0	 ldmia       sp!, {r4 - r10, lr}
  00134	e12fff1e	 bx          lr
  00138		 |$M38331|

			 ENDP  ; |?WaitForPortStatusChange@CRootHub@@EAAHAAEAAU_USB_HUB_AND_PORT_STATUS@@@Z|, CRootHub::WaitForPortStatusChange

	EXPORT	|?GetStatus@CRootHub@@EAAHEAAU_USB_HUB_AND_PORT_STATUS@@@Z| ; CRootHub::GetStatus

  00000			 AREA	 |.pdata|, PDATA
|$T38345| DCD	|$LN5@GetStatus|
	DCD	0x40000801
; Function compile flags: /Ogspy

  00000			 AREA	 |.text|, CODE, ARM

  00000		 |?GetStatus@CRootHub@@EAAHEAAU_USB_HUB_AND_PORT_STATUS@@@Z| PROC ; CRootHub::GetStatus

; 2977 : {

  00000		 |$LN5@GetStatus|
  00000	e52de004	 str         lr, [sp, #-4]!
  00004		 |$M38342|

; 2978 :     DEBUGMSG( ZONE_HUB && ZONE_VERBOSE, (TEXT("+CRootHub::GetStatus - port = %d\n"), port ));
; 2979 : 
; 2980 :     DEBUGCHK( port <= m_usbHubDescriptor.bNumberOfPorts );
; 2981 : 
; 2982 :     // CHW::GetPortStatus will not clear the change bits
; 2983 :     BOOL fSuccess = m_pCHcd->GetPortStatus( port, rStatus );

  00004	e59000c8	 ldr         r0, [r0, #0xC8]

; 2984 : 
; 2985 :     DEBUGMSG( ZONE_HUB && ZONE_VERBOSE, (TEXT("%s: -CRootHub::GetStatus - port = %d, returing BOOL %d\n"),GetControllerName(), port, fSuccess ) );
; 2986 :     return fSuccess;

  00008	e5903000	 ldr         r3, [r0]
  0000c	e5933028	 ldr         r3, [r3, #0x28]
  00010	e1a0e00f	 mov         lr, pc
  00014	e12fff13	 bx          r3

; 2987 : }

  00018	e49de004	 ldr         lr, [sp], #4
  0001c	e12fff1e	 bx          lr
  00020		 |$M38343|

			 ENDP  ; |?GetStatus@CRootHub@@EAAHEAAU_USB_HUB_AND_PORT_STATUS@@@Z|, CRootHub::GetStatus

	EXPORT	|?ResetAndEnablePort@CRootHub@@EAAHE@Z|	; CRootHub::ResetAndEnablePort

  00000			 AREA	 |.pdata|, PDATA
|$T38356| DCD	|$LN5@ResetAndEn|
	DCD	0x40000801
; Function compile flags: /Ogspy

  00000			 AREA	 |.text|, CODE, ARM

  00000		 |?ResetAndEnablePort@CRootHub@@EAAHE@Z| PROC ; CRootHub::ResetAndEnablePort

; 3001 : {

  00000		 |$LN5@ResetAndEn|
  00000	e52de004	 str         lr, [sp, #-4]!
  00004		 |$M38353|

; 3002 :     DEBUGMSG( ZONE_ATTACH && ZONE_VERBOSE, (TEXT("%s: +CRootHub::ResetAndEnablePort - port = %d\n"),GetControllerName(), port) );
; 3003 : 
; 3004 :     DEBUGCHK( port >= 1 && port <= m_usbHubDescriptor.bNumberOfPorts );
; 3005 : 
; 3006 :     BOOL fSuccess = m_pCHcd->ResetAndEnablePort( port );

  00004	e59000c8	 ldr         r0, [r0, #0xC8]

; 3007 : 
; 3008 :     DEBUGMSG( ZONE_ATTACH && ZONE_VERBOSE, (TEXT("%s: -CRootHub::ResetAndEnablePort - port = %d, returning %d\n"),GetControllerName(), port, fSuccess ) );
; 3009 :     return fSuccess;

  00008	e5903000	 ldr         r3, [r0]
  0000c	e5933030	 ldr         r3, [r3, #0x30]
  00010	e1a0e00f	 mov         lr, pc
  00014	e12fff13	 bx          r3

; 3010 : }

  00018	e49de004	 ldr         lr, [sp], #4
  0001c	e12fff1e	 bx          lr
  00020		 |$M38354|

			 ENDP  ; |?ResetAndEnablePort@CRootHub@@EAAHE@Z|, CRootHub::ResetAndEnablePort

	EXPORT	|?DisablePort@CRootHub@@EAAXE@Z|	; CRootHub::DisablePort

  00000			 AREA	 |.pdata|, PDATA
|$T38365| DCD	|$LN5@DisablePor|
	DCD	0x40000801
; Function compile flags: /Ogspy

  00000			 AREA	 |.text|, CODE, ARM

  00000		 |?DisablePort@CRootHub@@EAAXE@Z| PROC	; CRootHub::DisablePort

; 3023 : {

  00000		 |$LN5@DisablePor|
  00000	e52de004	 str         lr, [sp, #-4]!
  00004		 |$M38362|

; 3024 :     DEBUGMSG( ZONE_ATTACH && ZONE_VERBOSE, (TEXT("%s: +CRootHub::DisablePort - port = %d\n"),GetControllerName(), port) );
; 3025 : 
; 3026 :     DEBUGCHK( port >= 1 && port <= m_usbHubDescriptor.bNumberOfPorts );
; 3027 : 
; 3028 :     m_pCHcd->DisablePort( port );

  00004	e59000c8	 ldr         r0, [r0, #0xC8]
  00008	e5903000	 ldr         r3, [r0]
  0000c	e5933034	 ldr         r3, [r3, #0x34]
  00010	e1a0e00f	 mov         lr, pc
  00014	e12fff13	 bx          r3

; 3029 : 
; 3030 :     DEBUGMSG( ZONE_ATTACH && ZONE_VERBOSE, (TEXT("%s: -CRootHub::DisablePort - port = %d\n"),GetControllerName(), port) );
; 3031 : }

  00018	e49de004	 ldr         lr, [sp], #4
  0001c	e12fff1e	 bx          lr
  00020		 |$M38363|

			 ENDP  ; |?DisablePort@CRootHub@@EAAXE@Z|, CRootHub::DisablePort

	EXPORT	|?SetOrClearFeature@CRootHub@@EAAHGEG@Z| ; CRootHub::SetOrClearFeature

  00000			 AREA	 |.pdata|, PDATA
|$T38378| DCD	|$LN5@SetOrClear|
	DCD	0x40000901
; Function compile flags: /Ogspy

  00000			 AREA	 |.text|, CODE, ARM

  00000		 |?SetOrClearFeature@CRootHub@@EAAHGEG@Z| PROC ; CRootHub::SetOrClearFeature

; 3054 : {

  00000		 |$LN5@SetOrClear|
  00000	e92d4010	 stmdb       sp!, {r4, lr}
  00004		 |$M38375|

; 3055 :     DEBUGMSG( ZONE_HUB && ZONE_VERBOSE, (TEXT("%s: +CRootHub::SetOrClearFeature - port = %d, set/clear = 0x%x, feature = 0x%x\n"),GetControllerName(), port, setOrClearFeature, feature) );
; 3056 : 
; 3057 : #ifdef DEBUG
; 3058 : {
; 3059 :     if ( setOrClearFeature == USB_REQUEST_CLEAR_FEATURE ) {
; 3060 :         if ( port == 0 ) {
; 3061 :             // USB spec 1.1, 11.16.2.2 - these are the only
; 3062 :             // features which should be cleared for ports
; 3063 :             DEBUGCHK( feature == USB_HUB_FEATURE_C_HUB_LOCAL_POWER ||
; 3064 :                       feature == USB_HUB_FEATURE_C_HUB_OVER_CURRENT ||
; 3065 :                       feature == USB_FEATURE_ENDPOINT_STALL );
; 3066 :         } else {
; 3067 :             // USB spec 1.1, 11.16.2.2 - these are the only
; 3068 :             // features which should be cleared for ports
; 3069 :             DEBUGCHK( feature == USB_HUB_FEATURE_PORT_ENABLE ||
; 3070 :                       feature == USB_HUB_FEATURE_PORT_SUSPEND ||
; 3071 :                       feature == USB_HUB_FEATURE_PORT_POWER ||
; 3072 :                       feature == USB_HUB_FEATURE_C_PORT_CONNECTION ||
; 3073 :                       feature == USB_HUB_FEATURE_C_PORT_RESET ||
; 3074 :                       feature == USB_HUB_FEATURE_C_PORT_ENABLE ||
; 3075 :                       feature == USB_HUB_FEATURE_C_PORT_SUSPEND ||
; 3076 :                       feature == USB_HUB_FEATURE_C_PORT_OVER_CURRENT );
; 3077 :         }
; 3078 :     } else if ( setOrClearFeature == USB_REQUEST_SET_FEATURE ) {
; 3079 :         // should only be setting port features
; 3080 :         DEBUGCHK( port > 0 &&
; 3081 :                   (feature == USB_HUB_FEATURE_PORT_RESET ||
; 3082 :                    feature == USB_HUB_FEATURE_PORT_SUSPEND ||
; 3083 :                    feature == USB_HUB_FEATURE_PORT_INDICATOR ||
; 3084 :                    feature == USB_HUB_FEATURE_PORT_POWER) );
; 3085 :     } else {
; 3086 :         // shouldn't be here
; 3087 :         DebugBreak();
; 3088 :     }
; 3089 :     DEBUGCHK( port <= m_usbHubDescriptor.bNumberOfPorts );
; 3090 : }
; 3091 : #endif // DEBUG
; 3092 : 
; 3093 :     BOOL fSuccess = m_pCHcd->RootHubFeature((UCHAR)port, setOrClearFeature, feature);

  00004	e59000c8	 ldr         r0, [r0, #0xC8]

; 3094 : 
; 3095 :     DEBUGMSG( ZONE_ERROR && !fSuccess, (TEXT("%s: CRootHub::SetOrClearFeature - port = %d, set/clear = 0x%x, feature = 0x%x, FAILED\n"),GetControllerName(), port, setOrClearFeature, feature ) );
; 3096 :     DEBUGMSG( ZONE_HUB && ZONE_VERBOSE, (TEXT("-CRootHub::SetOrClearFeature - port = %d, set/clear = 0x%x, feature = 0x%x, returing BOOL %d\n"), port, setOrClearFeature, feature, fSuccess) );
; 3097 :     return fSuccess;

  00008	e20110ff	 and         r1, r1, #0xFF
  0000c	e590e000	 ldr         lr, [r0]
  00010	e59e402c	 ldr         r4, [lr, #0x2C]
  00014	e1a0e00f	 mov         lr, pc
  00018	e12fff14	 bx          r4

; 3098 : }

  0001c	e8bd4010	 ldmia       sp!, {r4, lr}
  00020	e12fff1e	 bx          lr
  00024		 |$M38376|

			 ENDP  ; |?SetOrClearFeature@CRootHub@@EAAHGEG@Z|, CRootHub::SetOrClearFeature

	EXPORT	|?SetOrClearRemoteWakup@CRootHub@@EAAHH@Z| ; CRootHub::SetOrClearRemoteWakup

  00000			 AREA	 |.pdata|, PDATA
|$T38387| DCD	|$LN5@SetOrClear@2|
	DCD	0x40000200
; Function compile flags: /Ogspy

  00000			 AREA	 |.text|, CODE, ARM

  00000		 |?SetOrClearRemoteWakup@CRootHub@@EAAHH@Z| PROC ; CRootHub::SetOrClearRemoteWakup

; 3110 : {

  00000		 |$LN5@SetOrClear@2|
  00000		 |$M38384|

; 3111 :     return TRUE;

  00000	e3a00001	 mov         r0, #1

; 3112 : }

  00004	e12fff1e	 bx          lr
  00008		 |$M38385|

			 ENDP  ; |?SetOrClearRemoteWakup@CRootHub@@EAAHH@Z|, CRootHub::SetOrClearRemoteWakup

	EXPORT	|?PowerAllHubPorts@CExternalHub@@EAAHXZ| ; CExternalHub::PowerAllHubPorts

  00000			 AREA	 |.pdata|, PDATA
|$T38405| DCD	|$LN15@PowerAllHu@2|
	DCD	0x40002501
; Function compile flags: /Ogspy

  00000			 AREA	 |.text|, CODE, ARM

  00000		 |?PowerAllHubPorts@CExternalHub@@EAAHXZ| PROC ; CExternalHub::PowerAllHubPorts

; 3276 : {

  00000		 |$LN15@PowerAllHu@2|
  00000	e92d40f0	 stmdb       sp!, {r4 - r7, lr}
  00004		 |$M38402|
  00004	e1a07000	 mov         r7, r0

; 3277 :     DEBUGMSG( ZONE_ATTACH && ZONE_VERBOSE, (TEXT("%s: +CExternalHub::PowerAllHubPorts\n"),GetControllerName()) );
; 3278 : 
; 3279 :     BOOL fFailed = FALSE;

  00008	e3a05000	 mov         r5, #0

; 3280 : 
; 3281 :     for ( UCHAR port = 1; !fFailed && port <= m_usbHubDescriptor.bNumberOfPorts; port++ ) {

  0000c	e3a06001	 mov         r6, #1
  00010		 |$LL4@PowerAllHu@2|
  00010	e5d7306a	 ldrb        r3, [r7, #0x6A]
  00014	e1560003	 cmp         r6, r3
  00018	8a000017	 bhi         |$LN2@PowerAllHu@2|

; 3282 :         fFailed = !SetOrClearFeature( port,
; 3283 :                                       USB_REQUEST_SET_FEATURE,
; 3284 :                                       USB_HUB_FEATURE_PORT_POWER );

  0001c	e5971000	 ldr         r1, [r7]
  00020	e3a03008	 mov         r3, #8
  00024	e3a02003	 mov         r2, #3
  00028	e5914050	 ldr         r4, [r1, #0x50]
  0002c	e1a01006	 mov         r1, r6
  00030	e1a00007	 mov         r0, r7
  00034	e1a0e00f	 mov         lr, pc
  00038	e12fff14	 bx          r4
  0003c	e3500000	 cmp         r0, #0
  00040	03a05001	 moveq       r5, #1
  00044	0a000008	 beq         |$LN3@PowerAllHu@2|

; 3285 :         if (!fFailed)
; 3286 :             SetOrClearFeature(port,
; 3287 :                                       USB_REQUEST_SET_FEATURE,
; 3288 :                                       USB_HUB_FEATURE_PORT_INDICATOR); // Set to the Auto Indicator.

  00048	e5971000	 ldr         r1, [r7]
  0004c	e3a03016	 mov         r3, #0x16
  00050	e3a02003	 mov         r2, #3
  00054	e5914050	 ldr         r4, [r1, #0x50]
  00058	e1a01006	 mov         r1, r6
  0005c	e1a00007	 mov         r0, r7
  00060	e3a05000	 mov         r5, #0
  00064	e1a0e00f	 mov         lr, pc
  00068	e12fff14	 bx          r4
  0006c		 |$LN3@PowerAllHu@2|
  0006c	e2863001	 add         r3, r6, #1
  00070	e20360ff	 and         r6, r3, #0xFF
  00074	e3550000	 cmp         r5, #0
  00078	0affffe4	 beq         |$LL4@PowerAllHu@2|
  0007c		 |$LN2@PowerAllHu@2|

; 3289 :     }
; 3290 : 
; 3291 :     DEBUGMSG( ZONE_ERROR && fFailed, (TEXT("%s: CExternalHub::PowerAllHubPorts - failed!\n"),GetControllerName()) );
; 3292 :     DEBUGMSG( ZONE_ATTACH && ZONE_VERBOSE, (TEXT("%s: -CExternalHub::PowerAllHubPorts, returing %d\n"),GetControllerName(), !fFailed) );
; 3293 :     return !fFailed;

  0007c	e3550000	 cmp         r5, #0
  00080	03a00001	 moveq       r0, #1

; 3294 : }

  00084	08bd40f0	 ldmeqia     sp!, {r4 - r7, lr}

; 3289 :     }
; 3290 : 
; 3291 :     DEBUGMSG( ZONE_ERROR && fFailed, (TEXT("%s: CExternalHub::PowerAllHubPorts - failed!\n"),GetControllerName()) );
; 3292 :     DEBUGMSG( ZONE_ATTACH && ZONE_VERBOSE, (TEXT("%s: -CExternalHub::PowerAllHubPorts, returing %d\n"),GetControllerName(), !fFailed) );
; 3293 :     return !fFailed;

  00088	13a00000	 movne       r0, #0

; 3294 : }

  0008c	18bd40f0	 ldmneia     sp!, {r4 - r7, lr}
  00090	e12fff1e	 bx          lr
  00094		 |$M38403|

			 ENDP  ; |?PowerAllHubPorts@CExternalHub@@EAAHXZ|, CExternalHub::PowerAllHubPorts

	EXPORT	|?GetStatusChangeBitmap@CExternalHub@@AAAHAAK@Z| ; CExternalHub::GetStatusChangeBitmap
; File c:\wince600\public\common\sdk\inc\kfuncs.h

  00000			 AREA	 |.pdata|, PDATA
|$T38427| DCD	|$LN15@GetStatusC|
	DCD	0x40005502
; Function compile flags: /Ogspy
; File c:\wince600\platform\common\src\soc\common_ti_v1\omap3530\musb\musbhcd\usb2com\cdevice.cpp

  00000			 AREA	 |.text|, CODE, ARM

  00000		 |?GetStatusChangeBitmap@CExternalHub@@AAAHAAK@Z| PROC ; CExternalHub::GetStatusChangeBitmap

; 3309 : {

  00000		 |$LN15@GetStatusC|
  00000	e92d4ff0	 stmdb       sp!, {r4 - r11, lr}
  00004	e24dd044	 sub         sp, sp, #0x44
  00008		 |$M38424|
  00008	e1a09001	 mov         r9, r1
  0000c	e1a08000	 mov         r8, r0

; 3310 : #define HUB_INTERRUPT_TRANFER_TIMEOUT (10*1000)
; 3311 :     DEBUGMSG( ZONE_ATTACH && ZONE_VERBOSE, (TEXT("%s: +CExternalHub::GetStatusChangeBitmap\n"),GetControllerName()) );
; 3312 : 
; 3313 :     // for 1-7 ports,  the bitmap will be 1 byte,
; 3314 :     // for 8-15 ports, the bitmap will be 2 bytes,
; 3315 :     // etc. We only support up to 31 ports since
; 3316 :     // DWORD is 4 bytes.
; 3317 :     DEBUGCHK( m_usbHubDescriptor.bNumberOfPorts <= 31 );
; 3318 :     const DWORD         dwBitmapSize = 1 + (m_usbHubDescriptor.bNumberOfPorts >> 3);

  00010	e5d8306a	 ldrb        r3, [r8, #0x6A]

; 3319 :     BOOL                fSuccess = FALSE;
; 3320 :     BOOL                fTransferDone = FALSE;
; 3321 :     DWORD               dwBytesTransferred = 0;
; 3322 :     DWORD               dwErrorFlags = USB_NOT_COMPLETE_ERROR;
; 3323 :     HCD_REQUEST_STATUS  status = requestFailed;
; 3324 : 
; 3325 :     rdwHubBitmap = 0;

  00014	e3a02000	 mov         r2, #0
  00018	e5892000	 str         r2, [r9]

; 3326 : 
; 3327 :     // pipe 1 = status change endpoint pipe
; 3328 :     if ( !m_fHubThreadClosing) {

  0001c	e598e0b8	 ldr         lr, [r8, #0xB8]
  00020	e3a02c01	 mov         r2, #1, 24
  00024	e3822003	 orr         r2, r2, #3
  00028	e1a031a3	 mov         r3, r3, lsr #3
  0002c	e3a01000	 mov         r1, #0
  00030	e3a00000	 mov         r0, #0
  00034	e35e0000	 cmp         lr, #0
  00038	e58d2040	 str         r2, [sp, #0x40]
  0003c	e283a001	 add         r10, r3, #1
  00040	e58d1038	 str         r1, [sp, #0x38]
  00044	e58d003c	 str         r0, [sp, #0x3C]
  00048	1a00003c	 bne         |$LN7@GetStatusC|

; 3329 :         DEBUGCHK( m_maxNumPipes == 2 );
; 3330 :         PREFAST_DEBUGCHK( m_ppCPipe != NULL );
; 3331 :         PREFAST_DEBUGCHK( m_ppCPipe[ STATUS_CHANGE_INTERRUPT_PIPE ] != NULL );
; 3332 : 
; 3333 :         status = m_ppCPipe[ STATUS_CHANGE_INTERRUPT_PIPE ]->IssueTransfer(
; 3334 :                                     m_address, // hub address,
; 3335 :                                     TransferDoneCallbackSetEvent, // callback func
; 3336 :                                     m_hHubStatusChangeEvent, // callback param
; 3337 :                                     USB_IN_TRANSFER | USB_SEND_TO_DEVICE, // transfer flags
; 3338 :                                     NULL, // lpvControlHeader (not used)
; 3339 :                                     0, // dwStartingFrame (not used)
; 3340 :                                     0, // dwFrames (not used)
; 3341 :                                     NULL, // aLengths (not used)
; 3342 :                                     dwBitmapSize, // bitmap size to read
; 3343 :                                     &rdwHubBitmap, // data buffer
; 3344 :                                     0, // physical address of buffer (not used)
; 3345 :                                     this, // cancel id
; 3346 :                                     NULL, // adwIsochErrors (not used)
; 3347 :                                     NULL, // adwIsochLengths (not used)
; 3348 :                                     &fTransferDone, // OUT status param
; 3349 :                                     &dwBytesTransferred, // OUT status param
; 3350 :                                     &dwErrorFlags ); // OUT status param

  0004c	e598e05c	 ldr         lr, [r8, #0x5C]
  00050	e28d403c	 add         r4, sp, #0x3C
  00054	e58d4030	 str         r4, [sp, #0x30]
  00058	e59e0004	 ldr         r0, [lr, #4]
  0005c	e59830bc	 ldr         r3, [r8, #0xBC]
  00060	e59f20e8	 ldr         r2, [pc, #0xE8]
  00064	e590e000	 ldr         lr, [r0]
  00068	e5d81020	 ldrb        r1, [r8, #0x20]
  0006c	e28d6040	 add         r6, sp, #0x40
  00070	e59e700c	 ldr         r7, [lr, #0xC]
  00074	e28d5038	 add         r5, sp, #0x38
  00078	e3a0bd42	 mov         r11, #0x42, 26
  0007c	e3a04000	 mov         r4, #0
  00080	e58d6034	 str         r6, [sp, #0x34]
  00084	e58d502c	 str         r5, [sp, #0x2C]
  00088	e58d4028	 str         r4, [sp, #0x28]
  0008c	e58d4024	 str         r4, [sp, #0x24]
  00090	e58d8020	 str         r8, [sp, #0x20]
  00094	e58d401c	 str         r4, [sp, #0x1C]
  00098	e58d9018	 str         r9, [sp, #0x18]
  0009c	e58da014	 str         r10, [sp, #0x14]
  000a0	e58d4010	 str         r4, [sp, #0x10]
  000a4	e58d400c	 str         r4, [sp, #0xC]
  000a8	e58d4008	 str         r4, [sp, #8]
  000ac	e58d4004	 str         r4, [sp, #4]
  000b0	e58db000	 str         r11, [sp]
  000b4	e1a0e00f	 mov         lr, pc
  000b8	e12fff17	 bx          r7

; 3351 :         DEBUGMSG( ZONE_ERROR && status != requestOK, (TEXT("%s: CExternalHub::GetStatusChangeBitmap - error issuing transfer!\n"),GetControllerName()));
; 3352 :         if ( status == requestOK ) {

  000bc	e3500001	 cmp         r0, #1
  000c0	1a00001e	 bne         |$LN7@GetStatusC|

; 3353 :             WaitForSingleObject( m_hHubStatusChangeEvent, INFINITE);                    

  000c4	e59800bc	 ldr         r0, [r8, #0xBC]
  000c8	e3e01000	 mvn         r1, #0
  000cc	eb000000	 bl          WaitForSingleObject

; 3354 :             DEBUGMSG(ZONE_ATTACH, (TEXT("CExternalHub::: Get Data value 0x%x, fTransferDone %d\r\n"), rdwHubBitmap, fTransferDone));
; 3355 :             if (!fTransferDone ) {

  000d0	e59d3038	 ldr         r3, [sp, #0x38]
  000d4	e3530000	 cmp         r3, #0
  000d8	1a00000e	 bne         |$LN12@GetStatusC|

; 3356 :                 m_ppCPipe[ STATUS_CHANGE_INTERRUPT_PIPE ]->AbortTransfer(
; 3357 :                                                NULL, // callback function
; 3358 :                                                NULL, // callback parameter
; 3359 :                                                this ); // cancel ID

  000dc	e598105c	 ldr         r1, [r8, #0x5C]
  000e0	e1a03008	 mov         r3, r8
  000e4	e3a02000	 mov         r2, #0
  000e8	e5910004	 ldr         r0, [r1, #4]
  000ec	e3a01000	 mov         r1, #0
  000f0	e5904000	 ldr         r4, [r0]
  000f4	e5944010	 ldr         r4, [r4, #0x10]
  000f8	e1a0e00f	 mov         lr, pc
  000fc	e12fff14	 bx          r4

; 3360 :                 // After Abort the has been called. So reset the event.
; 3361 :                 ResetEvent( m_hHubStatusChangeEvent );

  00100	e59800bc	 ldr         r0, [r8, #0xBC]
  00104	e3a01002	 mov         r1, #2
  00108	eb000000	 bl          EventModify

; 3362 :             }
; 3363 :             else
; 3364 :                 DEBUGCHK( fTransferDone );
; 3365 :         }
; 3366 :     }
; 3367 :     fSuccess = ( status == requestOK &&
; 3368 :                  fTransferDone &&
; 3369 :                  dwBytesTransferred == dwBitmapSize &&
; 3370 :                  dwErrorFlags == USB_NO_ERROR &&
; 3371 :                  rdwHubBitmap != 0 );

  0010c	e59d3038	 ldr         r3, [sp, #0x38]
  00110	e3530000	 cmp         r3, #0
  00114	0a000009	 beq         |$LN7@GetStatusC|
  00118		 |$LN12@GetStatusC|
  00118	e59d303c	 ldr         r3, [sp, #0x3C]
  0011c	e153000a	 cmp         r3, r10
  00120	1a000006	 bne         |$LN7@GetStatusC|
  00124	e59d3040	 ldr         r3, [sp, #0x40]
  00128	e3530000	 cmp         r3, #0
  0012c	1a000003	 bne         |$LN7@GetStatusC|
  00130	e5993000	 ldr         r3, [r9]
  00134	e3530000	 cmp         r3, #0
  00138	13a00001	 movne       r0, #1
  0013c	1a000000	 bne         |$LN8@GetStatusC|
  00140		 |$LN7@GetStatusC|
  00140	e3a00000	 mov         r0, #0
  00144		 |$LN8@GetStatusC|

; 3372 : 
; 3373 :     DEBUGMSG( ZONE_ATTACH && ZONE_VERBOSE, (TEXT("-CExternal::GetStatusChangeBitmap, bitmap = 0x%08x, returing fSuccess = %d\n"), rdwHubBitmap, fSuccess) );
; 3374 :     return fSuccess;
; 3375 : }

  00144	e28dd044	 add         sp, sp, #0x44
  00148	e8bd4ff0	 ldmia       sp!, {r4 - r11, lr}
  0014c	e12fff1e	 bx          lr
  00150		 |$LN16@GetStatusC|
  00150		 |$LN17@GetStatusC|
  00150	00000000	 DCD         |?TransferDoneCallbackSetEvent@CDevice@@KAKPAX@Z|
  00154		 |$M38425|

			 ENDP  ; |?GetStatusChangeBitmap@CExternalHub@@AAAHAAK@Z|, CExternalHub::GetStatusChangeBitmap

	EXPORT	|?WaitForPortStatusChange@CExternalHub@@EAAHAAEAAU_USB_HUB_AND_PORT_STATUS@@@Z| ; CExternalHub::WaitForPortStatusChange

  00000			 AREA	 |.pdata|, PDATA
|$T38452| DCD	|$LN24@WaitForPor@2|
	DCD	0x40004a02
; Function compile flags: /Ogspy

  00000			 AREA	 |.text|, CODE, ARM

  00000		 |?WaitForPortStatusChange@CExternalHub@@EAAHAAEAAU_USB_HUB_AND_PORT_STATUS@@@Z| PROC ; CExternalHub::WaitForPortStatusChange

; 3393 : {

  00000		 |$LN24@WaitForPor@2|
  00000	e92d4ff0	 stmdb       sp!, {r4 - r11, lr}
  00004	e24dd004	 sub         sp, sp, #4
  00008		 |$M38449|
  00008	e1a0a002	 mov         r10, r2
  0000c	e1a05001	 mov         r5, r1
  00010	e1a06000	 mov         r6, r0

; 3394 :     DEBUGMSG( ZONE_ATTACH && ZONE_VERBOSE, (TEXT("%s: +CExternalHub::WaitForPortStatusChange\n"),GetControllerName()) );
; 3395 : 
; 3396 :     DWORD dwStatusChangeBitmap = 0;

  00014	e3a03000	 mov         r3, #0

; 3397 :     BOOL  fSuccess = FALSE;
; 3398 : 
; 3399 :     if ( GetStatusChangeBitmap( dwStatusChangeBitmap ) ) {

  00018	e28d1000	 add         r1, sp, #0
  0001c	e58d3000	 str         r3, [sp]
  00020	e3a04000	 mov         r4, #0
  00024	eb000000	 bl          |?GetStatusChangeBitmap@CExternalHub@@AAAHAAK@Z|
  00028	e3500000	 cmp         r0, #0
  0002c	0a000039	 beq         |$LN1@WaitForPor@2|

; 3400 :         DEBUGCHK( dwStatusChangeBitmap != 0 );
; 3401 :         // see which port changed
; 3402 :         for ( rPort = 0; rPort <= m_usbHubDescriptor.bNumberOfPorts; rPort++ ) {

  00030	e3a03000	 mov         r3, #0
  00034	e59d1000	 ldr         r1, [sp]
  00038	e5c53000	 strb        r3, [r5]
  0003c	e3a00001	 mov         r0, #1
  00040		 |$LL12@WaitForPor@2|

; 3403 :             if ( dwStatusChangeBitmap & (1 << rPort) ) {

  00040	e5d53000	 ldrb        r3, [r5]
  00044	e1110310	 tst         r1, r0, lsl r3
  00048	1a000005	 bne         |$LN18@WaitForPor@2|
  0004c	e2833001	 add         r3, r3, #1
  00050	e5c53000	 strb        r3, [r5]
  00054	e20320ff	 and         r2, r3, #0xFF
  00058	e5d6306a	 ldrb        r3, [r6, #0x6A]
  0005c	e1520003	 cmp         r2, r3
  00060	9afffff6	 bls         |$LL12@WaitForPor@2|
  00064		 |$LN18@WaitForPor@2|

; 3404 :                 // deal with this port change, and report others next time around
; 3405 :                 break;
; 3406 :             }
; 3407 :         }
; 3408 :         DEBUGCHK( rPort <= m_usbHubDescriptor.bNumberOfPorts );
; 3409 : //        if (m_fIsHighSpeed) { //USB2.0 11.24.2.7 This will cause Reset squence and get speed correctly.
; 3410 : //            BOOL bResult=SetOrClearFeature(rPort,USB_REQUEST_SET_FEATURE,USB_HUB_FEATURE_PORT_RESET);
; 3411 : //            ASSERT(bResult==TRUE);
; 3412 : //        }
; 3413 :         // now we need to get the actual status change
; 3414 :         if ( GetStatus( rPort, rStatus ) ) {

  00064	e5963000	 ldr         r3, [r6]
  00068	e5d51000	 ldrb        r1, [r5]
  0006c	e1a0200a	 mov         r2, r10
  00070	e5933058	 ldr         r3, [r3, #0x58]
  00074	e1a00006	 mov         r0, r6
  00078	e1a0e00f	 mov         lr, pc
  0007c	e12fff13	 bx          r3
  00080	e3500000	 cmp         r0, #0
  00084	0a000023	 beq         |$LN1@WaitForPor@2|

; 3415 :             // we need to clear each of the changed feature flags
; 3416 :             // otherwise we will get the change notification
; 3417 :             // forever.
; 3418 :             //
; 3419 :             // For ports, each changeBit corresponds to the change
; 3420 :             // feature "changeBit | 0x10". This happens due to the
; 3421 :             // way features are numbered.
; 3422 : 
; 3423 :             UCHAR maxChangeBit = USB_HUB_FEATURE_PORT_RESET;
; 3424 :             UCHAR changeBitToClearFeature = 0x10;
; 3425 :             if ( rPort == 0 ) { // change was on the hub itself

  00088	e5d53000	 ldrb        r3, [r5]
  0008c	e3a08004	 mov         r8, #4
  00090	e3a09010	 mov         r9, #0x10
  00094	e3530000	 cmp         r3, #0

; 3426 :                 // For hubs, each changeBit corresponds directly to
; 3427 :                 // the feature "changeBit", so we | with 0.
; 3428 :                 maxChangeBit = USB_HUB_FEATURE_C_HUB_OVER_CURRENT;
; 3429 :                 changeBitToClearFeature = 0;
; 3430 :             }
; 3431 :             for ( UCHAR changeBit = 0; !m_fHubThreadClosing && changeBit <= maxChangeBit; changeBit++ ) {

  00098	e59630b8	 ldr         r3, [r6, #0xB8]
  0009c	03a08001	 moveq       r8, #1
  000a0	03a09000	 moveq       r9, #0
  000a4	e3530000	 cmp         r3, #0
  000a8	e3a07000	 mov         r7, #0
  000ac	1a000014	 bne         |$LN21@WaitForPor@2|
  000b0	e3a0b001	 mov         r11, #1
  000b4		 |$LL6@WaitForPor@2|
  000b4	e1570008	 cmp         r7, r8
  000b8	8a000011	 bhi         |$LN21@WaitForPor@2|

; 3432 :                 if ( rStatus.change.word & (1 << changeBit) ) {

  000bc	e1da30b2	 ldrh        r3, [r10, #2]
  000c0	e113071b	 tst         r3, r11, lsl r7
  000c4	0a000009	 beq         |$LN5@WaitForPor@2|

; 3433 :                     SetOrClearFeature( rPort,
; 3434 :                                        USB_REQUEST_CLEAR_FEATURE,
; 3435 :                                        changeBit | changeBitToClearFeature );

  000c8	e5962000	 ldr         r2, [r6]
  000cc	e1893007	 orr         r3, r9, r7
  000d0	e5d51000	 ldrb        r1, [r5]
  000d4	e5924050	 ldr         r4, [r2, #0x50]
  000d8	e1a03803	 mov         r3, r3, lsl #16
  000dc	e3a02001	 mov         r2, #1
  000e0	e1a03823	 mov         r3, r3, lsr #16
  000e4	e1a00006	 mov         r0, r6
  000e8	e1a0e00f	 mov         lr, pc
  000ec	e12fff14	 bx          r4
  000f0		 |$LN5@WaitForPor@2|
  000f0	e59620b8	 ldr         r2, [r6, #0xB8]
  000f4	e2873001	 add         r3, r7, #1
  000f8	e20370ff	 and         r7, r3, #0xFF
  000fc	e3520000	 cmp         r2, #0
  00100	0affffeb	 beq         |$LL6@WaitForPor@2|
  00104		 |$LN21@WaitForPor@2|

; 3436 :                     // Could add recover if this fails...
; 3437 :                 }
; 3438 :             }
; 3439 : 
; 3440 :             if(rPort > m_usbHubDescriptor.bNumberOfPorts)

  00104	e5d52000	 ldrb        r2, [r5]
  00108	e5d6306a	 ldrb        r3, [r6, #0x6A]
  0010c	e1520003	 cmp         r2, r3

; 3441 :                 fSuccess = FALSE; //Otherwise an access violation will occur.

  00110	83a04000	 movhi       r4, #0

; 3442 :             else
; 3443 :                 fSuccess = TRUE;

  00114	93a04001	 movls       r4, #1
  00118		 |$LN1@WaitForPor@2|

; 3444 :         }
; 3445 :     }
; 3446 : 
; 3447 :     DEBUGMSG( ZONE_ATTACH && ZONE_VERBOSE, (TEXT("%s: -CExternal::WaitForPortStatusChange, returing rPort = %d, fSuccess = %d\n"),GetControllerName(), rPort, fSuccess) );
; 3448 :     return fSuccess;
; 3449 : }

  00118	e1a00004	 mov         r0, r4
  0011c	e28dd004	 add         sp, sp, #4
  00120	e8bd4ff0	 ldmia       sp!, {r4 - r11, lr}
  00124	e12fff1e	 bx          lr
  00128		 |$M38450|

			 ENDP  ; |?WaitForPortStatusChange@CExternalHub@@EAAHAAEAAU_USB_HUB_AND_PORT_STATUS@@@Z|, CExternalHub::WaitForPortStatusChange

	EXPORT	|?GetStatus@CExternalHub@@EAAHEAAU_USB_HUB_AND_PORT_STATUS@@@Z| ; CExternalHub::GetStatus

  00000			 AREA	 |.pdata|, PDATA
|$T38470| DCD	|$LN14@GetStatus@2|
	DCD	0x40005602
; Function compile flags: /Ogspy

  00000			 AREA	 |.text|, CODE, ARM

  00000		 |?GetStatus@CExternalHub@@EAAHEAAU_USB_HUB_AND_PORT_STATUS@@@Z| PROC ; CExternalHub::GetStatus

; 3466 : {

  00000		 |$LN14@GetStatus@2|
  00000	e92d4ff0	 stmdb       sp!, {r4 - r11, lr}
  00004	e24dd04c	 sub         sp, sp, #0x4C
  00008		 |$M38467|
  00008	e1a0a002	 mov         r10, r2
  0000c	e3510000	 cmp         r1, #0
  00010	e1a09000	 mov         r9, r0
  00014	e3a03c01	 mov         r3, #1, 24

; 3467 :     DEBUGMSG( ZONE_HUB && ZONE_VERBOSE, (TEXT("%s: +CExternalHub::GetStatus - port = %d\n"),GetControllerName(), port ));
; 3468 : 
; 3469 :     PREFAST_DEBUGCHK( m_ppCPipe != NULL);
; 3470 :     DEBUGCHK( m_maxNumPipes == 2 &&
; 3471 :               m_ppCPipe[ ENDPOINT0_CONTROL_PIPE ] != NULL &&
; 3472 :               port <= m_usbHubDescriptor.bNumberOfPorts );
; 3473 : 
; 3474 :     BOOL                fTransferDone = FALSE;
; 3475 :     DWORD               dwBytesTransferred = 0;
; 3476 :     DWORD               dwErrorFlags = USB_NOT_COMPLETE_ERROR;

  00018	e3833003	 orr         r3, r3, #3
  0001c	e58d3040	 str         r3, [sp, #0x40]

; 3477 :     HCD_REQUEST_STATUS  status = requestFailed;
; 3478 :     USB_DEVICE_REQUEST  usbRequest;
; 3479 : 
; 3480 :     if ( port == 0 ) {
; 3481 :         // requst is to the hub iteself
; 3482 :         usbRequest.bmRequestType = USB_REQUEST_DEVICE_TO_HOST | USB_REQUEST_CLASS | USB_REQUEST_FOR_DEVICE;

  00020	03a030a0	 moveq       r3, #0xA0

; 3483 :     } else {
; 3484 :         // request is to an actual port
; 3485 :         usbRequest.bmRequestType = USB_REQUEST_DEVICE_TO_HOST | USB_REQUEST_CLASS | USB_REQUEST_FOR_OTHER;

  00024	13a030a3	 movne       r3, #0xA3
  00028	e5cd3044	 strb        r3, [sp, #0x44]

; 3486 :     }
; 3487 :     usbRequest.bRequest = USB_REQUEST_GET_STATUS;
; 3488 :     usbRequest.wValue = 0;
; 3489 :     usbRequest.wIndex = port;
; 3490 :     usbRequest.wLength = sizeof( USB_HUB_AND_PORT_STATUS );
; 3491 :     // wLength should be 4, according to USB spec 1.1 11.16.2.5/11.16.2.6
; 3492 :     DEBUGCHK( sizeof( USB_HUB_AND_PORT_STATUS ) == 4 );
; 3493 : 
; 3494 :     if ( !m_fHubThreadClosing ) {

  0002c	e59930b8	 ldr         r3, [r9, #0xB8]
  00030	e3a02000	 mov         r2, #0
  00034	e3a00000	 mov         r0, #0
  00038	e58d2038	 str         r2, [sp, #0x38]
  0003c	e58d003c	 str         r0, [sp, #0x3C]
  00040	e3a02000	 mov         r2, #0
  00044	e3a00000	 mov         r0, #0
  00048	e3a0e004	 mov         lr, #4
  0004c	e3530000	 cmp         r3, #0
  00050	e5cd2045	 strb        r2, [sp, #0x45]
  00054	e1cd04b6	 strh        r0, [sp, #0x46]
  00058	e1cd14b8	 strh        r1, [sp, #0x48]
  0005c	e1cde4ba	 strh        lr, [sp, #0x4A]
  00060	1a000037	 bne         |$LN8@GetStatus@2|

; 3495 :         status = m_ppCPipe[ ENDPOINT0_CONTROL_PIPE ]->IssueTransfer(
; 3496 :                          m_address, // address of this hub
; 3497 :                          TransferDoneCallbackSetEvent, // callback func
; 3498 :                          m_hHubStatusChangeEvent, // callback param
; 3499 :                          USB_IN_TRANSFER | USB_SEND_TO_DEVICE, // transfer flags
; 3500 :                          &usbRequest, // control request
; 3501 :                          0, // dwStartingFrame (not used)
; 3502 :                          0, // dwFrames (not used)
; 3503 :                          NULL, // aLengths (not used)
; 3504 :                          sizeof( USB_HUB_AND_PORT_STATUS ), // buffer size
; 3505 :                          &rStatus, // buffer
; 3506 :                          0, // phys addr of buffer (not used)
; 3507 :                          this, // cancel id
; 3508 :                          NULL, // adwIsochErrors (not used)
; 3509 :                          NULL, // adwIsochLengths (not used)
; 3510 :                          &fTransferDone, // OUT param for transfer
; 3511 :                          &dwBytesTransferred, // OUT param for transfer
; 3512 :                          &dwErrorFlags ); // OUT param for transfer

  00064	e599105c	 ldr         r1, [r9, #0x5C]
  00068	e28d403c	 add         r4, sp, #0x3C
  0006c	e58d4030	 str         r4, [sp, #0x30]
  00070	e5910000	 ldr         r0, [r1]
  00074	e3a04000	 mov         r4, #0
  00078	e58d4028	 str         r4, [sp, #0x28]
  0007c	e590e000	 ldr         lr, [r0]
  00080	e58d4024	 str         r4, [sp, #0x24]
  00084	e58d401c	 str         r4, [sp, #0x1C]
  00088	e58d4010	 str         r4, [sp, #0x10]
  0008c	e58d400c	 str         r4, [sp, #0xC]
  00090	e58d4008	 str         r4, [sp, #8]
  00094	e59e800c	 ldr         r8, [lr, #0xC]
  00098	e59930bc	 ldr         r3, [r9, #0xBC]
  0009c	e59f20b0	 ldr         r2, [pc, #0xB0]
  000a0	e5d91020	 ldrb        r1, [r9, #0x20]
  000a4	e28d6040	 add         r6, sp, #0x40
  000a8	e28d5038	 add         r5, sp, #0x38
  000ac	e3a0b004	 mov         r11, #4
  000b0	e28d7044	 add         r7, sp, #0x44
  000b4	e3a04d42	 mov         r4, #0x42, 26
  000b8	e58d6034	 str         r6, [sp, #0x34]
  000bc	e58d502c	 str         r5, [sp, #0x2C]
  000c0	e58d9020	 str         r9, [sp, #0x20]
  000c4	e58da018	 str         r10, [sp, #0x18]
  000c8	e58db014	 str         r11, [sp, #0x14]
  000cc	e58d7004	 str         r7, [sp, #4]
  000d0	e58d4000	 str         r4, [sp]
  000d4	e1a0e00f	 mov         lr, pc
  000d8	e12fff18	 bx          r8

; 3513 :         if ( status == requestOK ) {

  000dc	e3500001	 cmp         r0, #1
  000e0	1a000017	 bne         |$LN8@GetStatus@2|

; 3514 :             WaitForSingleObject( m_hHubStatusChangeEvent, INFINITE );

  000e4	e59900bc	 ldr         r0, [r9, #0xBC]
  000e8	e3e01000	 mvn         r1, #0
  000ec	eb000000	 bl          WaitForSingleObject

; 3515 :             if ( m_fHubThreadClosing ) {

  000f0	e59930b8	 ldr         r3, [r9, #0xB8]
  000f4	e3530000	 cmp         r3, #0
  000f8	0a000008	 beq         |$LN1@GetStatus@2|

; 3516 :                 m_ppCPipe[ ENDPOINT0_CONTROL_PIPE ]->AbortTransfer(
; 3517 :                                              NULL, // callback function
; 3518 :                                              NULL, // callback parameter
; 3519 :                                              this ); // cancel ID

  000fc	e599105c	 ldr         r1, [r9, #0x5C]
  00100	e1a03009	 mov         r3, r9
  00104	e3a02000	 mov         r2, #0
  00108	e5910000	 ldr         r0, [r1]
  0010c	e3a01000	 mov         r1, #0
  00110	e5904000	 ldr         r4, [r0]
  00114	e5944010	 ldr         r4, [r4, #0x10]
  00118	e1a0e00f	 mov         lr, pc
  0011c	e12fff14	 bx          r4
  00120		 |$LN1@GetStatus@2|

; 3520 :             }
; 3521 :         }
; 3522 :         DEBUGMSG(1, (TEXT("Abort Transfer for Device Address 0x%x\r\n"),
; 3523 :             m_address));
; 3524 :         DEBUGCHK( fTransferDone );
; 3525 :     }
; 3526 :     BOOL fSuccess = (status == requestOK &&
; 3527 :                      fTransferDone &&
; 3528 :                      dwBytesTransferred == sizeof( USB_HUB_AND_PORT_STATUS ) &&
; 3529 :                      dwErrorFlags == USB_NO_ERROR);

  00120	e59d3038	 ldr         r3, [sp, #0x38]
  00124	e3530000	 cmp         r3, #0
  00128	0a000005	 beq         |$LN8@GetStatus@2|
  0012c	e59d303c	 ldr         r3, [sp, #0x3C]
  00130	e3530004	 cmp         r3, #4
  00134	059d3040	 ldreq       r3, [sp, #0x40]
  00138	03530000	 cmpeq       r3, #0
  0013c	03a00001	 moveq       r0, #1
  00140	0a000000	 beq         |$LN9@GetStatus@2|
  00144		 |$LN8@GetStatus@2|
  00144	e3a00000	 mov         r0, #0
  00148		 |$LN9@GetStatus@2|

; 3530 : 
; 3531 :     DEBUGMSG( ZONE_HUB && ZONE_VERBOSE, (TEXT("%s: -CExternalHub::GetStatus - port = %d, returing BOOL %d\n"),GetControllerName(), port, fSuccess) );
; 3532 :     return fSuccess;
; 3533 : }

  00148	e28dd04c	 add         sp, sp, #0x4C
  0014c	e8bd4ff0	 ldmia       sp!, {r4 - r11, lr}
  00150	e12fff1e	 bx          lr
  00154		 |$LN15@GetStatus@2|
  00154		 |$LN16@GetStatus@2|
  00154	00000000	 DCD         |?TransferDoneCallbackSetEvent@CDevice@@KAKPAX@Z|
  00158		 |$M38468|

			 ENDP  ; |?GetStatus@CExternalHub@@EAAHEAAU_USB_HUB_AND_PORT_STATUS@@@Z|, CExternalHub::GetStatus

	EXPORT	|?ResetAndEnablePort@CExternalHub@@EAAHE@Z| ; CExternalHub::ResetAndEnablePort

  00000			 AREA	 |.pdata|, PDATA
|$T38492| DCD	|$LN18@ResetAndEn@2|
	DCD	0x40004e02
; Function compile flags: /Ogspy

  00000			 AREA	 |.text|, CODE, ARM

  00000		 |?ResetAndEnablePort@CExternalHub@@EAAHE@Z| PROC ; CExternalHub::ResetAndEnablePort

; 3547 : {

  00000		 |$LN18@ResetAndEn@2|
  00000	e92d43f0	 stmdb       sp!, {r4 - r9, lr}
  00004	e24dd008	 sub         sp, sp, #8
  00008		 |$M38489|
  00008	e1a07001	 mov         r7, r1
  0000c	e1a06000	 mov         r6, r0

; 3548 :     DEBUGMSG( ZONE_ATTACH && ZONE_VERBOSE, (TEXT("%s: +CExternalHub::ResetAndEnablePort - port = %d\n"),GetControllerName(), port) );
; 3549 : 
; 3550 :     DEBUGCHK( port >= 1 && port <= m_usbHubDescriptor.bNumberOfPorts );
; 3551 : 
; 3552 :     BOOL fSuccess = FALSE;
; 3553 : 
; 3554 :     if ( !SetOrClearFeature( port,
; 3555 :                             USB_REQUEST_SET_FEATURE,
; 3556 :                             USB_HUB_FEATURE_PORT_RESET ) ) {

  00010	e596e000	 ldr         lr, [r6]
  00014	e3a03004	 mov         r3, #4
  00018	e3a02003	 mov         r2, #3
  0001c	e59e4050	 ldr         r4, [lr, #0x50]
  00020	e3a05000	 mov         r5, #0
  00024	e1a0e00f	 mov         lr, pc
  00028	e12fff14	 bx          r4
  0002c	e3500000	 cmp         r0, #0

; 3557 :         DEBUGMSG( ZONE_ERROR, (TEXT("%s: -CExternalHub::ResetAndEnablePort - could set reset feature for port %d\n"),GetControllerName(), port) );
; 3558 :         return FALSE;

  00030	0a00003b	 beq         |$LN9@ResetAndEn@2|

; 3559 :     }
; 3560 :     for ( UCHAR attempt = 0; !m_fHubThreadClosing && attempt < 5; attempt++ ) {

  00034	e59630b8	 ldr         r3, [r6, #0xB8]
  00038	e3a04000	 mov         r4, #0
  0003c	e3530000	 cmp         r3, #0
  00040	1a000038	 bne         |$LN15@ResetAndEn@2|
  00044	e3a09000	 mov         r9, #0
  00048	e3a08001	 mov         r8, #1
  0004c		 |$LL5@ResetAndEn@2|
  0004c	e3540005	 cmp         r4, #5
  00050	2a000034	 bcs         |$LN15@ResetAndEn@2|

; 3561 :         DWORD   dwStatusChangeBitmap = 0;
; 3562 :         // USB2.0 11.5.1.5 20 ms resetting period.
; 3563 :         Sleep(20);

  00054	e3a00014	 mov         r0, #0x14
  00058	e58d9000	 str         r9, [sp]
  0005c	eb000000	 bl          Sleep

; 3564 :         if ( GetStatusChangeBitmap( dwStatusChangeBitmap ) &&
; 3565 :              (dwStatusChangeBitmap & (1 << port)) ) {

  00060	e28d1000	 add         r1, sp, #0
  00064	e1a00006	 mov         r0, r6
  00068	eb000000	 bl          |?GetStatusChangeBitmap@CExternalHub@@AAAHAAK@Z|
  0006c	e3500000	 cmp         r0, #0
  00070	0a000002	 beq         |$LN4@ResetAndEn@2|
  00074	e59d3000	 ldr         r3, [sp]
  00078	e1130718	 tst         r3, r8, lsl r7
  0007c	1a000005	 bne         |$LN12@ResetAndEn@2|
  00080		 |$LN4@ResetAndEn@2|

; 3559 :     }
; 3560 :     for ( UCHAR attempt = 0; !m_fHubThreadClosing && attempt < 5; attempt++ ) {

  00080	e59620b8	 ldr         r2, [r6, #0xB8]
  00084	e2843001	 add         r3, r4, #1
  00088	e20340ff	 and         r4, r3, #0xFF
  0008c	e3520000	 cmp         r2, #0
  00090	0affffed	 beq         |$LL5@ResetAndEn@2|
  00094	ea000023	 b           |$LN15@ResetAndEn@2|
  00098		 |$LN12@ResetAndEn@2|

; 3566 :             USB_HUB_AND_PORT_STATUS portStatus;
; 3567 :             fSuccess = ( GetStatus( port, portStatus ) &&
; 3568 :                          portStatus.change.port.ResetChange && // port has reset
; 3569 :                          !portStatus.status.port.PortReset && // reset no longer asserted
; 3570 :                          portStatus.status.port.PortEnabled && // port enabled
; 3571 :                          SetOrClearFeature( port, // clear reset change flag
; 3572 :                                             USB_REQUEST_CLEAR_FEATURE,
; 3573 :                                             USB_HUB_FEATURE_C_PORT_RESET ) );

  00098	e5963000	 ldr         r3, [r6]
  0009c	e28d2004	 add         r2, sp, #4
  000a0	e1a01007	 mov         r1, r7
  000a4	e5933058	 ldr         r3, [r3, #0x58]
  000a8	e1a00006	 mov         r0, r6
  000ac	e1a0e00f	 mov         lr, pc
  000b0	e12fff13	 bx          r3
  000b4	e3500000	 cmp         r0, #0
  000b8	0a000019	 beq         |$LN9@ResetAndEn@2|
  000bc	e1dd30b6	 ldrh        r3, [sp, #6]
  000c0	e3130010	 tst         r3, #0x10
  000c4	0a000016	 beq         |$LN9@ResetAndEn@2|
  000c8	e1dd20b4	 ldrh        r2, [sp, #4]
  000cc	e1a03802	 mov         r3, r2, lsl #16
  000d0	e1a03823	 mov         r3, r3, lsr #16
  000d4	e3130010	 tst         r3, #0x10
  000d8	1a000011	 bne         |$LN9@ResetAndEn@2|
  000dc	e1a03802	 mov         r3, r2, lsl #16
  000e0	e1a03823	 mov         r3, r3, lsr #16
  000e4	e3130002	 tst         r3, #2
  000e8	0a00000d	 beq         |$LN9@ResetAndEn@2|
  000ec	e5961000	 ldr         r1, [r6]
  000f0	e3a03014	 mov         r3, #0x14
  000f4	e3a02001	 mov         r2, #1
  000f8	e5914050	 ldr         r4, [r1, #0x50]
  000fc	e1a01007	 mov         r1, r7
  00100	e1a00006	 mov         r0, r6
  00104	e1a0e00f	 mov         lr, pc
  00108	e12fff14	 bx          r4
  0010c	e3500000	 cmp         r0, #0
  00110	0a000003	 beq         |$LN9@ResetAndEn@2|

; 3574 :             if (fSuccess) { // According Specification. 50 ms delay after this.
; 3575 :                 Sleep(50);

  00114	e3a00032	 mov         r0, #0x32
  00118	e3a05001	 mov         r5, #1
  0011c	eb000000	 bl          Sleep
  00120	ea000000	 b           |$LN15@ResetAndEn@2|
  00124		 |$LN9@ResetAndEn@2|

; 3566 :             USB_HUB_AND_PORT_STATUS portStatus;
; 3567 :             fSuccess = ( GetStatus( port, portStatus ) &&
; 3568 :                          portStatus.change.port.ResetChange && // port has reset
; 3569 :                          !portStatus.status.port.PortReset && // reset no longer asserted
; 3570 :                          portStatus.status.port.PortEnabled && // port enabled
; 3571 :                          SetOrClearFeature( port, // clear reset change flag
; 3572 :                                             USB_REQUEST_CLEAR_FEATURE,
; 3573 :                                             USB_HUB_FEATURE_C_PORT_RESET ) );

  00124	e3a05000	 mov         r5, #0
  00128		 |$LN15@ResetAndEn@2|

; 3576 :             }
; 3577 :             break;
; 3578 :         }
; 3579 :     }
; 3580 : #if 0
; 3581 :     while ( fSuccess && !m_fHubThreadClosing ) {
; 3582 :         // make sure reset is signalled for at least 10ms
; 3583 :         Sleep( 10 );
; 3584 :         fSuccess = !m_fHubThreadClosing && GetStatus( port, portStatus );
; 3585 :         if ( fSuccess &&
; 3586 :              portStatus.change.port.ResetChange && // port has reset
; 3587 :              !portStatus.status.port.PortReset && // reset no longer asserted
; 3588 :              portStatus.status.port.PortEnabled ) { // port enabled
; 3589 : 
; 3590 :             DEBUGMSG( ZONE_ATTACH && ZONE_VERBOSE, (TEXT("%s: CExternalHub::ResetAndEnablePort - status.change = 0x%x, status.word = 0x%x\n"),GetControllerName(), portStatus.change.word, portStatus.status.word) );
; 3591 :             Sleep( 10 ); // give reset 10 ms to take hold
; 3592 :             break;
; 3593 :         }
; 3594 :     }
; 3595 : #endif
; 3596 :     DEBUGMSG( ZONE_ATTACH && ZONE_VERBOSE, (TEXT("%s: -CExternalHub::ResetAndEnablePort - port = %d, returning %d\n"),GetControllerName(), port, fSuccess ) );
; 3597 :     return fSuccess;
; 3598 : }

  00128	e1a00005	 mov         r0, r5
  0012c	e28dd008	 add         sp, sp, #8
  00130	e8bd43f0	 ldmia       sp!, {r4 - r9, lr}
  00134	e12fff1e	 bx          lr
  00138		 |$M38490|

			 ENDP  ; |?ResetAndEnablePort@CExternalHub@@EAAHE@Z|, CExternalHub::ResetAndEnablePort

	EXPORT	|?DisablePort@CExternalHub@@EAAXE@Z|	; CExternalHub::DisablePort

  00000			 AREA	 |.pdata|, PDATA
|$T38501| DCD	|$LN6@DisablePor@2|
	DCD	0x40000e01
; Function compile flags: /Ogspy

  00000			 AREA	 |.text|, CODE, ARM

  00000		 |?DisablePort@CExternalHub@@EAAXE@Z| PROC ; CExternalHub::DisablePort

; 3611 : {

  00000		 |$LN6@DisablePor@2|
  00000	e92d4010	 stmdb       sp!, {r4, lr}
  00004		 |$M38498|

; 3612 :     DEBUGMSG( ZONE_ATTACH && ZONE_VERBOSE, (TEXT("%s: +CExternalHub::DisablePort - port = %d\n"),GetControllerName(), port) );
; 3613 : 
; 3614 :     if ( !m_fHubThreadClosing ) {

  00004	e59030b8	 ldr         r3, [r0, #0xB8]
  00008	e3530000	 cmp         r3, #0
  0000c	1a000007	 bne         |$LN1@DisablePor@2|

; 3615 :         SetOrClearFeature( port,
; 3616 :                            USB_REQUEST_CLEAR_FEATURE,
; 3617 :                            USB_HUB_FEATURE_PORT_ENABLE );

  00010	e590e000	 ldr         lr, [r0]
  00014	e3a03001	 mov         r3, #1
  00018	e3a02001	 mov         r2, #1
  0001c	e59e4050	 ldr         r4, [lr, #0x50]
  00020	e1a0e00f	 mov         lr, pc
  00024	e12fff14	 bx          r4

; 3618 :         // disable port can take time to act
; 3619 :         Sleep( 10 );

  00028	e3a0000a	 mov         r0, #0xA
  0002c	eb000000	 bl          Sleep
  00030		 |$LN1@DisablePor@2|

; 3620 :     }
; 3621 : 
; 3622 :     DEBUGMSG( ZONE_ATTACH && ZONE_VERBOSE, (TEXT("%s: -CExternalHub::DisablePort - port = %d\n"),GetControllerName(), port) );
; 3623 : }

  00030	e8bd4010	 ldmia       sp!, {r4, lr}
  00034	e12fff1e	 bx          lr
  00038		 |$M38499|

			 ENDP  ; |?DisablePort@CExternalHub@@EAAXE@Z|, CExternalHub::DisablePort

	EXPORT	|?SetOrClearFeature@CExternalHub@@EAAHGEG@Z| ; CExternalHub::SetOrClearFeature

  00000			 AREA	 |.pdata|, PDATA
|$T38520| DCD	|$LN14@SetOrClear@3|
	DCD	0x40005302
; Function compile flags: /Ogspy

  00000			 AREA	 |.text|, CODE, ARM

  00000		 |?SetOrClearFeature@CExternalHub@@EAAHGEG@Z| PROC ; CExternalHub::SetOrClearFeature

; 3645 : {

  00000		 |$LN14@SetOrClear@3|
  00000	e92d4ff0	 stmdb       sp!, {r4 - r11, lr}
  00004	e24dd04c	 sub         sp, sp, #0x4C
  00008		 |$M38517|
  00008	e1a04003	 mov         r4, r3
  0000c	e3510000	 cmp         r1, #0
  00010	e1a09000	 mov         r9, r0
  00014	e3a03c01	 mov         r3, #1, 24

; 3646 :     DEBUGMSG( ZONE_HUB && ZONE_VERBOSE, (TEXT("%s: +CExternalHub::SetOrClearFeature - port = %d, set/clear = 0x%x, feature = 0x%x\n"),GetControllerName(), port, setOrClearFeature, feature) );
; 3647 : 
; 3648 : #ifdef DEBUG
; 3649 : {
; 3650 :     if ( setOrClearFeature == USB_REQUEST_CLEAR_FEATURE ) {
; 3651 :         if ( port == 0 ) {
; 3652 :             // USB spec 1.1, 11.16.2.2 - these are the only
; 3653 :             // features which should be cleared for ports
; 3654 :             DEBUGCHK( feature == USB_HUB_FEATURE_C_HUB_LOCAL_POWER ||
; 3655 :                       feature == USB_HUB_FEATURE_C_HUB_OVER_CURRENT ||
; 3656 :                       feature == USB_FEATURE_ENDPOINT_STALL );
; 3657 :         } else {
; 3658 :             // USB spec 1.1, 11.16.2.2 - these are the only
; 3659 :             // features which should be cleared for ports
; 3660 :             DEBUGCHK( feature == USB_HUB_FEATURE_PORT_ENABLE ||
; 3661 :                       feature == USB_HUB_FEATURE_PORT_SUSPEND ||
; 3662 :                       feature == USB_HUB_FEATURE_PORT_POWER ||
; 3663 :                       feature == USB_HUB_FEATURE_C_PORT_CONNECTION ||
; 3664 :                       feature == USB_HUB_FEATURE_C_PORT_RESET ||
; 3665 :                       feature == USB_HUB_FEATURE_C_PORT_ENABLE ||
; 3666 :                       feature == USB_HUB_FEATURE_C_PORT_SUSPEND ||
; 3667 :                       feature == USB_HUB_FEATURE_C_PORT_OVER_CURRENT );
; 3668 :         }
; 3669 :     } else if ( setOrClearFeature == USB_REQUEST_SET_FEATURE ) {
; 3670 :         // should only be setting port features
; 3671 :         DEBUGCHK( port > 0 &&
; 3672 :                   (feature == USB_HUB_FEATURE_PORT_RESET ||
; 3673 :                    feature == USB_HUB_FEATURE_PORT_SUSPEND ||
; 3674 :                    feature == USB_HUB_FEATURE_PORT_INDICATOR ||
; 3675 :                    feature == USB_HUB_FEATURE_PORT_POWER) );
; 3676 :     } else {
; 3677 :         // shouldn't be here
; 3678 :         DebugBreak();
; 3679 :     }
; 3680 :     DEBUGCHK( m_maxNumPipes == 2 && // control and status change
; 3681 :               m_ppCPipe[ ENDPOINT0_CONTROL_PIPE ] != NULL &&
; 3682 :               port <= m_usbHubDescriptor.bNumberOfPorts );
; 3683 : }
; 3684 : #endif // DEBUG
; 3685 : 
; 3686 :     BOOL                fTransferDone = FALSE;
; 3687 :     DWORD               dwBytesTransferred = 0;
; 3688 :     DWORD               dwErrorFlags = USB_NOT_COMPLETE_ERROR;

  00018	e383e003	 orr         lr, r3, #3
  0001c	e3a03000	 mov         r3, #0
  00020	e58d3038	 str         r3, [sp, #0x38]

; 3689 :     HCD_REQUEST_STATUS  status = requestFailed;
; 3690 :     USB_DEVICE_REQUEST  usbRequest;
; 3691 :     if ( port == 0 ) {
; 3692 :         usbRequest.bmRequestType = USB_REQUEST_HOST_TO_DEVICE | USB_REQUEST_CLASS | USB_REQUEST_FOR_DEVICE;

  00024	03a03020	 moveq       r3, #0x20

; 3693 :     } else {
; 3694 :         usbRequest.bmRequestType = USB_REQUEST_HOST_TO_DEVICE | USB_REQUEST_CLASS | USB_REQUEST_FOR_OTHER;

  00028	13a03023	 movne       r3, #0x23
  0002c	e5cd3044	 strb        r3, [sp, #0x44]

; 3695 :     }
; 3696 :     usbRequest.bRequest = setOrClearFeature;
; 3697 :     usbRequest.wValue = feature;
; 3698 :     usbRequest.wIndex = port;
; 3699 :     usbRequest.wLength = 0;
; 3700 :     PREFAST_DEBUGCHK(m_ppCPipe != NULL);
; 3701 :     
; 3702 :     if ( !m_fHubThreadClosing ) {

  00030	e59930b8	 ldr         r3, [r9, #0xB8]
  00034	e3a00000	 mov         r0, #0
  00038	e58d003c	 str         r0, [sp, #0x3C]
  0003c	e3a00000	 mov         r0, #0
  00040	e3530000	 cmp         r3, #0
  00044	e58de040	 str         lr, [sp, #0x40]
  00048	e5cd2045	 strb        r2, [sp, #0x45]
  0004c	e1cd44b6	 strh        r4, [sp, #0x46]
  00050	e1cd14b8	 strh        r1, [sp, #0x48]
  00054	e1cd04ba	 strh        r0, [sp, #0x4A]
  00058	1a000036	 bne         |$LN8@SetOrClear@3|

; 3703 :         status = m_ppCPipe[ ENDPOINT0_CONTROL_PIPE ]->IssueTransfer(
; 3704 :                          m_address, // address of this hub
; 3705 :                          TransferDoneCallbackSetEvent, // callback func
; 3706 :                          m_hHubStatusChangeEvent, // callback param
; 3707 :                          USB_OUT_TRANSFER | USB_SEND_TO_DEVICE, // transfer flags
; 3708 :                          &usbRequest, // control request
; 3709 :                          0, // dwStartingFrame (not used)
; 3710 :                          0, // dwFrames (not used)
; 3711 :                          NULL, // aLengths (not used)
; 3712 :                          0, // buffer size
; 3713 :                          NULL, // buffer
; 3714 :                          0, // phys addr of buffer (not used)
; 3715 :                          this, // cancel id
; 3716 :                          NULL, // adwIsochErrors (not used)
; 3717 :                          NULL, // adwIsochLengths (not used)
; 3718 :                          &fTransferDone, // OUT param for transfer
; 3719 :                          &dwBytesTransferred, // OUT param for transfer
; 3720 :                          &dwErrorFlags ); // OUT param for transfer

  0005c	e599105c	 ldr         r1, [r9, #0x5C]
  00060	e59930bc	 ldr         r3, [r9, #0xBC]
  00064	e59f20dc	 ldr         r2, [pc, #0xDC]
  00068	e5910000	 ldr         r0, [r1]
  0006c	e5d91020	 ldrb        r1, [r9, #0x20]
  00070	e28d6040	 add         r6, sp, #0x40
  00074	e590e000	 ldr         lr, [r0]
  00078	e28d403c	 add         r4, sp, #0x3C
  0007c	e28d5038	 add         r5, sp, #0x38
  00080	e59e800c	 ldr         r8, [lr, #0xC]
  00084	e28d7044	 add         r7, sp, #0x44
  00088	e3a0ba01	 mov         r11, #1, 20
  0008c	e3a0a000	 mov         r10, #0
  00090	e58d6034	 str         r6, [sp, #0x34]
  00094	e58d4030	 str         r4, [sp, #0x30]
  00098	e58d502c	 str         r5, [sp, #0x2C]
  0009c	e58da028	 str         r10, [sp, #0x28]
  000a0	e58da024	 str         r10, [sp, #0x24]
  000a4	e58d9020	 str         r9, [sp, #0x20]
  000a8	e58da01c	 str         r10, [sp, #0x1C]
  000ac	e58da018	 str         r10, [sp, #0x18]
  000b0	e58da014	 str         r10, [sp, #0x14]
  000b4	e58da010	 str         r10, [sp, #0x10]
  000b8	e58da00c	 str         r10, [sp, #0xC]
  000bc	e58da008	 str         r10, [sp, #8]
  000c0	e58d7004	 str         r7, [sp, #4]
  000c4	e58db000	 str         r11, [sp]
  000c8	e1a0e00f	 mov         lr, pc
  000cc	e12fff18	 bx          r8

; 3721 :         if ( status == requestOK ) {

  000d0	e3500001	 cmp         r0, #1
  000d4	1a000017	 bne         |$LN8@SetOrClear@3|

; 3722 :             WaitForSingleObject( m_hHubStatusChangeEvent,STANDARD_REQUEST_TIMEOUT);         

  000d8	e59900bc	 ldr         r0, [r9, #0xBC]
  000dc	e3a01f7d	 mov         r1, #0x7D, 30
  000e0	eb000000	 bl          WaitForSingleObject

; 3723 :             if ( m_fHubThreadClosing ) {

  000e4	e59930b8	 ldr         r3, [r9, #0xB8]
  000e8	e3530000	 cmp         r3, #0
  000ec	0a000008	 beq         |$LN1@SetOrClear@3|

; 3724 :                 m_ppCPipe[ ENDPOINT0_CONTROL_PIPE ]->AbortTransfer(
; 3725 :                                                NULL, // callback function
; 3726 :                                                NULL, // callback parameter
; 3727 :                                                this ); // cancel ID

  000f0	e599105c	 ldr         r1, [r9, #0x5C]
  000f4	e1a03009	 mov         r3, r9
  000f8	e3a02000	 mov         r2, #0
  000fc	e5910000	 ldr         r0, [r1]
  00100	e3a01000	 mov         r1, #0
  00104	e5904000	 ldr         r4, [r0]
  00108	e5944010	 ldr         r4, [r4, #0x10]
  0010c	e1a0e00f	 mov         lr, pc
  00110	e12fff14	 bx          r4
  00114		 |$LN1@SetOrClear@3|

; 3728 :             }
; 3729 :         }
; 3730 :         //DEBUGCHK( fTransferDone );
; 3731 :     }
; 3732 :     BOOL fSuccess = (status == requestOK &&
; 3733 :                      fTransferDone &&
; 3734 :                      dwBytesTransferred == 0 &&
; 3735 :                      dwErrorFlags == USB_NO_ERROR);

  00114	e59d3038	 ldr         r3, [sp, #0x38]
  00118	e3530000	 cmp         r3, #0
  0011c	0a000005	 beq         |$LN8@SetOrClear@3|
  00120	e59d303c	 ldr         r3, [sp, #0x3C]
  00124	e3530000	 cmp         r3, #0
  00128	059d3040	 ldreq       r3, [sp, #0x40]
  0012c	03530000	 cmpeq       r3, #0
  00130	03a00001	 moveq       r0, #1
  00134	0a000000	 beq         |$LN9@SetOrClear@3|
  00138		 |$LN8@SetOrClear@3|
  00138	e3a00000	 mov         r0, #0
  0013c		 |$LN9@SetOrClear@3|

; 3736 : 
; 3737 :     DEBUGMSG( ZONE_ERROR && !fSuccess, (TEXT("%s: CExternalHub::SetOrClearFeature - port = %d, set/clear = 0x%x, feature = 0x%x, FAILED\n"),GetControllerName(), port, setOrClearFeature, feature ) );
; 3738 :     DEBUGMSG( ZONE_HUB && ZONE_VERBOSE, (TEXT("%s: -CExternalHub::SetOrClearFeature - port = %d, set/clear = 0x%x, feature = 0x%x, returing BOOL %d\n"),GetControllerName(), port, setOrClearFeature, feature, fSuccess) );
; 3739 :     return fSuccess;
; 3740 : }

  0013c	e28dd04c	 add         sp, sp, #0x4C
  00140	e8bd4ff0	 ldmia       sp!, {r4 - r11, lr}
  00144	e12fff1e	 bx          lr
  00148		 |$LN15@SetOrClear@3|
  00148		 |$LN16@SetOrClear@3|
  00148	00000000	 DCD         |?TransferDoneCallbackSetEvent@CDevice@@KAKPAX@Z|
  0014c		 |$M38518|

			 ENDP  ; |?SetOrClearFeature@CExternalHub@@EAAHGEG@Z|, CExternalHub::SetOrClearFeature

	EXPORT	|?SetOrClearRemoteWakup@CExternalHub@@EAAHH@Z| ; CExternalHub::SetOrClearRemoteWakup

  00000			 AREA	 |.pdata|, PDATA
|$T38540| DCD	|$LN13@SetOrClear@4|
	DCD	0x40005502
; Function compile flags: /Ogspy

  00000			 AREA	 |.text|, CODE, ARM

  00000		 |?SetOrClearRemoteWakup@CExternalHub@@EAAHH@Z| PROC ; CExternalHub::SetOrClearRemoteWakup

; 3752 : {

  00000		 |$LN13@SetOrClear@4|
  00000	e92d4ff0	 stmdb       sp!, {r4 - r11, lr}
  00004	e24dd04c	 sub         sp, sp, #0x4C
  00008		 |$M38537|
  00008	e3510000	 cmp         r1, #0
  0000c	e1a09000	 mov         r9, r0
  00010	e3a03c01	 mov         r3, #1, 24

; 3753 :     DEBUGMSG( ZONE_HUB && ZONE_VERBOSE, (TEXT("%s: +CExternalHub::SetOrClearRemoteWakup - bSet = %d\r\n"),GetControllerName(), bSet) );
; 3754 : 
; 3755 :     BOOL                fTransferDone = FALSE;
; 3756 :     DWORD               dwBytesTransferred = 0;
; 3757 :     DWORD               dwErrorFlags = USB_NOT_COMPLETE_ERROR;

  00014	e3833003	 orr         r3, r3, #3
  00018	e3a02000	 mov         r2, #0

; 3758 :     HCD_REQUEST_STATUS  status = requestFailed;
; 3759 :     USB_DEVICE_REQUEST  usbRequest;
; 3760 :     
; 3761 :     usbRequest.bmRequestType = USB_REQUEST_HOST_TO_DEVICE | USB_REQUEST_FOR_DEVICE;

  0001c	e58d3040	 str         r3, [sp, #0x40]

; 3762 :     usbRequest.bRequest = (bSet? USB_REQUEST_SET_FEATURE : USB_REQUEST_CLEAR_FEATURE);
; 3763 :     usbRequest.wValue = USB_FEATURE_REMOTE_WAKEUP;
; 3764 :     usbRequest.wIndex = 0;
; 3765 :     usbRequest.wLength = 0;
; 3766 : 
; 3767 :     if ( !m_fHubThreadClosing ) {

  00020	e59930b8	 ldr         r3, [r9, #0xB8]
  00024	e3a01000	 mov         r1, #0
  00028	e3a00000	 mov         r0, #0
  0002c	e58d2038	 str         r2, [sp, #0x38]
  00030	e58d103c	 str         r1, [sp, #0x3C]
  00034	e5cd0044	 strb        r0, [sp, #0x44]
  00038	13a02003	 movne       r2, #3
  0003c	03a02001	 moveq       r2, #1
  00040	e3a01001	 mov         r1, #1
  00044	e3a00000	 mov         r0, #0
  00048	e3a0e000	 mov         lr, #0
  0004c	e3530000	 cmp         r3, #0
  00050	e5cd2045	 strb        r2, [sp, #0x45]
  00054	e1cd14b6	 strh        r1, [sp, #0x46]
  00058	e1cd04b8	 strh        r0, [sp, #0x48]
  0005c	e1cde4ba	 strh        lr, [sp, #0x4A]
  00060	1a000036	 bne         |$LN8@SetOrClear@4|

; 3768 :         status = m_ppCPipe[ ENDPOINT0_CONTROL_PIPE ]->IssueTransfer(
; 3769 :                          m_address, // address of this hub
; 3770 :                          TransferDoneCallbackSetEvent, // callback func
; 3771 :                          m_hHubStatusChangeEvent, // callback param
; 3772 :                          USB_OUT_TRANSFER | USB_SEND_TO_DEVICE, // transfer flags
; 3773 :                          &usbRequest, // control request
; 3774 :                          0, // dwStartingFrame (not used)
; 3775 :                          0, // dwFrames (not used)
; 3776 :                          NULL, // aLengths (not used)
; 3777 :                          0, // buffer size
; 3778 :                          NULL, // buffer
; 3779 :                          0, // phys addr of buffer (not used)
; 3780 :                          this, // cancel id
; 3781 :                          NULL, // adwIsochErrors (not used)
; 3782 :                          NULL, // adwIsochLengths (not used)
; 3783 :                          &fTransferDone, // OUT param for transfer
; 3784 :                          &dwBytesTransferred, // OUT param for transfer
; 3785 :                          &dwErrorFlags ); // OUT param for transfer

  00064	e599105c	 ldr         r1, [r9, #0x5C]
  00068	e59930bc	 ldr         r3, [r9, #0xBC]
  0006c	e59f20dc	 ldr         r2, [pc, #0xDC]
  00070	e5910000	 ldr         r0, [r1]
  00074	e5d91020	 ldrb        r1, [r9, #0x20]
  00078	e28d6040	 add         r6, sp, #0x40
  0007c	e590e000	 ldr         lr, [r0]
  00080	e28d403c	 add         r4, sp, #0x3C
  00084	e28d5038	 add         r5, sp, #0x38
  00088	e59e800c	 ldr         r8, [lr, #0xC]
  0008c	e28d7044	 add         r7, sp, #0x44
  00090	e3a0ba01	 mov         r11, #1, 20
  00094	e3a0a000	 mov         r10, #0
  00098	e58d6034	 str         r6, [sp, #0x34]
  0009c	e58d4030	 str         r4, [sp, #0x30]
  000a0	e58d502c	 str         r5, [sp, #0x2C]
  000a4	e58da028	 str         r10, [sp, #0x28]
  000a8	e58da024	 str         r10, [sp, #0x24]
  000ac	e58d9020	 str         r9, [sp, #0x20]
  000b0	e58da01c	 str         r10, [sp, #0x1C]
  000b4	e58da018	 str         r10, [sp, #0x18]
  000b8	e58da014	 str         r10, [sp, #0x14]
  000bc	e58da010	 str         r10, [sp, #0x10]
  000c0	e58da00c	 str         r10, [sp, #0xC]
  000c4	e58da008	 str         r10, [sp, #8]
  000c8	e58d7004	 str         r7, [sp, #4]
  000cc	e58db000	 str         r11, [sp]
  000d0	e1a0e00f	 mov         lr, pc
  000d4	e12fff18	 bx          r8

; 3786 :         if ( status == requestOK ) {

  000d8	e3500001	 cmp         r0, #1
  000dc	1a000017	 bne         |$LN8@SetOrClear@4|

; 3787 :             WaitForSingleObject( m_hHubStatusChangeEvent, INFINITE );

  000e0	e59900bc	 ldr         r0, [r9, #0xBC]
  000e4	e3e01000	 mvn         r1, #0
  000e8	eb000000	 bl          WaitForSingleObject

; 3788 :             if ( m_fHubThreadClosing ) {

  000ec	e59930b8	 ldr         r3, [r9, #0xB8]
  000f0	e3530000	 cmp         r3, #0
  000f4	0a000008	 beq         |$LN1@SetOrClear@4|

; 3789 :                 m_ppCPipe[ ENDPOINT0_CONTROL_PIPE ]->AbortTransfer(
; 3790 :                                                NULL, // callback function
; 3791 :                                                NULL, // callback parameter
; 3792 :                                                this ); // cancel ID

  000f8	e599105c	 ldr         r1, [r9, #0x5C]
  000fc	e1a03009	 mov         r3, r9
  00100	e3a02000	 mov         r2, #0
  00104	e5910000	 ldr         r0, [r1]
  00108	e3a01000	 mov         r1, #0
  0010c	e5904000	 ldr         r4, [r0]
  00110	e5944010	 ldr         r4, [r4, #0x10]
  00114	e1a0e00f	 mov         lr, pc
  00118	e12fff14	 bx          r4
  0011c		 |$LN1@SetOrClear@4|

; 3793 :             }
; 3794 :         }
; 3795 :         DEBUGCHK( fTransferDone );
; 3796 :     }
; 3797 :     BOOL fSuccess = (status == requestOK &&
; 3798 :                      fTransferDone &&
; 3799 :                      dwBytesTransferred == 0 &&
; 3800 :                      dwErrorFlags == USB_NO_ERROR);

  0011c	e59d3038	 ldr         r3, [sp, #0x38]
  00120	e3530000	 cmp         r3, #0
  00124	0a000005	 beq         |$LN8@SetOrClear@4|
  00128	e59d303c	 ldr         r3, [sp, #0x3C]
  0012c	e3530000	 cmp         r3, #0
  00130	059d3040	 ldreq       r3, [sp, #0x40]
  00134	03530000	 cmpeq       r3, #0
  00138	03a00001	 moveq       r0, #1
  0013c	0a000000	 beq         |$LN9@SetOrClear@4|
  00140		 |$LN8@SetOrClear@4|
  00140	e3a00000	 mov         r0, #0
  00144		 |$LN9@SetOrClear@4|

; 3801 : 
; 3802 :     DEBUGMSG( ZONE_HUB && ZONE_VERBOSE, (TEXT("-CExternalHub::SetOrClearRemoteWakup -  returing BOOL %d\n"),fSuccess));
; 3803 :     return fSuccess;
; 3804 :     
; 3805 : }

  00144	e28dd04c	 add         sp, sp, #0x4C
  00148	e8bd4ff0	 ldmia       sp!, {r4 - r11, lr}
  0014c	e12fff1e	 bx          lr
  00150		 |$LN14@SetOrClear@4|
  00150		 |$LN15@SetOrClear@4|
  00150	00000000	 DCD         |?TransferDoneCallbackSetEvent@CDevice@@KAKPAX@Z|
  00154		 |$M38538|

			 ENDP  ; |?SetOrClearRemoteWakup@CExternalHub@@EAAHH@Z|, CExternalHub::SetOrClearRemoteWakup

	EXPORT	|?SignalHub@CExternalHub@@UAAXXZ|	; CExternalHub::SignalHub
; File c:\wince600\public\common\sdk\inc\kfuncs.h

  00000			 AREA	 |.pdata|, PDATA
|$T38554| DCD	|$LN8@SignalHub@2|
	DCD	0x40000e01
; Function compile flags: /Ogspy
; File c:\wince600\platform\common\src\soc\common_ti_v1\omap3530\musb\musbhcd\usb2com\cdevice.cpp

  00000			 AREA	 |.text|, CODE, ARM

  00000		 |?SignalHub@CExternalHub@@UAAXXZ| PROC	; CExternalHub::SignalHub

; 3811 : { 

  00000		 |$LN8@SignalHub@2|
  00000	e92d4010	 stmdb       sp!, {r4, lr}
  00004		 |$M38551|
  00004	e1a04000	 mov         r4, r0

; 3812 :     if (m_hHubStatusChangeEvent) 

  00008	e59430bc	 ldr         r3, [r4, #0xBC]
  0000c	e3530000	 cmp         r3, #0

; 3813 :         SetEvent(m_hHubStatusChangeEvent); 

  00010	13a01003	 movne       r1, #3
  00014	11a00003	 movne       r0, r3
  00018	1b000000	 blne        EventModify

; 3814 :     // We need to call this again so that it would go to next tier ... until the end    
; 3815 :     SignalHubStatusChange();

  0001c	e5943000	 ldr         r3, [r4]
  00020	e1a00004	 mov         r0, r4
  00024	e5933044	 ldr         r3, [r3, #0x44]
  00028	e1a0e00f	 mov         lr, pc
  0002c	e12fff13	 bx          r3

; 3816 : 
; 3817 : }

  00030	e8bd4010	 ldmia       sp!, {r4, lr}
  00034	e12fff1e	 bx          lr
  00038		 |$M38552|

			 ENDP  ; |?SignalHub@CExternalHub@@UAAXXZ|, CExternalHub::SignalHub

	EXPORT	|?NotifyOnSuspendedResumed@CFunction@@UAAHH@Z| ; CFunction::NotifyOnSuspendedResumed
; File c:\wince600\platform\common\src\soc\common_ti_v1\omap3530\musb\musbhcd\usb2com\cdevice.hpp

  00000			 AREA	 |.pdata|, PDATA
|$T38571| DCD	|$LN8@NotifyOnSu@3|
	DCD	0x40001701
; Function compile flags: /Ogspy
; File c:\wince600\platform\common\src\soc\common_ti_v1\omap3530\musb\musbhcd\usb2com\cdevice.cpp

  00000			 AREA	 |.text|, CODE, ARM

  00000		 |?NotifyOnSuspendedResumed@CFunction@@UAAHH@Z| PROC ; CFunction::NotifyOnSuspendedResumed

; 3968 : {

  00000		 |$LN8@NotifyOnSu@3|
  00000	e92d4070	 stmdb       sp!, {r4 - r6, lr}
  00004		 |$M38568|
  00004	e1a06001	 mov         r6, r1
  00008	e1a04000	 mov         r4, r0

; 3969 :     EnterCriticalSection( &m_csDeviceLock );

  0000c	e284000c	 add         r0, r4, #0xC
  00010	eb000000	 bl          EnterCriticalSection

; 3970 :     LPUSBD_SUSPEND_RESUME_PROC pProc= m_pCHcd->GetpUSBDSuspendedResumed();

  00014	e5943068	 ldr         r3, [r4, #0x68]

; 3971 :     BOOL fSuccess = FALSE;

  00018	e3a05000	 mov         r5, #0
  0001c	e5933084	 ldr         r3, [r3, #0x84]
  00020	e1b02003	 movs        r2, r3

; 3972 :     if (pProc && m_lpvDetachId ) {

  00024	0a000007	 beq         |$LN1@NotifyOnSu@3|
  00028	e5943060	 ldr         r3, [r4, #0x60]
  0002c	e3530000	 cmp         r3, #0
  00030	0a000004	 beq         |$LN1@NotifyOnSu@3|

; 3973 :         fSuccess = (*pProc)(m_lpvDetachId, fResumed);

  00034	e1a01006	 mov         r1, r6
  00038	e1a00003	 mov         r0, r3
  0003c	e1a0e00f	 mov         lr, pc
  00040	e12fff12	 bx          r2
  00044	e1a05000	 mov         r5, r0
  00048		 |$LN1@NotifyOnSu@3|

; 3974 :     }
; 3975 :     LeaveCriticalSection( &m_csDeviceLock );

  00048	e284000c	 add         r0, r4, #0xC
  0004c	eb000000	 bl          LeaveCriticalSection

; 3976 :     return fSuccess;
; 3977 : }

  00050	e1a00005	 mov         r0, r5
  00054	e8bd4070	 ldmia       sp!, {r4 - r6, lr}
  00058	e12fff1e	 bx          lr
  0005c		 |$M38569|

			 ENDP  ; |?NotifyOnSuspendedResumed@CFunction@@UAAHH@Z|, CFunction::NotifyOnSuspendedResumed

	EXPORT	|?OpenPipe@CFunction@@UAA?AW4HCD_REQUEST_STATUS@@IQBU_USB_ENDPOINT_DESCRIPTOR@@QAI@Z| ; CFunction::OpenPipe
	EXPORT	|??_C@_1DI@CPJNJMAA@?$AAI?$AAs?$AAo?$AAc?$AAh?$AAr?$AAo?$AAn?$AAo?$AAu?$AAs?$AA?5?$AAn?$AAo?$AAt?$AA?5?$AAs?$AAu?$AAp?$AAp?$AAo?$AAr?$AAt?$AAe?$AAd?$AA?$AN?$AA?6?$AA?$AA@| [ DATA ] ; `string'
	IMPORT	|?CreateControlPipe@@YAPAVCPipeAbs@@QBU_USB_ENDPOINT_DESCRIPTOR@@HHEEEHQAVCHcd@@@Z| ; CreateControlPipe
	IMPORT	|NKDbgPrintfW|
	IMPORT	|?CreateBulkPipe@@YAPAVCPipeAbs@@QBU_USB_ENDPOINT_DESCRIPTOR@@HHEEEHQAVCHcd@@@Z| ; CreateBulkPipe
	IMPORT	|?CreateInterruptPipe@@YAPAVCPipeAbs@@QBU_USB_ENDPOINT_DESCRIPTOR@@HHEEEHQAVCHcd@@@Z| ; CreateInterruptPipe
	IMPORT	|memcmp|

  00000			 AREA	 |.pdata|, PDATA
|$T38610| DCD	|$LN42@OpenPipe@2|
	DCD	0x4000c802

  00000			 AREA	 |.rdata|, DATA, READONLY
|??_C@_1DI@CPJNJMAA@?$AAI?$AAs?$AAo?$AAc?$AAh?$AAr?$AAo?$AAn?$AAo?$AAu?$AAs?$AA?5?$AAn?$AAo?$AAt?$AA?5?$AAs?$AAu?$AAp?$AAp?$AAo?$AAr?$AAt?$AAe?$AAd?$AA?$AN?$AA?6?$AA?$AA@| DCB "I"
	DCB	0x0, "s", 0x0, "o", 0x0, "c", 0x0, "h", 0x0, "r", 0x0, "o"
	DCB	0x0, "n", 0x0, "o", 0x0, "u", 0x0, "s", 0x0, " ", 0x0, "n"
	DCB	0x0, "o", 0x0, "t", 0x0, " ", 0x0, "s", 0x0, "u", 0x0, "p"
	DCB	0x0, "p", 0x0, "o", 0x0, "r", 0x0, "t", 0x0, "e", 0x0, "d"
	DCB	0x0, 0xd, 0x0, 0xa, 0x0, 0x0, 0x0	; `string'
; Function compile flags: /Ogspy

  00000			 AREA	 |.text|, CODE, ARM

  00000		 |?OpenPipe@CFunction@@UAA?AW4HCD_REQUEST_STATUS@@IQBU_USB_ENDPOINT_DESCRIPTOR@@QAI@Z| PROC ; CFunction::OpenPipe

; 4002 : {

  00000		 |$LN42@OpenPipe@2|
  00000	e92d4ff0	 stmdb       sp!, {r4 - r11, lr}
  00004	e24dd02c	 sub         sp, sp, #0x2C
  00008		 |$M38607|
  00008	e1a0b002	 mov         r11, r2
  0000c	e1a06000	 mov         r6, r0
  00010	e58db018	 str         r11, [sp, #0x18]
  00014	e58d6024	 str         r6, [sp, #0x24]
  00018	e58d301c	 str         r3, [sp, #0x1C]

; 4003 :     DEBUGMSG( ZONE_FUNCTION && ZONE_VERBOSE, (TEXT("%s: +CFunction(tier %d)::OpenPipe - address = %d\n"),GetControllerName(), m_tierNumber, address) );
; 4004 : 
; 4005 :     HCD_REQUEST_STATUS status = requestIgnored;
; 4006 :     UCHAR pipe				  = 0;
; 4007 : 	UCHAR bNumEndpoints		  = 0;
; 4008 : 	UCHAR bEndpoint			  = 0;
; 4009 : 	UCHAR bMaxEndpoints		  = 0;
; 4010 :     int cInterfaces			  = 0;
; 4011 :     BOOL fFound				  = FALSE;
; 4012 : 
; 4013 :     // don't have to enter critical section until after checking
; 4014 :     // m_address (since m_address is const). That ensures we
; 4015 :     // won't wait for the critical section unless we actually
; 4016 :     // have something to do
; 4017 :     if ( address == m_address ) {

  0001c	e5d6e020	 ldrb        lr, [r6, #0x20]
  00020	e3a08002	 mov         r8, #2
  00024	e3a07000	 mov         r7, #0
  00028	e151000e	 cmp         r1, lr
  0002c	1a0000b6	 bne         |$LN24@OpenPipe@2|

; 4018 :         EnterCriticalSection( &m_csDeviceLock );

  00030	e286000c	 add         r0, r6, #0xC
  00034	eb000000	 bl          EnterCriticalSection

; 4019 :         // OpenPipe is referring to this device. Must return
; 4020 :         // something other than requestIgnored.
; 4021 :         status = requestFailed;
; 4022 : 
; 4023 :         PREFAST_DEBUGCHK( m_ppCPipe != NULL);
; 4024 :         DEBUGCHK( m_maxNumPipes > 0 &&
; 4025 :                   m_deviceInfo.lpActiveConfig != NULL &&
; 4026 :                   m_deviceInfo.lpActiveConfig->lpInterfaces != NULL);// &&
; 4027 : //                  m_maxNumPipes == m_deviceInfo.lpActiveConfig->lpInterfaces[0].Descriptor.bNumEndpoints + 1 );
; 4028 : 
; 4029 : //        DEBUGCHK( m_deviceInfo.lpActiveConfig->lpInterfaces[0].lpEndpoints != NULL );
; 4030 :         // There are m_maxNumPipes, but the endpoint descriptor for
; 4031 :         // the control pipe to endpoint 0 is not stored in our array of
; 4032 :         // endpoint descriptors. Thus, we only need to check
; 4033 :         // m_maxNumPipes - 1 pipes. The pipe needs to be indexed from 1,
; 4034 :         // since 0 already refers to the endpoint0 control pipe.
; 4035 : //        DEBUGCHK( m_maxNumPipes - 1 == m_deviceInfo.lpActiveConfig->lpInterfaces[0].Descriptor.bNumEndpoints );
; 4036 :         DEBUGCHK( m_ppCPipe[ ENDPOINT0_CONTROL_PIPE ] != NULL );
; 4037 :         pipe = 0;
; 4038 :         fFound = FALSE;
; 4039 :         bMaxEndpoints = 0;
; 4040 :         cInterfaces = m_deviceInfo.lpActiveConfig->dwNumInterfaces;

  00038	e5963040	 ldr         r3, [r6, #0x40]
  0003c	e3a01000	 mov         r1, #0
  00040	e3a08000	 mov         r8, #0
  00044	e593a014	 ldr         r10, [r3, #0x14]
  00048	e5cd1011	 strb        r1, [sp, #0x11]
  0004c	e3a04000	 mov         r4, #0

; 4041 :         if (cInterfaces < 1) {

  00050	e35a0001	 cmp         r10, #1

; 4042 :             DEBUGCHK(0); // shouldn't be possible - test is here to make prefast happy.
; 4043 :             return status;

  00054	b3a08000	 movlt       r8, #0
  00058	e58da028	 str         r10, [sp, #0x28]
  0005c	e3a09000	 mov         r9, #0
  00060	ba0000a9	 blt         |$LN24@OpenPipe@2|

; 4044 :         }
; 4045 :         for ( UCHAR bInterface = 0; bInterface < cInterfaces && !fFound; bInterface++ ){

  00064	e3a05000	 mov         r5, #0
  00068	e35a0000	 cmp         r10, #0
  0006c	da0000a4	 ble         |$LN1@OpenPipe@2|
  00070		 |$LL22@OpenPipe@2|
  00070	e3540000	 cmp         r4, #0
  00074	1a00002f	 bne         |$LN35@OpenPipe@2|

; 4046 :             bNumEndpoints = m_deviceInfo.lpActiveConfig->lpInterfaces[bInterface].Descriptor.bNumEndpoints;

  00078	e5932018	 ldr         r2, [r3, #0x18]
  0007c	e0653185	 rsb         r3, r5, r5, lsl #3

; 4047 :             for(bEndpoint = 0; bEndpoint < bNumEndpoints && !fFound; bEndpoint++ ){

  00080	e3a07000	 mov         r7, #0
  00084	e0823103	 add         r3, r2, r3, lsl #2
  00088	e5d3b008	 ldrb        r11, [r3, #8]
  0008c	e58d3014	 str         r3, [sp, #0x14]
  00090	e1b0200b	 movs        r2, r11
  00094	e58d2020	 str         r2, [sp, #0x20]
  00098	0a000015	 beq         |$LN17@OpenPipe@2|
  0009c	e59da018	 ldr         r10, [sp, #0x18]
  000a0	e1a06003	 mov         r6, r3
  000a4		 |$LL19@OpenPipe@2|
  000a4	e3540000	 cmp         r4, #0
  000a8	1a00000d	 bne         |$LN36@OpenPipe@2|

; 4048 :                 if ( memcmp( &m_deviceInfo.lpActiveConfig->lpInterfaces[bInterface].lpEndpoints[ bEndpoint ].Descriptor, lpEndpointDescriptor, sizeof( USB_ENDPOINT_DESCRIPTOR ) ) == 0 ) {

  000ac	e5961014	 ldr         r1, [r6, #0x14]
  000b0	e0873107	 add         r3, r7, r7, lsl #2
  000b4	e3a02007	 mov         r2, #7
  000b8	e0813103	 add         r3, r1, r3, lsl #2
  000bc	e2830004	 add         r0, r3, #4
  000c0	e1a0100a	 mov         r1, r10
  000c4	eb000000	 bl          memcmp
  000c8	e59d2020	 ldr         r2, [sp, #0x20]
  000cc	e2873001	 add         r3, r7, #1
  000d0	e3500000	 cmp         r0, #0
  000d4	e20370ff	 and         r7, r3, #0xFF

; 4049 :                     fFound = TRUE;

  000d8	03a04001	 moveq       r4, #1
  000dc	e1570002	 cmp         r7, r2
  000e0	3affffef	 bcc         |$LL19@OpenPipe@2|
  000e4		 |$LN36@OpenPipe@2|

; 4002 : {

  000e4	e59d6024	 ldr         r6, [sp, #0x24]

; 4019 :         // OpenPipe is referring to this device. Must return
; 4020 :         // something other than requestIgnored.
; 4021 :         status = requestFailed;
; 4022 : 
; 4023 :         PREFAST_DEBUGCHK( m_ppCPipe != NULL);
; 4024 :         DEBUGCHK( m_maxNumPipes > 0 &&
; 4025 :                   m_deviceInfo.lpActiveConfig != NULL &&
; 4026 :                   m_deviceInfo.lpActiveConfig->lpInterfaces != NULL);// &&
; 4027 : //                  m_maxNumPipes == m_deviceInfo.lpActiveConfig->lpInterfaces[0].Descriptor.bNumEndpoints + 1 );
; 4028 : 
; 4029 : //        DEBUGCHK( m_deviceInfo.lpActiveConfig->lpInterfaces[0].lpEndpoints != NULL );
; 4030 :         // There are m_maxNumPipes, but the endpoint descriptor for
; 4031 :         // the control pipe to endpoint 0 is not stored in our array of
; 4032 :         // endpoint descriptors. Thus, we only need to check
; 4033 :         // m_maxNumPipes - 1 pipes. The pipe needs to be indexed from 1,
; 4034 :         // since 0 already refers to the endpoint0 control pipe.
; 4035 : //        DEBUGCHK( m_maxNumPipes - 1 == m_deviceInfo.lpActiveConfig->lpInterfaces[0].Descriptor.bNumEndpoints );
; 4036 :         DEBUGCHK( m_ppCPipe[ ENDPOINT0_CONTROL_PIPE ] != NULL );
; 4037 :         pipe = 0;
; 4038 :         fFound = FALSE;
; 4039 :         bMaxEndpoints = 0;
; 4040 :         cInterfaces = m_deviceInfo.lpActiveConfig->dwNumInterfaces;

  000e8	e59da028	 ldr         r10, [sp, #0x28]

; 4057 :                 pipe = pipe + (UCHAR)bMaxEndpoints;

  000ec	e5dd1011	 ldrb        r1, [sp, #0x11]
  000f0	e59d3014	 ldr         r3, [sp, #0x14]
  000f4		 |$LN17@OpenPipe@2|
  000f4	e5d33007	 ldrb        r3, [r3, #7]
  000f8	e3530000	 cmp         r3, #0
  000fc	0a000002	 beq         |$LN15@OpenPipe@2|

; 4050 :                 }
; 4051 :             }
; 4052 :             if(m_deviceInfo.lpActiveConfig->lpInterfaces[bInterface].Descriptor.bAlternateSetting != 0){
; 4053 :                 if(bMaxEndpoints < bNumEndpoints)

  00100	e1590002	 cmp         r9, r2
  00104	2a000004	 bcs         |$LN21@OpenPipe@2|

; 4054 :                     bMaxEndpoints = bNumEndpoints;
; 4055 :             }
; 4056 :             else {

  00108	ea000002	 b           |$LN37@OpenPipe@2|
  0010c		 |$LN15@OpenPipe@2|

; 4057 :                 pipe = pipe + (UCHAR)bMaxEndpoints;

  0010c	e0893001	 add         r3, r9, r1
  00110	e20310ff	 and         r1, r3, #0xFF
  00114	e5cd1011	 strb        r1, [sp, #0x11]
  00118		 |$LN37@OpenPipe@2|

; 4058 :                 bMaxEndpoints = bNumEndpoints;

  00118	e1a0900b	 mov         r9, r11
  0011c		 |$LN21@OpenPipe@2|
  0011c	e2853001	 add         r3, r5, #1
  00120	e20350ff	 and         r5, r3, #0xFF
  00124	e5963040	 ldr         r3, [r6, #0x40]
  00128	e155000a	 cmp         r5, r10
  0012c	baffffcf	 blt         |$LL22@OpenPipe@2|

; 4059 :             }
; 4060 : 
; 4061 :         }
; 4062 : 
; 4063 :         DEBUGCHK(fFound);
; 4064 : 
; 4065 :         if(fFound){

  00130	e3540000	 cmp         r4, #0
  00134	0a000072	 beq         |$LN1@OpenPipe@2|
  00138		 |$LN35@OpenPipe@2|

; 4066 :             pipe = pipe + (UCHAR)bEndpoint;
; 4067 : 
; 4068 :             DEBUGMSG( ZONE_ERROR && pipe == m_maxNumPipes, (TEXT("%s: CFunction(tier %d)::OpenPipe - endpoint descriptor doesn't match any of this device's endpoints!\n"),GetControllerName(), m_tierNumber) );
; 4069 :             if ( pipe < m_maxNumPipes ) {

  00138	e5d62054	 ldrb        r2, [r6, #0x54]
  0013c	e0873001	 add         r3, r7, r1
  00140	e20370ff	 and         r7, r3, #0xFF
  00144	e1570002	 cmp         r7, r2
  00148	2a00006d	 bcs         |$LN1@OpenPipe@2|

; 4070 :                 if ( m_ppCPipe[ pipe ] != NULL ) {

  0014c	e596305c	 ldr         r3, [r6, #0x5C]
  00150	e7933107	 ldr         r3, [r3, +r7, lsl #2]
  00154	e3530000	 cmp         r3, #0

; 4071 :                     DEBUGMSG( ZONE_WARNING, (TEXT("%s: CFunction(tier %d)::OpenPipe - address %d pipe %d appears to have been opened before\n"),GetControllerName(), m_tierNumber, address, pipe) );
; 4072 :                     status = requestOK;
; 4073 :                     *lpiEndpointIndex = pipe;
; 4074 :                 } else {

  00158	1a00005a	 bne         |$LN39@OpenPipe@2|

; 4075 :                     UCHAR uTTAddress=0;
; 4076 :                     UCHAR uTTPort=0;
; 4077 :                     BOOL ttContext = NULL;
; 4078 :                     GetUSB2TT(uTTAddress, uTTPort,ttContext);

  0015c	e5963000	 ldr         r3, [r6]
  00160	e3a09000	 mov         r9, #0
  00164	e3a0a000	 mov         r10, #0
  00168	e5934034	 ldr         r4, [r3, #0x34]
  0016c	e3a05000	 mov         r5, #0
  00170	e28d3014	 add         r3, sp, #0x14
  00174	e28d2010	 add         r2, sp, #0x10
  00178	e28d1011	 add         r1, sp, #0x11
  0017c	e1a00006	 mov         r0, r6
  00180	e5cd9011	 strb        r9, [sp, #0x11]
  00184	e5cda010	 strb        r10, [sp, #0x10]
  00188	e58d5014	 str         r5, [sp, #0x14]
  0018c	e1a0e00f	 mov         lr, pc
  00190	e12fff14	 bx          r4

; 4079 :                     switch ( lpEndpointDescriptor->bmAttributes & USB_ENDPOINT_TYPE_MASK ) {

  00194	e59db018	 ldr         r11, [sp, #0x18]
  00198	e5db3003	 ldrb        r3, [r11, #3]
  0019c	e2133003	 ands        r3, r3, #3
  001a0	0a000024	 beq         |$LN5@OpenPipe@2|
  001a4	e3530001	 cmp         r3, #1
  001a8	0a00001f	 beq         |$LN3@OpenPipe@2|
  001ac	e3530002	 cmp         r3, #2
  001b0	0a00000f	 beq         |$LN6@OpenPipe@2|
  001b4	e3530003	 cmp         r3, #3
  001b8	1a00002d	 bne         |$LN7@OpenPipe@2|

; 4091 :                         break;
; 4092 :                       case USB_ENDPOINT_TYPE_INTERRUPT:
; 4093 :                         m_ppCPipe[ pipe ] = CreateInterruptPipe( lpEndpointDescriptor,
; 4094 :                                                                 m_fIsLowSpeed,m_fIsHighSpeed,m_address,
; 4095 :                                                                 uTTAddress,uTTPort,ttContext,
; 4096 :                                                                 m_pCHcd);

  001bc	e5960068	 ldr         r0, [r6, #0x68]
  001c0	e59de014	 ldr         lr, [sp, #0x14]
  001c4	e5dd4010	 ldrb        r4, [sp, #0x10]
  001c8	e5dd5011	 ldrb        r5, [sp, #0x11]
  001cc	e5d63020	 ldrb        r3, [r6, #0x20]
  001d0	e5962048	 ldr         r2, [r6, #0x48]
  001d4	e5961044	 ldr         r1, [r6, #0x44]
  001d8	e58d000c	 str         r0, [sp, #0xC]
  001dc	e1a0000b	 mov         r0, r11
  001e0	e58de008	 str         lr, [sp, #8]
  001e4	e58d4004	 str         r4, [sp, #4]
  001e8	e58d5000	 str         r5, [sp]
  001ec	eb000000	 bl          |?CreateInterruptPipe@@YAPAVCPipeAbs@@QBU_USB_ENDPOINT_DESCRIPTOR@@HHEEEHQAVCHcd@@@Z|

; 4097 :                         break;

  001f0	ea00001d	 b           |$LN38@OpenPipe@2|
  001f4		 |$LN6@OpenPipe@2|

; 4080 :                       case USB_ENDPOINT_TYPE_BULK:
; 4081 :                         m_ppCPipe[ pipe ] = CreateBulkPipe( lpEndpointDescriptor,
; 4082 :                                                            m_fIsLowSpeed,m_fIsHighSpeed,m_address,
; 4083 :                                                            uTTAddress,uTTPort,ttContext,
; 4084 :                                                            m_pCHcd);

  001f4	e5960068	 ldr         r0, [r6, #0x68]
  001f8	e59de014	 ldr         lr, [sp, #0x14]
  001fc	e5dd4010	 ldrb        r4, [sp, #0x10]
  00200	e5dd5011	 ldrb        r5, [sp, #0x11]
  00204	e5d63020	 ldrb        r3, [r6, #0x20]
  00208	e5962048	 ldr         r2, [r6, #0x48]
  0020c	e5961044	 ldr         r1, [r6, #0x44]
  00210	e58d000c	 str         r0, [sp, #0xC]
  00214	e1a0000b	 mov         r0, r11
  00218	e58de008	 str         lr, [sp, #8]
  0021c	e58d4004	 str         r4, [sp, #4]
  00220	e58d5000	 str         r5, [sp]
  00224	eb000000	 bl          |?CreateBulkPipe@@YAPAVCPipeAbs@@QBU_USB_ENDPOINT_DESCRIPTOR@@HHEEEHQAVCHcd@@@Z|

; 4085 :                         break;

  00228	ea00000f	 b           |$LN38@OpenPipe@2|
  0022c		 |$LN3@OpenPipe@2|

; 4098 :                       case USB_ENDPOINT_TYPE_ISOCHRONOUS:
; 4099 : #if 0
; 4100 :                         m_ppCPipe[ pipe ] = CreateIsochronousPipe( lpEndpointDescriptor,
; 4101 :                                                                   m_fIsLowSpeed,m_fIsHighSpeed,m_address,
; 4102 :                                                                   uTTAddress,uTTPort,ttContext,
; 4103 :                                                                   m_pCHcd);
; 4104 : #else
; 4105 :                         RETAILMSG(1, (TEXT("Isochronous not supported\r\n")));

  0022c	e59f00e8	 ldr         r0, [pc, #0xE8]
  00230	eb000000	 bl          NKDbgPrintfW

; 4106 : #endif
; 4107 :                         break;

  00234	ea00000e	 b           |$LN7@OpenPipe@2|
  00238		 |$LN5@OpenPipe@2|

; 4086 :                       case USB_ENDPOINT_TYPE_CONTROL:
; 4087 :                         m_ppCPipe[ pipe ] = CreateControlPipe( lpEndpointDescriptor,
; 4088 :                                                               m_fIsLowSpeed,m_fIsHighSpeed,m_address,
; 4089 :                                                               uTTAddress,uTTPort,ttContext,
; 4090 :                                                               m_pCHcd);

  00238	e5960068	 ldr         r0, [r6, #0x68]
  0023c	e59de014	 ldr         lr, [sp, #0x14]
  00240	e5dd4010	 ldrb        r4, [sp, #0x10]
  00244	e5dd5011	 ldrb        r5, [sp, #0x11]
  00248	e5d63020	 ldrb        r3, [r6, #0x20]
  0024c	e5962048	 ldr         r2, [r6, #0x48]
  00250	e5961044	 ldr         r1, [r6, #0x44]
  00254	e58d000c	 str         r0, [sp, #0xC]
  00258	e1a0000b	 mov         r0, r11
  0025c	e58de008	 str         lr, [sp, #8]
  00260	e58d4004	 str         r4, [sp, #4]
  00264	e58d5000	 str         r5, [sp]
  00268	eb000000	 bl          |?CreateControlPipe@@YAPAVCPipeAbs@@QBU_USB_ENDPOINT_DESCRIPTOR@@HHEEEHQAVCHcd@@@Z|
  0026c		 |$LN38@OpenPipe@2|
  0026c	e596305c	 ldr         r3, [r6, #0x5C]
  00270	e7830107	 str         r0, [r3, +r7, lsl #2]
  00274		 |$LN7@OpenPipe@2|

; 4108 : #ifdef DEBUG
; 4109 :                       default:
; 4110 :                         DebugBreak(); // shouldn't be here
; 4111 :                             break;
; 4112 : #endif // DEBUG
; 4113 :                     }
; 4114 :                     if ( m_ppCPipe[ pipe ] != NULL &&
; 4115 :                          m_ppCPipe[ pipe ]->SetReservedDeviceAddr(m_address) && 
; 4116 :                          m_ppCPipe[ pipe ]->OpenPipe() == requestOK ) {

  00274	e596305c	 ldr         r3, [r6, #0x5C]
  00278	e7933107	 ldr         r3, [r3, +r7, lsl #2]
  0027c	e3530000	 cmp         r3, #0
  00280	0a000014	 beq         |$LN2@OpenPipe@2|
  00284	e596305c	 ldr         r3, [r6, #0x5C]
  00288	e5d61020	 ldrb        r1, [r6, #0x20]
  0028c	e7930107	 ldr         r0, [r3, +r7, lsl #2]
  00290	e5903000	 ldr         r3, [r0]
  00294	e5933024	 ldr         r3, [r3, #0x24]
  00298	e1a0e00f	 mov         lr, pc
  0029c	e12fff13	 bx          r3
  002a0	e3500000	 cmp         r0, #0
  002a4	0a00000b	 beq         |$LN2@OpenPipe@2|
  002a8	e596305c	 ldr         r3, [r6, #0x5C]
  002ac	e7930107	 ldr         r0, [r3, +r7, lsl #2]
  002b0	e5903000	 ldr         r3, [r0]
  002b4	e5933004	 ldr         r3, [r3, #4]
  002b8	e1a0e00f	 mov         lr, pc
  002bc	e12fff13	 bx          r3
  002c0	e3500001	 cmp         r0, #1
  002c4	1a000003	 bne         |$LN2@OpenPipe@2|
  002c8		 |$LN39@OpenPipe@2|

; 4117 :                         DEBUGMSG( ZONE_FUNCTION && ZONE_VERBOSE, (TEXT("%s: CFunction(tier %d)::OpenPipe - opened new pipe, address %d, pipe %d\n"),GetControllerName(), m_tierNumber, address, pipe ) );
; 4118 :                         status = requestOK;
; 4119 :                         *lpiEndpointIndex = pipe;

  002c8	e59d301c	 ldr         r3, [sp, #0x1C]
  002cc	e3a08001	 mov         r8, #1
  002d0	e5837000	 str         r7, [r3]

; 4120 :                     } else {

  002d4	ea00000a	 b           |$LN1@OpenPipe@2|
  002d8		 |$LN2@OpenPipe@2|

; 4121 :                         delete m_ppCPipe[ pipe ];

  002d8	e596305c	 ldr         r3, [r6, #0x5C]
  002dc	e7933107	 ldr         r3, [r3, +r7, lsl #2]
  002e0	e1b00003	 movs        r0, r3
  002e4	15903000	 ldrne       r3, [r0]
  002e8	13a01001	 movne       r1, #1
  002ec	15933000	 ldrne       r3, [r3]
  002f0	11a0e00f	 movne       lr, pc
  002f4	112fff13	 bxne        r3

; 4122 :                         m_ppCPipe[ pipe ] = NULL;

  002f8	e596305c	 ldr         r3, [r6, #0x5C]
  002fc	e3a02000	 mov         r2, #0
  00300	e7832107	 str         r2, [r3, +r7, lsl #2]
  00304		 |$LN1@OpenPipe@2|

; 4123 :                     }
; 4124 :                 }
; 4125 :             }
; 4126 :         }
; 4127 :         LeaveCriticalSection( &m_csDeviceLock );

  00304	e286000c	 add         r0, r6, #0xC
  00308	eb000000	 bl          LeaveCriticalSection
  0030c		 |$LN24@OpenPipe@2|

; 4128 :     }
; 4129 : 
; 4130 :     DEBUGMSG( ZONE_FUNCTION && ZONE_VERBOSE, (TEXT("%s: -CFunction(tier %d)::OpenPipe - address = %d, returing HCD_REQUEST_STATUS %d\n"),GetControllerName(), m_tierNumber, address, status) );
; 4131 :     return status;
; 4132 : }

  0030c	e1a00008	 mov         r0, r8
  00310	e28dd02c	 add         sp, sp, #0x2C
  00314	e8bd4ff0	 ldmia       sp!, {r4 - r11, lr}
  00318	e12fff1e	 bx          lr
  0031c		 |$LN43@OpenPipe@2|
  0031c		 |$LN44@OpenPipe@2|
  0031c	00000000	 DCD         |??_C@_1DI@CPJNJMAA@?$AAI?$AAs?$AAo?$AAc?$AAh?$AAr?$AAo?$AAn?$AAo?$AAu?$AAs?$AA?5?$AAn?$AAo?$AAt?$AA?5?$AAs?$AAu?$AAp?$AAp?$AAo?$AAr?$AAt?$AAe?$AAd?$AA?$AN?$AA?6?$AA?$AA@|
  00320		 |$M38608|

			 ENDP  ; |?OpenPipe@CFunction@@UAA?AW4HCD_REQUEST_STATUS@@IQBU_USB_ENDPOINT_DESCRIPTOR@@QAI@Z|, CFunction::OpenPipe

	EXPORT	|?ClosePipe@CFunction@@UAA?AW4HCD_REQUEST_STATUS@@II@Z| ; CFunction::ClosePipe

  00000			 AREA	 |.pdata|, PDATA
|$T38630| DCD	|$LN9@ClosePipe@2|
	DCD	0x40002801
; Function compile flags: /Ogspy

  00000			 AREA	 |.text|, CODE, ARM

  00000		 |?ClosePipe@CFunction@@UAA?AW4HCD_REQUEST_STATUS@@II@Z| PROC ; CFunction::ClosePipe

; 4151 : {

  00000		 |$LN9@ClosePipe@2|
  00000	e92d4070	 stmdb       sp!, {r4 - r6, lr}
  00004		 |$M38627|
  00004	e1a05002	 mov         r5, r2
  00008	e1a04000	 mov         r4, r0

; 4152 :     DEBUGMSG( ZONE_FUNCTION && ZONE_VERBOSE, (TEXT("%s: +CFunction(tier %d)::ClosePipe - address = %d, pipe = %d\n"),GetControllerName(), m_tierNumber, address, pipeIndex) );
; 4153 : 
; 4154 :     HCD_REQUEST_STATUS status = requestIgnored;
; 4155 : 
; 4156 : 
; 4157 :     // don't have to enter critical section until after checking
; 4158 :     // m_address (since m_address is const). That ensures we
; 4159 :     // won't wait for the critical section unless we actually
; 4160 :     // have something to do
; 4161 :     if ( address == m_address ) {

  0000c	e5d43020	 ldrb        r3, [r4, #0x20]
  00010	e3a06002	 mov         r6, #2
  00014	e1510003	 cmp         r1, r3
  00018	1a00001d	 bne         |$LN2@ClosePipe@2|

; 4162 :         EnterCriticalSection( &m_csDeviceLock );

  0001c	e284000c	 add         r0, r4, #0xC
  00020	eb000000	 bl          EnterCriticalSection

; 4163 :         status = requestOK; // if the pipe doesn't exists, we can return
; 4164 :                             // that ClosePipe worked
; 4165 :         if ( pipeIndex < m_maxNumPipes && m_ppCPipe[ pipeIndex ] != NULL ) {

  00024	e5d43054	 ldrb        r3, [r4, #0x54]
  00028	e3a06001	 mov         r6, #1
  0002c	e1550003	 cmp         r5, r3
  00030	2a000015	 bcs         |$LN1@ClosePipe@2|
  00034	e594305c	 ldr         r3, [r4, #0x5C]
  00038	e7933105	 ldr         r3, [r3, +r5, lsl #2]
  0003c	e3530000	 cmp         r3, #0
  00040	0a000011	 beq         |$LN1@ClosePipe@2|

; 4166 :             status = m_ppCPipe[ pipeIndex ]->ClosePipe( );

  00044	e594305c	 ldr         r3, [r4, #0x5C]
  00048	e7930105	 ldr         r0, [r3, +r5, lsl #2]
  0004c	e5903000	 ldr         r3, [r0]
  00050	e5933008	 ldr         r3, [r3, #8]
  00054	e1a0e00f	 mov         lr, pc
  00058	e12fff13	 bx          r3

; 4167 :             DEBUGMSG( ZONE_FUNCTION, (TEXT("%s: CFunction(tier %d)::ClosePipe - address = %d, deleting pipe %d\n"),GetControllerName(), m_tierNumber, address, pipeIndex) );
; 4168 :             delete m_ppCPipe[ pipeIndex ];

  0005c	e594305c	 ldr         r3, [r4, #0x5C]
  00060	e1a06000	 mov         r6, r0
  00064	e7933105	 ldr         r3, [r3, +r5, lsl #2]
  00068	e1b00003	 movs        r0, r3
  0006c	15903000	 ldrne       r3, [r0]
  00070	13a01001	 movne       r1, #1
  00074	15933000	 ldrne       r3, [r3]
  00078	11a0e00f	 movne       lr, pc
  0007c	112fff13	 bxne        r3

; 4169 :             m_ppCPipe[ pipeIndex ] = NULL;

  00080	e594305c	 ldr         r3, [r4, #0x5C]
  00084	e3a02000	 mov         r2, #0
  00088	e7832105	 str         r2, [r3, +r5, lsl #2]
  0008c		 |$LN1@ClosePipe@2|

; 4170 :         }
; 4171 :     #ifdef DEBUG
; 4172 :         else {
; 4173 :             DEBUGMSG( ZONE_WARNING, (TEXT("%s: CFunction(tier %d)::ClosePipe - warning, pipe does not exist. Returning requestOK\n"),GetControllerName(), m_tierNumber) );
; 4174 :         }
; 4175 :     #endif // DEBUG
; 4176 :         LeaveCriticalSection( &m_csDeviceLock );

  0008c	e284000c	 add         r0, r4, #0xC
  00090	eb000000	 bl          LeaveCriticalSection
  00094		 |$LN2@ClosePipe@2|

; 4177 :     }
; 4178 : 
; 4179 :     DEBUGMSG( ZONE_FUNCTION && ZONE_VERBOSE, (TEXT("%s: -CFunction(tier %d)::ClosePipe - address = %d, pipe = %d, returing HCD_REQUEST_STATUS %d\n"),GetControllerName(), m_tierNumber, address, pipeIndex, status) );
; 4180 :     return status;
; 4181 : }

  00094	e1a00006	 mov         r0, r6
  00098	e8bd4070	 ldmia       sp!, {r4 - r6, lr}
  0009c	e12fff1e	 bx          lr
  000a0		 |$M38628|

			 ENDP  ; |?ClosePipe@CFunction@@UAA?AW4HCD_REQUEST_STATUS@@II@Z|, CFunction::ClosePipe

	EXPORT	|?IssueTransfer@CFunction@@UAA?AW4HCD_REQUEST_STATUS@@IIQ6AKPAX@ZQAXKQBXKKQBKK2K3QAK5QAH55@Z| ; CFunction::IssueTransfer
	EXPORT	|??_C@_1LG@HEEINJNP@?$AA?$CB?$AA?$CB?$AA?$CB?$AAC?$AAF?$AAu?$AAn?$AAc?$AAt?$AAi?$AAo?$AAn?$AA?$CI?$AA?5?$AAt?$AAi?$AAe?$AAr?$AA?5?$AA?$CF?$AAd?$AA?$CJ?$AA?3?$AA?3?$AAI?$AAs?$AAs?$AAu?$AAe?$AAT?$AAr?$AAa@| [ DATA ] ; `string'

  00000			 AREA	 |.pdata|, PDATA
|$T38646| DCD	|$LN11@IssueTrans@2|
	DCD	0x40005002

  00000			 AREA	 |.rdata|, DATA, READONLY
|??_C@_1LG@HEEINJNP@?$AA?$CB?$AA?$CB?$AA?$CB?$AAC?$AAF?$AAu?$AAn?$AAc?$AAt?$AAi?$AAo?$AAn?$AA?$CI?$AA?5?$AAt?$AAi?$AAe?$AAr?$AA?5?$AA?$CF?$AAd?$AA?$CJ?$AA?3?$AA?3?$AAI?$AAs?$AAs?$AAu?$AAe?$AAT?$AAr?$AAa@| DCB "!"
	DCB	0x0, "!", 0x0, "!", 0x0, "C", 0x0, "F", 0x0, "u", 0x0, "n"
	DCB	0x0, "c", 0x0, "t", 0x0, "i", 0x0, "o", 0x0, "n", 0x0, "("
	DCB	0x0, " ", 0x0, "t", 0x0, "i", 0x0, "e", 0x0, "r", 0x0, " "
	DCB	0x0, "%", 0x0, "d", 0x0, ")", 0x0, ":", 0x0, ":", 0x0, "I"
	DCB	0x0, "s", 0x0, "s", 0x0, "u", 0x0, "e", 0x0, "T", 0x0, "r"
	DCB	0x0, "a", 0x0, "n", 0x0, "s", 0x0, "f", 0x0, "e", 0x0, "r"
	DCB	0x0, " ", 0x0, "o", 0x0, "n", 0x0, " ", 0x0, "s", 0x0, "u"
	DCB	0x0, "s", 0x0, "p", 0x0, "e", 0x0, "n", 0x0, "d", 0x0, " "
	DCB	0x0, "s", 0x0, "t", 0x0, "a", 0x0, "t", 0x0, "e", 0x0, " "
	DCB	0x0, "i", 0x0, "s", 0x0, " ", 0x0, "i", 0x0, "l", 0x0, "l"
