; Listing generated by Microsoft (R) Optimizing Compiler Version 14.01.60511.01 

	TTL	C:\WINCE600\PLATFORM\EVM_OMAP3530\SRC\DRIVERS\SMSC9118\platform.c
	CODE32

  00000			 AREA	 |.drectve|, DRECTVE
	DCB	"-defaultlib:LIBCMT "
	DCB	"-defaultlib:OLDNAMES "


  00000			 AREA	 |.bss|, NOINIT
|hGPIO|	%	0x4

  00000			 AREA	 |.rdata|, DATA, READONLY
|EdbgVendorIds| DCW 0x0
	DCW	0x0
	DCD	0x4033
	DCB	0x1
	DCB	"AD", 0x0
	DCW	0x1050
	DCW	0x940
	DCD	0x4005
	DCB	0x1
	DCB	"LS", 0x0
	DCW	0x1050
	DCW	0x940
	DCD	0x2078
	DCB	0x1
	DCB	"LS", 0x0
	DCW	0x10ec
	DCW	0x8029
	DCD	0xc0f0
	DCB	0x1
	DCB	"KS", 0x0
	DCW	0x10ec
	DCW	0x8129
	DCD	0x0
	DCB	0x4
	DCB	"RT", 0x0
	DCW	0x10ec
	DCW	0x8139
	DCD	0x900b
	DCB	0x4
	DCB	"RT", 0x0
	DCW	0x10ec
	DCW	0x8139
	DCD	0xd0c9
	DCB	0x4
	DCB	"RT", 0x0
	DCW	0x10ec
	DCW	0x8139
	DCD	0xe04c
	DCB	0x4
	DCB	"RT", 0x0
	DCW	0x1186
	DCW	0x1300
	DCD	0x50ba
	DCB	0x4
	DCB	"DL", 0x0
	DCW	0x100b
	DCW	0x20
	DCD	0xa0cc
	DCB	0x5
	DCB	"NG", 0x0
	DCW	0x10b7
	DCW	0x9050
	DCD	0x6008
	DCB	0x6
	DCB	"3C", 0x0
	DCW	0x10b7
	DCW	0x9200
	DCD	0x476
	DCB	0x6
	DCB	"3C", 0x0
	EXPORT	|PlatformSetBusWidth|
; File c:\wince600\platform\evm_omap3530\src\drivers\smsc9118\platform.c

  00000			 AREA	 |.pdata|, PDATA
|$T50870| DCD	|$LN5@PlatformSe|
	DCD	0x40000100
; Function compile flags: /Ogspy

  00000			 AREA	 |.text|, CODE, ARM

  00000		 |PlatformSetBusWidth| PROC

; 115  : {

  00000		 |$LN5@PlatformSe|
  00000		 |$M50867|

; 116  : 	// Nothing to do here
; 117  : 	UNREFERENCED_PARAMETER(dwBusWidth);
; 118  : }

  00000	e12fff1e	 bx          lr
  00004		 |$M50868|

			 ENDP  ; |PlatformSetBusWidth|

	EXPORT	|PlatformInitialize|
	IMPORT	|GPIOSetMode|
	IMPORT	|GPIOOpen|

  00000			 AREA	 |.pdata|, PDATA
|$T50877| DCD	|$LN7@PlatformIn|
	DCD	0x40000b01
; Function compile flags: /Ogspy

  00000			 AREA	 |.text|, CODE, ARM

  00000		 |PlatformInitialize| PROC

; 125  : {

  00000		 |$LN7@PlatformIn|
  00000	e52de004	 str         lr, [sp, #-4]!
  00004		 |$M50874|

; 126  : 	SMSC_TRACE0(DBG_INIT, "+PlatformInitialize()\r\n");
; 127  : 
; 128  : 	hGPIO = GPIOOpen();

  00004	eb000000	 bl          GPIOOpen
  00008	e59f3018	 ldr         r3, [pc, #0x18]
  0000c	e3500000	 cmp         r0, #0

; 129  : 	if (hGPIO == NULL)
; 130  : 	{
; 131  : 		SMSC_WARNING0("Failed to open GPIO bus driver !\r\n");
; 132  : 	}
; 133  : 	else
; 134  : 	{
; 135  : 		// Configure GPIO as input with level low interrupt
; 136  : 		GPIOSetMode(hGPIO, LAN9115_IRQ_GPIO, GPIO_DIR_INPUT | GPIO_INT_LOW);

  00010	13a02009	 movne       r2, #9
  00014	13a010b0	 movne       r1, #0xB0
  00018	e5830000	 str         r0, [r3]
  0001c	1b000000	 blne        GPIOSetMode

; 137  : 	}
; 138  : 
; 139  :     SMSC_TRACE0(DBG_INIT, "-PlatformInitialize()\r\n");
; 140  : }

  00020	e49de004	 ldr         lr, [sp], #4
  00024	e12fff1e	 bx          lr
  00028		 |$LN8@PlatformIn|
  00028		 |$LN9@PlatformIn|
  00028	00000000	 DCD         |hGPIO|
  0002c		 |$M50875|

			 ENDP  ; |PlatformInitialize|

	EXPORT	|PlatformSetBusTiming|

  00000			 AREA	 |.pdata|, PDATA
|$T50886| DCD	|$LN5@PlatformSe@2|
	DCD	0x40000100
; Function compile flags: /Ogspy

  00000			 AREA	 |.text|, CODE, ARM

  00000		 |PlatformSetBusTiming| PROC

; 143  : {

  00000		 |$LN5@PlatformSe@2|
  00000		 |$M50883|

; 144  : 	// Nothing to do here
; 145  : 	UNREFERENCED_PARAMETER(dwChipIdReg);
; 146  : }

  00000	e12fff1e	 bx          lr
  00004		 |$M50884|

			 ENDP  ; |PlatformSetBusTiming|

	EXPORT	|PlatformDisplayInfo|

  00000			 AREA	 |.pdata|, PDATA
|$T50893| DCD	|$LN5@PlatformDi|
	DCD	0x40000100
; Function compile flags: /Ogspy

  00000			 AREA	 |.text|, CODE, ARM

  00000		 |PlatformDisplayInfo| PROC

; 153  : {

  00000		 |$LN5@PlatformDi|
  00000		 |$M50890|

; 154  : }

  00000	e12fff1e	 bx          lr
  00004		 |$M50891|

			 ENDP  ; |PlatformDisplayInfo|

	EXPORT	|DmaStartXfer|

  00000			 AREA	 |.pdata|, PDATA
|$T50902| DCD	|$LN5@DmaStartXf|
	DCD	0x40000200
; Function compile flags: /Ogspy

  00000			 AREA	 |.text|, CODE, ARM

  00000		 |DmaStartXfer| PROC

; 157  : {

  00000		 |$LN5@DmaStartXf|
  00000		 |$M50899|

; 158  :     // Nothing to do here
; 159  : 	UNREFERENCED_PARAMETER(dmaXfer);
; 160  :     return FALSE;

  00000	e3a00000	 mov         r0, #0

; 161  : }

  00004	e12fff1e	 bx          lr
  00008		 |$M50900|

			 ENDP  ; |DmaStartXfer|

	EXPORT	|DmaInitialize|

  00000			 AREA	 |.pdata|, PDATA
|$T50911| DCD	|$LN5@DmaInitial|
	DCD	0x40000200
; Function compile flags: /Ogspy

  00000			 AREA	 |.text|, CODE, ARM

  00000		 |DmaInitialize| PROC

; 164  : {

  00000		 |$LN5@DmaInitial|
  00000		 |$M50908|

; 165  : 	// Nothing to do here
; 166  : 	UNREFERENCED_PARAMETER(hMiniportAdapterContext);
; 167  :     return TRUE;

  00000	e3a00001	 mov         r0, #1

; 168  : }

  00004	e12fff1e	 bx          lr
  00008		 |$M50909|

			 ENDP  ; |DmaInitialize|

	EXPORT	|DmaGetDwCnt|

  00000			 AREA	 |.pdata|, PDATA
|$T50920| DCD	|$LN5@DmaGetDwCn|
	DCD	0x40000200
; Function compile flags: /Ogspy

  00000			 AREA	 |.text|, CODE, ARM

  00000		 |DmaGetDwCnt| PROC

; 171  : {

  00000		 |$LN5@DmaGetDwCn|
  00000		 |$M50917|

; 172  : 	// Nothing to do here
; 173  : 	UNREFERENCED_PARAMETER(dmaXfer);
; 174  : 	UNREFERENCED_PARAMETER(dwDmaCh);
; 175  : 	return 0;

  00000	e3a00000	 mov         r0, #0

; 176  : }

  00004	e12fff1e	 bx          lr
  00008		 |$M50918|

			 ENDP  ; |DmaGetDwCnt|

	EXPORT	|DmaDisable|

  00000			 AREA	 |.pdata|, PDATA
|$T50927| DCD	|$LN5@DmaDisable|
	DCD	0x40000100
; Function compile flags: /Ogspy

  00000			 AREA	 |.text|, CODE, ARM

  00000		 |DmaDisable| PROC

; 179  : {

  00000		 |$LN5@DmaDisable|
  00000		 |$M50924|

; 180  :     // Nothing to do here
; 181  : 	UNREFERENCED_PARAMETER(dmaXfer);
; 182  : 	UNREFERENCED_PARAMETER(dwDmaCh);
; 183  : }

  00000	e12fff1e	 bx          lr
  00004		 |$M50925|

			 ENDP  ; |DmaDisable|

	EXPORT	|DmaComplete|

  00000			 AREA	 |.pdata|, PDATA
|$T50934| DCD	|$LN5@DmaComplet|
	DCD	0x40000100
; Function compile flags: /Ogspy

  00000			 AREA	 |.text|, CODE, ARM

  00000		 |DmaComplete| PROC

; 186  : {

  00000		 |$LN5@DmaComplet|
  00000		 |$M50931|

; 187  :     // Nothing to do here
; 188  : 	UNREFERENCED_PARAMETER(dmaXfer);
; 189  : 	UNREFERENCED_PARAMETER(dwDmaCh);
; 190  : }

  00000	e12fff1e	 bx          lr
  00004		 |$M50932|

			 ENDP  ; |DmaComplete|

	EXPORT	|BufferCacheFlush|

  00000			 AREA	 |.pdata|, PDATA
|$T50941| DCD	|$LN5@BufferCach|
	DCD	0x40000100
; Function compile flags: /Ogspy

  00000			 AREA	 |.text|, CODE, ARM

  00000		 |BufferCacheFlush| PROC

; 197  : {

  00000		 |$LN5@BufferCach|
  00000		 |$M50938|

; 198  :     // Nothing to do here
; 199  : 	UNREFERENCED_PARAMETER(pucBufAddress);
; 200  : 	UNREFERENCED_PARAMETER(uiBufLen);
; 201  : }

  00000	e12fff1e	 bx          lr
  00004		 |$M50939|

			 ENDP  ; |BufferCacheFlush|

	EXPORT	|PlatformEnableGpioInterrupt|

  00000			 AREA	 |.pdata|, PDATA
|$T50948| DCD	|$LN5@PlatformEn|
	DCD	0x40000100
; Function compile flags: /Ogspy

  00000			 AREA	 |.text|, CODE, ARM

  00000		 |PlatformEnableGpioInterrupt| PROC

; 204  : {

  00000		 |$LN5@PlatformEn|
  00000		 |$M50945|

; 205  : 	// Nothing to do here
; 206  : }

  00000	e12fff1e	 bx          lr
  00004		 |$M50946|

			 ENDP  ; |PlatformEnableGpioInterrupt|

	END
