; Listing generated by Microsoft (R) Optimizing Compiler Version 14.01.60511.01 

	TTL	C:\WINCE600\PLATFORM\Z2170P\SRC\DRIVERS\CEDDK\DLL\temp.cpp
	CODE32

  00000			 AREA	 |.drectve|, DRECTVE
	DCB	"-defaultlib:LIBCMT "
	DCB	"-defaultlib:OLDNAMES "

	EXPORT	|BusClockRequest|
; File c:\wince600\platform\z2170p\src\drivers\ceddk\dll\temp.cpp

  00000			 AREA	 |.pdata|, PDATA
|$T39627| DCD	|$LN5@BusClockRe|
	DCD	0x40000200
; Function compile flags: /Ogspy

  00000			 AREA	 |.text|, CODE, ARM

  00000		 |BusClockRequest| PROC

; 16   : {

  00000		 |$LN5@BusClockRe|
  00000		 |$M39624|

; 17   :     UNREFERENCED_PARAMETER(hBus);
; 18   :     UNREFERENCED_PARAMETER(id);
; 19   :    return TRUE;

  00000	e3a00001	 mov         r0, #1

; 20   : }

  00004	e12fff1e	 bx          lr
  00008		 |$M39625|

			 ENDP  ; |BusClockRequest|

	EXPORT	|BusClockRelease|

  00000			 AREA	 |.pdata|, PDATA
|$T39636| DCD	|$LN5@BusClockRe@2|
	DCD	0x40000200
; Function compile flags: /Ogspy

  00000			 AREA	 |.text|, CODE, ARM

  00000		 |BusClockRelease| PROC

; 31   : {

  00000		 |$LN5@BusClockRe@2|
  00000		 |$M39633|

; 32   :     UNREFERENCED_PARAMETER(hBus);
; 33   :     UNREFERENCED_PARAMETER(id);
; 34   :     return TRUE;

  00000	e3a00001	 mov         r0, #1

; 35   : }

  00004	e12fff1e	 bx          lr
  00008		 |$M39634|

			 ENDP  ; |BusClockRelease|

	EXPORT	|BusSourceClocks|

  00000			 AREA	 |.pdata|, PDATA
|$T39645| DCD	|$LN5@BusSourceC|
	DCD	0x40000200
; Function compile flags: /Ogspy

  00000			 AREA	 |.text|, CODE, ARM

  00000		 |BusSourceClocks| PROC

; 48   : {

  00000		 |$LN5@BusSourceC|
  00000		 |$M39642|

; 49   :     UNREFERENCED_PARAMETER(hBus);
; 50   :     UNREFERENCED_PARAMETER(id);
; 51   :     UNREFERENCED_PARAMETER(count);
; 52   :     UNREFERENCED_PARAMETER(rgSourceClocks);
; 53   :     return TRUE;

  00000	e3a00001	 mov         r0, #1

; 54   : }

  00004	e12fff1e	 bx          lr
  00008		 |$M39643|

			 ENDP  ; |BusSourceClocks|

	EXPORT	|GetDisplayResolutionFromBootArgs|
	EXPORT	|??_C@_1EI@NDGNIHKN@?$AAF?$AAa?$AAi?$AAl?$AAe?$AAd?$AA?5?$AAt?$AAo?$AA?5?$AAr?$AAe?$AAa?$AAd?$AA?5?$AAD?$AAi?$AAs?$AAp?$AAl?$AAa?$AAy?$AA?5?$AAr?$AAe?$AAs?$AAo?$AAl?$AAu?$AAt?$AAi?$AAo@| [ DATA ] ; `string'
	IMPORT	|NKDbgPrintfW|
	IMPORT	|KernelIoControl|

  00000			 AREA	 |.pdata|, PDATA
|$T39655| DCD	|$LN8@GetDisplay|
	DCD	0x40001502

  00000			 AREA	 |.rdata|, DATA, READONLY
|??_C@_1EI@NDGNIHKN@?$AAF?$AAa?$AAi?$AAl?$AAe?$AAd?$AA?5?$AAt?$AAo?$AA?5?$AAr?$AAe?$AAa?$AAd?$AA?5?$AAD?$AAi?$AAs?$AAp?$AAl?$AAa?$AAy?$AA?5?$AAr?$AAe?$AAs?$AAo?$AAl?$AAu?$AAt?$AAi?$AAo@| DCB "F"
	DCB	0x0, "a", 0x0, "i", 0x0, "l", 0x0, "e", 0x0, "d", 0x0, " "
	DCB	0x0, "t", 0x0, "o", 0x0, " ", 0x0, "r", 0x0, "e", 0x0, "a"
	DCB	0x0, "d", 0x0, " ", 0x0, "D", 0x0, "i", 0x0, "s", 0x0, "p"
	DCB	0x0, "l", 0x0, "a", 0x0, "y", 0x0, " ", 0x0, "r", 0x0, "e"
	DCB	0x0, "s", 0x0, "o", 0x0, "l", 0x0, "u", 0x0, "t", 0x0, "i"
	DCB	0x0, "o", 0x0, "n", 0x0, 0xd, 0x0, 0xa, 0x0, 0x0, 0x0 ; `string'
; Function compile flags: /Ogspy

  00000			 AREA	 |.text|, CODE, ARM

  00000		 |GetDisplayResolutionFromBootArgs| PROC

; 60   : {    

  00000		 |$LN8@GetDisplay|
  00000	e92d4030	 stmdb       sp!, {r4, r5, lr}
  00004	e24dd00c	 sub         sp, sp, #0xC
  00008		 |$M39652|
  00008	e1a03000	 mov         r3, r0

; 61   :     DWORD   dwKernelRet = 0;
; 62   :     if (!KernelIoControl(IOCTL_HAL_GET_DISPLAY_RES,
; 63   :                          NULL, 0, pDispRes, sizeof(DWORD), &dwKernelRet))

  0000c	e59f003c	 ldr         r0, [pc, #0x3C]
  00010	e3a04000	 mov         r4, #0
  00014	e28de008	 add         lr, sp, #8
  00018	e3a05004	 mov         r5, #4
  0001c	e3a02000	 mov         r2, #0
  00020	e3a01000	 mov         r1, #0
  00024	e58d4008	 str         r4, [sp, #8]
  00028	e58de004	 str         lr, [sp, #4]
  0002c	e58d5000	 str         r5, [sp]
  00030	eb000000	 bl          KernelIoControl
  00034	e3500000	 cmp         r0, #0

; 64   :     {
; 65   :         RETAILMSG( TRUE,(TEXT("Failed to read Display resolution\r\n")));

  00038	059f000c	 ldreq       r0, [pc, #0xC]
  0003c	0b000000	 bleq        NKDbgPrintfW

; 66   :         return;
; 67   :     }   
; 68   : }

  00040	e28dd00c	 add         sp, sp, #0xC
  00044	e8bd4030	 ldmia       sp!, {r4, r5, lr}
  00048	e12fff1e	 bx          lr
  0004c		 |$LN9@GetDisplay|
  0004c		 |$LN10@GetDisplay|
  0004c	00000000	 DCD         |??_C@_1EI@NDGNIHKN@?$AAF?$AAa?$AAi?$AAl?$AAe?$AAd?$AA?5?$AAt?$AAo?$AA?5?$AAr?$AAe?$AAa?$AAd?$AA?5?$AAD?$AAi?$AAs?$AAp?$AAl?$AAa?$AAy?$AA?5?$AAr?$AAe?$AAs?$AAo?$AAl?$AAu?$AAt?$AAi?$AAo@|
  00050		 |$LN11@GetDisplay|
  00050	01011130	 DCD         0x1011130
  00054		 |$M39653|

			 ENDP  ; |GetDisplayResolutionFromBootArgs|

	EXPORT	|IsDVIMode|

  00000			 AREA	 |.pdata|, PDATA
|$T39667| DCD	|$LN7@IsDVIMode|
	DCD	0x40000b02
; Function compile flags: /Ogspy

  00000			 AREA	 |.text|, CODE, ARM

  00000		 |IsDVIMode| PROC

; 72   : {

  00000		 |$LN7@IsDVIMode|
  00000	e52de004	 str         lr, [sp, #-4]!
  00004	e24dd004	 sub         sp, sp, #4
  00008		 |$M39664|

; 73   :     DWORD dispRes;    
; 74   :     GetDisplayResolutionFromBootArgs(&dispRes);

  00008	e28d0000	 add         r0, sp, #0
  0000c	eb000000	 bl          GetDisplayResolutionFromBootArgs

; 75   :     if (dispRes==OMAP_LCD_DEFAULT)

  00010	e59d3000	 ldr         r3, [sp]
  00014	e3530000	 cmp         r3, #0

; 76   :         return FALSE;

  00018	03a00000	 moveq       r0, #0

; 77   :     else
; 78   :         return TRUE;        

  0001c	13a00001	 movne       r0, #1

; 79   : }

  00020	e28dd004	 add         sp, sp, #4
  00024	e49de004	 ldr         lr, [sp], #4
  00028	e12fff1e	 bx          lr
  0002c		 |$M39665|

			 ENDP  ; |IsDVIMode|

	EXPORT	|ConvertCAtoPA|
	EXPORT	|??_C@_1DK@LGDNMNLJ@?$AAF?$AAa?$AAi?$AAl?$AAe?$AAd?$AA?5?$AAt?$AAo?$AA?5?$AAc?$AAo?$AAn?$AAv?$AAe?$AAr?$AAt?$AA?5?$AAC?$AAA?$AA?5?$AAt?$AAo?$AA?5?$AAP?$AAA?$AA?$AN?$AA?6?$AA?$AA@| [ DATA ] ; `string'

  00000			 AREA	 |.pdata|, PDATA
|$T39679| DCD	|$LN9@ConvertCAt|
	DCD	0x40001b02

  00000			 AREA	 |.rdata|, DATA, READONLY
|??_C@_1DK@LGDNMNLJ@?$AAF?$AAa?$AAi?$AAl?$AAe?$AAd?$AA?5?$AAt?$AAo?$AA?5?$AAc?$AAo?$AAn?$AAv?$AAe?$AAr?$AAt?$AA?5?$AAC?$AAA?$AA?5?$AAt?$AAo?$AA?5?$AAP?$AAA?$AA?$AN?$AA?6?$AA?$AA@| DCB "F"
	DCB	0x0, "a", 0x0, "i", 0x0, "l", 0x0, "e", 0x0, "d", 0x0, " "
	DCB	0x0, "t", 0x0, "o", 0x0, " ", 0x0, "c", 0x0, "o", 0x0, "n"
	DCB	0x0, "v", 0x0, "e", 0x0, "r", 0x0, "t", 0x0, " ", 0x0, "C"
	DCB	0x0, "A", 0x0, " ", 0x0, "t", 0x0, "o", 0x0, " ", 0x0, "P"
	DCB	0x0, "A", 0x0, 0xd, 0x0, 0xa, 0x0, 0x0, 0x0 ; `string'
; Function compile flags: /Ogspy

  00000			 AREA	 |.text|, CODE, ARM

  00000		 |ConvertCAtoPA| PROC

; 83   : {

  00000		 |$LN9@ConvertCAt|
  00000	e92d4070	 stmdb       sp!, {r4 - r6, lr}
  00004	e24dd010	 sub         sp, sp, #0x10
  00008		 |$M39676|
  00008	e1a01000	 mov         r1, r0

; 84   :     DWORD   dwKernelRet = 0;
; 85   :     DWORD   pa = 0;
; 86   :     if (!KernelIoControl(IOCTL_HAL_CONVERT_CA_TO_PA,
; 87   :                          va, sizeof(DWORD), &pa, sizeof(DWORD), &dwKernelRet))

  0000c	e59f0054	 ldr         r0, [pc, #0x54]
  00010	e3a04000	 mov         r4, #0
  00014	e3a05000	 mov         r5, #0
  00018	e28de00c	 add         lr, sp, #0xC
  0001c	e3a06004	 mov         r6, #4
  00020	e28d3008	 add         r3, sp, #8
  00024	e3a02004	 mov         r2, #4
  00028	e58d400c	 str         r4, [sp, #0xC]
  0002c	e58d5008	 str         r5, [sp, #8]
  00030	e58de004	 str         lr, [sp, #4]
  00034	e58d6000	 str         r6, [sp]
  00038	eb000000	 bl          KernelIoControl
  0003c	e3500000	 cmp         r0, #0
  00040	1a000003	 bne         |$LN2@ConvertCAt|

; 88   :     {
; 89   :         RETAILMSG( TRUE,(TEXT("Failed to convert CA to PA\r\n")));

  00044	e59f0018	 ldr         r0, [pc, #0x18]
  00048	eb000000	 bl          NKDbgPrintfW

; 90   :         return 0;

  0004c	e3a00000	 mov         r0, #0
  00050	ea000000	 b           |$LN1@ConvertCAt|
  00054		 |$LN2@ConvertCAt|

; 91   :     }
; 92   :     else
; 93   :     {
; 94   :         return pa;

  00054	e59d0008	 ldr         r0, [sp, #8]
  00058		 |$LN1@ConvertCAt|

; 95   :     }
; 96   : }

  00058	e28dd010	 add         sp, sp, #0x10
  0005c	e8bd4070	 ldmia       sp!, {r4 - r6, lr}
  00060	e12fff1e	 bx          lr
  00064		 |$LN10@ConvertCAt|
  00064		 |$LN11@ConvertCAt|
  00064	00000000	 DCD         |??_C@_1DK@LGDNMNLJ@?$AAF?$AAa?$AAi?$AAl?$AAe?$AAd?$AA?5?$AAt?$AAo?$AA?5?$AAc?$AAo?$AAn?$AAv?$AAe?$AAr?$AAt?$AA?5?$AAC?$AAA?$AA?5?$AAt?$AAo?$AA?5?$AAP?$AAA?$AA?$AN?$AA?6?$AA?$AA@|
  00068		 |$LN12@ConvertCAt|
  00068	01011134	 DCD         0x1011134
  0006c		 |$M39677|

			 ENDP  ; |ConvertCAtoPA|

	END
