; Listing generated by Microsoft (R) Optimizing Compiler Version 14.01.60511.01 

	TTL	C:\WINCE600\PLATFORM\COMMON\SRC\COMMON\POWER\COMMON\ioctl.c
	CODE32

  00000			 AREA	 |.drectve|, DRECTVE
	DCB	"-defaultlib:LIBCMT "
	DCB	"-defaultlib:OLDNAMES "

	EXPORT	|g_oalWakeSource| [ DATA ]

  00000			 AREA	 |.data|, DATA
|g_oalWakeSource| DCD 0xffffffff

  00000			 AREA	 |.rdata|, DATA, READONLY
|EdbgVendorIds| DCW 0x0
	DCW	0x0
	DCD	0x4033
	DCB	0x1
	DCB	"AD", 0x0
	DCW	0x1050
	DCW	0x940
	DCD	0x4005
	DCB	0x1
	DCB	"LS", 0x0
	DCW	0x1050
	DCW	0x940
	DCD	0x2078
	DCB	0x1
	DCB	"LS", 0x0
	DCW	0x10ec
	DCW	0x8029
	DCD	0xc0f0
	DCB	0x1
	DCB	"KS", 0x0
	DCW	0x10ec
	DCW	0x8129
	DCD	0x0
	DCB	0x4
	DCB	"RT", 0x0
	DCW	0x10ec
	DCW	0x8139
	DCD	0x900b
	DCB	0x4
	DCB	"RT", 0x0
	DCW	0x10ec
	DCW	0x8139
	DCD	0xd0c9
	DCB	0x4
	DCB	"RT", 0x0
	DCW	0x10ec
	DCW	0x8139
	DCD	0xe04c
	DCB	0x4
	DCB	"RT", 0x0
	DCW	0x1186
	DCW	0x1300
	DCD	0x50ba
	DCB	0x4
	DCB	"DL", 0x0
	DCW	0x100b
	DCW	0x20
	DCD	0xa0cc
	DCB	0x5
	DCB	"NG", 0x0
	DCW	0x10b7
	DCW	0x9050
	DCD	0x6008
	DCB	0x6
	DCB	"3C", 0x0
	DCW	0x10b7
	DCW	0x9200
	DCD	0x476
	DCB	0x6
	DCB	"3C", 0x0
	EXPORT	|OALPowerWakeSource|

  00000			 AREA	 |.bss|, NOINIT
|g_oalWakeMask| % 0xc
|g_oalWakeMask| % 0xc
; File c:\wince600\platform\common\src\common\power\common\ioctl.c

  00000			 AREA	 |.pdata|, PDATA
|$T43240| DCD	|$LN7@OALPowerWa|
	DCD	0x40000a00
; Function compile flags: /Ogspy

  00000			 AREA	 |.text|, CODE, ARM

  00000		 |OALPowerWakeSource| PROC

; 33   : {

  00000		 |$LN7@OALPowerWa|
  00000		 |$M43237|

; 34   :     return (g_oalWakeMask[sysIntr >> 5] & (1 << (sysIntr & 0x1F))) != 0;

  00000	e59f201c	 ldr         r2, [pc, #0x1C]
  00004	e1a032a0	 mov         r3, r0, lsr #5
  00008	e200101f	 and         r1, r0, #0x1F
  0000c	e7923103	 ldr         r3, [r2, +r3, lsl #2]
  00010	e3a02001	 mov         r2, #1
  00014	e1130112	 tst         r3, r2, lsl r1
  00018	13a00001	 movne       r0, #1
  0001c	03a00000	 moveq       r0, #0

; 35   : }

  00020	e12fff1e	 bx          lr
  00024		 |$LN8@OALPowerWa|
  00024		 |$LN9@OALPowerWa|
  00024	00000000	 DCD         |g_oalWakeMask|
  00028		 |$M43238|

			 ENDP  ; |OALPowerWakeSource|

	EXPORT	|OALIoCtlHalEnableWake|
	EXPORT	|??_C@_1EE@EOJLKFMG@?$AA?$CL?$AAO?$AAA?$AAL?$AAI?$AAo?$AAC?$AAt?$AAl?$AAH?$AAa?$AAl?$AAE?$AAn?$AAa?$AAb?$AAl?$AAe?$AAW?$AAa?$AAk?$AAe?$AA?$CI?$AAr?$AAc?$AA?5?$AA?$DN?$AA?5?$AA?$CF?$AAd?$AA?$CJ?$AA?$AN@| [ DATA ] ; `string'
	EXPORT	|??_C@_1DG@KKNHDHOB@?$AAI?$AAn?$AAv?$AAa?$AAl?$AAi?$AAd?$AA?5?$AAS?$AAY?$AAS?$AAI?$AAN?$AAT?$AAR?$AA?5?$AAv?$AAa?$AAl?$AAu?$AAe?$AA?5?$AA?$CF?$AAd?$AA?$AN?$AA?6?$AA?$AA@| [ DATA ] ; `string'
	EXPORT	|??_C@_1DO@BLFFHCCO@?$AAE?$AAR?$AAR?$AAO?$AAR?$AA?3?$AA?5?$AAO?$AAA?$AAL?$AAI?$AAo?$AAC?$AAt?$AAl?$AAH?$AAa?$AAl?$AAE?$AAn?$AAa?$AAb?$AAl?$AAe?$AAW?$AAa?$AAk?$AAe?$AA?3?$AA?5?$AA?$AA@| [ DATA ] ; `string'
	EXPORT	|??_C@_1EO@OMKOKHHJ@?$AA?$CL?$AAO?$AAA?$AAL?$AAI?$AAo?$AAC?$AAt?$AAl?$AAH?$AAa?$AAl?$AAE?$AAn?$AAa?$AAb?$AAl?$AAe?$AAW?$AAa?$AAk?$AAe?$AA?$CI?$AAs?$AAy?$AAs?$AAI?$AAn?$AAt?$AAr?$AA?5?$AA?$DN@| [ DATA ] ; `string'
	IMPORT	|NKSetLastError|
	IMPORT	|NKDbgPrintfW|
	IMPORT	|dpCurSettings|

  00000			 AREA	 |.pdata|, PDATA
|$T43262| DCD	|$LN16@OALIoCtlHa|
	DCD	0x40003901

  00000			 AREA	 |.rdata|, DATA, READONLY
|??_C@_1EE@EOJLKFMG@?$AA?$CL?$AAO?$AAA?$AAL?$AAI?$AAo?$AAC?$AAt?$AAl?$AAH?$AAa?$AAl?$AAE?$AAn?$AAa?$AAb?$AAl?$AAe?$AAW?$AAa?$AAk?$AAe?$AA?$CI?$AAr?$AAc?$AA?5?$AA?$DN?$AA?5?$AA?$CF?$AAd?$AA?$CJ?$AA?$AN@| DCB "+"
	DCB	0x0, "O", 0x0, "A", 0x0, "L", 0x0, "I", 0x0, "o", 0x0, "C"
	DCB	0x0, "t", 0x0, "l", 0x0, "H", 0x0, "a", 0x0, "l", 0x0, "E"
	DCB	0x0, "n", 0x0, "a", 0x0, "b", 0x0, "l", 0x0, "e", 0x0, "W"
	DCB	0x0, "a", 0x0, "k", 0x0, "e", 0x0, "(", 0x0, "r", 0x0, "c"
	DCB	0x0, " ", 0x0, "=", 0x0, " ", 0x0, "%", 0x0, "d", 0x0, ")"
	DCB	0x0, 0xd, 0x0, 0xa, 0x0, 0x0, 0x0	; `string'

  00000			 AREA	 |.rdata|, DATA, READONLY
|??_C@_1DG@KKNHDHOB@?$AAI?$AAn?$AAv?$AAa?$AAl?$AAi?$AAd?$AA?5?$AAS?$AAY?$AAS?$AAI?$AAN?$AAT?$AAR?$AA?5?$AAv?$AAa?$AAl?$AAu?$AAe?$AA?5?$AA?$CF?$AAd?$AA?$AN?$AA?6?$AA?$AA@| DCB "I"
	DCB	0x0, "n", 0x0, "v", 0x0, "a", 0x0, "l", 0x0, "i", 0x0, "d"
	DCB	0x0, " ", 0x0, "S", 0x0, "Y", 0x0, "S", 0x0, "I", 0x0, "N"
	DCB	0x0, "T", 0x0, "R", 0x0, " ", 0x0, "v", 0x0, "a", 0x0, "l"
	DCB	0x0, "u", 0x0, "e", 0x0, " ", 0x0, "%", 0x0, "d", 0x0, 0xd
	DCB	0x0, 0xa, 0x0, 0x0, 0x0			; `string'

  00000			 AREA	 |.rdata|, DATA, READONLY
|??_C@_1DO@BLFFHCCO@?$AAE?$AAR?$AAR?$AAO?$AAR?$AA?3?$AA?5?$AAO?$AAA?$AAL?$AAI?$AAo?$AAC?$AAt?$AAl?$AAH?$AAa?$AAl?$AAE?$AAn?$AAa?$AAb?$AAl?$AAe?$AAW?$AAa?$AAk?$AAe?$AA?3?$AA?5?$AA?$AA@| DCB "E"
	DCB	0x0, "R", 0x0, "R", 0x0, "O", 0x0, "R", 0x0, ":", 0x0, " "
	DCB	0x0, "O", 0x0, "A", 0x0, "L", 0x0, "I", 0x0, "o", 0x0, "C"
	DCB	0x0, "t", 0x0, "l", 0x0, "H", 0x0, "a", 0x0, "l", 0x0, "E"
	DCB	0x0, "n", 0x0, "a", 0x0, "b", 0x0, "l", 0x0, "e", 0x0, "W"
	DCB	0x0, "a", 0x0, "k", 0x0, "e", 0x0, ":", 0x0, " ", 0x0, 0x0
	DCB	0x0					; `string'

  00000			 AREA	 |.rdata|, DATA, READONLY
|??_C@_1EO@OMKOKHHJ@?$AA?$CL?$AAO?$AAA?$AAL?$AAI?$AAo?$AAC?$AAt?$AAl?$AAH?$AAa?$AAl?$AAE?$AAn?$AAa?$AAb?$AAl?$AAe?$AAW?$AAa?$AAk?$AAe?$AA?$CI?$AAs?$AAy?$AAs?$AAI?$AAn?$AAt?$AAr?$AA?5?$AA?$DN@| DCB "+"
	DCB	0x0, "O", 0x0, "A", 0x0, "L", 0x0, "I", 0x0, "o", 0x0, "C"
	DCB	0x0, "t", 0x0, "l", 0x0, "H", 0x0, "a", 0x0, "l", 0x0, "E"
	DCB	0x0, "n", 0x0, "a", 0x0, "b", 0x0, "l", 0x0, "e", 0x0, "W"
	DCB	0x0, "a", 0x0, "k", 0x0, "e", 0x0, "(", 0x0, "s", 0x0, "y"
	DCB	0x0, "s", 0x0, "I", 0x0, "n", 0x0, "t", 0x0, "r", 0x0, " "
	DCB	0x0, "=", 0x0, " ", 0x0, "%", 0x0, "d", 0x0, ")", 0x0, 0xd
	DCB	0x0, 0xa, 0x0, 0x0, 0x0			; `string'
; Function compile flags: /Ogspy

  00000			 AREA	 |.text|, CODE, ARM

  00000		 |OALIoCtlHalEnableWake| PROC

; 44   : ) {

  00000		 |$LN16@OALIoCtlHa|
  00000	e92d40f0	 stmdb       sp!, {r4 - r7, lr}
  00004		 |$M43259|
  00004	e1a07002	 mov         r7, r2
  00008	e1a06001	 mov         r6, r1

; 45   :     BOOL rc = FALSE;
; 46   :     UINT32 sysIntr;
; 47   : 
; 48   :     OALMSG(OAL_POWER&&OAL_FUNC, (
; 49   :         L"+OALIoCtlHalEnableWake(sysIntr = %d)\r\n", *(UINT32*)pInpBuffer
; 50   :     ));

  0000c	e59f40cc	 ldr         r4, [pc, #0xCC]
  00010	e3a05000	 mov         r5, #0
  00014	e5940440	 ldr         r0, [r4, #0x440]
  00018	e3100080	 tst         r0, #0x80
  0001c	0a000005	 beq         |$LN8@OALIoCtlHa|
  00020	e3100004	 tst         r0, #4
  00024	0a000003	 beq         |$LN8@OALIoCtlHa|
  00028	e5961000	 ldr         r1, [r6]
  0002c	e59f00a8	 ldr         r0, [pc, #0xA8]
  00030	eb000000	 bl          NKDbgPrintfW
  00034	e5940440	 ldr         r0, [r4, #0x440]
  00038		 |$LN8@OALIoCtlHa|

; 51   :     
; 52   :     if (pOutSize) {

  00038	e59d3018	 ldr         r3, [sp, #0x18]
  0003c	e3530000	 cmp         r3, #0

; 53   :         *pOutSize = 0;

  00040	13a02000	 movne       r2, #0
  00044	15832000	 strne       r2, [r3]
  00048	15940440	 ldrne       r0, [r4, #0x440]

; 54   :     }
; 55   : 
; 56   :     if (pInpBuffer == NULL || inpSize < sizeof(UINT32)) {

  0004c	e3560000	 cmp         r6, #0
  00050	0a000012	 beq         |$LN3@OALIoCtlHa|
  00054	e3570004	 cmp         r7, #4
  00058	3a000010	 bcc         |$LN3@OALIoCtlHa|

; 57   :         NKSetLastError(ERROR_INVALID_PARAMETER);
; 58   :         goto cleanUp;
; 59   :     }
; 60   : 
; 61   :     sysIntr = *(UINT32*)pInpBuffer;

  0005c	e5962000	 ldr         r2, [r6]

; 62   :     if (sysIntr < SYSINTR_DEVICES || sysIntr >= SYSINTR_MAXIMUM) {

  00060	e2423008	 sub         r3, r2, #8
  00064	e353003f	 cmp         r3, #0x3F
  00068	8a000008	 bhi         |$LN1@OALIoCtlHa|

; 66   :         NKSetLastError(ERROR_INVALID_PARAMETER);
; 67   :         goto cleanUp;
; 68   :     }                    
; 69   : 
; 70   :     // Set mask
; 71   :     g_oalWakeMask[sysIntr >> 5] |= 1 << (sysIntr & 0x1F);

  0006c	e59f1064	 ldr         r1, [pc, #0x64]
  00070	e1a032a2	 mov         r3, r2, lsr #5
  00074	e202201f	 and         r2, r2, #0x1F
  00078	e7b13103	 ldr         r3, [r1, +r3, lsl #2]!
  0007c	e3a0e001	 mov         lr, #1

; 72   :     rc = TRUE;

  00080	e3a05001	 mov         r5, #1
  00084	e183321e	 orr         r3, r3, lr, lsl r2
  00088	e5813000	 str         r3, [r1]
  0008c	ea000006	 b           |$cleanUp$43131|
  00090		 |$LN1@OALIoCtlHa|

; 63   :         OALMSG(OAL_ERROR, (L"ERROR: OALIoCtlHalEnableWake: ",
; 64   :             L"Invalid SYSINTR value %d\r\n", sysIntr
; 65   :         ));

  00090	e3100001	 tst         r0, #1
  00094	159f1038	 ldrne       r1, [pc, #0x38]
  00098	159f0030	 ldrne       r0, [pc, #0x30]
  0009c	1b000000	 blne        NKDbgPrintfW
  000a0		 |$LN3@OALIoCtlHa|
  000a0	e3a00057	 mov         r0, #0x57
  000a4	eb000000	 bl          NKSetLastError
  000a8	e5940440	 ldr         r0, [r4, #0x440]
  000ac		 |$cleanUp$43131|

; 73   :     
; 74   : cleanUp:
; 75   :     OALMSG(OAL_POWER&&OAL_FUNC, (L"+OALIoCtlHalEnableWake(rc = %d)\r\n", rc));

  000ac	e3100080	 tst         r0, #0x80
  000b0	13100004	 tstne       r0, #4
  000b4	159f0010	 ldrne       r0, [pc, #0x10]
  000b8	11a01005	 movne       r1, r5
  000bc	1b000000	 blne        NKDbgPrintfW

; 76   :     return rc;
; 77   : }

  000c0	e1a00005	 mov         r0, r5
  000c4	e8bd40f0	 ldmia       sp!, {r4 - r7, lr}
  000c8	e12fff1e	 bx          lr
  000cc		 |$LN17@OALIoCtlHa|
  000cc		 |$LN18@OALIoCtlHa|
  000cc	00000000	 DCD         |??_C@_1EE@EOJLKFMG@?$AA?$CL?$AAO?$AAA?$AAL?$AAI?$AAo?$AAC?$AAt?$AAl?$AAH?$AAa?$AAl?$AAE?$AAn?$AAa?$AAb?$AAl?$AAe?$AAW?$AAa?$AAk?$AAe?$AA?$CI?$AAr?$AAc?$AA?5?$AA?$DN?$AA?5?$AA?$CF?$AAd?$AA?$CJ?$AA?$AN@|
  000d0		 |$LN19@OALIoCtlHa|
  000d0	00000000	 DCD         |??_C@_1DO@BLFFHCCO@?$AAE?$AAR?$AAR?$AAO?$AAR?$AA?3?$AA?5?$AAO?$AAA?$AAL?$AAI?$AAo?$AAC?$AAt?$AAl?$AAH?$AAa?$AAl?$AAE?$AAn?$AAa?$AAb?$AAl?$AAe?$AAW?$AAa?$AAk?$AAe?$AA?3?$AA?5?$AA?$AA@|
  000d4		 |$LN20@OALIoCtlHa|
  000d4	00000000	 DCD         |??_C@_1DG@KKNHDHOB@?$AAI?$AAn?$AAv?$AAa?$AAl?$AAi?$AAd?$AA?5?$AAS?$AAY?$AAS?$AAI?$AAN?$AAT?$AAR?$AA?5?$AAv?$AAa?$AAl?$AAu?$AAe?$AA?5?$AA?$CF?$AAd?$AA?$AN?$AA?6?$AA?$AA@|
  000d8		 |$LN21@OALIoCtlHa|
  000d8	00000000	 DCD         |g_oalWakeMask|
  000dc		 |$LN22@OALIoCtlHa|
  000dc	00000000	 DCD         |??_C@_1EO@OMKOKHHJ@?$AA?$CL?$AAO?$AAA?$AAL?$AAI?$AAo?$AAC?$AAt?$AAl?$AAH?$AAa?$AAl?$AAE?$AAn?$AAa?$AAb?$AAl?$AAe?$AAW?$AAa?$AAk?$AAe?$AA?$CI?$AAs?$AAy?$AAs?$AAI?$AAn?$AAt?$AAr?$AA?5?$AA?$DN@|
  000e0		 |$LN23@OALIoCtlHa|
  000e0	00000000	 DCD         |dpCurSettings|
  000e4		 |$M43260|

			 ENDP  ; |OALIoCtlHalEnableWake|

	EXPORT	|OALIoCtlHalDisableWake|
	EXPORT	|??_C@_1EG@KJIPIGDP@?$AA?$CL?$AAO?$AAA?$AAL?$AAI?$AAo?$AAC?$AAt?$AAl?$AAH?$AAa?$AAl?$AAD?$AAi?$AAs?$AAa?$AAb?$AAl?$AAe?$AAW?$AAa?$AAk?$AAe?$AA?$CI?$AAr?$AAc?$AA?5?$AA?$DN?$AA?5?$AA?$CF?$AAd?$AA?$CJ@| [ DATA ] ; `string'
	EXPORT	|??_C@_1EA@ENICBBFD@?$AAE?$AAR?$AAR?$AAO?$AAR?$AA?3?$AA?5?$AAO?$AAA?$AAL?$AAI?$AAo?$AAC?$AAt?$AAl?$AAH?$AAa?$AAl?$AAD?$AAi?$AAs?$AAa?$AAb?$AAl?$AAe?$AAW?$AAa?$AAk?$AAe?$AA?3?$AA?5?$AA?$AA@| [ DATA ] ; `string'
	EXPORT	|??_C@_1FA@IFHNBJAE@?$AA?$CL?$AAO?$AAA?$AAL?$AAI?$AAo?$AAC?$AAt?$AAl?$AAH?$AAa?$AAl?$AAD?$AAi?$AAs?$AAa?$AAb?$AAl?$AAe?$AAW?$AAa?$AAk?$AAe?$AA?$CI?$AAs?$AAy?$AAs?$AAI?$AAn?$AAt?$AAr?$AA?5@| [ DATA ] ; `string'

  00000			 AREA	 |.pdata|, PDATA
|$T43289| DCD	|$LN16@OALIoCtlHa@2|
	DCD	0x40003901

  00000			 AREA	 |.rdata|, DATA, READONLY
|??_C@_1EG@KJIPIGDP@?$AA?$CL?$AAO?$AAA?$AAL?$AAI?$AAo?$AAC?$AAt?$AAl?$AAH?$AAa?$AAl?$AAD?$AAi?$AAs?$AAa?$AAb?$AAl?$AAe?$AAW?$AAa?$AAk?$AAe?$AA?$CI?$AAr?$AAc?$AA?5?$AA?$DN?$AA?5?$AA?$CF?$AAd?$AA?$CJ@| DCB "+"
	DCB	0x0, "O", 0x0, "A", 0x0, "L", 0x0, "I", 0x0, "o", 0x0, "C"
	DCB	0x0, "t", 0x0, "l", 0x0, "H", 0x0, "a", 0x0, "l", 0x0, "D"
	DCB	0x0, "i", 0x0, "s", 0x0, "a", 0x0, "b", 0x0, "l", 0x0, "e"
	DCB	0x0, "W", 0x0, "a", 0x0, "k", 0x0, "e", 0x0, "(", 0x0, "r"
	DCB	0x0, "c", 0x0, " ", 0x0, "=", 0x0, " ", 0x0, "%", 0x0, "d"
	DCB	0x0, ")", 0x0, 0xd, 0x0, 0xa, 0x0, 0x0, 0x0 ; `string'

  00000			 AREA	 |.rdata|, DATA, READONLY
|??_C@_1EA@ENICBBFD@?$AAE?$AAR?$AAR?$AAO?$AAR?$AA?3?$AA?5?$AAO?$AAA?$AAL?$AAI?$AAo?$AAC?$AAt?$AAl?$AAH?$AAa?$AAl?$AAD?$AAi?$AAs?$AAa?$AAb?$AAl?$AAe?$AAW?$AAa?$AAk?$AAe?$AA?3?$AA?5?$AA?$AA@| DCB "E"
	DCB	0x0, "R", 0x0, "R", 0x0, "O", 0x0, "R", 0x0, ":", 0x0, " "
	DCB	0x0, "O", 0x0, "A", 0x0, "L", 0x0, "I", 0x0, "o", 0x0, "C"
	DCB	0x0, "t", 0x0, "l", 0x0, "H", 0x0, "a", 0x0, "l", 0x0, "D"
	DCB	0x0, "i", 0x0, "s", 0x0, "a", 0x0, "b", 0x0, "l", 0x0, "e"
	DCB	0x0, "W", 0x0, "a", 0x0, "k", 0x0, "e", 0x0, ":", 0x0, " "
	DCB	0x0, 0x0, 0x0				; `string'

  00000			 AREA	 |.rdata|, DATA, READONLY
|??_C@_1FA@IFHNBJAE@?$AA?$CL?$AAO?$AAA?$AAL?$AAI?$AAo?$AAC?$AAt?$AAl?$AAH?$AAa?$AAl?$AAD?$AAi?$AAs?$AAa?$AAb?$AAl?$AAe?$AAW?$AAa?$AAk?$AAe?$AA?$CI?$AAs?$AAy?$AAs?$AAI?$AAn?$AAt?$AAr?$AA?5@| DCB "+"
	DCB	0x0, "O", 0x0, "A", 0x0, "L", 0x0, "I", 0x0, "o", 0x0, "C"
	DCB	0x0, "t", 0x0, "l", 0x0, "H", 0x0, "a", 0x0, "l", 0x0, "D"
	DCB	0x0, "i", 0x0, "s", 0x0, "a", 0x0, "b", 0x0, "l", 0x0, "e"
	DCB	0x0, "W", 0x0, "a", 0x0, "k", 0x0, "e", 0x0, "(", 0x0, "s"
	DCB	0x0, "y", 0x0, "s", 0x0, "I", 0x0, "n", 0x0, "t", 0x0, "r"
	DCB	0x0, " ", 0x0, "=", 0x0, " ", 0x0, "%", 0x0, "d", 0x0, ")"
	DCB	0x0, 0xd, 0x0, 0xa, 0x0, 0x0, 0x0	; `string'
; Function compile flags: /Ogspy

  00000			 AREA	 |.text|, CODE, ARM

  00000		 |OALIoCtlHalDisableWake| PROC

; 86   : ) {

  00000		 |$LN16@OALIoCtlHa@2|
  00000	e92d40f0	 stmdb       sp!, {r4 - r7, lr}
  00004		 |$M43286|
  00004	e1a07002	 mov         r7, r2
  00008	e1a05001	 mov         r5, r1

; 87   :     BOOL rc = FALSE;
; 88   :     UINT32 sysIntr;
; 89   : 
; 90   :     OALMSG(OAL_POWER&&OAL_FUNC, (
; 91   :         L"+OALIoCtlHalDisableWake(sysIntr = %d)\r\n", *(UINT32*)pInpBuffer
; 92   :     ));

  0000c	e59f40cc	 ldr         r4, [pc, #0xCC]
  00010	e3a06000	 mov         r6, #0
  00014	e5940440	 ldr         r0, [r4, #0x440]
  00018	e3100080	 tst         r0, #0x80
  0001c	0a000005	 beq         |$LN8@OALIoCtlHa@2|
  00020	e3100004	 tst         r0, #4
  00024	0a000003	 beq         |$LN8@OALIoCtlHa@2|
  00028	e5951000	 ldr         r1, [r5]
  0002c	e59f00a8	 ldr         r0, [pc, #0xA8]
  00030	eb000000	 bl          NKDbgPrintfW
  00034	e5940440	 ldr         r0, [r4, #0x440]
  00038		 |$LN8@OALIoCtlHa@2|

; 93   :     
; 94   :     if (pOutSize) {

  00038	e59d3018	 ldr         r3, [sp, #0x18]
  0003c	e3530000	 cmp         r3, #0

; 95   :         *pOutSize = 0;

  00040	13a02000	 movne       r2, #0
  00044	15832000	 strne       r2, [r3]
  00048	15940440	 ldrne       r0, [r4, #0x440]

; 96   :     }
; 97   : 
; 98   :     if (pInpBuffer == NULL || inpSize < sizeof(UINT32)) {

  0004c	e3550000	 cmp         r5, #0
  00050	0a000012	 beq         |$LN3@OALIoCtlHa@2|
  00054	e3570004	 cmp         r7, #4
  00058	3a000010	 bcc         |$LN3@OALIoCtlHa@2|

; 99   :         NKSetLastError(ERROR_INVALID_PARAMETER);
; 100  :         goto cleanUp;
; 101  :     }
; 102  : 
; 103  :     sysIntr = *(UINT32*)pInpBuffer;

  0005c	e5952000	 ldr         r2, [r5]

; 104  :     if (sysIntr < SYSINTR_DEVICES || sysIntr >= SYSINTR_MAXIMUM) {

  00060	e2423008	 sub         r3, r2, #8
  00064	e353003f	 cmp         r3, #0x3F
  00068	8a000008	 bhi         |$LN1@OALIoCtlHa@2|

; 108  :         NKSetLastError(ERROR_INVALID_PARAMETER);
; 109  :         goto cleanUp;
; 110  :     }                    
; 111  : 
; 112  :     // Set mask
; 113  :     g_oalWakeMask[sysIntr >> 5] &= ~(1 << (sysIntr & 0x1F));

  0006c	e59f1064	 ldr         r1, [pc, #0x64]
  00070	e1a032a2	 mov         r3, r2, lsr #5
  00074	e202201f	 and         r2, r2, #0x1F
  00078	e7b13103	 ldr         r3, [r1, +r3, lsl #2]!
  0007c	e3a0e001	 mov         lr, #1

; 114  :     rc = TRUE;

  00080	e3a06001	 mov         r6, #1
  00084	e1c3321e	 bic         r3, r3, lr, lsl r2
  00088	e5813000	 str         r3, [r1]
  0008c	ea000006	 b           |$cleanUp$43163|
  00090		 |$LN1@OALIoCtlHa@2|

; 105  :         OALMSG(OAL_ERROR, (L"ERROR: OALIoCtlHalDisableWake: ",
; 106  :             L"Invalid SYSINTR value %d\r\n", sysIntr
; 107  :         ));

  00090	e3100001	 tst         r0, #1
  00094	159f1038	 ldrne       r1, [pc, #0x38]
  00098	159f0030	 ldrne       r0, [pc, #0x30]
  0009c	1b000000	 blne        NKDbgPrintfW
  000a0		 |$LN3@OALIoCtlHa@2|
  000a0	e3a00057	 mov         r0, #0x57
  000a4	eb000000	 bl          NKSetLastError
  000a8	e5940440	 ldr         r0, [r4, #0x440]
  000ac		 |$cleanUp$43163|

; 115  :     
; 116  : cleanUp:
; 117  :     OALMSG(OAL_POWER&&OAL_FUNC, (L"+OALIoCtlHalDisableWake(rc = %d)\r\n", rc));

  000ac	e3100080	 tst         r0, #0x80
  000b0	13100004	 tstne       r0, #4
  000b4	159f0010	 ldrne       r0, [pc, #0x10]
  000b8	11a01006	 movne       r1, r6
  000bc	1b000000	 blne        NKDbgPrintfW

; 118  :     return rc;
; 119  : }

  000c0	e1a00006	 mov         r0, r6
  000c4	e8bd40f0	 ldmia       sp!, {r4 - r7, lr}
  000c8	e12fff1e	 bx          lr
  000cc		 |$LN17@OALIoCtlHa@2|
  000cc		 |$LN18@OALIoCtlHa@2|
  000cc	00000000	 DCD         |??_C@_1EG@KJIPIGDP@?$AA?$CL?$AAO?$AAA?$AAL?$AAI?$AAo?$AAC?$AAt?$AAl?$AAH?$AAa?$AAl?$AAD?$AAi?$AAs?$AAa?$AAb?$AAl?$AAe?$AAW?$AAa?$AAk?$AAe?$AA?$CI?$AAr?$AAc?$AA?5?$AA?$DN?$AA?5?$AA?$CF?$AAd?$AA?$CJ@|
  000d0		 |$LN19@OALIoCtlHa@2|
  000d0	00000000	 DCD         |??_C@_1EA@ENICBBFD@?$AAE?$AAR?$AAR?$AAO?$AAR?$AA?3?$AA?5?$AAO?$AAA?$AAL?$AAI?$AAo?$AAC?$AAt?$AAl?$AAH?$AAa?$AAl?$AAD?$AAi?$AAs?$AAa?$AAb?$AAl?$AAe?$AAW?$AAa?$AAk?$AAe?$AA?3?$AA?5?$AA?$AA@|
  000d4		 |$LN20@OALIoCtlHa@2|
  000d4	00000000	 DCD         |??_C@_1DG@KKNHDHOB@?$AAI?$AAn?$AAv?$AAa?$AAl?$AAi?$AAd?$AA?5?$AAS?$AAY?$AAS?$AAI?$AAN?$AAT?$AAR?$AA?5?$AAv?$AAa?$AAl?$AAu?$AAe?$AA?5?$AA?$CF?$AAd?$AA?$AN?$AA?6?$AA?$AA@|
  000d8		 |$LN21@OALIoCtlHa@2|
  000d8	00000000	 DCD         |g_oalWakeMask|
  000dc		 |$LN22@OALIoCtlHa@2|
  000dc	00000000	 DCD         |??_C@_1FA@IFHNBJAE@?$AA?$CL?$AAO?$AAA?$AAL?$AAI?$AAo?$AAC?$AAt?$AAl?$AAH?$AAa?$AAl?$AAD?$AAi?$AAs?$AAa?$AAb?$AAl?$AAe?$AAW?$AAa?$AAk?$AAe?$AA?$CI?$AAs?$AAy?$AAs?$AAI?$AAn?$AAt?$AAr?$AA?5@|
  000e0		 |$LN23@OALIoCtlHa@2|
  000e0	00000000	 DCD         |dpCurSettings|
  000e4		 |$M43287|

			 ENDP  ; |OALIoCtlHalDisableWake|

	EXPORT	|OALIoCtlHalGetWakeSource|
	EXPORT	|??_C@_1GG@MBGEPMGD@?$AA?$CL?$AAO?$AAA?$AAL?$AAI?$AAo?$AAC?$AAt?$AAl?$AAH?$AAa?$AAl?$AAG?$AAe?$AAt?$AAW?$AAa?$AAk?$AAe?$AAS?$AAo?$AAu?$AAr?$AAc?$AAe?$AA?$CI?$AAr?$AAc?$AA?5?$AA?$DN?$AA?5?$AA?$CF@| [ DATA ] ; `string'
	EXPORT	|??_C@_1DI@DFOIFPDM@?$AA?$CL?$AAO?$AAA?$AAL?$AAI?$AAo?$AAC?$AAt?$AAl?$AAH?$AAa?$AAl?$AAG?$AAe?$AAt?$AAW?$AAa?$AAk?$AAe?$AAS?$AAo?$AAu?$AAr?$AAc?$AAe?$AA?$AN?$AA?6?$AA?$AA@| [ DATA ] ; `string'

  00000			 AREA	 |.pdata|, PDATA
|$T43314| DCD	|$LN15@OALIoCtlHa@3|
	DCD	0x40002a01

  00000			 AREA	 |.rdata|, DATA, READONLY
|??_C@_1GG@MBGEPMGD@?$AA?$CL?$AAO?$AAA?$AAL?$AAI?$AAo?$AAC?$AAt?$AAl?$AAH?$AAa?$AAl?$AAG?$AAe?$AAt?$AAW?$AAa?$AAk?$AAe?$AAS?$AAo?$AAu?$AAr?$AAc?$AAe?$AA?$CI?$AAr?$AAc?$AA?5?$AA?$DN?$AA?5?$AA?$CF@| DCB "+"
	DCB	0x0, "O", 0x0, "A", 0x0, "L", 0x0, "I", 0x0, "o", 0x0, "C"
	DCB	0x0, "t", 0x0, "l", 0x0, "H", 0x0, "a", 0x0, "l", 0x0, "G"
	DCB	0x0, "e", 0x0, "t", 0x0, "W", 0x0, "a", 0x0, "k", 0x0, "e"
	DCB	0x0, "S", 0x0, "o", 0x0, "u", 0x0, "r", 0x0, "c", 0x0, "e"
	DCB	0x0, "(", 0x0, "r", 0x0, "c", 0x0, " ", 0x0, "=", 0x0, " "
	DCB	0x0, "%", 0x0, "d", 0x0, ",", 0x0, " ", 0x0, "s", 0x0, "y"
	DCB	0x0, "s", 0x0, "I", 0x0, "n", 0x0, "t", 0x0, "r", 0x0, " "
	DCB	0x0, "=", 0x0, " ", 0x0, "%", 0x0, "d", 0x0, ")", 0x0, 0xd
	DCB	0x0, 0xa, 0x0, 0x0, 0x0			; `string'

  00000			 AREA	 |.rdata|, DATA, READONLY
|??_C@_1DI@DFOIFPDM@?$AA?$CL?$AAO?$AAA?$AAL?$AAI?$AAo?$AAC?$AAt?$AAl?$AAH?$AAa?$AAl?$AAG?$AAe?$AAt?$AAW?$AAa?$AAk?$AAe?$AAS?$AAo?$AAu?$AAr?$AAc?$AAe?$AA?$AN?$AA?6?$AA?$AA@| DCB "+"
	DCB	0x0, "O", 0x0, "A", 0x0, "L", 0x0, "I", 0x0, "o", 0x0, "C"
	DCB	0x0, "t", 0x0, "l", 0x0, "H", 0x0, "a", 0x0, "l", 0x0, "G"
	DCB	0x0, "e", 0x0, "t", 0x0, "W", 0x0, "a", 0x0, "k", 0x0, "e"
	DCB	0x0, "S", 0x0, "o", 0x0, "u", 0x0, "r", 0x0, "c", 0x0, "e"
	DCB	0x0, 0xd, 0x0, 0xa, 0x0, 0x0, 0x0	; `string'
; Function compile flags: /Ogspy

  00000			 AREA	 |.text|, CODE, ARM

  00000		 |OALIoCtlHalGetWakeSource| PROC

; 128  : ) {

  00000		 |$LN15@OALIoCtlHa@3|
  00000	e92d4070	 stmdb       sp!, {r4 - r6, lr}
  00004		 |$M43311|
  00004	e1a05003	 mov         r5, r3

; 129  :     BOOL rc = FALSE;
; 130  :     
; 131  :     OALMSG(OAL_POWER&&OAL_FUNC, (L"+OALIoCtlHalGetWakeSource\r\n"));

  00008	e59f6094	 ldr         r6, [pc, #0x94]
  0000c	e3a04000	 mov         r4, #0
  00010	e5963440	 ldr         r3, [r6, #0x440]
  00014	e3130080	 tst         r3, #0x80
  00018	13130004	 tstne       r3, #4
  0001c	159f007c	 ldrne       r0, [pc, #0x7C]
  00020	1b000000	 blne        NKDbgPrintfW

; 132  : 
; 133  :     if (pOutSize) {

  00024	e59d2014	 ldr         r2, [sp, #0x14]
  00028	e3520000	 cmp         r2, #0

; 134  :         *pOutSize = sizeof(UINT32);

  0002c	13a03004	 movne       r3, #4
  00030	15823000	 strne       r3, [r2]

; 135  :     }
; 136  : 
; 137  :     if (pOutBuffer == NULL && outSize > 0) {

  00034	e59d3010	 ldr         r3, [sp, #0x10]
  00038	e3550000	 cmp         r5, #0
  0003c	1a000003	 bne         |$LN11@OALIoCtlHa@3|
  00040	e3530000	 cmp         r3, #0
  00044	0a000007	 beq         |$LN1@OALIoCtlHa@3|

; 138  :         NKSetLastError(ERROR_INVALID_PARAMETER);

  00048	e3a00057	 mov         r0, #0x57

; 139  :         goto cleanUp;

  0004c	ea000006	 b           |$LN12@OALIoCtlHa@3|
  00050		 |$LN11@OALIoCtlHa@3|

; 140  :     }
; 141  : 
; 142  :     if (pOutBuffer == NULL || outSize < sizeof(UINT32)) {

  00050	e3530004	 cmp         r3, #4

; 144  :         goto cleanUp;
; 145  :     }
; 146  : 
; 147  :     *(UINT32*)pOutBuffer = g_oalWakeSource;

  00054	259f3040	 ldrcs       r3, [pc, #0x40]

; 148  : 
; 149  :     rc = TRUE;

  00058	23a04001	 movcs       r4, #1
  0005c	25933000	 ldrcs       r3, [r3]
  00060	25853000	 strcs       r3, [r5]
  00064	2a000001	 bcs         |$cleanUp$43191|
  00068		 |$LN1@OALIoCtlHa@3|

; 143  :         NKSetLastError(ERROR_INSUFFICIENT_BUFFER);

  00068	e3a0007a	 mov         r0, #0x7A
  0006c		 |$LN12@OALIoCtlHa@3|
  0006c	eb000000	 bl          NKSetLastError
  00070		 |$cleanUp$43191|

; 150  :     
; 151  : cleanUp:
; 152  :     OALMSG(OAL_POWER&&OAL_FUNC, (
; 153  :         L"+OALIoCtlHalGetWakeSource(rc = %d, sysIntr = %d)\r\n", 
; 154  :         rc, *(UINT32*)pOutBuffer
; 155  :     ));

  00070	e5963440	 ldr         r3, [r6, #0x440]
  00074	e3130080	 tst         r3, #0x80
  00078	13130004	 tstne       r3, #4
  0007c	15952000	 ldrne       r2, [r5]
  00080	159f0010	 ldrne       r0, [pc, #0x10]
  00084	11a01004	 movne       r1, r4
  00088	1b000000	 blne        NKDbgPrintfW

; 156  :     return rc;
; 157  : }

  0008c	e1a00004	 mov         r0, r4
  00090	e8bd4070	 ldmia       sp!, {r4 - r6, lr}
  00094	e12fff1e	 bx          lr
  00098		 |$LN16@OALIoCtlHa@3|
  00098		 |$LN17@OALIoCtlHa@3|
  00098	00000000	 DCD         |??_C@_1GG@MBGEPMGD@?$AA?$CL?$AAO?$AAA?$AAL?$AAI?$AAo?$AAC?$AAt?$AAl?$AAH?$AAa?$AAl?$AAG?$AAe?$AAt?$AAW?$AAa?$AAk?$AAe?$AAS?$AAo?$AAu?$AAr?$AAc?$AAe?$AA?$CI?$AAr?$AAc?$AA?5?$AA?$DN?$AA?5?$AA?$CF@|
  0009c		 |$LN18@OALIoCtlHa@3|
  0009c	00000000	 DCD         |g_oalWakeSource|
  000a0		 |$LN19@OALIoCtlHa@3|
  000a0	00000000	 DCD         |??_C@_1DI@DFOIFPDM@?$AA?$CL?$AAO?$AAA?$AAL?$AAI?$AAo?$AAC?$AAt?$AAl?$AAH?$AAa?$AAl?$AAG?$AAe?$AAt?$AAW?$AAa?$AAk?$AAe?$AAS?$AAo?$AAu?$AAr?$AAc?$AAe?$AA?$AN?$AA?6?$AA?$AA@|
  000a4		 |$LN20@OALIoCtlHa@3|
  000a4	00000000	 DCD         |dpCurSettings|
  000a8		 |$M43312|

			 ENDP  ; |OALIoCtlHalGetWakeSource|

	END
