; Listing generated by Microsoft (R) Optimizing Compiler Version 14.01.60511.01 

	TTL	C:\WINCE600\PLATFORM\Z2170P\SRC\APP\I2CPROXY\i2cproxy.cpp
	CODE32

  00000			 AREA	 |.drectve|, DRECTVE
	DCB	"-defaultlib:LIBCMT "
	DCB	"-defaultlib:OLDNAMES "

	EXPORT	|??_C@_1M@EENNDIOJ@?$AAI?$AAn?$AAd?$AAe?$AAx?$AA?$AA@| [ DATA ] ; `string'
	EXPORT	|dpCurSettings| [ DATA ]

  00000			 AREA	 |.rdata|, DATA, READONLY
|s_deviceRegParams| DCD |??_C@_1M@EENNDIOJ@?$AAI?$AAn?$AAd?$AAe?$AAx?$AA?$AA@|
	DCD	0x3
	DCD	0x1
	DCD	0x20
	DCD	0x4
	DCD	0x0

  00000			 AREA	 |.rdata|, DATA, READONLY
|??_C@_1M@EENNDIOJ@?$AAI?$AAn?$AAd?$AAe?$AAx?$AA?$AA@| DCB "I", 0x0, "n", 0x0
	DCB	"d", 0x0, "e", 0x0, "x", 0x0, 0x0, 0x0	; `string'

  00000			 AREA	 |.data|, DATA
|dpCurSettings| DCB "P", 0x0, "r", 0x0, "o", 0x0, "x", 0x0, "y", 0x0, "D", 0x0
	DCB	"r", 0x0, "i", 0x0, "v", 0x0, "e", 0x0, "r", 0x0, 0x0, 0x0
	%	40
	DCB	"E", 0x0, "r", 0x0, "r", 0x0, "o", 0x0, "r", 0x0, "s", 0x0
	DCB	0x0, 0x0
	%	50
	DCB	"W", 0x0, "a", 0x0, "r", 0x0, "n", 0x0, "i", 0x0, "n", 0x0
	DCB	"g", 0x0, "s", 0x0, 0x0, 0x0
	%	46
	DCB	"F", 0x0, "u", 0x0, "n", 0x0, "c", 0x0, "t", 0x0, "i", 0x0
	DCB	"o", 0x0, "n", 0x0, 0x0, 0x0
	%	46
	DCB	"I", 0x0, "n", 0x0, "f", 0x0, "o", 0x0, 0x0, 0x0
	%	54
	DCB	"U", 0x0, "n", 0x0, "d", 0x0, "e", 0x0, "f", 0x0, "i", 0x0
	DCB	"n", 0x0, "e", 0x0, "d", 0x0, 0x0, 0x0
	%	44
	DCB	"U", 0x0, "n", 0x0, "d", 0x0, "e", 0x0, "f", 0x0, "i", 0x0
	DCB	"n", 0x0, "e", 0x0, "d", 0x0, 0x0, 0x0
	%	44
	DCB	"U", 0x0, "n", 0x0, "d", 0x0, "e", 0x0, "f", 0x0, "i", 0x0
	DCB	"n", 0x0, "e", 0x0, "d", 0x0, 0x0, 0x0
	%	44
	DCB	"U", 0x0, "n", 0x0, "d", 0x0, "e", 0x0, "f", 0x0, "i", 0x0
	DCB	"n", 0x0, "e", 0x0, "d", 0x0, 0x0, 0x0
	%	44
	DCB	"U", 0x0, "n", 0x0, "d", 0x0, "e", 0x0, "f", 0x0, "i", 0x0
	DCB	"n", 0x0, "e", 0x0, "d", 0x0, 0x0, 0x0
	%	44
	DCB	"U", 0x0, "n", 0x0, "d", 0x0, "e", 0x0, "f", 0x0, "i", 0x0
	DCB	"n", 0x0, "e", 0x0, "d", 0x0, 0x0, 0x0
	%	44
	DCB	"U", 0x0, "n", 0x0, "d", 0x0, "e", 0x0, "f", 0x0, "i", 0x0
	DCB	"n", 0x0, "e", 0x0, "d", 0x0, 0x0, 0x0
	%	44
	DCB	"U", 0x0, "n", 0x0, "d", 0x0, "e", 0x0, "f", 0x0, "i", 0x0
	DCB	"n", 0x0, "e", 0x0, "d", 0x0, 0x0, 0x0
	%	44
	DCB	"U", 0x0, "n", 0x0, "d", 0x0, "e", 0x0, "f", 0x0, "i", 0x0
	DCB	"n", 0x0, "e", 0x0, "d", 0x0, 0x0, 0x0
	%	44
	DCB	"U", 0x0, "n", 0x0, "d", 0x0, "e", 0x0, "f", 0x0, "i", 0x0
	DCB	"n", 0x0, "e", 0x0, "d", 0x0, 0x0, 0x0
	%	44
	DCB	"U", 0x0, "n", 0x0, "d", 0x0, "e", 0x0, "f", 0x0, "i", 0x0
	DCB	"n", 0x0, "e", 0x0, "d", 0x0, 0x0, 0x0
	%	44
	DCB	"U", 0x0, "n", 0x0, "d", 0x0, "e", 0x0, "f", 0x0, "i", 0x0
	DCB	"n", 0x0, "e", 0x0, "d", 0x0, 0x0, 0x0
	%	44
	DCD	0xb
	EXPORT	|?I2C_Deinit@@YAHK@Z|			; I2C_Deinit
	EXPORT	|??_C@_1CO@PFNAJHMM@?$AA?9?$AAI?$AA2?$AAC?$AA_?$AAD?$AAe?$AAi?$AAn?$AAi?$AAt?$AA?$CI?$AAr?$AAc?$AA?5?$AA?$DN?$AA?5?$AA?$CF?$AAd?$AA?$CJ?$AA?$AN?$AA?6?$AA?$AA@| [ DATA ] ; `string'
	EXPORT	|??_C@_1HA@PAMFLOPH@?$AAT?$AAL?$AAD?$AA?3?$AA?5?$AA?$CB?$AAE?$AAR?$AAR?$AAO?$AAR?$AA?$CI?$AAI?$AA2?$AAC?$AA_?$AAD?$AAe?$AAi?$AAn?$AAi?$AAt?$AA?$CJ?$AA?5?$AA?9?$AA?5?$AAI?$AAn?$AAc?$AAo?$AAr?$AAr@| [ DATA ] ; `string'
	EXPORT	|??_C@_1CM@CBAGIHJE@?$AA?$CL?$AAI?$AA2?$AAC?$AA_?$AAD?$AAe?$AAi?$AAn?$AAi?$AAt?$AA?$CI?$AA0?$AAx?$AA?$CF?$AA0?$AA8?$AAx?$AA?$CJ?$AA?$AN?$AA?6?$AA?$AA@| [ DATA ] ; `string'
	IMPORT	|LocalFree|
	IMPORT	|DeleteCriticalSection|
	IMPORT	|CloseHandle|
	IMPORT	|NKDbgPrintfW|
; File c:\wince600\platform\z2170p\src\app\i2cproxy\i2cproxy.cpp

  00000			 AREA	 |.pdata|, PDATA
|$T39800| DCD	|$LN15@I2C_Deinit|
	DCD	0x40002801

  00000			 AREA	 |.rdata|, DATA, READONLY
|??_C@_1CO@PFNAJHMM@?$AA?9?$AAI?$AA2?$AAC?$AA_?$AAD?$AAe?$AAi?$AAn?$AAi?$AAt?$AA?$CI?$AAr?$AAc?$AA?5?$AA?$DN?$AA?5?$AA?$CF?$AAd?$AA?$CJ?$AA?$AN?$AA?6?$AA?$AA@| DCB "-"
	DCB	0x0, "I", 0x0, "2", 0x0, "C", 0x0, "_", 0x0, "D", 0x0, "e"
	DCB	0x0, "i", 0x0, "n", 0x0, "i", 0x0, "t", 0x0, "(", 0x0, "r"
	DCB	0x0, "c", 0x0, " ", 0x0, "=", 0x0, " ", 0x0, "%", 0x0, "d"
	DCB	0x0, ")", 0x0, 0xd, 0x0, 0xa, 0x0, 0x0, 0x0 ; `string'

  00000			 AREA	 |.rdata|, DATA, READONLY
|??_C@_1HA@PAMFLOPH@?$AAT?$AAL?$AAD?$AA?3?$AA?5?$AA?$CB?$AAE?$AAR?$AAR?$AAO?$AAR?$AA?$CI?$AAI?$AA2?$AAC?$AA_?$AAD?$AAe?$AAi?$AAn?$AAi?$AAt?$AA?$CJ?$AA?5?$AA?9?$AA?5?$AAI?$AAn?$AAc?$AAo?$AAr?$AAr@| DCB "T"
	DCB	0x0, "L", 0x0, "D", 0x0, ":", 0x0, " ", 0x0, "!", 0x0, "E"
	DCB	0x0, "R", 0x0, "R", 0x0, "O", 0x0, "R", 0x0, "(", 0x0, "I"
	DCB	0x0, "2", 0x0, "C", 0x0, "_", 0x0, "D", 0x0, "e", 0x0, "i"
	DCB	0x0, "n", 0x0, "i", 0x0, "t", 0x0, ")", 0x0, " ", 0x0, "-"
	DCB	0x0, " ", 0x0, "I", 0x0, "n", 0x0, "c", 0x0, "o", 0x0, "r"
	DCB	0x0, "r", 0x0, "e", 0x0, "c", 0x0, "t", 0x0, " ", 0x0, "c"
	DCB	0x0, "o", 0x0, "n", 0x0, "t", 0x0, "e", 0x0, "x", 0x0, "t"
	DCB	0x0, " ", 0x0, "p", 0x0, "a", 0x0, "r", 0x0, "a", 0x0, "m"
	DCB	0x0, "e", 0x0, "t", 0x0, "e", 0x0, "r", 0x0, 0xd, 0x0, 0xa
	DCB	0x0, 0x0, 0x0				; `string'

  00000			 AREA	 |.rdata|, DATA, READONLY
|??_C@_1CM@CBAGIHJE@?$AA?$CL?$AAI?$AA2?$AAC?$AA_?$AAD?$AAe?$AAi?$AAn?$AAi?$AAt?$AA?$CI?$AA0?$AAx?$AA?$CF?$AA0?$AA8?$AAx?$AA?$CJ?$AA?$AN?$AA?6?$AA?$AA@| DCB "+"
	DCB	0x0, "I", 0x0, "2", 0x0, "C", 0x0, "_", 0x0, "D", 0x0, "e"
	DCB	0x0, "i", 0x0, "n", 0x0, "i", 0x0, "t", 0x0, "(", 0x0, "0"
	DCB	0x0, "x", 0x0, "%", 0x0, "0", 0x0, "8", 0x0, "x", 0x0, ")"
	DCB	0x0, 0xd, 0x0, 0xa, 0x0, 0x0, 0x0	; `string'
; Function compile flags: /Ogspy

  00000			 AREA	 |.text|, CODE, ARM

  00000		 |?I2C_Deinit@@YAHK@Z| PROC		; I2C_Deinit

; 179  : {

  00000		 |$LN15@I2C_Deinit|
  00000	e92d4070	 stmdb       sp!, {r4 - r6, lr}
  00004		 |$M39797|
  00004	e1a04000	 mov         r4, r0

; 180  :     BOOL rc = FALSE;
; 181  :     Device_t *pDevice = (Device_t*)context;
; 182  : 
; 183  :     RETAILMSG(ZONE_FUNCTION, (L"+I2C_Deinit(0x%08x)\r\n", context));

  00008	e59f608c	 ldr         r6, [pc, #0x8C]
  0000c	e3a05000	 mov         r5, #0
  00010	e5963440	 ldr         r3, [r6, #0x440]
  00014	e3130004	 tst         r3, #4
  00018	159f0078	 ldrne       r0, [pc, #0x78]
  0001c	11a01004	 movne       r1, r4
  00020	1b000000	 blne        NKDbgPrintfW

; 184  : 
; 185  :     // Check if we get correct context
; 186  :     if ((pDevice == NULL) || (pDevice->cookie != I2C_DEVICE_COOKIE))

  00024	e3540000	 cmp         r4, #0
  00028	0a00000d	 beq         |$LN3@I2C_Deinit|
  0002c	e5942000	 ldr         r2, [r4]
  00030	e59f305c	 ldr         r3, [pc, #0x5C]
  00034	e1520003	 cmp         r2, r3
  00038	1a000009	 bne         |$LN3@I2C_Deinit|

; 191  :         goto cleanUp;
; 192  :         }
; 193  : 
; 194  :     //Close handle to bus driver
; 195  :     if (pDevice->hParent != NULL)

  0003c	e594301c	 ldr         r3, [r4, #0x1C]
  00040	e3530000	 cmp         r3, #0

; 196  :         {
; 197  :         CloseHandle(pDevice->hParent);

  00044	11a00003	 movne       r0, r3
  00048	1b000000	 blne        CloseHandle

; 198  :         }
; 199  : 
; 200  :     // Delete critical sections
; 201  :     DeleteCriticalSection(&pDevice->cs);

  0004c	e2840004	 add         r0, r4, #4
  00050	eb000000	 bl          DeleteCriticalSection

; 202  : 
; 203  :     // Free device structure
; 204  :     LocalFree(pDevice);

  00054	e1a00004	 mov         r0, r4
  00058	eb000000	 bl          LocalFree

; 205  : 
; 206  :     // Done
; 207  :     rc = TRUE;

  0005c	e3a05001	 mov         r5, #1
  00060	ea000001	 b           |$cleanUp$39598|
  00064		 |$LN3@I2C_Deinit|

; 187  :         {
; 188  :         RETAILMSG (ZONE_ERROR, (L"TLD: !ERROR(I2C_Deinit) - "
; 189  :             L"Incorrect context parameter\r\n"
; 190  :             ));

  00064	e59f0024	 ldr         r0, [pc, #0x24]
  00068	eb000000	 bl          NKDbgPrintfW
  0006c		 |$cleanUp$39598|

; 208  : 
; 209  : cleanUp:
; 210  :     RETAILMSG(ZONE_FUNCTION, (L"-I2C_Deinit(rc = %d)\r\n", rc));

  0006c	e5963440	 ldr         r3, [r6, #0x440]
  00070	e3130004	 tst         r3, #4
  00074	159f0010	 ldrne       r0, [pc, #0x10]
  00078	11a01005	 movne       r1, r5
  0007c	1b000000	 blne        NKDbgPrintfW

; 211  :     return rc;
; 212  : }

  00080	e1a00005	 mov         r0, r5
  00084	e8bd4070	 ldmia       sp!, {r4 - r6, lr}
  00088	e12fff1e	 bx          lr
  0008c		 |$LN16@I2C_Deinit|
  0008c		 |$LN17@I2C_Deinit|
  0008c	00000000	 DCD         |??_C@_1CO@PFNAJHMM@?$AA?9?$AAI?$AA2?$AAC?$AA_?$AAD?$AAe?$AAi?$AAn?$AAi?$AAt?$AA?$CI?$AAr?$AAc?$AA?5?$AA?$DN?$AA?5?$AA?$CF?$AAd?$AA?$CJ?$AA?$AN?$AA?6?$AA?$AA@|
  00090		 |$LN18@I2C_Deinit|
  00090	00000000	 DCD         |??_C@_1HA@PAMFLOPH@?$AAT?$AAL?$AAD?$AA?3?$AA?5?$AA?$CB?$AAE?$AAR?$AAR?$AAO?$AAR?$AA?$CI?$AAI?$AA2?$AAC?$AA_?$AAD?$AAe?$AAi?$AAn?$AAi?$AAt?$AA?$CJ?$AA?5?$AA?9?$AA?5?$AAI?$AAn?$AAc?$AAo?$AAr?$AAr@|
  00094		 |$LN19@I2C_Deinit|
  00094	69326344	 DCD         0x69326344
  00098		 |$LN20@I2C_Deinit|
  00098	00000000	 DCD         |??_C@_1CM@CBAGIHJE@?$AA?$CL?$AAI?$AA2?$AAC?$AA_?$AAD?$AAe?$AAi?$AAn?$AAi?$AAt?$AA?$CI?$AA0?$AAx?$AA?$CF?$AA0?$AA8?$AAx?$AA?$CJ?$AA?$AN?$AA?6?$AA?$AA@|
  0009c		 |$LN21@I2C_Deinit|
  0009c	00000000	 DCD         |dpCurSettings|
  000a0		 |$M39798|

			 ENDP  ; |?I2C_Deinit@@YAHK@Z|, I2C_Deinit

	EXPORT	|?I2C_Open@@YAKKKK@Z|			; I2C_Open
	EXPORT	|??_C@_1FE@CBNMAOJK@?$AA?9?$AAI?$AA2?$AAC?$AA_?$AAO?$AAp?$AAe?$AAn?$AA?$CI?$AA0?$AAx?$AA?$CF?$AA0?$AA8?$AAx?$AA?0?$AA?5?$AA0?$AAx?$AA?$CF?$AA0?$AA8?$AAx?$AA?0?$AA?5?$AA0?$AAx?$AA?$CF?$AA0?$AA8?$AAx@| [ DATA ] ; `string'
	EXPORT	|??_C@_1GM@MFIPLNBG@?$AAT?$AAL?$AAD?$AA?3?$AA?5?$AA?$CB?$AAE?$AAR?$AAR?$AAO?$AAR?$AA?$CI?$AAI?$AA2?$AAC?$AA_?$AAO?$AAp?$AAe?$AAn?$AA?$CJ?$AA?5?$AA?9?$AA?5?$AAI?$AAn?$AAc?$AAo?$AAr?$AAr?$AAe?$AAc@| [ DATA ] ; `string'
	EXPORT	|??_C@_1EI@KGOLOKEE@?$AA?$CL?$AAI?$AA2?$AAC?$AA_?$AAO?$AAp?$AAe?$AAn?$AA?$CI?$AA0?$AAx?$AA?$CF?$AA0?$AA8?$AAx?$AA?0?$AA?5?$AA0?$AAx?$AA?$CF?$AA0?$AA8?$AAx?$AA?0?$AA?5?$AA0?$AAx?$AA?$CF?$AA0?$AA8?$AAx@| [ DATA ] ; `string'
	IMPORT	|I2COpen|
	IMPORT	|LocalAlloc|

  00000			 AREA	 |.pdata|, PDATA
|$T39826| DCD	|$LN16@I2C_Open|
	DCD	0x40003a02

  00000			 AREA	 |.rdata|, DATA, READONLY
|??_C@_1FE@CBNMAOJK@?$AA?9?$AAI?$AA2?$AAC?$AA_?$AAO?$AAp?$AAe?$AAn?$AA?$CI?$AA0?$AAx?$AA?$CF?$AA0?$AA8?$AAx?$AA?0?$AA?5?$AA0?$AAx?$AA?$CF?$AA0?$AA8?$AAx?$AA?0?$AA?5?$AA0?$AAx?$AA?$CF?$AA0?$AA8?$AAx@| DCB "-"
	DCB	0x0, "I", 0x0, "2", 0x0, "C", 0x0, "_", 0x0, "O", 0x0, "p"
	DCB	0x0, "e", 0x0, "n", 0x0, "(", 0x0, "0", 0x0, "x", 0x0, "%"
	DCB	0x0, "0", 0x0, "8", 0x0, "x", 0x0, ",", 0x0, " ", 0x0, "0"
	DCB	0x0, "x", 0x0, "%", 0x0, "0", 0x0, "8", 0x0, "x", 0x0, ","
	DCB	0x0, " ", 0x0, "0", 0x0, "x", 0x0, "%", 0x0, "0", 0x0, "8"
	DCB	0x0, "x", 0x0, ")", 0x0, " ", 0x0, "=", 0x0, "=", 0x0, " "
	DCB	0x0, "%", 0x0, "d", 0x0, 0xd, 0x0, 0xa, 0x0, 0x0, 0x0 ; `string'

  00000			 AREA	 |.rdata|, DATA, READONLY
|??_C@_1GM@MFIPLNBG@?$AAT?$AAL?$AAD?$AA?3?$AA?5?$AA?$CB?$AAE?$AAR?$AAR?$AAO?$AAR?$AA?$CI?$AAI?$AA2?$AAC?$AA_?$AAO?$AAp?$AAe?$AAn?$AA?$CJ?$AA?5?$AA?9?$AA?5?$AAI?$AAn?$AAc?$AAo?$AAr?$AAr?$AAe?$AAc@| DCB "T"
	DCB	0x0, "L", 0x0, "D", 0x0, ":", 0x0, " ", 0x0, "!", 0x0, "E"
	DCB	0x0, "R", 0x0, "R", 0x0, "O", 0x0, "R", 0x0, "(", 0x0, "I"
	DCB	0x0, "2", 0x0, "C", 0x0, "_", 0x0, "O", 0x0, "p", 0x0, "e"
	DCB	0x0, "n", 0x0, ")", 0x0, " ", 0x0, "-", 0x0, " ", 0x0, "I"
	DCB	0x0, "n", 0x0, "c", 0x0, "o", 0x0, "r", 0x0, "r", 0x0, "e"
	DCB	0x0, "c", 0x0, "t", 0x0, " ", 0x0, "c", 0x0, "o", 0x0, "n"
	DCB	0x0, "t", 0x0, "e", 0x0, "x", 0x0, "t", 0x0, " ", 0x0, "p"
	DCB	0x0, "a", 0x0, "r", 0x0, "a", 0x0, "m", 0x0, "e", 0x0, "t"
	DCB	0x0, "e", 0x0, "r", 0x0, 0xd, 0x0, 0xa, 0x0, 0x0, 0x0 ; `string'

  00000			 AREA	 |.rdata|, DATA, READONLY
|??_C@_1EI@KGOLOKEE@?$AA?$CL?$AAI?$AA2?$AAC?$AA_?$AAO?$AAp?$AAe?$AAn?$AA?$CI?$AA0?$AAx?$AA?$CF?$AA0?$AA8?$AAx?$AA?0?$AA?5?$AA0?$AAx?$AA?$CF?$AA0?$AA8?$AAx?$AA?0?$AA?5?$AA0?$AAx?$AA?$CF?$AA0?$AA8?$AAx@| DCB "+"
	DCB	0x0, "I", 0x0, "2", 0x0, "C", 0x0, "_", 0x0, "O", 0x0, "p"
	DCB	0x0, "e", 0x0, "n", 0x0, "(", 0x0, "0", 0x0, "x", 0x0, "%"
	DCB	0x0, "0", 0x0, "8", 0x0, "x", 0x0, ",", 0x0, " ", 0x0, "0"
	DCB	0x0, "x", 0x0, "%", 0x0, "0", 0x0, "8", 0x0, "x", 0x0, ","
	DCB	0x0, " ", 0x0, "0", 0x0, "x", 0x0, "%", 0x0, "0", 0x0, "8"
	DCB	0x0, "x", 0x0, ")", 0x0, 0xd, 0x0, 0xa, 0x0, 0x0, 0x0 ; `string'
; Function compile flags: /Ogspy

  00000			 AREA	 |.text|, CODE, ARM

  00000		 |?I2C_Open@@YAKKKK@Z| PROC		; I2C_Open

; 226  : {

  00000		 |$LN16@I2C_Open|
  00000	e92d43f0	 stmdb       sp!, {r4 - r9, lr}
  00004	e24dd004	 sub         sp, sp, #4
  00008		 |$M39823|
  00008	e1a07002	 mov         r7, r2
  0000c	e1a08001	 mov         r8, r1
  00010	e1a04000	 mov         r4, r0

; 227  :     DWORD dw = 0;
; 228  :     Instance_t *pInstance = NULL;
; 229  :     Device_t *pDevice = (Device_t*)context;
; 230  :    
; 231  : 	UNREFERENCED_PARAMETER(accessCode);
; 232  : 	UNREFERENCED_PARAMETER(shareMode);
; 233  : 
; 234  :     RETAILMSG(ZONE_FUNCTION, (L"+I2C_Open(0x%08x, 0x%08x, 0x%08x)\r\n", 
; 235  :         context, accessCode, shareMode
; 236  :         ));

  00014	e59f90c8	 ldr         r9, [pc, #0xC8]
  00018	e3a05000	 mov         r5, #0
  0001c	e5993440	 ldr         r3, [r9, #0x440]
  00020	e3130004	 tst         r3, #4
  00024	159f00b4	 ldrne       r0, [pc, #0xB4]
  00028	11a03007	 movne       r3, r7
  0002c	11a02008	 movne       r2, r8
  00030	11a01004	 movne       r1, r4
  00034	1b000000	 blne        NKDbgPrintfW

; 237  :     
; 238  :     if ((pDevice == NULL) || (pDevice->cookie != I2C_DEVICE_COOKIE))

  00038	e3540000	 cmp         r4, #0
  0003c	0a000015	 beq         |$LN4@I2C_Open|
  00040	e594e000	 ldr         lr, [r4]
  00044	e59f3090	 ldr         r3, [pc, #0x90]
  00048	e15e0003	 cmp         lr, r3
  0004c	1a000011	 bne         |$LN4@I2C_Open|

; 243  :         goto cleanUp;
; 244  :         }
; 245  : 
; 246  :     // Create device structure
; 247  :     pInstance = (Instance_t*)LocalAlloc(LPTR, sizeof(Instance_t));

  00050	e3a01010	 mov         r1, #0x10
  00054	e3a00040	 mov         r0, #0x40
  00058	eb000000	 bl          LocalAlloc
  0005c	e1b06000	 movs        r6, r0

; 248  :     if (pInstance == NULL)

  00060	0a00000e	 beq         |$cleanUp$39615|

; 249  :         {
; 250  :         DEBUGMSG(ZONE_ERROR, (L"ERROR: I2C_Open: "
; 251  :             L"Failed allocate I2C instance structure\r\n"
; 252  :             ));
; 253  :         goto cleanUp;
; 254  :         }
; 255  : 
; 256  :     // initialize instance
; 257  :     memset(pInstance, 0, sizeof(Instance_t));

  00064	e3a02000	 mov         r2, #0

; 258  :     pInstance->cookie = I2C_INSTANCE_COOKIE;

  00068	e59f3068	 ldr         r3, [pc, #0x68]
  0006c	e5862000	 str         r2, [r6]
  00070	e5862004	 str         r2, [r6, #4]
  00074	e5862008	 str         r2, [r6, #8]
  00078	e586200c	 str         r2, [r6, #0xC]
  0007c	e5863000	 str         r3, [r6]

; 259  :     pInstance->pDevice = pDevice;

  00080	e5864004	 str         r4, [r6, #4]

; 260  :     pInstance->hI2C = I2COpen(pDevice->devId);

  00084	e5940018	 ldr         r0, [r4, #0x18]
  00088	eb000000	 bl          I2COpen
  0008c	e5860008	 str         r0, [r6, #8]

; 261  : 
; 262  :     dw = (DWORD)pInstance;

  00090	e1a05006	 mov         r5, r6
  00094	ea000001	 b           |$cleanUp$39615|
  00098		 |$LN4@I2C_Open|

; 239  :         {
; 240  :         RETAILMSG (ZONE_ERROR, (L"TLD: !ERROR(I2C_Open) - "
; 241  :             L"Incorrect context parameter\r\n"
; 242  :             ));

  00098	e59f0034	 ldr         r0, [pc, #0x34]
  0009c	eb000000	 bl          NKDbgPrintfW
  000a0		 |$cleanUp$39615|

; 263  : 
; 264  : cleanUp:
; 265  :     RETAILMSG(ZONE_FUNCTION, (L"-I2C_Open(0x%08x, 0x%08x, 0x%08x) == %d\r\n", 
; 266  :         context, accessCode, shareMode, dw
; 267  :         ));

  000a0	e5993440	 ldr         r3, [r9, #0x440]
  000a4	e3130004	 tst         r3, #4
  000a8	159f0020	 ldrne       r0, [pc, #0x20]
  000ac	11a03007	 movne       r3, r7
  000b0	11a02008	 movne       r2, r8
  000b4	11a01004	 movne       r1, r4
  000b8	158d5000	 strne       r5, [sp]
  000bc	1b000000	 blne        NKDbgPrintfW

; 268  : 
; 269  :     return dw;
; 270  : }

  000c0	e1a00005	 mov         r0, r5
  000c4	e28dd004	 add         sp, sp, #4
  000c8	e8bd43f0	 ldmia       sp!, {r4 - r9, lr}
  000cc	e12fff1e	 bx          lr
  000d0		 |$LN17@I2C_Open|
  000d0		 |$LN18@I2C_Open|
  000d0	00000000	 DCD         |??_C@_1FE@CBNMAOJK@?$AA?9?$AAI?$AA2?$AAC?$AA_?$AAO?$AAp?$AAe?$AAn?$AA?$CI?$AA0?$AAx?$AA?$CF?$AA0?$AA8?$AAx?$AA?0?$AA?5?$AA0?$AAx?$AA?$CF?$AA0?$AA8?$AAx?$AA?0?$AA?5?$AA0?$AAx?$AA?$CF?$AA0?$AA8?$AAx@|
  000d4		 |$LN19@I2C_Open|
  000d4	00000000	 DCD         |??_C@_1GM@MFIPLNBG@?$AAT?$AAL?$AAD?$AA?3?$AA?5?$AA?$CB?$AAE?$AAR?$AAR?$AAO?$AAR?$AA?$CI?$AAI?$AA2?$AAC?$AA_?$AAO?$AAp?$AAe?$AAn?$AA?$CJ?$AA?5?$AA?9?$AA?5?$AAI?$AAn?$AAc?$AAo?$AAr?$AAr?$AAe?$AAc@|
  000d8		 |$LN20@I2C_Open|
  000d8	69326349	 DCD         0x69326349
  000dc		 |$LN21@I2C_Open|
  000dc	69326344	 DCD         0x69326344
  000e0		 |$LN22@I2C_Open|
  000e0	00000000	 DCD         |??_C@_1EI@KGOLOKEE@?$AA?$CL?$AAI?$AA2?$AAC?$AA_?$AAO?$AAp?$AAe?$AAn?$AA?$CI?$AA0?$AAx?$AA?$CF?$AA0?$AA8?$AAx?$AA?0?$AA?5?$AA0?$AAx?$AA?$CF?$AA0?$AA8?$AAx?$AA?0?$AA?5?$AA0?$AAx?$AA?$CF?$AA0?$AA8?$AAx@|
  000e4		 |$LN23@I2C_Open|
  000e4	00000000	 DCD         |dpCurSettings|
  000e8		 |$M39824|

			 ENDP  ; |?I2C_Open@@YAKKKK@Z|, I2C_Open

	EXPORT	|?I2C_Close@@YAHK@Z|			; I2C_Close
	EXPORT	|??_C@_1DA@DEJCFAOP@?$AA?9?$AAI?$AA2?$AAC?$AA_?$AAC?$AAl?$AAo?$AAs?$AAe?$AA?$CI?$AA0?$AAx?$AA?$CF?$AA0?$AA8?$AAx?$AA?$CJ?$AA?$DN?$AA?$CF?$AAd?$AA?$AN?$AA?6?$AA?$AA@| [ DATA ] ; `string'
	EXPORT	|??_C@_1GO@KLPNOEAM@?$AAT?$AAL?$AAD?$AA?3?$AA?5?$AA?$CB?$AAE?$AAR?$AAR?$AAO?$AAR?$AA?$CI?$AAI?$AA2?$AAC?$AA_?$AAC?$AAl?$AAo?$AAs?$AAe?$AA?$CJ?$AA?5?$AA?9?$AA?5?$AAI?$AAn?$AAc?$AAo?$AAr?$AAr?$AAe@| [ DATA ] ; `string'
	EXPORT	|??_C@_1CK@HBELKLFD@?$AA?$CL?$AAI?$AA2?$AAC?$AA_?$AAC?$AAl?$AAo?$AAs?$AAe?$AA?$CI?$AA0?$AAx?$AA?$CF?$AA0?$AA8?$AAx?$AA?$CJ?$AA?$AN?$AA?6?$AA?$AA@| [ DATA ] ; `string'
	IMPORT	|I2CClose|

  00000			 AREA	 |.pdata|, PDATA
|$T39850| DCD	|$LN14@I2C_Close|
	DCD	0x40002501

  00000			 AREA	 |.rdata|, DATA, READONLY
|??_C@_1DA@DEJCFAOP@?$AA?9?$AAI?$AA2?$AAC?$AA_?$AAC?$AAl?$AAo?$AAs?$AAe?$AA?$CI?$AA0?$AAx?$AA?$CF?$AA0?$AA8?$AAx?$AA?$CJ?$AA?$DN?$AA?$CF?$AAd?$AA?$AN?$AA?6?$AA?$AA@| DCB "-"
	DCB	0x0, "I", 0x0, "2", 0x0, "C", 0x0, "_", 0x0, "C", 0x0, "l"
	DCB	0x0, "o", 0x0, "s", 0x0, "e", 0x0, "(", 0x0, "0", 0x0, "x"
	DCB	0x0, "%", 0x0, "0", 0x0, "8", 0x0, "x", 0x0, ")", 0x0, "="
	DCB	0x0, "%", 0x0, "d", 0x0, 0xd, 0x0, 0xa, 0x0, 0x0, 0x0 ; `string'

  00000			 AREA	 |.rdata|, DATA, READONLY
|??_C@_1GO@KLPNOEAM@?$AAT?$AAL?$AAD?$AA?3?$AA?5?$AA?$CB?$AAE?$AAR?$AAR?$AAO?$AAR?$AA?$CI?$AAI?$AA2?$AAC?$AA_?$AAC?$AAl?$AAo?$AAs?$AAe?$AA?$CJ?$AA?5?$AA?9?$AA?5?$AAI?$AAn?$AAc?$AAo?$AAr?$AAr?$AAe@| DCB "T"
	DCB	0x0, "L", 0x0, "D", 0x0, ":", 0x0, " ", 0x0, "!", 0x0, "E"
	DCB	0x0, "R", 0x0, "R", 0x0, "O", 0x0, "R", 0x0, "(", 0x0, "I"
	DCB	0x0, "2", 0x0, "C", 0x0, "_", 0x0, "C", 0x0, "l", 0x0, "o"
	DCB	0x0, "s", 0x0, "e", 0x0, ")", 0x0, " ", 0x0, "-", 0x0, " "
	DCB	0x0, "I", 0x0, "n", 0x0, "c", 0x0, "o", 0x0, "r", 0x0, "r"
	DCB	0x0, "e", 0x0, "c", 0x0, "t", 0x0, " ", 0x0, "c", 0x0, "o"
	DCB	0x0, "n", 0x0, "t", 0x0, "e", 0x0, "x", 0x0, "t", 0x0, " "
	DCB	0x0, "p", 0x0, "a", 0x0, "r", 0x0, "a", 0x0, "m", 0x0, "e"
	DCB	0x0, "t", 0x0, "e", 0x0, "r", 0x0, 0xd, 0x0, 0xa, 0x0, 0x0
	DCB	0x0					; `string'

  00000			 AREA	 |.rdata|, DATA, READONLY
|??_C@_1CK@HBELKLFD@?$AA?$CL?$AAI?$AA2?$AAC?$AA_?$AAC?$AAl?$AAo?$AAs?$AAe?$AA?$CI?$AA0?$AAx?$AA?$CF?$AA0?$AA8?$AAx?$AA?$CJ?$AA?$AN?$AA?6?$AA?$AA@| DCB "+"
	DCB	0x0, "I", 0x0, "2", 0x0, "C", 0x0, "_", 0x0, "C", 0x0, "l"
	DCB	0x0, "o", 0x0, "s", 0x0, "e", 0x0, "(", 0x0, "0", 0x0, "x"
	DCB	0x0, "%", 0x0, "0", 0x0, "8", 0x0, "x", 0x0, ")", 0x0, 0xd
	DCB	0x0, 0xa, 0x0, 0x0, 0x0			; `string'
; Function compile flags: /Ogspy

  00000			 AREA	 |.text|, CODE, ARM

  00000		 |?I2C_Close@@YAHK@Z| PROC		; I2C_Close

; 282  : {

  00000		 |$LN14@I2C_Close|
  00000	e92d4070	 stmdb       sp!, {r4 - r6, lr}
  00004		 |$M39847|
  00004	e1a04000	 mov         r4, r0

; 283  :     RETAILMSG(ZONE_FUNCTION, (L"+I2C_Close(0x%08x)\r\n", 
; 284  :         context
; 285  :         ));

  00008	e59f6080	 ldr         r6, [pc, #0x80]
  0000c	e5963440	 ldr         r3, [r6, #0x440]
  00010	e3130004	 tst         r3, #4
  00014	159f0070	 ldrne       r0, [pc, #0x70]
  00018	11a01004	 movne       r1, r4
  0001c	1b000000	 blne        NKDbgPrintfW

; 286  : 
; 287  :     BOOL rc = FALSE;

  00020	e3a05000	 mov         r5, #0

; 288  :     Instance_t *pInstance = (Instance_t*)context;
; 289  :     if ((pInstance == NULL) || (pInstance->cookie != I2C_INSTANCE_COOKIE))

  00024	e3540000	 cmp         r4, #0
  00028	0a000009	 beq         |$LN2@I2C_Close|
  0002c	e5942000	 ldr         r2, [r4]
  00030	e59f3050	 ldr         r3, [pc, #0x50]
  00034	e1520003	 cmp         r2, r3
  00038	1a000005	 bne         |$LN2@I2C_Close|

; 294  :         goto cleanUp;
; 295  :         }
; 296  : 
; 297  :     I2CClose(pInstance->hI2C);

  0003c	e5940008	 ldr         r0, [r4, #8]
  00040	eb000000	 bl          I2CClose

; 298  :     LocalFree(pInstance);

  00044	e1a00004	 mov         r0, r4
  00048	eb000000	 bl          LocalFree

; 299  :     rc = TRUE;

  0004c	e3a05001	 mov         r5, #1
  00050	ea000001	 b           |$cleanUp$39635|
  00054		 |$LN2@I2C_Close|

; 290  :         {
; 291  :         RETAILMSG (ZONE_ERROR, (L"TLD: !ERROR(I2C_Close) - "
; 292  :             L"Incorrect context parameter\r\n"
; 293  :             ));

  00054	e59f0028	 ldr         r0, [pc, #0x28]
  00058	eb000000	 bl          NKDbgPrintfW
  0005c		 |$cleanUp$39635|

; 300  : 
; 301  : cleanUp:
; 302  :     RETAILMSG(ZONE_FUNCTION, (L"-I2C_Close(0x%08x)=%d\r\n", 
; 303  :         context, rc
; 304  :         ));

  0005c	e5963440	 ldr         r3, [r6, #0x440]
  00060	e3130004	 tst         r3, #4
  00064	159f0014	 ldrne       r0, [pc, #0x14]
  00068	11a02005	 movne       r2, r5
  0006c	11a01004	 movne       r1, r4
  00070	1b000000	 blne        NKDbgPrintfW

; 305  : 
; 306  :     return rc;
; 307  : }

  00074	e1a00005	 mov         r0, r5
  00078	e8bd4070	 ldmia       sp!, {r4 - r6, lr}
  0007c	e12fff1e	 bx          lr
  00080		 |$LN15@I2C_Close|
  00080		 |$LN16@I2C_Close|
  00080	00000000	 DCD         |??_C@_1DA@DEJCFAOP@?$AA?9?$AAI?$AA2?$AAC?$AA_?$AAC?$AAl?$AAo?$AAs?$AAe?$AA?$CI?$AA0?$AAx?$AA?$CF?$AA0?$AA8?$AAx?$AA?$CJ?$AA?$DN?$AA?$CF?$AAd?$AA?$AN?$AA?6?$AA?$AA@|
  00084		 |$LN17@I2C_Close|
  00084	00000000	 DCD         |??_C@_1GO@KLPNOEAM@?$AAT?$AAL?$AAD?$AA?3?$AA?5?$AA?$CB?$AAE?$AAR?$AAR?$AAO?$AAR?$AA?$CI?$AAI?$AA2?$AAC?$AA_?$AAC?$AAl?$AAo?$AAs?$AAe?$AA?$CJ?$AA?5?$AA?9?$AA?5?$AAI?$AAn?$AAc?$AAo?$AAr?$AAr?$AAe@|
  00088		 |$LN18@I2C_Close|
  00088	69326349	 DCD         0x69326349
  0008c		 |$LN19@I2C_Close|
  0008c	00000000	 DCD         |??_C@_1CK@HBELKLFD@?$AA?$CL?$AAI?$AA2?$AAC?$AA_?$AAC?$AAl?$AAo?$AAs?$AAe?$AA?$CI?$AA0?$AAx?$AA?$CF?$AA0?$AA8?$AAx?$AA?$CJ?$AA?$AN?$AA?6?$AA?$AA@|
  00090		 |$LN20@I2C_Close|
  00090	00000000	 DCD         |dpCurSettings|
  00094		 |$M39848|

			 ENDP  ; |?I2C_Close@@YAHK@Z|, I2C_Close

	EXPORT	|?I2C_Read@@YAKKPAXK@Z|			; I2C_Read
	EXPORT	|??_C@_1CO@NDEBDHCG@?$AA?9?$AAI?$AA2?$AAC?$AA_?$AAR?$AAe?$AAa?$AAd?$AA?$CI?$AA0?$AAx?$AA?$CF?$AA0?$AA8?$AAx?$AA?$CJ?$AA?$DN?$AA?$CF?$AAd?$AA?$AN?$AA?6?$AA?$AA@| [ DATA ] ; `string'
	EXPORT	|??_C@_1EA@CNELEJHA@?$AA?$CL?$AAI?$AA2?$AAC?$AA_?$AAR?$AAe?$AAa?$AAd?$AA?$CI?$AA0?$AAx?$AA?$CF?$AA0?$AA8?$AAx?$AA?0?$AA?5?$AA0?$AAx?$AA?$CF?$AA0?$AA8?$AAX?$AA?0?$AA?5?$AA?$CF?$AAd?$AA?$CJ?$AA?$AN?$AA?6?$AA?$AA@| [ DATA ] ; `string'
	IMPORT	|I2CRead|

  00000			 AREA	 |.pdata|, PDATA
|$T39875| DCD	|$LN14@I2C_Read|
	DCD	0x40002a01

  00000			 AREA	 |.rdata|, DATA, READONLY
|??_C@_1CO@NDEBDHCG@?$AA?9?$AAI?$AA2?$AAC?$AA_?$AAR?$AAe?$AAa?$AAd?$AA?$CI?$AA0?$AAx?$AA?$CF?$AA0?$AA8?$AAx?$AA?$CJ?$AA?$DN?$AA?$CF?$AAd?$AA?$AN?$AA?6?$AA?$AA@| DCB "-"
	DCB	0x0, "I", 0x0, "2", 0x0, "C", 0x0, "_", 0x0, "R", 0x0, "e"
	DCB	0x0, "a", 0x0, "d", 0x0, "(", 0x0, "0", 0x0, "x", 0x0, "%"
	DCB	0x0, "0", 0x0, "8", 0x0, "x", 0x0, ")", 0x0, "=", 0x0, "%"
	DCB	0x0, "d", 0x0, 0xd, 0x0, 0xa, 0x0, 0x0, 0x0 ; `string'

  00000			 AREA	 |.rdata|, DATA, READONLY
|??_C@_1EA@CNELEJHA@?$AA?$CL?$AAI?$AA2?$AAC?$AA_?$AAR?$AAe?$AAa?$AAd?$AA?$CI?$AA0?$AAx?$AA?$CF?$AA0?$AA8?$AAx?$AA?0?$AA?5?$AA0?$AAx?$AA?$CF?$AA0?$AA8?$AAX?$AA?0?$AA?5?$AA?$CF?$AAd?$AA?$CJ?$AA?$AN?$AA?6?$AA?$AA@| DCB "+"
	DCB	0x0, "I", 0x0, "2", 0x0, "C", 0x0, "_", 0x0, "R", 0x0, "e"
	DCB	0x0, "a", 0x0, "d", 0x0, "(", 0x0, "0", 0x0, "x", 0x0, "%"
	DCB	0x0, "0", 0x0, "8", 0x0, "x", 0x0, ",", 0x0, " ", 0x0, "0"
	DCB	0x0, "x", 0x0, "%", 0x0, "0", 0x0, "8", 0x0, "X", 0x0, ","
	DCB	0x0, " ", 0x0, "%", 0x0, "d", 0x0, ")", 0x0, 0xd, 0x0, 0xa
	DCB	0x0, 0x0, 0x0				; `string'
; Function compile flags: /Ogspy

  00000			 AREA	 |.text|, CODE, ARM

  00000		 |?I2C_Read@@YAKKPAXK@Z| PROC		; I2C_Read

; 321  : {

  00000		 |$LN14@I2C_Read|
  00000	e92d41f0	 stmdb       sp!, {r4 - r8, lr}
  00004		 |$M39872|
  00004	e1a06002	 mov         r6, r2
  00008	e1a07001	 mov         r7, r1
  0000c	e1a04000	 mov         r4, r0

; 322  :     RETAILMSG(ZONE_FUNCTION, (L"+I2C_Read(0x%08x, 0x%08X, %d)\r\n", 
; 323  :         context, pBuffer, count
; 324  :         ));

  00010	e59f808c	 ldr         r8, [pc, #0x8C]
  00014	e5983440	 ldr         r3, [r8, #0x440]
  00018	e3130004	 tst         r3, #4
  0001c	159f007c	 ldrne       r0, [pc, #0x7C]
  00020	11a03006	 movne       r3, r6
  00024	11a02007	 movne       r2, r7
  00028	11a01004	 movne       r1, r4
  0002c	1b000000	 blne        NKDbgPrintfW

; 325  : 
; 326  :     DWORD rc = (DWORD)-1;

  00030	e3e05000	 mvn         r5, #0

; 327  :     Instance_t *pInstance = (Instance_t*)context;
; 328  :     if ((pInstance == NULL) || (pInstance->cookie != I2C_INSTANCE_COOKIE))

  00034	e3540000	 cmp         r4, #0
  00038	0a00000a	 beq         |$LN2@I2C_Read|
  0003c	e594e000	 ldr         lr, [r4]
  00040	e59f3054	 ldr         r3, [pc, #0x54]
  00044	e15e0003	 cmp         lr, r3
  00048	1a000006	 bne         |$LN2@I2C_Read|

; 333  :         goto cleanUp;
; 334  :         }
; 335  : 
; 336  :     rc = I2CRead(pInstance->hI2C, pInstance->subAddress, pBuffer, count);

  0004c	e594100c	 ldr         r1, [r4, #0xC]
  00050	e5940008	 ldr         r0, [r4, #8]
  00054	e1a03006	 mov         r3, r6
  00058	e1a02007	 mov         r2, r7
  0005c	eb000000	 bl          I2CRead
  00060	e1a05000	 mov         r5, r0
  00064	ea000001	 b           |$cleanUp$39650|
  00068		 |$LN2@I2C_Read|

; 329  :         {
; 330  :         RETAILMSG (ZONE_ERROR, (L"TLD: !ERROR(I2C_Close) - "
; 331  :             L"Incorrect context parameter\r\n"
; 332  :             ));

  00068	e59f0028	 ldr         r0, [pc, #0x28]
  0006c	eb000000	 bl          NKDbgPrintfW
  00070		 |$cleanUp$39650|

; 337  :     
; 338  : cleanUp:
; 339  :     RETAILMSG(ZONE_FUNCTION, (L"-I2C_Read(0x%08x)=%d\r\n", 
; 340  :         context, rc
; 341  :         ));

  00070	e5983440	 ldr         r3, [r8, #0x440]
  00074	e3130004	 tst         r3, #4
  00078	159f0014	 ldrne       r0, [pc, #0x14]
  0007c	11a02005	 movne       r2, r5
  00080	11a01004	 movne       r1, r4
  00084	1b000000	 blne        NKDbgPrintfW

; 342  : 
; 343  :     return rc;
; 344  : }

  00088	e1a00005	 mov         r0, r5
  0008c	e8bd41f0	 ldmia       sp!, {r4 - r8, lr}
  00090	e12fff1e	 bx          lr
  00094		 |$LN15@I2C_Read|
  00094		 |$LN16@I2C_Read|
  00094	00000000	 DCD         |??_C@_1CO@NDEBDHCG@?$AA?9?$AAI?$AA2?$AAC?$AA_?$AAR?$AAe?$AAa?$AAd?$AA?$CI?$AA0?$AAx?$AA?$CF?$AA0?$AA8?$AAx?$AA?$CJ?$AA?$DN?$AA?$CF?$AAd?$AA?$AN?$AA?6?$AA?$AA@|
  00098		 |$LN17@I2C_Read|
  00098	00000000	 DCD         |??_C@_1GO@KLPNOEAM@?$AAT?$AAL?$AAD?$AA?3?$AA?5?$AA?$CB?$AAE?$AAR?$AAR?$AAO?$AAR?$AA?$CI?$AAI?$AA2?$AAC?$AA_?$AAC?$AAl?$AAo?$AAs?$AAe?$AA?$CJ?$AA?5?$AA?9?$AA?5?$AAI?$AAn?$AAc?$AAo?$AAr?$AAr?$AAe@|
  0009c		 |$LN18@I2C_Read|
  0009c	69326349	 DCD         0x69326349
  000a0		 |$LN19@I2C_Read|
  000a0	00000000	 DCD         |??_C@_1EA@CNELEJHA@?$AA?$CL?$AAI?$AA2?$AAC?$AA_?$AAR?$AAe?$AAa?$AAd?$AA?$CI?$AA0?$AAx?$AA?$CF?$AA0?$AA8?$AAx?$AA?0?$AA?5?$AA0?$AAx?$AA?$CF?$AA0?$AA8?$AAX?$AA?0?$AA?5?$AA?$CF?$AAd?$AA?$CJ?$AA?$AN?$AA?6?$AA?$AA@|
  000a4		 |$LN20@I2C_Read|
  000a4	00000000	 DCD         |dpCurSettings|
  000a8		 |$M39873|

			 ENDP  ; |?I2C_Read@@YAKKPAXK@Z|, I2C_Read

	EXPORT	|?I2C_Write@@YAKKPBXK@Z|		; I2C_Write
	EXPORT	|??_C@_1DA@OBCJIOGG@?$AA?9?$AAI?$AA2?$AAC?$AA_?$AAW?$AAr?$AAi?$AAt?$AAe?$AA?$CI?$AA0?$AAx?$AA?$CF?$AA0?$AA8?$AAx?$AA?$CJ?$AA?$DN?$AA?$CF?$AAd?$AA?$AN?$AA?6?$AA?$AA@| [ DATA ] ; `string'
	EXPORT	|??_C@_1EC@KACFNGNF@?$AA?$CL?$AAI?$AA2?$AAC?$AA_?$AAW?$AAr?$AAi?$AAt?$AAe?$AA?$CI?$AA0?$AAx?$AA?$CF?$AA0?$AA8?$AAx?$AA?0?$AA?5?$AA0?$AAx?$AA?$CF?$AA0?$AA8?$AAX?$AA?0?$AA?5?$AA?$CF?$AAd?$AA?$CJ?$AA?$AN?$AA?6@| [ DATA ] ; `string'
	IMPORT	|I2CWrite|

  00000			 AREA	 |.pdata|, PDATA
|$T39900| DCD	|$LN14@I2C_Write|
	DCD	0x40002a01

  00000			 AREA	 |.rdata|, DATA, READONLY
|??_C@_1DA@OBCJIOGG@?$AA?9?$AAI?$AA2?$AAC?$AA_?$AAW?$AAr?$AAi?$AAt?$AAe?$AA?$CI?$AA0?$AAx?$AA?$CF?$AA0?$AA8?$AAx?$AA?$CJ?$AA?$DN?$AA?$CF?$AAd?$AA?$AN?$AA?6?$AA?$AA@| DCB "-"
	DCB	0x0, "I", 0x0, "2", 0x0, "C", 0x0, "_", 0x0, "W", 0x0, "r"
	DCB	0x0, "i", 0x0, "t", 0x0, "e", 0x0, "(", 0x0, "0", 0x0, "x"
	DCB	0x0, "%", 0x0, "0", 0x0, "8", 0x0, "x", 0x0, ")", 0x0, "="
	DCB	0x0, "%", 0x0, "d", 0x0, 0xd, 0x0, 0xa, 0x0, 0x0, 0x0 ; `string'

  00000			 AREA	 |.rdata|, DATA, READONLY
|??_C@_1EC@KACFNGNF@?$AA?$CL?$AAI?$AA2?$AAC?$AA_?$AAW?$AAr?$AAi?$AAt?$AAe?$AA?$CI?$AA0?$AAx?$AA?$CF?$AA0?$AA8?$AAx?$AA?0?$AA?5?$AA0?$AAx?$AA?$CF?$AA0?$AA8?$AAX?$AA?0?$AA?5?$AA?$CF?$AAd?$AA?$CJ?$AA?$AN?$AA?6@| DCB "+"
	DCB	0x0, "I", 0x0, "2", 0x0, "C", 0x0, "_", 0x0, "W", 0x0, "r"
	DCB	0x0, "i", 0x0, "t", 0x0, "e", 0x0, "(", 0x0, "0", 0x0, "x"
	DCB	0x0, "%", 0x0, "0", 0x0, "8", 0x0, "x", 0x0, ",", 0x0, " "
	DCB	0x0, "0", 0x0, "x", 0x0, "%", 0x0, "0", 0x0, "8", 0x0, "X"
	DCB	0x0, ",", 0x0, " ", 0x0, "%", 0x0, "d", 0x0, ")", 0x0, 0xd
	DCB	0x0, 0xa, 0x0, 0x0, 0x0			; `string'
; Function compile flags: /Ogspy

  00000			 AREA	 |.text|, CODE, ARM

  00000		 |?I2C_Write@@YAKKPBXK@Z| PROC		; I2C_Write

; 358  : {

  00000		 |$LN14@I2C_Write|
  00000	e92d41f0	 stmdb       sp!, {r4 - r8, lr}
  00004		 |$M39897|
  00004	e1a06002	 mov         r6, r2
  00008	e1a07001	 mov         r7, r1
  0000c	e1a04000	 mov         r4, r0

; 359  :     RETAILMSG(ZONE_FUNCTION, (L"+I2C_Write(0x%08x, 0x%08X, %d)\r\n", 
; 360  :         context, pBuffer, count
; 361  :         ));

  00010	e59f808c	 ldr         r8, [pc, #0x8C]
  00014	e5983440	 ldr         r3, [r8, #0x440]
  00018	e3130004	 tst         r3, #4
  0001c	159f007c	 ldrne       r0, [pc, #0x7C]
  00020	11a03006	 movne       r3, r6
  00024	11a02007	 movne       r2, r7
  00028	11a01004	 movne       r1, r4
  0002c	1b000000	 blne        NKDbgPrintfW

; 362  : 
; 363  :     DWORD rc = (DWORD)-1;

  00030	e3e05000	 mvn         r5, #0

; 364  :     Instance_t *pInstance = (Instance_t*)context;
; 365  :     if ((pInstance == NULL) || (pInstance->cookie != I2C_INSTANCE_COOKIE))

  00034	e3540000	 cmp         r4, #0
  00038	0a00000a	 beq         |$LN2@I2C_Write|
  0003c	e594e000	 ldr         lr, [r4]
  00040	e59f3054	 ldr         r3, [pc, #0x54]
  00044	e15e0003	 cmp         lr, r3
  00048	1a000006	 bne         |$LN2@I2C_Write|

; 370  :         goto cleanUp;
; 371  :         }
; 372  : 
; 373  :     rc = I2CWrite(pInstance->hI2C, pInstance->subAddress, pBuffer, count);

  0004c	e594100c	 ldr         r1, [r4, #0xC]
  00050	e5940008	 ldr         r0, [r4, #8]
  00054	e1a03006	 mov         r3, r6
  00058	e1a02007	 mov         r2, r7
  0005c	eb000000	 bl          I2CWrite
  00060	e1a05000	 mov         r5, r0
  00064	ea000001	 b           |$cleanUp$39665|
  00068		 |$LN2@I2C_Write|

; 366  :         {
; 367  :         RETAILMSG (ZONE_ERROR, (L"TLD: !ERROR(I2C_Close) - "
; 368  :             L"Incorrect context parameter\r\n"
; 369  :             ));

  00068	e59f0028	 ldr         r0, [pc, #0x28]
  0006c	eb000000	 bl          NKDbgPrintfW
  00070		 |$cleanUp$39665|

; 374  : 
; 375  : cleanUp:
; 376  :     RETAILMSG(ZONE_FUNCTION, (L"-I2C_Write(0x%08x)=%d\r\n", 
; 377  :         context, rc
; 378  :         ));

  00070	e5983440	 ldr         r3, [r8, #0x440]
  00074	e3130004	 tst         r3, #4
  00078	159f0014	 ldrne       r0, [pc, #0x14]
  0007c	11a02005	 movne       r2, r5
  00080	11a01004	 movne       r1, r4
  00084	1b000000	 blne        NKDbgPrintfW

; 379  : 
; 380  :     return rc;
; 381  : }

  00088	e1a00005	 mov         r0, r5
  0008c	e8bd41f0	 ldmia       sp!, {r4 - r8, lr}
  00090	e12fff1e	 bx          lr
  00094		 |$LN15@I2C_Write|
  00094		 |$LN16@I2C_Write|
  00094	00000000	 DCD         |??_C@_1DA@OBCJIOGG@?$AA?9?$AAI?$AA2?$AAC?$AA_?$AAW?$AAr?$AAi?$AAt?$AAe?$AA?$CI?$AA0?$AAx?$AA?$CF?$AA0?$AA8?$AAx?$AA?$CJ?$AA?$DN?$AA?$CF?$AAd?$AA?$AN?$AA?6?$AA?$AA@|
  00098		 |$LN17@I2C_Write|
  00098	00000000	 DCD         |??_C@_1GO@KLPNOEAM@?$AAT?$AAL?$AAD?$AA?3?$AA?5?$AA?$CB?$AAE?$AAR?$AAR?$AAO?$AAR?$AA?$CI?$AAI?$AA2?$AAC?$AA_?$AAC?$AAl?$AAo?$AAs?$AAe?$AA?$CJ?$AA?5?$AA?9?$AA?5?$AAI?$AAn?$AAc?$AAo?$AAr?$AAr?$AAe@|
  0009c		 |$LN18@I2C_Write|
  0009c	69326349	 DCD         0x69326349
  000a0		 |$LN19@I2C_Write|
  000a0	00000000	 DCD         |??_C@_1EC@KACFNGNF@?$AA?$CL?$AAI?$AA2?$AAC?$AA_?$AAW?$AAr?$AAi?$AAt?$AAe?$AA?$CI?$AA0?$AAx?$AA?$CF?$AA0?$AA8?$AAx?$AA?0?$AA?5?$AA0?$AAx?$AA?$CF?$AA0?$AA8?$AAX?$AA?0?$AA?5?$AA?$CF?$AAd?$AA?$CJ?$AA?$AN?$AA?6@|
  000a4		 |$LN20@I2C_Write|
  000a4	00000000	 DCD         |dpCurSettings|
  000a8		 |$M39898|

			 ENDP  ; |?I2C_Write@@YAKKPBXK@Z|, I2C_Write

	EXPORT	|?I2C_Seek@@YAHKJG@Z|			; I2C_Seek
	EXPORT	|??_C@_1CI@NEBFNGHM@?$AA?9?$AAI?$AA2?$AAC?$AA_?$AAS?$AAe?$AAe?$AAk?$AA?$CI?$AA0?$AAx?$AA?$CF?$AA0?$AA8?$AAx?$AA?$CJ?$AA?$AN?$AA?6?$AA?$AA@| [ DATA ] ; `string'
	EXPORT	|??_C@_1DI@FEBNDHOG@?$AA?$CL?$AAI?$AA2?$AAC?$AA_?$AAS?$AAe?$AAe?$AAk?$AA?$CI?$AA0?$AAx?$AA?$CF?$AA0?$AA8?$AAx?$AA?0?$AA?5?$AA?$CF?$AAd?$AA?0?$AA?5?$AA?$CF?$AAd?$AA?$CJ?$AA?$AN?$AA?6?$AA?$AA@| [ DATA ] ; `string'

  00000			 AREA	 |.pdata|, PDATA
|$T39924| DCD	|$LN14@I2C_Seek|
	DCD	0x40002101

  00000			 AREA	 |.rdata|, DATA, READONLY
|??_C@_1CI@NEBFNGHM@?$AA?9?$AAI?$AA2?$AAC?$AA_?$AAS?$AAe?$AAe?$AAk?$AA?$CI?$AA0?$AAx?$AA?$CF?$AA0?$AA8?$AAx?$AA?$CJ?$AA?$AN?$AA?6?$AA?$AA@| DCB "-"
	DCB	0x0, "I", 0x0, "2", 0x0, "C", 0x0, "_", 0x0, "S", 0x0, "e"
	DCB	0x0, "e", 0x0, "k", 0x0, "(", 0x0, "0", 0x0, "x", 0x0, "%"
	DCB	0x0, "0", 0x0, "8", 0x0, "x", 0x0, ")", 0x0, 0xd, 0x0, 0xa
	DCB	0x0, 0x0, 0x0				; `string'

  00000			 AREA	 |.rdata|, DATA, READONLY
|??_C@_1DI@FEBNDHOG@?$AA?$CL?$AAI?$AA2?$AAC?$AA_?$AAS?$AAe?$AAe?$AAk?$AA?$CI?$AA0?$AAx?$AA?$CF?$AA0?$AA8?$AAx?$AA?0?$AA?5?$AA?$CF?$AAd?$AA?0?$AA?5?$AA?$CF?$AAd?$AA?$CJ?$AA?$AN?$AA?6?$AA?$AA@| DCB "+"
	DCB	0x0, "I", 0x0, "2", 0x0, "C", 0x0, "_", 0x0, "S", 0x0, "e"
	DCB	0x0, "e", 0x0, "k", 0x0, "(", 0x0, "0", 0x0, "x", 0x0, "%"
	DCB	0x0, "0", 0x0, "8", 0x0, "x", 0x0, ",", 0x0, " ", 0x0, "%"
	DCB	0x0, "d", 0x0, ",", 0x0, " ", 0x0, "%", 0x0, "d", 0x0, ")"
	DCB	0x0, 0xd, 0x0, 0xa, 0x0, 0x0, 0x0	; `string'
; Function compile flags: /Ogspy

  00000			 AREA	 |.text|, CODE, ARM

  00000		 |?I2C_Seek@@YAHKJG@Z| PROC		; I2C_Seek

; 395  : {

  00000		 |$LN14@I2C_Seek|
  00000	e92d4070	 stmdb       sp!, {r4 - r6, lr}
  00004		 |$M39921|
  00004	e1a05001	 mov         r5, r1
  00008	e1a04000	 mov         r4, r0

; 396  :     RETAILMSG(ZONE_FUNCTION, (L"+I2C_Seek(0x%08x, %d, %d)\r\n", 
; 397  :         context, amount, type
; 398  :         ));

  0000c	e59f606c	 ldr         r6, [pc, #0x6C]
  00010	e5963440	 ldr         r3, [r6, #0x440]
  00014	e3130004	 tst         r3, #4
  00018	159f005c	 ldrne       r0, [pc, #0x5C]
  0001c	11a03002	 movne       r3, r2
  00020	11a02005	 movne       r2, r5
  00024	11a01004	 movne       r1, r4
  00028	1b000000	 blne        NKDbgPrintfW

; 399  : 
; 400  : 	UNREFERENCED_PARAMETER(type);
; 401  : 
; 402  :     Instance_t *pInstance = (Instance_t*)context;
; 403  :     if ((pInstance == NULL) || (pInstance->cookie != I2C_INSTANCE_COOKIE))

  0002c	e3540000	 cmp         r4, #0
  00030	0a000004	 beq         |$LN2@I2C_Seek|
  00034	e5942000	 ldr         r2, [r4]
  00038	e59f3038	 ldr         r3, [pc, #0x38]
  0003c	e1520003	 cmp         r2, r3

; 408  :         goto cleanUp;
; 409  :         }
; 410  : 
; 411  :     pInstance->subAddress = (DWORD)amount;

  00040	0584500c	 streq       r5, [r4, #0xC]
  00044	0a000001	 beq         |$cleanUp$39678|
  00048		 |$LN2@I2C_Seek|

; 404  :         {
; 405  :         RETAILMSG (ZONE_ERROR, (L"TLD: !ERROR(I2C_Close) - "
; 406  :             L"Incorrect context parameter\r\n"
; 407  :             ));

  00048	e59f0024	 ldr         r0, [pc, #0x24]
  0004c	eb000000	 bl          NKDbgPrintfW
  00050		 |$cleanUp$39678|

; 412  : 
; 413  : cleanUp:
; 414  :     RETAILMSG(ZONE_FUNCTION, (L"-I2C_Seek(0x%08x)\r\n", 
; 415  :         context
; 416  :         ));

  00050	e5963440	 ldr         r3, [r6, #0x440]
  00054	e3130004	 tst         r3, #4
  00058	159f0010	 ldrne       r0, [pc, #0x10]
  0005c	11a01004	 movne       r1, r4
  00060	1b000000	 blne        NKDbgPrintfW

; 417  : 
; 418  :     return TRUE;

  00064	e3a00001	 mov         r0, #1

; 419  : }

  00068	e8bd4070	 ldmia       sp!, {r4 - r6, lr}
  0006c	e12fff1e	 bx          lr
  00070		 |$LN15@I2C_Seek|
  00070		 |$LN16@I2C_Seek|
  00070	00000000	 DCD         |??_C@_1CI@NEBFNGHM@?$AA?9?$AAI?$AA2?$AAC?$AA_?$AAS?$AAe?$AAe?$AAk?$AA?$CI?$AA0?$AAx?$AA?$CF?$AA0?$AA8?$AAx?$AA?$CJ?$AA?$AN?$AA?6?$AA?$AA@|
  00074		 |$LN17@I2C_Seek|
  00074	00000000	 DCD         |??_C@_1GO@KLPNOEAM@?$AAT?$AAL?$AAD?$AA?3?$AA?5?$AA?$CB?$AAE?$AAR?$AAR?$AAO?$AAR?$AA?$CI?$AAI?$AA2?$AAC?$AA_?$AAC?$AAl?$AAo?$AAs?$AAe?$AA?$CJ?$AA?5?$AA?9?$AA?5?$AAI?$AAn?$AAc?$AAo?$AAr?$AAr?$AAe@|
  00078		 |$LN18@I2C_Seek|
  00078	69326349	 DCD         0x69326349
  0007c		 |$LN19@I2C_Seek|
  0007c	00000000	 DCD         |??_C@_1DI@FEBNDHOG@?$AA?$CL?$AAI?$AA2?$AAC?$AA_?$AAS?$AAe?$AAe?$AAk?$AA?$CI?$AA0?$AAx?$AA?$CF?$AA0?$AA8?$AAx?$AA?0?$AA?5?$AA?$CF?$AAd?$AA?0?$AA?5?$AA?$CF?$AAd?$AA?$CJ?$AA?$AN?$AA?6?$AA?$AA@|
  00080		 |$LN20@I2C_Seek|
  00080	00000000	 DCD         |dpCurSettings|
  00084		 |$M39922|

			 ENDP  ; |?I2C_Seek@@YAHKJG@Z|, I2C_Seek

	EXPORT	|?I2C_IOControl@@YAHKKPAEK0KPAK@Z|	; I2C_IOControl
	EXPORT	|??_C@_1DE@OALDHHDG@?$AA?9?$AAI?$AA2?$AAC?$AA_?$AAI?$AAO?$AAC?$AAo?$AAn?$AAt?$AAr?$AAo?$AAl?$AA?$CI?$AAr?$AAc?$AA?5?$AA?$DN?$AA?5?$AA?$CF?$AAd?$AA?$CJ?$AA?$AN?$AA?6?$AA?$AA@| [ DATA ] ; `string'
	EXPORT	|??_C@_1GI@NHDPFLFB@?$AAE?$AAR?$AAR?$AAO?$AAR?$AA?3?$AA?5?$AAI?$AA2?$AAC?$AA_?$AAI?$AAO?$AAC?$AAo?$AAn?$AAt?$AAr?$AAo?$AAl?$AA?3?$AA?5?$AAI?$AAn?$AAc?$AAo?$AAr?$AAr?$AAe?$AAc?$AAt?$AA?5@| [ DATA ] ; `string'
	EXPORT	|??_C@_1IC@CBOLJLFH@?$AA?$CL?$AAI?$AA2?$AAC?$AA_?$AAI?$AAO?$AAC?$AAo?$AAn?$AAt?$AAr?$AAo?$AAl?$AA?$CI?$AA0?$AAx?$AA?$CF?$AA0?$AA8?$AAx?$AA?0?$AA?5?$AA0?$AAx?$AA?$CF?$AA0?$AA8?$AAx?$AA?0?$AA?5?$AA0@| [ DATA ] ; `string'
	IMPORT	|I2CSetSlaveAddress|
	IMPORT	|I2CSetSubAddressMode|
	IMPORT	|I2CSetBaudIndex|

  00000			 AREA	 |.pdata|, PDATA
|$T39951| DCD	|$LN20@I2C_IOCont|
	DCD	0x40004802

  00000			 AREA	 |.rdata|, DATA, READONLY
|??_C@_1DE@OALDHHDG@?$AA?9?$AAI?$AA2?$AAC?$AA_?$AAI?$AAO?$AAC?$AAo?$AAn?$AAt?$AAr?$AAo?$AAl?$AA?$CI?$AAr?$AAc?$AA?5?$AA?$DN?$AA?5?$AA?$CF?$AAd?$AA?$CJ?$AA?$AN?$AA?6?$AA?$AA@| DCB "-"
	DCB	0x0, "I", 0x0, "2", 0x0, "C", 0x0, "_", 0x0, "I", 0x0, "O"
	DCB	0x0, "C", 0x0, "o", 0x0, "n", 0x0, "t", 0x0, "r", 0x0, "o"
	DCB	0x0, "l", 0x0, "(", 0x0, "r", 0x0, "c", 0x0, " ", 0x0, "="
	DCB	0x0, " ", 0x0, "%", 0x0, "d", 0x0, ")", 0x0, 0xd, 0x0, 0xa
	DCB	0x0, 0x0, 0x0				; `string'

  00000			 AREA	 |.rdata|, DATA, READONLY
|??_C@_1GI@NHDPFLFB@?$AAE?$AAR?$AAR?$AAO?$AAR?$AA?3?$AA?5?$AAI?$AA2?$AAC?$AA_?$AAI?$AAO?$AAC?$AAo?$AAn?$AAt?$AAr?$AAo?$AAl?$AA?3?$AA?5?$AAI?$AAn?$AAc?$AAo?$AAr?$AAr?$AAe?$AAc?$AAt?$AA?5@| DCB "E"
	DCB	0x0, "R", 0x0, "R", 0x0, "O", 0x0, "R", 0x0, ":", 0x0, " "
	DCB	0x0, "I", 0x0, "2", 0x0, "C", 0x0, "_", 0x0, "I", 0x0, "O"
	DCB	0x0, "C", 0x0, "o", 0x0, "n", 0x0, "t", 0x0, "r", 0x0, "o"
	DCB	0x0, "l", 0x0, ":", 0x0, " ", 0x0, "I", 0x0, "n", 0x0, "c"
	DCB	0x0, "o", 0x0, "r", 0x0, "r", 0x0, "e", 0x0, "c", 0x0, "t"
	DCB	0x0, " ", 0x0, "c", 0x0, "o", 0x0, "n", 0x0, "t", 0x0, "e"
	DCB	0x0, "x", 0x0, "t", 0x0, " ", 0x0, "p", 0x0, "a", 0x0, "r"
	DCB	0x0, "a", 0x0, "m", 0x0, "e", 0x0, "t", 0x0, "e", 0x0, "r"
	DCB	0x0, 0xd, 0x0, 0xa, 0x0, 0x0, 0x0	; `string'

  00000			 AREA	 |.rdata|, DATA, READONLY
|??_C@_1IC@CBOLJLFH@?$AA?$CL?$AAI?$AA2?$AAC?$AA_?$AAI?$AAO?$AAC?$AAo?$AAn?$AAt?$AAr?$AAo?$AAl?$AA?$CI?$AA0?$AAx?$AA?$CF?$AA0?$AA8?$AAx?$AA?0?$AA?5?$AA0?$AAx?$AA?$CF?$AA0?$AA8?$AAx?$AA?0?$AA?5?$AA0@| DCB "+"
	DCB	0x0, "I", 0x0, "2", 0x0, "C", 0x0, "_", 0x0, "I", 0x0, "O"
	DCB	0x0, "C", 0x0, "o", 0x0, "n", 0x0, "t", 0x0, "r", 0x0, "o"
	DCB	0x0, "l", 0x0, "(", 0x0, "0", 0x0, "x", 0x0, "%", 0x0, "0"
	DCB	0x0, "8", 0x0, "x", 0x0, ",", 0x0, " ", 0x0, "0", 0x0, "x"
	DCB	0x0, "%", 0x0, "0", 0x0, "8", 0x0, "x", 0x0, ",", 0x0, " "
	DCB	0x0, "0", 0x0, "x", 0x0, "%", 0x0, "0", 0x0, "8", 0x0, "x"
	DCB	0x0, ",", 0x0, " ", 0x0, "%", 0x0, "d", 0x0, ",", 0x0, " "
	DCB	0x0, "0", 0x0, "x", 0x0, "%", 0x0, "0", 0x0, "8", 0x0, "x"
	DCB	0x0, ",", 0x0, " ", 0x0, "%", 0x0, "d", 0x0, ",", 0x0, " "
	DCB	0x0, "0", 0x0, "x", 0x0, "%", 0x0, "0", 0x0, "8", 0x0, "x"
	DCB	0x0, ")", 0x0, 0xd, 0x0, 0xa, 0x0, 0x0, 0x0 ; `string'
; Function compile flags: /Ogspy

  00000			 AREA	 |.text|, CODE, ARM

  00000		 |?I2C_IOControl@@YAHKKPAEK0KPAK@Z| PROC ; I2C_IOControl

; 437  : {

  00000		 |$LN20@I2C_IOCont|
  00000	e92d47f0	 stmdb       sp!, {r4 - r10, lr}
  00004	e24dd010	 sub         sp, sp, #0x10
  00008		 |$M39948|
  00008	e1a0a003	 mov         r10, r3
  0000c	e1a07002	 mov         r7, r2
  00010	e1a08001	 mov         r8, r1
  00014	e1a06000	 mov         r6, r0

; 438  :     RETAILMSG(ZONE_FUNCTION, (
; 439  :         L"+I2C_IOControl(0x%08x, 0x%08x, 0x%08x, %d, 0x%08x, %d, 0x%08x)\r\n",
; 440  :         context, code, pInBuffer, inSize, pOutBuffer, outSize, pOutSize
; 441  :         ));

  00018	e59f90fc	 ldr         r9, [pc, #0xFC]
  0001c	e599e440	 ldr         lr, [r9, #0x440]
  00020	e31e0004	 tst         lr, #4
  00024	0a00000b	 beq         |$LN11@I2C_IOCont|
  00028	e59de038	 ldr         lr, [sp, #0x38]
  0002c	e59d4034	 ldr         r4, [sp, #0x34]
  00030	e59d5030	 ldr         r5, [sp, #0x30]
  00034	e59f00dc	 ldr         r0, [pc, #0xDC]
  00038	e1a03007	 mov         r3, r7
  0003c	e1a02008	 mov         r2, r8
  00040	e1a01006	 mov         r1, r6
  00044	e58de00c	 str         lr, [sp, #0xC]
  00048	e58d4008	 str         r4, [sp, #8]
  0004c	e58d5004	 str         r5, [sp, #4]
  00050	e58da000	 str         r10, [sp]
  00054	eb000000	 bl          NKDbgPrintfW
  00058		 |$LN11@I2C_IOCont|

; 442  : 
; 443  :     BOOL rc = FALSE;

  00058	e3a04000	 mov         r4, #0

; 444  :     Instance_t *pInstance = (Instance_t*)context;
; 445  : 
; 446  : 	UNREFERENCED_PARAMETER(inSize);
; 447  : 	UNREFERENCED_PARAMETER(pOutBuffer);
; 448  : 	UNREFERENCED_PARAMETER(outSize);
; 449  : 	UNREFERENCED_PARAMETER(pOutSize);
; 450  : 
; 451  :     // Check if we get correct context
; 452  :     if ((pInstance == NULL) || (pInstance->cookie != I2C_INSTANCE_COOKIE))

  0005c	e3560000	 cmp         r6, #0
  00060	0a00001c	 beq         |$LN7@I2C_IOCont|
  00064	e5962000	 ldr         r2, [r6]
  00068	e59f30a4	 ldr         r3, [pc, #0xA4]
  0006c	e1520003	 cmp         r2, r3
  00070	1a000018	 bne         |$LN7@I2C_IOCont|
  00074	e3a03822	 mov         r3, #0x22, 16

; 457  :         goto cleanUp;
; 458  :         }
; 459  : 
; 460  :     switch (code)

  00078	e3833b02	 orr         r3, r3, #2, 22
  0007c	e1580003	 cmp         r8, r3
  00080	0a00000f	 beq         |$LN3@I2C_IOCont|
  00084	e59f3084	 ldr         r3, [pc, #0x84]
  00088	e1580003	 cmp         r8, r3
  0008c	0a000007	 beq         |$LN2@I2C_IOCont|
  00090	e59f3074	 ldr         r3, [pc, #0x74]
  00094	e1580003	 cmp         r8, r3
  00098	1a000010	 bne         |$cleanUp$39698|

; 469  :             rc = TRUE;
; 470  :             break;
; 471  : 
; 472  : 		case IOCTL_I2C_SET_BAUD_INDEX:
; 473  :             I2CSetBaudIndex(pInstance->hI2C, *(DWORD*)pInBuffer);

  0009c	e5971000	 ldr         r1, [r7]
  000a0	e5960008	 ldr         r0, [r6, #8]
  000a4	eb000000	 bl          I2CSetBaudIndex
  000a8	e3a04001	 mov         r4, #1

; 474  :             rc = TRUE;
; 475  :             break;
; 476  :         }
; 477  : 
; 478  : cleanUp:

  000ac	ea00000b	 b           |$cleanUp$39698|
  000b0		 |$LN2@I2C_IOCont|

; 465  :             break;
; 466  : 
; 467  :         case IOCTL_I2C_SET_SUBADDRESS_MODE:
; 468  :             I2CSetSubAddressMode(pInstance->hI2C, *(DWORD*)pInBuffer);

  000b0	e5971000	 ldr         r1, [r7]
  000b4	e5960008	 ldr         r0, [r6, #8]
  000b8	eb000000	 bl          I2CSetSubAddressMode
  000bc	e3a04001	 mov         r4, #1

; 474  :             rc = TRUE;
; 475  :             break;
; 476  :         }
; 477  : 
; 478  : cleanUp:

  000c0	ea000006	 b           |$cleanUp$39698|
  000c4		 |$LN3@I2C_IOCont|

; 461  :         {
; 462  :         case IOCTL_I2C_SET_SLAVE_ADDRESS:
; 463  :             I2CSetSlaveAddress(pInstance->hI2C, *(UINT16*)pInBuffer);

  000c4	e1d710b0	 ldrh        r1, [r7]
  000c8	e5960008	 ldr         r0, [r6, #8]
  000cc	eb000000	 bl          I2CSetSlaveAddress

; 464  :             rc = TRUE;

  000d0	e3a04001	 mov         r4, #1

; 474  :             rc = TRUE;
; 475  :             break;
; 476  :         }
; 477  : 
; 478  : cleanUp:

  000d4	ea000001	 b           |$cleanUp$39698|
  000d8		 |$LN7@I2C_IOCont|

; 453  :         {
; 454  :         RETAILMSG(ZONE_ERROR, (L"ERROR: I2C_IOControl: "
; 455  :             L"Incorrect context parameter\r\n"
; 456  :             ));

  000d8	e59f0028	 ldr         r0, [pc, #0x28]
  000dc	eb000000	 bl          NKDbgPrintfW
  000e0		 |$cleanUp$39698|
  000e0	e5993440	 ldr         r3, [r9, #0x440]

; 479  : 
; 480  :     RETAILMSG(ZONE_FUNCTION, (L"-I2C_IOControl(rc = %d)\r\n", rc));

  000e4	e3130004	 tst         r3, #4
  000e8	159f0014	 ldrne       r0, [pc, #0x14]
  000ec	11a01004	 movne       r1, r4
  000f0	1b000000	 blne        NKDbgPrintfW

; 481  :     return rc;
; 482  : }

  000f4	e1a00004	 mov         r0, r4
  000f8	e28dd010	 add         sp, sp, #0x10
  000fc	e8bd47f0	 ldmia       sp!, {r4 - r10, lr}
  00100	e12fff1e	 bx          lr
  00104		 |$LN21@I2C_IOCont|
  00104		 |$LN22@I2C_IOCont|
  00104	00000000	 DCD         |??_C@_1DE@OALDHHDG@?$AA?9?$AAI?$AA2?$AAC?$AA_?$AAI?$AAO?$AAC?$AAo?$AAn?$AAt?$AAr?$AAo?$AAl?$AA?$CI?$AAr?$AAc?$AA?5?$AA?$DN?$AA?5?$AA?$CF?$AAd?$AA?$CJ?$AA?$AN?$AA?6?$AA?$AA@|
  00108		 |$LN23@I2C_IOCont|
  00108	00000000	 DCD         |??_C@_1GI@NHDPFLFB@?$AAE?$AAR?$AAR?$AAO?$AAR?$AA?3?$AA?5?$AAI?$AA2?$AAC?$AA_?$AAI?$AAO?$AAC?$AAo?$AAn?$AAt?$AAr?$AAo?$AAl?$AA?3?$AA?5?$AAI?$AAn?$AAc?$AAo?$AAr?$AAr?$AAe?$AAc?$AAt?$AA?5@|
  0010c		 |$LN24@I2C_IOCont|
  0010c	00220808	 DCD         0x220808
  00110		 |$LN25@I2C_IOCont|
  00110	00220804	 DCD         0x220804
  00114		 |$LN26@I2C_IOCont|
  00114	69326349	 DCD         0x69326349
  00118		 |$LN27@I2C_IOCont|
  00118	00000000	 DCD         |??_C@_1IC@CBOLJLFH@?$AA?$CL?$AAI?$AA2?$AAC?$AA_?$AAI?$AAO?$AAC?$AAo?$AAn?$AAt?$AAr?$AAo?$AAl?$AA?$CI?$AA0?$AAx?$AA?$CF?$AA0?$AA8?$AAx?$AA?0?$AA?5?$AA0?$AAx?$AA?$CF?$AA0?$AA8?$AAx?$AA?0?$AA?5?$AA0@|
  0011c		 |$LN28@I2C_IOCont|
  0011c	00000000	 DCD         |dpCurSettings|
  00120		 |$M39949|

			 ENDP  ; |?I2C_IOControl@@YAHKKPAEK0KPAK@Z|, I2C_IOControl

	EXPORT	|DllMain|
	IMPORT	|DisableThreadLibraryCalls|
	IMPORT	|RegisterDbgZones|

  00000			 AREA	 |.pdata|, PDATA
|$T39970| DCD	|$LN8@DllMain|
	DCD	0x40000c01
; Function compile flags: /Ogspy

  00000			 AREA	 |.text|, CODE, ARM

  00000		 |DllMain| PROC

; 491  : {

  00000		 |$LN8@DllMain|
  00000	e92d4010	 stmdb       sp!, {r4, lr}
  00004		 |$M39967|
  00004	e1a04000	 mov         r4, r0

; 492  : 	UNREFERENCED_PARAMETER(Reserved);
; 493  : 
; 494  :     switch(Reason) 

  00008	e3510001	 cmp         r1, #1
  0000c	1a000003	 bne         |$LN2@DllMain|

; 495  :         {
; 496  :         case DLL_PROCESS_ATTACH:
; 497  :             RETAILREGISTERZONES((HMODULE)hDLL);

  00010	e59f1014	 ldr         r1, [pc, #0x14]
  00014	eb000000	 bl          RegisterDbgZones

; 498  :             DisableThreadLibraryCalls((HMODULE)hDLL);

  00018	e1a00004	 mov         r0, r4
  0001c	eb000000	 bl          DisableThreadLibraryCalls
  00020		 |$LN2@DllMain|

; 499  :             break;
; 500  :         }
; 501  :     return TRUE;

  00020	e3a00001	 mov         r0, #1

; 502  : }

  00024	e8bd4010	 ldmia       sp!, {r4, lr}
  00028	e12fff1e	 bx          lr
  0002c		 |$LN9@DllMain|
  0002c		 |$LN10@DllMain|
  0002c	00000000	 DCD         |dpCurSettings|
  00030		 |$M39968|

			 ENDP  ; |DllMain|

	EXPORT	|?I2C_Init@@YAKPBGPBX@Z|		; I2C_Init
	EXPORT	|??_C@_1CI@BNHLAHFB@?$AA?9?$AAI?$AA2?$AAC?$AA_?$AAI?$AAn?$AAi?$AAt?$AA?$CI?$AAr?$AAc?$AA?5?$AA?$DN?$AA?5?$AA?$CF?$AAd?$AA?$AN?$AA?6?$AA?$AA@| [ DATA ] ; `string'
	EXPORT	|??_C@_1GM@LOCCFLOH@?$AAE?$AAR?$AAR?$AAO?$AAR?$AA?3?$AA?5?$AAI?$AA2?$AAC?$AA_?$AAI?$AAn?$AAi?$AAt?$AA?3?$AA?5?$AAF?$AAa?$AAi?$AAl?$AAe?$AAd?$AA?5?$AAo?$AAp?$AAe?$AAn?$AA?5?$AAp?$AAa?$AAr@| [ DATA ] ; `string'
	EXPORT	|??_C@_1M@IMFGGFBL@?$AAB?$AAU?$AAS?$AA1?$AA?3?$AA?$AA@| [ DATA ] ; `string'
	EXPORT	|??_C@_1HE@CDNEMKPL@?$AAE?$AAR?$AAR?$AAO?$AAR?$AA?3?$AA?5?$AAI?$AA2?$AAC?$AA_?$AAI?$AAn?$AAi?$AAt?$AA?3?$AA?5?$AAF?$AAa?$AAi?$AAl?$AAe?$AAd?$AA?5?$AAa?$AAl?$AAl?$AAo?$AAc?$AAa?$AAt?$AAe@| [ DATA ] ; `string'
	IMPORT	|SOCGetI2CDeviceByBus|
	IMPORT	|CreateFileW|
	IMPORT	|GetDeviceRegistryParams|
	IMPORT	|InitializeCriticalSection|
	IMPORT	|memset|

  00000			 AREA	 |.pdata|, PDATA
|$T39992| DCD	|$LN19@I2C_Init|
	DCD	0x40004302

  00000			 AREA	 |.rdata|, DATA, READONLY
|??_C@_1CI@BNHLAHFB@?$AA?9?$AAI?$AA2?$AAC?$AA_?$AAI?$AAn?$AAi?$AAt?$AA?$CI?$AAr?$AAc?$AA?5?$AA?$DN?$AA?5?$AA?$CF?$AAd?$AA?$AN?$AA?6?$AA?$AA@| DCB "-"
	DCB	0x0, "I", 0x0, "2", 0x0, "C", 0x0, "_", 0x0, "I", 0x0, "n"
	DCB	0x0, "i", 0x0, "t", 0x0, "(", 0x0, "r", 0x0, "c", 0x0, " "
	DCB	0x0, "=", 0x0, " ", 0x0, "%", 0x0, "d", 0x0, 0xd, 0x0, 0xa
	DCB	0x0, 0x0, 0x0				; `string'

  00000			 AREA	 |.rdata|, DATA, READONLY
|??_C@_1GM@LOCCFLOH@?$AAE?$AAR?$AAR?$AAO?$AAR?$AA?3?$AA?5?$AAI?$AA2?$AAC?$AA_?$AAI?$AAn?$AAi?$AAt?$AA?3?$AA?5?$AAF?$AAa?$AAi?$AAl?$AAe?$AAd?$AA?5?$AAo?$AAp?$AAe?$AAn?$AA?5?$AAp?$AAa?$AAr@| DCB "E"
	DCB	0x0, "R", 0x0, "R", 0x0, "O", 0x0, "R", 0x0, ":", 0x0, " "
	DCB	0x0, "I", 0x0, "2", 0x0, "C", 0x0, "_", 0x0, "I", 0x0, "n"
	DCB	0x0, "i", 0x0, "t", 0x0, ":", 0x0, " ", 0x0, "F", 0x0, "a"
	DCB	0x0, "i", 0x0, "l", 0x0, "e", 0x0, "d", 0x0, " ", 0x0, "o"
	DCB	0x0, "p", 0x0, "e", 0x0, "n", 0x0, " ", 0x0, "p", 0x0, "a"
	DCB	0x0, "r", 0x0, "e", 0x0, "n", 0x0, "t", 0x0, " ", 0x0, "b"
	DCB	0x0, "u", 0x0, "s", 0x0, " ", 0x0, "d", 0x0, "e", 0x0, "v"
	DCB	0x0, "i", 0x0, "c", 0x0, "e", 0x0, " ", 0x0, "'", 0x0, "%"
	DCB	0x0, "s", 0x0, "'", 0x0, 0xd, 0x0, 0xa, 0x0, 0x0, 0x0 ; `string'

  00000			 AREA	 |.rdata|, DATA, READONLY
|??_C@_1M@IMFGGFBL@?$AAB?$AAU?$AAS?$AA1?$AA?3?$AA?$AA@| DCB "B", 0x0, "U", 0x0
	DCB	"S", 0x0, "1", 0x0, ":", 0x0, 0x0, 0x0	; `string'

  00000			 AREA	 |.rdata|, DATA, READONLY
|??_C@_1HE@CDNEMKPL@?$AAE?$AAR?$AAR?$AAO?$AAR?$AA?3?$AA?5?$AAI?$AA2?$AAC?$AA_?$AAI?$AAn?$AAi?$AAt?$AA?3?$AA?5?$AAF?$AAa?$AAi?$AAl?$AAe?$AAd?$AA?5?$AAa?$AAl?$AAl?$AAo?$AAc?$AAa?$AAt?$AAe@| DCB "E"
	DCB	0x0, "R", 0x0, "R", 0x0, "O", 0x0, "R", 0x0, ":", 0x0, " "
	DCB	0x0, "I", 0x0, "2", 0x0, "C", 0x0, "_", 0x0, "I", 0x0, "n"
	DCB	0x0, "i", 0x0, "t", 0x0, ":", 0x0, " ", 0x0, "F", 0x0, "a"
	DCB	0x0, "i", 0x0, "l", 0x0, "e", 0x0, "d", 0x0, " ", 0x0, "a"
	DCB	0x0, "l", 0x0, "l", 0x0, "o", 0x0, "c", 0x0, "a", 0x0, "t"
	DCB	0x0, "e", 0x0, " ", 0x0, "P", 0x0, "r", 0x0, "o", 0x0, "x"
	DCB	0x0, "y", 0x0, " ", 0x0, "d", 0x0, "r", 0x0, "i", 0x0, "v"
	DCB	0x0, "e", 0x0, "r", 0x0, " ", 0x0, "s", 0x0, "t", 0x0, "r"
	DCB	0x0, "u", 0x0, "c", 0x0, "t", 0x0, "u", 0x0, "r", 0x0, "e"
	DCB	0x0, 0xd, 0x0, 0xa, 0x0, 0x0, 0x0	; `string'
; Function compile flags: /Ogspy

  00000			 AREA	 |.text|, CODE, ARM

  00000		 |?I2C_Init@@YAKPBGPBX@Z| PROC		; I2C_Init

; 108  : {

  00000		 |$LN19@I2C_Init|
  00000	e92d4070	 stmdb       sp!, {r4 - r6, lr}
  00004	e24dd00c	 sub         sp, sp, #0xC
  00008		 |$M39989|
  00008	e1a06000	 mov         r6, r0

; 109  :     DWORD rc = (DWORD)NULL;
; 110  :     Device_t *pDevice;
; 111  : 
; 112  : 	UNREFERENCED_PARAMETER(pBusContext);
; 113  : 
; 114  :     // Create device structure
; 115  :     pDevice = (Device_t *)LocalAlloc(LPTR, sizeof(Device_t));

  0000c	e3a01024	 mov         r1, #0x24
  00010	e3a00040	 mov         r0, #0x40
  00014	e3a05000	 mov         r5, #0
  00018	eb000000	 bl          LocalAlloc
  0001c	e1b04000	 movs        r4, r0

; 116  :     if (pDevice == NULL)

  00020	1a00000d	 bne         |$LN7@I2C_Init|

; 117  :         {
; 118  :         RETAILMSG(ZONE_ERROR, (L"ERROR: I2C_Init: "
; 119  :             L"Failed allocate Proxy driver structure\r\n"
; 120  :             ));

  00024	e59f00dc	 ldr         r0, [pc, #0xDC]
  00028	eb000000	 bl          NKDbgPrintfW
  0002c		 |$LN16@I2C_Init|

; 163  :     if (rc == 0) I2C_Deinit((DWORD)pDevice);

  0002c	e1a00004	 mov         r0, r4
  00030	eb000000	 bl          |?I2C_Deinit@@YAHK@Z|
  00034		 |$LN1@I2C_Init|

; 164  : 
; 165  :     RETAILMSG(ZONE_FUNCTION, (L"-I2C_Init(rc = %d\r\n", rc));

  00034	e59f30c8	 ldr         r3, [pc, #0xC8]
  00038	e5933440	 ldr         r3, [r3, #0x440]
  0003c	e3130004	 tst         r3, #4
  00040	159f00b8	 ldrne       r0, [pc, #0xB8]
  00044	11a01005	 movne       r1, r5
  00048	1b000000	 blne        NKDbgPrintfW

; 166  :     return rc;
; 167  : }

  0004c	e1a00005	 mov         r0, r5
  00050	e28dd00c	 add         sp, sp, #0xC
  00054	e8bd4070	 ldmia       sp!, {r4 - r6, lr}
  00058	e12fff1e	 bx          lr
  0005c		 |$LN7@I2C_Init|

; 121  : 
; 122  :         goto cleanUp;
; 123  :         }
; 124  : 
; 125  :     memset(pDevice, 0, sizeof(Device_t));

  0005c	e3a02024	 mov         r2, #0x24
  00060	e3a01000	 mov         r1, #0
  00064	e1a00004	 mov         r0, r4
  00068	eb000000	 bl          memset

; 126  :     
; 127  :     // Set cookie
; 128  :     pDevice->cookie = I2C_DEVICE_COOKIE;

  0006c	e59f3088	 ldr         r3, [pc, #0x88]

; 129  : 
; 130  :     // Initialize critical sections
; 131  :     InitializeCriticalSection(&pDevice->cs);

  00070	e1a00004	 mov         r0, r4
  00074	e4803004	 str         r3, [r0], #4
  00078	eb000000	 bl          InitializeCriticalSection

; 132  : 
; 133  :     // Read device parameters
; 134  :     if (GetDeviceRegistryParams(
; 135  :             szContext, pDevice, dimof(s_deviceRegParams), s_deviceRegParams
; 136  :             ) != ERROR_SUCCESS)

  0007c	e59f3074	 ldr         r3, [pc, #0x74]
  00080	e3a02001	 mov         r2, #1
  00084	e1a01004	 mov         r1, r4
  00088	e1a00006	 mov         r0, r6
  0008c	eb000000	 bl          GetDeviceRegistryParams
  00090	e3500000	 cmp         r0, #0
  00094	1affffe4	 bne         |$LN16@I2C_Init|

; 137  :         {
; 138  :         DEBUGMSG(ZONE_ERROR, (L"ERROR: I2C_Init: "
; 139  :             L"Failed read I2C Proxy driver registry parameters\r\n"
; 140  :             ));
; 141  :         goto cleanUp;
; 142  :         }
; 143  : 
; 144  :     // get handle to rootbus for notification to dvfs policy
; 145  :     // Open clock device
; 146  :     pDevice->hParent = CreateFile(L"BUS1:", 0, 0, NULL, 0, 0, NULL);

  00098	e59f0050	 ldr         r0, [pc, #0x50]
  0009c	e3a06000	 mov         r6, #0
  000a0	e3a03000	 mov         r3, #0
  000a4	e3a02000	 mov         r2, #0
  000a8	e3a01000	 mov         r1, #0
  000ac	e58d6008	 str         r6, [sp, #8]
  000b0	e58d6004	 str         r6, [sp, #4]
  000b4	e58d6000	 str         r6, [sp]
  000b8	eb000000	 bl          CreateFileW
  000bc	e584001c	 str         r0, [r4, #0x1C]

; 147  :     if (pDevice->hParent == INVALID_HANDLE_VALUE)

  000c0	e3700001	 cmn         r0, #1
  000c4	1a000004	 bne         |$LN3@I2C_Init|

; 148  :     {
; 149  :         RETAILMSG(ZONE_ERROR, (L"ERROR: I2C_Init: "
; 150  :             L"Failed open parent bus device '%s'\r\n", L"BUS1:"
; 151  :             ));

  000c8	e59f0024	 ldr         r0, [pc, #0x24]
  000cc	e59f101c	 ldr         r1, [pc, #0x1C]
  000d0	eb000000	 bl          NKDbgPrintfW

; 152  :         pDevice->hParent = NULL;

  000d4	e584601c	 str         r6, [r4, #0x1C]

; 161  : 
; 162  : cleanUp:

  000d8	eaffffd3	 b           |$LN16@I2C_Init|
  000dc		 |$LN3@I2C_Init|

; 153  :         goto cleanUp;
; 154  :     }
; 155  : 
; 156  : 	pDevice->devId = SOCGetI2CDeviceByBus(pDevice->index);

  000dc	e5940020	 ldr         r0, [r4, #0x20]
  000e0	eb000000	 bl          SOCGetI2CDeviceByBus
  000e4	e5840018	 str         r0, [r4, #0x18]

; 157  : 
; 158  : 
; 159  :     // Return non-null value
; 160  :     rc = (DWORD)pDevice;

  000e8	e1a05004	 mov         r5, r4
  000ec		 |$cleanUp$39573|

; 163  :     if (rc == 0) I2C_Deinit((DWORD)pDevice);

  000ec	eaffffd0	 b           |$LN1@I2C_Init|
  000f0		 |$LN20@I2C_Init|
  000f0		 |$LN21@I2C_Init|
  000f0	00000000	 DCD         |??_C@_1M@IMFGGFBL@?$AAB?$AAU?$AAS?$AA1?$AA?3?$AA?$AA@|
  000f4		 |$LN22@I2C_Init|
  000f4	00000000	 DCD         |??_C@_1GM@LOCCFLOH@?$AAE?$AAR?$AAR?$AAO?$AAR?$AA?3?$AA?5?$AAI?$AA2?$AAC?$AA_?$AAI?$AAn?$AAi?$AAt?$AA?3?$AA?5?$AAF?$AAa?$AAi?$AAl?$AAe?$AAd?$AA?5?$AAo?$AAp?$AAe?$AAn?$AA?5?$AAp?$AAa?$AAr@|
  000f8		 |$LN23@I2C_Init|
  000f8	00000000	 DCD         |s_deviceRegParams|
  000fc		 |$LN24@I2C_Init|
  000fc	69326344	 DCD         0x69326344
  00100		 |$LN25@I2C_Init|
  00100	00000000	 DCD         |??_C@_1CI@BNHLAHFB@?$AA?9?$AAI?$AA2?$AAC?$AA_?$AAI?$AAn?$AAi?$AAt?$AA?$CI?$AAr?$AAc?$AA?5?$AA?$DN?$AA?5?$AA?$CF?$AAd?$AA?$AN?$AA?6?$AA?$AA@|
  00104		 |$LN26@I2C_Init|
  00104	00000000	 DCD         |dpCurSettings|
  00108		 |$LN27@I2C_Init|
  00108	00000000	 DCD         |??_C@_1HE@CDNEMKPL@?$AAE?$AAR?$AAR?$AAO?$AAR?$AA?3?$AA?5?$AAI?$AA2?$AAC?$AA_?$AAI?$AAn?$AAi?$AAt?$AA?3?$AA?5?$AAF?$AAa?$AAi?$AAl?$AAe?$AAd?$AA?5?$AAa?$AAl?$AAl?$AAo?$AAc?$AAa?$AAt?$AAe@|
  0010c		 |$M39990|

			 ENDP  ; |?I2C_Init@@YAKPBGPBX@Z|, I2C_Init

	END
