; Listing generated by Microsoft (R) Optimizing Compiler Version 14.01.60511.01 

	TTL	C:\WINCE600\PLATFORM\Z2170P\SRC\OAL\OALLIB\ioctl.c
	CODE32

  00000			 AREA	 |.drectve|, DRECTVE
	DCB	"-defaultlib:LIBCMT "
	DCB	"-defaultlib:OLDNAMES "

	EXPORT	|OALIoCtlHalDumpRegisters|
	EXPORT	|OALIoCtlHalGetBspVersion|
	EXPORT	|BSPIoCtlHalInitRegistry|
	EXPORT	|??_C@_1BE@BGENOPMG@?$AAC?$AAo?$AAr?$AAt?$AAe?$AAx?$AA?9?$AAA?$AA8?$AA?$AA@| [ DATA ] ; `string'
	EXPORT	|??_C@_1BC@CPMDPFBC@?$AAO?$AAM?$AAA?$AAP?$AA3?$AA5?$AA3?$AA0?$AA?$AA@| [ DATA ] ; `string'
	EXPORT	|??_C@_1BK@BOKKCMKO@?$AAE?$AAV?$AAM?$AA?5?$AAO?$AAM?$AAA?$AAP?$AA3?$AA5?$AAx?$AAx?$AA?$AA@| [ DATA ] ; `string'
	EXPORT	|??_C@_1CE@GIKKEBKH@?$AAT?$AAe?$AAx?$AAa?$AAs?$AA?5?$AAI?$AAn?$AAs?$AAt?$AAr?$AAu?$AAm?$AAe?$AAn?$AAt?$AAs?$AA?$AA@| [ DATA ] ; `string'
	EXPORT	|??_C@_1BC@BEPMHPGP@?$AAO?$AAM?$AAA?$AAP?$AA3?$AA5?$AAx?$AAx?$AA?$AA@| [ DATA ] ; `string'
	EXPORT	|g_oalIoCtlPlatformType| [ DATA ]
	EXPORT	|g_oalIoCtlPlatformOEM| [ DATA ]
	EXPORT	|g_oalIoCtlPlatformManufacturer| [ DATA ]
	EXPORT	|g_oalIoCtlPlatformName| [ DATA ]
	EXPORT	|g_oalIoCtlProcessorVendor| [ DATA ]
	EXPORT	|g_oalIoCtlProcessorName| [ DATA ]
	EXPORT	|g_oalIoCtlProcessorCore| [ DATA ]
	EXPORT	|g_oalIoCtlInstructionSet| [ DATA ]
	EXPORT	|g_oalIoCtlClockSpeed| [ DATA ]
	EXPORT	|g_oalIoCtlTable| [ DATA ]
	IMPORT	|OALIoCtlIgnore|
	IMPORT	|OALIoCtlPrcmSetSuspendState|
	IMPORT	|OALIoCtlInterruptLatencyConstraint|
	IMPORT	|OALIoCtlUpdateRetentionVoltages|
	IMPORT	|OALIoCtlSmartReflexControl|
	IMPORT	|OALIoCtlOppRequest|
	IMPORT	|OALIoCtlPrcmDomainSetPowerState|
	IMPORT	|OALIoCtlPrcmDomainSetSleepDependency|
	IMPORT	|OALIoCtlPrcmDomainSetWakeupDependency|
	IMPORT	|OALIoCtlPrcmClockSetDpllState|
	IMPORT	|OALIoCtlPrcmClockSetSourceClockDivisor|
	IMPORT	|OALIoCtlPrcmClockSetSourceClock|
	IMPORT	|OALIoCtlPrcmClockGetSourceClockInfo|
	IMPORT	|OALIoCtlPrcmDeviceGetDeviceStatus|
	IMPORT	|OALIoCtlPrcmDeviceGetSourceClockInfo|
	IMPORT	|OALIoCtlPrcmDeviceGetDeviceManagementTable|
	IMPORT	|OALIoCtlHalContextSaveGetBuffer|
	IMPORT	|OALIoctlHalGetEccType|
	IMPORT	|OALIoctlHalGetNeonStats|
	IMPORT	|OALIoCtlHalPadCfgCopyFnTable|
	IMPORT	|OALIoCtlHalI2CCopyFnTable|
	IMPORT	|OALIoCtlHalI2CMode|
	IMPORT	|OALIoCtlHALProfiler|
	IMPORT	|OALIoCtlHALPostInit|
	IMPORT	|OALIoctlConvertCAtoPA|
	IMPORT	|OALIoctlGetDisplayRes|
	IMPORT	|OALIoCtlHalGetRNdisMacAddr|
	IMPORT	|OALIoCtlHalQueryFormatPartition|
	IMPORT	|OALIoCtlHalGetRegSecureKeys|
	IMPORT	|OALIoCtlHalGetHWEntropy|
	IMPORT	|OALIoCtlHalUpdateMode|
	IMPORT	|OALIoCtlHalGetCpuSpeed|
	IMPORT	|OALIoCtlHalGetCpuRevision|
	IMPORT	|OALIoCtlHalGetCpuFamily|
	IMPORT	|OALIoCtlHalGetDieID|
	IMPORT	|OALIoCtlHalGetCpuID|
	IMPORT	|OALIoCtlProcessorInfo|
	IMPORT	|OALIoCtlHalGetUUID|
	IMPORT	|OALIoCtlHalGetDeviceId|
	IMPORT	|OALIoCtlHalGetDeviceInfo|
	IMPORT	|OALIoCtlHalGetCacheInfo|
	IMPORT	|OALIoCtlHalGetWakeSource|
	IMPORT	|OALIoCtlHalEnableWake|
	IMPORT	|OALIoCtlHalDisableWake|
	IMPORT	|OALIoCtlHalDdkCall|
	IMPORT	|OALIoCtlHalReboot|
	IMPORT	|OALIoCtlHalInitRTC|
	IMPORT	|OALIoCtlHalILTiming|
	IMPORT	|OALIoCtlHalIrq2Sysintr|
	IMPORT	|OALIoCtlHalRequestIrq|
	IMPORT	|OALIoCtlHalReleaseSysIntr|
	IMPORT	|OALIoCtlHalRequestSysIntr|
	IMPORT	|OALIoCtlHalRtcAlarm|
	IMPORT	|OALIoCtlHalRtcTime|

  00000			 AREA	 |.bss|, NOINIT
|g_oalIoCtlClockSpeed| % 0x4

  00000			 AREA	 |.rdata|, DATA, READONLY
|??_C@_1BE@BGENOPMG@?$AAC?$AAo?$AAr?$AAt?$AAe?$AAx?$AA?9?$AAA?$AA8?$AA?$AA@| DCB "C"
	DCB	0x0, "o", 0x0, "r", 0x0, "t", 0x0, "e", 0x0, "x", 0x0, "-"
	DCB	0x0, "A", 0x0, "8", 0x0, 0x0, 0x0	; `string'

  00000			 AREA	 |.rdata|, DATA, READONLY
|??_C@_1BC@CPMDPFBC@?$AAO?$AAM?$AAA?$AAP?$AA3?$AA5?$AA3?$AA0?$AA?$AA@| DCB "O"
	DCB	0x0, "M", 0x0, "A", 0x0, "P", 0x0, "3", 0x0, "5", 0x0, "3"
	DCB	0x0, "0", 0x0, 0x0, 0x0			; `string'

  00000			 AREA	 |.rdata|, DATA, READONLY
|??_C@_1BK@BOKKCMKO@?$AAE?$AAV?$AAM?$AA?5?$AAO?$AAM?$AAA?$AAP?$AA3?$AA5?$AAx?$AAx?$AA?$AA@| DCB "E"
	DCB	0x0, "V", 0x0, "M", 0x0, " ", 0x0, "O", 0x0, "M", 0x0, "A"
	DCB	0x0, "P", 0x0, "3", 0x0, "5", 0x0, "x", 0x0, "x", 0x0, 0x0
	DCB	0x0					; `string'

  00000			 AREA	 |.rdata|, DATA, READONLY
|??_C@_1CE@GIKKEBKH@?$AAT?$AAe?$AAx?$AAa?$AAs?$AA?5?$AAI?$AAn?$AAs?$AAt?$AAr?$AAu?$AAm?$AAe?$AAn?$AAt?$AAs?$AA?$AA@| DCB "T"
	DCB	0x0, "e", 0x0, "x", 0x0, "a", 0x0, "s", 0x0, " ", 0x0, "I"
	DCB	0x0, "n", 0x0, "s", 0x0, "t", 0x0, "r", 0x0, "u", 0x0, "m"
	DCB	0x0, "e", 0x0, "n", 0x0, "t", 0x0, "s", 0x0, 0x0, 0x0 ; `string'

  00000			 AREA	 |.data|, DATA
|g_oalIoCtlPlatformType| DCD |??_C@_1BC@BEPMHPGP@?$AAO?$AAM?$AAA?$AAP?$AA3?$AA5?$AAx?$AAx?$AA?$AA@|
|g_oalIoCtlPlatformOEM| DCD |??_C@_1CE@GIKKEBKH@?$AAT?$AAe?$AAx?$AAa?$AAs?$AA?5?$AAI?$AAn?$AAs?$AAt?$AAr?$AAu?$AAm?$AAe?$AAn?$AAt?$AAs?$AA?$AA@|
|g_oalIoCtlPlatformManufacturer| DCD |??_C@_1CE@GIKKEBKH@?$AAT?$AAe?$AAx?$AAa?$AAs?$AA?5?$AAI?$AAn?$AAs?$AAt?$AAr?$AAu?$AAm?$AAe?$AAn?$AAt?$AAs?$AA?$AA@|
|g_oalIoCtlPlatformName| DCD |??_C@_1BK@BOKKCMKO@?$AAE?$AAV?$AAM?$AA?5?$AAO?$AAM?$AAA?$AAP?$AA3?$AA5?$AAx?$AAx?$AA?$AA@|
|g_oalIoCtlProcessorVendor| DCD |??_C@_1CE@GIKKEBKH@?$AAT?$AAe?$AAx?$AAa?$AAs?$AA?5?$AAI?$AAn?$AAs?$AAt?$AAr?$AAu?$AAm?$AAe?$AAn?$AAt?$AAs?$AA?$AA@|
|g_oalIoCtlProcessorName| DCD |??_C@_1BC@CPMDPFBC@?$AAO?$AAM?$AAA?$AAP?$AA3?$AA5?$AA3?$AA0?$AA?$AA@|
|g_oalIoCtlProcessorCore| DCD |??_C@_1BE@BGENOPMG@?$AAC?$AAo?$AAr?$AAt?$AAe?$AAx?$AA?9?$AAA?$AA8?$AA?$AA@|
|g_oalIoCtlInstructionSet| DCD 0x1

  00000			 AREA	 |.rdata|, DATA, READONLY
|??_C@_1BC@BEPMHPGP@?$AAO?$AAM?$AAA?$AAP?$AA3?$AA5?$AAx?$AAx?$AA?$AA@| DCB "O"
	DCB	0x0, "M", 0x0, "A", 0x0, "P", 0x0, "3", 0x0, "5", 0x0, "x"
	DCB	0x0, "x", 0x0, 0x0, 0x0			; `string'

  00000			 AREA	 |.rdata|, DATA, READONLY
|EdbgVendorIds| DCW 0x0
	DCW	0x0
	DCD	0x4033
	DCB	0x1
	DCB	"AD", 0x0
	DCW	0x1050
	DCW	0x940
	DCD	0x4005
	DCB	0x1
	DCB	"LS", 0x0
	DCW	0x1050
	DCW	0x940
	DCD	0x2078
	DCB	0x1
	DCB	"LS", 0x0
	DCW	0x10ec
	DCW	0x8029
	DCD	0xc0f0
	DCB	0x1
	DCB	"KS", 0x0
	DCW	0x10ec
	DCW	0x8129
	DCD	0x0
	DCB	0x4
	DCB	"RT", 0x0
	DCW	0x10ec
	DCW	0x8139
	DCD	0x900b
	DCB	0x4
	DCB	"RT", 0x0
	DCW	0x10ec
	DCW	0x8139
	DCD	0xd0c9
	DCB	0x4
	DCB	"RT", 0x0
	DCW	0x10ec
	DCW	0x8139
	DCD	0xe04c
	DCB	0x4
	DCB	"RT", 0x0
	DCW	0x1186
	DCW	0x1300
	DCD	0x50ba
	DCB	0x4
	DCB	"DL", 0x0
	DCW	0x100b
	DCW	0x20
	DCD	0xa0cc
	DCB	0x5
	DCB	"NG", 0x0
	DCW	0x10b7
	DCW	0x9050
	DCD	0x6008
	DCB	0x6
	DCB	"3C", 0x0
	DCW	0x10b7
	DCW	0x9200
	DCD	0x476
	DCB	0x6
	DCB	"3C", 0x0
|g_oalIoCtlTable| DCD 0x1011000
	DCD	0x0
	DCD	|OALIoCtlHalRtcTime|
	DCD	0x1011004
	DCD	0x0
	DCD	|OALIoCtlHalRtcAlarm|
	DCD	0x1010048
	DCD	0x0
	DCD	|OALIoCtlHalRequestSysIntr|
	DCD	0x1010098
	DCD	0x0
	DCD	|OALIoCtlHalRequestSysIntr|
	DCD	0x10100d8
	DCD	0x0
	DCD	|OALIoCtlHalReleaseSysIntr|
	DCD	0x1010090
	DCD	0x0
	DCD	|OALIoCtlHalRequestIrq|
	DCD	0x1012000
	DCD	0x0
	DCD	|OALIoCtlHalIrq2Sysintr|
	DCD	0x1010050
	DCD	0x0
	DCD	|OALIoCtlHalILTiming|
	DCD	0x10100b0
	DCD	0x0
	DCD	|BSPIoCtlHalInitRegistry|
	DCD	0x1010038
	DCD	0x0
	DCD	|OALIoCtlHalInitRTC|
	DCD	0x101003c
	DCD	0x0
	DCD	|OALIoCtlHalReboot|
	DCD	0x1010014
	DCD	0x0
	DCD	|OALIoCtlHalDdkCall|
	DCD	0x10100a4
	DCD	0x0
	DCD	|OALIoCtlHalDisableWake|
	DCD	0x10100a0
	DCD	0x0
	DCD	|OALIoCtlHalEnableWake|
	DCD	0x10100a8
	DCD	0x0
	DCD	|OALIoCtlHalGetWakeSource|
	DCD	0x1010108
	DCD	0x0
	DCD	|OALIoCtlHalGetCacheInfo|
	DCD	0x1010004
	DCD	0x0
	DCD	|OALIoCtlHalGetDeviceInfo|
	DCD	0x1010054
	DCD	0x0
	DCD	|OALIoCtlHalGetDeviceId|
	DCD	0x1010034
	DCD	0x0
	DCD	|OALIoCtlHalGetUUID|
	DCD	0x1010064
	DCD	0x0
	DCD	|OALIoCtlProcessorInfo|
	DCD	0x1012004
	DCD	0x0
	DCD	|OALIoCtlHalGetCpuID|
	DCD	0x1012008
	DCD	0x0
	DCD	|OALIoCtlHalGetDieID|
	DCD	0x101200c
	DCD	0x0
	DCD	|OALIoCtlHalGetCpuFamily|
	DCD	0x1012010
	DCD	0x0
	DCD	|OALIoCtlHalGetCpuRevision|
	DCD	0x1013080
	DCD	0x0
	DCD	|OALIoCtlHalGetCpuSpeed|
	DCD	0x1010134
	DCD	0x0
	DCD	|OALIoCtlHalUpdateMode|
	DCD	0x10100f8
	DCD	0x0
	DCD	|OALIoCtlHalGetHWEntropy|
	DCD	0x101008c
	DCD	0x0
	DCD	|OALIoCtlHalGetRegSecureKeys|
	DCD	0x1010118
	DCD	0x0
	DCD	|OALIoCtlHalQueryFormatPartition|
	DCD	0x1010114
	DCD	0x0
	DCD	|OALIoCtlHalGetRNdisMacAddr|
	DCD	0x1011130
	DCD	0x0
	DCD	|OALIoctlGetDisplayRes|
	DCD	0x1011134
	DCD	0x0
	DCD	|OALIoctlConvertCAtoPA|
	DCD	0x10100b4
	DCD	0x0
	DCD	|OALIoCtlHALPostInit|
	DCD	0x101010c
	DCD	0x0
	DCD	|OALIoCtlHALProfiler|
	DCD	0x1011010
	DCD	0x0
	DCD	|OALIoCtlHalI2CMode|
	DCD	0x1011014
	DCD	0x0
	DCD	|OALIoCtlHalI2CCopyFnTable|
	DCD	0x101101c
	DCD	0x0
	DCD	|OALIoCtlHalPadCfgCopyFnTable|
	DCD	0x1013070
	DCD	0x0
	DCD	|OALIoCtlHalGetBspVersion|
	DCD	0x1013090
	DCD	0x0
	DCD	|OALIoctlHalGetNeonStats|
	DCD	0x1013098
	DCD	0x0
	DCD	|OALIoctlHalGetEccType|
	DCD	0x1f50fd8
	DCD	0x0
	DCD	|OALIoCtlHalContextSaveGetBuffer|
	DCD	0x1f50fa4
	DCD	0x0
	DCD	|OALIoCtlPrcmDeviceGetDeviceManagementTable|
	DCD	0x1f50fb0
	DCD	0x0
	DCD	|OALIoCtlPrcmDeviceGetSourceClockInfo|
	DCD	0x1f50fb4
	DCD	0x0
	DCD	|OALIoCtlPrcmDeviceGetDeviceStatus|
	DCD	0x1f50fac
	DCD	0x0
	DCD	|OALIoCtlPrcmClockGetSourceClockInfo|
	DCD	0x1f50fb8
	DCD	0x0
	DCD	|OALIoCtlPrcmClockSetSourceClock|
	DCD	0x1f50fbc
	DCD	0x0
	DCD	|OALIoCtlPrcmClockSetSourceClockDivisor|
	DCD	0x1f50fc0
	DCD	0x0
	DCD	|OALIoCtlPrcmClockSetDpllState|
	DCD	0x1f50fc4
	DCD	0x0
	DCD	|OALIoCtlPrcmDomainSetWakeupDependency|
	DCD	0x1f50fc8
	DCD	0x0
	DCD	|OALIoCtlPrcmDomainSetSleepDependency|
	DCD	0x1f50fcc
	DCD	0x0
	DCD	|OALIoCtlPrcmDomainSetPowerState|
	DCD	0x1f50fd4
	DCD	0x0
	DCD	|OALIoCtlOppRequest|
	DCD	0x2bd0fa4
	DCD	0x0
	DCD	|OALIoCtlSmartReflexControl|
	DCD	0x2bd0fa8
	DCD	0x0
	DCD	|OALIoCtlUpdateRetentionVoltages|
	DCD	0x2590fa4
	DCD	0x0
	DCD	|OALIoCtlInterruptLatencyConstraint|
	DCD	0x1f50fd0
	DCD	0x0
	DCD	|OALIoCtlPrcmSetSuspendState|
	DCD	0x1010058
	DCD	0x0
	DCD	|OALIoCtlIgnore|
	DCD	0x1013078
	DCD	0x0
	DCD	|OALIoCtlHalDumpRegisters|
	DCD	0x0
	DCD	0x0
	DCD	0x0
; File c:\wince600\platform\z2170p\src\oal\oallib\ioctl.c

  00000			 AREA	 |.pdata|, PDATA
|$T46606| DCD	|$LN6@BSPIoCtlHa|
	DCD	0x40000f02
; Function compile flags: /Ogspy

  00000			 AREA	 |.text|, CODE, ARM

  00000		 |BSPIoCtlHalInitRegistry| PROC

; 76   : {

  00000		 |$LN6@BSPIoCtlHa|
  00000	e52de004	 str         lr, [sp, #-4]!
  00004	e24dd008	 sub         sp, sp, #8
  00008		 |$M46603|

; 77   :     UNREFERENCED_PARAMETER(code);
; 78   :     UNREFERENCED_PARAMETER(pInpBuffer);
; 79   :     UNREFERENCED_PARAMETER(inpSize);
; 80   :     UNREFERENCED_PARAMETER(pOutBuffer);
; 81   :     UNREFERENCED_PARAMETER(outSize);
; 82   :     UNREFERENCED_PARAMETER(pOutSize);
; 83   : 
; 84   :     if (g_oalKitlEnabled == FALSE)
; 85   :     {
; 86   :         // If KITL isn't enabled, ensure that USB and Ethernet drivers are not
; 87   :         // blocked.  This logic prevents a persistent registry from inadvertently blocking
; 88   :         // these drivers when KITL has been removed from an image.
; 89   : #if 0
; 90   :         OEMEthernetDriverEnable(TRUE);
; 91   :         OEMUsbDriverEnable(TRUE);
; 92   : #endif
; 93   :     }
; 94   : 
; 95   :     OALIoCtlHalInitRTC(IOCTL_HAL_INIT_RTC, NULL, 0, NULL, 0, NULL);

  00008	e59f0028	 ldr         r0, [pc, #0x28]
  0000c	e3a0e000	 mov         lr, #0
  00010	e3a03000	 mov         r3, #0
  00014	e3a02000	 mov         r2, #0
  00018	e3a01000	 mov         r1, #0
  0001c	e58de004	 str         lr, [sp, #4]
  00020	e58de000	 str         lr, [sp]
  00024	eb000000	 bl          OALIoCtlHalInitRTC

; 96   : 
; 97   :     return TRUE;

  00028	e3a00001	 mov         r0, #1

; 98   : }

  0002c	e28dd008	 add         sp, sp, #8
  00030	e49de004	 ldr         lr, [sp], #4
  00034	e12fff1e	 bx          lr
  00038		 |$LN7@BSPIoCtlHa|
  00038		 |$LN8@BSPIoCtlHa|
  00038	01010038	 DCD         0x1010038
  0003c		 |$M46604|

			 ENDP  ; |BSPIoCtlHalInitRegistry|

	EXPORT	|??_C@_1EK@JCLHBELH@?$AA?9?$AAO?$AAA?$AAL?$AAI?$AAo?$AAC?$AAt?$AAl?$AAH?$AAa?$AAl?$AAD?$AAu?$AAm?$AAp?$AAR?$AAe?$AAg?$AAi?$AAs?$AAt?$AAe?$AAr?$AAs?$AA?$CI?$AAr?$AAc?$AA?5?$AA?$DN?$AA?5?$AA?$CF@| [ DATA ] ; `string'
	EXPORT	|??_C@_1DI@KDMFLNNO@?$AA?$CL?$AAO?$AAA?$AAL?$AAI?$AAo?$AAC?$AAt?$AAl?$AAH?$AAa?$AAl?$AAD?$AAu?$AAm?$AAp?$AAR?$AAe?$AAg?$AAi?$AAs?$AAt?$AAe?$AAr?$AAs?$AA?$AN?$AA?6?$AA?$AA@| [ DATA ] ; `string'
	IMPORT	|DumpPrcmRegs|
	IMPORT	|NKDbgPrintfW|
	IMPORT	|dpCurSettings|

  00000			 AREA	 |.pdata|, PDATA
|$T46624| DCD	|$LN15@OALIoCtlHa|
	DCD	0x40002201

  00000			 AREA	 |.rdata|, DATA, READONLY
|??_C@_1EK@JCLHBELH@?$AA?9?$AAO?$AAA?$AAL?$AAI?$AAo?$AAC?$AAt?$AAl?$AAH?$AAa?$AAl?$AAD?$AAu?$AAm?$AAp?$AAR?$AAe?$AAg?$AAi?$AAs?$AAt?$AAe?$AAr?$AAs?$AA?$CI?$AAr?$AAc?$AA?5?$AA?$DN?$AA?5?$AA?$CF@| DCB "-"
	DCB	0x0, "O", 0x0, "A", 0x0, "L", 0x0, "I", 0x0, "o", 0x0, "C"
	DCB	0x0, "t", 0x0, "l", 0x0, "H", 0x0, "a", 0x0, "l", 0x0, "D"
	DCB	0x0, "u", 0x0, "m", 0x0, "p", 0x0, "R", 0x0, "e", 0x0, "g"
	DCB	0x0, "i", 0x0, "s", 0x0, "t", 0x0, "e", 0x0, "r", 0x0, "s"
	DCB	0x0, "(", 0x0, "r", 0x0, "c", 0x0, " ", 0x0, "=", 0x0, " "
	DCB	0x0, "%", 0x0, "d", 0x0, ")", 0x0, 0xd, 0x0, 0xa, 0x0, 0x0
	DCB	0x0					; `string'

  00000			 AREA	 |.rdata|, DATA, READONLY
|??_C@_1DI@KDMFLNNO@?$AA?$CL?$AAO?$AAA?$AAL?$AAI?$AAo?$AAC?$AAt?$AAl?$AAH?$AAa?$AAl?$AAD?$AAu?$AAm?$AAp?$AAR?$AAe?$AAg?$AAi?$AAs?$AAt?$AAe?$AAr?$AAs?$AA?$AN?$AA?6?$AA?$AA@| DCB "+"
	DCB	0x0, "O", 0x0, "A", 0x0, "L", 0x0, "I", 0x0, "o", 0x0, "C"
	DCB	0x0, "t", 0x0, "l", 0x0, "H", 0x0, "a", 0x0, "l", 0x0, "D"
	DCB	0x0, "u", 0x0, "m", 0x0, "p", 0x0, "R", 0x0, "e", 0x0, "g"
	DCB	0x0, "i", 0x0, "s", 0x0, "t", 0x0, "e", 0x0, "r", 0x0, "s"
	DCB	0x0, 0xd, 0x0, 0xa, 0x0, 0x0, 0x0	; `string'
; Function compile flags: /Ogspy

  00000			 AREA	 |.text|, CODE, ARM

  00000		 |OALIoCtlHalDumpRegisters| PROC

; 109  : {

  00000		 |$LN15@OALIoCtlHa|
  00000	e92d40f0	 stmdb       sp!, {r4 - r7, lr}
  00004		 |$M46621|
  00004	e1a07002	 mov         r7, r2
  00008	e1a06001	 mov         r6, r1

; 110  :     BOOL rc = TRUE;
; 111  :     
; 112  :     UNREFERENCED_PARAMETER(pOutBuffer);
; 113  :     UNREFERENCED_PARAMETER(outSize);
; 114  :     UNREFERENCED_PARAMETER(pOutSize);
; 115  :     UNREFERENCED_PARAMETER(code);
; 116  : 
; 117  :     OALMSG(OAL_IOCTL&&OAL_FUNC, (L"+OALIoCtlHalDumpRegisters\r\n"));

  0000c	e59f5070	 ldr         r5, [pc, #0x70]
  00010	e3a04001	 mov         r4, #1
  00014	e5950440	 ldr         r0, [r5, #0x440]
  00018	e3100a01	 tst         r0, #1, 20
  0001c	0a000004	 beq         |$LN9@OALIoCtlHa|
  00020	e3100004	 tst         r0, #4
  00024	0a000002	 beq         |$LN9@OALIoCtlHa|
  00028	e59f0050	 ldr         r0, [pc, #0x50]
  0002c	eb000000	 bl          NKDbgPrintfW
  00030	e5950440	 ldr         r0, [r5, #0x440]
  00034		 |$LN9@OALIoCtlHa|

; 118  : 
; 119  :     // Check input parameters
; 120  :     if (pInpBuffer == NULL || inpSize != sizeof(DWORD))

  00034	e3560000	 cmp         r6, #0
  00038	0a000007	 beq         |$cleanUp$46532|
  0003c	e3570004	 cmp         r7, #4
  00040	1a000005	 bne         |$cleanUp$46532|

; 121  :         {
; 122  :         goto cleanUp;
; 123  :         }
; 124  : 
; 125  :     // could use input parameter to select device to dump (not implemented)
; 126  :     switch (*(DWORD *)pInpBuffer)

  00044	e5963000	 ldr         r3, [r6]
  00048	e3530000	 cmp         r3, #0

; 127  : 	{
; 128  :         case IOCTL_HAL_DUMP_REGISTERS_PRCM:
; 129  : 		    DumpPrcmRegs();
; 130  : 			break;
; 131  : 			
; 132  : 		default:
; 133  : 		    rc = FALSE;

  0004c	13a04000	 movne       r4, #0
  00050	1a000001	 bne         |$cleanUp$46532|
  00054	eb000000	 bl          DumpPrcmRegs
  00058	e5950440	 ldr         r0, [r5, #0x440]
  0005c		 |$cleanUp$46532|

; 134  : 	}
; 135  : 
; 136  : cleanUp:
; 137  :     OALMSG(OAL_IOCTL && OAL_FUNC, (
; 138  :         L"-OALIoCtlHalDumpRegisters(rc = %d)\r\n", rc
; 139  :     ));

  0005c	e3100a01	 tst         r0, #1, 20
  00060	13100004	 tstne       r0, #4
  00064	159f0010	 ldrne       r0, [pc, #0x10]
  00068	11a01004	 movne       r1, r4
  0006c	1b000000	 blne        NKDbgPrintfW

; 140  :     return rc;
; 141  : 
; 142  : }

  00070	e1a00004	 mov         r0, r4
  00074	e8bd40f0	 ldmia       sp!, {r4 - r7, lr}
  00078	e12fff1e	 bx          lr
  0007c		 |$LN16@OALIoCtlHa|
  0007c		 |$LN17@OALIoCtlHa|
  0007c	00000000	 DCD         |??_C@_1EK@JCLHBELH@?$AA?9?$AAO?$AAA?$AAL?$AAI?$AAo?$AAC?$AAt?$AAl?$AAH?$AAa?$AAl?$AAD?$AAu?$AAm?$AAp?$AAR?$AAe?$AAg?$AAi?$AAs?$AAt?$AAe?$AAr?$AAs?$AA?$CI?$AAr?$AAc?$AA?5?$AA?$DN?$AA?5?$AA?$CF@|
  00080		 |$LN18@OALIoCtlHa|
  00080	00000000	 DCD         |??_C@_1DI@KDMFLNNO@?$AA?$CL?$AAO?$AAA?$AAL?$AAI?$AAo?$AAC?$AAt?$AAl?$AAH?$AAa?$AAl?$AAD?$AAu?$AAm?$AAp?$AAR?$AAe?$AAg?$AAi?$AAs?$AAt?$AAe?$AAr?$AAs?$AA?$AN?$AA?6?$AA?$AA@|
  00084		 |$LN19@OALIoCtlHa|
  00084	00000000	 DCD         |dpCurSettings|
  00088		 |$M46622|

			 ENDP  ; |OALIoCtlHalDumpRegisters|

	EXPORT	|??_C@_1EK@GKGINFBN@?$AA?9?$AAO?$AAA?$AAL?$AAI?$AAo?$AAC?$AAt?$AAl?$AAH?$AAa?$AAl?$AAG?$AAe?$AAt?$AAB?$AAs?$AAp?$AAV?$AAe?$AAr?$AAs?$AAi?$AAo?$AAn?$AA?$CI?$AAr?$AAc?$AA?5?$AA?$DN?$AA?5?$AA?$CF@| [ DATA ] ; `string'
	EXPORT	|??_C@_1HC@CCPGBKDI@?$AAW?$AAA?$AAR?$AAN?$AA?3?$AA?5?$AAI?$AAO?$AAC?$AAT?$AAL?$AA_?$AAH?$AAA?$AAL?$AA_?$AAG?$AAE?$AAT?$AA_?$AAB?$AAS?$AAP?$AA_?$AAV?$AAE?$AAR?$AAS?$AAI?$AAO?$AAN?$AA_@| [ DATA ] ; `string'
	EXPORT	|??_C@_1DI@NINGCKCM@?$AA?$CL?$AAO?$AAA?$AAL?$AAI?$AAo?$AAC?$AAt?$AAl?$AAH?$AAa?$AAl?$AAG?$AAe?$AAt?$AAB?$AAs?$AAp?$AAV?$AAe?$AAr?$AAs?$AAi?$AAo?$AAn?$AA?$AN?$AA?6?$AA?$AA@| [ DATA ] ; `string'
	IMPORT	|NKSetLastError|

  00000			 AREA	 |.pdata|, PDATA
|$T46646| DCD	|$LN14@OALIoCtlHa@2|
	DCD	0x40002901

  00000			 AREA	 |.rdata|, DATA, READONLY
|??_C@_1EK@GKGINFBN@?$AA?9?$AAO?$AAA?$AAL?$AAI?$AAo?$AAC?$AAt?$AAl?$AAH?$AAa?$AAl?$AAG?$AAe?$AAt?$AAB?$AAs?$AAp?$AAV?$AAe?$AAr?$AAs?$AAi?$AAo?$AAn?$AA?$CI?$AAr?$AAc?$AA?5?$AA?$DN?$AA?5?$AA?$CF@| DCB "-"
	DCB	0x0, "O", 0x0, "A", 0x0, "L", 0x0, "I", 0x0, "o", 0x0, "C"
	DCB	0x0, "t", 0x0, "l", 0x0, "H", 0x0, "a", 0x0, "l", 0x0, "G"
	DCB	0x0, "e", 0x0, "t", 0x0, "B", 0x0, "s", 0x0, "p", 0x0, "V"
	DCB	0x0, "e", 0x0, "r", 0x0, "s", 0x0, "i", 0x0, "o", 0x0, "n"
	DCB	0x0, "(", 0x0, "r", 0x0, "c", 0x0, " ", 0x0, "=", 0x0, " "
	DCB	0x0, "%", 0x0, "d", 0x0, ")", 0x0, 0xd, 0x0, 0xa, 0x0, 0x0
	DCB	0x0					; `string'

  00000			 AREA	 |.rdata|, DATA, READONLY
|??_C@_1HC@CCPGBKDI@?$AAW?$AAA?$AAR?$AAN?$AA?3?$AA?5?$AAI?$AAO?$AAC?$AAT?$AAL?$AA_?$AAH?$AAA?$AAL?$AA_?$AAG?$AAE?$AAT?$AA_?$AAB?$AAS?$AAP?$AA_?$AAV?$AAE?$AAR?$AAS?$AAI?$AAO?$AAN?$AA_@| DCB "W"
	DCB	0x0, "A", 0x0, "R", 0x0, "N", 0x0, ":", 0x0, " ", 0x0, "I"
	DCB	0x0, "O", 0x0, "C", 0x0, "T", 0x0, "L", 0x0, "_", 0x0, "H"
	DCB	0x0, "A", 0x0, "L", 0x0, "_", 0x0, "G", 0x0, "E", 0x0, "T"
	DCB	0x0, "_", 0x0, "B", 0x0, "S", 0x0, "P", 0x0, "_", 0x0, "V"
	DCB	0x0, "E", 0x0, "R", 0x0, "S", 0x0, "I", 0x0, "O", 0x0, "N"
	DCB	0x0, "_", 0x0, "O", 0x0, "U", 0x0, "T", 0x0, " ", 0x0, "i"
	DCB	0x0, "n", 0x0, "v", 0x0, "a", 0x0, "l", 0x0, "i", 0x0, "d"
	DCB	0x0, " ", 0x0, "p", 0x0, "a", 0x0, "r", 0x0, "a", 0x0, "m"
	DCB	0x0, "e", 0x0, "t", 0x0, "e", 0x0, "r", 0x0, "s", 0x0, 0xd
	DCB	0x0, 0xa, 0x0, 0x0, 0x0			; `string'

  00000			 AREA	 |.rdata|, DATA, READONLY
|??_C@_1DI@NINGCKCM@?$AA?$CL?$AAO?$AAA?$AAL?$AAI?$AAo?$AAC?$AAt?$AAl?$AAH?$AAa?$AAl?$AAG?$AAe?$AAt?$AAB?$AAs?$AAp?$AAV?$AAe?$AAr?$AAs?$AAi?$AAo?$AAn?$AA?$AN?$AA?6?$AA?$AA@| DCB "+"
	DCB	0x0, "O", 0x0, "A", 0x0, "L", 0x0, "I", 0x0, "o", 0x0, "C"
	DCB	0x0, "t", 0x0, "l", 0x0, "H", 0x0, "a", 0x0, "l", 0x0, "G"
	DCB	0x0, "e", 0x0, "t", 0x0, "B", 0x0, "s", 0x0, "p", 0x0, "V"
	DCB	0x0, "e", 0x0, "r", 0x0, "s", 0x0, "i", 0x0, "o", 0x0, "n"
	DCB	0x0, 0xd, 0x0, 0xa, 0x0, 0x0, 0x0	; `string'
; Function compile flags: /Ogspy

  00000			 AREA	 |.text|, CODE, ARM

  00000		 |OALIoCtlHalGetBspVersion| PROC

; 165  : {

  00000		 |$LN14@OALIoCtlHa@2|
  00000	e92d4070	 stmdb       sp!, {r4 - r6, lr}
  00004		 |$M46643|
  00004	e1a04003	 mov         r4, r3

; 166  :     BOOL                        rc = FALSE;
; 167  :     IOCTL_HAL_GET_BSP_VERSION_OUT*    pBspVersion;
; 168  : 
; 169  : 
; 170  :     UNREFERENCED_PARAMETER(pOutSize);
; 171  :     UNREFERENCED_PARAMETER(inpSize);
; 172  :     UNREFERENCED_PARAMETER(code);
; 173  :     UNREFERENCED_PARAMETER(pInpBuffer);
; 174  : 
; 175  :     OALMSG(OAL_IOCTL&&OAL_FUNC, (L"+OALIoCtlHalGetBspVersion\r\n"));

  00008	e59f6090	 ldr         r6, [pc, #0x90]
  0000c	e3a05000	 mov         r5, #0
  00010	e5963440	 ldr         r3, [r6, #0x440]
  00014	e3130a01	 tst         r3, #1, 20
  00018	13130004	 tstne       r3, #4
  0001c	159f0078	 ldrne       r0, [pc, #0x78]
  00020	1b000000	 blne        NKDbgPrintfW

; 176  : 
; 177  :     // Check input parameters
; 178  :     if (
; 179  :         pOutBuffer == NULL || outSize < sizeof(IOCTL_HAL_GET_BSP_VERSION_OUT)
; 180  :     ) {

  00024	e3540000	 cmp         r4, #0
  00028	0a000009	 beq         |$LN1@OALIoCtlHa@2|
  0002c	e59d2010	 ldr         r2, [sp, #0x10]
  00030	e3520010	 cmp         r2, #0x10

; 185  :         goto cleanUp;
; 186  :     }
; 187  : 
; 188  :     //  Copy to passed in struct
; 189  :     pBspVersion = (IOCTL_HAL_GET_BSP_VERSION_OUT*)pOutBuffer;
; 190  : 
; 191  :     pBspVersion->dwVersionMajor    = BSP_VERSION_MAJOR;
; 192  :     pBspVersion->dwVersionMinor    = BSP_VERSION_MINOR;
; 193  : 	pBspVersion->dwVersionQFES	   = BSP_VERSION_QFES;

  00034	23a03000	 movcs       r3, #0
  00038	23a02001	 movcs       r2, #1
  0003c	25843008	 strcs       r3, [r4, #8]
  00040	25842000	 strcs       r2, [r4]
  00044	25842004	 strcs       r2, [r4, #4]

; 194  :     pBspVersion->dwVersionIncremental = BSP_VERSION_INCREMENTAL;

  00048	2584200c	 strcs       r2, [r4, #0xC]

; 195  : 
; 196  :     rc = TRUE;

  0004c	23a05001	 movcs       r5, #1
  00050	2a000006	 bcs         |$LN11@OALIoCtlHa@2|
  00054		 |$LN1@OALIoCtlHa@2|

; 181  :         NKSetLastError(ERROR_INVALID_PARAMETER);

  00054	e3a00057	 mov         r0, #0x57
  00058	eb000000	 bl          NKSetLastError

; 182  :         OALMSG(OAL_WARN, (
; 183  :             L"WARN: IOCTL_HAL_GET_BSP_VERSION_OUT invalid parameters\r\n"
; 184  :         ));

  0005c	e5963440	 ldr         r3, [r6, #0x440]
  00060	e3130002	 tst         r3, #2
  00064	0a000002	 beq         |$cleanUp$46567|
  00068	e59f0028	 ldr         r0, [pc, #0x28]
  0006c	eb000000	 bl          NKDbgPrintfW
  00070		 |$LN11@OALIoCtlHa@2|
  00070	e5963440	 ldr         r3, [r6, #0x440]
  00074		 |$cleanUp$46567|

; 197  : 
; 198  : cleanUp:
; 199  :     OALMSG(OAL_IOCTL && OAL_FUNC, (
; 200  :         L"-OALIoCtlHalGetBspVersion(rc = %d)\r\n", rc
; 201  :     ));

  00074	e3130a01	 tst         r3, #1, 20
  00078	13130004	 tstne       r3, #4
  0007c	159f0010	 ldrne       r0, [pc, #0x10]
  00080	11a01005	 movne       r1, r5
  00084	1b000000	 blne        NKDbgPrintfW

; 202  :     return rc;
; 203  : 
; 204  : }

  00088	e1a00005	 mov         r0, r5
  0008c	e8bd4070	 ldmia       sp!, {r4 - r6, lr}
  00090	e12fff1e	 bx          lr
  00094		 |$LN15@OALIoCtlHa@2|
  00094		 |$LN16@OALIoCtlHa@2|
  00094	00000000	 DCD         |??_C@_1EK@GKGINFBN@?$AA?9?$AAO?$AAA?$AAL?$AAI?$AAo?$AAC?$AAt?$AAl?$AAH?$AAa?$AAl?$AAG?$AAe?$AAt?$AAB?$AAs?$AAp?$AAV?$AAe?$AAr?$AAs?$AAi?$AAo?$AAn?$AA?$CI?$AAr?$AAc?$AA?5?$AA?$DN?$AA?5?$AA?$CF@|
  00098		 |$LN17@OALIoCtlHa@2|
  00098	00000000	 DCD         |??_C@_1HC@CCPGBKDI@?$AAW?$AAA?$AAR?$AAN?$AA?3?$AA?5?$AAI?$AAO?$AAC?$AAT?$AAL?$AA_?$AAH?$AAA?$AAL?$AA_?$AAG?$AAE?$AAT?$AA_?$AAB?$AAS?$AAP?$AA_?$AAV?$AAE?$AAR?$AAS?$AAI?$AAO?$AAN?$AA_@|
  0009c		 |$LN18@OALIoCtlHa@2|
  0009c	00000000	 DCD         |??_C@_1DI@NINGCKCM@?$AA?$CL?$AAO?$AAA?$AAL?$AAI?$AAo?$AAC?$AAt?$AAl?$AAH?$AAa?$AAl?$AAG?$AAe?$AAt?$AAB?$AAs?$AAp?$AAV?$AAe?$AAr?$AAs?$AAi?$AAo?$AAn?$AA?$AN?$AA?6?$AA?$AA@|
  000a0		 |$LN19@OALIoCtlHa@2|
  000a0	00000000	 DCD         |dpCurSettings|
  000a4		 |$M46644|

			 ENDP  ; |OALIoCtlHalGetBspVersion|

	END
