; Listing generated by Microsoft (R) Optimizing Compiler Version 14.01.60511.01 

	TTL	C:\WINCE600\PLATFORM\Z2170P\SRC\OAL\OALLIB\oem_padwakeup.c
	CODE32

  00000			 AREA	 |.drectve|, DRECTVE
	DCB	"-defaultlib:LIBCMT "
	DCB	"-defaultlib:OLDNAMES "


  00000			 AREA	 |.rdata|, DATA, READONLY
|EdbgVendorIds| DCW 0x0
	DCW	0x0
	DCD	0x4033
	DCB	0x1
	DCB	"AD", 0x0
	DCW	0x1050
	DCW	0x940
	DCD	0x4005
	DCB	0x1
	DCB	"LS", 0x0
	DCW	0x1050
	DCW	0x940
	DCD	0x2078
	DCB	0x1
	DCB	"LS", 0x0
	DCW	0x10ec
	DCW	0x8029
	DCD	0xc0f0
	DCB	0x1
	DCB	"KS", 0x0
	DCW	0x10ec
	DCW	0x8129
	DCD	0x0
	DCB	0x4
	DCB	"RT", 0x0
	DCW	0x10ec
	DCW	0x8139
	DCD	0x900b
	DCB	0x4
	DCB	"RT", 0x0
	DCW	0x10ec
	DCW	0x8139
	DCD	0xd0c9
	DCB	0x4
	DCB	"RT", 0x0
	DCW	0x10ec
	DCW	0x8139
	DCD	0xe04c
	DCB	0x4
	DCB	"RT", 0x0
	DCW	0x1186
	DCW	0x1300
	DCD	0x50ba
	DCB	0x4
	DCB	"DL", 0x0
	DCW	0x100b
	DCW	0x20
	DCD	0xa0cc
	DCB	0x5
	DCB	"NG", 0x0
	DCW	0x10b7
	DCW	0x9050
	DCD	0x6008
	DCB	0x6
	DCB	"3C", 0x0
	DCW	0x10b7
	DCW	0x9200
	DCD	0x476
	DCB	0x6
	DCB	"3C", 0x0
	EXPORT	|OEMEnableIOPadWakeup|
	IMPORT	|OALContextUpdateDirtyRegister|
	IMPORT	|g_pSyscPadConfsRegs|
; File c:\wince600\platform\z2170p\src\oal\oallib\oem_padwakeup.c

  00000			 AREA	 |.pdata|, PDATA
|$T47115| DCD	|$LN12@OEMEnableI|
	DCD	0x40001401
; Function compile flags: /Ogspy

  00000			 AREA	 |.text|, CODE, ARM

  00000		 |OEMEnableIOPadWakeup| PROC

; 78   : {

  00000		 |$LN12@OEMEnableI|
  00000	e52de004	 str         lr, [sp, #-4]!
  00004		 |$M47112|
  00004	e3500000	 cmp         r0, #0

; 79   :     // NOTE:
; 80   :     //  For better performance only the GPIO which are identified as wakeup
; 81   :     // capable is implemented. This shall be extended if any other modules
; 82   :     // GPIO requires IO PAD Wakeup
; 83   :    
; 84   :     UNREFERENCED_PARAMETER(bEnable);
; 85   : 
; 86   :     switch (gpio)

  00008	1a00000d	 bne         |$LN5@OEMEnableI|

; 87   :         {
; 88   : 
; 89   :         case 0:
; 90   :             if (bEnable)
; 91   :                 {
; 92   :                 // Set the wake-up capability of T2 (GPIO 0)
; 93   :                 SETREG16(&g_pSyscPadConfsRegs->CONTROL_PADCONF_SYS_NIRQ, OFF_WAKE_ENABLE);

  0000c	e59f3038	 ldr         r3, [pc, #0x38]
  00010	e3510000	 cmp         r1, #0

; 94   :                 }
; 95   :             else 
; 96   :                 {
; 97   :                 // Clear the wake-up capability of T2 (GPIO 0)
; 98   :                 CLRREG16(&g_pSyscPadConfsRegs->CONTROL_PADCONF_SYS_NIRQ, OFF_WAKE_ENABLE);     
; 99   :                 }
; 100  :             
; 101  :                 OALContextUpdateDirtyRegister(HAL_CONTEXTSAVE_PINMUX);            

  00014	e3a00c01	 mov         r0, #1, 24
  00018	e5933000	 ldr         r3, [r3]
  0001c	12832e1b	 addne       r2, r3, #0x1B, 28
  00020	11d230b0	 ldrneh      r3, [r2]
  00024	03a02cbf	 moveq       r2, #0xBF, 24
  00028	038210ff	 orreq       r1, r2, #0xFF
  0002c	13833901	 orrne       r3, r3, #1, 18
  00030	02832e1b	 addeq       r2, r3, #0x1B, 28
  00034	01d230b0	 ldreqh      r3, [r2]
  00038	00033001	 andeq       r3, r3, r1
  0003c	e1c230b0	 strh        r3, [r2]
  00040	eb000000	 bl          OALContextUpdateDirtyRegister
  00044		 |$LN5@OEMEnableI|

; 102  :             break;
; 103  : 
; 104  : 
; 105  :         default:
; 106  :             break;
; 107  :         }
; 108  : }

  00044	e49de004	 ldr         lr, [sp], #4
  00048	e12fff1e	 bx          lr
  0004c		 |$LN13@OEMEnableI|
  0004c		 |$LN14@OEMEnableI|
  0004c	00000000	 DCD         |g_pSyscPadConfsRegs|
  00050		 |$M47113|

			 ENDP  ; |OEMEnableIOPadWakeup|

	EXPORT	|OEMGetIOPadWakeupStatus|

  00000			 AREA	 |.pdata|, PDATA
|$T47126| DCD	|$LN5@OEMGetIOPa|
	DCD	0x40000200
; Function compile flags: /Ogspy

  00000			 AREA	 |.text|, CODE, ARM

  00000		 |OEMGetIOPadWakeupStatus| PROC

; 123  : {

  00000		 |$LN5@OEMGetIOPa|
  00000		 |$M47123|

; 124  :     BOOL rc = FALSE;
; 125  : 
; 126  :     UNREFERENCED_PARAMETER(pGpioPadIntrStatus);
; 127  : 
; 128  :     // IO PAD Wakeup capability is required for all GPIO's to wakeup the device
; 129  :     // from OFF mode. But since GPIO0 is in wakeup domain, the interrupt status
; 130  :     // will be maintained and after wakeup, omap will generate a interrupt so
; 131  :     // s/w should use PAD wakeup event only for PER domain GPIO
; 132  : 
; 133  :     // Below code is a reference code to return the status IO PAD wakeup event
; 134  : #if 0    
; 135  :     if (INREG16(&g_pSyscPadConfsRegs->CONTROL_PADCONF_SYS_NIRQ) & OFF_PAD_WAKEUP_EVENT)
; 136  :     {
; 137  :         pGpioPadIntrStatus[GPIO_BANK(GPIO_0)] |= (1 << (GPIO_0 & GPIO_BITS_PER_BANK));
; 138  :         rc = TRUE;
; 139  :     }
; 140  : #endif
; 141  : 
; 142  :     return rc;

  00000	e3a00000	 mov         r0, #0

; 143  : }

  00004	e12fff1e	 bx          lr
  00008		 |$M47124|

			 ENDP  ; |OEMGetIOPadWakeupStatus|

	EXPORT	|OALEnableIOPadWakeup|
	IMPORT	|g_PrcmPrm|

  00000			 AREA	 |.pdata|, PDATA
|$T47133| DCD	|$LN5@OALEnableI|
	DCD	0x40000a00
; Function compile flags: /Ogspy

  00000			 AREA	 |.text|, CODE, ARM

  00000		 |OALEnableIOPadWakeup| PROC

; 153  : {

  00000		 |$LN5@OALEnableI|
  00000		 |$M47130|

; 154  :     // clear wakeup status
; 155  :     OUTREG32(&g_PrcmPrm.pOMAP_WKUP_PRM->PM_WKST_WKUP, CM_CLKEN_IO);

  00000	e59f201c	 ldr         r2, [pc, #0x1C]
  00004	e3a01c01	 mov         r1, #1, 24
  00008	e5923000	 ldr         r3, [r2]
  0000c	e58310b0	 str         r1, [r3, #0xB0]

; 156  : 
; 157  :     // Enable the IO pad wakeup
; 158  :     SETREG32(&g_PrcmPrm.pOMAP_WKUP_PRM->PM_WKEN_WKUP, CM_CLKEN_IO);

  00010	e5922000	 ldr         r2, [r2]
  00014	e59230a0	 ldr         r3, [r2, #0xA0]
  00018	e3833c01	 orr         r3, r3, #1, 24
  0001c	e58230a0	 str         r3, [r2, #0xA0]

; 159  : }

  00020	e12fff1e	 bx          lr
  00024		 |$LN6@OALEnableI|
  00024		 |$LN7@OALEnableI|
  00024	00000000	 DCD         |g_PrcmPrm|
  00028		 |$M47131|

			 ENDP  ; |OALEnableIOPadWakeup|

	EXPORT	|OALDisableIOPadWakeup|

  00000			 AREA	 |.pdata|, PDATA
|$T47142| DCD	|$LN5@OALDisable|
	DCD	0x40000700
; Function compile flags: /Ogspy

  00000			 AREA	 |.text|, CODE, ARM

  00000		 |OALDisableIOPadWakeup| PROC

; 169  : {

  00000		 |$LN5@OALDisable|
  00000		 |$M47139|

; 170  :     // Disable the IO pad wakeup
; 171  :     CLRREG32(&g_PrcmPrm.pOMAP_WKUP_PRM->PM_WKEN_WKUP, CM_CLKEN_IO);

  00000	e59f3010	 ldr         r3, [pc, #0x10]
  00004	e5932000	 ldr         r2, [r3]
  00008	e59230a0	 ldr         r3, [r2, #0xA0]
  0000c	e3c33c01	 bic         r3, r3, #1, 24
  00010	e58230a0	 str         r3, [r2, #0xA0]

; 172  : }

  00014	e12fff1e	 bx          lr
  00018		 |$LN6@OALDisable|
  00018		 |$LN7@OALDisable|
  00018	00000000	 DCD         |g_PrcmPrm|
  0001c		 |$M47140|

			 ENDP  ; |OALDisableIOPadWakeup|

	EXPORT	|OALEnableIOWakeupDaisyChain|
	IMPORT	|g_dwCpuRevision|

  00000			 AREA	 |.pdata|, PDATA
|$T47152| DCD	|$LN9@OALEnableI@2|
	DCD	0x40001300
; Function compile flags: /Ogspy

  00000			 AREA	 |.text|, CODE, ARM

  00000		 |OALEnableIOWakeupDaisyChain| PROC

; 182  : {

  00000		 |$LN9@OALEnableI@2|
  00000		 |$M47149|

; 183  :     if (g_dwCpuRevision == CPU_FAMILY_35XX_REVISION_ES_3_1)

  00000	e59f3040	 ldr         r3, [pc, #0x40]
  00004	e5933000	 ldr         r3, [r3]
  00008	e3530006	 cmp         r3, #6
  0000c	1a00000b	 bne         |$LN3@OALEnableI@2|

; 184  :         {
; 185  :         SETREG32(&g_PrcmPrm.pOMAP_WKUP_PRM->PM_WKEN_WKUP, CM_CLKEN_IO_CHAIN);

  00010	e59f102c	 ldr         r1, [pc, #0x2C]
  00014	e5912000	 ldr         r2, [r1]
  00018	e59230a0	 ldr         r3, [r2, #0xA0]
  0001c	e3833801	 orr         r3, r3, #1, 16
  00020	e58230a0	 str         r3, [r2, #0xA0]
  00024	e5912000	 ldr         r2, [r1]
  00028		 |$LL2@OALEnableI@2|

; 186  : 
; 187  :         // Wait till the IO Wakeup Scheme is enabled
; 188  :         while((INREG32(&g_PrcmPrm.pOMAP_WKUP_PRM->PM_WKST_WKUP) & CM_ST_IO_CHAIN) == 0);

  00028	e59230b0	 ldr         r3, [r2, #0xB0]
  0002c	e3130801	 tst         r3, #1, 16
  00030	0afffffc	 beq         |$LL2@OALEnableI@2|

; 189  : 
; 190  :         // Clear IO Wakeup Scheme status
; 191  :         SETREG32(&g_PrcmPrm.pOMAP_WKUP_PRM->PM_WKST_WKUP, CM_ST_IO_CHAIN);

  00034	e59230b0	 ldr         r3, [r2, #0xB0]
  00038	e3833801	 orr         r3, r3, #1, 16
  0003c	e58230b0	 str         r3, [r2, #0xB0]
  00040		 |$LN3@OALEnableI@2|

; 192  :         }
; 193  : }

  00040	e12fff1e	 bx          lr
  00044		 |$LN10@OALEnableI@2|
  00044		 |$LN11@OALEnableI@2|
  00044	00000000	 DCD         |g_PrcmPrm|
  00048		 |$LN12@OALEnableI@2|
  00048	00000000	 DCD         |g_dwCpuRevision|
  0004c		 |$M47150|

			 ENDP  ; |OALEnableIOWakeupDaisyChain|

	EXPORT	|OALDisableIOWakeupDaisyChain|

  00000			 AREA	 |.pdata|, PDATA
|$T47162| DCD	|$LN6@OALDisable@2|
	DCD	0x40000b00
; Function compile flags: /Ogspy

  00000			 AREA	 |.text|, CODE, ARM

  00000		 |OALDisableIOWakeupDaisyChain| PROC

; 203  : {

  00000		 |$LN6@OALDisable@2|
  00000		 |$M47159|

; 204  :     if (g_dwCpuRevision == CPU_FAMILY_35XX_REVISION_ES_3_1)

  00000	e59f3020	 ldr         r3, [pc, #0x20]
  00004	e5933000	 ldr         r3, [r3]
  00008	e3530006	 cmp         r3, #6

; 205  :         {
; 206  :         // Disable IO Wakeup Daisy Chain
; 207  :         CLRREG32(&g_PrcmPrm.pOMAP_WKUP_PRM->PM_WKEN_WKUP, CM_CLKEN_IO_CHAIN);

  0000c	059f3010	 ldreq       r3, [pc, #0x10]
  00010	05932000	 ldreq       r2, [r3]
  00014	059230a0	 ldreq       r3, [r2, #0xA0]
  00018	03c33801	 biceq       r3, r3, #1, 16
  0001c	058230a0	 streq       r3, [r2, #0xA0]

; 208  :         }
; 209  : }

  00020	e12fff1e	 bx          lr
  00024		 |$LN7@OALDisable@2|
  00024		 |$LN8@OALDisable@2|
  00024	00000000	 DCD         |g_PrcmPrm|
  00028		 |$LN9@OALDisable@2|
  00028	00000000	 DCD         |g_dwCpuRevision|
  0002c		 |$M47160|

			 ENDP  ; |OALDisableIOWakeupDaisyChain|

	EXPORT	|OALIOPadWakeupEnableStatus|

  00000			 AREA	 |.pdata|, PDATA
|$T47174| DCD	|$LN6@OALIOPadWa|
	DCD	0x40000800
; Function compile flags: /Ogspy

  00000			 AREA	 |.text|, CODE, ARM

  00000		 |OALIOPadWakeupEnableStatus| PROC

; 219  : {

  00000		 |$LN6@OALIOPadWa|
  00000		 |$M47171|

; 220  :     if (INREG32(&g_PrcmPrm.pOMAP_WKUP_PRM->PM_WKEN_WKUP) & CM_CLKEN_IO)

  00000	e59f3014	 ldr         r3, [pc, #0x14]
  00004	e5933000	 ldr         r3, [r3]
  00008	e59330a0	 ldr         r3, [r3, #0xA0]
  0000c	e3130c01	 tst         r3, #1, 24

; 221  :         {
; 222  :         return TRUE;

  00010	13a00001	 movne       r0, #1

; 223  :         }
; 224  :     
; 225  :     return FALSE;

  00014	03a00000	 moveq       r0, #0

; 226  : }

  00018	e12fff1e	 bx          lr
  0001c		 |$LN7@OALIOPadWa|
  0001c		 |$LN8@OALIOPadWa|
  0001c	00000000	 DCD         |g_PrcmPrm|
  00020		 |$M47172|

			 ENDP  ; |OALIOPadWakeupEnableStatus|

	END
