; Listing generated by Microsoft (R) Optimizing Compiler Version 14.01.60511.01 

	TTL	C:\WINCE600\PLATFORM\COMMON\SRC\COMMON\INTR\BASE_REFCOUNT\map_refcount.c
	CODE32

  00000			 AREA	 |.drectve|, DRECTVE
	DCB	"-defaultlib:LIBCMT "
	DCB	"-defaultlib:OLDNAMES "

	EXPORT	|??_C@_1CE@HFBIALPK@?$AA?9?$AAO?$AAA?$AAL?$AAI?$AAn?$AAt?$AAr?$AAM?$AAa?$AAp?$AAI?$AAn?$AAi?$AAt?$AA?$AN?$AA?6?$AA?$AA@| [ DATA ] ; `string'
	EXPORT	|??_C@_1CE@LMNIPMAG@?$AA?$CL?$AAO?$AAA?$AAL?$AAI?$AAn?$AAt?$AAr?$AAM?$AAa?$AAp?$AAI?$AAn?$AAi?$AAt?$AA?$AN?$AA?6?$AA?$AA@| [ DATA ] ; `string'
	EXPORT	|OALIntrMapInit|
	IMPORT	|NKDbgPrintfW|
	IMPORT	|dpCurSettings|

  00000			 AREA	 |.bss|, NOINIT
|g_oalIrqMaskRefCount| % 0x100
|g_oalIrqRefCount| % 0x100
|g_oalIrq2SysIntr| % 0x100
|g_oalSysIntr2Irq| % 0x120

  00000			 AREA	 |.pdata|, PDATA
|$T39333| DCD	|$LN21@OALIntrMap|
	DCD	0x40006e02
; File c:\wince600\platform\common\src\common\intr\base_refcount\map_refcount.c

  00000			 AREA	 |.rdata|, DATA, READONLY
|??_C@_1CE@HFBIALPK@?$AA?9?$AAO?$AAA?$AAL?$AAI?$AAn?$AAt?$AAr?$AAM?$AAa?$AAp?$AAI?$AAn?$AAi?$AAt?$AA?$AN?$AA?6?$AA?$AA@| DCB "-"
	DCB	0x0, "O", 0x0, "A", 0x0, "L", 0x0, "I", 0x0, "n", 0x0, "t"
	DCB	0x0, "r", 0x0, "M", 0x0, "a", 0x0, "p", 0x0, "I", 0x0, "n"
	DCB	0x0, "i", 0x0, "t", 0x0, 0xd, 0x0, 0xa, 0x0, 0x0, 0x0 ; `string'

  00000			 AREA	 |.rdata|, DATA, READONLY
|??_C@_1CE@LMNIPMAG@?$AA?$CL?$AAO?$AAA?$AAL?$AAI?$AAn?$AAt?$AAr?$AAM?$AAa?$AAp?$AAI?$AAn?$AAi?$AAt?$AA?$AN?$AA?6?$AA?$AA@| DCB "+"
	DCB	0x0, "O", 0x0, "A", 0x0, "L", 0x0, "I", 0x0, "n", 0x0, "t"
	DCB	0x0, "r", 0x0, "M", 0x0, "a", 0x0, "p", 0x0, "I", 0x0, "n"
	DCB	0x0, "i", 0x0, "t", 0x0, 0xd, 0x0, 0xa, 0x0, 0x0, 0x0 ; `string'
; Function compile flags: /Odtp

  00000			 AREA	 |.text|, CODE, ARM

  00000		 |OALIntrMapInit| PROC

; 44   : {

  00000		 |$LN21@OALIntrMap|
  00000	e52de004	 str         lr, [sp, #-4]!
  00004	e24dd00c	 sub         sp, sp, #0xC
  00008		 |$M39330|

; 45   :     UINT32 i;
; 46   : 
; 47   :     OALMSG(OAL_FUNC&&OAL_INTR, (L"+OALIntrMapInit\r\n"));

  00008	e59f3190	 ldr         r3, [pc, #0x190]
  0000c	e5933440	 ldr         r3, [r3, #0x440]
  00010	e3130004	 tst         r3, #4
  00014	0a000008	 beq         |$LN15@OALIntrMap|
  00018	e59f3180	 ldr         r3, [pc, #0x180]
  0001c	e5933440	 ldr         r3, [r3, #0x440]
  00020	e3130901	 tst         r3, #1, 18
  00024	0a000004	 beq         |$LN15@OALIntrMap|
  00028	e59f0184	 ldr         r0, [pc, #0x184]
  0002c	eb000000	 bl          NKDbgPrintfW
  00030	e3a03001	 mov         r3, #1
  00034	e58d3004	 str         r3, [sp, #4]
  00038	ea000001	 b           |$LN16@OALIntrMap|
  0003c		 |$LN15@OALIntrMap|
  0003c	e3a03000	 mov         r3, #0
  00040	e58d3004	 str         r3, [sp, #4]
  00044		 |$LN16@OALIntrMap|

; 48   : 
; 49   :     // Initialize interrupt maps
; 50   :     for (i = 0; i < SYSINTR_MAXIMUM; i++)

  00044	e3a03000	 mov         r3, #0
  00048	e58d3000	 str         r3, [sp]
  0004c	ea000002	 b           |$LN12@OALIntrMap|
  00050		 |$LN11@OALIntrMap|
  00050	e59d3000	 ldr         r3, [sp]
  00054	e2833001	 add         r3, r3, #1
  00058	e58d3000	 str         r3, [sp]
  0005c		 |$LN12@OALIntrMap|
  0005c	e59d3000	 ldr         r3, [sp]
  00060	e3530048	 cmp         r3, #0x48
  00064	2a000007	 bcs         |$LN10@OALIntrMap|

; 51   :         {
; 52   :         g_oalSysIntr2Irq[i] = OAL_INTR_IRQ_UNDEFINED;

  00068	e59d1000	 ldr         r1, [sp]
  0006c	e3a03004	 mov         r3, #4
  00070	e0020391	 mul         r2, r1, r3
  00074	e59f3134	 ldr         r3, [pc, #0x134]
  00078	e0832002	 add         r2, r3, r2
  0007c	e3e03000	 mvn         r3, #0
  00080	e5823000	 str         r3, [r2]

; 53   :         }

  00084	eafffff1	 b           |$LN11@OALIntrMap|
  00088		 |$LN10@OALIntrMap|

; 54   :     for (i = 0; i < OAL_INTR_IRQ_MAXIMUM; i++)

  00088	e3a03000	 mov         r3, #0
  0008c	e58d3000	 str         r3, [sp]
  00090	ea000002	 b           |$LN9@OALIntrMap|
  00094		 |$LN8@OALIntrMap|
  00094	e59d3000	 ldr         r3, [sp]
  00098	e2833001	 add         r3, r3, #1
  0009c	e58d3000	 str         r3, [sp]
  000a0		 |$LN9@OALIntrMap|
  000a0	e59d3000	 ldr         r3, [sp]
  000a4	e3530040	 cmp         r3, #0x40
  000a8	2a000007	 bcs         |$LN7@OALIntrMap|

; 55   :         {
; 56   :         g_oalIrq2SysIntr[i] = SYSINTR_UNDEFINED;

  000ac	e59d1000	 ldr         r1, [sp]
  000b0	e3a03004	 mov         r3, #4
  000b4	e0020391	 mul         r2, r1, r3
  000b8	e59f30ec	 ldr         r3, [pc, #0xEC]
  000bc	e0832002	 add         r2, r3, r2
  000c0	e3e03000	 mvn         r3, #0
  000c4	e5823000	 str         r3, [r2]

; 57   :         }

  000c8	eafffff1	 b           |$LN8@OALIntrMap|
  000cc		 |$LN7@OALIntrMap|

; 58   : 
; 59   :     // Initialize reference counting tables - all interrupts start out disabled and unmasked
; 60   :     for (i = 0; i < OAL_INTR_IRQ_MAXIMUM; i++)

  000cc	e3a03000	 mov         r3, #0
  000d0	e58d3000	 str         r3, [sp]
  000d4	ea000002	 b           |$LN6@OALIntrMap|
  000d8		 |$LN5@OALIntrMap|
  000d8	e59d3000	 ldr         r3, [sp]
  000dc	e2833001	 add         r3, r3, #1
  000e0	e58d3000	 str         r3, [sp]
  000e4		 |$LN6@OALIntrMap|
  000e4	e59d3000	 ldr         r3, [sp]
  000e8	e3530040	 cmp         r3, #0x40
  000ec	2a000007	 bcs         |$LN4@OALIntrMap|

; 61   :         {
; 62   :         g_oalIrqRefCount[i] = 0;

  000f0	e59d1000	 ldr         r1, [sp]
  000f4	e3a03004	 mov         r3, #4
  000f8	e0020391	 mul         r2, r1, r3
  000fc	e59f30a4	 ldr         r3, [pc, #0xA4]
  00100	e0832002	 add         r2, r3, r2
  00104	e3a03000	 mov         r3, #0
  00108	e5823000	 str         r3, [r2]

; 63   :         }

  0010c	eafffff1	 b           |$LN5@OALIntrMap|
  00110		 |$LN4@OALIntrMap|

; 64   :     for (i = 0; i < OAL_INTR_IRQ_MAXIMUM; i++)

  00110	e3a03000	 mov         r3, #0
  00114	e58d3000	 str         r3, [sp]
  00118	ea000002	 b           |$LN3@OALIntrMap|
  0011c		 |$LN2@OALIntrMap|
  0011c	e59d3000	 ldr         r3, [sp]
  00120	e2833001	 add         r3, r3, #1
  00124	e58d3000	 str         r3, [sp]
  00128		 |$LN3@OALIntrMap|
  00128	e59d3000	 ldr         r3, [sp]
  0012c	e3530040	 cmp         r3, #0x40
  00130	2a000007	 bcs         |$LN1@OALIntrMap|

; 65   :         {
; 66   :         g_oalIrqMaskRefCount[i] = 0;

  00134	e59d1000	 ldr         r1, [sp]
  00138	e3a03004	 mov         r3, #4
  0013c	e0020391	 mul         r2, r1, r3
  00140	e59f305c	 ldr         r3, [pc, #0x5C]
  00144	e0832002	 add         r2, r3, r2
  00148	e3a03000	 mov         r3, #0
  0014c	e5823000	 str         r3, [r2]

; 67   :         }

  00150	eafffff1	 b           |$LN2@OALIntrMap|
  00154		 |$LN1@OALIntrMap|

; 68   : 
; 69   :     OALMSG(OAL_FUNC&&OAL_INTR, (L"-OALIntrMapInit\r\n"));

  00154	e59f3044	 ldr         r3, [pc, #0x44]
  00158	e5933440	 ldr         r3, [r3, #0x440]
  0015c	e3130004	 tst         r3, #4
  00160	0a000008	 beq         |$LN17@OALIntrMap|
  00164	e59f3034	 ldr         r3, [pc, #0x34]
  00168	e5933440	 ldr         r3, [r3, #0x440]
  0016c	e3130901	 tst         r3, #1, 18
  00170	0a000004	 beq         |$LN17@OALIntrMap|
  00174	e59f0020	 ldr         r0, [pc, #0x20]
  00178	eb000000	 bl          NKDbgPrintfW
  0017c	e3a03001	 mov         r3, #1
  00180	e58d3008	 str         r3, [sp, #8]
  00184	ea000001	 b           |$LN18@OALIntrMap|
  00188		 |$LN17@OALIntrMap|
  00188	e3a03000	 mov         r3, #0
  0018c	e58d3008	 str         r3, [sp, #8]
  00190		 |$LN18@OALIntrMap|

; 70   : }

  00190	e28dd00c	 add         sp, sp, #0xC
  00194	e49de004	 ldr         lr, [sp], #4
  00198	e12fff1e	 bx          lr
  0019c		 |$LN22@OALIntrMap|
  0019c		 |$LN23@OALIntrMap|
  0019c	00000000	 DCD         |??_C@_1CE@HFBIALPK@?$AA?9?$AAO?$AAA?$AAL?$AAI?$AAn?$AAt?$AAr?$AAM?$AAa?$AAp?$AAI?$AAn?$AAi?$AAt?$AA?$AN?$AA?6?$AA?$AA@|
  001a0		 |$LN24@OALIntrMap|
  001a0	00000000	 DCD         |dpCurSettings|
  001a4		 |$LN25@OALIntrMap|
  001a4	00000000	 DCD         |g_oalIrqMaskRefCount|
  001a8		 |$LN26@OALIntrMap|
  001a8	00000000	 DCD         |g_oalIrqRefCount|
  001ac		 |$LN27@OALIntrMap|
  001ac	00000000	 DCD         |g_oalIrq2SysIntr|
  001b0		 |$LN28@OALIntrMap|
  001b0	00000000	 DCD         |g_oalSysIntr2Irq|
  001b4		 |$LN29@OALIntrMap|
  001b4	00000000	 DCD         |??_C@_1CE@LMNIPMAG@?$AA?$CL?$AAO?$AAA?$AAL?$AAI?$AAn?$AAt?$AAr?$AAM?$AAa?$AAp?$AAI?$AAn?$AAi?$AAt?$AA?$AN?$AA?6?$AA?$AA@|
  001b8		 |$M39331|

			 ENDP  ; |OALIntrMapInit|

	EXPORT	|??_C@_1DE@CBLJKBBB@?$AA?9?$AAO?$AAA?$AAL?$AAI?$AAn?$AAt?$AAr?$AAS?$AAt?$AAa?$AAt?$AAi?$AAc?$AAT?$AAr?$AAa?$AAn?$AAs?$AAl?$AAa?$AAt?$AAe?$AA?$AN?$AA?6?$AA?$AA@| [ DATA ] ; `string'
	EXPORT	|??_C@_1EE@DPKCCBO@?$AA?$CL?$AAO?$AAA?$AAL?$AAI?$AAn?$AAt?$AAr?$AAS?$AAt?$AAa?$AAt?$AAi?$AAc?$AAT?$AAr?$AAa?$AAn?$AAs?$AAl?$AAa?$AAt?$AAe?$AA?$CI?$AA?$CF?$AAd?$AA?0?$AA?5?$AA?$CF?$AAd?$AA?$CJ?$AA?$AN@| [ DATA ] ; `string'
	EXPORT	|OALIntrStaticTranslate|

  00008			 AREA	 |.pdata|, PDATA
|$T39350| DCD	|$LN10@OALIntrSta|
	DCD	0x40004004

  00000			 AREA	 |.rdata|, DATA, READONLY
|??_C@_1DE@CBLJKBBB@?$AA?9?$AAO?$AAA?$AAL?$AAI?$AAn?$AAt?$AAr?$AAS?$AAt?$AAa?$AAt?$AAi?$AAc?$AAT?$AAr?$AAa?$AAn?$AAs?$AAl?$AAa?$AAt?$AAe?$AA?$AN?$AA?6?$AA?$AA@| DCB "-"
	DCB	0x0, "O", 0x0, "A", 0x0, "L", 0x0, "I", 0x0, "n", 0x0, "t"
	DCB	0x0, "r", 0x0, "S", 0x0, "t", 0x0, "a", 0x0, "t", 0x0, "i"
	DCB	0x0, "c", 0x0, "T", 0x0, "r", 0x0, "a", 0x0, "n", 0x0, "s"
	DCB	0x0, "l", 0x0, "a", 0x0, "t", 0x0, "e", 0x0, 0xd, 0x0, 0xa
	DCB	0x0, 0x0, 0x0				; `string'

  00000			 AREA	 |.rdata|, DATA, READONLY
|??_C@_1EE@DPKCCBO@?$AA?$CL?$AAO?$AAA?$AAL?$AAI?$AAn?$AAt?$AAr?$AAS?$AAt?$AAa?$AAt?$AAi?$AAc?$AAT?$AAr?$AAa?$AAn?$AAs?$AAl?$AAa?$AAt?$AAe?$AA?$CI?$AA?$CF?$AAd?$AA?0?$AA?5?$AA?$CF?$AAd?$AA?$CJ?$AA?$AN@| DCB "+"
	DCB	0x0, "O", 0x0, "A", 0x0, "L", 0x0, "I", 0x0, "n", 0x0, "t"
	DCB	0x0, "r", 0x0, "S", 0x0, "t", 0x0, "a", 0x0, "t", 0x0, "i"
	DCB	0x0, "c", 0x0, "T", 0x0, "r", 0x0, "a", 0x0, "n", 0x0, "s"
	DCB	0x0, "l", 0x0, "a", 0x0, "t", 0x0, "e", 0x0, "(", 0x0, "%"
	DCB	0x0, "d", 0x0, ",", 0x0, " ", 0x0, "%", 0x0, "d", 0x0, ")"
	DCB	0x0, 0xd, 0x0, 0xa, 0x0, 0x0, 0x0	; `string'
; Function compile flags: /Odtp

  001b8			 AREA	 |.text|, CODE, ARM

  001b8		 |OALIntrStaticTranslate| PROC

; 85   : {

  001b8		 |$LN10@OALIntrSta|
  001b8	e1a0c00d	 mov         r12, sp
  001bc	e92d0003	 stmdb       sp!, {r0, r1}
  001c0	e92d5000	 stmdb       sp!, {r12, lr}
  001c4	e24dd008	 sub         sp, sp, #8
  001c8		 |$M39347|

; 86   :     OALMSG(OAL_FUNC&&OAL_INTR, (
; 87   :         L"+OALIntrStaticTranslate(%d, %d)\r\n", sysIntr, irq
; 88   :         ));

  001c8	e59f30d8	 ldr         r3, [pc, #0xD8]
  001cc	e5933440	 ldr         r3, [r3, #0x440]
  001d0	e3130004	 tst         r3, #4
  001d4	0a00000a	 beq         |$LN4@OALIntrSta|
  001d8	e59f30c8	 ldr         r3, [pc, #0xC8]
  001dc	e5933440	 ldr         r3, [r3, #0x440]
  001e0	e3130901	 tst         r3, #1, 18
  001e4	0a000006	 beq         |$LN4@OALIntrSta|
  001e8	e59d2014	 ldr         r2, [sp, #0x14]
  001ec	e59d1010	 ldr         r1, [sp, #0x10]
  001f0	e59f00bc	 ldr         r0, [pc, #0xBC]
  001f4	eb000000	 bl          NKDbgPrintfW
  001f8	e3a03001	 mov         r3, #1
  001fc	e58d3000	 str         r3, [sp]
  00200	ea000001	 b           |$LN5@OALIntrSta|
  00204		 |$LN4@OALIntrSta|
  00204	e3a03000	 mov         r3, #0
  00208	e58d3000	 str         r3, [sp]
  0020c		 |$LN5@OALIntrSta|

; 89   :     
; 90   :     if ((irq < OAL_INTR_IRQ_MAXIMUM) && (sysIntr < SYSINTR_MAXIMUM))

  0020c	e59d3014	 ldr         r3, [sp, #0x14]
  00210	e3530040	 cmp         r3, #0x40
  00214	2a000010	 bcs         |$LN1@OALIntrSta|
  00218	e59d3010	 ldr         r3, [sp, #0x10]
  0021c	e3530048	 cmp         r3, #0x48
  00220	2a00000d	 bcs         |$LN1@OALIntrSta|

; 91   :         {
; 92   :         g_oalSysIntr2Irq[sysIntr] = irq;

  00224	e59d1010	 ldr         r1, [sp, #0x10]
  00228	e3a03004	 mov         r3, #4
  0022c	e0020391	 mul         r2, r1, r3
  00230	e59f3078	 ldr         r3, [pc, #0x78]
  00234	e0832002	 add         r2, r3, r2
  00238	e59d3014	 ldr         r3, [sp, #0x14]
  0023c	e5823000	 str         r3, [r2]

; 93   :         g_oalIrq2SysIntr[irq] = sysIntr;

  00240	e59d1014	 ldr         r1, [sp, #0x14]
  00244	e3a03004	 mov         r3, #4
  00248	e0020391	 mul         r2, r1, r3
  0024c	e59f3058	 ldr         r3, [pc, #0x58]
  00250	e0832002	 add         r2, r3, r2
  00254	e59d3010	 ldr         r3, [sp, #0x10]
  00258	e5823000	 str         r3, [r2]
  0025c		 |$LN1@OALIntrSta|

; 94   :         }
; 95   :     OALMSG(OAL_FUNC&&OAL_INTR, (L"-OALIntrStaticTranslate\r\n"));

  0025c	e59f3044	 ldr         r3, [pc, #0x44]
  00260	e5933440	 ldr         r3, [r3, #0x440]
  00264	e3130004	 tst         r3, #4
  00268	0a000008	 beq         |$LN6@OALIntrSta|
  0026c	e59f3034	 ldr         r3, [pc, #0x34]
  00270	e5933440	 ldr         r3, [r3, #0x440]
  00274	e3130901	 tst         r3, #1, 18
  00278	0a000004	 beq         |$LN6@OALIntrSta|
  0027c	e59f0020	 ldr         r0, [pc, #0x20]
  00280	eb000000	 bl          NKDbgPrintfW
  00284	e3a03001	 mov         r3, #1
  00288	e58d3004	 str         r3, [sp, #4]
  0028c	ea000001	 b           |$LN7@OALIntrSta|
  00290		 |$LN6@OALIntrSta|
  00290	e3a03000	 mov         r3, #0
  00294	e58d3004	 str         r3, [sp, #4]
  00298		 |$LN7@OALIntrSta|

; 96   : }

  00298	e28dd008	 add         sp, sp, #8
  0029c	e89d6000	 ldmia       sp, {sp, lr}
  002a0	e12fff1e	 bx          lr
  002a4		 |$LN11@OALIntrSta|
  002a4		 |$LN12@OALIntrSta|
  002a4	00000000	 DCD         |??_C@_1DE@CBLJKBBB@?$AA?9?$AAO?$AAA?$AAL?$AAI?$AAn?$AAt?$AAr?$AAS?$AAt?$AAa?$AAt?$AAi?$AAc?$AAT?$AAr?$AAa?$AAn?$AAs?$AAl?$AAa?$AAt?$AAe?$AA?$AN?$AA?6?$AA?$AA@|
  002a8		 |$LN13@OALIntrSta|
  002a8	00000000	 DCD         |dpCurSettings|
  002ac		 |$LN14@OALIntrSta|
  002ac	00000000	 DCD         |g_oalIrq2SysIntr|
  002b0		 |$LN15@OALIntrSta|
  002b0	00000000	 DCD         |g_oalSysIntr2Irq|
  002b4		 |$LN16@OALIntrSta|
  002b4	00000000	 DCD         |??_C@_1EE@DPKCCBO@?$AA?$CL?$AAO?$AAA?$AAL?$AAI?$AAn?$AAt?$AAr?$AAS?$AAt?$AAa?$AAt?$AAi?$AAc?$AAT?$AAr?$AAa?$AAn?$AAs?$AAl?$AAa?$AAt?$AAe?$AA?$CI?$AA?$CF?$AAd?$AA?0?$AA?5?$AA?$CF?$AAd?$AA?$CJ?$AA?$AN@|
  002b8		 |$M39348|

			 ENDP  ; |OALIntrStaticTranslate|

	EXPORT	|??_C@_1EA@JDMBMDEN@?$AA?9?$AAO?$AAA?$AAL?$AAT?$AAr?$AAa?$AAn?$AAs?$AAl?$AAa?$AAt?$AAe?$AAS?$AAy?$AAs?$AAI?$AAn?$AAt?$AAr?$AA?$CI?$AAr?$AAc?$AA?5?$AA?$DN?$AA?5?$AA?$CF?$AAd?$AA?$CJ?$AA?$AN?$AA?6?$AA?$AA@| [ DATA ] ; `string'
	EXPORT	|??_C@_1DG@HAMHNOBJ@?$AA?$CL?$AAO?$AAA?$AAL?$AAT?$AAr?$AAa?$AAn?$AAs?$AAl?$AAa?$AAt?$AAe?$AAS?$AAy?$AAs?$AAI?$AAn?$AAt?$AAr?$AA?$CI?$AA?$CF?$AAd?$AA?$CJ?$AA?$AN?$AA?6?$AA?$AA@| [ DATA ] ; `string'
	EXPORT	|OALIntrTranslateSysIntr|

  00010			 AREA	 |.pdata|, PDATA
|$T39366| DCD	|$LN10@OALIntrTra|
	DCD	0x40004004

  00000			 AREA	 |.rdata|, DATA, READONLY
|??_C@_1EA@JDMBMDEN@?$AA?9?$AAO?$AAA?$AAL?$AAT?$AAr?$AAa?$AAn?$AAs?$AAl?$AAa?$AAt?$AAe?$AAS?$AAy?$AAs?$AAI?$AAn?$AAt?$AAr?$AA?$CI?$AAr?$AAc?$AA?5?$AA?$DN?$AA?5?$AA?$CF?$AAd?$AA?$CJ?$AA?$AN?$AA?6?$AA?$AA@| DCB "-"
	DCB	0x0, "O", 0x0, "A", 0x0, "L", 0x0, "T", 0x0, "r", 0x0, "a"
	DCB	0x0, "n", 0x0, "s", 0x0, "l", 0x0, "a", 0x0, "t", 0x0, "e"
	DCB	0x0, "S", 0x0, "y", 0x0, "s", 0x0, "I", 0x0, "n", 0x0, "t"
	DCB	0x0, "r", 0x0, "(", 0x0, "r", 0x0, "c", 0x0, " ", 0x0, "="
	DCB	0x0, " ", 0x0, "%", 0x0, "d", 0x0, ")", 0x0, 0xd, 0x0, 0xa
	DCB	0x0, 0x0, 0x0				; `string'

  00000			 AREA	 |.rdata|, DATA, READONLY
|??_C@_1DG@HAMHNOBJ@?$AA?$CL?$AAO?$AAA?$AAL?$AAT?$AAr?$AAa?$AAn?$AAs?$AAl?$AAa?$AAt?$AAe?$AAS?$AAy?$AAs?$AAI?$AAn?$AAt?$AAr?$AA?$CI?$AA?$CF?$AAd?$AA?$CJ?$AA?$AN?$AA?6?$AA?$AA@| DCB "+"
	DCB	0x0, "O", 0x0, "A", 0x0, "L", 0x0, "T", 0x0, "r", 0x0, "a"
	DCB	0x0, "n", 0x0, "s", 0x0, "l", 0x0, "a", 0x0, "t", 0x0, "e"
	DCB	0x0, "S", 0x0, "y", 0x0, "s", 0x0, "I", 0x0, "n", 0x0, "t"
	DCB	0x0, "r", 0x0, "(", 0x0, "%", 0x0, "d", 0x0, ")", 0x0, 0xd
	DCB	0x0, 0xa, 0x0, 0x0, 0x0			; `string'
; Function compile flags: /Odtp

  002b8			 AREA	 |.text|, CODE, ARM

  002b8		 |OALIntrTranslateSysIntr| PROC

; 107  : ) {

  002b8		 |$LN10@OALIntrTra|
  002b8	e1a0c00d	 mov         r12, sp
  002bc	e92d0007	 stmdb       sp!, {r0 - r2}
  002c0	e92d5000	 stmdb       sp!, {r12, lr}
  002c4	e24dd010	 sub         sp, sp, #0x10
  002c8		 |$M39363|

; 108  :     BOOL rc;
; 109  : 
; 110  :     OALMSG(OAL_INTR&&OAL_VERBOSE, (L"+OALTranslateSysIntr(%d)\r\n", sysIntr));

  002c8	e59f30dc	 ldr         r3, [pc, #0xDC]
  002cc	e5933440	 ldr         r3, [r3, #0x440]
  002d0	e3130901	 tst         r3, #1, 18
  002d4	0a000009	 beq         |$LN4@OALIntrTra|
  002d8	e59f30cc	 ldr         r3, [pc, #0xCC]
  002dc	e5933440	 ldr         r3, [r3, #0x440]
  002e0	e3130902	 tst         r3, #2, 18
  002e4	0a000005	 beq         |$LN4@OALIntrTra|
  002e8	e59d1018	 ldr         r1, [sp, #0x18]
  002ec	e59f00c0	 ldr         r0, [pc, #0xC0]
  002f0	eb000000	 bl          NKDbgPrintfW
  002f4	e3a03001	 mov         r3, #1
  002f8	e58d3008	 str         r3, [sp, #8]
  002fc	ea000001	 b           |$LN5@OALIntrTra|
  00300		 |$LN4@OALIntrTra|
  00300	e3a03000	 mov         r3, #0
  00304	e58d3008	 str         r3, [sp, #8]
  00308		 |$LN5@OALIntrTra|

; 111  : 
; 112  :     // Valid SYSINTR?
; 113  :     if (sysIntr >= SYSINTR_MAXIMUM)

  00308	e59d3018	 ldr         r3, [sp, #0x18]
  0030c	e3530048	 cmp         r3, #0x48
  00310	3a000002	 bcc         |$LN1@OALIntrTra|

; 114  :         {
; 115  :         rc = FALSE;

  00314	e3a03000	 mov         r3, #0
  00318	e58d3000	 str         r3, [sp]

; 116  :         goto cleanUp;

  0031c	ea00000b	 b           |$cleanUp$39172|
  00320		 |$LN1@OALIntrTra|

; 117  :         }
; 118  :     *pCount = 1;

  00320	e59d201c	 ldr         r2, [sp, #0x1C]
  00324	e3a03001	 mov         r3, #1
  00328	e5823000	 str         r3, [r2]

; 119  :     *ppIrqs = &g_oalSysIntr2Irq[sysIntr];

  0032c	e59d1018	 ldr         r1, [sp, #0x18]
  00330	e3a03004	 mov         r3, #4
  00334	e0020391	 mul         r2, r1, r3
  00338	e59f3070	 ldr         r3, [pc, #0x70]
  0033c	e0832002	 add         r2, r3, r2
  00340	e59d3020	 ldr         r3, [sp, #0x20]
  00344	e5832000	 str         r2, [r3]

; 120  :     rc = TRUE;

  00348	e3a03001	 mov         r3, #1
  0034c	e58d3000	 str         r3, [sp]
  00350		 |$cleanUp$39172|

; 121  : 
; 122  : cleanUp:
; 123  :     OALMSG(OAL_INTR&&OAL_VERBOSE, (L"-OALTranslateSysIntr(rc = %d)\r\n", rc));

  00350	e59f3054	 ldr         r3, [pc, #0x54]
  00354	e5933440	 ldr         r3, [r3, #0x440]
  00358	e3130901	 tst         r3, #1, 18
  0035c	0a000009	 beq         |$LN6@OALIntrTra|
  00360	e59f3044	 ldr         r3, [pc, #0x44]
  00364	e5933440	 ldr         r3, [r3, #0x440]
  00368	e3130902	 tst         r3, #2, 18
  0036c	0a000005	 beq         |$LN6@OALIntrTra|
  00370	e59d1000	 ldr         r1, [sp]
  00374	e59f002c	 ldr         r0, [pc, #0x2C]
  00378	eb000000	 bl          NKDbgPrintfW
  0037c	e3a03001	 mov         r3, #1
  00380	e58d300c	 str         r3, [sp, #0xC]
  00384	ea000001	 b           |$LN7@OALIntrTra|
  00388		 |$LN6@OALIntrTra|
  00388	e3a03000	 mov         r3, #0
  0038c	e58d300c	 str         r3, [sp, #0xC]
  00390		 |$LN7@OALIntrTra|

; 124  :     return rc;

  00390	e59d3000	 ldr         r3, [sp]
  00394	e58d3004	 str         r3, [sp, #4]

; 125  : }

  00398	e59d0004	 ldr         r0, [sp, #4]
  0039c	e28dd010	 add         sp, sp, #0x10
  003a0	e89d6000	 ldmia       sp, {sp, lr}
  003a4	e12fff1e	 bx          lr
  003a8		 |$LN11@OALIntrTra|
  003a8		 |$LN12@OALIntrTra|
  003a8	00000000	 DCD         |??_C@_1EA@JDMBMDEN@?$AA?9?$AAO?$AAA?$AAL?$AAT?$AAr?$AAa?$AAn?$AAs?$AAl?$AAa?$AAt?$AAe?$AAS?$AAy?$AAs?$AAI?$AAn?$AAt?$AAr?$AA?$CI?$AAr?$AAc?$AA?5?$AA?$DN?$AA?5?$AA?$CF?$AAd?$AA?$CJ?$AA?$AN?$AA?6?$AA?$AA@|
  003ac		 |$LN13@OALIntrTra|
  003ac	00000000	 DCD         |dpCurSettings|
  003b0		 |$LN14@OALIntrTra|
  003b0	00000000	 DCD         |g_oalSysIntr2Irq|
  003b4		 |$LN15@OALIntrTra|
  003b4	00000000	 DCD         |??_C@_1DG@HAMHNOBJ@?$AA?$CL?$AAO?$AAA?$AAL?$AAT?$AAr?$AAa?$AAn?$AAs?$AAl?$AAa?$AAt?$AAe?$AAS?$AAy?$AAs?$AAI?$AAn?$AAt?$AAr?$AA?$CI?$AA?$CF?$AAd?$AA?$CJ?$AA?$AN?$AA?6?$AA?$AA@|
  003b8		 |$M39364|

			 ENDP  ; |OALIntrTranslateSysIntr|

	EXPORT	|??_C@_1EK@JOJPHPGP@?$AA?9?$AAO?$AAA?$AAL?$AAI?$AAn?$AAt?$AAr?$AAT?$AAr?$AAa?$AAn?$AAs?$AAl?$AAa?$AAt?$AAe?$AAI?$AAr?$AAq?$AA?$CI?$AAs?$AAy?$AAs?$AAI?$AAn?$AAt?$AAr?$AA?5?$AA?$DN?$AA?5?$AA?$CF@| [ DATA ] ; `string'
	EXPORT	|??_C@_1DG@IAFKCJEB@?$AA?$CL?$AAO?$AAA?$AAL?$AAI?$AAn?$AAt?$AAr?$AAT?$AAr?$AAa?$AAn?$AAs?$AAl?$AAa?$AAt?$AAe?$AAI?$AAr?$AAq?$AA?$CI?$AA?$CF?$AAd?$AA?$CJ?$AA?$AN?$AA?6?$AA?$AA@| [ DATA ] ; `string'
	EXPORT	|OALIntrTranslateIrq|

  00018			 AREA	 |.pdata|, PDATA
|$T39381| DCD	|$LN10@OALIntrTra@2|
	DCD	0x40003b04

  00000			 AREA	 |.rdata|, DATA, READONLY
|??_C@_1EK@JOJPHPGP@?$AA?9?$AAO?$AAA?$AAL?$AAI?$AAn?$AAt?$AAr?$AAT?$AAr?$AAa?$AAn?$AAs?$AAl?$AAa?$AAt?$AAe?$AAI?$AAr?$AAq?$AA?$CI?$AAs?$AAy?$AAs?$AAI?$AAn?$AAt?$AAr?$AA?5?$AA?$DN?$AA?5?$AA?$CF@| DCB "-"
	DCB	0x0, "O", 0x0, "A", 0x0, "L", 0x0, "I", 0x0, "n", 0x0, "t"
	DCB	0x0, "r", 0x0, "T", 0x0, "r", 0x0, "a", 0x0, "n", 0x0, "s"
	DCB	0x0, "l", 0x0, "a", 0x0, "t", 0x0, "e", 0x0, "I", 0x0, "r"
	DCB	0x0, "q", 0x0, "(", 0x0, "s", 0x0, "y", 0x0, "s", 0x0, "I"
	DCB	0x0, "n", 0x0, "t", 0x0, "r", 0x0, " ", 0x0, "=", 0x0, " "
	DCB	0x0, "%", 0x0, "d", 0x0, ")", 0x0, 0xd, 0x0, 0xa, 0x0, 0x0
	DCB	0x0					; `string'

  00000			 AREA	 |.rdata|, DATA, READONLY
|??_C@_1DG@IAFKCJEB@?$AA?$CL?$AAO?$AAA?$AAL?$AAI?$AAn?$AAt?$AAr?$AAT?$AAr?$AAa?$AAn?$AAs?$AAl?$AAa?$AAt?$AAe?$AAI?$AAr?$AAq?$AA?$CI?$AA?$CF?$AAd?$AA?$CJ?$AA?$AN?$AA?6?$AA?$AA@| DCB "+"
	DCB	0x0, "O", 0x0, "A", 0x0, "L", 0x0, "I", 0x0, "n", 0x0, "t"
	DCB	0x0, "r", 0x0, "T", 0x0, "r", 0x0, "a", 0x0, "n", 0x0, "s"
	DCB	0x0, "l", 0x0, "a", 0x0, "t", 0x0, "e", 0x0, "I", 0x0, "r"
	DCB	0x0, "q", 0x0, "(", 0x0, "%", 0x0, "d", 0x0, ")", 0x0, 0xd
	DCB	0x0, 0xa, 0x0, 0x0, 0x0			; `string'
; Function compile flags: /Odtp

  003b8			 AREA	 |.text|, CODE, ARM

  003b8		 |OALIntrTranslateIrq| PROC

; 137  : {

  003b8		 |$LN10@OALIntrTra@2|
  003b8	e1a0c00d	 mov         r12, sp
  003bc	e92d0001	 stmdb       sp!, {r0}
  003c0	e92d5000	 stmdb       sp!, {r12, lr}
  003c4	e24dd010	 sub         sp, sp, #0x10
  003c8		 |$M39378|

; 138  :     UINT32 sysIntr = SYSINTR_UNDEFINED;

  003c8	e3e03000	 mvn         r3, #0
  003cc	e58d3000	 str         r3, [sp]

; 139  : 
; 140  :     OALMSG(OAL_FUNC&&OAL_VERBOSE, (L"+OALIntrTranslateIrq(%d)\r\n", irq));

  003d0	e59f30c0	 ldr         r3, [pc, #0xC0]
  003d4	e5933440	 ldr         r3, [r3, #0x440]
  003d8	e3130004	 tst         r3, #4
  003dc	0a000009	 beq         |$LN4@OALIntrTra@2|
  003e0	e59f30b0	 ldr         r3, [pc, #0xB0]
  003e4	e5933440	 ldr         r3, [r3, #0x440]
  003e8	e3130902	 tst         r3, #2, 18
  003ec	0a000005	 beq         |$LN4@OALIntrTra@2|
  003f0	e59d1018	 ldr         r1, [sp, #0x18]
  003f4	e59f00a4	 ldr         r0, [pc, #0xA4]
  003f8	eb000000	 bl          NKDbgPrintfW
  003fc	e3a03001	 mov         r3, #1
  00400	e58d3008	 str         r3, [sp, #8]
  00404	ea000001	 b           |$LN5@OALIntrTra@2|
  00408		 |$LN4@OALIntrTra@2|
  00408	e3a03000	 mov         r3, #0
  0040c	e58d3008	 str         r3, [sp, #8]
  00410		 |$LN5@OALIntrTra@2|

; 141  : 
; 142  :     if (irq >= OAL_INTR_IRQ_MAXIMUM) goto cleanUp;

  00410	e59d3018	 ldr         r3, [sp, #0x18]
  00414	e3530040	 cmp         r3, #0x40
  00418	3a000000	 bcc         |$LN1@OALIntrTra@2|
  0041c	ea000006	 b           |$cleanUp$39182|
  00420		 |$LN1@OALIntrTra@2|

; 143  :     sysIntr = g_oalIrq2SysIntr[irq];

  00420	e59d1018	 ldr         r1, [sp, #0x18]
  00424	e3a03004	 mov         r3, #4
  00428	e0020391	 mul         r2, r1, r3
  0042c	e59f3068	 ldr         r3, [pc, #0x68]
  00430	e0833002	 add         r3, r3, r2
  00434	e5933000	 ldr         r3, [r3]
  00438	e58d3000	 str         r3, [sp]
  0043c		 |$cleanUp$39182|

; 144  : 
; 145  : cleanUp:
; 146  :     OALMSG(OAL_FUNC&&OAL_VERBOSE, (
; 147  :         L"-OALIntrTranslateIrq(sysIntr = %d)\r\n", sysIntr
; 148  :         ));

  0043c	e59f3054	 ldr         r3, [pc, #0x54]
  00440	e5933440	 ldr         r3, [r3, #0x440]
  00444	e3130004	 tst         r3, #4
  00448	0a000009	 beq         |$LN6@OALIntrTra@2|
  0044c	e59f3044	 ldr         r3, [pc, #0x44]
  00450	e5933440	 ldr         r3, [r3, #0x440]
  00454	e3130902	 tst         r3, #2, 18
  00458	0a000005	 beq         |$LN6@OALIntrTra@2|
  0045c	e59d1000	 ldr         r1, [sp]
  00460	e59f002c	 ldr         r0, [pc, #0x2C]
  00464	eb000000	 bl          NKDbgPrintfW
  00468	e3a03001	 mov         r3, #1
  0046c	e58d300c	 str         r3, [sp, #0xC]
  00470	ea000001	 b           |$LN7@OALIntrTra@2|
  00474		 |$LN6@OALIntrTra@2|
  00474	e3a03000	 mov         r3, #0
  00478	e58d300c	 str         r3, [sp, #0xC]
  0047c		 |$LN7@OALIntrTra@2|

; 149  :     return sysIntr;

  0047c	e59d3000	 ldr         r3, [sp]
  00480	e58d3004	 str         r3, [sp, #4]

; 150  : }

  00484	e59d0004	 ldr         r0, [sp, #4]
  00488	e28dd010	 add         sp, sp, #0x10
  0048c	e89d6000	 ldmia       sp, {sp, lr}
  00490	e12fff1e	 bx          lr
  00494		 |$LN11@OALIntrTra@2|
  00494		 |$LN12@OALIntrTra@2|
  00494	00000000	 DCD         |??_C@_1EK@JOJPHPGP@?$AA?9?$AAO?$AAA?$AAL?$AAI?$AAn?$AAt?$AAr?$AAT?$AAr?$AAa?$AAn?$AAs?$AAl?$AAa?$AAt?$AAe?$AAI?$AAr?$AAq?$AA?$CI?$AAs?$AAy?$AAs?$AAI?$AAn?$AAt?$AAr?$AA?5?$AA?$DN?$AA?5?$AA?$CF@|
  00498		 |$LN13@OALIntrTra@2|
  00498	00000000	 DCD         |dpCurSettings|
  0049c		 |$LN14@OALIntrTra@2|
  0049c	00000000	 DCD         |g_oalIrq2SysIntr|
  004a0		 |$LN15@OALIntrTra@2|
  004a0	00000000	 DCD         |??_C@_1DG@IAFKCJEB@?$AA?$CL?$AAO?$AAA?$AAL?$AAI?$AAn?$AAt?$AAr?$AAT?$AAr?$AAa?$AAn?$AAs?$AAl?$AAa?$AAt?$AAe?$AAI?$AAr?$AAq?$AA?$CI?$AA?$CF?$AAd?$AA?$CJ?$AA?$AN?$AA?6?$AA?$AA@|
  004a4		 |$M39379|

			 ENDP  ; |OALIntrTranslateIrq|

	EXPORT	|??_C@_1EO@CCPDBEFN@?$AA?9?$AAO?$AAA?$AAL?$AAI?$AAn?$AAt?$AAr?$AAR?$AAe?$AAq?$AAu?$AAe?$AAs?$AAt?$AAS?$AAy?$AAs?$AAI?$AAn?$AAt?$AAr?$AA?$CI?$AAs?$AAy?$AAs?$AAI?$AAn?$AAt?$AAr?$AA?5?$AA?$DN@| [ DATA ] ; `string'
	EXPORT	|??_C@_1HE@LGNFBECO@?$AAE?$AAR?$AAR?$AAO?$AAR?$AA?3?$AA?5?$AAO?$AAA?$AAL?$AAI?$AAn?$AAt?$AAr?$AAR?$AAe?$AAq?$AAu?$AAe?$AAs?$AAt?$AAS?$AAy?$AAs?$AAI?$AAn?$AAt?$AAr?$AA?3?$AA?5?$AAN?$AAo@| [ DATA ] ; `string'
	EXPORT	|??_C@_1JG@CKDDKDGB@?$AAE?$AAR?$AAR?$AAO?$AAR?$AA?3?$AA?5?$AAO?$AAA?$AAL?$AAI?$AAn?$AAt?$AAr?$AAR?$AAe?$AAq?$AAu?$AAe?$AAs?$AAt?$AAS?$AAy?$AAs?$AAI?$AAn?$AAt?$AAr?$AA?3?$AA?5?$AAS?$AAt@| [ DATA ] ; `string'
	EXPORT	|??_C@_1FK@JNHCPMAP@?$AA?$CL?$AAO?$AAA?$AAL?$AAI?$AAn?$AAt?$AAr?$AAR?$AAe?$AAq?$AAu?$AAe?$AAs?$AAt?$AAS?$AAy?$AAs?$AAI?$AAn?$AAt?$AAr?$AA?$CI?$AA?$CF?$AAd?$AA?0?$AA?5?$AA0?$AAx?$AA?$CF?$AA0?$AA8@| [ DATA ] ; `string'
	EXPORT	|OALIntrRequestSysIntr|

  00020			 AREA	 |.pdata|, PDATA
|$T39400| DCD	|$LN26@OALIntrReq|
	DCD	0x4000a504

  00000			 AREA	 |.rdata|, DATA, READONLY
|??_C@_1EO@CCPDBEFN@?$AA?9?$AAO?$AAA?$AAL?$AAI?$AAn?$AAt?$AAr?$AAR?$AAe?$AAq?$AAu?$AAe?$AAs?$AAt?$AAS?$AAy?$AAs?$AAI?$AAn?$AAt?$AAr?$AA?$CI?$AAs?$AAy?$AAs?$AAI?$AAn?$AAt?$AAr?$AA?5?$AA?$DN@| DCB "-"
	DCB	0x0, "O", 0x0, "A", 0x0, "L", 0x0, "I", 0x0, "n", 0x0, "t"
	DCB	0x0, "r", 0x0, "R", 0x0, "e", 0x0, "q", 0x0, "u", 0x0, "e"
	DCB	0x0, "s", 0x0, "t", 0x0, "S", 0x0, "y", 0x0, "s", 0x0, "I"
	DCB	0x0, "n", 0x0, "t", 0x0, "r", 0x0, "(", 0x0, "s", 0x0, "y"
	DCB	0x0, "s", 0x0, "I", 0x0, "n", 0x0, "t", 0x0, "r", 0x0, " "
	DCB	0x0, "=", 0x0, " ", 0x0, "%", 0x0, "d", 0x0, ")", 0x0, 0xd
	DCB	0x0, 0xa, 0x0, 0x0, 0x0			; `string'

  00000			 AREA	 |.rdata|, DATA, READONLY
|??_C@_1HE@LGNFBECO@?$AAE?$AAR?$AAR?$AAO?$AAR?$AA?3?$AA?5?$AAO?$AAA?$AAL?$AAI?$AAn?$AAt?$AAr?$AAR?$AAe?$AAq?$AAu?$AAe?$AAs?$AAt?$AAS?$AAy?$AAs?$AAI?$AAn?$AAt?$AAr?$AA?3?$AA?5?$AAN?$AAo@| DCB "E"
	DCB	0x0, "R", 0x0, "R", 0x0, "O", 0x0, "R", 0x0, ":", 0x0, " "
	DCB	0x0, "O", 0x0, "A", 0x0, "L", 0x0, "I", 0x0, "n", 0x0, "t"
	DCB	0x0, "r", 0x0, "R", 0x0, "e", 0x0, "q", 0x0, "u", 0x0, "e"
	DCB	0x0, "s", 0x0, "t", 0x0, "S", 0x0, "y", 0x0, "s", 0x0, "I"
	DCB	0x0, "n", 0x0, "t", 0x0, "r", 0x0, ":", 0x0, " ", 0x0, "N"
	DCB	0x0, "o", 0x0, " ", 0x0, "a", 0x0, "v", 0x0, "a", 0x0, "i"
	DCB	0x0, "a", 0x0, "b", 0x0, "l", 0x0, "e", 0x0, " ", 0x0, "S"
	DCB	0x0, "Y", 0x0, "S", 0x0, "I", 0x0, "N", 0x0, "T", 0x0, "R"
	DCB	0x0, " ", 0x0, "f", 0x0, "o", 0x0, "u", 0x0, "n", 0x0, "d"
	DCB	0x0, 0xd, 0x0, 0xa, 0x0, 0x0, 0x0	; `string'

  00000			 AREA	 |.rdata|, DATA, READONLY
|??_C@_1JG@CKDDKDGB@?$AAE?$AAR?$AAR?$AAO?$AAR?$AA?3?$AA?5?$AAO?$AAA?$AAL?$AAI?$AAn?$AAt?$AAr?$AAR?$AAe?$AAq?$AAu?$AAe?$AAs?$AAt?$AAS?$AAy?$AAs?$AAI?$AAn?$AAt?$AAr?$AA?3?$AA?5?$AAS?$AAt@| DCB "E"
	DCB	0x0, "R", 0x0, "R", 0x0, "O", 0x0, "R", 0x0, ":", 0x0, " "
	DCB	0x0, "O", 0x0, "A", 0x0, "L", 0x0, "I", 0x0, "n", 0x0, "t"
	DCB	0x0, "r", 0x0, "R", 0x0, "e", 0x0, "q", 0x0, "u", 0x0, "e"
	DCB	0x0, "s", 0x0, "t", 0x0, "S", 0x0, "y", 0x0, "s", 0x0, "I"
	DCB	0x0, "n", 0x0, "t", 0x0, "r", 0x0, ":", 0x0, " ", 0x0, "S"
	DCB	0x0, "t", 0x0, "a", 0x0, "t", 0x0, "i", 0x0, "c", 0x0, " "
	DCB	0x0, "m", 0x0, "a", 0x0, "p", 0x0, "p", 0x0, "i", 0x0, "n"
	DCB	0x0, "g", 0x0, " ", 0x0, "f", 0x0, "o", 0x0, "r", 0x0, " "
	DCB	0x0, "I", 0x0, "R", 0x0, "Q", 0x0, " ", 0x0, "%", 0x0, "d"
	DCB	0x0, " ", 0x0, "a", 0x0, "l", 0x0, "r", 0x0, "e", 0x0, "a"
	DCB	0x0, "d", 0x0, "y", 0x0, " ", 0x0, "a", 0x0, "s", 0x0, "s"
	DCB	0x0, "i", 0x0, "g", 0x0, "n", 0x0, "e", 0x0, "d", 0x0, 0xd
	DCB	0x0, 0xa, 0x0, 0x0, 0x0			; `string'

  00000			 AREA	 |.rdata|, DATA, READONLY
|??_C@_1FK@JNHCPMAP@?$AA?$CL?$AAO?$AAA?$AAL?$AAI?$AAn?$AAt?$AAr?$AAR?$AAe?$AAq?$AAu?$AAe?$AAs?$AAt?$AAS?$AAy?$AAs?$AAI?$AAn?$AAt?$AAr?$AA?$CI?$AA?$CF?$AAd?$AA?0?$AA?5?$AA0?$AAx?$AA?$CF?$AA0?$AA8@| DCB "+"
	DCB	0x0, "O", 0x0, "A", 0x0, "L", 0x0, "I", 0x0, "n", 0x0, "t"
	DCB	0x0, "r", 0x0, "R", 0x0, "e", 0x0, "q", 0x0, "u", 0x0, "e"
	DCB	0x0, "s", 0x0, "t", 0x0, "S", 0x0, "y", 0x0, "s", 0x0, "I"
	DCB	0x0, "n", 0x0, "t", 0x0, "r", 0x0, "(", 0x0, "%", 0x0, "d"
	DCB	0x0, ",", 0x0, " ", 0x0, "0", 0x0, "x", 0x0, "%", 0x0, "0"
	DCB	0x0, "8", 0x0, "x", 0x0, ",", 0x0, " ", 0x0, "0", 0x0, "x"
	DCB	0x0, "%", 0x0, "0", 0x0, "8", 0x0, "x", 0x0, ")", 0x0, 0xd
	DCB	0x0, 0xa, 0x0, 0x0, 0x0			; `string'
; Function compile flags: /Odtp

  004a4			 AREA	 |.text|, CODE, ARM

  004a4		 |OALIntrRequestSysIntr| PROC

; 165  : {

  004a4		 |$LN26@OALIntrReq|
  004a4	e1a0c00d	 mov         r12, sp
  004a8	e92d0007	 stmdb       sp!, {r0 - r2}
  004ac	e92d5000	 stmdb       sp!, {r12, lr}
  004b0	e24dd01c	 sub         sp, sp, #0x1C
  004b4		 |$M39397|

; 166  :     UINT32 irq, sysIntr;
; 167  : 
; 168  :     OALMSG(OAL_INTR&&OAL_FUNC, (
; 169  :         L"+OALIntrRequestSysIntr(%d, 0x%08x, 0x%08x)\r\n", count, pIrqs, flags
; 170  :         ));

  004b4	e59f3264	 ldr         r3, [pc, #0x264]
  004b8	e5933440	 ldr         r3, [r3, #0x440]
  004bc	e3130901	 tst         r3, #1, 18
  004c0	0a00000b	 beq         |$LN16@OALIntrReq|
  004c4	e59f3254	 ldr         r3, [pc, #0x254]
  004c8	e5933440	 ldr         r3, [r3, #0x440]
  004cc	e3130004	 tst         r3, #4
  004d0	0a000007	 beq         |$LN16@OALIntrReq|
  004d4	e59d302c	 ldr         r3, [sp, #0x2C]
  004d8	e59d2028	 ldr         r2, [sp, #0x28]
  004dc	e59d1024	 ldr         r1, [sp, #0x24]
  004e0	e59f024c	 ldr         r0, [pc, #0x24C]
  004e4	eb000000	 bl          NKDbgPrintfW
  004e8	e3a03001	 mov         r3, #1
  004ec	e58d300c	 str         r3, [sp, #0xC]
  004f0	ea000001	 b           |$LN17@OALIntrReq|
  004f4		 |$LN16@OALIntrReq|
  004f4	e3a03000	 mov         r3, #0
  004f8	e58d300c	 str         r3, [sp, #0xC]
  004fc		 |$LN17@OALIntrReq|

; 171  : 
; 172  :     irq = pIrqs[0];

  004fc	e59d3028	 ldr         r3, [sp, #0x28]
  00500	e5933000	 ldr         r3, [r3]
  00504	e58d3004	 str         r3, [sp, #4]

; 173  : 
; 174  :     // Valid IRQ?
; 175  :     if (count != 1 || irq >= OAL_INTR_IRQ_MAXIMUM)

  00508	e59d3024	 ldr         r3, [sp, #0x24]
  0050c	e3530001	 cmp         r3, #1
  00510	1a000002	 bne         |$LN12@OALIntrReq|
  00514	e59d3004	 ldr         r3, [sp, #4]
  00518	e3530040	 cmp         r3, #0x40
  0051c	3a000002	 bcc         |$LN13@OALIntrReq|
  00520		 |$LN12@OALIntrReq|

; 176  :         {
; 177  :         sysIntr = SYSINTR_UNDEFINED;

  00520	e3e03000	 mvn         r3, #0
  00524	e58d3000	 str         r3, [sp]

; 178  :         goto cleanUp;

  00528	ea000065	 b           |$cleanUp$39198|
  0052c		 |$LN13@OALIntrReq|

; 179  :         }
; 180  : 
; 181  :     // If there is mapping for given irq check for special cases
; 182  :     if (g_oalIrq2SysIntr[irq] != SYSINTR_UNDEFINED)

  0052c	e59d1004	 ldr         r1, [sp, #4]
  00530	e3a03004	 mov         r3, #4
  00534	e0020391	 mul         r2, r1, r3
  00538	e59f31e4	 ldr         r3, [pc, #0x1E4]
  0053c	e0833002	 add         r3, r3, r2
  00540	e5933000	 ldr         r3, [r3]
  00544	e3730001	 cmn         r3, #1
  00548	0a00001c	 beq         |$LN11@OALIntrReq|

; 183  :         {
; 184  :         // If static mapping is requested we fail
; 185  :         if ((flags & OAL_INTR_STATIC) != 0)

  0054c	e59d302c	 ldr         r3, [sp, #0x2C]
  00550	e3130002	 tst         r3, #2
  00554	0a00000e	 beq         |$LN10@OALIntrReq|

; 186  :             {
; 187  :             OALMSG(OAL_ERROR, (L"ERROR: OALIntrRequestSysIntr: "
; 188  :                 L"Static mapping for IRQ %d already assigned\r\n", irq
; 189  :                 ));

  00558	e59f31c0	 ldr         r3, [pc, #0x1C0]
  0055c	e5933440	 ldr         r3, [r3, #0x440]
  00560	e3130001	 tst         r3, #1
  00564	0a000005	 beq         |$LN18@OALIntrReq|
  00568	e59d1004	 ldr         r1, [sp, #4]
  0056c	e59f01bc	 ldr         r0, [pc, #0x1BC]
  00570	eb000000	 bl          NKDbgPrintfW
  00574	e3a03001	 mov         r3, #1
  00578	e58d3010	 str         r3, [sp, #0x10]
  0057c	ea000001	 b           |$LN19@OALIntrReq|
  00580		 |$LN18@OALIntrReq|
  00580	e3a03000	 mov         r3, #0
  00584	e58d3010	 str         r3, [sp, #0x10]
  00588		 |$LN19@OALIntrReq|

; 190  :             sysIntr = SYSINTR_UNDEFINED;

  00588	e3e03000	 mvn         r3, #0
  0058c	e58d3000	 str         r3, [sp]

; 191  :             goto cleanUp;

  00590	ea00004b	 b           |$cleanUp$39198|
  00594		 |$LN10@OALIntrReq|

; 192  :             }
; 193  :         // If we should translate, return existing SYSINTR
; 194  :         if ((flags & OAL_INTR_TRANSLATE) != 0)

  00594	e59d302c	 ldr         r3, [sp, #0x2C]
  00598	e3130008	 tst         r3, #8
  0059c	0a000007	 beq         |$LN9@OALIntrReq|

; 195  :             {
; 196  :             sysIntr = g_oalIrq2SysIntr[irq];

  005a0	e59d1004	 ldr         r1, [sp, #4]
  005a4	e3a03004	 mov         r3, #4
  005a8	e0020391	 mul         r2, r1, r3
  005ac	e59f3170	 ldr         r3, [pc, #0x170]
  005b0	e0833002	 add         r3, r3, r2
  005b4	e5933000	 ldr         r3, [r3]
  005b8	e58d3000	 str         r3, [sp]

; 197  :             goto cleanUp;

  005bc	ea000040	 b           |$cleanUp$39198|
  005c0		 |$LN9@OALIntrReq|
  005c0		 |$LN11@OALIntrReq|

; 198  :             }
; 199  :         }
; 200  : 
; 201  :     // Find next available SYSINTR value...
; 202  :     for (sysIntr = SYSINTR_FIRMWARE; sysIntr < SYSINTR_MAXIMUM; sysIntr++)

  005c0	e3a03010	 mov         r3, #0x10
  005c4	e58d3000	 str         r3, [sp]
  005c8	ea000002	 b           |$LN8@OALIntrReq|
  005cc		 |$LN7@OALIntrReq|
  005cc	e59d3000	 ldr         r3, [sp]
  005d0	e2833001	 add         r3, r3, #1
  005d4	e58d3000	 str         r3, [sp]
  005d8		 |$LN8@OALIntrReq|
  005d8	e59d3000	 ldr         r3, [sp]
  005dc	e3530048	 cmp         r3, #0x48
  005e0	2a000009	 bcs         |$LN6@OALIntrReq|

; 203  :         {
; 204  :         if (g_oalSysIntr2Irq[sysIntr] == OAL_INTR_IRQ_UNDEFINED) break;

  005e4	e59d1000	 ldr         r1, [sp]
  005e8	e3a03004	 mov         r3, #4
  005ec	e0020391	 mul         r2, r1, r3
  005f0	e59f3130	 ldr         r3, [pc, #0x130]
  005f4	e0833002	 add         r3, r3, r2
  005f8	e5933000	 ldr         r3, [r3]
  005fc	e3730001	 cmn         r3, #1
  00600	1a000000	 bne         |$LN5@OALIntrReq|
  00604	ea000000	 b           |$LN6@OALIntrReq|
  00608		 |$LN5@OALIntrReq|

; 205  :         }

  00608	eaffffef	 b           |$LN7@OALIntrReq|
  0060c		 |$LN6@OALIntrReq|

; 206  : 
; 207  :     // Any available SYSINTRs left?
; 208  :     if (sysIntr >= SYSINTR_MAXIMUM)

  0060c	e59d3000	 ldr         r3, [sp]
  00610	e3530048	 cmp         r3, #0x48
  00614	3a00000d	 bcc         |$LN4@OALIntrReq|

; 209  :         {
; 210  :         OALMSG(OAL_ERROR, (L"ERROR: OALIntrRequestSysIntr: "
; 211  :             L"No avaiable SYSINTR found\r\n"
; 212  :             ));

  00618	e59f3100	 ldr         r3, [pc, #0x100]
  0061c	e5933440	 ldr         r3, [r3, #0x440]
  00620	e3130001	 tst         r3, #1
  00624	0a000004	 beq         |$LN20@OALIntrReq|
  00628	e59f00fc	 ldr         r0, [pc, #0xFC]
  0062c	eb000000	 bl          NKDbgPrintfW
  00630	e3a03001	 mov         r3, #1
  00634	e58d3014	 str         r3, [sp, #0x14]
  00638	ea000001	 b           |$LN21@OALIntrReq|
  0063c		 |$LN20@OALIntrReq|
  0063c	e3a03000	 mov         r3, #0
  00640	e58d3014	 str         r3, [sp, #0x14]
  00644		 |$LN21@OALIntrReq|

; 213  :         sysIntr = SYSINTR_UNDEFINED;

  00644	e3e03000	 mvn         r3, #0
  00648	e58d3000	 str         r3, [sp]

; 214  :         goto cleanUp;

  0064c	ea00001c	 b           |$cleanUp$39198|
  00650		 |$LN4@OALIntrReq|

; 215  :         }
; 216  : 
; 217  :     // Make SYSINTR -> IRQ association.
; 218  :     g_oalSysIntr2Irq[sysIntr] = irq;

  00650	e59d1000	 ldr         r1, [sp]
  00654	e3a03004	 mov         r3, #4
  00658	e0020391	 mul         r2, r1, r3
  0065c	e59f30c4	 ldr         r3, [pc, #0xC4]
  00660	e0832002	 add         r2, r3, r2
  00664	e59d3004	 ldr         r3, [sp, #4]
  00668	e5823000	 str         r3, [r2]

; 219  : 
; 220  :     // Make IRQ -> SYSINTR association if required
; 221  :     if ((flags & OAL_INTR_DYNAMIC) != 0) goto cleanUp;

  0066c	e59d302c	 ldr         r3, [sp, #0x2C]
  00670	e3130001	 tst         r3, #1
  00674	0a000000	 beq         |$LN3@OALIntrReq|
  00678	ea000011	 b           |$cleanUp$39198|
  0067c		 |$LN3@OALIntrReq|

; 222  :     if ((g_oalIrq2SysIntr[irq] == SYSINTR_UNDEFINED) ||
; 223  :         ((flags & OAL_INTR_FORCE_STATIC) != 0))

  0067c	e59d1004	 ldr         r1, [sp, #4]
  00680	e3a03004	 mov         r3, #4
  00684	e0020391	 mul         r2, r1, r3
  00688	e59f3094	 ldr         r3, [pc, #0x94]
  0068c	e0833002	 add         r3, r3, r2
  00690	e5933000	 ldr         r3, [r3]
  00694	e3730001	 cmn         r3, #1
  00698	0a000002	 beq         |$LN1@OALIntrReq|
  0069c	e59d302c	 ldr         r3, [sp, #0x2C]
  006a0	e3130004	 tst         r3, #4
  006a4	0a000006	 beq         |$LN2@OALIntrReq|
  006a8		 |$LN1@OALIntrReq|

; 224  :         {
; 225  :         g_oalIrq2SysIntr[irq] = sysIntr;

  006a8	e59d1004	 ldr         r1, [sp, #4]
  006ac	e3a03004	 mov         r3, #4
  006b0	e0020391	 mul         r2, r1, r3
  006b4	e59f3068	 ldr         r3, [pc, #0x68]
  006b8	e0832002	 add         r2, r3, r2
  006bc	e59d3000	 ldr         r3, [sp]
  006c0	e5823000	 str         r3, [r2]
  006c4		 |$LN2@OALIntrReq|
  006c4		 |$cleanUp$39198|

; 226  :         }
; 227  : 
; 228  : cleanUp:
; 229  :     OALMSG(OAL_INTR&&OAL_FUNC, (
; 230  :         L"-OALIntrRequestSysIntr(sysIntr = %d)\r\n", sysIntr
; 231  :         ));

  006c4	e59f3054	 ldr         r3, [pc, #0x54]
  006c8	e5933440	 ldr         r3, [r3, #0x440]
  006cc	e3130901	 tst         r3, #1, 18
  006d0	0a000009	 beq         |$LN22@OALIntrReq|
  006d4	e59f3044	 ldr         r3, [pc, #0x44]
  006d8	e5933440	 ldr         r3, [r3, #0x440]
  006dc	e3130004	 tst         r3, #4
  006e0	0a000005	 beq         |$LN22@OALIntrReq|
  006e4	e59d1000	 ldr         r1, [sp]
  006e8	e59f002c	 ldr         r0, [pc, #0x2C]
  006ec	eb000000	 bl          NKDbgPrintfW
  006f0	e3a03001	 mov         r3, #1
  006f4	e58d3018	 str         r3, [sp, #0x18]
  006f8	ea000001	 b           |$LN23@OALIntrReq|
  006fc		 |$LN22@OALIntrReq|
  006fc	e3a03000	 mov         r3, #0
  00700	e58d3018	 str         r3, [sp, #0x18]
  00704		 |$LN23@OALIntrReq|

; 232  :     return sysIntr;

  00704	e59d3000	 ldr         r3, [sp]
  00708	e58d3008	 str         r3, [sp, #8]

; 233  : }

  0070c	e59d0008	 ldr         r0, [sp, #8]
  00710	e28dd01c	 add         sp, sp, #0x1C
  00714	e89d6000	 ldmia       sp, {sp, lr}
  00718	e12fff1e	 bx          lr
  0071c		 |$LN27@OALIntrReq|
  0071c		 |$LN28@OALIntrReq|
  0071c	00000000	 DCD         |??_C@_1EO@CCPDBEFN@?$AA?9?$AAO?$AAA?$AAL?$AAI?$AAn?$AAt?$AAr?$AAR?$AAe?$AAq?$AAu?$AAe?$AAs?$AAt?$AAS?$AAy?$AAs?$AAI?$AAn?$AAt?$AAr?$AA?$CI?$AAs?$AAy?$AAs?$AAI?$AAn?$AAt?$AAr?$AA?5?$AA?$DN@|
  00720		 |$LN29@OALIntrReq|
  00720	00000000	 DCD         |dpCurSettings|
  00724		 |$LN30@OALIntrReq|
  00724	00000000	 DCD         |g_oalIrq2SysIntr|
  00728		 |$LN31@OALIntrReq|
  00728	00000000	 DCD         |g_oalSysIntr2Irq|
  0072c		 |$LN32@OALIntrReq|
  0072c	00000000	 DCD         |??_C@_1HE@LGNFBECO@?$AAE?$AAR?$AAR?$AAO?$AAR?$AA?3?$AA?5?$AAO?$AAA?$AAL?$AAI?$AAn?$AAt?$AAr?$AAR?$AAe?$AAq?$AAu?$AAe?$AAs?$AAt?$AAS?$AAy?$AAs?$AAI?$AAn?$AAt?$AAr?$AA?3?$AA?5?$AAN?$AAo@|
  00730		 |$LN33@OALIntrReq|
  00730	00000000	 DCD         |??_C@_1JG@CKDDKDGB@?$AAE?$AAR?$AAR?$AAO?$AAR?$AA?3?$AA?5?$AAO?$AAA?$AAL?$AAI?$AAn?$AAt?$AAr?$AAR?$AAe?$AAq?$AAu?$AAe?$AAs?$AAt?$AAS?$AAy?$AAs?$AAI?$AAn?$AAt?$AAr?$AA?3?$AA?5?$AAS?$AAt@|
  00734		 |$LN34@OALIntrReq|
  00734	00000000	 DCD         |??_C@_1FK@JNHCPMAP@?$AA?$CL?$AAO?$AAA?$AAL?$AAI?$AAn?$AAt?$AAr?$AAR?$AAe?$AAq?$AAu?$AAe?$AAs?$AAt?$AAS?$AAy?$AAs?$AAI?$AAn?$AAt?$AAr?$AA?$CI?$AA?$CF?$AAd?$AA?0?$AA?5?$AA0?$AAx?$AA?$CF?$AA0?$AA8@|
  00738		 |$M39398|

			 ENDP  ; |OALIntrRequestSysIntr|

	EXPORT	|??_C@_1EE@GBADJBKJ@?$AA?9?$AAO?$AAA?$AAL?$AAI?$AAn?$AAt?$AAr?$AAR?$AAe?$AAl?$AAe?$AAa?$AAs?$AAe?$AAS?$AAy?$AAs?$AAI?$AAn?$AAt?$AAr?$AA?$CI?$AAr?$AAc?$AA?5?$AA?$DN?$AA?5?$AA?$CF?$AAd?$AA?$CJ?$AA?$AN@| [ DATA ] ; `string'
	EXPORT	|??_C@_1HC@BIEMDHNG@?$AAE?$AAR?$AAR?$AAO?$AAR?$AA?3?$AA?5?$AAO?$AAA?$AAL?$AAI?$AAn?$AAt?$AAr?$AAR?$AAe?$AAl?$AAe?$AAa?$AAs?$AAe?$AAS?$AAy?$AAs?$AAI?$AAn?$AAt?$AAr?$AA?3?$AA?5?$AAI?$AAn@| [ DATA ] ; `string'
	EXPORT	|??_C@_1DK@GDEEGDPM@?$AA?$CL?$AAO?$AAA?$AAL?$AAI?$AAn?$AAt?$AAr?$AAR?$AAe?$AAl?$AAe?$AAa?$AAs?$AAe?$AAS?$AAy?$AAs?$AAI?$AAn?$AAt?$AAr?$AA?$CI?$AA?$CF?$AAd?$AA?$CJ?$AA?$AN?$AA?6?$AA?$AA@| [ DATA ] ; `string'
	EXPORT	|OALIntrReleaseSysIntr|

  00028			 AREA	 |.pdata|, PDATA
|$T39420| DCD	|$LN15@OALIntrRel|
	DCD	0x40006e04

  00000			 AREA	 |.rdata|, DATA, READONLY
|??_C@_1EE@GBADJBKJ@?$AA?9?$AAO?$AAA?$AAL?$AAI?$AAn?$AAt?$AAr?$AAR?$AAe?$AAl?$AAe?$AAa?$AAs?$AAe?$AAS?$AAy?$AAs?$AAI?$AAn?$AAt?$AAr?$AA?$CI?$AAr?$AAc?$AA?5?$AA?$DN?$AA?5?$AA?$CF?$AAd?$AA?$CJ?$AA?$AN@| DCB "-"
	DCB	0x0, "O", 0x0, "A", 0x0, "L", 0x0, "I", 0x0, "n", 0x0, "t"
	DCB	0x0, "r", 0x0, "R", 0x0, "e", 0x0, "l", 0x0, "e", 0x0, "a"
	DCB	0x0, "s", 0x0, "e", 0x0, "S", 0x0, "y", 0x0, "s", 0x0, "I"
	DCB	0x0, "n", 0x0, "t", 0x0, "r", 0x0, "(", 0x0, "r", 0x0, "c"
	DCB	0x0, " ", 0x0, "=", 0x0, " ", 0x0, "%", 0x0, "d", 0x0, ")"
	DCB	0x0, 0xd, 0x0, 0xa, 0x0, 0x0, 0x0	; `string'

  00000			 AREA	 |.rdata|, DATA, READONLY
|??_C@_1HC@BIEMDHNG@?$AAE?$AAR?$AAR?$AAO?$AAR?$AA?3?$AA?5?$AAO?$AAA?$AAL?$AAI?$AAn?$AAt?$AAr?$AAR?$AAe?$AAl?$AAe?$AAa?$AAs?$AAe?$AAS?$AAy?$AAs?$AAI?$AAn?$AAt?$AAr?$AA?3?$AA?5?$AAI?$AAn@| DCB "E"
	DCB	0x0, "R", 0x0, "R", 0x0, "O", 0x0, "R", 0x0, ":", 0x0, " "
	DCB	0x0, "O", 0x0, "A", 0x0, "L", 0x0, "I", 0x0, "n", 0x0, "t"
	DCB	0x0, "r", 0x0, "R", 0x0, "e", 0x0, "l", 0x0, "e", 0x0, "a"
	DCB	0x0, "s", 0x0, "e", 0x0, "S", 0x0, "y", 0x0, "s", 0x0, "I"
	DCB	0x0, "n", 0x0, "t", 0x0, "r", 0x0, ":", 0x0, " ", 0x0, "I"
	DCB	0x0, "n", 0x0, "v", 0x0, "a", 0x0, "l", 0x0, "i", 0x0, "d"
	DCB	0x0, " ", 0x0, "s", 0x0, "y", 0x0, "s", 0x0, "I", 0x0, "n"
	DCB	0x0, "t", 0x0, "r", 0x0, " ", 0x0, "v", 0x0, "a", 0x0, "l"
	DCB	0x0, "u", 0x0, "e", 0x0, " ", 0x0, "%", 0x0, "d", 0x0, 0xd
	DCB	0x0, 0xa, 0x0, 0x0, 0x0			; `string'

  00000			 AREA	 |.rdata|, DATA, READONLY
|??_C@_1DK@GDEEGDPM@?$AA?$CL?$AAO?$AAA?$AAL?$AAI?$AAn?$AAt?$AAr?$AAR?$AAe?$AAl?$AAe?$AAa?$AAs?$AAe?$AAS?$AAy?$AAs?$AAI?$AAn?$AAt?$AAr?$AA?$CI?$AA?$CF?$AAd?$AA?$CJ?$AA?$AN?$AA?6?$AA?$AA@| DCB "+"
	DCB	0x0, "O", 0x0, "A", 0x0, "L", 0x0, "I", 0x0, "n", 0x0, "t"
	DCB	0x0, "r", 0x0, "R", 0x0, "e", 0x0, "l", 0x0, "e", 0x0, "a"
	DCB	0x0, "s", 0x0, "e", 0x0, "S", 0x0, "y", 0x0, "s", 0x0, "I"
	DCB	0x0, "n", 0x0, "t", 0x0, "r", 0x0, "(", 0x0, "%", 0x0, "d"
	DCB	0x0, ")", 0x0, 0xd, 0x0, 0xa, 0x0, 0x0, 0x0 ; `string'
; Function compile flags: /Odtp

  00738			 AREA	 |.text|, CODE, ARM

  00738		 |OALIntrReleaseSysIntr| PROC

; 245  : {

  00738		 |$LN15@OALIntrRel|
  00738	e1a0c00d	 mov         r12, sp
  0073c	e92d0001	 stmdb       sp!, {r0}
  00740	e92d5000	 stmdb       sp!, {r12, lr}
  00744	e24dd018	 sub         sp, sp, #0x18
  00748		 |$M39417|

; 246  :     BOOL rc = FALSE;

  00748	e3a03000	 mov         r3, #0
  0074c	e58d3000	 str         r3, [sp]

; 247  :     UINT32 irq;
; 248  : 
; 249  :     OALMSG(OAL_INTR&&OAL_FUNC, (L"+OALIntrReleaseSysIntr(%d)\r\n", sysIntr));

  00750	e59f3184	 ldr         r3, [pc, #0x184]
  00754	e5933440	 ldr         r3, [r3, #0x440]
  00758	e3130901	 tst         r3, #1, 18
  0075c	0a000009	 beq         |$LN7@OALIntrRel|
  00760	e59f3174	 ldr         r3, [pc, #0x174]
  00764	e5933440	 ldr         r3, [r3, #0x440]
  00768	e3130004	 tst         r3, #4
  0076c	0a000005	 beq         |$LN7@OALIntrRel|
  00770	e59d1020	 ldr         r1, [sp, #0x20]
  00774	e59f0170	 ldr         r0, [pc, #0x170]
  00778	eb000000	 bl          NKDbgPrintfW
  0077c	e3a03001	 mov         r3, #1
  00780	e58d300c	 str         r3, [sp, #0xC]
  00784	ea000001	 b           |$LN8@OALIntrRel|
  00788		 |$LN7@OALIntrRel|
  00788	e3a03000	 mov         r3, #0
  0078c	e58d300c	 str         r3, [sp, #0xC]
  00790		 |$LN8@OALIntrRel|

; 250  : 
; 251  :     // is Valid sysIntr?
; 252  :     if ((sysIntr < SYSINTR_FIRMWARE) || (sysIntr >= SYSINTR_MAXIMUM))

  00790	e59d3020	 ldr         r3, [sp, #0x20]
  00794	e3530010	 cmp         r3, #0x10
  00798	3a000002	 bcc         |$LN3@OALIntrRel|
  0079c	e59d3020	 ldr         r3, [sp, #0x20]
  007a0	e3530048	 cmp         r3, #0x48
  007a4	3a00000c	 bcc         |$LN4@OALIntrRel|
  007a8		 |$LN3@OALIntrRel|

; 253  :         {
; 254  :         OALMSG(OAL_ERROR, (L"ERROR: OALIntrReleaseSysIntr: "
; 255  :             L"Invalid sysIntr value %d\r\n", sysIntr
; 256  :             ));

  007a8	e59f312c	 ldr         r3, [pc, #0x12C]
  007ac	e5933440	 ldr         r3, [r3, #0x440]
  007b0	e3130001	 tst         r3, #1
  007b4	0a000005	 beq         |$LN9@OALIntrRel|
  007b8	e59d1020	 ldr         r1, [sp, #0x20]
  007bc	e59f0124	 ldr         r0, [pc, #0x124]
  007c0	eb000000	 bl          NKDbgPrintfW
  007c4	e3a03001	 mov         r3, #1
  007c8	e58d3010	 str         r3, [sp, #0x10]
  007cc	ea000001	 b           |$LN10@OALIntrRel|
  007d0		 |$LN9@OALIntrRel|
  007d0	e3a03000	 mov         r3, #0
  007d4	e58d3010	 str         r3, [sp, #0x10]
  007d8		 |$LN10@OALIntrRel|

; 257  :         goto cleanUp;

  007d8	ea000028	 b           |$cleanUp$39227|
  007dc		 |$LN4@OALIntrRel|

; 258  :         }
; 259  : 
; 260  :     // Is the SYSINTR already released?
; 261  :     if (g_oalSysIntr2Irq[sysIntr] == OAL_INTR_IRQ_UNDEFINED) goto cleanUp;

  007dc	e59d1020	 ldr         r1, [sp, #0x20]
  007e0	e3a03004	 mov         r3, #4
  007e4	e0020391	 mul         r2, r1, r3
  007e8	e59f30f4	 ldr         r3, [pc, #0xF4]
  007ec	e0833002	 add         r3, r3, r2
  007f0	e5933000	 ldr         r3, [r3]
  007f4	e3730001	 cmn         r3, #1
  007f8	1a000000	 bne         |$LN2@OALIntrRel|
  007fc	ea00001f	 b           |$cleanUp$39227|
  00800		 |$LN2@OALIntrRel|

; 262  : 
; 263  :     // Remove the SYSINTR -> IRQ mapping
; 264  :     irq = g_oalSysIntr2Irq[sysIntr];

  00800	e59d1020	 ldr         r1, [sp, #0x20]
  00804	e3a03004	 mov         r3, #4
  00808	e0020391	 mul         r2, r1, r3
  0080c	e59f30d0	 ldr         r3, [pc, #0xD0]
  00810	e0833002	 add         r3, r3, r2
  00814	e5933000	 ldr         r3, [r3]
  00818	e58d3004	 str         r3, [sp, #4]

; 265  :     g_oalSysIntr2Irq[sysIntr] = OAL_INTR_IRQ_UNDEFINED;

  0081c	e59d1020	 ldr         r1, [sp, #0x20]
  00820	e3a03004	 mov         r3, #4
  00824	e0020391	 mul         r2, r1, r3
  00828	e59f30b4	 ldr         r3, [pc, #0xB4]
  0082c	e0832002	 add         r2, r3, r2
  00830	e3e03000	 mvn         r3, #0
  00834	e5823000	 str         r3, [r2]

; 266  : 
; 267  :     // If we're releasing the SYSINTR directly mapped in the IRQ mapping,
; 268  :     // remove the IRQ mapping also
; 269  :     if (g_oalIrq2SysIntr[irq] == sysIntr)

  00838	e59d1004	 ldr         r1, [sp, #4]
  0083c	e3a03004	 mov         r3, #4
  00840	e0020391	 mul         r2, r1, r3
  00844	e59f3094	 ldr         r3, [pc, #0x94]
  00848	e0833002	 add         r3, r3, r2
  0084c	e5932000	 ldr         r2, [r3]
  00850	e59d3020	 ldr         r3, [sp, #0x20]
  00854	e1520003	 cmp         r2, r3
  00858	1a000006	 bne         |$LN1@OALIntrRel|

; 270  :         {
; 271  :         g_oalIrq2SysIntr[irq] = SYSINTR_UNDEFINED;

  0085c	e59d1004	 ldr         r1, [sp, #4]
  00860	e3a03004	 mov         r3, #4
  00864	e0020391	 mul         r2, r1, r3
  00868	e59f3070	 ldr         r3, [pc, #0x70]
  0086c	e0832002	 add         r2, r3, r2
  00870	e3e03000	 mvn         r3, #0
  00874	e5823000	 str         r3, [r2]
  00878		 |$LN1@OALIntrRel|

; 272  :         }
; 273  : 
; 274  :     rc = TRUE;

  00878	e3a03001	 mov         r3, #1
  0087c	e58d3000	 str         r3, [sp]
  00880		 |$cleanUp$39227|

; 275  : 
; 276  : cleanUp:
; 277  :     OALMSG(OAL_INTR&&OAL_FUNC, (L"-OALIntrReleaseSysIntr(rc = %d)\r\n", rc));

  00880	e59f3054	 ldr         r3, [pc, #0x54]
  00884	e5933440	 ldr         r3, [r3, #0x440]
  00888	e3130901	 tst         r3, #1, 18
  0088c	0a000009	 beq         |$LN11@OALIntrRel|
  00890	e59f3044	 ldr         r3, [pc, #0x44]
  00894	e5933440	 ldr         r3, [r3, #0x440]
  00898	e3130004	 tst         r3, #4
  0089c	0a000005	 beq         |$LN11@OALIntrRel|
  008a0	e59d1000	 ldr         r1, [sp]
  008a4	e59f002c	 ldr         r0, [pc, #0x2C]
  008a8	eb000000	 bl          NKDbgPrintfW
  008ac	e3a03001	 mov         r3, #1
  008b0	e58d3014	 str         r3, [sp, #0x14]
  008b4	ea000001	 b           |$LN12@OALIntrRel|
  008b8		 |$LN11@OALIntrRel|
  008b8	e3a03000	 mov         r3, #0
  008bc	e58d3014	 str         r3, [sp, #0x14]
  008c0		 |$LN12@OALIntrRel|

; 278  :     return rc;

  008c0	e59d3000	 ldr         r3, [sp]
  008c4	e58d3008	 str         r3, [sp, #8]

; 279  : }

  008c8	e59d0008	 ldr         r0, [sp, #8]
  008cc	e28dd018	 add         sp, sp, #0x18
  008d0	e89d6000	 ldmia       sp, {sp, lr}
  008d4	e12fff1e	 bx          lr
  008d8		 |$LN16@OALIntrRel|
  008d8		 |$LN17@OALIntrRel|
  008d8	00000000	 DCD         |??_C@_1EE@GBADJBKJ@?$AA?9?$AAO?$AAA?$AAL?$AAI?$AAn?$AAt?$AAr?$AAR?$AAe?$AAl?$AAe?$AAa?$AAs?$AAe?$AAS?$AAy?$AAs?$AAI?$AAn?$AAt?$AAr?$AA?$CI?$AAr?$AAc?$AA?5?$AA?$DN?$AA?5?$AA?$CF?$AAd?$AA?$CJ?$AA?$AN@|
  008dc		 |$LN18@OALIntrRel|
  008dc	00000000	 DCD         |dpCurSettings|
  008e0		 |$LN19@OALIntrRel|
  008e0	00000000	 DCD         |g_oalIrq2SysIntr|
  008e4		 |$LN20@OALIntrRel|
  008e4	00000000	 DCD         |g_oalSysIntr2Irq|
  008e8		 |$LN21@OALIntrRel|
  008e8	00000000	 DCD         |??_C@_1HC@BIEMDHNG@?$AAE?$AAR?$AAR?$AAO?$AAR?$AA?3?$AA?5?$AAO?$AAA?$AAL?$AAI?$AAn?$AAt?$AAr?$AAR?$AAe?$AAl?$AAe?$AAa?$AAs?$AAe?$AAS?$AAy?$AAs?$AAI?$AAn?$AAt?$AAr?$AA?3?$AA?5?$AAI?$AAn@|
  008ec		 |$LN22@OALIntrRel|
  008ec	00000000	 DCD         |??_C@_1DK@GDEEGDPM@?$AA?$CL?$AAO?$AAA?$AAL?$AAI?$AAn?$AAt?$AAr?$AAR?$AAe?$AAl?$AAe?$AAa?$AAs?$AAe?$AAS?$AAy?$AAs?$AAI?$AAn?$AAt?$AAr?$AA?$CI?$AA?$CF?$AAd?$AA?$CJ?$AA?$AN?$AA?6?$AA?$AA@|
  008f0		 |$M39418|

			 ENDP  ; |OALIntrReleaseSysIntr|

	EXPORT	|??_C@_1DO@CCOKGOKA@?$AA?9?$AAO?$AAE?$AAM?$AAI?$AAn?$AAt?$AAe?$AAr?$AAr?$AAu?$AAp?$AAt?$AAE?$AAn?$AAa?$AAb?$AAl?$AAe?$AA?$CI?$AAr?$AAc?$AA?5?$AA?$DN?$AA?5?$AA?$CF?$AAd?$AA?$CJ?$AA?$AN?$AA?6?$AA?$AA@| [ DATA ] ; `string'
	EXPORT	|??_C@_1FK@DILNBJGN@?$AAO?$AAE?$AAM?$AAI?$AAn?$AAt?$AAe?$AAr?$AAr?$AAu?$AAp?$AAt?$AAE?$AAn?$AAa?$AAb?$AAl?$AAe?$AA?3?$AA?5?$AAi?$AAr?$AAq?$AA?5?$AA?$CF?$AAd?$AA?5?$AAa?$AAl?$AAr?$AAe?$AAa@| [ DATA ] ; `string'
	EXPORT	|??_C@_1HG@GDCGEFKG@?$AAO?$AAE?$AAM?$AAI?$AAn?$AAt?$AAe?$AAr?$AAr?$AAu?$AAp?$AAt?$AAE?$AAn?$AAa?$AAb?$AAl?$AAe?$AA?3?$AA?5?$AAc?$AAa?$AAl?$AAl?$AAi?$AAn?$AAg?$AA?5?$AAO?$AAA?$AAL?$AAI@| [ DATA ] ; `string'
	EXPORT	|??_C@_1FM@EEKLHHAL@?$AA?$CL?$AAO?$AAE?$AAM?$AAI?$AAn?$AAt?$AAe?$AAr?$AAr?$AAu?$AAp?$AAt?$AAE?$AAn?$AAa?$AAb?$AAl?$AAe?$AA?$CI?$AA?$CF?$AAd?$AA?0?$AA?5?$AA0?$AAx?$AA?$CF?$AAx?$AA?0?$AA?5?$AA?$CF?$AAd@| [ DATA ] ; `string'
	EXPORT	|OEMInterruptEnable|
	IMPORT	|OALIntrEnableIrqs|
	IMPORT	|OALLogSerial|

  00030			 AREA	 |.pdata|, PDATA
|$T39442| DCD	|$LN17@OEMInterru|
	DCD	0x40008e04

  00000			 AREA	 |.rdata|, DATA, READONLY
|??_C@_1DO@CCOKGOKA@?$AA?9?$AAO?$AAE?$AAM?$AAI?$AAn?$AAt?$AAe?$AAr?$AAr?$AAu?$AAp?$AAt?$AAE?$AAn?$AAa?$AAb?$AAl?$AAe?$AA?$CI?$AAr?$AAc?$AA?5?$AA?$DN?$AA?5?$AA?$CF?$AAd?$AA?$CJ?$AA?$AN?$AA?6?$AA?$AA@| DCB "-"
	DCB	0x0, "O", 0x0, "E", 0x0, "M", 0x0, "I", 0x0, "n", 0x0, "t"
	DCB	0x0, "e", 0x0, "r", 0x0, "r", 0x0, "u", 0x0, "p", 0x0, "t"
	DCB	0x0, "E", 0x0, "n", 0x0, "a", 0x0, "b", 0x0, "l", 0x0, "e"
	DCB	0x0, "(", 0x0, "r", 0x0, "c", 0x0, " ", 0x0, "=", 0x0, " "
	DCB	0x0, "%", 0x0, "d", 0x0, ")", 0x0, 0xd, 0x0, 0xa, 0x0, 0x0
	DCB	0x0					; `string'

  00000			 AREA	 |.rdata|, DATA, READONLY
|??_C@_1FK@DILNBJGN@?$AAO?$AAE?$AAM?$AAI?$AAn?$AAt?$AAe?$AAr?$AAr?$AAu?$AAp?$AAt?$AAE?$AAn?$AAa?$AAb?$AAl?$AAe?$AA?3?$AA?5?$AAi?$AAr?$AAq?$AA?5?$AA?$CF?$AAd?$AA?5?$AAa?$AAl?$AAr?$AAe?$AAa@| DCB "O"
	DCB	0x0, "E", 0x0, "M", 0x0, "I", 0x0, "n", 0x0, "t", 0x0, "e"
	DCB	0x0, "r", 0x0, "r", 0x0, "u", 0x0, "p", 0x0, "t", 0x0, "E"
	DCB	0x0, "n", 0x0, "a", 0x0, "b", 0x0, "l", 0x0, "e", 0x0, ":"
	DCB	0x0, " ", 0x0, "i", 0x0, "r", 0x0, "q", 0x0, " ", 0x0, "%"
	DCB	0x0, "d", 0x0, " ", 0x0, "a", 0x0, "l", 0x0, "r", 0x0, "e"
	DCB	0x0, "a", 0x0, "d", 0x0, "y", 0x0, " ", 0x0, "e", 0x0, "n"
	DCB	0x0, "a", 0x0, "b", 0x0, "l", 0x0, "e", 0x0, "d", 0x0, 0xd
	DCB	0x0, 0xa, 0x0, 0x0, 0x0			; `string'

  00000			 AREA	 |.rdata|, DATA, READONLY
|??_C@_1HG@GDCGEFKG@?$AAO?$AAE?$AAM?$AAI?$AAn?$AAt?$AAe?$AAr?$AAr?$AAu?$AAp?$AAt?$AAE?$AAn?$AAa?$AAb?$AAl?$AAe?$AA?3?$AA?5?$AAc?$AAa?$AAl?$AAl?$AAi?$AAn?$AAg?$AA?5?$AAO?$AAA?$AAL?$AAI@| DCB "O"
	DCB	0x0, "E", 0x0, "M", 0x0, "I", 0x0, "n", 0x0, "t", 0x0, "e"
	DCB	0x0, "r", 0x0, "r", 0x0, "u", 0x0, "p", 0x0, "t", 0x0, "E"
	DCB	0x0, "n", 0x0, "a", 0x0, "b", 0x0, "l", 0x0, "e", 0x0, ":"
	DCB	0x0, " ", 0x0, "c", 0x0, "a", 0x0, "l", 0x0, "l", 0x0, "i"
	DCB	0x0, "n", 0x0, "g", 0x0, " ", 0x0, "O", 0x0, "A", 0x0, "L"
	DCB	0x0, "I", 0x0, "n", 0x0, "t", 0x0, "r", 0x0, "E", 0x0, "n"
	DCB	0x0, "a", 0x0, "b", 0x0, "l", 0x0, "e", 0x0, "I", 0x0, "r"
	DCB	0x0, "q", 0x0, "s", 0x0, " ", 0x0, "f", 0x0, "o", 0x0, "r"
	DCB	0x0, " ", 0x0, "i", 0x0, "r", 0x0, "q", 0x0, " ", 0x0, "%"
	DCB	0x0, "d", 0x0, 0xd, 0x0, 0xa, 0x0, 0x0, 0x0 ; `string'

  00000			 AREA	 |.rdata|, DATA, READONLY
|??_C@_1FM@EEKLHHAL@?$AA?$CL?$AAO?$AAE?$AAM?$AAI?$AAn?$AAt?$AAe?$AAr?$AAr?$AAu?$AAp?$AAt?$AAE?$AAn?$AAa?$AAb?$AAl?$AAe?$AA?$CI?$AA?$CF?$AAd?$AA?0?$AA?5?$AA0?$AAx?$AA?$CF?$AAx?$AA?0?$AA?5?$AA?$CF?$AAd@| DCB "+"
	DCB	0x0, "O", 0x0, "E", 0x0, "M", 0x0, "I", 0x0, "n", 0x0, "t"
	DCB	0x0, "e", 0x0, "r", 0x0, "r", 0x0, "u", 0x0, "p", 0x0, "t"
	DCB	0x0, "E", 0x0, "n", 0x0, "a", 0x0, "b", 0x0, "l", 0x0, "e"
	DCB	0x0, "(", 0x0, "%", 0x0, "d", 0x0, ",", 0x0, " ", 0x0, "0"
	DCB	0x0, "x", 0x0, "%", 0x0, "x", 0x0, ",", 0x0, " ", 0x0, "%"
	DCB	0x0, "d", 0x0, ")", 0x0, " ", 0x0, "(", 0x0, "i", 0x0, "r"
	DCB	0x0, "q", 0x0, ":", 0x0, " ", 0x0, "%", 0x0, "d", 0x0, ")"
	DCB	0x0, 0xd, 0x0, 0xa, 0x0, 0x0, 0x0	; `string'
; Function compile flags: /Odtp

  008f0			 AREA	 |.text|, CODE, ARM

  008f0		 |OEMInterruptEnable| PROC

; 294  : {

  008f0		 |$LN17@OEMInterru|
  008f0	e1a0c00d	 mov         r12, sp
  008f4	e92d0007	 stmdb       sp!, {r0 - r2}
  008f8	e92d5000	 stmdb       sp!, {r12, lr}
  008fc	e24dd028	 sub         sp, sp, #0x28
  00900		 |$M39439|

; 295  :     BOOL rc = FALSE;

  00900	e3a03000	 mov         r3, #0
  00904	e58d3004	 str         r3, [sp, #4]

; 296  :     const UINT32 irq = g_oalSysIntr2Irq[sysIntr];

  00908	e59d1030	 ldr         r1, [sp, #0x30]
  0090c	e3a03004	 mov         r3, #4
  00910	e0020391	 mul         r2, r1, r3
  00914	e59f3208	 ldr         r3, [pc, #0x208]
  00918	e0833002	 add         r3, r3, r2
  0091c	e5933000	 ldr         r3, [r3]
  00920	e58d3008	 str         r3, [sp, #8]

; 297  : 
; 298  :     OALMSGS(OAL_INTR&&OAL_VERBOSE, 
; 299  :         (L"+OEMInterruptEnable(%d, 0x%x, %d) (irq: %d)\r\n", sysIntr, pData, dataSize, irq
; 300  :         ));

  00924	e59f31e0	 ldr         r3, [pc, #0x1E0]
  00928	e5933440	 ldr         r3, [r3, #0x440]
  0092c	e3130901	 tst         r3, #1, 18
  00930	0a00000d	 beq         |$LN7@OEMInterru|
  00934	e59f31d0	 ldr         r3, [pc, #0x1D0]
  00938	e5933440	 ldr         r3, [r3, #0x440]
  0093c	e3130902	 tst         r3, #2, 18
  00940	0a000009	 beq         |$LN7@OEMInterru|
  00944	e59d3008	 ldr         r3, [sp, #8]
  00948	e58d3000	 str         r3, [sp]
  0094c	e59d3038	 ldr         r3, [sp, #0x38]
  00950	e59d2034	 ldr         r2, [sp, #0x34]
  00954	e59d1030	 ldr         r1, [sp, #0x30]
  00958	e59f01c0	 ldr         r0, [pc, #0x1C0]
  0095c	eb000000	 bl          OALLogSerial
  00960	e3a03001	 mov         r3, #1
  00964	e58d3014	 str         r3, [sp, #0x14]
  00968	ea000001	 b           |$LN8@OEMInterru|
  0096c		 |$LN7@OEMInterru|
  0096c	e3a03000	 mov         r3, #0
  00970	e58d3014	 str         r3, [sp, #0x14]
  00974		 |$LN8@OEMInterru|

; 301  : 
; 302  :     // SYSINTR_VMINI & SYSINTR_TIMING are special cases
; 303  :     if ((sysIntr == SYSINTR_VMINI) || (sysIntr == SYSINTR_TIMING))

  00974	e59d3030	 ldr         r3, [sp, #0x30]
  00978	e353000f	 cmp         r3, #0xF
  0097c	0a000002	 beq         |$LN3@OEMInterru|
  00980	e59d3030	 ldr         r3, [sp, #0x30]
  00984	e353000a	 cmp         r3, #0xA
  00988	1a000002	 bne         |$LN4@OEMInterru|
  0098c		 |$LN3@OEMInterru|

; 304  :         {
; 305  :         rc = TRUE;

  0098c	e3a03001	 mov         r3, #1
  00990	e58d3004	 str         r3, [sp, #4]

; 306  :         goto cleanUp;

  00994	ea000045	 b           |$cleanUp$39245|
  00998		 |$LN4@OEMInterru|

; 307  :         }
; 308  : 
; 309  :     // Update the reference count for this irq
; 310  :     g_oalIrqRefCount[irq]++;

  00998	e59d1008	 ldr         r1, [sp, #8]
  0099c	e3a03004	 mov         r3, #4
  009a0	e0020391	 mul         r2, r1, r3
  009a4	e59f3170	 ldr         r3, [pc, #0x170]
  009a8	e0833002	 add         r3, r3, r2
  009ac	e5933000	 ldr         r3, [r3]
  009b0	e2830001	 add         r0, r3, #1
  009b4	e59d1008	 ldr         r1, [sp, #8]
  009b8	e3a03004	 mov         r3, #4
  009bc	e0020391	 mul         r2, r1, r3
  009c0	e59f3154	 ldr         r3, [pc, #0x154]
  009c4	e0833002	 add         r3, r3, r2
  009c8	e5830000	 str         r0, [r3]

; 311  : 
; 312  :     // Enable the irq only if it was disabled previously and if we're not masking it
; 313  :     if(g_oalIrqRefCount[irq] == 1 && g_oalIrqMaskRefCount[irq] == 0)

  009cc	e59d1008	 ldr         r1, [sp, #8]
  009d0	e3a03004	 mov         r3, #4
  009d4	e0020391	 mul         r2, r1, r3
  009d8	e59f313c	 ldr         r3, [pc, #0x13C]
  009dc	e0833002	 add         r3, r3, r2
  009e0	e5933000	 ldr         r3, [r3]
  009e4	e3530001	 cmp         r3, #1
  009e8	1a00001e	 bne         |$LN2@OEMInterru|
  009ec	e59d1008	 ldr         r1, [sp, #8]
  009f0	e3a03004	 mov         r3, #4
  009f4	e0020391	 mul         r2, r1, r3
  009f8	e59f3118	 ldr         r3, [pc, #0x118]
  009fc	e0833002	 add         r3, r3, r2
  00a00	e5933000	 ldr         r3, [r3]
  00a04	e3530000	 cmp         r3, #0
  00a08	1a000016	 bne         |$LN2@OEMInterru|

; 314  :         {
; 315  :         OALMSGS(OAL_INTR&&OAL_VERBOSE, (L"OEMInterruptEnable: calling OALIntrEnableIrqs for irq %d\r\n", irq));

  00a0c	e59f30f8	 ldr         r3, [pc, #0xF8]
  00a10	e5933440	 ldr         r3, [r3, #0x440]
  00a14	e3130901	 tst         r3, #1, 18
  00a18	0a000009	 beq         |$LN9@OEMInterru|
  00a1c	e59f30e8	 ldr         r3, [pc, #0xE8]
  00a20	e5933440	 ldr         r3, [r3, #0x440]
  00a24	e3130902	 tst         r3, #2, 18
  00a28	0a000005	 beq         |$LN9@OEMInterru|
  00a2c	e59d1008	 ldr         r1, [sp, #8]
  00a30	e59f00dc	 ldr         r0, [pc, #0xDC]
  00a34	eb000000	 bl          OALLogSerial
  00a38	e3a03001	 mov         r3, #1
  00a3c	e58d3018	 str         r3, [sp, #0x18]
  00a40	ea000001	 b           |$LN10@OEMInterru|
  00a44		 |$LN9@OEMInterru|
  00a44	e3a03000	 mov         r3, #0
  00a48	e58d3018	 str         r3, [sp, #0x18]
  00a4c		 |$LN10@OEMInterru|

; 316  :         rc = OALIntrEnableIrqs(1, &irq);

  00a4c	e28d1008	 add         r1, sp, #8
  00a50	e3a00001	 mov         r0, #1
  00a54	eb000000	 bl          OALIntrEnableIrqs
  00a58	e58d001c	 str         r0, [sp, #0x1C]
  00a5c	e59d301c	 ldr         r3, [sp, #0x1C]
  00a60	e58d3004	 str         r3, [sp, #4]

; 317  :         }
; 318  :     else

  00a64	ea000011	 b           |$LN1@OEMInterru|
  00a68		 |$LN2@OEMInterru|

; 319  :         {
; 320  :         OALMSGS(OAL_INTR&&OAL_VERBOSE, (L"OEMInterruptEnable: irq %d already enabled\r\n", irq));

  00a68	e59f309c	 ldr         r3, [pc, #0x9C]
  00a6c	e5933440	 ldr         r3, [r3, #0x440]
  00a70	e3130901	 tst         r3, #1, 18
  00a74	0a000009	 beq         |$LN11@OEMInterru|
  00a78	e59f308c	 ldr         r3, [pc, #0x8C]
  00a7c	e5933440	 ldr         r3, [r3, #0x440]
  00a80	e3130902	 tst         r3, #2, 18
  00a84	0a000005	 beq         |$LN11@OEMInterru|
  00a88	e59d1008	 ldr         r1, [sp, #8]
  00a8c	e59f007c	 ldr         r0, [pc, #0x7C]
  00a90	eb000000	 bl          OALLogSerial
  00a94	e3a03001	 mov         r3, #1
  00a98	e58d3020	 str         r3, [sp, #0x20]
  00a9c	ea000001	 b           |$LN12@OEMInterru|
  00aa0		 |$LN11@OEMInterru|
  00aa0	e3a03000	 mov         r3, #0
  00aa4	e58d3020	 str         r3, [sp, #0x20]
  00aa8		 |$LN12@OEMInterru|

; 321  :         rc = TRUE;

  00aa8	e3a03001	 mov         r3, #1
  00aac	e58d3004	 str         r3, [sp, #4]
  00ab0		 |$LN1@OEMInterru|
  00ab0		 |$cleanUp$39245|

; 322  :         }
; 323  : 
; 324  : cleanUp:    
; 325  :     OALMSGS(OAL_INTR&&OAL_VERBOSE, (L"-OEMInterruptEnable(rc = %d)\r\n", rc));

  00ab0	e59f3054	 ldr         r3, [pc, #0x54]
  00ab4	e5933440	 ldr         r3, [r3, #0x440]
  00ab8	e3130901	 tst         r3, #1, 18
  00abc	0a000009	 beq         |$LN13@OEMInterru|
  00ac0	e59f3044	 ldr         r3, [pc, #0x44]
  00ac4	e5933440	 ldr         r3, [r3, #0x440]
  00ac8	e3130902	 tst         r3, #2, 18
  00acc	0a000005	 beq         |$LN13@OEMInterru|
  00ad0	e59d1004	 ldr         r1, [sp, #4]
  00ad4	e59f002c	 ldr         r0, [pc, #0x2C]
  00ad8	eb000000	 bl          OALLogSerial
  00adc	e3a03001	 mov         r3, #1
  00ae0	e58d3024	 str         r3, [sp, #0x24]
  00ae4	ea000001	 b           |$LN14@OEMInterru|
  00ae8		 |$LN13@OEMInterru|
  00ae8	e3a03000	 mov         r3, #0
  00aec	e58d3024	 str         r3, [sp, #0x24]
  00af0		 |$LN14@OEMInterru|

; 326  :     return rc;

  00af0	e59d3004	 ldr         r3, [sp, #4]
  00af4	e58d3010	 str         r3, [sp, #0x10]

; 327  : }

  00af8	e59d0010	 ldr         r0, [sp, #0x10]
  00afc	e28dd028	 add         sp, sp, #0x28
  00b00	e89d6000	 ldmia       sp, {sp, lr}
  00b04	e12fff1e	 bx          lr
  00b08		 |$LN18@OEMInterru|
  00b08		 |$LN19@OEMInterru|
  00b08	00000000	 DCD         |??_C@_1DO@CCOKGOKA@?$AA?9?$AAO?$AAE?$AAM?$AAI?$AAn?$AAt?$AAe?$AAr?$AAr?$AAu?$AAp?$AAt?$AAE?$AAn?$AAa?$AAb?$AAl?$AAe?$AA?$CI?$AAr?$AAc?$AA?5?$AA?$DN?$AA?5?$AA?$CF?$AAd?$AA?$CJ?$AA?$AN?$AA?6?$AA?$AA@|
  00b0c		 |$LN20@OEMInterru|
  00b0c	00000000	 DCD         |dpCurSettings|
  00b10		 |$LN21@OEMInterru|
  00b10	00000000	 DCD         |??_C@_1FK@DILNBJGN@?$AAO?$AAE?$AAM?$AAI?$AAn?$AAt?$AAe?$AAr?$AAr?$AAu?$AAp?$AAt?$AAE?$AAn?$AAa?$AAb?$AAl?$AAe?$AA?3?$AA?5?$AAi?$AAr?$AAq?$AA?5?$AA?$CF?$AAd?$AA?5?$AAa?$AAl?$AAr?$AAe?$AAa@|
  00b14		 |$LN22@OEMInterru|
  00b14	00000000	 DCD         |??_C@_1HG@GDCGEFKG@?$AAO?$AAE?$AAM?$AAI?$AAn?$AAt?$AAe?$AAr?$AAr?$AAu?$AAp?$AAt?$AAE?$AAn?$AAa?$AAb?$AAl?$AAe?$AA?3?$AA?5?$AAc?$AAa?$AAl?$AAl?$AAi?$AAn?$AAg?$AA?5?$AAO?$AAA?$AAL?$AAI@|
  00b18		 |$LN23@OEMInterru|
  00b18	00000000	 DCD         |g_oalIrqMaskRefCount|
  00b1c		 |$LN24@OEMInterru|
  00b1c	00000000	 DCD         |g_oalIrqRefCount|
  00b20		 |$LN25@OEMInterru|
  00b20	00000000	 DCD         |??_C@_1FM@EEKLHHAL@?$AA?$CL?$AAO?$AAE?$AAM?$AAI?$AAn?$AAt?$AAe?$AAr?$AAr?$AAu?$AAp?$AAt?$AAE?$AAn?$AAa?$AAb?$AAl?$AAe?$AA?$CI?$AA?$CF?$AAd?$AA?0?$AA?5?$AA0?$AAx?$AA?$CF?$AAx?$AA?0?$AA?5?$AA?$CF?$AAd@|
  00b24		 |$LN26@OEMInterru|
  00b24	00000000	 DCD         |g_oalSysIntr2Irq|
  00b28		 |$M39440|

			 ENDP  ; |OEMInterruptEnable|

	EXPORT	|??_C@_1CO@FKOPLHGO@?$AA?9?$AAO?$AAE?$AAM?$AAI?$AAn?$AAt?$AAe?$AAr?$AAr?$AAu?$AAp?$AAt?$AAD?$AAi?$AAs?$AAa?$AAb?$AAl?$AAe?$AA?$AN?$AA?6?$AA?$AA@| [ DATA ] ; `string'
	EXPORT	|??_C@_1LG@JNFIMLFO@?$AAO?$AAE?$AAM?$AAI?$AAn?$AAt?$AAe?$AAr?$AAr?$AAu?$AAp?$AAt?$AAD?$AAi?$AAs?$AAa?$AAb?$AAl?$AAe?$AA?$CI?$AA?$CF?$AAd?$AA?$CJ?$AA?0?$AA?5?$AAi?$AAr?$AAq?$AA?3?$AA?5?$AA?$CF?$AAd@| [ DATA ] ; `string'
	EXPORT	|??_C@_1EI@DJKFGLDI@?$AA?$CL?$AAO?$AAE?$AAM?$AAI?$AAn?$AAt?$AAe?$AAr?$AAr?$AAu?$AAp?$AAt?$AAD?$AAi?$AAs?$AAa?$AAb?$AAl?$AAe?$AA?$CI?$AA?$CF?$AAd?$AA?$CJ?$AA?0?$AA?5?$AAi?$AAr?$AAq?$AA?3?$AA?5?$AA?$CF@| [ DATA ] ; `string'
	EXPORT	|OEMInterruptDisable|
	IMPORT	|OALIntrDisableIrqs|

  00038			 AREA	 |.pdata|, PDATA
|$T39462| DCD	|$LN14@OEMInterru@2|
	DCD	0x40006b04

  00000			 AREA	 |.rdata|, DATA, READONLY
|??_C@_1CO@FKOPLHGO@?$AA?9?$AAO?$AAE?$AAM?$AAI?$AAn?$AAt?$AAe?$AAr?$AAr?$AAu?$AAp?$AAt?$AAD?$AAi?$AAs?$AAa?$AAb?$AAl?$AAe?$AA?$AN?$AA?6?$AA?$AA@| DCB "-"
	DCB	0x0, "O", 0x0, "E", 0x0, "M", 0x0, "I", 0x0, "n", 0x0, "t"
	DCB	0x0, "e", 0x0, "r", 0x0, "r", 0x0, "u", 0x0, "p", 0x0, "t"
	DCB	0x0, "D", 0x0, "i", 0x0, "s", 0x0, "a", 0x0, "b", 0x0, "l"
	DCB	0x0, "e", 0x0, 0xd, 0x0, 0xa, 0x0, 0x0, 0x0 ; `string'

  00000			 AREA	 |.rdata|, DATA, READONLY
|??_C@_1LG@JNFIMLFO@?$AAO?$AAE?$AAM?$AAI?$AAn?$AAt?$AAe?$AAr?$AAr?$AAu?$AAp?$AAt?$AAD?$AAi?$AAs?$AAa?$AAb?$AAl?$AAe?$AA?$CI?$AA?$CF?$AAd?$AA?$CJ?$AA?0?$AA?5?$AAi?$AAr?$AAq?$AA?3?$AA?5?$AA?$CF?$AAd@| DCB "O"
	DCB	0x0, "E", 0x0, "M", 0x0, "I", 0x0, "n", 0x0, "t", 0x0, "e"
	DCB	0x0, "r", 0x0, "r", 0x0, "u", 0x0, "p", 0x0, "t", 0x0, "D"
	DCB	0x0, "i", 0x0, "s", 0x0, "a", 0x0, "b", 0x0, "l", 0x0, "e"
	DCB	0x0, "(", 0x0, "%", 0x0, "d", 0x0, ")", 0x0, ",", 0x0, " "
	DCB	0x0, "i", 0x0, "r", 0x0, "q", 0x0, ":", 0x0, " ", 0x0, "%"
	DCB	0x0, "d", 0x0, " ", 0x0, "t", 0x0, "r", 0x0, "y", 0x0, "i"
	DCB	0x0, "n", 0x0, "g", 0x0, " ", 0x0, "t", 0x0, "o", 0x0, " "
	DCB	0x0, "d", 0x0, "i", 0x0, "s", 0x0, "a", 0x0, "b", 0x0, "l"
	DCB	0x0, "e", 0x0, " ", 0x0, "a", 0x0, "n", 0x0, " ", 0x0, "i"
	DCB	0x0, "n", 0x0, "t", 0x0, "e", 0x0, "r", 0x0, "r", 0x0, "u"
	DCB	0x0, "p", 0x0, "t", 0x0, " ", 0x0, "t", 0x0, "h", 0x0, "a"
	DCB	0x0, "t", 0x0, " ", 0x0, "i", 0x0, "s", 0x0, " ", 0x0, "a"
	DCB	0x0, "l", 0x0, "r", 0x0, "e", 0x0, "a", 0x0, "d", 0x0, "y"
	DCB	0x0, " ", 0x0, "d", 0x0, "i", 0x0, "s", 0x0, "a", 0x0, "b"
	DCB	0x0, "l", 0x0, "e", 0x0, "d", 0x0, 0xd, 0x0, 0xa, 0x0, 0x0
	DCB	0x0					; `string'

  00000			 AREA	 |.rdata|, DATA, READONLY
|??_C@_1EI@DJKFGLDI@?$AA?$CL?$AAO?$AAE?$AAM?$AAI?$AAn?$AAt?$AAe?$AAr?$AAr?$AAu?$AAp?$AAt?$AAD?$AAi?$AAs?$AAa?$AAb?$AAl?$AAe?$AA?$CI?$AA?$CF?$AAd?$AA?$CJ?$AA?0?$AA?5?$AAi?$AAr?$AAq?$AA?3?$AA?5?$AA?$CF@| DCB "+"
	DCB	0x0, "O", 0x0, "E", 0x0, "M", 0x0, "I", 0x0, "n", 0x0, "t"
	DCB	0x0, "e", 0x0, "r", 0x0, "r", 0x0, "u", 0x0, "p", 0x0, "t"
	DCB	0x0, "D", 0x0, "i", 0x0, "s", 0x0, "a", 0x0, "b", 0x0, "l"
	DCB	0x0, "e", 0x0, "(", 0x0, "%", 0x0, "d", 0x0, ")", 0x0, ","
	DCB	0x0, " ", 0x0, "i", 0x0, "r", 0x0, "q", 0x0, ":", 0x0, " "
	DCB	0x0, "%", 0x0, "d", 0x0, 0xd, 0x0, 0xa, 0x0, 0x0, 0x0 ; `string'
; Function compile flags: /Odtp

  00b28			 AREA	 |.text|, CODE, ARM

  00b28		 |OEMInterruptDisable| PROC

; 339  : {

  00b28		 |$LN14@OEMInterru@2|
  00b28	e1a0c00d	 mov         r12, sp
  00b2c	e92d0001	 stmdb       sp!, {r0}
  00b30	e92d5000	 stmdb       sp!, {r12, lr}
  00b34	e24dd010	 sub         sp, sp, #0x10
  00b38		 |$M39459|

; 340  :     const UINT32 irq = g_oalSysIntr2Irq[sysIntr];

  00b38	e59d1018	 ldr         r1, [sp, #0x18]
  00b3c	e3a03004	 mov         r3, #4
  00b40	e0020391	 mul         r2, r1, r3
  00b44	e59f3184	 ldr         r3, [pc, #0x184]
  00b48	e0833002	 add         r3, r3, r2
  00b4c	e5933000	 ldr         r3, [r3]
  00b50	e58d3000	 str         r3, [sp]

; 341  : 
; 342  :     OALMSGS(OAL_INTR&&OAL_VERBOSE, (L"+OEMInterruptDisable(%d), irq: %d\r\n", sysIntr, irq));

  00b54	e59f3160	 ldr         r3, [pc, #0x160]
  00b58	e5933440	 ldr         r3, [r3, #0x440]
  00b5c	e3130901	 tst         r3, #1, 18
  00b60	0a00000a	 beq         |$LN6@OEMInterru@2|
  00b64	e59f3150	 ldr         r3, [pc, #0x150]
  00b68	e5933440	 ldr         r3, [r3, #0x440]
  00b6c	e3130902	 tst         r3, #2, 18
  00b70	0a000006	 beq         |$LN6@OEMInterru@2|
  00b74	e59d2000	 ldr         r2, [sp]
  00b78	e59d1018	 ldr         r1, [sp, #0x18]
  00b7c	e59f0148	 ldr         r0, [pc, #0x148]
  00b80	eb000000	 bl          OALLogSerial
  00b84	e3a03001	 mov         r3, #1
  00b88	e58d3004	 str         r3, [sp, #4]
  00b8c	ea000001	 b           |$LN7@OEMInterru@2|
  00b90		 |$LN6@OEMInterru@2|
  00b90	e3a03000	 mov         r3, #0
  00b94	e58d3004	 str         r3, [sp, #4]
  00b98		 |$LN7@OEMInterru@2|

; 343  : 
; 344  :     // Update the reference count for this irq
; 345  :     if( g_oalIrqRefCount[irq] == 0)

  00b98	e59d1000	 ldr         r1, [sp]
  00b9c	e3a03004	 mov         r3, #4
  00ba0	e0020391	 mul         r2, r1, r3
  00ba4	e59f3118	 ldr         r3, [pc, #0x118]
  00ba8	e0833002	 add         r3, r3, r2
  00bac	e5933000	 ldr         r3, [r3]
  00bb0	e3530000	 cmp         r3, #0
  00bb4	1a00000d	 bne         |$LN3@OEMInterru@2|

; 346  :         {
; 347  :         OALMSGS(OAL_WARN, (L"OEMInterruptDisable(%d), irq: %d trying to disable an interrupt that is already disabled\r\n", sysIntr, irq));

  00bb8	e59f30fc	 ldr         r3, [pc, #0xFC]
  00bbc	e5933440	 ldr         r3, [r3, #0x440]
  00bc0	e3130002	 tst         r3, #2
  00bc4	0a000006	 beq         |$LN8@OEMInterru@2|
  00bc8	e59d2000	 ldr         r2, [sp]
  00bcc	e59d1018	 ldr         r1, [sp, #0x18]
  00bd0	e59f00f0	 ldr         r0, [pc, #0xF0]
  00bd4	eb000000	 bl          OALLogSerial
  00bd8	e3a03001	 mov         r3, #1
  00bdc	e58d3008	 str         r3, [sp, #8]
  00be0	ea000001	 b           |$LN9@OEMInterru@2|
  00be4		 |$LN8@OEMInterru@2|
  00be4	e3a03000	 mov         r3, #0
  00be8	e58d3008	 str         r3, [sp, #8]
  00bec		 |$LN9@OEMInterru@2|

; 348  :         }
; 349  :     else

  00bec	ea00000c	 b           |$LN2@OEMInterru@2|
  00bf0		 |$LN3@OEMInterru@2|

; 350  :         { 
; 351  :         g_oalIrqRefCount[irq]--;

  00bf0	e59d1000	 ldr         r1, [sp]
  00bf4	e3a03004	 mov         r3, #4
  00bf8	e0020391	 mul         r2, r1, r3
  00bfc	e59f30c0	 ldr         r3, [pc, #0xC0]
  00c00	e0833002	 add         r3, r3, r2
  00c04	e5933000	 ldr         r3, [r3]
  00c08	e2430001	 sub         r0, r3, #1
  00c0c	e59d1000	 ldr         r1, [sp]
  00c10	e3a03004	 mov         r3, #4
  00c14	e0020391	 mul         r2, r1, r3
  00c18	e59f30a4	 ldr         r3, [pc, #0xA4]
  00c1c	e0833002	 add         r3, r3, r2
  00c20	e5830000	 str         r0, [r3]
  00c24		 |$LN2@OEMInterru@2|

; 352  :         }
; 353  : 
; 354  :     // Disable the irq only if this is the last enabled device sharing the irq
; 355  :     // If we're masking the irq, no need to call disable since it's already disabled
; 356  :     if(g_oalIrqRefCount[irq] == 0 && g_oalIrqMaskRefCount[irq] == 0)

  00c24	e59d1000	 ldr         r1, [sp]
  00c28	e3a03004	 mov         r3, #4
  00c2c	e0020391	 mul         r2, r1, r3
  00c30	e59f308c	 ldr         r3, [pc, #0x8C]
  00c34	e0833002	 add         r3, r3, r2
  00c38	e5933000	 ldr         r3, [r3]
  00c3c	e3530000	 cmp         r3, #0
  00c40	1a00000a	 bne         |$LN1@OEMInterru@2|
  00c44	e59d1000	 ldr         r1, [sp]
  00c48	e3a03004	 mov         r3, #4
  00c4c	e0020391	 mul         r2, r1, r3
  00c50	e59f3068	 ldr         r3, [pc, #0x68]
  00c54	e0833002	 add         r3, r3, r2
  00c58	e5933000	 ldr         r3, [r3]
  00c5c	e3530000	 cmp         r3, #0
  00c60	1a000002	 bne         |$LN1@OEMInterru@2|

; 357  :         {
; 358  :         OALIntrDisableIrqs(1, &irq);

  00c64	e28d1000	 add         r1, sp, #0
  00c68	e3a00001	 mov         r0, #1
  00c6c	eb000000	 bl          OALIntrDisableIrqs
  00c70		 |$LN1@OEMInterru@2|

; 359  :         }
; 360  : 
; 361  :     OALMSGS(OAL_INTR&&OAL_VERBOSE, (L"-OEMInterruptDisable\r\n"));

  00c70	e59f3044	 ldr         r3, [pc, #0x44]
  00c74	e5933440	 ldr         r3, [r3, #0x440]
  00c78	e3130901	 tst         r3, #1, 18
  00c7c	0a000008	 beq         |$LN10@OEMInterru@2|
  00c80	e59f3034	 ldr         r3, [pc, #0x34]
  00c84	e5933440	 ldr         r3, [r3, #0x440]
  00c88	e3130902	 tst         r3, #2, 18
  00c8c	0a000004	 beq         |$LN10@OEMInterru@2|
  00c90	e59f0020	 ldr         r0, [pc, #0x20]
  00c94	eb000000	 bl          OALLogSerial
  00c98	e3a03001	 mov         r3, #1
  00c9c	e58d300c	 str         r3, [sp, #0xC]
  00ca0	ea000001	 b           |$LN11@OEMInterru@2|
  00ca4		 |$LN10@OEMInterru@2|
  00ca4	e3a03000	 mov         r3, #0
  00ca8	e58d300c	 str         r3, [sp, #0xC]
  00cac		 |$LN11@OEMInterru@2|

; 362  : }

  00cac	e28dd010	 add         sp, sp, #0x10
  00cb0	e89d6000	 ldmia       sp, {sp, lr}
  00cb4	e12fff1e	 bx          lr
  00cb8		 |$LN15@OEMInterru@2|
  00cb8		 |$LN16@OEMInterru@2|
  00cb8	00000000	 DCD         |??_C@_1CO@FKOPLHGO@?$AA?9?$AAO?$AAE?$AAM?$AAI?$AAn?$AAt?$AAe?$AAr?$AAr?$AAu?$AAp?$AAt?$AAD?$AAi?$AAs?$AAa?$AAb?$AAl?$AAe?$AA?$AN?$AA?6?$AA?$AA@|
  00cbc		 |$LN17@OEMInterru@2|
  00cbc	00000000	 DCD         |dpCurSettings|
  00cc0		 |$LN18@OEMInterru@2|
  00cc0	00000000	 DCD         |g_oalIrqMaskRefCount|
  00cc4		 |$LN19@OEMInterru@2|
  00cc4	00000000	 DCD         |g_oalIrqRefCount|
  00cc8		 |$LN20@OEMInterru@2|
  00cc8	00000000	 DCD         |??_C@_1LG@JNFIMLFO@?$AAO?$AAE?$AAM?$AAI?$AAn?$AAt?$AAe?$AAr?$AAr?$AAu?$AAp?$AAt?$AAD?$AAi?$AAs?$AAa?$AAb?$AAl?$AAe?$AA?$CI?$AA?$CF?$AAd?$AA?$CJ?$AA?0?$AA?5?$AAi?$AAr?$AAq?$AA?3?$AA?5?$AA?$CF?$AAd@|
  00ccc		 |$LN21@OEMInterru@2|
  00ccc	00000000	 DCD         |??_C@_1EI@DJKFGLDI@?$AA?$CL?$AAO?$AAE?$AAM?$AAI?$AAn?$AAt?$AAe?$AAr?$AAr?$AAu?$AAp?$AAt?$AAD?$AAi?$AAs?$AAa?$AAb?$AAl?$AAe?$AA?$CI?$AA?$CF?$AAd?$AA?$CJ?$AA?0?$AA?5?$AAi?$AAr?$AAq?$AA?3?$AA?5?$AA?$CF@|
  00cd0		 |$LN22@OEMInterru@2|
  00cd0	00000000	 DCD         |g_oalSysIntr2Irq|
  00cd4		 |$M39460|

			 ENDP  ; |OEMInterruptDisable|

	EXPORT	|??_C@_1CI@OPHGDEL@?$AA?9?$AAO?$AAE?$AAM?$AAI?$AAn?$AAt?$AAe?$AAr?$AAr?$AAu?$AAp?$AAt?$AAM?$AAa?$AAs?$AAk?$AA?$AN?$AA?6?$AA?$AA@| [ DATA ] ; `string'
	EXPORT	|??_C@_1IO@PCGMJAEB@?$AAO?$AAE?$AAM?$AAI?$AAn?$AAt?$AAe?$AAr?$AAr?$AAu?$AAp?$AAt?$AAM?$AAa?$AAs?$AAk?$AA?$CI?$AA?$CF?$AAd?$AA?$CJ?$AA?0?$AA?5?$AAi?$AAr?$AAq?$AA?3?$AA?5?$AA?$CF?$AAd?$AA?5?$AAt?$AAr@| [ DATA ] ; `string'
	EXPORT	|??_C@_1EK@HPILFDCF@?$AA?$CL?$AAO?$AAE?$AAM?$AAI?$AAn?$AAt?$AAe?$AAr?$AAr?$AAu?$AAp?$AAt?$AAM?$AAa?$AAs?$AAk?$AA?$CI?$AA?$CF?$AAd?$AA?0?$AA?5?$AA?$CF?$AAd?$AA?$CJ?$AA?0?$AA?5?$AAi?$AAr?$AAq?$AA?3?$AA?5@| [ DATA ] ; `string'
	EXPORT	|OEMInterruptMask|

  00040			 AREA	 |.pdata|, PDATA
|$T39481| DCD	|$LN17@OEMInterru@3|
	DCD	0x40009004

  00000			 AREA	 |.rdata|, DATA, READONLY
|??_C@_1CI@OPHGDEL@?$AA?9?$AAO?$AAE?$AAM?$AAI?$AAn?$AAt?$AAe?$AAr?$AAr?$AAu?$AAp?$AAt?$AAM?$AAa?$AAs?$AAk?$AA?$AN?$AA?6?$AA?$AA@| DCB "-"
	DCB	0x0, "O", 0x0, "E", 0x0, "M", 0x0, "I", 0x0, "n", 0x0, "t"
	DCB	0x0, "e", 0x0, "r", 0x0, "r", 0x0, "u", 0x0, "p", 0x0, "t"
	DCB	0x0, "M", 0x0, "a", 0x0, "s", 0x0, "k", 0x0, 0xd, 0x0, 0xa
	DCB	0x0, 0x0, 0x0				; `string'

  00000			 AREA	 |.rdata|, DATA, READONLY
|??_C@_1IO@PCGMJAEB@?$AAO?$AAE?$AAM?$AAI?$AAn?$AAt?$AAe?$AAr?$AAr?$AAu?$AAp?$AAt?$AAM?$AAa?$AAs?$AAk?$AA?$CI?$AA?$CF?$AAd?$AA?$CJ?$AA?0?$AA?5?$AAi?$AAr?$AAq?$AA?3?$AA?5?$AA?$CF?$AAd?$AA?5?$AAt?$AAr@| DCB "O"
	DCB	0x0, "E", 0x0, "M", 0x0, "I", 0x0, "n", 0x0, "t", 0x0, "e"
	DCB	0x0, "r", 0x0, "r", 0x0, "u", 0x0, "p", 0x0, "t", 0x0, "M"
	DCB	0x0, "a", 0x0, "s", 0x0, "k", 0x0, "(", 0x0, "%", 0x0, "d"
	DCB	0x0, ")", 0x0, ",", 0x0, " ", 0x0, "i", 0x0, "r", 0x0, "q"
	DCB	0x0, ":", 0x0, " ", 0x0, "%", 0x0, "d", 0x0, " ", 0x0, "t"
	DCB	0x0, "r", 0x0, "y", 0x0, "i", 0x0, "n", 0x0, "g", 0x0, " "
	DCB	0x0, "t", 0x0, "o", 0x0, " ", 0x0, "u", 0x0, "n", 0x0, "m"
	DCB	0x0, "a", 0x0, "s", 0x0, "k", 0x0, " ", 0x0, "a", 0x0, "n"
	DCB	0x0, " ", 0x0, "u", 0x0, "n", 0x0, "m", 0x0, "a", 0x0, "s"
	DCB	0x0, "k", 0x0, "e", 0x0, "d", 0x0, " ", 0x0, "i", 0x0, "n"
	DCB	0x0, "t", 0x0, "e", 0x0, "r", 0x0, "r", 0x0, "u", 0x0, "p"
	DCB	0x0, "t", 0x0, 0xd, 0x0, 0xa, 0x0, 0x0, 0x0 ; `string'

  00000			 AREA	 |.rdata|, DATA, READONLY
|??_C@_1EK@HPILFDCF@?$AA?$CL?$AAO?$AAE?$AAM?$AAI?$AAn?$AAt?$AAe?$AAr?$AAr?$AAu?$AAp?$AAt?$AAM?$AAa?$AAs?$AAk?$AA?$CI?$AA?$CF?$AAd?$AA?0?$AA?5?$AA?$CF?$AAd?$AA?$CJ?$AA?0?$AA?5?$AAi?$AAr?$AAq?$AA?3?$AA?5@| DCB "+"
	DCB	0x0, "O", 0x0, "E", 0x0, "M", 0x0, "I", 0x0, "n", 0x0, "t"
	DCB	0x0, "e", 0x0, "r", 0x0, "r", 0x0, "u", 0x0, "p", 0x0, "t"
	DCB	0x0, "M", 0x0, "a", 0x0, "s", 0x0, "k", 0x0, "(", 0x0, "%"
	DCB	0x0, "d", 0x0, ",", 0x0, " ", 0x0, "%", 0x0, "d", 0x0, ")"
	DCB	0x0, ",", 0x0, " ", 0x0, "i", 0x0, "r", 0x0, "q", 0x0, ":"
	DCB	0x0, " ", 0x0, "%", 0x0, "d", 0x0, 0xd, 0x0, 0xa, 0x0, 0x0
	DCB	0x0					; `string'
; Function compile flags: /Odtp

  00cd4			 AREA	 |.text|, CODE, ARM

  00cd4		 |OEMInterruptMask| PROC

; 376  : {

  00cd4		 |$LN17@OEMInterru@3|
  00cd4	e1a0c00d	 mov         r12, sp
  00cd8	e92d0003	 stmdb       sp!, {r0, r1}
  00cdc	e92d5000	 stmdb       sp!, {r12, lr}
  00ce0	e24dd010	 sub         sp, sp, #0x10
  00ce4		 |$M39478|

; 377  :     const UINT32 irq = g_oalSysIntr2Irq[sysIntr];

  00ce4	e59d1018	 ldr         r1, [sp, #0x18]
  00ce8	e3a03004	 mov         r3, #4
  00cec	e0020391	 mul         r2, r1, r3
  00cf0	e59f3218	 ldr         r3, [pc, #0x218]
  00cf4	e0833002	 add         r3, r3, r2
  00cf8	e5933000	 ldr         r3, [r3]
  00cfc	e58d3000	 str         r3, [sp]

; 378  : 
; 379  :     OALMSGS(OAL_INTR&&OAL_VERBOSE, (
; 380  :         L"+OEMInterruptMask(%d, %d), irq: %d\r\n", sysIntr, mask, irq
; 381  :         ));

  00d00	e59f31f4	 ldr         r3, [pc, #0x1F4]
  00d04	e5933440	 ldr         r3, [r3, #0x440]
  00d08	e3130901	 tst         r3, #1, 18
  00d0c	0a00000b	 beq         |$LN9@OEMInterru@3|
  00d10	e59f31e4	 ldr         r3, [pc, #0x1E4]
  00d14	e5933440	 ldr         r3, [r3, #0x440]
  00d18	e3130902	 tst         r3, #2, 18
  00d1c	0a000007	 beq         |$LN9@OEMInterru@3|
  00d20	e59d3000	 ldr         r3, [sp]
  00d24	e59d201c	 ldr         r2, [sp, #0x1C]
  00d28	e59d1018	 ldr         r1, [sp, #0x18]
  00d2c	e59f01d8	 ldr         r0, [pc, #0x1D8]
  00d30	eb000000	 bl          OALLogSerial
  00d34	e3a03001	 mov         r3, #1
  00d38	e58d3004	 str         r3, [sp, #4]
  00d3c	ea000001	 b           |$LN10@OEMInterru@3|
  00d40		 |$LN9@OEMInterru@3|
  00d40	e3a03000	 mov         r3, #0
  00d44	e58d3004	 str         r3, [sp, #4]
  00d48		 |$LN10@OEMInterru@3|

; 382  : 
; 383  :     // Based on mask enable or disable
; 384  :     if (mask)

  00d48	e59d301c	 ldr         r3, [sp, #0x1C]
  00d4c	e3530000	 cmp         r3, #0
  00d50	0a000020	 beq         |$LN6@OEMInterru@3|

; 385  :         {
; 386  :         // Update the mask reference count for this irq
; 387  :         g_oalIrqMaskRefCount[irq]++;

  00d54	e59d1000	 ldr         r1, [sp]
  00d58	e3a03004	 mov         r3, #4
  00d5c	e0020391	 mul         r2, r1, r3
  00d60	e59f3198	 ldr         r3, [pc, #0x198]
  00d64	e0833002	 add         r3, r3, r2
  00d68	e5933000	 ldr         r3, [r3]
  00d6c	e2830001	 add         r0, r3, #1
  00d70	e59d1000	 ldr         r1, [sp]
  00d74	e3a03004	 mov         r3, #4
  00d78	e0020391	 mul         r2, r1, r3
  00d7c	e59f317c	 ldr         r3, [pc, #0x17C]
  00d80	e0833002	 add         r3, r3, r2
  00d84	e5830000	 str         r0, [r3]

; 388  : 
; 389  :         // Disable the irq if it's not already disabled    
; 390  :         if(g_oalIrqRefCount[irq] > 0 && g_oalIrqMaskRefCount[irq] == 1)

  00d88	e59d1000	 ldr         r1, [sp]
  00d8c	e3a03004	 mov         r3, #4
  00d90	e0020391	 mul         r2, r1, r3
  00d94	e59f3168	 ldr         r3, [pc, #0x168]
  00d98	e0833002	 add         r3, r3, r2
  00d9c	e5933000	 ldr         r3, [r3]
  00da0	e3530000	 cmp         r3, #0
  00da4	9a00000a	 bls         |$LN5@OEMInterru@3|
  00da8	e59d1000	 ldr         r1, [sp]
  00dac	e3a03004	 mov         r3, #4
  00db0	e0020391	 mul         r2, r1, r3
  00db4	e59f3144	 ldr         r3, [pc, #0x144]
  00db8	e0833002	 add         r3, r3, r2
  00dbc	e5933000	 ldr         r3, [r3]
  00dc0	e3530001	 cmp         r3, #1
  00dc4	1a000002	 bne         |$LN5@OEMInterru@3|

; 391  :             {
; 392  :             OALIntrDisableIrqs(1, &irq);

  00dc8	e28d1000	 add         r1, sp, #0
  00dcc	e3a00001	 mov         r0, #1
  00dd0	eb000000	 bl          OALIntrDisableIrqs
  00dd4		 |$LN5@OEMInterru@3|

; 393  :             }
; 394  :         }
; 395  :     else 

  00dd4	ea000035	 b           |$LN4@OEMInterru@3|
  00dd8		 |$LN6@OEMInterru@3|

; 396  :         {
; 397  :         // Update the mask reference count for this irq
; 398  :         if( g_oalIrqMaskRefCount[irq] == 0)

  00dd8	e59d1000	 ldr         r1, [sp]
  00ddc	e3a03004	 mov         r3, #4
  00de0	e0020391	 mul         r2, r1, r3
  00de4	e59f3114	 ldr         r3, [pc, #0x114]
  00de8	e0833002	 add         r3, r3, r2
  00dec	e5933000	 ldr         r3, [r3]
  00df0	e3530000	 cmp         r3, #0
  00df4	1a00000d	 bne         |$LN3@OEMInterru@3|

; 399  :             {
; 400  :             OALMSGS(OAL_WARN, (L"OEMInterruptMask(%d), irq: %d trying to unmask an unmasked interrupt\r\n", sysIntr, irq));

  00df8	e59f30fc	 ldr         r3, [pc, #0xFC]
  00dfc	e5933440	 ldr         r3, [r3, #0x440]
  00e00	e3130002	 tst         r3, #2
  00e04	0a000006	 beq         |$LN11@OEMInterru@3|
  00e08	e59d2000	 ldr         r2, [sp]
  00e0c	e59d1018	 ldr         r1, [sp, #0x18]
  00e10	e59f00f0	 ldr         r0, [pc, #0xF0]
  00e14	eb000000	 bl          OALLogSerial
  00e18	e3a03001	 mov         r3, #1
  00e1c	e58d3008	 str         r3, [sp, #8]
  00e20	ea000001	 b           |$LN12@OEMInterru@3|
  00e24		 |$LN11@OEMInterru@3|
  00e24	e3a03000	 mov         r3, #0
  00e28	e58d3008	 str         r3, [sp, #8]
  00e2c		 |$LN12@OEMInterru@3|

; 401  :             }
; 402  :         else

  00e2c	ea00000c	 b           |$LN2@OEMInterru@3|
  00e30		 |$LN3@OEMInterru@3|

; 403  :             { 
; 404  :             g_oalIrqMaskRefCount[irq]--;

  00e30	e59d1000	 ldr         r1, [sp]
  00e34	e3a03004	 mov         r3, #4
  00e38	e0020391	 mul         r2, r1, r3
  00e3c	e59f30bc	 ldr         r3, [pc, #0xBC]
  00e40	e0833002	 add         r3, r3, r2
  00e44	e5933000	 ldr         r3, [r3]
  00e48	e2430001	 sub         r0, r3, #1
  00e4c	e59d1000	 ldr         r1, [sp]
  00e50	e3a03004	 mov         r3, #4
  00e54	e0020391	 mul         r2, r1, r3
  00e58	e59f30a0	 ldr         r3, [pc, #0xA0]
  00e5c	e0833002	 add         r3, r3, r2
  00e60	e5830000	 str         r0, [r3]
  00e64		 |$LN2@OEMInterru@3|

; 405  :             }
; 406  : 
; 407  :         // Enable the irq if it should be enabled
; 408  :         if(g_oalIrqRefCount[irq] > 0 && g_oalIrqMaskRefCount[irq] == 0)

  00e64	e59d1000	 ldr         r1, [sp]
  00e68	e3a03004	 mov         r3, #4
  00e6c	e0020391	 mul         r2, r1, r3
  00e70	e59f308c	 ldr         r3, [pc, #0x8C]
  00e74	e0833002	 add         r3, r3, r2
  00e78	e5933000	 ldr         r3, [r3]
  00e7c	e3530000	 cmp         r3, #0
  00e80	9a00000a	 bls         |$LN1@OEMInterru@3|
  00e84	e59d1000	 ldr         r1, [sp]
  00e88	e3a03004	 mov         r3, #4
  00e8c	e0020391	 mul         r2, r1, r3
  00e90	e59f3068	 ldr         r3, [pc, #0x68]
  00e94	e0833002	 add         r3, r3, r2
  00e98	e5933000	 ldr         r3, [r3]
  00e9c	e3530000	 cmp         r3, #0
  00ea0	1a000002	 bne         |$LN1@OEMInterru@3|

; 409  :             {
; 410  :             OALIntrEnableIrqs(1, &irq);

  00ea4	e28d1000	 add         r1, sp, #0
  00ea8	e3a00001	 mov         r0, #1
  00eac	eb000000	 bl          OALIntrEnableIrqs
  00eb0		 |$LN1@OEMInterru@3|
  00eb0		 |$LN4@OEMInterru@3|

; 411  :             }
; 412  :         }
; 413  :     OALMSGS(OAL_INTR&&OAL_VERBOSE, (L"-OEMInterruptMask\r\n"));

  00eb0	e59f3044	 ldr         r3, [pc, #0x44]
  00eb4	e5933440	 ldr         r3, [r3, #0x440]
  00eb8	e3130901	 tst         r3, #1, 18
  00ebc	0a000008	 beq         |$LN13@OEMInterru@3|
  00ec0	e59f3034	 ldr         r3, [pc, #0x34]
  00ec4	e5933440	 ldr         r3, [r3, #0x440]
  00ec8	e3130902	 tst         r3, #2, 18
  00ecc	0a000004	 beq         |$LN13@OEMInterru@3|
  00ed0	e59f0020	 ldr         r0, [pc, #0x20]
  00ed4	eb000000	 bl          OALLogSerial
  00ed8	e3a03001	 mov         r3, #1
  00edc	e58d300c	 str         r3, [sp, #0xC]
  00ee0	ea000001	 b           |$LN14@OEMInterru@3|
  00ee4		 |$LN13@OEMInterru@3|
  00ee4	e3a03000	 mov         r3, #0
  00ee8	e58d300c	 str         r3, [sp, #0xC]
  00eec		 |$LN14@OEMInterru@3|

; 414  : }

  00eec	e28dd010	 add         sp, sp, #0x10
  00ef0	e89d6000	 ldmia       sp, {sp, lr}
  00ef4	e12fff1e	 bx          lr
  00ef8		 |$LN18@OEMInterru@3|
  00ef8		 |$LN19@OEMInterru@3|
  00ef8	00000000	 DCD         |??_C@_1CI@OPHGDEL@?$AA?9?$AAO?$AAE?$AAM?$AAI?$AAn?$AAt?$AAe?$AAr?$AAr?$AAu?$AAp?$AAt?$AAM?$AAa?$AAs?$AAk?$AA?$AN?$AA?6?$AA?$AA@|
  00efc		 |$LN20@OEMInterru@3|
  00efc	00000000	 DCD         |dpCurSettings|
  00f00		 |$LN21@OEMInterru@3|
  00f00	00000000	 DCD         |g_oalIrqMaskRefCount|
  00f04		 |$LN22@OEMInterru@3|
  00f04	00000000	 DCD         |g_oalIrqRefCount|
  00f08		 |$LN23@OEMInterru@3|
  00f08	00000000	 DCD         |??_C@_1IO@PCGMJAEB@?$AAO?$AAE?$AAM?$AAI?$AAn?$AAt?$AAe?$AAr?$AAr?$AAu?$AAp?$AAt?$AAM?$AAa?$AAs?$AAk?$AA?$CI?$AA?$CF?$AAd?$AA?$CJ?$AA?0?$AA?5?$AAi?$AAr?$AAq?$AA?3?$AA?5?$AA?$CF?$AAd?$AA?5?$AAt?$AAr@|
  00f0c		 |$LN24@OEMInterru@3|
  00f0c	00000000	 DCD         |??_C@_1EK@HPILFDCF@?$AA?$CL?$AAO?$AAE?$AAM?$AAI?$AAn?$AAt?$AAe?$AAr?$AAr?$AAu?$AAp?$AAt?$AAM?$AAa?$AAs?$AAk?$AA?$CI?$AA?$CF?$AAd?$AA?0?$AA?5?$AA?$CF?$AAd?$AA?$CJ?$AA?0?$AA?5?$AAi?$AAr?$AAq?$AA?3?$AA?5@|
  00f10		 |$LN25@OEMInterru@3|
  00f10	00000000	 DCD         |g_oalSysIntr2Irq|
  00f14		 |$M39479|

			 ENDP  ; |OEMInterruptMask|

	EXPORT	|??_C@_1CI@IOEKFHHP@?$AA?9?$AAO?$AAE?$AAM?$AAI?$AAn?$AAt?$AAe?$AAr?$AAr?$AAu?$AAp?$AAt?$AAD?$AAo?$AAn?$AAe?$AA?$AN?$AA?6?$AA?$AA@| [ DATA ] ; `string'
	EXPORT	|??_C@_1EC@LLCCIDFP@?$AA?$CL?$AAO?$AAE?$AAM?$AAI?$AAn?$AAt?$AAe?$AAr?$AAr?$AAu?$AAp?$AAt?$AAD?$AAo?$AAn?$AAe?$AA?$CI?$AA?$CF?$AAd?$AA?$CJ?$AA?0?$AA?5?$AAi?$AAr?$AAq?$AA?3?$AA?5?$AA?$CF?$AAd?$AA?$AN?$AA?6@| [ DATA ] ; `string'
	EXPORT	|OEMInterruptDone|
	IMPORT	|OALIntrDoneIrqs|

  00048			 AREA	 |.pdata|, PDATA
|$T39498| DCD	|$LN9@OEMInterru@4|
	DCD	0x40003904

  00000			 AREA	 |.rdata|, DATA, READONLY
|??_C@_1CI@IOEKFHHP@?$AA?9?$AAO?$AAE?$AAM?$AAI?$AAn?$AAt?$AAe?$AAr?$AAr?$AAu?$AAp?$AAt?$AAD?$AAo?$AAn?$AAe?$AA?$AN?$AA?6?$AA?$AA@| DCB "-"
	DCB	0x0, "O", 0x0, "E", 0x0, "M", 0x0, "I", 0x0, "n", 0x0, "t"
	DCB	0x0, "e", 0x0, "r", 0x0, "r", 0x0, "u", 0x0, "p", 0x0, "t"
	DCB	0x0, "D", 0x0, "o", 0x0, "n", 0x0, "e", 0x0, 0xd, 0x0, 0xa
	DCB	0x0, 0x0, 0x0				; `string'

  00000			 AREA	 |.rdata|, DATA, READONLY
|??_C@_1EC@LLCCIDFP@?$AA?$CL?$AAO?$AAE?$AAM?$AAI?$AAn?$AAt?$AAe?$AAr?$AAr?$AAu?$AAp?$AAt?$AAD?$AAo?$AAn?$AAe?$AA?$CI?$AA?$CF?$AAd?$AA?$CJ?$AA?0?$AA?5?$AAi?$AAr?$AAq?$AA?3?$AA?5?$AA?$CF?$AAd?$AA?$AN?$AA?6@| DCB "+"
	DCB	0x0, "O", 0x0, "E", 0x0, "M", 0x0, "I", 0x0, "n", 0x0, "t"
	DCB	0x0, "e", 0x0, "r", 0x0, "r", 0x0, "u", 0x0, "p", 0x0, "t"
	DCB	0x0, "D", 0x0, "o", 0x0, "n", 0x0, "e", 0x0, "(", 0x0, "%"
	DCB	0x0, "d", 0x0, ")", 0x0, ",", 0x0, " ", 0x0, "i", 0x0, "r"
	DCB	0x0, "q", 0x0, ":", 0x0, " ", 0x0, "%", 0x0, "d", 0x0, 0xd
	DCB	0x0, 0xa, 0x0, 0x0, 0x0			; `string'
; Function compile flags: /Odtp

  00f14			 AREA	 |.text|, CODE, ARM

  00f14		 |OEMInterruptDone| PROC

; 428  : {

  00f14		 |$LN9@OEMInterru@4|
  00f14	e1a0c00d	 mov         r12, sp
  00f18	e92d0001	 stmdb       sp!, {r0}
  00f1c	e92d5000	 stmdb       sp!, {r12, lr}
  00f20	e24dd00c	 sub         sp, sp, #0xC
  00f24		 |$M39495|

; 429  :     const UINT32 irq = g_oalSysIntr2Irq[sysIntr];

  00f24	e59d1014	 ldr         r1, [sp, #0x14]
  00f28	e3a03004	 mov         r3, #4
  00f2c	e0020391	 mul         r2, r1, r3
  00f30	e59f30b8	 ldr         r3, [pc, #0xB8]
  00f34	e0833002	 add         r3, r3, r2
  00f38	e5933000	 ldr         r3, [r3]
  00f3c	e58d3000	 str         r3, [sp]

; 430  : 
; 431  :     OALMSGS(OAL_INTR&&OAL_VERBOSE, (L"+OEMInterruptDone(%d), irq: %d\r\n", sysIntr, irq));

  00f40	e59f30a4	 ldr         r3, [pc, #0xA4]
  00f44	e5933440	 ldr         r3, [r3, #0x440]
  00f48	e3130901	 tst         r3, #1, 18
  00f4c	0a00000a	 beq         |$LN3@OEMInterru@4|
  00f50	e59f3094	 ldr         r3, [pc, #0x94]
  00f54	e5933440	 ldr         r3, [r3, #0x440]
  00f58	e3130902	 tst         r3, #2, 18
  00f5c	0a000006	 beq         |$LN3@OEMInterru@4|
  00f60	e59d2000	 ldr         r2, [sp]
  00f64	e59d1014	 ldr         r1, [sp, #0x14]
  00f68	e59f0084	 ldr         r0, [pc, #0x84]
  00f6c	eb000000	 bl          OALLogSerial
  00f70	e3a03001	 mov         r3, #1
  00f74	e58d3004	 str         r3, [sp, #4]
  00f78	ea000001	 b           |$LN4@OEMInterru@4|
  00f7c		 |$LN3@OEMInterru@4|
  00f7c	e3a03000	 mov         r3, #0
  00f80	e58d3004	 str         r3, [sp, #4]
  00f84		 |$LN4@OEMInterru@4|

; 432  : 
; 433  :     OALIntrDoneIrqs(1, &g_oalSysIntr2Irq[sysIntr]);

  00f84	e59d1014	 ldr         r1, [sp, #0x14]
  00f88	e3a03004	 mov         r3, #4
  00f8c	e0020391	 mul         r2, r1, r3
  00f90	e59f3058	 ldr         r3, [pc, #0x58]
  00f94	e0831002	 add         r1, r3, r2
  00f98	e3a00001	 mov         r0, #1
  00f9c	eb000000	 bl          OALIntrDoneIrqs

; 434  : 
; 435  :     OALMSGS(OAL_INTR&&OAL_VERBOSE, (L"-OEMInterruptDone\r\n"));

  00fa0	e59f3044	 ldr         r3, [pc, #0x44]
  00fa4	e5933440	 ldr         r3, [r3, #0x440]
  00fa8	e3130901	 tst         r3, #1, 18
  00fac	0a000008	 beq         |$LN5@OEMInterru@4|
  00fb0	e59f3034	 ldr         r3, [pc, #0x34]
  00fb4	e5933440	 ldr         r3, [r3, #0x440]
  00fb8	e3130902	 tst         r3, #2, 18
  00fbc	0a000004	 beq         |$LN5@OEMInterru@4|
  00fc0	e59f0020	 ldr         r0, [pc, #0x20]
  00fc4	eb000000	 bl          OALLogSerial
  00fc8	e3a03001	 mov         r3, #1
  00fcc	e58d3008	 str         r3, [sp, #8]
  00fd0	ea000001	 b           |$LN6@OEMInterru@4|
  00fd4		 |$LN5@OEMInterru@4|
  00fd4	e3a03000	 mov         r3, #0
  00fd8	e58d3008	 str         r3, [sp, #8]
  00fdc		 |$LN6@OEMInterru@4|

; 436  : }

  00fdc	e28dd00c	 add         sp, sp, #0xC
  00fe0	e89d6000	 ldmia       sp, {sp, lr}
  00fe4	e12fff1e	 bx          lr
  00fe8		 |$LN10@OEMInterru@4|
  00fe8		 |$LN11@OEMInterru@4|
  00fe8	00000000	 DCD         |??_C@_1CI@IOEKFHHP@?$AA?9?$AAO?$AAE?$AAM?$AAI?$AAn?$AAt?$AAe?$AAr?$AAr?$AAu?$AAp?$AAt?$AAD?$AAo?$AAn?$AAe?$AA?$AN?$AA?6?$AA?$AA@|
  00fec		 |$LN12@OEMInterru@4|
  00fec	00000000	 DCD         |dpCurSettings|
  00ff0		 |$LN13@OEMInterru@4|
  00ff0	00000000	 DCD         |g_oalSysIntr2Irq|
  00ff4		 |$LN14@OEMInterru@4|
  00ff4	00000000	 DCD         |??_C@_1EC@LLCCIDFP@?$AA?$CL?$AAO?$AAE?$AAM?$AAI?$AAn?$AAt?$AAe?$AAr?$AAr?$AAu?$AAp?$AAt?$AAD?$AAo?$AAn?$AAe?$AA?$CI?$AA?$CF?$AAd?$AA?$CJ?$AA?0?$AA?5?$AAi?$AAr?$AAq?$AA?3?$AA?5?$AA?$CF?$AAd?$AA?$AN?$AA?6@|
  00ff8		 |$M39496|

			 ENDP  ; |OEMInterruptDone|

	END
