; Listing generated by Microsoft (R) Optimizing Compiler Version 14.01.60511.01 

	TTL	C:\WINCE600\PLATFORM\COMMON\SRC\SOC\COMMON_TI_V1\TPS659XX\KEYPAD\keypad.c
	CODE32

  00000			 AREA	 |.drectve|, DRECTVE
	DCB	"-defaultlib:LIBCMT "
	DCB	"-defaultlib:OLDNAMES "

	EXPORT	|??_C@_1BK@MBPNPOKM@?$AAK?$AAe?$AAy?$AAp?$AAa?$AAd?$AAL?$AAe?$AAd?$AAN?$AAu?$AAm?$AA?$AA@| [ DATA ] ; `string'
	EXPORT	|??_C@_1CG@CGBLFBGH@?$AAK?$AAe?$AAy?$AAp?$AAa?$AAd?$AAL?$AAi?$AAg?$AAh?$AAt?$AAT?$AAi?$AAm?$AAe?$AAo?$AAu?$AAt?$AA?$AA@| [ DATA ] ; `string'
	EXPORT	|??_C@_1BE@MAKEJFGC@?$AAP?$AAo?$AAw?$AAe?$AAr?$AAM?$AAa?$AAs?$AAk?$AA?$AA@| [ DATA ] ; `string'
	EXPORT	|??_C@_1BK@NNCBJPIE@?$AAE?$AAn?$AAa?$AAb?$AAl?$AAe?$AAO?$AAf?$AAf?$AAK?$AAe?$AAy?$AA?$AA@| [ DATA ] ; `string'
	EXPORT	|??_C@_1BG@LIOJCANL@?$AAN?$AAe?$AAx?$AAt?$AAR?$AAe?$AAp?$AAe?$AAa?$AAt?$AA?$AA@| [ DATA ] ; `string'
	EXPORT	|??_C@_1BI@DEPDCBKF@?$AAF?$AAi?$AAr?$AAs?$AAt?$AAR?$AAe?$AAp?$AAe?$AAa?$AAt?$AA?$AA@| [ DATA ] ; `string'
	EXPORT	|??_C@_1BK@LFBEMINK@?$AAS?$AAa?$AAm?$AAp?$AAl?$AAe?$AAP?$AAe?$AAr?$AAi?$AAo?$AAd?$AA?$AA@| [ DATA ] ; `string'
	EXPORT	|??_C@_1CA@BCDOPOGB@?$AAD?$AAe?$AAb?$AAo?$AAu?$AAn?$AAc?$AAe?$AAC?$AAo?$AAu?$AAn?$AAt?$AAe?$AAr?$AA?$AA@| [ DATA ] ; `string'
	EXPORT	|??_C@_1BK@PCIKFLJA@?$AAC?$AAl?$AAo?$AAc?$AAk?$AAD?$AAi?$AAv?$AAi?$AAd?$AAe?$AAr?$AA?$AA@| [ DATA ] ; `string'
	EXPORT	|??_C@_1BG@GJAODHJH@?$AAE?$AAn?$AAa?$AAb?$AAl?$AAe?$AAW?$AAa?$AAk?$AAe?$AA?$AA@| [ DATA ] ; `string'
	EXPORT	|??_C@_1BI@BHLBGEOK@?$AAP?$AAr?$AAi?$AAo?$AAr?$AAi?$AAt?$AAy?$AA2?$AA5?$AA6?$AA?$AA@| [ DATA ] ; `string'
	EXPORT	|DEVICE_IFC_TWL_GUID| [ DATA ]
	EXPORT	|dpCurSettings| [ DATA ]

  00000			 AREA	 |.rdata|, DATA, READONLY
|??_C@_1BK@MBPNPOKM@?$AAK?$AAe?$AAy?$AAp?$AAa?$AAd?$AAL?$AAe?$AAd?$AAN?$AAu?$AAm?$AA?$AA@| DCB "K"
	DCB	0x0, "e", 0x0, "y", 0x0, "p", 0x0, "a", 0x0, "d", 0x0, "L"
	DCB	0x0, "e", 0x0, "d", 0x0, "N", 0x0, "u", 0x0, "m", 0x0, 0x0
	DCB	0x0					; `string'

  00000			 AREA	 |.rdata|, DATA, READONLY
|??_C@_1CG@CGBLFBGH@?$AAK?$AAe?$AAy?$AAp?$AAa?$AAd?$AAL?$AAi?$AAg?$AAh?$AAt?$AAT?$AAi?$AAm?$AAe?$AAo?$AAu?$AAt?$AA?$AA@| DCB "K"
	DCB	0x0, "e", 0x0, "y", 0x0, "p", 0x0, "a", 0x0, "d", 0x0, "L"
	DCB	0x0, "i", 0x0, "g", 0x0, "h", 0x0, "t", 0x0, "T", 0x0, "i"
	DCB	0x0, "m", 0x0, "e", 0x0, "o", 0x0, "u", 0x0, "t", 0x0, 0x0
	DCB	0x0					; `string'

  00000			 AREA	 |.rdata|, DATA, READONLY
|??_C@_1BE@MAKEJFGC@?$AAP?$AAo?$AAw?$AAe?$AAr?$AAM?$AAa?$AAs?$AAk?$AA?$AA@| DCB "P"
	DCB	0x0, "o", 0x0, "w", 0x0, "e", 0x0, "r", 0x0, "M", 0x0, "a"
	DCB	0x0, "s", 0x0, "k", 0x0, 0x0, 0x0	; `string'

  00000			 AREA	 |.rdata|, DATA, READONLY
|??_C@_1BK@NNCBJPIE@?$AAE?$AAn?$AAa?$AAb?$AAl?$AAe?$AAO?$AAf?$AAf?$AAK?$AAe?$AAy?$AA?$AA@| DCB "E"
	DCB	0x0, "n", 0x0, "a", 0x0, "b", 0x0, "l", 0x0, "e", 0x0, "O"
	DCB	0x0, "f", 0x0, "f", 0x0, "K", 0x0, "e", 0x0, "y", 0x0, 0x0
	DCB	0x0					; `string'

  00000			 AREA	 |.rdata|, DATA, READONLY
|??_C@_1BG@LIOJCANL@?$AAN?$AAe?$AAx?$AAt?$AAR?$AAe?$AAp?$AAe?$AAa?$AAt?$AA?$AA@| DCB "N"
	DCB	0x0, "e", 0x0, "x", 0x0, "t", 0x0, "R", 0x0, "e", 0x0, "p"
	DCB	0x0, "e", 0x0, "a", 0x0, "t", 0x0, 0x0, 0x0 ; `string'

  00000			 AREA	 |.rdata|, DATA, READONLY
|??_C@_1BI@DEPDCBKF@?$AAF?$AAi?$AAr?$AAs?$AAt?$AAR?$AAe?$AAp?$AAe?$AAa?$AAt?$AA?$AA@| DCB "F"
	DCB	0x0, "i", 0x0, "r", 0x0, "s", 0x0, "t", 0x0, "R", 0x0, "e"
	DCB	0x0, "p", 0x0, "e", 0x0, "a", 0x0, "t", 0x0, 0x0, 0x0 ; `string'

  00000			 AREA	 |.rdata|, DATA, READONLY
|??_C@_1BK@LFBEMINK@?$AAS?$AAa?$AAm?$AAp?$AAl?$AAe?$AAP?$AAe?$AAr?$AAi?$AAo?$AAd?$AA?$AA@| DCB "S"
	DCB	0x0, "a", 0x0, "m", 0x0, "p", 0x0, "l", 0x0, "e", 0x0, "P"
	DCB	0x0, "e", 0x0, "r", 0x0, "i", 0x0, "o", 0x0, "d", 0x0, 0x0
	DCB	0x0					; `string'

  00000			 AREA	 |.rdata|, DATA, READONLY
|??_C@_1CA@BCDOPOGB@?$AAD?$AAe?$AAb?$AAo?$AAu?$AAn?$AAc?$AAe?$AAC?$AAo?$AAu?$AAn?$AAt?$AAe?$AAr?$AA?$AA@| DCB "D"
	DCB	0x0, "e", 0x0, "b", 0x0, "o", 0x0, "u", 0x0, "n", 0x0, "c"
	DCB	0x0, "e", 0x0, "C", 0x0, "o", 0x0, "u", 0x0, "n", 0x0, "t"
	DCB	0x0, "e", 0x0, "r", 0x0, 0x0, 0x0	; `string'

  00000			 AREA	 |.rdata|, DATA, READONLY
|??_C@_1BK@PCIKFLJA@?$AAC?$AAl?$AAo?$AAc?$AAk?$AAD?$AAi?$AAv?$AAi?$AAd?$AAe?$AAr?$AA?$AA@| DCB "C"
	DCB	0x0, "l", 0x0, "o", 0x0, "c", 0x0, "k", 0x0, "D", 0x0, "i"
	DCB	0x0, "v", 0x0, "i", 0x0, "d", 0x0, "e", 0x0, "r", 0x0, 0x0
	DCB	0x0					; `string'

  00000			 AREA	 |.rdata|, DATA, READONLY
|??_C@_1BG@GJAODHJH@?$AAE?$AAn?$AAa?$AAb?$AAl?$AAe?$AAW?$AAa?$AAk?$AAe?$AA?$AA@| DCB "E"
	DCB	0x0, "n", 0x0, "a", 0x0, "b", 0x0, "l", 0x0, "e", 0x0, "W"
	DCB	0x0, "a", 0x0, "k", 0x0, "e", 0x0, 0x0, 0x0 ; `string'

  00000			 AREA	 |.rdata|, DATA, READONLY
|??_C@_1BI@BHLBGEOK@?$AAP?$AAr?$AAi?$AAo?$AAr?$AAi?$AAt?$AAy?$AA2?$AA5?$AA6?$AA?$AA@| DCB "P"
	DCB	0x0, "r", 0x0, "i", 0x0, "o", 0x0, "r", 0x0, "i", 0x0, "t"
	DCB	0x0, "y", 0x0, "2", 0x0, "5", 0x0, "6", 0x0, 0x0, 0x0 ; `string'

  00000			 AREA	 |.data|, DATA
|dpCurSettings| DCB "k", 0x0, "e", 0x0, "y", 0x0, "p", 0x0, "a", 0x0, "d", 0x0
	DCB	0x0, 0x0
	%	50
	DCB	"E", 0x0, "r", 0x0, "r", 0x0, "o", 0x0, "r", 0x0, "s", 0x0
	DCB	0x0, 0x0
	%	50
	DCB	"W", 0x0, "a", 0x0, "r", 0x0, "n", 0x0, "i", 0x0, "n", 0x0
	DCB	"g", 0x0, "s", 0x0, 0x0, 0x0
	%	46
	DCB	"F", 0x0, "u", 0x0, "n", 0x0, "c", 0x0, "t", 0x0, "i", 0x0
	DCB	"o", 0x0, "n", 0x0, 0x0, 0x0
	%	46
	DCB	"I", 0x0, "n", 0x0, "f", 0x0, "o", 0x0, 0x0, 0x0
	%	54
	DCB	"I", 0x0, "S", 0x0, "T", 0x0, 0x0, 0x0
	%	56
	DCB	"U", 0x0, "n", 0x0, "d", 0x0, "e", 0x0, "f", 0x0, "i", 0x0
	DCB	"n", 0x0, "e", 0x0, "d", 0x0, 0x0, 0x0
	%	44
	DCB	"U", 0x0, "n", 0x0, "d", 0x0, "e", 0x0, "f", 0x0, "i", 0x0
	DCB	"n", 0x0, "e", 0x0, "d", 0x0, 0x0, 0x0
	%	44
	DCB	"U", 0x0, "n", 0x0, "d", 0x0, "e", 0x0, "f", 0x0, "i", 0x0
	DCB	"n", 0x0, "e", 0x0, "d", 0x0, 0x0, 0x0
	%	44
	DCB	"U", 0x0, "n", 0x0, "d", 0x0, "e", 0x0, "f", 0x0, "i", 0x0
	DCB	"n", 0x0, "e", 0x0, "d", 0x0, 0x0, 0x0
	%	44
	DCB	"U", 0x0, "n", 0x0, "d", 0x0, "e", 0x0, "f", 0x0, "i", 0x0
	DCB	"n", 0x0, "e", 0x0, "d", 0x0, 0x0, 0x0
	%	44
	DCB	"U", 0x0, "n", 0x0, "d", 0x0, "e", 0x0, "f", 0x0, "i", 0x0
	DCB	"n", 0x0, "e", 0x0, "d", 0x0, 0x0, 0x0
	%	44
	DCB	"U", 0x0, "n", 0x0, "d", 0x0, "e", 0x0, "f", 0x0, "i", 0x0
	DCB	"n", 0x0, "e", 0x0, "d", 0x0, 0x0, 0x0
	%	44
	DCB	"U", 0x0, "n", 0x0, "d", 0x0, "e", 0x0, "f", 0x0, "i", 0x0
	DCB	"n", 0x0, "e", 0x0, "d", 0x0, 0x0, 0x0
	%	44
	DCB	"U", 0x0, "n", 0x0, "d", 0x0, "e", 0x0, "f", 0x0, "i", 0x0
	DCB	"n", 0x0, "e", 0x0, "d", 0x0, 0x0, 0x0
	%	44
	DCB	"U", 0x0, "n", 0x0, "d", 0x0, "e", 0x0, "f", 0x0, "i", 0x0
	DCB	"n", 0x0, "e", 0x0, "d", 0x0, 0x0, 0x0
	%	44
	DCB	"U", 0x0, "n", 0x0, "d", 0x0, "e", 0x0, "f", 0x0, "i", 0x0
	DCB	"n", 0x0, "e", 0x0, "d", 0x0, 0x0, 0x0
	%	44
	DCD	0x3
|g_iDisplayOrientation| DCD 0xffffffff

  00000			 AREA	 |.rdata|, DATA, READONLY
|EdbgVendorIds| DCW 0x0
	DCW	0x0
	DCD	0x4033
	DCB	0x1
	DCB	"AD", 0x0
	DCW	0x1050
	DCW	0x940
	DCD	0x4005
	DCB	0x1
	DCB	"LS", 0x0
	DCW	0x1050
	DCW	0x940
	DCD	0x2078
	DCB	0x1
	DCB	"LS", 0x0
	DCW	0x10ec
	DCW	0x8029
	DCD	0xc0f0
	DCB	0x1
	DCB	"KS", 0x0
	DCW	0x10ec
	DCW	0x8129
	DCD	0x0
	DCB	0x4
	DCB	"RT", 0x0
	DCW	0x10ec
	DCW	0x8139
	DCD	0x900b
	DCB	0x4
	DCB	"RT", 0x0
	DCW	0x10ec
	DCW	0x8139
	DCD	0xd0c9
	DCB	0x4
	DCB	"RT", 0x0
	DCW	0x10ec
	DCW	0x8139
	DCD	0xe04c
	DCB	0x4
	DCB	"RT", 0x0
	DCW	0x1186
	DCW	0x1300
	DCD	0x50ba
	DCB	0x4
	DCB	"DL", 0x0
	DCW	0x100b
	DCW	0x20
	DCD	0xa0cc
	DCB	0x5
	DCB	"NG", 0x0
	DCW	0x10b7
	DCW	0x9050
	DCD	0x6008
	DCB	0x6
	DCB	"3C", 0x0
	DCW	0x10b7
	DCW	0x9200
	DCD	0x476
	DCB	0x6
	DCB	"3C", 0x0
|DEVICE_IFC_TWL_GUID| DCD 0xdef0a04b
	DCW	0xb967
	DCW	0x43db
	DCB	0x95
	DCB	0x9e
	DCB	0xd9
	DCB	0xfc
	DCB	0x62
	DCB	0x25
	DCB	0xcd
	DCB	0xeb
|s_deviceRegParams| DCD |??_C@_1BI@BHLBGEOK@?$AAP?$AAr?$AAi?$AAo?$AAr?$AAi?$AAt?$AAy?$AA2?$AA5?$AA6?$AA?$AA@|
	DCD	0x1
	DCD	0x0
	DCD	0x4
	DCD	0x4
	DCD	0x64
	DCD	|??_C@_1BG@GJAODHJH@?$AAE?$AAn?$AAa?$AAb?$AAl?$AAe?$AAW?$AAa?$AAk?$AAe?$AA?$AA@|
	DCD	0x1
	DCD	0x0
	DCD	0x8
	DCD	0x4
	DCD	0x1
	DCD	|??_C@_1BK@PCIKFLJA@?$AAC?$AAl?$AAo?$AAc?$AAk?$AAD?$AAi?$AAv?$AAi?$AAd?$AAe?$AAr?$AA?$AA@|
	DCD	0x1
	DCD	0x0
	DCD	0xc
	DCD	0x4
	DCD	0x5
	DCD	|??_C@_1CA@BCDOPOGB@?$AAD?$AAe?$AAb?$AAo?$AAu?$AAn?$AAc?$AAe?$AAC?$AAo?$AAu?$AAn?$AAt?$AAe?$AAr?$AA?$AA@|
	DCD	0x1
	DCD	0x0
	DCD	0x10
	DCD	0x4
	DCD	0x4
	DCD	|??_C@_1BK@LFBEMINK@?$AAS?$AAa?$AAm?$AAp?$AAl?$AAe?$AAP?$AAe?$AAr?$AAi?$AAo?$AAd?$AA?$AA@|
	DCD	0x1
	DCD	0x0
	DCD	0x14
	DCD	0x4
	DCD	0x28
	DCD	|??_C@_1BI@DEPDCBKF@?$AAF?$AAi?$AAr?$AAs?$AAt?$AAR?$AAe?$AAp?$AAe?$AAa?$AAt?$AA?$AA@|
	DCD	0x1
	DCD	0x0
	DCD	0x18
	DCD	0x4
	DCD	0x1f4
	DCD	|??_C@_1BG@LIOJCANL@?$AAN?$AAe?$AAx?$AAt?$AAR?$AAe?$AAp?$AAe?$AAa?$AAt?$AA?$AA@|
	DCD	0x1
	DCD	0x0
	DCD	0x1c
	DCD	0x4
	DCD	0x7d
	DCD	|??_C@_1BK@NNCBJPIE@?$AAE?$AAn?$AAa?$AAb?$AAl?$AAe?$AAO?$AAf?$AAf?$AAK?$AAe?$AAy?$AA?$AA@|
	DCD	0x1
	DCD	0x0
	DCD	0x40
	DCD	0x4
	DCD	0x0
	DCD	|??_C@_1BE@MAKEJFGC@?$AAP?$AAo?$AAw?$AAe?$AAr?$AAM?$AAa?$AAs?$AAk?$AA?$AA@|
	DCD	0x1
	DCD	0x1
	DCD	0x2c
	DCD	0x4
	DCD	0x0
	DCD	|??_C@_1CG@CGBLFBGH@?$AAK?$AAe?$AAy?$AAp?$AAa?$AAd?$AAL?$AAi?$AAg?$AAh?$AAt?$AAT?$AAi?$AAm?$AAe?$AAo?$AAu?$AAt?$AA?$AA@|
	DCD	0x1
	DCD	0x0
	DCD	0x48
	DCD	0x4
	DCD	0x1388
	DCD	|??_C@_1BK@MBPNPOKM@?$AAK?$AAe?$AAy?$AAp?$AAa?$AAd?$AAL?$AAe?$AAd?$AAN?$AAu?$AAm?$AA?$AA@|
	DCD	0x1
	DCD	0x0
	DCD	0x44
	DCD	0x4
	DCD	0xffffffff
|?ucOrientationDMDO_0VKTable@?1??RemapVKeyToScreenOrientation@@9@9| DCB 0x26 ; `RemapVKeyToScreenOrientation'::`2'::ucOrientationDMDO_0VKTable
	DCB	0x27
	DCB	0x28
	DCB	0x25
|?ucOrientationDMDO_90VKTable@?1??RemapVKeyToScreenOrientation@@9@9| DCB 0x27 ; `RemapVKeyToScreenOrientation'::`2'::ucOrientationDMDO_90VKTable
	DCB	0x28
	DCB	0x25
	DCB	0x26
|?ucOrientationDMDO_180VKTable@?1??RemapVKeyToScreenOrientation@@9@9| DCB 0x28 ; `RemapVKeyToScreenOrientation'::`2'::ucOrientationDMDO_180VKTable
	DCB	0x25
	DCB	0x26
	DCB	0x27
|?ucOrientationDMDO_270VKTable@?1??RemapVKeyToScreenOrientation@@9@9| DCB 0x25 ; `RemapVKeyToScreenOrientation'::`2'::ucOrientationDMDO_270VKTable
	DCB	0x26
	DCB	0x27
	DCB	0x28
	EXPORT	|SetEvent|
	IMPORT	|EventModify|
; File c:\wince600\public\common\sdk\inc\kfuncs.h

  00000			 AREA	 |.pdata|, PDATA
|$T44305| DCD	|$LN5@SetEvent|
	DCD	0x40000501
; Function compile flags: /Ogspy

  00000			 AREA	 |.text|, CODE, ARM

  00000		 |SetEvent| PROC

; 235  : _inline BOOL SetEvent(HANDLE h) {

  00000		 |$LN5@SetEvent|
  00000	e52de004	 str         lr, [sp, #-4]!
  00004		 |$M44302|

; 236  : 	return EventModify(h,EVENT_SET);

  00004	e3a01003	 mov         r1, #3
  00008	eb000000	 bl          EventModify

; 237  : }

  0000c	e49de004	 ldr         lr, [sp], #4
  00010	e12fff1e	 bx          lr
  00014		 |$M44303|

			 ENDP  ; |SetEvent|

	EXPORT	|SetPowerState|
	EXPORT	|??_C@_1GK@HKLOGBGD@?$AAW?$AAA?$AAR?$AAN?$AA?3?$AA?5?$AAK?$AAP?$AAD?$AA?3?$AA?3?$AAS?$AAe?$AAt?$AAP?$AAo?$AAw?$AAe?$AAr?$AAS?$AAt?$AAa?$AAt?$AAe?$AA?3?$AA?5?$AAI?$AAn?$AAv?$AAa?$AAl?$AAi@| [ DATA ] ; `string'
	IMPORT	|NKDbgPrintfW|
; File c:\wince600\platform\common\src\soc\common_ti_v1\tps659xx\keypad\keypad.c

  00000			 AREA	 |.pdata|, PDATA
|$T44319| DCD	|$LN11@SetPowerSt|
	DCD	0x40001201

  00000			 AREA	 |.rdata|, DATA, READONLY
|??_C@_1GK@HKLOGBGD@?$AAW?$AAA?$AAR?$AAN?$AA?3?$AA?5?$AAK?$AAP?$AAD?$AA?3?$AA?3?$AAS?$AAe?$AAt?$AAP?$AAo?$AAw?$AAe?$AAr?$AAS?$AAt?$AAa?$AAt?$AAe?$AA?3?$AA?5?$AAI?$AAn?$AAv?$AAa?$AAl?$AAi@| DCB "W"
	DCB	0x0, "A", 0x0, "R", 0x0, "N", 0x0, ":", 0x0, " ", 0x0, "K"
	DCB	0x0, "P", 0x0, "D", 0x0, ":", 0x0, ":", 0x0, "S", 0x0, "e"
	DCB	0x0, "t", 0x0, "P", 0x0, "o", 0x0, "w", 0x0, "e", 0x0, "r"
	DCB	0x0, "S", 0x0, "t", 0x0, "a", 0x0, "t", 0x0, "e", 0x0, ":"
	DCB	0x0, " ", 0x0, "I", 0x0, "n", 0x0, "v", 0x0, "a", 0x0, "l"
	DCB	0x0, "i", 0x0, "d", 0x0, " ", 0x0, "p", 0x0, "o", 0x0, "w"
	DCB	0x0, "e", 0x0, "r", 0x0, " ", 0x0, "s", 0x0, "t", 0x0, "a"
	DCB	0x0, "t", 0x0, "e", 0x0, " ", 0x0, "(", 0x0, "%", 0x0, "d"
	DCB	0x0, ")", 0x0, 0xd, 0x0, 0xa, 0x0, 0x0, 0x0 ; `string'
; Function compile flags: /Ogspy

  00000			 AREA	 |.text|, CODE, ARM

  00000		 |SetPowerState| PROC

; 280  : {

  00000		 |$LN11@SetPowerSt|
  00000	e92d4010	 stmdb       sp!, {r4, lr}
  00004		 |$M44316|
  00004	e3510000	 cmp         r1, #0

; 281  :     BOOL rc = FALSE;

  00008	e3a04000	 mov         r4, #0

; 282  :     
; 283  :     DEBUGMSG(ZONE_FUNCTION, (
; 284  :         L"+SetPowerState(0x%08X, 0x%08x)\r\n", pDevice, power
; 285  :         ));
; 286  : 
; 287  :     switch (power)

  0000c	4a000003	 bmi         |$LN1@SetPowerSt|
  00010	e3510004	 cmp         r1, #4

; 300  :             goto cleanUp;
; 301  :         }
; 302  : 
; 303  :     pDevice->powerState = power;

  00014	d5801030	 strle       r1, [r0, #0x30]

; 304  : 
; 305  :     rc = TRUE;

  00018	d3a04001	 movle       r4, #1
  0001c	da000004	 ble         |$cleanUp$43812|
  00020		 |$LN1@SetPowerSt|

; 288  :         {
; 289  :         case D0:
; 290  :         case D1:
; 291  :         case D2:
; 292  :         case D3:
; 293  :         case D4:
; 294  :             break;
; 295  : 
; 296  :         default:
; 297  :             RETAILMSG(ZONE_WARN, (L"WARN: KPD::SetPowerState: "
; 298  :                 L"Invalid power state (%d)\r\n", power
; 299  :                 ));            

  00020	e59f301c	 ldr         r3, [pc, #0x1C]
  00024	e5933440	 ldr         r3, [r3, #0x440]
  00028	e3130002	 tst         r3, #2
  0002c	159f000c	 ldrne       r0, [pc, #0xC]
  00030	1b000000	 blne        NKDbgPrintfW
  00034		 |$cleanUp$43812|

; 306  :     
; 307  : cleanUp:
; 308  :     DEBUGMSG(ZONE_FUNCTION, (
; 309  :         L"-SetPowerState(0x%08X, 0x%08x)\r\n", pDevice, power
; 310  :         ));
; 311  :         
; 312  :     return rc;
; 313  : }

  00034	e1a00004	 mov         r0, r4
  00038	e8bd4010	 ldmia       sp!, {r4, lr}
  0003c	e12fff1e	 bx          lr
  00040		 |$LN12@SetPowerSt|
  00040		 |$LN13@SetPowerSt|
  00040	00000000	 DCD         |??_C@_1GK@HKLOGBGD@?$AAW?$AAA?$AAR?$AAN?$AA?3?$AA?5?$AAK?$AAP?$AAD?$AA?3?$AA?3?$AAS?$AAe?$AAt?$AAP?$AAo?$AAw?$AAe?$AAr?$AAS?$AAt?$AAa?$AAt?$AAe?$AA?3?$AA?5?$AAI?$AAn?$AAv?$AAa?$AAl?$AAi@|
  00044		 |$LN14@SetPowerSt|
  00044	00000000	 DCD         |dpCurSettings|
  00048		 |$M44317|

			 ENDP  ; |SetPowerState|

	EXPORT	|KPD_Deinit|
	IMPORT	|LocalFree|
	IMPORT	|TWLClose|
	IMPORT	|TWLInterruptDisable|
	IMPORT	|TWLInterruptMask|
	IMPORT	|CloseHandle|
	IMPORT	|WaitForSingleObject|
; File c:\wince600\public\common\sdk\inc\kfuncs.h

  00000			 AREA	 |.pdata|, PDATA
|$T44341| DCD	|$LN17@KPD_Deinit|
	DCD	0x40003d01
; Function compile flags: /Ogspy
; File c:\wince600\platform\common\src\soc\common_ti_v1\tps659xx\keypad\keypad.c

  00000			 AREA	 |.text|, CODE, ARM

  00000		 |KPD_Deinit| PROC

; 473  : {

  00000		 |$LN17@KPD_Deinit|
  00000	e92d4030	 stmdb       sp!, {r4, r5, lr}
  00004		 |$M44338|
  00004	e1b04000	 movs        r4, r0

; 474  :     BOOL rc = FALSE;

  00008	e3a00000	 mov         r0, #0

; 475  :     KeypadDevice_t *pDevice = (KeypadDevice_t*)context;
; 476  : 
; 477  : 
; 478  :     DEBUGMSG(ZONE_FUNCTION, (L"+KPD_Deinit(0x%08x)\r\n", context));
; 479  : 
; 480  :     // Check if we get correct context
; 481  :     if ((pDevice == NULL) || (pDevice->cookie != KPD_DEVICE_COOKIE))

  0000c	0a000035	 beq         |$cleanUp$43879|
  00010	e5942000	 ldr         r2, [r4]
  00014	e59f30d4	 ldr         r3, [pc, #0xD4]
  00018	e1520003	 cmp         r2, r3
  0001c	1a000031	 bne         |$cleanUp$43879|

; 482  :         {
; 483  :         DEBUGMSG (ZONE_ERROR, (L"ERROR: KPD_Deinit: "
; 484  :             L"Incorrect context parameter\r\n"
; 485  :             ));
; 486  :         goto cleanUp;
; 487  :         }
; 488  : 
; 489  :     // Signal stop to threads
; 490  :     pDevice->intrThreadExit = TRUE;
; 491  :         
; 492  :     // Close interrupt thread
; 493  :     if (pDevice->hIntrThreadKeypad != NULL)

  00020	e5943024	 ldr         r3, [r4, #0x24]
  00024	e3a02001	 mov         r2, #1
  00028	e5842028	 str         r2, [r4, #0x28]
  0002c	e3530000	 cmp         r3, #0
  00030	0a000007	 beq         |$LN6@KPD_Deinit|

; 494  :         {
; 495  :         // Set event to wake it
; 496  :         SetEvent(pDevice->hIntrEventKeypad);

  00034	e5940020	 ldr         r0, [r4, #0x20]
  00038	e3a01003	 mov         r1, #3
  0003c	eb000000	 bl          EventModify

; 497  :         // Wait until thread exits
; 498  :         WaitForSingleObject(pDevice->hIntrThreadKeypad, INFINITE);

  00040	e5940024	 ldr         r0, [r4, #0x24]
  00044	e3e01000	 mvn         r1, #0
  00048	eb000000	 bl          WaitForSingleObject

; 499  :         // Close handle
; 500  :         CloseHandle(pDevice->hIntrThreadKeypad);

  0004c	e5940024	 ldr         r0, [r4, #0x24]
  00050	eb000000	 bl          CloseHandle
  00054		 |$LN6@KPD_Deinit|

; 501  :         }
; 502  : 
; 503  :     // Close interrupt thread
; 504  :     if( pDevice->hLightThread )

  00054	e5943038	 ldr         r3, [r4, #0x38]
  00058	e3530000	 cmp         r3, #0
  0005c	0a000007	 beq         |$LN5@KPD_Deinit|

; 505  :             {
; 506  :             // Set event to wake it
; 507  :         SetEvent(pDevice->hKeypressEvent);

  00060	e594003c	 ldr         r0, [r4, #0x3C]
  00064	e3a01003	 mov         r1, #3
  00068	eb000000	 bl          EventModify

; 508  :             // Wait until thread exits
; 509  :         WaitForSingleObject(pDevice->hLightThread, INFINITE);

  0006c	e5940038	 ldr         r0, [r4, #0x38]
  00070	e3e01000	 mvn         r1, #0
  00074	eb000000	 bl          WaitForSingleObject

; 510  :             // Close handle
; 511  :         CloseHandle(pDevice->hLightThread);

  00078	e5940038	 ldr         r0, [r4, #0x38]
  0007c	eb000000	 bl          CloseHandle
  00080		 |$LN5@KPD_Deinit|

; 512  :         }
; 513  : 
; 514  : 
; 515  :     // Close TWL driver
; 516  :     if (pDevice->hTWL != NULL)

  00080	e5943034	 ldr         r3, [r4, #0x34]
  00084	e3530000	 cmp         r3, #0
  00088	0a00000b	 beq         |$LN4@KPD_Deinit|

; 517  :         {
; 518  :         TWLInterruptMask(pDevice->hTWL, TWL_INTR_ITKPI, TRUE);

  0008c	e3a05a01	 mov         r5, #1, 20
  00090	e385102a	 orr         r1, r5, #0x2A
  00094	e3a02001	 mov         r2, #1
  00098	e1a00003	 mov         r0, r3
  0009c	eb000000	 bl          TWLInterruptMask

; 519  :         
; 520  :         if (pDevice->hIntrEventKeypad != NULL)

  000a0	e5943020	 ldr         r3, [r4, #0x20]
  000a4	e3530000	 cmp         r3, #0

; 521  :             {
; 522  :             TWLInterruptDisable(pDevice->hTWL, TWL_INTR_ITKPI);

  000a8	15940034	 ldrne       r0, [r4, #0x34]
  000ac	1385102a	 orrne       r1, r5, #0x2A
  000b0	1b000000	 blne        TWLInterruptDisable

; 523  :             }
; 524  :         
; 525  :         TWLClose(pDevice->hTWL);

  000b4	e5940034	 ldr         r0, [r4, #0x34]
  000b8	eb000000	 bl          TWLClose
  000bc		 |$LN4@KPD_Deinit|

; 526  :         }
; 527  : 
; 528  :     // Close interrupt handler
; 529  :     if (pDevice->hIntrEventKeypad != NULL) CloseHandle(pDevice->hIntrEventKeypad);

  000bc	e5943020	 ldr         r3, [r4, #0x20]
  000c0	e3530000	 cmp         r3, #0
  000c4	11a00003	 movne       r0, r3
  000c8	1b000000	 blne        CloseHandle

; 530  :     if (pDevice->hKeypressEvent != NULL) CloseHandle(pDevice->hKeypressEvent);

  000cc	e594303c	 ldr         r3, [r4, #0x3C]
  000d0	e3530000	 cmp         r3, #0
  000d4	11a00003	 movne       r0, r3
  000d8	1b000000	 blne        CloseHandle

; 531  :     // Free device structure
; 532  :     LocalFree(pDevice);

  000dc	e1a00004	 mov         r0, r4
  000e0	eb000000	 bl          LocalFree

; 533  : 
; 534  :     // Done
; 535  :     rc = TRUE;

  000e4	e3a00001	 mov         r0, #1
  000e8		 |$cleanUp$43879|

; 536  : 
; 537  : cleanUp:
; 538  :     DEBUGMSG(ZONE_FUNCTION, (L"-KPD_Deinit(rc = %d)\r\n", rc));
; 539  :     return rc;
; 540  : }

  000e8	e8bd4030	 ldmia       sp!, {r4, r5, lr}
  000ec	e12fff1e	 bx          lr
  000f0		 |$LN18@KPD_Deinit|
  000f0		 |$LN19@KPD_Deinit|
  000f0	6b706444	 DCD         0x6b706444
  000f4		 |$M44339|

			 ENDP  ; |KPD_Deinit|

	EXPORT	|KPD_Open|

  00000			 AREA	 |.pdata|, PDATA
|$T44353| DCD	|$LN5@KPD_Open|
	DCD	0x40000100
; Function compile flags: /Ogspy

  00000			 AREA	 |.text|, CODE, ARM

  00000		 |KPD_Open| PROC

; 554  : {

  00000		 |$LN5@KPD_Open|
  00000		 |$M44350|

; 555  :     UNREFERENCED_PARAMETER(context);
; 556  :     UNREFERENCED_PARAMETER(accessCode);
; 557  :     UNREFERENCED_PARAMETER(shareMode);
; 558  :     return context;
; 559  : }

  00000	e12fff1e	 bx          lr
  00004		 |$M44351|

			 ENDP  ; |KPD_Open|

	EXPORT	|KPD_Close|

  00000			 AREA	 |.pdata|, PDATA
|$T44362| DCD	|$LN5@KPD_Close|
	DCD	0x40000200
; Function compile flags: /Ogspy

  00000			 AREA	 |.text|, CODE, ARM

  00000		 |KPD_Close| PROC

; 571  : {

  00000		 |$LN5@KPD_Close|
  00000		 |$M44359|

; 572  :     UNREFERENCED_PARAMETER(context);
; 573  :     return TRUE;

  00000	e3a00001	 mov         r0, #1

; 574  : }

  00004	e12fff1e	 bx          lr
  00008		 |$M44360|

			 ENDP  ; |KPD_Close|

	EXPORT	|KPD_PowerUp|

  00000			 AREA	 |.pdata|, PDATA
|$T44369| DCD	|$LN5@KPD_PowerU|
	DCD	0x40000100
; Function compile flags: /Ogspy

  00000			 AREA	 |.text|, CODE, ARM

  00000		 |KPD_PowerUp| PROC

; 588  : {

  00000		 |$LN5@KPD_PowerU|
  00000		 |$M44366|

; 589  :     UNREFERENCED_PARAMETER(context);
; 590  : }

  00000	e12fff1e	 bx          lr
  00004		 |$M44367|

			 ENDP  ; |KPD_PowerUp|

	EXPORT	|KPD_IOControl|
	EXPORT	|??_C@_1GI@MFFMFLPL@?$AAE?$AAR?$AAR?$AAO?$AAR?$AA?3?$AA?5?$AAK?$AAP?$AAD?$AA_?$AAI?$AAO?$AAC?$AAo?$AAn?$AAt?$AAr?$AAo?$AAl?$AA?3?$AA?5?$AAI?$AAn?$AAc?$AAo?$AAr?$AAr?$AAe?$AAc?$AAt?$AA?5@| [ DATA ] ; `string'
	EXPORT	|??_C@_1CK@MHJHMPML@?$AAe?$AAx?$AAc?$AAe?$AAp?$AAt?$AAi?$AAo?$AAn?$AA?5?$AAi?$AAn?$AA?5?$AAi?$AAo?$AAc?$AAt?$AAl?$AA?$AN?$AA?6?$AA?$AA@| [ DATA ] ; `string'
	EXPORT	|??_C@_1EA@BHHDBCBL@?$AAK?$AAP?$AAD?$AA?3?$AA?5?$AAR?$AAe?$AAc?$AAe?$AAi?$AAv?$AAe?$AAd?$AA?5?$AAI?$AAO?$AAC?$AAT?$AAL?$AA_?$AAP?$AAO?$AAW?$AAE?$AAR?$AA_?$AAG?$AAE?$AAT?$AA?$AN?$AA?6?$AA?$AA@| [ DATA ] ; `string'
	EXPORT	|??_C@_1EE@NKFDJLND@?$AAK?$AAP?$AAD?$AA?3?$AA?5?$AAI?$AAn?$AAv?$AAa?$AAl?$AAi?$AAd?$AA?5?$AAs?$AAt?$AAa?$AAt?$AAe?$AA?5?$AAr?$AAe?$AAq?$AAu?$AAe?$AAs?$AAt?$AA?5?$AAD?$AA?$CF?$AAu?$AA?5?$AA?$AN@| [ DATA ] ; `string'
	EXPORT	|??_C@_1CK@OBPLBNBH@?$AAE?$AAx?$AAc?$AAe?$AAp?$AAt?$AAi?$AAo?$AAn?$AA?5?$AAi?$AAn?$AA?5?$AAi?$AAo?$AAc?$AAt?$AAl?$AA?$AN?$AA?6?$AA?$AA@| [ DATA ] ; `string'
	IMPORT	|__C_specific_handler|
	IMPORT	|memset|

  00000			 AREA	 |.pdata|, PDATA
|$T44443| DCD	|$LN76@KPD_IOCont|
	DCD	0xc0008904

  00000			 AREA	 |.pdata|, PDATA
|$T44445| DCD	|$LN37@KPD_IOCont|
	DCD	0x40000301

  00000			 AREA	 |.pdata|, PDATA
|$T44447| DCD	|$LN58@KPD_IOCont|
	DCD	0x40000301

  00000			 AREA	 |.pdata|, PDATA
|$T44449| DCD	|$LN51@KPD_IOCont|
	DCD	0x40000301

  00000			 AREA	 |.pdata|, PDATA
|$T44451| DCD	|$LN44@KPD_IOCont|
	DCD	0x40000d01

  00000			 AREA	 |.xdata|, DATA
|$T44441| DCD	0x4
	DCD	|$LN41@KPD_IOCont|
	DCD	|$LN42@KPD_IOCont|
	DCD	|$LN37@KPD_IOCont|
	DCD	|$LN38@KPD_IOCont|
	DCD	|$LN62@KPD_IOCont|
	DCD	|$LN63@KPD_IOCont|
	DCD	|$LN58@KPD_IOCont|
	DCD	|$LN59@KPD_IOCont|
	DCD	|$LN55@KPD_IOCont|
	DCD	|$LN56@KPD_IOCont|
	DCD	|$LN51@KPD_IOCont|
	DCD	|$LN52@KPD_IOCont|
	DCD	|$LN48@KPD_IOCont|
	DCD	|$LN49@KPD_IOCont|
	DCD	|$LN44@KPD_IOCont|
	DCD	|$LN45@KPD_IOCont|

  00000			 AREA	 |.rdata|, DATA, READONLY
|??_C@_1GI@MFFMFLPL@?$AAE?$AAR?$AAR?$AAO?$AAR?$AA?3?$AA?5?$AAK?$AAP?$AAD?$AA_?$AAI?$AAO?$AAC?$AAo?$AAn?$AAt?$AAr?$AAo?$AAl?$AA?3?$AA?5?$AAI?$AAn?$AAc?$AAo?$AAr?$AAr?$AAe?$AAc?$AAt?$AA?5@| DCB "E"
	DCB	0x0, "R", 0x0, "R", 0x0, "O", 0x0, "R", 0x0, ":", 0x0, " "
	DCB	0x0, "K", 0x0, "P", 0x0, "D", 0x0, "_", 0x0, "I", 0x0, "O"
	DCB	0x0, "C", 0x0, "o", 0x0, "n", 0x0, "t", 0x0, "r", 0x0, "o"
	DCB	0x0, "l", 0x0, ":", 0x0, " ", 0x0, "I", 0x0, "n", 0x0, "c"
	DCB	0x0, "o", 0x0, "r", 0x0, "r", 0x0, "e", 0x0, "c", 0x0, "t"
	DCB	0x0, " ", 0x0, "c", 0x0, "o", 0x0, "n", 0x0, "t", 0x0, "e"
	DCB	0x0, "x", 0x0, "t", 0x0, " ", 0x0, "p", 0x0, "a", 0x0, "r"
	DCB	0x0, "a", 0x0, "m", 0x0, "e", 0x0, "t", 0x0, "e", 0x0, "r"
	DCB	0x0, 0xd, 0x0, 0xa, 0x0, 0x0, 0x0	; `string'

  00000			 AREA	 |.rdata|, DATA, READONLY
|??_C@_1CK@MHJHMPML@?$AAe?$AAx?$AAc?$AAe?$AAp?$AAt?$AAi?$AAo?$AAn?$AA?5?$AAi?$AAn?$AA?5?$AAi?$AAo?$AAc?$AAt?$AAl?$AA?$AN?$AA?6?$AA?$AA@| DCB "e"
	DCB	0x0, "x", 0x0, "c", 0x0, "e", 0x0, "p", 0x0, "t", 0x0, "i"
	DCB	0x0, "o", 0x0, "n", 0x0, " ", 0x0, "i", 0x0, "n", 0x0, " "
	DCB	0x0, "i", 0x0, "o", 0x0, "c", 0x0, "t", 0x0, "l", 0x0, 0xd
	DCB	0x0, 0xa, 0x0, 0x0, 0x0			; `string'

  00000			 AREA	 |.rdata|, DATA, READONLY
|??_C@_1EA@BHHDBCBL@?$AAK?$AAP?$AAD?$AA?3?$AA?5?$AAR?$AAe?$AAc?$AAe?$AAi?$AAv?$AAe?$AAd?$AA?5?$AAI?$AAO?$AAC?$AAT?$AAL?$AA_?$AAP?$AAO?$AAW?$AAE?$AAR?$AA_?$AAG?$AAE?$AAT?$AA?$AN?$AA?6?$AA?$AA@| DCB "K"
	DCB	0x0, "P", 0x0, "D", 0x0, ":", 0x0, " ", 0x0, "R", 0x0, "e"
	DCB	0x0, "c", 0x0, "e", 0x0, "i", 0x0, "v", 0x0, "e", 0x0, "d"
	DCB	0x0, " ", 0x0, "I", 0x0, "O", 0x0, "C", 0x0, "T", 0x0, "L"
	DCB	0x0, "_", 0x0, "P", 0x0, "O", 0x0, "W", 0x0, "E", 0x0, "R"
	DCB	0x0, "_", 0x0, "G", 0x0, "E", 0x0, "T", 0x0, 0xd, 0x0, 0xa
	DCB	0x0, 0x0, 0x0				; `string'

  00000			 AREA	 |.rdata|, DATA, READONLY
|??_C@_1EE@NKFDJLND@?$AAK?$AAP?$AAD?$AA?3?$AA?5?$AAI?$AAn?$AAv?$AAa?$AAl?$AAi?$AAd?$AA?5?$AAs?$AAt?$AAa?$AAt?$AAe?$AA?5?$AAr?$AAe?$AAq?$AAu?$AAe?$AAs?$AAt?$AA?5?$AAD?$AA?$CF?$AAu?$AA?5?$AA?$AN@| DCB "K"
	DCB	0x0, "P", 0x0, "D", 0x0, ":", 0x0, " ", 0x0, "I", 0x0, "n"
	DCB	0x0, "v", 0x0, "a", 0x0, "l", 0x0, "i", 0x0, "d", 0x0, " "
	DCB	0x0, "s", 0x0, "t", 0x0, "a", 0x0, "t", 0x0, "e", 0x0, " "
	DCB	0x0, "r", 0x0, "e", 0x0, "q", 0x0, "u", 0x0, "e", 0x0, "s"
	DCB	0x0, "t", 0x0, " ", 0x0, "D", 0x0, "%", 0x0, "u", 0x0, " "
	DCB	0x0, 0xd, 0x0, 0xa, 0x0, 0x0, 0x0	; `string'

  00000			 AREA	 |.rdata|, DATA, READONLY
|??_C@_1CK@OBPLBNBH@?$AAE?$AAx?$AAc?$AAe?$AAp?$AAt?$AAi?$AAo?$AAn?$AA?5?$AAi?$AAn?$AA?5?$AAi?$AAo?$AAc?$AAt?$AAl?$AA?$AN?$AA?6?$AA?$AA@| DCB "E"
	DCB	0x0, "x", 0x0, "c", 0x0, "e", 0x0, "p", 0x0, "t", 0x0, "i"
	DCB	0x0, "o", 0x0, "n", 0x0, " ", 0x0, "i", 0x0, "n", 0x0, " "
	DCB	0x0, "i", 0x0, "o", 0x0, "c", 0x0, "t", 0x0, "l", 0x0, 0xd
	DCB	0x0, 0xa, 0x0, 0x0, 0x0			; `string'
; Function compile flags: /Ogspy

  00000			 AREA	 |.text|, CODE, ARM

  00000	00000000	 DCD         |__C_specific_handler|
  00004	00000000	 DCD         |$T44441|

  00008		 |KPD_IOControl| PROC

; 608  : {

  00008		 |$LN76@KPD_IOCont|
  00008	e1a0c00d	 mov         r12, sp
  0000c	e92d58f0	 stmdb       sp!, {r4 - r7, r11, r12, lr}
  00010	e28db01c	 add         r11, sp, #0x1C
  00014	e24dd008	 sub         sp, sp, #8
  00018		 |$LN74@KPD_IOCont|
  00018	e1b06000	 movs        r6, r0

; 609  :     BOOL rc = FALSE;

  0001c	e3a04000	 mov         r4, #0
  00020	e50b4024	 str         r4, [r11, #-0x24]

; 610  :     KeypadDevice_t *pDevice = (KeypadDevice_t*)context;
; 611  : 
; 612  :     UNREFERENCED_PARAMETER(inSize);
; 613  :     UNREFERENCED_PARAMETER(pInBuffer);
; 614  : 
; 615  :     DEBUGMSG(ZONE_FUNCTION, (
; 616  :         L"+KPD_IOControl(0x%08x, 0x%08x, 0x%08x, %d, 0x%08x, %d, 0x%08x)\r\n",
; 617  :         context, code, pInBuffer, inSize, pOutBuffer, outSize, pOutSize
; 618  :         ));
; 619  :         
; 620  :     // Check if we get correct context
; 621  :     if ((pDevice == NULL) || (pDevice->cookie != KPD_DEVICE_COOKIE))

  00024	0a000077	 beq         |$LN18@KPD_IOCont|
  00028	e5962000	 ldr         r2, [r6]
  0002c	e59f324c	 ldr         r3, [pc, #0x24C]
  00030	e1520003	 cmp         r2, r3
  00034	1a000073	 bne         |$LN18@KPD_IOCont|
  00038	e3a03832	 mov         r3, #0x32, 16

; 626  :         goto cleanUp;
; 627  :         }
; 628  :     
; 629  :     switch (code)

  0003c	e3833a01	 orr         r3, r3, #1, 20
  00040	e1510003	 cmp         r1, r3
  00044	0a000052	 beq         |$LN15@KPD_IOCont|
  00048	e59f322c	 ldr         r3, [pc, #0x22C]
  0004c	e1510003	 cmp         r1, r3
  00050	0a000038	 beq         |$LN3@KPD_IOCont|
  00054	e59f321c	 ldr         r3, [pc, #0x21C]
  00058	e1510003	 cmp         r1, r3
  0005c	0a000014	 beq         |$LN8@KPD_IOCont|
  00060	e59f320c	 ldr         r3, [pc, #0x20C]
  00064	e1510003	 cmp         r1, r3
  00068	1a00006b	 bne         |$cleanUp$43932|

; 651  :                         }
; 652  :                 }
; 653  :             break;
; 654  : 
; 655  :         // determines whether changing power state is feasible
; 656  :         case IOCTL_POWER_QUERY: 
; 657  :             DEBUGMSG(ZONE_INFO,(L"KPD: Received IOCTL_POWER_QUERY\r\n"));
; 658  :             if (pOutBuffer && outSize >= sizeof(CEDEVICE_POWER_STATE)) 

  0006c	e59b2000	 ldr         r2, [r11]
  00070	e3520000	 cmp         r2, #0
  00074	0a000068	 beq         |$cleanUp$43932|
  00078	e59b3004	 ldr         r3, [r11, #4]
  0007c	e3530004	 cmp         r3, #4
  00080	3a000065	 bcc         |$cleanUp$43932|
  00084		 |$LN48@KPD_IOCont|

; 659  :                 {
; 660  :                 // Return a good status on any valid query, since we are 
; 661  :                 // always ready to change power states (if asked for state 
; 662  :                 // we don't support, we move to next highest, eg D3->D4).
; 663  :                 __try 
; 664  :                     {
; 665  :                     CEDEVICE_POWER_STATE ReqDx = *(PCEDEVICE_POWER_STATE)pOutBuffer;

  00084	e5923000	 ldr         r3, [r2]

; 666  :  
; 667  :                     if (VALID_DX(ReqDx)) 

  00088	e3530004	 cmp         r3, #4

; 668  :                         {
; 669  :                         // This is a valid Dx state so return a good status.
; 670  :                         rc = TRUE;

  0008c	93a04001	 movls       r4, #1
  00090	950b4024	 strls       r4, [r11, #-0x24]
  00094		 |$LN49@KPD_IOCont|

; 671  :                         }
; 672  :  
; 673  :                     DEBUGMSG(ZONE_INFO, (L"KPD: IOCTL_POWER_QUERY %d\r\n"));
; 674  :                     }

  00094	ea000060	 b           |$cleanUp$43932|
  00098		 |$LN45@KPD_IOCont|

; 676  :                     {
; 677  :                     RETAILMSG(ZONE_ERROR, (L"Exception in ioctl\r\n"));

  00098	e59f31c0	 ldr         r3, [pc, #0x1C0]
  0009c	e5933440	 ldr         r3, [r3, #0x440]
  000a0	e3130001	 tst         r3, #1
  000a4	159f01bc	 ldrne       r0, [pc, #0x1BC]
  000a8	1b000000	 blne        NKDbgPrintfW
  000ac	e51b4024	 ldr         r4, [r11, #-0x24]
  000b0	ea000059	 b           |$cleanUp$43932|
  000b4		 |$LN8@KPD_IOCont|

; 678  :                     }
; 679  :                 }
; 680  :             break;
; 681  : 
; 682  :         // requests a change from one device power state to another
; 683  :         case IOCTL_POWER_SET: 
; 684  :             DEBUGMSG(ZONE_INFO,(L"KPD: Received IOCTL_POWER_SET\r\n"));
; 685  :             if (pOutBuffer && outSize >= sizeof(CEDEVICE_POWER_STATE)) 

  000b4	e59b5000	 ldr         r5, [r11]
  000b8	e3550000	 cmp         r5, #0
  000bc	0a000056	 beq         |$cleanUp$43932|
  000c0	e59b3004	 ldr         r3, [r11, #4]
  000c4	e3530004	 cmp         r3, #4
  000c8	3a000053	 bcc         |$cleanUp$43932|
  000cc		 |$LN55@KPD_IOCont|

; 686  :                 {
; 687  :                 __try 
; 688  :                     {
; 689  :                     CEDEVICE_POWER_STATE ReqDx = *(PCEDEVICE_POWER_STATE)pOutBuffer;

  000cc	e5957000	 ldr         r7, [r5]

; 690  :  
; 691  :                     if (SetPowerState(pDevice, ReqDx))

  000d0	e1a00006	 mov         r0, r6
  000d4	e1a01007	 mov         r1, r7
  000d8	eb000000	 bl          SetPowerState
  000dc	e3500000	 cmp         r0, #0

; 692  :                         {   
; 693  :                         *(PCEDEVICE_POWER_STATE)pOutBuffer = pDevice->powerState;

  000e0	15963030	 ldrne       r3, [r6, #0x30]

; 694  :                         *pOutSize = sizeof(CEDEVICE_POWER_STATE);

  000e4	159b2008	 ldrne       r2, [r11, #8]
  000e8	13a01004	 movne       r1, #4
  000ec	15853000	 strne       r3, [r5]
  000f0	15821000	 strne       r1, [r2]

; 695  :  
; 696  :                         rc = TRUE;

  000f4	13a04001	 movne       r4, #1
  000f8	150b4024	 strne       r4, [r11, #-0x24]

; 690  :  
; 691  :                     if (SetPowerState(pDevice, ReqDx))

  000fc	1a000005	 bne         |$LN56@KPD_IOCont|

; 697  :                         DEBUGMSG(ZONE_INFO, (L"KPD: "
; 698  :                             L"IOCTL_POWER_SET to D%u \r\n",
; 699  :                             pDevice->powerState
; 700  :                             ));
; 701  :                         }
; 702  :                     else 
; 703  :                         {
; 704  :                         RETAILMSG(ZONE_ERROR, (L"KPD: "
; 705  :                             L"Invalid state request D%u \r\n", ReqDx
; 706  :                             ));

  00100	e59f3158	 ldr         r3, [pc, #0x158]
  00104	e5933440	 ldr         r3, [r3, #0x440]
  00108	e3130001	 tst         r3, #1
  0010c	159f015c	 ldrne       r0, [pc, #0x15C]
  00110	11a01007	 movne       r1, r7
  00114	1b000000	 blne        NKDbgPrintfW
  00118		 |$LN56@KPD_IOCont|

; 707  :                         }
; 708  :                     }

  00118	ea00003f	 b           |$cleanUp$43932|
  0011c		 |$LN52@KPD_IOCont|

; 710  :                     {
; 711  :                     RETAILMSG(ZONE_ERROR, (L"Exception in ioctl\r\n"));

  0011c	e59f313c	 ldr         r3, [pc, #0x13C]
  00120	e5933440	 ldr         r3, [r3, #0x440]
  00124	e3130001	 tst         r3, #1
  00128	159f0138	 ldrne       r0, [pc, #0x138]
  0012c	1b000000	 blne        NKDbgPrintfW
  00130	e51b4024	 ldr         r4, [r11, #-0x24]
  00134	ea000038	 b           |$cleanUp$43932|
  00138		 |$LN3@KPD_IOCont|

; 712  :                     }
; 713  :             }
; 714  :             break;
; 715  : 
; 716  :         // gets the current device power state
; 717  :         case IOCTL_POWER_GET: 
; 718  :             RETAILMSG(ZONE_INFO, (L"KPD: Received IOCTL_POWER_GET\r\n"));

  00138	e59f3120	 ldr         r3, [pc, #0x120]
  0013c	e5933440	 ldr         r3, [r3, #0x440]
  00140	e3130008	 tst         r3, #8
  00144	159f0120	 ldrne       r0, [pc, #0x120]
  00148	1b000000	 blne        NKDbgPrintfW

; 719  :             if (pOutBuffer != NULL && outSize >= sizeof(CEDEVICE_POWER_STATE)) 

  0014c	e59b2000	 ldr         r2, [r11]
  00150	e3520000	 cmp         r2, #0
  00154	0a000030	 beq         |$cleanUp$43932|
  00158	e59b3004	 ldr         r3, [r11, #4]
  0015c	e3530004	 cmp         r3, #4
  00160	3a00002d	 bcc         |$cleanUp$43932|
  00164		 |$LN62@KPD_IOCont|

; 720  :                 {
; 721  :                 __try 
; 722  :                     {
; 723  :                     *(PCEDEVICE_POWER_STATE)pOutBuffer = pDevice->powerState;

  00164	e5963030	 ldr         r3, [r6, #0x30]
  00168	e5823000	 str         r3, [r2]

; 724  :  
; 725  :                     rc = TRUE;

  0016c	e3a04001	 mov         r4, #1
  00170	e50b4024	 str         r4, [r11, #-0x24]
  00174		 |$LN63@KPD_IOCont|

; 726  : 
; 727  :                     DEBUGMSG(ZONE_INFO, (L"KPD: "
; 728  :                             L"IOCTL_POWER_GET to D%u \r\n",
; 729  :                             pDevice->powerState
; 730  :                             ));
; 731  :                     }

  00174	ea000028	 b           |$cleanUp$43932|
  00178		 |$LN59@KPD_IOCont|

; 733  :                     {
; 734  :                     RETAILMSG(ZONE_ERROR, (L"Exception in ioctl\r\n"));

  00178	e59f30e0	 ldr         r3, [pc, #0xE0]
  0017c	e5933440	 ldr         r3, [r3, #0x440]
  00180	e3130001	 tst         r3, #1
  00184	159f00dc	 ldrne       r0, [pc, #0xDC]
  00188	1b000000	 blne        NKDbgPrintfW
  0018c	e51b4024	 ldr         r4, [r11, #-0x24]
  00190	ea000021	 b           |$cleanUp$43932|
  00194		 |$LN15@KPD_IOCont|

; 630  :         {
; 631  :         case IOCTL_POWER_CAPABILITIES: 
; 632  :             DEBUGMSG(ZONE_INFO, (L"KPD: Received IOCTL_POWER_CAPABILITIES\r\n"));
; 633  :             if (pOutBuffer && outSize >= sizeof (POWER_CAPABILITIES) && 
; 634  :                 pOutSize) 

  00194	e59b5000	 ldr         r5, [r11]
  00198	e3550000	 cmp         r5, #0
  0019c	0a00001e	 beq         |$cleanUp$43932|
  001a0	e59b3004	 ldr         r3, [r11, #4]
  001a4	e3530030	 cmp         r3, #0x30
  001a8	3a00001b	 bcc         |$cleanUp$43932|
  001ac	e59b7008	 ldr         r7, [r11, #8]
  001b0	e3570000	 cmp         r7, #0
  001b4	0a000018	 beq         |$cleanUp$43932|
  001b8		 |$LN41@KPD_IOCont|

; 635  :                 {
; 636  :                     __try 
; 637  :                         {
; 638  :                         PPOWER_CAPABILITIES PowerCaps;
; 639  :                         PowerCaps = (PPOWER_CAPABILITIES)pOutBuffer;
; 640  :          
; 641  :                         // Only supports D0 (permanently on) and D4(off.         
; 642  :                         memset(PowerCaps, 0, sizeof(*PowerCaps));

  001b8	e3a02030	 mov         r2, #0x30
  001bc	e3a01000	 mov         r1, #0
  001c0	e1a00005	 mov         r0, r5
  001c4	eb000000	 bl          memset

; 643  :                         PowerCaps->DeviceDx = (UCHAR)pDevice->powerMask;

  001c8	e596302c	 ldr         r3, [r6, #0x2C]

; 644  :                         *pOutSize = sizeof(*PowerCaps);

  001cc	e3a02030	 mov         r2, #0x30
  001d0	e5c53000	 strb        r3, [r5]
  001d4	e5872000	 str         r2, [r7]

; 645  :                         
; 646  :                         rc = TRUE;

  001d8	e3a04001	 mov         r4, #1
  001dc	e50b4024	 str         r4, [r11, #-0x24]
  001e0		 |$LN42@KPD_IOCont|

; 647  :                         }

  001e0	ea00000d	 b           |$cleanUp$43932|
  001e4		 |$LN38@KPD_IOCont|

; 649  :                         {
; 650  :                         RETAILMSG(ZONE_ERROR, (L"exception in ioctl\r\n"));

  001e4	e59f3074	 ldr         r3, [pc, #0x74]
  001e8	e5933440	 ldr         r3, [r3, #0x440]
  001ec	e3130001	 tst         r3, #1
  001f0	159f006c	 ldrne       r0, [pc, #0x6C]
  001f4	1b000000	 blne        NKDbgPrintfW
  001f8	e51b4024	 ldr         r4, [r11, #-0x24]
  001fc	ea000006	 b           |$cleanUp$43932|
  00200		 |$LN73@KPD_IOCont|

; 735  :                     }
; 736  :                 }     
; 737  :             break;
; 738  :         }
; 739  : 
; 740  : cleanUp:
; 741  :     DEBUGMSG(ZONE_FUNCTION, (L"-KPD_IOControl(rc = %d)\r\n", rc));
; 742  :     return rc;

  00200	e51b4020	 ldr         r4, [r11, #-0x20]
  00204	ea000004	 b           |$cleanUp$43932|
  00208		 |$LN18@KPD_IOCont|

; 622  :         {
; 623  :         RETAILMSG(ZONE_ERROR, (L"ERROR: KPD_IOControl: "
; 624  :             L"Incorrect context parameter\r\n"
; 625  :             ));

  00208	e59f3050	 ldr         r3, [pc, #0x50]
  0020c	e5933440	 ldr         r3, [r3, #0x440]
  00210	e3130001	 tst         r3, #1
  00214	159f0040	 ldrne       r0, [pc, #0x40]
  00218	1b000000	 blne        NKDbgPrintfW
  0021c		 |$cleanUp$43932|

; 743  : }

  0021c	e1a00004	 mov         r0, r4
  00220	e24bd01c	 sub         sp, r11, #0x1C
  00224	e89d68f0	 ldmia       sp, {r4 - r7, r11, sp, lr}
  00228	e12fff1e	 bx          lr

			 ENDP  ; |KPD_IOControl|

  0022c		 |$LN37@KPD_IOCont|
  0022c		 |$LN75@KPD_IOCont|

; 648  :                     __except(EXCEPTION_EXECUTE_HANDLER) 

  0022c	e52de004	 str         lr, [sp, #-4]!
  00230		 |$LN40@KPD_IOCont|
  00230		 |$LN81@KPD_IOCont|
  00230	e3a00001	 mov         r0, #1
  00234		 |$LN39@KPD_IOCont|
  00234	e49df004	 ldr         pc, [sp], #4
  00238		 |$LN82@KPD_IOCont|
  00238		 |$LN58@KPD_IOCont|
  00238		 |$LN77@KPD_IOCont|

; 732  :                 __except(EXCEPTION_EXECUTE_HANDLER) 

  00238	e52de004	 str         lr, [sp, #-4]!
  0023c		 |$LN61@KPD_IOCont|
  0023c		 |$LN83@KPD_IOCont|
  0023c	e3a00001	 mov         r0, #1
  00240		 |$LN60@KPD_IOCont|
  00240	e49df004	 ldr         pc, [sp], #4
  00244		 |$LN84@KPD_IOCont|
  00244		 |$LN51@KPD_IOCont|
  00244		 |$LN78@KPD_IOCont|

; 709  :                 __except(EXCEPTION_EXECUTE_HANDLER) 

  00244	e52de004	 str         lr, [sp, #-4]!
  00248		 |$LN54@KPD_IOCont|
  00248		 |$LN85@KPD_IOCont|
  00248	e3a00001	 mov         r0, #1
  0024c		 |$LN53@KPD_IOCont|
  0024c	e49df004	 ldr         pc, [sp], #4
  00250		 |$LN86@KPD_IOCont|
  00250		 |$LN44@KPD_IOCont|
  00250		 |$LN79@KPD_IOCont|

; 675  :                 __except(EXCEPTION_EXECUTE_HANDLER) 

  00250	e52de004	 str         lr, [sp, #-4]!
  00254		 |$LN47@KPD_IOCont|
  00254		 |$LN87@KPD_IOCont|
  00254	e3a00001	 mov         r0, #1
  00258		 |$LN46@KPD_IOCont|
  00258	e49df004	 ldr         pc, [sp], #4
  0025c		 |$LN89@KPD_IOCont|
  0025c		 |$LN90@KPD_IOCont|
  0025c	00000000	 DCD         |??_C@_1GI@MFFMFLPL@?$AAE?$AAR?$AAR?$AAO?$AAR?$AA?3?$AA?5?$AAK?$AAP?$AAD?$AA_?$AAI?$AAO?$AAC?$AAo?$AAn?$AAt?$AAr?$AAo?$AAl?$AA?3?$AA?5?$AAI?$AAn?$AAc?$AAo?$AAr?$AAr?$AAe?$AAc?$AAt?$AA?5@|
  00260		 |$LN91@KPD_IOCont|
  00260	00000000	 DCD         |dpCurSettings|
  00264		 |$LN92@KPD_IOCont|
  00264	00000000	 DCD         |??_C@_1CK@MHJHMPML@?$AAe?$AAx?$AAc?$AAe?$AAp?$AAt?$AAi?$AAo?$AAn?$AA?5?$AAi?$AAn?$AA?5?$AAi?$AAo?$AAc?$AAt?$AAl?$AA?$AN?$AA?6?$AA?$AA@|
  00268		 |$LN93@KPD_IOCont|
  00268	00000000	 DCD         |??_C@_1CK@OBPLBNBH@?$AAE?$AAx?$AAc?$AAe?$AAp?$AAt?$AAi?$AAo?$AAn?$AA?5?$AAi?$AAn?$AA?5?$AAi?$AAo?$AAc?$AAt?$AAl?$AA?$AN?$AA?6?$AA?$AA@|
  0026c		 |$LN94@KPD_IOCont|
  0026c	00000000	 DCD         |??_C@_1EA@BHHDBCBL@?$AAK?$AAP?$AAD?$AA?3?$AA?5?$AAR?$AAe?$AAc?$AAe?$AAi?$AAv?$AAe?$AAd?$AA?5?$AAI?$AAO?$AAC?$AAT?$AAL?$AA_?$AAP?$AAO?$AAW?$AAE?$AAR?$AA_?$AAG?$AAE?$AAT?$AA?$AN?$AA?6?$AA?$AA@|
  00270		 |$LN95@KPD_IOCont|
  00270	00000000	 DCD         |??_C@_1EE@NKFDJLND@?$AAK?$AAP?$AAD?$AA?3?$AA?5?$AAI?$AAn?$AAv?$AAa?$AAl?$AAi?$AAd?$AA?5?$AAs?$AAt?$AAa?$AAt?$AAe?$AA?5?$AAr?$AAe?$AAq?$AAu?$AAe?$AAs?$AAt?$AA?5?$AAD?$AA?$CF?$AAu?$AA?5?$AA?$AN@|
  00274		 |$LN96@KPD_IOCont|
  00274	0032100c	 DCD         0x32100c
  00278		 |$LN97@KPD_IOCont|
  00278	00321008	 DCD         0x321008
  0027c		 |$LN98@KPD_IOCont|
  0027c	00321004	 DCD         0x321004
  00280		 |$LN99@KPD_IOCont|
  00280	6b706444	 DCD         0x6b706444
  00284		 |$LN88@KPD_IOCont|
  00284		 |$LN80@KPD_IOCont|
	EXPORT	|??_C@_1FM@PJGOFBDI@?$AAP?$AAh?$AAy?$AAs?$AAi?$AAc?$AAa?$AAl?$AAS?$AAt?$AAa?$AAt?$AAe?$AAT?$AAo?$AAV?$AAi?$AAr?$AAt?$AAu?$AAa?$AAl?$AAS?$AAt?$AAa?$AAt?$AAe?$AA?3?$AA?5?$AA?$FL?$AA?$CF?$AAd@| [ DATA ] ; `string'
	EXPORT	|??_C@_1FG@PNJOOKJC@?$AAP?$AAh?$AAy?$AAs?$AAi?$AAc?$AAa?$AAl?$AAS?$AAt?$AAa?$AAt?$AAe?$AAT?$AAo?$AAV?$AAi?$AAr?$AAt?$AAu?$AAa?$AAl?$AAS?$AAt?$AAa?$AAt?$AAe?$AA?3?$AA?5?$AAi?$AAk?$AA?$DN@| [ DATA ] ; `string'
	IMPORT	|g_keypadVK|

  00000			 AREA	 |.pdata|, PDATA
|$T44495| DCD	|$LN18@PhysicalSt|
	DCD	0x40003802

  00000			 AREA	 |.rdata|, DATA, READONLY
|??_C@_1FM@PJGOFBDI@?$AAP?$AAh?$AAy?$AAs?$AAi?$AAc?$AAa?$AAl?$AAS?$AAt?$AAa?$AAt?$AAe?$AAT?$AAo?$AAV?$AAi?$AAr?$AAt?$AAu?$AAa?$AAl?$AAS?$AAt?$AAa?$AAt?$AAe?$AA?3?$AA?5?$AA?$FL?$AA?$CF?$AAd@| DCB "P"
	DCB	0x0, "h", 0x0, "y", 0x0, "s", 0x0, "i", 0x0, "c", 0x0, "a"
	DCB	0x0, "l", 0x0, "S", 0x0, "t", 0x0, "a", 0x0, "t", 0x0, "e"
	DCB	0x0, "T", 0x0, "o", 0x0, "V", 0x0, "i", 0x0, "r", 0x0, "t"
	DCB	0x0, "u", 0x0, "a", 0x0, "l", 0x0, "S", 0x0, "t", 0x0, "a"
	DCB	0x0, "t", 0x0, "e", 0x0, ":", 0x0, " ", 0x0, "[", 0x0, "%"
	DCB	0x0, "d", 0x0, ",", 0x0, "%", 0x0, "d", 0x0, "]", 0x0, " "
	DCB	0x0, "=", 0x0, " ", 0x0, "0", 0x0, "x", 0x0, "%", 0x0, "x"
	DCB	0x0, 0xd, 0x0, 0xa, 0x0, 0x0, 0x0	; `string'

  00000			 AREA	 |.rdata|, DATA, READONLY
|??_C@_1FG@PNJOOKJC@?$AAP?$AAh?$AAy?$AAs?$AAi?$AAc?$AAa?$AAl?$AAS?$AAt?$AAa?$AAt?$AAe?$AAT?$AAo?$AAV?$AAi?$AAr?$AAt?$AAu?$AAa?$AAl?$AAS?$AAt?$AAa?$AAt?$AAe?$AA?3?$AA?5?$AAi?$AAk?$AA?$DN@| DCB "P"
	DCB	0x0, "h", 0x0, "y", 0x0, "s", 0x0, "i", 0x0, "c", 0x0, "a"
	DCB	0x0, "l", 0x0, "S", 0x0, "t", 0x0, "a", 0x0, "t", 0x0, "e"
	DCB	0x0, "T", 0x0, "o", 0x0, "V", 0x0, "i", 0x0, "r", 0x0, "t"
	DCB	0x0, "u", 0x0, "a", 0x0, "l", 0x0, "S", 0x0, "t", 0x0, "a"
	DCB	0x0, "t", 0x0, "e", 0x0, ":", 0x0, " ", 0x0, "i", 0x0, "k"
	DCB	0x0, "=", 0x0, "%", 0x0, "d", 0x0, " ", 0x0, "i", 0x0, "x"
	DCB	0x0, "=", 0x0, "%", 0x0, "d", 0x0, 0xd, 0x0, 0xa, 0x0, 0x0
	DCB	0x0					; `string'
; Function compile flags: /Ogspy

  00000			 AREA	 |.text|, CODE, ARM

  00000		 |PhysicalStateToVirtualState| PROC

; 757  : {

  00000		 |$LN18@PhysicalSt|
  00000	e92d4ff0	 stmdb       sp!, {r4 - r11, lr}
  00004	e24dd008	 sub         sp, sp, #8
  00008		 |$M44492|
  00008	e1a0a000	 mov         r10, r0
  0000c	e58da000	 str         r10, [sp]
  00010	e58d2004	 str         r2, [sp, #4]
  00014	e1a0b001	 mov         r11, r1

; 758  :     BOOL keyDown = FALSE;
; 759  :     USHORT state;
; 760  :     ULONG ik, ix, row, column;
; 761  : 
; 762  :     for (row = 0, ik = 0; row < KEYPAD_ROWS; row++)

  00018	e59f80bc	 ldr         r8, [pc, #0xBC]
  0001c	e3a0e000	 mov         lr, #0
  00020	e3a06000	 mov         r6, #0
  00024	e3a07000	 mov         r7, #0
  00028	e3a03001	 mov         r3, #1
  0002c		 |$LL9@PhysicalSt|

; 763  : 	{
; 764  :         // Get matrix state        
; 765  :         ix = row;
; 766  :         state = matrix[ix] & 0xFF;

  0002c	e7d6900a	 ldrb        r9, [r6, +r10]

; 767  : 
; 768  :         // If no-key is pressed continue with new rows
; 769  :         if (state == 0) 

  00030	e3590000	 cmp         r9, #0

; 770  : 		{
; 771  :             ik += KEYPAD_COLUMNS; // 8

  00034	02877008	 addeq       r7, r7, #8
  00038	0a00001a	 beq         |$LN8@PhysicalSt|

; 772  :             continue;
; 773  : 		}
; 774  :         
; 775  :         for (column = 0; column < KEYPAD_COLUMNS; column++, ik++)

  0003c	e3a05000	 mov         r5, #0
  00040	e3a0a001	 mov         r10, #1
  00044		 |$LL5@PhysicalSt|

; 776  : 		{
; 777  :             if ((state & (1 << column)) != 0)

  00044	e1190513	 tst         r9, r3, lsl r5
  00048	0a000011	 beq         |$LN4@PhysicalSt|

; 778  : 			{
; 779  :                 // g_keypadVK is defined by the platform
; 780  :                 UINT8 vk = g_keypadVK[ik];

  0004c	e7d74008	 ldrb        r4, [r7, +r8]

; 781  :                 RETAILMSG(1, (L"PhysicalStateToVirtualState: [%d,%d] = 0x%x\r\n",row,column, vk));

  00050	e59f0080	 ldr         r0, [pc, #0x80]
  00054	e1a02005	 mov         r2, r5
  00058	e1a03004	 mov         r3, r4
  0005c	e1a01006	 mov         r1, r6
  00060	eb000000	 bl          NKDbgPrintfW

; 782  :                 RETAILMSG(1, (L"PhysicalStateToVirtualState: ik=%d ix=%d\r\n",ik,ix));

  00064	e59f0068	 ldr         r0, [pc, #0x68]
  00068	e1a02006	 mov         r2, r6
  0006c	e1a01007	 mov         r1, r7
  00070	eb000000	 bl          NKDbgPrintfW

; 783  :                 vkNewState[vk >> 5] |= 1 << (vk & 0x1F);

  00074	e1a032a4	 mov         r3, r4, lsr #5
  00078	e1a0100b	 mov         r1, r11
  0007c	e7b12103	 ldr         r2, [r1, +r3, lsl #2]!
  00080	e204301f	 and         r3, r4, #0x1F

; 784  :                 keyDown = TRUE;

  00084	e3a0e001	 mov         lr, #1
  00088	e182331a	 orr         r3, r2, r10, lsl r3
  0008c	e5813000	 str         r3, [r1]
  00090	e3a03001	 mov         r3, #1
  00094		 |$LN4@PhysicalSt|
  00094	e2855001	 add         r5, r5, #1
  00098	e3550008	 cmp         r5, #8
  0009c	e2877001	 add         r7, r7, #1
  000a0	3affffe7	 bcc         |$LL5@PhysicalSt|

; 757  : {

  000a4	e59da000	 ldr         r10, [sp]
  000a8		 |$LN8@PhysicalSt|

; 758  :     BOOL keyDown = FALSE;
; 759  :     USHORT state;
; 760  :     ULONG ik, ix, row, column;
; 761  : 
; 762  :     for (row = 0, ik = 0; row < KEYPAD_ROWS; row++)

  000a8	e2866001	 add         r6, r6, #1
  000ac	e3560008	 cmp         r6, #8
  000b0	3affffdd	 bcc         |$LL9@PhysicalSt|

; 785  : 			}
; 786  : 		}
; 787  : 	}
; 788  : 
; 789  :     if (keyDown && (pKeyDown != NULL)) *pKeyDown = TRUE;

  000b4	e59d8004	 ldr         r8, [sp, #4]
  000b8	e35e0000	 cmp         lr, #0
  000bc	13580000	 cmpne       r8, #0
  000c0	13a03001	 movne       r3, #1
  000c4	15883000	 strne       r3, [r8]

; 790  : }

  000c8	e28dd008	 add         sp, sp, #8
  000cc	e8bd4ff0	 ldmia       sp!, {r4 - r11, lr}
  000d0	e12fff1e	 bx          lr
  000d4		 |$LN19@PhysicalSt|
  000d4		 |$LN20@PhysicalSt|
  000d4	00000000	 DCD         |??_C@_1FG@PNJOOKJC@?$AAP?$AAh?$AAy?$AAs?$AAi?$AAc?$AAa?$AAl?$AAS?$AAt?$AAa?$AAt?$AAe?$AAT?$AAo?$AAV?$AAi?$AAr?$AAt?$AAu?$AAa?$AAl?$AAS?$AAt?$AAa?$AAt?$AAe?$AA?3?$AA?5?$AAi?$AAk?$AA?$DN@|
  000d8		 |$LN21@PhysicalSt|
  000d8	00000000	 DCD         |??_C@_1FM@PJGOFBDI@?$AAP?$AAh?$AAy?$AAs?$AAi?$AAc?$AAa?$AAl?$AAS?$AAt?$AAa?$AAt?$AAe?$AAT?$AAo?$AAV?$AAi?$AAr?$AAt?$AAu?$AAa?$AAl?$AAS?$AAt?$AAa?$AAt?$AAe?$AA?3?$AA?5?$AA?$FL?$AA?$CF?$AAd@|
  000dc		 |$LN22@PhysicalSt|
  000dc	00000000	 DCD         |g_keypadVK|
  000e0		 |$M44493|

			 ENDP  ; |PhysicalStateToVirtualState|

	EXPORT	|??_C@_1GI@NNCNBHH@?$AA?5?$AAK?$AAP?$AAD?$AA_?$AAI?$AAn?$AAt?$AAr?$AAT?$AAh?$AAr?$AAe?$AAa?$AAd?$AA?3?$AA?5?$AAM?$AAa?$AAp?$AAp?$AAe?$AAd?$AA?5?$AAp?$AAr?$AAe?$AAs?$AAs?$AA?5?$AAa?$AAn@| [ DATA ] ; `string'
	EXPORT	|??_C@_1EK@OBDNJICF@?$AA?5?$AAK?$AAP?$AAD?$AA_?$AAI?$AAn?$AAt?$AAr?$AAT?$AAh?$AAr?$AAe?$AAa?$AAd?$AA?3?$AA?5?$AAM?$AAa?$AAp?$AAp?$AAe?$AAd?$AA?5?$AAv?$AAk?$AAe?$AAy?$AA?3?$AA?5?$AA0?$AAx@| [ DATA ] ; `string'
	IMPORT	|g_keypadRemap|

  00000			 AREA	 |.pdata|, PDATA
|$T44543| DCD	|$LN53@VirtualKey|
	DCD	0x4000cd02

  00000			 AREA	 |.rdata|, DATA, READONLY
|??_C@_1GI@NNCNBHH@?$AA?5?$AAK?$AAP?$AAD?$AA_?$AAI?$AAn?$AAt?$AAr?$AAT?$AAh?$AAr?$AAe?$AAa?$AAd?$AA?3?$AA?5?$AAM?$AAa?$AAp?$AAp?$AAe?$AAd?$AA?5?$AAp?$AAr?$AAe?$AAs?$AAs?$AA?5?$AAa?$AAn@| DCB " "
	DCB	0x0, "K", 0x0, "P", 0x0, "D", 0x0, "_", 0x0, "I", 0x0, "n"
	DCB	0x0, "t", 0x0, "r", 0x0, "T", 0x0, "h", 0x0, "r", 0x0, "e"
	DCB	0x0, "a", 0x0, "d", 0x0, ":", 0x0, " ", 0x0, "M", 0x0, "a"
	DCB	0x0, "p", 0x0, "p", 0x0, "e", 0x0, "d", 0x0, " ", 0x0, "p"
	DCB	0x0, "r", 0x0, "e", 0x0, "s", 0x0, "s", 0x0, " ", 0x0, "a"
	DCB	0x0, "n", 0x0, "d", 0x0, " ", 0x0, "h", 0x0, "o", 0x0, "l"
	DCB	0x0, "d", 0x0, " ", 0x0, "v", 0x0, "k", 0x0, "e", 0x0, "y"
	DCB	0x0, ":", 0x0, " ", 0x0, "0", 0x0, "x", 0x0, "%", 0x0, "x"
	DCB	0x0, 0xd, 0x0, 0xa, 0x0, 0x0, 0x0	; `string'

  00000			 AREA	 |.rdata|, DATA, READONLY
|??_C@_1EK@OBDNJICF@?$AA?5?$AAK?$AAP?$AAD?$AA_?$AAI?$AAn?$AAt?$AAr?$AAT?$AAh?$AAr?$AAe?$AAa?$AAd?$AA?3?$AA?5?$AAM?$AAa?$AAp?$AAp?$AAe?$AAd?$AA?5?$AAv?$AAk?$AAe?$AAy?$AA?3?$AA?5?$AA0?$AAx@| DCB " "
	DCB	0x0, "K", 0x0, "P", 0x0, "D", 0x0, "_", 0x0, "I", 0x0, "n"
	DCB	0x0, "t", 0x0, "r", 0x0, "T", 0x0, "h", 0x0, "r", 0x0, "e"
	DCB	0x0, "a", 0x0, "d", 0x0, ":", 0x0, " ", 0x0, "M", 0x0, "a"
	DCB	0x0, "p", 0x0, "p", 0x0, "e", 0x0, "d", 0x0, " ", 0x0, "v"
	DCB	0x0, "k", 0x0, "e", 0x0, "y", 0x0, ":", 0x0, " ", 0x0, "0"
	DCB	0x0, "x", 0x0, "%", 0x0, "x", 0x0, 0xd, 0x0, 0xa, 0x0, 0x0
	DCB	0x0					; `string'
; Function compile flags: /Ogspy

  00000			 AREA	 |.text|, CODE, ARM

  00000		 |VirtualKeyRemap| PROC

; 806  : {

  00000		 |$LN53@VirtualKey|
  00000	e92d4ff0	 stmdb       sp!, {r4 - r11, lr}
  00004	e24dd018	 sub         sp, sp, #0x18
  00008		 |$M44540|
  00008	e1a04002	 mov         r4, r2
  0000c	e1a02000	 mov         r2, r0
  00010	e1a09001	 mov         r9, r1
  00014	e58d2000	 str         r2, [sp]
  00018	e1a0a003	 mov         r10, r3
  0001c	e58d400c	 str         r4, [sp, #0xC]
  00020	e58d9014	 str         r9, [sp, #0x14]

; 807  :     BOOL keyDown = FALSE;
; 808  :     int ix;
; 809  :     
; 810  :     for (ix = 0; ix < g_keypadRemap.count; ix++)

  00024	e59fb2fc	 ldr         r11, [pc, #0x2FC]
  00028	e3a06000	 mov         r6, #0
  0002c	e3a08000	 mov         r8, #0
  00030	e1dbe0b0	 ldrh        lr, [r11]
  00034	e58d6008	 str         r6, [sp, #8]
  00038	e35e0000	 cmp         lr, #0
  0003c	0a0000b6	 beq         |$LN1@VirtualKey|
  00040	e3a09001	 mov         r9, #1
  00044		 |$LL32@VirtualKey|
  00044	e59b3004	 ldr         r3, [r11, #4]

; 811  : 	{
; 812  :         const KEYPAD_REMAP_ITEM *pItem = &g_keypadRemap.pItem[ix];
; 813  :         KeypadRemapState_t *pState = &pRemapState[ix];
; 814  :         DWORD state = 0;

  00048	e3a01000	 mov         r1, #0
  0004c	e58d1004	 str         r1, [sp, #4]

; 815  :         USHORT down = 0;

  00050	e0835186	 add         r5, r3, r6, lsl #3

; 816  :         UINT8 vk = 0;
; 817  : 
; 818  :         // Count number of keys down & save down/up state
; 819  :         int ik;
; 820  :         for (ik = 0; ik < pItem->keys; ik++)

  00054	e5d51001	 ldrb        r1, [r5, #1]
  00058	e3a0e000	 mov         lr, #0
  0005c	e58d5010	 str         r5, [sp, #0x10]
  00060	e3510000	 cmp         r1, #0
  00064	e3a07000	 mov         r7, #0
  00068	e3a00000	 mov         r0, #0
  0006c	da000016	 ble         |$LN27@VirtualKey|
  00070	e5956004	 ldr         r6, [r5, #4]

; 821  : 		{
; 822  :             vk = pItem->pVKeys[ik];
; 823  :             if ((vkNewState[vk >> 5] & (1 << (vk & 0x1F))) != 0)
; 824  : 			{
; 825  :                 state |= 1 << ik;
; 826  :                 down++;

  00074	e59db004	 ldr         r11, [sp, #4]
  00078	e3a09001	 mov         r9, #1
  0007c	e3a04001	 mov         r4, #1
  00080		 |$LL29@VirtualKey|
  00080	e7d67000	 ldrb        r7, [r6, +r0]
  00084	e1a032a7	 mov         r3, r7, lsr #5
  00088	e79a2103	 ldr         r2, [r10, +r3, lsl #2]
  0008c	e207301f	 and         r3, r7, #0x1F
  00090	e1120314	 tst         r2, r4, lsl r3
  00094	128e3001	 addne       r3, lr, #1
  00098	11a0e803	 movne       lr, r3, lsl #16
  0009c	118bb019	 orrne       r11, r11, r9, lsl r0
  000a0	e2800001	 add         r0, r0, #1
  000a4	11a0e82e	 movne       lr, lr, lsr #16
  000a8	e1500001	 cmp         r0, r1
  000ac	bafffff3	 blt         |$LL29@VirtualKey|

; 905  : 		}
; 906  :         // Save key state
; 907  :         pState->state = state;

  000b0	e59d400c	 ldr         r4, [sp, #0xC]
  000b4	e59d5010	 ldr         r5, [sp, #0x10]
  000b8	e59d6008	 ldr         r6, [sp, #8]
  000bc	e59d2000	 ldr         r2, [sp]
  000c0	e58db004	 str         r11, [sp, #4]
  000c4	e59fb25c	 ldr         r11, [pc, #0x25C]
  000c8	e3a09001	 mov         r9, #1
  000cc		 |$LN27@VirtualKey|

; 827  : 			}
; 828  : 		}
; 829  : 
; 830  :         // Depending on number of keys down
; 831  :         if (down >= pItem->keys && pItem->keys > 1)

  000cc	e15e0001	 cmp         lr, r1
  000d0	3a000020	 bcc         |$LN25@VirtualKey|
  000d4	e3510001	 cmp         r1, #1
  000d8	9a00001e	 bls         |$LN25@VirtualKey|

; 832  : 		{
; 833  :             // Clear all mapping keys
; 834  :             for (ik = 0; ik < pItem->keys; ik++)

  000dc	e3a0e000	 mov         lr, #0
  000e0	e3510000	 cmp         r1, #0
  000e4	da00000d	 ble         |$LN22@VirtualKey|
  000e8	e3a0b001	 mov         r11, #1
  000ec		 |$LL24@VirtualKey|

; 835  : 			{
; 836  :                 vk = pItem->pVKeys[ik];

  000ec	e5953004	 ldr         r3, [r5, #4]

; 837  :                 vkNewState[vk >> 5] &= ~(1 << (vk & 0x1F));

  000f0	e1a0000a	 mov         r0, r10
  000f4	e7d3100e	 ldrb        r1, [r3, +lr]
  000f8	e28ee001	 add         lr, lr, #1
  000fc	e1a032a1	 mov         r3, r1, lsr #5
  00100	e7b02103	 ldr         r2, [r0, +r3, lsl #2]!
  00104	e201301f	 and         r3, r1, #0x1F
  00108	e1c2331b	 bic         r3, r2, r11, lsl r3
  0010c	e5803000	 str         r3, [r0]
  00110	e5d53001	 ldrb        r3, [r5, #1]
  00114	e15e0003	 cmp         lr, r3
  00118	bafffff3	 blt         |$LL24@VirtualKey|
  0011c	e59fb204	 ldr         r11, [pc, #0x204]
  00120		 |$LN22@VirtualKey|

; 838  : 			}
; 839  :             // All keys are down set final key
; 840  :             vk = pItem->vkey;

  00120	e5d51000	 ldrb        r1, [r5]

; 841  :             vkNewState[vk >> 5] |= 1 << (vk & 0x1F);

  00124	e1a0e00a	 mov         lr, r10

; 842  :             RETAILMSG(1, (L" KPD_IntrThread: "L"Mapped vkey: 0x%x\r\n", vk));

  00128	e59f0200	 ldr         r0, [pc, #0x200]
  0012c	e1a032a1	 mov         r3, r1, lsr #5
  00130	e7be2103	 ldr         r2, [lr, +r3, lsl #2]!
  00134	e201301f	 and         r3, r1, #0x1F
  00138	e3a05001	 mov         r5, #1
  0013c	e1823315	 orr         r3, r2, r5, lsl r3
  00140	e58e3000	 str         r3, [lr]
  00144	eb000000	 bl          NKDbgPrintfW
  00148		 |$LN50@VirtualKey|

; 843  :             // Clear remap pending flag
; 844  :             pState->pending = FALSE;

  00148	e3a03000	 mov         r3, #0
  0014c	e5843000	 str         r3, [r4]

; 845  :             // Set remap processing flag
; 846  :             pState->remapped = TRUE;

  00150	e5849004	 str         r9, [r4, #4]
  00154	ea000061	 b           |$LN49@VirtualKey|
  00158		 |$LN25@VirtualKey|

; 847  : 		}
; 848  :         else if ( down > 0 )

  00158	e35e0000	 cmp         lr, #0
  0015c	0a000040	 beq         |$LN20@VirtualKey|

; 849  :             {
; 850  :             // If already remapping or remapping is not pending
; 851  :             // or pending time expired
; 852  :             if  ( !pState->remapped &&  
; 853  :                  (!pState->pending || (INT32)( time - pState->time ) < 0 ) )

  00160	e5943004	 ldr         r3, [r4, #4]
  00164	e3530000	 cmp         r3, #0
  00168	1a000007	 bne         |$LN11@VirtualKey|
  0016c	e5943000	 ldr         r3, [r4]
  00170	e3530000	 cmp         r3, #0
  00174	0a000023	 beq         |$LN47@VirtualKey|
  00178	e5943008	 ldr         r3, [r4, #8]
  0017c	e0523003	 subs        r3, r2, r3
  00180	4a000024	 bmi         |$LN17@VirtualKey|

; 869  :                      (pItem->keys == 1 && (INT32)( time - pState->time ) >= 0) )

  00184	e3510001	 cmp         r1, #1
  00188	1a000055	 bne         |$LN7@VirtualKey|
  0018c		 |$LN11@VirtualKey|

; 870  : 			{
; 871  :                 // This is press and hold key
; 872  :                 RETAILMSG(1, (L" KPD_IntrThread: "L"Mapped press and hold vkey: 0x%x\r\n", vk));

  0018c	e59f0198	 ldr         r0, [pc, #0x198]
  00190	e1a01007	 mov         r1, r7
  00194	eb000000	 bl          NKDbgPrintfW

; 873  :                     
; 874  :                 // Clear all mapping keys
; 875  :                 for (ik = 0; ik < pItem->keys; ik++)

  00198	e5d53001	 ldrb        r3, [r5, #1]
  0019c	e3a0e000	 mov         lr, #0
  001a0	e3530000	 cmp         r3, #0
  001a4	0a00000d	 beq         |$LN8@VirtualKey|
  001a8	e3a0b001	 mov         r11, #1
  001ac		 |$LL10@VirtualKey|

; 876  : 				{
; 877  :                     vk = pItem->pVKeys[ik];

  001ac	e5953004	 ldr         r3, [r5, #4]

; 878  :                     vkNewState[vk >> 5] &= ~( 1 << ( vk & 0x1F ) );

  001b0	e1a0000a	 mov         r0, r10
  001b4	e7d3100e	 ldrb        r1, [r3, +lr]
  001b8	e28ee001	 add         lr, lr, #1
  001bc	e1a032a1	 mov         r3, r1, lsr #5
  001c0	e7b02103	 ldr         r2, [r0, +r3, lsl #2]!
  001c4	e201301f	 and         r3, r1, #0x1F
  001c8	e1c2331b	 bic         r3, r2, r11, lsl r3
  001cc	e5803000	 str         r3, [r0]
  001d0	e5d53001	 ldrb        r3, [r5, #1]
  001d4	e15e0003	 cmp         lr, r3
  001d8	bafffff3	 blt         |$LL10@VirtualKey|
  001dc	e59fb144	 ldr         r11, [pc, #0x144]
  001e0		 |$LN8@VirtualKey|

; 879  : 				}
; 880  :                     
; 881  :                 vk = pItem->vkey;

  001e0	e5d51000	 ldrb        r1, [r5]

; 882  :                 vkNewState[vk >> 5] |= 1 << (vk & 0x1F);

  001e4	e1a0000a	 mov         r0, r10

; 883  :                 keyDown = TRUE;

  001e8	e3a08001	 mov         r8, #1
  001ec	e1a032a1	 mov         r3, r1, lsr #5
  001f0	e7b02103	 ldr         r2, [r0, +r3, lsl #2]!
  001f4	e201301f	 and         r3, r1, #0x1F
  001f8	e3a01001	 mov         r1, #1
  001fc	e1823311	 orr         r3, r2, r1, lsl r3
  00200	e5803000	 str         r3, [r0]

; 884  :                 pState->pending = FALSE;
; 885  :                 pState->remapped = TRUE;
; 886  : 			}
; 887  : 		}
; 888  :         else

  00204	eaffffcf	 b           |$LN50@VirtualKey|
  00208		 |$LN47@VirtualKey|

; 854  :                 {                
; 855  :                 // If we are not pending and not already remapping, start
; 856  :                 if (!pState->pending && !pState->remapped)
; 857  :                     {
; 858  :                     pState->pending = TRUE;

  00208	e5849000	 str         r9, [r4]

; 859  :                     pState->time = time + pItem->delay;

  0020c	e1d530b2	 ldrh        r3, [r5, #2]
  00210	e0833002	 add         r3, r3, r2
  00214	e5843008	 str         r3, [r4, #8]
  00218		 |$LN17@VirtualKey|

; 860  :                     }
; 861  :                 // Clear all mapping keys
; 862  :                 for (ik = 0; ik < pItem->keys; ik++)

  00218	e5d53001	 ldrb        r3, [r5, #1]
  0021c	e3a0e000	 mov         lr, #0
  00220	e3530000	 cmp         r3, #0
  00224	0a00002e	 beq         |$LN7@VirtualKey|
  00228	e3a0b001	 mov         r11, #1
  0022c		 |$LL16@VirtualKey|

; 863  :                     {
; 864  :                     vk = pItem->pVKeys[ik];

  0022c	e5953004	 ldr         r3, [r5, #4]

; 865  :                     vkNewState[vk >> 5] &= ~( 1 << ( vk & 0x1F ) );

  00230	e1a0000a	 mov         r0, r10
  00234	e7d3100e	 ldrb        r1, [r3, +lr]
  00238	e28ee001	 add         lr, lr, #1
  0023c	e1a032a1	 mov         r3, r1, lsr #5
  00240	e7b02103	 ldr         r2, [r0, +r3, lsl #2]!
  00244	e201301f	 and         r3, r1, #0x1F
  00248	e1c2331b	 bic         r3, r2, r11, lsl r3
  0024c	e5803000	 str         r3, [r0]
  00250	e5d53001	 ldrb        r3, [r5, #1]
  00254	e15e0003	 cmp         lr, r3
  00258	bafffff3	 blt         |$LL16@VirtualKey|

; 866  :                     }
; 867  :                 }
; 868  :             else if ( pState->remapped || 

  0025c	e59fb0c4	 ldr         r11, [pc, #0xC4]
  00260	ea00001e	 b           |$LN49@VirtualKey|
  00264		 |$LN20@VirtualKey|

; 889  : 		{            
; 890  :             // All keys are up, if remapping was pending set keys
; 891  :             if ( pState->pending )

  00264	e5943000	 ldr         r3, [r4]
  00268	e3530000	 cmp         r3, #0
  0026c	0a000019	 beq         |$LN48@VirtualKey|

; 892  :                 {            
; 893  :                 for (ik = 0; ik < pItem->keys; ik++)

  00270	e3a0e000	 mov         lr, #0
  00274	e3510000	 cmp         r1, #0
  00278	da000013	 ble         |$LN3@VirtualKey|
  0027c	e3a02001	 mov         r2, #1
  00280	e3a0b001	 mov         r11, #1
  00284		 |$LL5@VirtualKey|

; 894  : 				{
; 895  :                     if ( ( pState->state & ( 1 << ik ) ) != 0 )

  00284	e594300c	 ldr         r3, [r4, #0xC]
  00288	e1130e12	 tst         r3, r2, lsl lr
  0028c	0a000009	 beq         |$LN4@VirtualKey|

; 896  : 					{                        
; 897  :                         vk = pItem->pVKeys[ik];

  00290	e5953004	 ldr         r3, [r5, #4]

; 898  :                         vkNewState[vk >> 5] |= 1 << (vk & 0x1F);

  00294	e1a0000a	 mov         r0, r10

; 899  :                         keyDown = TRUE;

  00298	e3a08001	 mov         r8, #1
  0029c	e7d3100e	 ldrb        r1, [r3, +lr]
  002a0	e1a032a1	 mov         r3, r1, lsr #5
  002a4	e7b02103	 ldr         r2, [r0, +r3, lsl #2]!
  002a8	e201301f	 and         r3, r1, #0x1F
  002ac	e182331b	 orr         r3, r2, r11, lsl r3
  002b0	e3a02001	 mov         r2, #1
  002b4	e5803000	 str         r3, [r0]
  002b8		 |$LN4@VirtualKey|
  002b8	e5d53001	 ldrb        r3, [r5, #1]
  002bc	e28ee001	 add         lr, lr, #1
  002c0	e15e0003	 cmp         lr, r3
  002c4	baffffee	 blt         |$LL5@VirtualKey|
  002c8	e59fb058	 ldr         r11, [pc, #0x58]
  002cc		 |$LN3@VirtualKey|

; 900  : 					}
; 901  : 				}
; 902  :                 pState->pending = FALSE;

  002cc	e3a03000	 mov         r3, #0
  002d0	e5843000	 str         r3, [r4]
  002d4	ea000000	 b           |$LN6@VirtualKey|
  002d8		 |$LN48@VirtualKey|

; 821  : 		{
; 822  :             vk = pItem->pVKeys[ik];
; 823  :             if ((vkNewState[vk >> 5] & (1 << (vk & 0x1F))) != 0)
; 824  : 			{
; 825  :                 state |= 1 << ik;
; 826  :                 down++;

  002d8	e3a03000	 mov         r3, #0
  002dc		 |$LN6@VirtualKey|

; 903  : 			}
; 904  :             pState->remapped = FALSE;

  002dc	e5843004	 str         r3, [r4, #4]
  002e0		 |$LN49@VirtualKey|

; 806  : {

  002e0	e59d2000	 ldr         r2, [sp]
  002e4		 |$LN7@VirtualKey|

; 905  : 		}
; 906  :         // Save key state
; 907  :         pState->state = state;

  002e4	e59d3004	 ldr         r3, [sp, #4]
  002e8	e2866001	 add         r6, r6, #1
  002ec	e58d6008	 str         r6, [sp, #8]
  002f0	e584300c	 str         r3, [r4, #0xC]
  002f4	e1db30b0	 ldrh        r3, [r11]
  002f8	e2844010	 add         r4, r4, #0x10
  002fc	e58d400c	 str         r4, [sp, #0xC]
  00300	e1560003	 cmp         r6, r3
  00304	baffff4e	 blt         |$LL32@VirtualKey|

; 908  :         }
; 909  : 
; 910  :     // Set output variable
; 911  :     if (keyDown && (pKeyDown != NULL)) *pKeyDown = TRUE;

  00308	e59d9014	 ldr         r9, [sp, #0x14]
  0030c	e3580000	 cmp         r8, #0
  00310	13590000	 cmpne       r9, #0
  00314	13a03001	 movne       r3, #1
  00318	15893000	 strne       r3, [r9]
  0031c		 |$LN1@VirtualKey|

; 912  : }

  0031c	e28dd018	 add         sp, sp, #0x18
  00320	e8bd4ff0	 ldmia       sp!, {r4 - r11, lr}
  00324	e12fff1e	 bx          lr
  00328		 |$LN54@VirtualKey|
  00328		 |$LN55@VirtualKey|
  00328	00000000	 DCD         |g_keypadRemap|
  0032c		 |$LN56@VirtualKey|
  0032c	00000000	 DCD         |??_C@_1GI@NNCNBHH@?$AA?5?$AAK?$AAP?$AAD?$AA_?$AAI?$AAn?$AAt?$AAr?$AAT?$AAh?$AAr?$AAe?$AAa?$AAd?$AA?3?$AA?5?$AAM?$AAa?$AAp?$AAp?$AAe?$AAd?$AA?5?$AAp?$AAr?$AAe?$AAs?$AAs?$AA?5?$AAa?$AAn@|
  00330		 |$LN57@VirtualKey|
  00330	00000000	 DCD         |??_C@_1EK@OBDNJICF@?$AA?5?$AAK?$AAP?$AAD?$AA_?$AAI?$AAn?$AAt?$AAr?$AAT?$AAh?$AAr?$AAe?$AAa?$AAd?$AA?3?$AA?5?$AAM?$AAa?$AAp?$AAp?$AAe?$AAd?$AA?5?$AAv?$AAk?$AAe?$AAy?$AA?3?$AA?5?$AA0?$AAx@|
  00334		 |$M44541|

			 ENDP  ; |VirtualKeyRemap|

	EXPORT	|__$ArrayPad$| [ DATA ]
	IMPORT	|ChangeDisplaySettingsEx|
	IMPORT	|__GSHandlerCheck|
	IMPORT	|__security_cookie|
	IMPORT	|__security_check_cookie|

  00000			 AREA	 |.pdata|, PDATA
|$T44566| DCD	|$LN23@RemapVKeyT|
	DCD	0xc0004a02

  00000			 AREA	 |.xdata|, DATA
|$T44562| DCD	0xffffffec
; Function compile flags: /Ogspy

  00000			 AREA	 |.text|, CODE, ARM

  00000	00000000	 DCD         |__GSHandlerCheck|
  00004	00000000	 DCD         |$T44562|

  00008		 |RemapVKeyToScreenOrientation| PROC

; 925  : {

  00008		 |$LN23@RemapVKeyT|
  00008	e92d4070	 stmdb       sp!, {r4 - r6, lr}
  0000c	e24dd0c8	 sub         sp, sp, #0xC8
  00010		 |$M44563|
  00010	e1a04000	 mov         r4, r0
  00014	e59f3110	 ldr         r3, [pc, #0x110]
  00018	e5933000	 ldr         r3, [r3]
  0001c	e58d30c4	 str         r3, [sp, #0xC4]

; 926  :     // Arrow key translation for rotate 0, 90, 180 and 270. 
; 927  :     static const UCHAR   ucOrientationDMDO_0VKTable[4]   = {VK_TUP,    VK_TRIGHT, VK_TDOWN,  VK_TLEFT };
; 928  :     static const UCHAR   ucOrientationDMDO_90VKTable[4]  = {VK_TRIGHT, VK_TDOWN,  VK_TLEFT,  VK_TUP   };
; 929  :     static const UCHAR   ucOrientationDMDO_180VKTable[4] = {VK_TDOWN,  VK_TLEFT,  VK_TUP,    VK_TRIGHT};
; 930  :     static const UCHAR   ucOrientationDMDO_270VKTable[4] = {VK_LEFT,   VK_TUP,    VK_TRIGHT, VK_TDOWN };
; 931  : 
; 932  :     UCHAR   ucRetVal = ucVKey;
; 933  : 
; 934  :     // if the input key is VK_TUP, VK_TRIGHT, VK_TDOWN, or VK_TLEFT, we might need to translate it
; 935  :     // according to the screen rotation.
; 936  :     if ( (ucVKey == VK_TUP) || (ucVKey == VK_TRIGHT) || (ucVKey == VK_TDOWN) || (ucVKey == VK_TLEFT) )

  00020	e3540026	 cmp         r4, #0x26
  00024	0a000005	 beq         |$LN15@RemapVKeyT|
  00028	e3540027	 cmp         r4, #0x27
  0002c	0a000003	 beq         |$LN15@RemapVKeyT|
  00030	e3540028	 cmp         r4, #0x28
  00034	0a000001	 beq         |$LN15@RemapVKeyT|
  00038	e3540025	 cmp         r4, #0x25
  0003c	1a000032	 bne         |$LN5@RemapVKeyT|
  00040		 |$LN15@RemapVKeyT|

; 937  :     {
; 938  :         int     iVKeyIndex = 0;
; 939  : 
; 940  :         // If we haven't determine the screen orientation, we need to figure it out first.
; 941  :         if (g_iDisplayOrientation == -1) 

  00040	e59f60e0	 ldr         r6, [pc, #0xE0]
  00044	e3a05000	 mov         r5, #0
  00048	e5963000	 ldr         r3, [r6]
  0004c	e3730001	 cmn         r3, #1
  00050	1a000010	 bne         |$LN13@RemapVKeyT|

; 942  :         {
; 943  :             DEVMODE devMode;
; 944  :             
; 945  :             //  Get current screen orientation
; 946  :             devMode.dmSize = sizeof(devMode);

  00054	e3a030c0	 mov         r3, #0xC0

; 947  :             devMode.dmFields = DM_DISPLAYORIENTATION;

  00058	e3a02502	 mov         r2, #2, 10

; 948  :             devMode.dmDisplayOrientation = DMDO_0;

  0005c	e3a01000	 mov         r1, #0

; 949  :             if (ChangeDisplaySettingsEx(NULL, &devMode, NULL, CDS_TEST, NULL) == DISP_CHANGE_SUCCESSFUL)

  00060	e3a00000	 mov         r0, #0
  00064	e1cd34b8	 strh        r3, [sp, #0x48]
  00068	e58d204c	 str         r2, [sp, #0x4C]
  0006c	e58d10c0	 str         r1, [sp, #0xC0]
  00070	e58d0000	 str         r0, [sp]
  00074	e3a03002	 mov         r3, #2
  00078	e3a02000	 mov         r2, #0
  0007c	e28d1004	 add         r1, sp, #4
  00080	e3a00000	 mov         r0, #0
  00084	eb000000	 bl          ChangeDisplaySettingsEx
  00088	e3500000	 cmp         r0, #0

; 950  :             {
; 951  :                 g_iDisplayOrientation = devMode.dmDisplayOrientation;

  0008c	059d30c0	 ldreq       r3, [sp, #0xC0]
  00090	05863000	 streq       r3, [r6]
  00094	15963000	 ldrne       r3, [r6]
  00098		 |$LN13@RemapVKeyT|

; 952  :             }
; 953  :         }
; 954  : 
; 955  :         // translate VK_XXX to index.
; 956  :         switch (ucVKey)

  00098	e3540025	 cmp         r4, #0x25
  0009c	0a00000b	 beq         |$LN7@RemapVKeyT|
  000a0	e3540026	 cmp         r4, #0x26
  000a4	0a000007	 beq         |$LN10@RemapVKeyT|
  000a8	e3540027	 cmp         r4, #0x27
  000ac	0a000003	 beq         |$LN9@RemapVKeyT|
  000b0	e3540028	 cmp         r4, #0x28
  000b4	1a000006	 bne         |$LN11@RemapVKeyT|

; 964  :             case VK_TDOWN:
; 965  :                 iVKeyIndex = 2;

  000b8	e3a05002	 mov         r5, #2

; 966  :                 break;

  000bc	ea000004	 b           |$LN11@RemapVKeyT|
  000c0		 |$LN9@RemapVKeyT|

; 961  :             case VK_TRIGHT:
; 962  :                 iVKeyIndex = 1;

  000c0	e3a05001	 mov         r5, #1

; 963  :                 break;

  000c4	ea000002	 b           |$LN11@RemapVKeyT|
  000c8		 |$LN10@RemapVKeyT|

; 957  :         {
; 958  :             case VK_TUP:
; 959  :                 iVKeyIndex = 0;

  000c8	e3a05000	 mov         r5, #0

; 960  :                 break;

  000cc	ea000000	 b           |$LN11@RemapVKeyT|
  000d0		 |$LN7@RemapVKeyT|

; 967  :             case VK_TLEFT:
; 968  :                 iVKeyIndex = 3;

  000d0	e3a05003	 mov         r5, #3
  000d4		 |$LN11@RemapVKeyT|

; 969  :                 break;
; 970  :         }
; 971  : 
; 972  :         // Transalte VK_XXX according to the screen rotation. No translation is needed
; 973  :         // if the screen is in DMD0 mode or we can't determine the screen orientation. 
; 974  :         switch (g_iDisplayOrientation)

  000d4	e3530001	 cmp         r3, #1
  000d8	0a000009	 beq         |$LN4@RemapVKeyT|
  000dc	e3530002	 cmp         r3, #2
  000e0	0a000004	 beq         |$LN3@RemapVKeyT|
  000e4	e3530004	 cmp         r3, #4
  000e8	1a000007	 bne         |$LN5@RemapVKeyT|

; 982  :             case DMDO_270:
; 983  :                 ucRetVal = ucOrientationDMDO_270VKTable[iVKeyIndex];

  000ec	e59f3030	 ldr         r3, [pc, #0x30]
  000f0	e2833008	 add         r3, r3, #8

; 984  :                 break;

  000f4	ea000003	 b           |$LN20@RemapVKeyT|
  000f8		 |$LN3@RemapVKeyT|

; 978  :                 break;
; 979  :             case DMDO_180:
; 980  :                 ucRetVal = ucOrientationDMDO_180VKTable[iVKeyIndex];

  000f8	e59f3024	 ldr         r3, [pc, #0x24]
  000fc	e2833004	 add         r3, r3, #4

; 981  :                 break;

  00100	ea000000	 b           |$LN20@RemapVKeyT|
  00104		 |$LN4@RemapVKeyT|

; 975  :         {
; 976  :             case DMDO_90:
; 977  :                 ucRetVal = ucOrientationDMDO_90VKTable[iVKeyIndex];

  00104	e59f3018	 ldr         r3, [pc, #0x18]
  00108		 |$LN20@RemapVKeyT|
  00108	e7d54003	 ldrb        r4, [r5, +r3]
  0010c		 |$LN5@RemapVKeyT|

; 985  :            case DMDO_0:
; 986  :            default:
; 987  :                 break;
; 988  :         }
; 989  :     }
; 990  : 
; 991  :     return ucRetVal;

  0010c	e59d00c4	 ldr         r0, [sp, #0xC4]
  00110	eb000000	 bl          __security_check_cookie

; 992  : }

  00114	e1a00004	 mov         r0, r4
  00118	e28dd0c8	 add         sp, sp, #0xC8
  0011c	e8bd4070	 ldmia       sp!, {r4 - r6, lr}
  00120	e12fff1e	 bx          lr
  00124		 |$LN24@RemapVKeyT|
  00124		 |$LN25@RemapVKeyT|
  00124	00000000	 DCD         |?ucOrientationDMDO_90VKTable@?1??RemapVKeyToScreenOrientation@@9@9|
  00128		 |$LN26@RemapVKeyT|
  00128	00000000	 DCD         |g_iDisplayOrientation|
  0012c		 |$LN27@RemapVKeyT|
  0012c	00000000	 DCD         |__security_cookie|
  00130		 |$M44564|

			 ENDP  ; |RemapVKeyToScreenOrientation|

	EXPORT	|KPD_LightThread|
	IMPORT	|NLedSetDevice|
	IMPORT	|CeSetThreadPriority|

  00000			 AREA	 |.pdata|, PDATA
|$T44590| DCD	|$LN16@KPD_LightT|
	DCD	0x40003902
; Function compile flags: /Ogspy

  00000			 AREA	 |.text|, CODE, ARM

  00000		 |KPD_LightThread| PROC

; 1204 : {

  00000		 |$LN16@KPD_LightT|
  00000	e92d43f0	 stmdb       sp!, {r4 - r9, lr}
  00004	e24dd01c	 sub         sp, sp, #0x1C
  00008		 |$M44587|
  00008	e1a05000	 mov         r5, r0

; 1205 :     DWORD               rc;
; 1206 :     struct NLED_SETTINGS_INFO  nledInfo;
; 1207 :     KeypadDevice_t     *pDevice = (KeypadDevice_t*)pContext;
; 1208 :     DWORD               keypadLightTimeout = pDevice->KpLightTimeout_ms;
; 1209 :     
; 1210 :     if( !pDevice ) 
; 1211 :         {
; 1212 :         DEBUGMSG(ZONE_ERROR, (L" KPD_LightThread: "
; 1213 :             L"Invalid context passed to thread routine.\r\n"
; 1214 :             ));
; 1215 :         ASSERT( FALSE );
; 1216 :         goto cleanUp;
; 1217 :         }
; 1218 : 
; 1219 :     // Set Thread Priority
; 1220 :     CeSetThreadPriority(pDevice->hLightThread, pDevice->priority256 + 1);

  0000c	e5953004	 ldr         r3, [r5, #4]
  00010	e5950038	 ldr         r0, [r5, #0x38]
  00014	e5954048	 ldr         r4, [r5, #0x48]
  00018	e2831001	 add         r1, r3, #1
  0001c	eb000000	 bl          CeSetThreadPriority

; 1221 : 
; 1222 :     // initialize nled info
; 1223 :     
; 1224 :     // Setting NLED control parameters
; 1225 :     memset(&nledInfo, 0, sizeof(struct NLED_SETTINGS_INFO));

  00020	e3a0201c	 mov         r2, #0x1C
  00024	e3a01000	 mov         r1, #0
  00028	e28d0000	 add         r0, sp, #0
  0002c	eb000000	 bl          memset

; 1226 :     nledInfo.LedNum = pDevice->KpLedNum;

  00030	e5953044	 ldr         r3, [r5, #0x44]

; 1227 :     nledInfo.TotalCycleTime = 0;

  00034	e3a02000	 mov         r2, #0

; 1228 :     nledInfo.OnTime = 0;

  00038	e3a0e000	 mov         lr, #0

; 1229 :     nledInfo.OffTime = 0;

  0003c	e3a06000	 mov         r6, #0

; 1230 :     nledInfo.MetaCycleOn = 1;

  00040	e3a07001	 mov         r7, #1

; 1231 :     nledInfo.MetaCycleOff = 0;

  00044	e3a08000	 mov         r8, #0

; 1232 :     nledInfo.OffOnBlink = 1;

  00048	e3a09001	 mov         r9, #1

; 1233 :     NLedSetDevice(NLED_SETTINGS_INFO_ID, (void*)&nledInfo);

  0004c	e28d1000	 add         r1, sp, #0
  00050	e3a00002	 mov         r0, #2
  00054	e58d3000	 str         r3, [sp]
  00058	e58d2008	 str         r2, [sp, #8]
  0005c	e58de00c	 str         lr, [sp, #0xC]
  00060	e58d6010	 str         r6, [sp, #0x10]
  00064	e58d7014	 str         r7, [sp, #0x14]
  00068	e58d8018	 str         r8, [sp, #0x18]
  0006c	e58d9004	 str         r9, [sp, #4]
  00070	eb000000	 bl          NLedSetDevice

; 1234 :     
; 1235 :     // Loop until we are not stopped
; 1236 :     for(;;)
; 1237 :         {
; 1238 :         rc = WaitForSingleObject(pDevice->hKeypressEvent, keypadLightTimeout);

  00074	e595003c	 ldr         r0, [r5, #0x3C]
  00078	e1a01004	 mov         r1, r4
  0007c	eb000000	 bl          WaitForSingleObject

; 1239 : 
; 1240 :         // check for thread termination
; 1241 :         if (pDevice->intrThreadExit) break;

  00080	e5953028	 ldr         r3, [r5, #0x28]
  00084	e3530000	 cmp         r3, #0
  00088	1a000011	 bne         |$cleanUp$44184|
  0008c	e3a03c01	 mov         r3, #1, 24
  00090	e3836002	 orr         r6, r3, #2
  00094	e3a07000	 mov         r7, #0
  00098	e3a08001	 mov         r8, #1
  0009c		 |$LL4@KPD_LightT|

; 1242 : 
; 1243 :         // check for thread termination
; 1244 :         if (WAIT_TIMEOUT == rc)

  0009c	e1500006	 cmp         r0, r6

; 1245 :             {
; 1246 :             keypadLightTimeout = INFINITE;
; 1247 :             nledInfo.OffOnBlink = 0;
; 1248 :             NLedSetDevice(NLED_SETTINGS_INFO_ID, (void*)&nledInfo);

  000a0	03e04000	 mvneq       r4, #0

; 1249 :             continue;
; 1250 :             }
; 1251 : 
; 1252 :         keypadLightTimeout = pDevice->KpLightTimeout_ms;
; 1253 :         nledInfo.OffOnBlink = 1;
; 1254 :         NLedSetDevice(NLED_SETTINGS_INFO_ID, (void*)&nledInfo);

  000a4	15954048	 ldrne       r4, [r5, #0x48]
  000a8	058d7004	 streq       r7, [sp, #4]
  000ac	e28d1000	 add         r1, sp, #0
  000b0	e3a00002	 mov         r0, #2
  000b4	158d8004	 strne       r8, [sp, #4]
  000b8	eb000000	 bl          NLedSetDevice
  000bc	e595003c	 ldr         r0, [r5, #0x3C]
  000c0	e1a01004	 mov         r1, r4
  000c4	eb000000	 bl          WaitForSingleObject
  000c8	e5953028	 ldr         r3, [r5, #0x28]
  000cc	e3530000	 cmp         r3, #0
  000d0	0afffff1	 beq         |$LL4@KPD_LightT|
  000d4		 |$cleanUp$44184|

; 1255 :         }
; 1256 : 
; 1257 : cleanUp:
; 1258 :     return ERROR_SUCCESS;

  000d4	e3a00000	 mov         r0, #0

; 1259 : }

  000d8	e28dd01c	 add         sp, sp, #0x1C
  000dc	e8bd43f0	 ldmia       sp!, {r4 - r9, lr}
  000e0	e12fff1e	 bx          lr
  000e4		 |$M44588|

			 ENDP  ; |KPD_LightThread|

	EXPORT	|DllMain|
	IMPORT	|DisableThreadLibraryCalls|
	IMPORT	|RegisterDbgZones|

  00000			 AREA	 |.pdata|, PDATA
|$T44601| DCD	|$LN8@DllMain|
	DCD	0x40000c01
; Function compile flags: /Ogspy

  00000			 AREA	 |.text|, CODE, ARM

  00000		 |DllMain| PROC

; 1274 : {

  00000		 |$LN8@DllMain|
  00000	e92d4010	 stmdb       sp!, {r4, lr}
  00004		 |$M44598|
  00004	e1a04000	 mov         r4, r0

; 1275 :     UNREFERENCED_PARAMETER(pReserved);
; 1276 :     switch (reason)

  00008	e3510001	 cmp         r1, #1
  0000c	1a000003	 bne         |$LN2@DllMain|

; 1277 :         {
; 1278 :         case DLL_PROCESS_ATTACH:
; 1279 :             RETAILREGISTERZONES((HMODULE)hDLL);

  00010	e59f1014	 ldr         r1, [pc, #0x14]
  00014	eb000000	 bl          RegisterDbgZones

; 1280 :             DisableThreadLibraryCalls((HMODULE)hDLL);

  00018	e1a00004	 mov         r0, r4
  0001c	eb000000	 bl          DisableThreadLibraryCalls
  00020		 |$LN2@DllMain|

; 1281 :             break;
; 1282 :         }
; 1283 :     return TRUE;

  00020	e3a00001	 mov         r0, #1

; 1284 : }

  00024	e8bd4010	 ldmia       sp!, {r4, lr}
  00028	e12fff1e	 bx          lr
  0002c		 |$LN9@DllMain|
  0002c		 |$LN10@DllMain|
  0002c	00000000	 DCD         |dpCurSettings|
  00030		 |$M44599|

			 ENDP  ; |DllMain|

	EXPORT	|__$ArrayPad$| [ DATA ]
	EXPORT	|SendKeyPadEvent|
	EXPORT	|??_C@_1DC@LILGGEOG@?$AA?5?$AAS?$AAe?$AAn?$AAd?$AAK?$AAe?$AAy?$AAP?$AAa?$AAd?$AAE?$AAv?$AAe?$AAn?$AAt?$AA?3?$AA?5?$AA2?$AA2?$AA2?$AA2?$AA?$AN?$AA?6?$AA?$AA@| [ DATA ] ; `string'
	EXPORT	|??_C@_1DE@CLCBCHKJ@?$AA?5?$AAS?$AAe?$AAn?$AAd?$AAK?$AAe?$AAy?$AAP?$AAa?$AAd?$AAE?$AAv?$AAe?$AAn?$AAt?$AA?3?$AA?5?$AA1?$AA1?$AA1?$AA1?$AA1?$AA?$AN?$AA?6?$AA?$AA@| [ DATA ] ; `string'
	EXPORT	|??_C@_1EE@GNDCEGDA@?$AA?5?$AAS?$AAe?$AAn?$AAd?$AAK?$AAe?$AAy?$AAP?$AAa?$AAd?$AAE?$AAv?$AAe?$AAn?$AAt?$AA?3?$AA?5?$AA0?$AAx?$AA?$CF?$AAx?$AA?5?$AA?$CF?$AAd?$AA?5?$AA?$CF?$AAd?$AA?5?$AA?$CF?$AAd?$AA?$AN@| [ DATA ] ; `string'
	IMPORT	|keybd_event|
	IMPORT	|g_keypadExtraSeq|

  00000			 AREA	 |.pdata|, PDATA
|$T44651| DCD	|$LN35@SendKeyPad|
	DCD	0xc0008902

  00000			 AREA	 |.xdata|, DATA
|$T44647| DCD	0xffffffd8

  00000			 AREA	 |.rdata|, DATA, READONLY
|??_C@_1DC@LILGGEOG@?$AA?5?$AAS?$AAe?$AAn?$AAd?$AAK?$AAe?$AAy?$AAP?$AAa?$AAd?$AAE?$AAv?$AAe?$AAn?$AAt?$AA?3?$AA?5?$AA2?$AA2?$AA2?$AA2?$AA?$AN?$AA?6?$AA?$AA@| DCB " "
	DCB	0x0, "S", 0x0, "e", 0x0, "n", 0x0, "d", 0x0, "K", 0x0, "e"
	DCB	0x0, "y", 0x0, "P", 0x0, "a", 0x0, "d", 0x0, "E", 0x0, "v"
	DCB	0x0, "e", 0x0, "n", 0x0, "t", 0x0, ":", 0x0, " ", 0x0, "2"
	DCB	0x0, "2", 0x0, "2", 0x0, "2", 0x0, 0xd, 0x0, 0xa, 0x0, 0x0
	DCB	0x0					; `string'

  00000			 AREA	 |.rdata|, DATA, READONLY
|??_C@_1DE@CLCBCHKJ@?$AA?5?$AAS?$AAe?$AAn?$AAd?$AAK?$AAe?$AAy?$AAP?$AAa?$AAd?$AAE?$AAv?$AAe?$AAn?$AAt?$AA?3?$AA?5?$AA1?$AA1?$AA1?$AA1?$AA1?$AA?$AN?$AA?6?$AA?$AA@| DCB " "
	DCB	0x0, "S", 0x0, "e", 0x0, "n", 0x0, "d", 0x0, "K", 0x0, "e"
	DCB	0x0, "y", 0x0, "P", 0x0, "a", 0x0, "d", 0x0, "E", 0x0, "v"
	DCB	0x0, "e", 0x0, "n", 0x0, "t", 0x0, ":", 0x0, " ", 0x0, "1"
	DCB	0x0, "1", 0x0, "1", 0x0, "1", 0x0, "1", 0x0, 0xd, 0x0, 0xa
	DCB	0x0, 0x0, 0x0				; `string'

  00000			 AREA	 |.rdata|, DATA, READONLY
|??_C@_1EE@GNDCEGDA@?$AA?5?$AAS?$AAe?$AAn?$AAd?$AAK?$AAe?$AAy?$AAP?$AAa?$AAd?$AAE?$AAv?$AAe?$AAn?$AAt?$AA?3?$AA?5?$AA0?$AAx?$AA?$CF?$AAx?$AA?5?$AA?$CF?$AAd?$AA?5?$AA?$CF?$AAd?$AA?5?$AA?$CF?$AAd?$AA?$AN@| DCB " "
	DCB	0x0, "S", 0x0, "e", 0x0, "n", 0x0, "d", 0x0, "K", 0x0, "e"
	DCB	0x0, "y", 0x0, "P", 0x0, "a", 0x0, "d", 0x0, "E", 0x0, "v"
	DCB	0x0, "e", 0x0, "n", 0x0, "t", 0x0, ":", 0x0, " ", 0x0, "0"
	DCB	0x0, "x", 0x0, "%", 0x0, "x", 0x0, " ", 0x0, "%", 0x0, "d"
	DCB	0x0, " ", 0x0, "%", 0x0, "d", 0x0, " ", 0x0, "%", 0x0, "d"
	DCB	0x0, 0xd, 0x0, 0xa, 0x0, 0x0, 0x0	; `string'
; Function compile flags: /Ogspy

  00000			 AREA	 |.text|, CODE, ARM

  00000	00000000	 DCD         |__GSHandlerCheck|
  00004	00000000	 DCD         |$T44647|

  00008		 |SendKeyPadEvent| PROC

; 142  : {

  00008		 |$LN35@SendKeyPad|
  00008	e92d4ff0	 stmdb       sp!, {r4 - r11, lr}
  0000c	e24dd0c8	 sub         sp, sp, #0xC8
  00010		 |$M44648|
  00010	e1a08003	 mov         r8, r3
  00014	e1a07002	 mov         r7, r2
  00018	e1a0b001	 mov         r11, r1
  0001c	e1a04000	 mov         r4, r0
  00020	e59f0200	 ldr         r0, [pc, #0x200]
  00024	e5900000	 ldr         r0, [r0]
  00028	e58d00c4	 str         r0, [sp, #0xC4]

; 143  :     USHORT index;
; 144  :     UCHAR vk_extra = 0, order;
; 145  :     
; 146  :     order = KEYPAD_EXTRASEQ_ORDER_NONE; // no extra key needed
; 147  :     RETAILMSG(1, (L" SendKeyPadEvent: 0x%x %d %d %d\r\n", bVk,bScan,dwFlags,dwExtraInfo));

  0002c	e59f01f0	 ldr         r0, [pc, #0x1F0]
  00030	e1a03007	 mov         r3, r7
  00034	e1a0200b	 mov         r2, r11
  00038	e1a01004	 mov         r1, r4
  0003c	e3a09000	 mov         r9, #0
  00040	e3a0a0ff	 mov         r10, #0xFF
  00044	e58d8000	 str         r8, [sp]
  00048	eb000000	 bl          NKDbgPrintfW

; 148  :     // Remap for rotation angle
; 149  :     bVk = RemapVKeyToScreenOrientation(bVk);

  0004c	e3540026	 cmp         r4, #0x26
  00050	0a000005	 beq         |$LN25@SendKeyPad|
  00054	e3540027	 cmp         r4, #0x27
  00058	0a000003	 beq         |$LN25@SendKeyPad|
  0005c	e3540028	 cmp         r4, #0x28
  00060	0a000001	 beq         |$LN25@SendKeyPad|
  00064	e3540025	 cmp         r4, #0x25
  00068	1a000032	 bne         |$LN11@SendKeyPad|
  0006c		 |$LN25@SendKeyPad|
  0006c	e59f61ac	 ldr         r6, [pc, #0x1AC]
  00070	e3a05000	 mov         r5, #0
  00074	e5963000	 ldr         r3, [r6]
  00078	e3730001	 cmn         r3, #1
  0007c	1a000010	 bne         |$LN23@SendKeyPad|
  00080	e3a030c0	 mov         r3, #0xC0
  00084	e3a02502	 mov         r2, #2, 10
  00088	e3a01000	 mov         r1, #0
  0008c	e3a00000	 mov         r0, #0
  00090	e1cd34b8	 strh        r3, [sp, #0x48]
  00094	e58d204c	 str         r2, [sp, #0x4C]
  00098	e58d10c0	 str         r1, [sp, #0xC0]
  0009c	e58d0000	 str         r0, [sp]
  000a0	e3a03002	 mov         r3, #2
  000a4	e3a02000	 mov         r2, #0
  000a8	e28d1004	 add         r1, sp, #4
  000ac	e3a00000	 mov         r0, #0
  000b0	eb000000	 bl          ChangeDisplaySettingsEx
  000b4	e3500000	 cmp         r0, #0
  000b8	059d30c0	 ldreq       r3, [sp, #0xC0]
  000bc	05863000	 streq       r3, [r6]
  000c0	15963000	 ldrne       r3, [r6]
  000c4		 |$LN23@SendKeyPad|
  000c4	e3540025	 cmp         r4, #0x25
  000c8	0a00000b	 beq         |$LN17@SendKeyPad|
  000cc	e3540026	 cmp         r4, #0x26
  000d0	0a000007	 beq         |$LN20@SendKeyPad|
  000d4	e3540027	 cmp         r4, #0x27
  000d8	0a000003	 beq         |$LN19@SendKeyPad|
  000dc	e3540028	 cmp         r4, #0x28
  000e0	1a000006	 bne         |$LN21@SendKeyPad|
  000e4	e3a05002	 mov         r5, #2
  000e8	ea000004	 b           |$LN21@SendKeyPad|
  000ec		 |$LN19@SendKeyPad|
  000ec	e3a05001	 mov         r5, #1
  000f0	ea000002	 b           |$LN21@SendKeyPad|
  000f4		 |$LN20@SendKeyPad|
  000f4	e3a05000	 mov         r5, #0
  000f8	ea000000	 b           |$LN21@SendKeyPad|
  000fc		 |$LN17@SendKeyPad|
  000fc	e3a05003	 mov         r5, #3
  00100		 |$LN21@SendKeyPad|
  00100	e3530001	 cmp         r3, #1
  00104	0a000009	 beq         |$LN14@SendKeyPad|
  00108	e3530002	 cmp         r3, #2
  0010c	0a000004	 beq         |$LN13@SendKeyPad|
  00110	e3530004	 cmp         r3, #4
  00114	1a000007	 bne         |$LN11@SendKeyPad|
  00118	e59f30fc	 ldr         r3, [pc, #0xFC]
  0011c	e2833008	 add         r3, r3, #8
  00120	ea000003	 b           |$LN32@SendKeyPad|
  00124		 |$LN13@SendKeyPad|
  00124	e59f30f0	 ldr         r3, [pc, #0xF0]
  00128	e2833004	 add         r3, r3, #4
  0012c	ea000000	 b           |$LN32@SendKeyPad|
  00130		 |$LN14@SendKeyPad|
  00130	e59f30e4	 ldr         r3, [pc, #0xE4]
  00134		 |$LN32@SendKeyPad|
  00134	e7d54003	 ldrb        r4, [r5, +r3]
  00138		 |$LN11@SendKeyPad|

; 150  :     
; 151  :     // Check extra virtual key sequence table
; 152  :     for (index = 0; index < g_keypadExtraSeq.count; index ++)

  00138	e59f10d8	 ldr         r1, [pc, #0xD8]
  0013c	e3a02000	 mov         r2, #0
  00140	e1d130b0	 ldrh        r3, [r1]
  00144	e1b0e003	 movs        lr, r3
  00148	0a00000c	 beq         |$LN6@SendKeyPad|
  0014c	e5910004	 ldr         r0, [r1, #4]
  00150	e3a01000	 mov         r1, #0
  00154		 |$LL8@SendKeyPad|

; 153  : 	{
; 154  :         if (g_keypadExtraSeq.pItem[index].vk_orig == bVk)

  00154	e0822082	 add         r2, r2, r2, lsl #1
  00158	e7f23000	 ldrb        r3, [r2, +r0]!
  0015c	e1530004	 cmp         r3, r4

; 155  : 		{
; 156  :             vk_extra = g_keypadExtraSeq.pItem[index].vk_extra;

  00160	05d29001	 ldreqb      r9, [r2, #1]

; 157  :             order = g_keypadExtraSeq.pItem[index].order;

  00164	05d2a002	 ldreqb      r10, [r2, #2]
  00168	e2813001	 add         r3, r1, #1
  0016c	e1a02803	 mov         r2, r3, lsl #16
  00170	e1a02822	 mov         r2, r2, lsr #16
  00174	e1a01002	 mov         r1, r2
  00178	e152000e	 cmp         r2, lr
  0017c	3afffff4	 bcc         |$LL8@SendKeyPad|
  00180		 |$LN6@SendKeyPad|

; 158  : 		}
; 159  : 	}
; 160  :       
; 161  :     // Check to send extra vk first  
; 162  :     if (order == KEYPAD_EXTRASEQ_ORDER_EXTRAFIRST || 
; 163  :         (order == KEYPAD_EXTRASEQ_ORDER_EXTRAORIG && (dwFlags & KEYEVENTF_KEYUP) == 0) )

  00180	e1b0500a	 movs        r5, r10
  00184	0a000003	 beq         |$LN3@SendKeyPad|
  00188	e3550001	 cmp         r5, #1
  0018c	1a000008	 bne         |$LN4@SendKeyPad|
  00190	e3170002	 tst         r7, #2
  00194	1a000006	 bne         |$LN4@SendKeyPad|
  00198		 |$LN3@SendKeyPad|

; 164  : 	{
; 165  : 		RETAILMSG(1, (L" SendKeyPadEvent: 11111\r\n"));

  00198	e59f0074	 ldr         r0, [pc, #0x74]
  0019c	eb000000	 bl          NKDbgPrintfW

; 166  :         keybd_event(vk_extra,0,dwFlags | KEYEVENTF_SILENT,dwExtraInfo);

  001a0	e1a03008	 mov         r3, r8
  001a4	e3872004	 orr         r2, r7, #4
  001a8	e3a01000	 mov         r1, #0
  001ac	e1a00009	 mov         r0, r9
  001b0	eb000000	 bl          keybd_event
  001b4		 |$LN4@SendKeyPad|

; 167  : 	}
; 168  :           
; 169  :     // Send original vk
; 170  :     keybd_event(bVk,bScan,dwFlags,dwExtraInfo);

  001b4	e1a03008	 mov         r3, r8
  001b8	e1a02007	 mov         r2, r7
  001bc	e1a0100b	 mov         r1, r11
  001c0	e1a00004	 mov         r0, r4
  001c4	eb000000	 bl          keybd_event

; 171  : 	
; 172  : 	// Check to send extra key
; 173  : 	if (order == KEYPAD_EXTRASEQ_ORDER_ORIGFIRST || 
; 174  :        (order == KEYPAD_EXTRASEQ_ORDER_EXTRAORIG && (dwFlags & KEYEVENTF_KEYUP)))

  001c8	e3550002	 cmp         r5, #2
  001cc	0a000003	 beq         |$LN1@SendKeyPad|
  001d0	e3550001	 cmp         r5, #1
  001d4	1a000008	 bne         |$LN2@SendKeyPad|
  001d8	e3170002	 tst         r7, #2
  001dc	0a000006	 beq         |$LN2@SendKeyPad|
  001e0		 |$LN1@SendKeyPad|

; 175  : 	{
; 176  : 		RETAILMSG(1, (L" SendKeyPadEvent: 2222\r\n"));

  001e0	e59f0028	 ldr         r0, [pc, #0x28]
  001e4	eb000000	 bl          NKDbgPrintfW

; 177  : 		keybd_event(vk_extra,0,dwFlags | KEYEVENTF_SILENT,dwExtraInfo);

  001e8	e1a03008	 mov         r3, r8
  001ec	e3872004	 orr         r2, r7, #4
  001f0	e3a01000	 mov         r1, #0
  001f4	e1a00009	 mov         r0, r9
  001f8	eb000000	 bl          keybd_event
  001fc		 |$LN2@SendKeyPad|
  001fc	e59d00c4	 ldr         r0, [sp, #0xC4]
  00200	eb000000	 bl          __security_check_cookie

; 178  : 	}
; 179  : }

  00204	e28dd0c8	 add         sp, sp, #0xC8
  00208	e8bd4ff0	 ldmia       sp!, {r4 - r11, lr}
  0020c	e12fff1e	 bx          lr
  00210		 |$LN36@SendKeyPad|
  00210		 |$LN37@SendKeyPad|
  00210	00000000	 DCD         |??_C@_1DC@LILGGEOG@?$AA?5?$AAS?$AAe?$AAn?$AAd?$AAK?$AAe?$AAy?$AAP?$AAa?$AAd?$AAE?$AAv?$AAe?$AAn?$AAt?$AA?3?$AA?5?$AA2?$AA2?$AA2?$AA2?$AA?$AN?$AA?6?$AA?$AA@|
  00214		 |$LN38@SendKeyPad|
  00214	00000000	 DCD         |??_C@_1DE@CLCBCHKJ@?$AA?5?$AAS?$AAe?$AAn?$AAd?$AAK?$AAe?$AAy?$AAP?$AAa?$AAd?$AAE?$AAv?$AAe?$AAn?$AAt?$AA?3?$AA?5?$AA1?$AA1?$AA1?$AA1?$AA1?$AA?$AN?$AA?6?$AA?$AA@|
  00218		 |$LN39@SendKeyPad|
  00218	00000000	 DCD         |g_keypadExtraSeq|
  0021c		 |$LN40@SendKeyPad|
  0021c	00000000	 DCD         |?ucOrientationDMDO_90VKTable@?1??RemapVKeyToScreenOrientation@@9@9|
  00220		 |$LN41@SendKeyPad|
  00220	00000000	 DCD         |g_iDisplayOrientation|
  00224		 |$LN42@SendKeyPad|
  00224	00000000	 DCD         |??_C@_1EE@GNDCEGDA@?$AA?5?$AAS?$AAe?$AAn?$AAd?$AAK?$AAe?$AAy?$AAP?$AAa?$AAd?$AAE?$AAv?$AAe?$AAn?$AAt?$AA?3?$AA?5?$AA0?$AAx?$AA?$CF?$AAx?$AA?5?$AA?$CF?$AAd?$AA?5?$AA?$CF?$AAd?$AA?5?$AA?$CF?$AAd?$AA?$AN@|
  00228		 |$LN43@SendKeyPad|
  00228	00000000	 DCD         |__security_cookie|
  0022c		 |$M44649|

			 ENDP  ; |SendKeyPadEvent|

	EXPORT	|PressedReleasedKeys|
	EXPORT	|??_C@_1DO@HFBDPGNP@?$AA?5?$AAP?$AAr?$AAe?$AAs?$AAs?$AAe?$AAd?$AAR?$AAe?$AAl?$AAe?$AAa?$AAs?$AAe?$AAd?$AAK?$AAe?$AAy?$AAs?$AA?3?$AA?5?$AA0?$AAx?$AA?$CF?$AA0?$AA2?$AAX?$AA?$AN?$AA?6?$AA?$AA@| [ DATA ] ; `string'
	EXPORT	|??_C@_1EK@OOAHNOJF@?$AA?5?$AAP?$AAr?$AAe?$AAs?$AAs?$AAe?$AAd?$AAR?$AAe?$AAl?$AAe?$AAa?$AAs?$AAe?$AAd?$AAK?$AAe?$AAy?$AAs?$AA?3?$AA?5?$AAK?$AAe?$AAy?$AA?5?$AAU?$AAp?$AA?3?$AA?5?$AA0?$AAx@| [ DATA ] ; `string'
	EXPORT	|??_C@_1EO@OKMNCGKP@?$AA?5?$AAP?$AAr?$AAe?$AAs?$AAs?$AAe?$AAd?$AAR?$AAe?$AAl?$AAe?$AAa?$AAs?$AAe?$AAd?$AAK?$AAe?$AAy?$AAs?$AA?3?$AA?5?$AAK?$AAe?$AAy?$AA?5?$AAD?$AAo?$AAw?$AAn?$AA?3?$AA?5@| [ DATA ] ; `string'
	IMPORT	|PowerPolicyNotify|

  00000			 AREA	 |.pdata|, PDATA
|$T44678| DCD	|$LN29@PressedRel|
	DCD	0x40004f01

  00000			 AREA	 |.rdata|, DATA, READONLY
|??_C@_1DO@HFBDPGNP@?$AA?5?$AAP?$AAr?$AAe?$AAs?$AAs?$AAe?$AAd?$AAR?$AAe?$AAl?$AAe?$AAa?$AAs?$AAe?$AAd?$AAK?$AAe?$AAy?$AAs?$AA?3?$AA?5?$AA0?$AAx?$AA?$CF?$AA0?$AA2?$AAX?$AA?$AN?$AA?6?$AA?$AA@| DCB " "
	DCB	0x0, "P", 0x0, "r", 0x0, "e", 0x0, "s", 0x0, "s", 0x0, "e"
	DCB	0x0, "d", 0x0, "R", 0x0, "e", 0x0, "l", 0x0, "e", 0x0, "a"
	DCB	0x0, "s", 0x0, "e", 0x0, "d", 0x0, "K", 0x0, "e", 0x0, "y"
	DCB	0x0, "s", 0x0, ":", 0x0, " ", 0x0, "0", 0x0, "x", 0x0, "%"
	DCB	0x0, "0", 0x0, "2", 0x0, "X", 0x0, 0xd, 0x0, 0xa, 0x0, 0x0
	DCB	0x0					; `string'

  00000			 AREA	 |.rdata|, DATA, READONLY
|??_C@_1EK@OOAHNOJF@?$AA?5?$AAP?$AAr?$AAe?$AAs?$AAs?$AAe?$AAd?$AAR?$AAe?$AAl?$AAe?$AAa?$AAs?$AAe?$AAd?$AAK?$AAe?$AAy?$AAs?$AA?3?$AA?5?$AAK?$AAe?$AAy?$AA?5?$AAU?$AAp?$AA?3?$AA?5?$AA0?$AAx@| DCB " "
	DCB	0x0, "P", 0x0, "r", 0x0, "e", 0x0, "s", 0x0, "s", 0x0, "e"
	DCB	0x0, "d", 0x0, "R", 0x0, "e", 0x0, "l", 0x0, "e", 0x0, "a"
	DCB	0x0, "s", 0x0, "e", 0x0, "d", 0x0, "K", 0x0, "e", 0x0, "y"
	DCB	0x0, "s", 0x0, ":", 0x0, " ", 0x0, "K", 0x0, "e", 0x0, "y"
	DCB	0x0, " ", 0x0, "U", 0x0, "p", 0x0, ":", 0x0, " ", 0x0, "0"
	DCB	0x0, "x", 0x0, "%", 0x0, "x", 0x0, 0xd, 0x0, 0xa, 0x0, 0x0
	DCB	0x0					; `string'

  00000			 AREA	 |.rdata|, DATA, READONLY
|??_C@_1EO@OKMNCGKP@?$AA?5?$AAP?$AAr?$AAe?$AAs?$AAs?$AAe?$AAd?$AAR?$AAe?$AAl?$AAe?$AAa?$AAs?$AAe?$AAd?$AAK?$AAe?$AAy?$AAs?$AA?3?$AA?5?$AAK?$AAe?$AAy?$AA?5?$AAD?$AAo?$AAw?$AAn?$AA?3?$AA?5@| DCB " "
	DCB	0x0, "P", 0x0, "r", 0x0, "e", 0x0, "s", 0x0, "s", 0x0, "e"
	DCB	0x0, "d", 0x0, "R", 0x0, "e", 0x0, "l", 0x0, "e", 0x0, "a"
	DCB	0x0, "s", 0x0, "e", 0x0, "d", 0x0, "K", 0x0, "e", 0x0, "y"
	DCB	0x0, "s", 0x0, ":", 0x0, " ", 0x0, "K", 0x0, "e", 0x0, "y"
	DCB	0x0, " ", 0x0, "D", 0x0, "o", 0x0, "w", 0x0, "n", 0x0, ":"
	DCB	0x0, " ", 0x0, "0", 0x0, "x", 0x0, "%", 0x0, "x", 0x0, 0xd
	DCB	0x0, 0xa, 0x0, 0x0, 0x0			; `string'
; Function compile flags: /Ogspy

  00000			 AREA	 |.text|, CODE, ARM

  00000		 |PressedReleasedKeys| PROC

; 194  : {

  00000		 |$LN29@PressedRel|
  00000	e92d47f0	 stmdb       sp!, {r4 - r10, lr}
  00004		 |$M44675|
  00004	e1a05002	 mov         r5, r2
  00008	e1a09000	 mov         r9, r0

; 195  :     UINT8 vk;
; 196  :     int ic;
; 197  : 
; 198  :     for (ic = 0, vk = 0; ic < VK_KEYS/DWORD_BITS; ic++)

  0000c	e3a04000	 mov         r4, #0
  00010	e041a005	 sub         r10, r1, r5
  00014	e3a07008	 mov         r7, #8
  00018		 |$LL19@PressedRel|

; 199  :         {
; 200  :         DWORD change = vkState[ic] ^ vkNewState[ic];

  00018	e79a1005	 ldr         r1, [r10, +r5]
  0001c	e5953000	 ldr         r3, [r5]
  00020	e0318003	 eors        r8, r1, r3

; 201  :         if (change == 0)
; 202  :             {
; 203  :             vk += DWORD_BITS;

  00024	02843020	 addeq       r3, r4, #0x20
  00028	020340ff	 andeq       r4, r3, #0xFF
  0002c	0a00003a	 beq         |$LN18@PressedRel|

; 204  :             }
; 205  :         else
; 206  :             {
; 207  :             DWORD mask;
; 208  :             for (mask = 1; mask != 0; mask <<= 1, vk++)

  00030	e3a06001	 mov         r6, #1
  00034		 |$LL14@PressedRel|

; 209  :                 {
; 210  :                 // Check for change
; 211  :                 if ((change & mask) != 0)

  00034	e1160008	 tst         r6, r8
  00038	0a000033	 beq         |$LN13@PressedRel|

; 212  :                     {
; 213  :                     if ((vkNewState[ic] & mask) != 0)

  0003c	e5953000	 ldr         r3, [r5]

; 214  :                         {
; 215  :                         RETAILMSG(1, (L" PressedReleasedKeys: Key Down: 0x%x\r\n", vk)); 

  00040	e1a01004	 mov         r1, r4
  00044	e1130006	 tst         r3, r6
  00048	0a000009	 beq         |$LN10@PressedRel|
  0004c	e59f00e4	 ldr         r0, [pc, #0xE4]
  00050	eb000000	 bl          NKDbgPrintfW

; 216  :                         // Send key down event
; 217  :                         if (vk != VK_OFF)

  00054	e35400df	 cmp         r4, #0xDF
  00058	0a00002b	 beq         |$LN13@PressedRel|

; 218  :                             {
; 219  :                             SendKeyPadEvent(vk, 0, 0, 0);

  0005c	e3a03000	 mov         r3, #0
  00060	e3a02000	 mov         r2, #0
  00064	e3a01000	 mov         r1, #0
  00068	e1a00004	 mov         r0, r4
  0006c	eb000000	 bl          SendKeyPadEvent

; 220  :                             }
; 221  :                         }
; 222  :                     else

  00070	ea000025	 b           |$LN13@PressedRel|
  00074		 |$LN10@PressedRel|

; 223  :                         {
; 224  :                         RETAILMSG(1, (L" PressedReleasedKeys: Key Up: 0x%x\r\n", vk));

  00074	e59f00b8	 ldr         r0, [pc, #0xB8]
  00078	eb000000	 bl          NKDbgPrintfW

; 225  : 
; 226  :                         // Need to send the keydown as well as keyup for
; 227  :                         // device to suspend under cebase.                          
; 228  :                         if (pDevice->bEnableOffKey == TRUE && vk == VK_OFF)

  0007c	e5993040	 ldr         r3, [r9, #0x40]
  00080	e3530001	 cmp         r3, #1
  00084	035400df	 cmpeq       r4, #0xDF

; 229  :                             {
; 230  :                             SendKeyPadEvent(vk, 0, 0, 0);

  00088	03a03000	 moveq       r3, #0
  0008c	03a02000	 moveq       r2, #0
  00090	03a01000	 moveq       r1, #0
  00094	01a00004	 moveq       r0, r4
  00098	0b000000	 bleq        SendKeyPadEvent

; 231  :                             }
; 232  :                         
; 233  :                         // Send key down event
; 234  :                         if (pDevice->bEnableOffKey != FALSE || vk != VK_OFF)

  0009c	e5993040	 ldr         r3, [r9, #0x40]
  000a0	e3530000	 cmp         r3, #0
  000a4	1a000001	 bne         |$LN5@PressedRel|
  000a8	e35400df	 cmp         r4, #0xDF
  000ac	0a000004	 beq         |$LN6@PressedRel|
  000b0		 |$LN5@PressedRel|

; 235  :                             {
; 236  :                             SendKeyPadEvent(vk, 0, KEYEVENTF_KEYUP, 0);

  000b0	e3a03000	 mov         r3, #0
  000b4	e3a02002	 mov         r2, #2
  000b8	e3a01000	 mov         r1, #0
  000bc	e1a00004	 mov         r0, r4
  000c0	eb000000	 bl          SendKeyPadEvent
  000c4		 |$LN6@PressedRel|

; 237  :                             }
; 238  :                         
; 239  :                         // send PowerPolicyNotify notification
; 240  :                         switch (vk)

  000c4	e354005d	 cmp         r4, #0x5D
  000c8	0a00000c	 beq         |$LN1@PressedRel|
  000cc	e3540081	 cmp         r4, #0x81
  000d0	0a000005	 beq         |$LN2@PressedRel|
  000d4	e35400c0	 cmp         r4, #0xC0
  000d8	da00000b	 ble         |$LN13@PressedRel|
  000dc	e35400c6	 cmp         r4, #0xC6
  000e0	da000006	 ble         |$LN1@PressedRel|
  000e4	e35400df	 cmp         r4, #0xDF
  000e8	1a000007	 bne         |$LN13@PressedRel|
  000ec		 |$LN2@PressedRel|

; 241  :                             {
; 242  :                             case VK_TPOWER:
; 243  :                             case VK_OFF:
; 244  :                                 // only disable interrupts if we are about to enter
; 245  :                                 // a suspend state
; 246  :                                 RETAILMSG(1, (L" PressedReleasedKeys: 0x%02X\r\n", vk));

  000ec	e59f003c	 ldr         r0, [pc, #0x3C]
  000f0	e1a01004	 mov         r1, r4
  000f4	eb000000	 bl          NKDbgPrintfW

; 247  :                                 PowerPolicyNotify(PPN_SUSPENDKEYPRESSED, 0);

  000f8	e3a00004	 mov         r0, #4

; 248  :                                 break;

  000fc	ea000000	 b           |$LN26@PressedRel|
  00100		 |$LN1@PressedRel|

; 249  : 
; 250  :                             case VK_APPS:
; 251  :                             case VK_APP1:
; 252  :                             case VK_APP2:
; 253  :                             case VK_APP3:
; 254  :                             case VK_APP4:
; 255  :                             case VK_APP5:
; 256  :                             case VK_APP6:                     
; 257  :                                 PowerPolicyNotify(PPN_APPBUTTONPRESSED, 0);

  00100	e3a00006	 mov         r0, #6
  00104		 |$LN26@PressedRel|
  00104	e3a01000	 mov         r1, #0
  00108	eb000000	 bl          PowerPolicyNotify
  0010c		 |$LN13@PressedRel|
  0010c	e2843001	 add         r3, r4, #1
  00110	e20340ff	 and         r4, r3, #0xFF
  00114	e1b06086	 movs        r6, r6, lsl #1
  00118	1affffc5	 bne         |$LL14@PressedRel|
  0011c		 |$LN18@PressedRel|

; 195  :     UINT8 vk;
; 196  :     int ic;
; 197  : 
; 198  :     for (ic = 0, vk = 0; ic < VK_KEYS/DWORD_BITS; ic++)

  0011c	e2855004	 add         r5, r5, #4
  00120	e2577001	 subs        r7, r7, #1
  00124	1affffbb	 bne         |$LL19@PressedRel|

; 258  :                                 break;
; 259  :                             }
; 260  :                         
; 261  :                         }
; 262  :                     }
; 263  :                 }
; 264  :             }
; 265  :         }
; 266  : }

  00128	e8bd47f0	 ldmia       sp!, {r4 - r10, lr}
  0012c	e12fff1e	 bx          lr
  00130		 |$LN30@PressedRel|
  00130		 |$LN31@PressedRel|
  00130	00000000	 DCD         |??_C@_1DO@HFBDPGNP@?$AA?5?$AAP?$AAr?$AAe?$AAs?$AAs?$AAe?$AAd?$AAR?$AAe?$AAl?$AAe?$AAa?$AAs?$AAe?$AAd?$AAK?$AAe?$AAy?$AAs?$AA?3?$AA?5?$AA0?$AAx?$AA?$CF?$AA0?$AA2?$AAX?$AA?$AN?$AA?6?$AA?$AA@|
  00134		 |$LN32@PressedRel|
  00134	00000000	 DCD         |??_C@_1EK@OOAHNOJF@?$AA?5?$AAP?$AAr?$AAe?$AAs?$AAs?$AAe?$AAd?$AAR?$AAe?$AAl?$AAe?$AAa?$AAs?$AAe?$AAd?$AAK?$AAe?$AAy?$AAs?$AA?3?$AA?5?$AAK?$AAe?$AAy?$AA?5?$AAU?$AAp?$AA?3?$AA?5?$AA0?$AAx@|
  00138		 |$LN33@PressedRel|
  00138	00000000	 DCD         |??_C@_1EO@OKMNCGKP@?$AA?5?$AAP?$AAr?$AAe?$AAs?$AAs?$AAe?$AAd?$AAR?$AAe?$AAl?$AAe?$AAa?$AAs?$AAe?$AAd?$AAK?$AAe?$AAy?$AAs?$AA?3?$AA?5?$AAK?$AAe?$AAy?$AA?5?$AAD?$AAo?$AAw?$AAn?$AA?3?$AA?5@|
  0013c		 |$M44676|

			 ENDP  ; |PressedReleasedKeys|

	EXPORT	|??_C@_1EI@MBMNALEM@?$AA?5?$AAK?$AAP?$AAD?$AA_?$AAI?$AAn?$AAt?$AAr?$AAT?$AAh?$AAr?$AAe?$AAa?$AAd?$AA?3?$AA?5?$AAK?$AAe?$AAy?$AA?5?$AAR?$AAe?$AAp?$AAe?$AAa?$AAt?$AA?3?$AA?5?$AA0?$AAx?$AA?$CF@| [ DATA ] ; `string'
	EXPORT	|??_C@_1GK@OIDADBP@?$AA?5?$AAK?$AAP?$AAD?$AA_?$AAI?$AAn?$AAt?$AAr?$AAT?$AAh?$AAr?$AAe?$AAa?$AAd?$AA?3?$AA?5?$AAB?$AAl?$AAo?$AAc?$AAk?$AA?5?$AAr?$AAe?$AAp?$AAe?$AAa?$AAt?$AA?3?$AA?5?$AA0@| [ DATA ] ; `string'
	IMPORT	|g_keypadRepeat|

  00000			 AREA	 |.pdata|, PDATA
|$T44710| DCD	|$LN30@AutoRepeat|
	DCD	0x40006702

  00000			 AREA	 |.rdata|, DATA, READONLY
|??_C@_1EI@MBMNALEM@?$AA?5?$AAK?$AAP?$AAD?$AA_?$AAI?$AAn?$AAt?$AAr?$AAT?$AAh?$AAr?$AAe?$AAa?$AAd?$AA?3?$AA?5?$AAK?$AAe?$AAy?$AA?5?$AAR?$AAe?$AAp?$AAe?$AAa?$AAt?$AA?3?$AA?5?$AA0?$AAx?$AA?$CF@| DCB " "
	DCB	0x0, "K", 0x0, "P", 0x0, "D", 0x0, "_", 0x0, "I", 0x0, "n"
	DCB	0x0, "t", 0x0, "r", 0x0, "T", 0x0, "h", 0x0, "r", 0x0, "e"
	DCB	0x0, "a", 0x0, "d", 0x0, ":", 0x0, " ", 0x0, "K", 0x0, "e"
	DCB	0x0, "y", 0x0, " ", 0x0, "R", 0x0, "e", 0x0, "p", 0x0, "e"
	DCB	0x0, "a", 0x0, "t", 0x0, ":", 0x0, " ", 0x0, "0", 0x0, "x"
	DCB	0x0, "%", 0x0, "x", 0x0, 0xd, 0x0, 0xa, 0x0, 0x0, 0x0 ; `string'

  00000			 AREA	 |.rdata|, DATA, READONLY
|??_C@_1GK@OIDADBP@?$AA?5?$AAK?$AAP?$AAD?$AA_?$AAI?$AAn?$AAt?$AAr?$AAT?$AAh?$AAr?$AAe?$AAa?$AAd?$AA?3?$AA?5?$AAB?$AAl?$AAo?$AAc?$AAk?$AA?5?$AAr?$AAe?$AAp?$AAe?$AAa?$AAt?$AA?3?$AA?5?$AA0@| DCB " "
	DCB	0x0, "K", 0x0, "P", 0x0, "D", 0x0, "_", 0x0, "I", 0x0, "n"
	DCB	0x0, "t", 0x0, "r", 0x0, "T", 0x0, "h", 0x0, "r", 0x0, "e"
	DCB	0x0, "a", 0x0, "d", 0x0, ":", 0x0, " ", 0x0, "B", 0x0, "l"
	DCB	0x0, "o", 0x0, "c", 0x0, "k", 0x0, " ", 0x0, "r", 0x0, "e"
	DCB	0x0, "p", 0x0, "e", 0x0, "a", 0x0, "t", 0x0, ":", 0x0, " "
	DCB	0x0, "0", 0x0, "x", 0x0, "%", 0x0, "x", 0x0, " ", 0x0, "b"
	DCB	0x0, "c", 0x0, "a", 0x0, "u", 0x0, "s", 0x0, "e", 0x0, " "
	DCB	0x0, "o", 0x0, "f", 0x0, " ", 0x0, "0", 0x0, "x", 0x0, "%"
	DCB	0x0, "x", 0x0, 0xd, 0x0, 0xa, 0x0, 0x0, 0x0 ; `string'
; Function compile flags: /Ogspy

  00000			 AREA	 |.text|, CODE, ARM

  00000		 |AutoRepeat| PROC

; 1007 : {

  00000		 |$LN30@AutoRepeat|
  00000	e92d4ff0	 stmdb       sp!, {r4 - r11, lr}
  00004	e24dd008	 sub         sp, sp, #8
  00008		 |$M44707|
  00008	e1a08002	 mov         r8, r2
  0000c	e1a02001	 mov         r2, r1
  00010	e1a06000	 mov         r6, r0
  00014	e58d2004	 str         r2, [sp, #4]
  00018	e1a04003	 mov         r4, r3
  0001c	e58d6000	 str         r6, [sp]

; 1008 :     ULONG ix;
; 1009 : 
; 1010 :     for (ix = 0; ix < g_keypadRepeat.count; ix++)

  00020	e59f9170	 ldr         r9, [pc, #0x170]
  00024	e3a0a000	 mov         r10, #0
  00028	e1d9e0b0	 ldrh        lr, [r9]
  0002c	e35e0000	 cmp         lr, #0
  00030	0a000053	 beq         |$LN14@AutoRepeat|
  00034	e3a0b000	 mov         r11, #0
  00038	e3a00001	 mov         r0, #1
  0003c	e3a01000	 mov         r1, #0
  00040		 |$LL16@AutoRepeat|
  00040	e599e004	 ldr         lr, [r9, #4]
  00044	e1a0500b	 mov         r5, r11

; 1011 :         {
; 1012 :         const KEYPAD_REPEAT_ITEM *pItem = &g_keypadRepeat.pItem[ix];
; 1013 :         KeypadRepeatState_t *pState = &pRepeatState[ix];
; 1014 :         DWORD delay;        
; 1015 :         UINT8 vkBlock;
; 1016 :         UINT8 vk = pItem->vkey;

  00048	e7f5700e	 ldrb        r7, [r5, +lr]!

; 1017 : 
; 1018 :         if ((vkNewState[vk >> 5] & (1 << (vk & 0x1F))) != 0)

  0004c	e3a0e001	 mov         lr, #1
  00050	e1a032a7	 mov         r3, r7, lsr #5
  00054	e7922103	 ldr         r2, [r2, +r3, lsl #2]
  00058	e207301f	 and         r3, r7, #0x1F
  0005c	e112031e	 tst         r2, lr, lsl r3
  00060	0a00003e	 beq         |$LN13@AutoRepeat|

; 1019 :             {
; 1020 :             if (!pState->pending)

  00064	e5943000	 ldr         r3, [r4]
  00068	e3530000	 cmp         r3, #0
  0006c	1a000006	 bne         |$LN12@AutoRepeat|

; 1021 :                 {
; 1022 :                 // Key was just pressed
; 1023 :                 delay = pItem->firstDelay;

  00070	e1d530b2	 ldrh        r3, [r5, #2]
  00074	e3530000	 cmp         r3, #0

; 1024 :                 if (delay == 0) delay = pDevice->firstRepeat;

  00078	05963018	 ldreq       r3, [r6, #0x18]

; 1025 :                 pState->time = time + delay;
; 1026 :                 pState->pending = TRUE;

  0007c	e5840000	 str         r0, [r4]
  00080	e0833008	 add         r3, r3, r8
  00084	e5843004	 str         r3, [r4, #4]

; 1027 :                 pState->blocked = FALSE;

  00088	ea000035	 b           |$LN26@AutoRepeat|
  0008c		 |$LN12@AutoRepeat|

; 1028 :                 }
; 1029 :             else if (((INT32)(time - pState->time)) >= 0)

  0008c	e5943004	 ldr         r3, [r4, #4]
  00090	e0583003	 subs        r3, r8, r3
  00094	4a000033	 bmi         |$LN15@AutoRepeat|

; 1030 :                 {
; 1031 :                 // Check if any blocking keys are pressed
; 1032 :                 const KEYPAD_REPEAT_BLOCK *pBlock = pItem->pBlock;

  00098	e595300c	 ldr         r3, [r5, #0xC]
  0009c	e3530000	 cmp         r3, #0

; 1033 :                 if (pBlock != 0)

  000a0	0a000018	 beq         |$LN5@AutoRepeat|

; 1034 :                     {
; 1035 :                     int ik;
; 1036 :                     for ( ik = 0; ik < pBlock->count; ik++ )

  000a4	e5d3e000	 ldrb        lr, [r3]
  000a8	e3a01000	 mov         r1, #0
  000ac	e35e0000	 cmp         lr, #0
  000b0	da000014	 ble         |$LN5@AutoRepeat|
  000b4	e5936004	 ldr         r6, [r3, #4]
  000b8		 |$LL7@AutoRepeat|

; 1037 :                         {
; 1038 :                         vkBlock = pBlock->pVKey[ik];

  000b8	e7d60001	 ldrb        r0, [r6, +r1]

; 1039 :                         if ((vkNewState[vkBlock >> 5] &
; 1040 :                                (1 << (vkBlock & 0x1F))) != 0)

  000bc	e59d2004	 ldr         r2, [sp, #4]
  000c0	e3a09001	 mov         r9, #1
  000c4	e1a032a0	 mov         r3, r0, lsr #5
  000c8	e7922103	 ldr         r2, [r2, +r3, lsl #2]
  000cc	e200301f	 and         r3, r0, #0x1F
  000d0	e1120319	 tst         r2, r9, lsl r3
  000d4	e59f90bc	 ldr         r9, [pc, #0xBC]
  000d8	1a000003	 bne         |$LN23@AutoRepeat|
  000dc	e2811001	 add         r1, r1, #1
  000e0	e151000e	 cmp         r1, lr
  000e4	bafffff3	 blt         |$LL7@AutoRepeat|
  000e8	ea000005	 b           |$LN27@AutoRepeat|
  000ec		 |$LN23@AutoRepeat|

; 1041 :                             {
; 1042 :                             pState->blocked = TRUE;
; 1043 :                             RETAILMSG(1, (L" KPD_IntrThread: "
; 1044 :                                 L"Block repeat: 0x%x bcause of 0x%x\r\n",vk, vkBlock));

  000ec	e1a02000	 mov         r2, r0
  000f0	e59f009c	 ldr         r0, [pc, #0x9C]
  000f4	e3a03001	 mov         r3, #1
  000f8	e1a01007	 mov         r1, r7
  000fc	e5843008	 str         r3, [r4, #8]
  00100	eb000000	 bl          NKDbgPrintfW
  00104		 |$LN27@AutoRepeat|

; 1007 : {

  00104	e59d6000	 ldr         r6, [sp]

; 1041 :                             {
; 1042 :                             pState->blocked = TRUE;
; 1043 :                             RETAILMSG(1, (L" KPD_IntrThread: "
; 1044 :                                 L"Block repeat: 0x%x bcause of 0x%x\r\n",vk, vkBlock));

  00108		 |$LN5@AutoRepeat|

; 1045 :                             break;
; 1046 :                             }
; 1047 :                         }
; 1048 :                     }
; 1049 :                 
; 1050 :                 // Repeat if not blocked
; 1051 :                 if (!pState->blocked)

  00108	e5943008	 ldr         r3, [r4, #8]
  0010c	e3530000	 cmp         r3, #0
  00110	1a00000a	 bne         |$LN3@AutoRepeat|

; 1052 :                     {
; 1053 :                     RETAILMSG(1, (L" KPD_IntrThread: "L"Key Repeat: 0x%x\r\n", vk));

  00114	e59f0074	 ldr         r0, [pc, #0x74]
  00118	e1a01007	 mov         r1, r7
  0011c	eb000000	 bl          NKDbgPrintfW

; 1054 :                     SendKeyPadEvent(vk, 0, pItem->silent ? KEYEVENTF_SILENT : 0, 0);

  00120	e5953008	 ldr         r3, [r5, #8]
  00124	e3a01000	 mov         r1, #0
  00128	e1a00007	 mov         r0, r7
  0012c	e3530000	 cmp         r3, #0
  00130	13a02004	 movne       r2, #4
  00134	03a02000	 moveq       r2, #0
  00138	e3a03000	 mov         r3, #0
  0013c	eb000000	 bl          SendKeyPadEvent
  00140		 |$LN3@AutoRepeat|

; 1055 :                     }
; 1056 :                 // Set time for next repeat
; 1057 :                 delay = pItem->nextDelay;

  00140	e1d530b4	 ldrh        r3, [r5, #4]

; 1058 :                 if (delay == 0) delay = pDevice->nextRepeat;
; 1059 :                 pState->time = time + delay;
; 1060 :                 }
; 1061 :             }
; 1062 :         else

  00144	e3a01000	 mov         r1, #0
  00148	e3a00001	 mov         r0, #1
  0014c	e3530000	 cmp         r3, #0
  00150	0596301c	 ldreq       r3, [r6, #0x1C]
  00154	e0833008	 add         r3, r3, r8
  00158	e5843004	 str         r3, [r4, #4]
  0015c	ea000001	 b           |$LN15@AutoRepeat|
  00160		 |$LN13@AutoRepeat|

; 1063 :             {
; 1064 :             pState->pending = FALSE;

  00160	e5841000	 str         r1, [r4]
  00164		 |$LN26@AutoRepeat|

; 1065 :             pState->blocked = FALSE;

  00164	e5841008	 str         r1, [r4, #8]
  00168		 |$LN15@AutoRepeat|
  00168	e1d930b0	 ldrh        r3, [r9]
  0016c	e28aa001	 add         r10, r10, #1
  00170	e59d2004	 ldr         r2, [sp, #4]
  00174	e15a0003	 cmp         r10, r3
  00178	e28bb010	 add         r11, r11, #0x10
  0017c	e284400c	 add         r4, r4, #0xC
  00180	3affffae	 bcc         |$LL16@AutoRepeat|
  00184		 |$LN14@AutoRepeat|

; 1066 :             }
; 1067 :         }
; 1068 : }

  00184	e28dd008	 add         sp, sp, #8
  00188	e8bd4ff0	 ldmia       sp!, {r4 - r11, lr}
  0018c	e12fff1e	 bx          lr
  00190		 |$LN31@AutoRepeat|
  00190		 |$LN32@AutoRepeat|
  00190	00000000	 DCD         |??_C@_1EI@MBMNALEM@?$AA?5?$AAK?$AAP?$AAD?$AA_?$AAI?$AAn?$AAt?$AAr?$AAT?$AAh?$AAr?$AAe?$AAa?$AAd?$AA?3?$AA?5?$AAK?$AAe?$AAy?$AA?5?$AAR?$AAe?$AAp?$AAe?$AAa?$AAt?$AA?3?$AA?5?$AA0?$AAx?$AA?$CF@|
  00194		 |$LN33@AutoRepeat|
  00194	00000000	 DCD         |??_C@_1GK@OIDADBP@?$AA?5?$AAK?$AAP?$AAD?$AA_?$AAI?$AAn?$AAt?$AAr?$AAT?$AAh?$AAr?$AAe?$AAa?$AAd?$AA?3?$AA?5?$AAB?$AAl?$AAo?$AAc?$AAk?$AA?5?$AAr?$AAe?$AAp?$AAe?$AAa?$AAt?$AA?3?$AA?5?$AA0@|
  00198		 |$LN34@AutoRepeat|
  00198	00000000	 DCD         |g_keypadRepeat|
  0019c		 |$M44708|

			 ENDP  ; |AutoRepeat|

	EXPORT	|__$ArrayPad$| [ DATA ]
	EXPORT	|KPD_IntrThread|
	IMPORT	|GetTickCount|
	IMPORT	|TWLReadRegs|
	IMPORT	|LocalAlloc|
	IMPORT	|memcpy|
; File c:\wince600\public\common\sdk\inc\kfuncs.h

  00000			 AREA	 |.pdata|, PDATA
|$T44772| DCD	|$LN40@KPD_IntrTh|
	DCD	0xc000af02

  00000			 AREA	 |.xdata|, DATA
|$T44768| DCD	0xffffffd8
; Function compile flags: /Ogspy
; File c:\wince600\platform\common\src\soc\common_ti_v1\tps659xx\keypad\keypad.c

  00000			 AREA	 |.text|, CODE, ARM

  00000	00000000	 DCD         |__GSHandlerCheck|
  00004	00000000	 DCD         |$T44768|

  00008		 |KPD_IntrThread| PROC

; 1077 : {

  00008		 |$LN40@KPD_IntrTh|
  00008	e92d4ff0	 stmdb       sp!, {r4 - r11, lr}
  0000c	e24dd058	 sub         sp, sp, #0x58
  00010		 |$M44769|
  00010	e1a05000	 mov         r5, r0
  00014	e58d5008	 str         r5, [sp, #8]
  00018	e59f32a0	 ldr         r3, [pc, #0x2A0]
  0001c	e5933000	 ldr         r3, [r3]
  00020	e58d3054	 str         r3, [sp, #0x54]

; 1078 :     KeypadDevice_t *pDevice = (KeypadDevice_t*)pContext;
; 1079 :     KeypadRemapState_t *pRemapState = NULL;
; 1080 :     KeypadRepeatState_t *pRepeatState = NULL;
; 1081 :     UINT8 matrix[MATRIX_SIZE]; // 8
; 1082 :     DWORD vkState[VK_KEYS/DWORD_BITS]; // 256/32 = 8
; 1083 :     DWORD vkNewState[VK_KEYS/DWORD_BITS];
; 1084 :     DWORD timeout;
; 1085 : 
; 1086 :     // Init data
; 1087 :     memset(matrix, 0, sizeof(matrix));

  00024	e3a0a000	 mov         r10, #0
  00028	e3a02008	 mov         r2, #8
  0002c	e3a01000	 mov         r1, #0
  00030	e28d004c	 add         r0, sp, #0x4C
  00034	e58da004	 str         r10, [sp, #4]
  00038	e3a09000	 mov         r9, #0
  0003c	eb000000	 bl          memset

; 1088 :     memset(vkState, 0, sizeof(vkState));

  00040	e3a02020	 mov         r2, #0x20
  00044	e3a01000	 mov         r1, #0
  00048	e28d002c	 add         r0, sp, #0x2C
  0004c	eb000000	 bl          memset

; 1089 :     memset(vkNewState, 0, sizeof(vkNewState));

  00050	e3a02020	 mov         r2, #0x20
  00054	e3a01000	 mov         r1, #0
  00058	e28d000c	 add         r0, sp, #0xC
  0005c	eb000000	 bl          memset

; 1090 : 
; 1091 :     // Set thread priority
; 1092 :     CeSetThreadPriority(pDevice->hIntrThreadKeypad, pDevice->priority256);

  00060	e5951004	 ldr         r1, [r5, #4]
  00064	e5950024	 ldr         r0, [r5, #0x24]
  00068	eb000000	 bl          CeSetThreadPriority

; 1093 : 
; 1094 :     // Initialize remap informations
; 1095 :     if (g_keypadRemap.count > 0)

  0006c	e59f3248	 ldr         r3, [pc, #0x248]
  00070	e1d330b0	 ldrh        r3, [r3]
  00074	e3530000	 cmp         r3, #0
  00078	0a000005	 beq         |$LN11@KPD_IntrTh|

; 1096 :         {
; 1097 :         // Allocate state structure for remap, zero initialized
; 1098 :         pRemapState = LocalAlloc(
; 1099 :             LPTR, g_keypadRemap.count * sizeof(KeypadRemapState_t)
; 1100 :             );

  0007c	e1a01203	 mov         r1, r3, lsl #4
  00080	e3a00040	 mov         r0, #0x40
  00084	eb000000	 bl          LocalAlloc
  00088	e1b0a000	 movs        r10, r0
  0008c	e58da004	 str         r10, [sp, #4]

; 1101 :         if (pRemapState == NULL)

  00090	0a00007f	 beq         |$LN1@KPD_IntrTh|
  00094		 |$LN11@KPD_IntrTh|

; 1102 :             {
; 1103 :             DEBUGMSG(ZONE_ERROR, (L" KPD_IntrThread: "
; 1104 :                 L"Failed allocate memory for virtual key remap\r\n"
; 1105 :                 ));
; 1106 :             goto cleanUp;
; 1107 :             }
; 1108 :         }
; 1109 : 
; 1110 :     // Initialize repeat informations
; 1111 :     if (g_keypadRepeat.count > 0)

  00094	e59f321c	 ldr         r3, [pc, #0x21C]
  00098	e1d330b0	 ldrh        r3, [r3]
  0009c	e3530000	 cmp         r3, #0
  000a0	0a000005	 beq         |$LN9@KPD_IntrTh|

; 1112 :         {
; 1113 :         // Allocate state structure for repeat, zero initialized
; 1114 :         pRepeatState = LocalAlloc(
; 1115 :             LPTR, g_keypadRepeat.count * sizeof(KeypadRepeatState_t)
; 1116 :             );

  000a4	e0833083	 add         r3, r3, r3, lsl #1
  000a8	e1a01103	 mov         r1, r3, lsl #2
  000ac	e3a00040	 mov         r0, #0x40
  000b0	eb000000	 bl          LocalAlloc
  000b4	e1b09000	 movs        r9, r0

; 1117 :         if (pRepeatState == NULL)

  000b8	0a00006f	 beq         |$cleanUp$44152|
  000bc		 |$LN9@KPD_IntrTh|

; 1118 :             {
; 1119 :             DEBUGMSG(ZONE_ERROR, (L" KPD_IntrThread: "
; 1120 :                 L"Failed allocate memory for virtual key auto repeat\r\n"
; 1121 :                 ));
; 1122 :             goto cleanUp;
; 1123 :             }
; 1124 :         }
; 1125 : 
; 1126 :     // Set delay to sample period
; 1127 :     timeout = pDevice->samplePeriod;
; 1128 : 
; 1129 :     // Loop until we are not stopped...
; 1130 :     while (!pDevice->intrThreadExit)

  000bc	e5953028	 ldr         r3, [r5, #0x28]
  000c0	e5951014	 ldr         r1, [r5, #0x14]
  000c4	e3530000	 cmp         r3, #0
  000c8	1a00006b	 bne         |$cleanUp$44152|
  000cc	e3a060db	 mov         r6, #0xDB
  000d0	e3a02000	 mov         r2, #0
  000d4	e28d404c	 add         r4, sp, #0x4C
  000d8		 |$LL8@KPD_IntrTh|

; 1131 :         {
; 1132 :         DWORD time;
; 1133 :         BOOL keyDown = FALSE;
; 1134 : 
; 1135 :         // Wait for event
; 1136 :         WaitForSingleObject(pDevice->hIntrEventKeypad, timeout);

  000d8	e5950020	 ldr         r0, [r5, #0x20]
  000dc	e58d2000	 str         r2, [sp]
  000e0	eb000000	 bl          WaitForSingleObject

; 1137 :         if (pDevice->intrThreadExit) break;

  000e4	e5953028	 ldr         r3, [r5, #0x28]
  000e8	e3530000	 cmp         r3, #0
  000ec	1a000062	 bne         |$cleanUp$44152|

; 1138 : 
; 1139 :         // read MATRIX_SIZE amount of rows..
; 1140 :         if (TWLReadRegs(pDevice->hTWL, TWL_LOGADDR_FULL_CODE_7_0, NULL, 0))

  000f0	e5950034	 ldr         r0, [r5, #0x34]
  000f4	e3a03000	 mov         r3, #0
  000f8	e3a02000	 mov         r2, #0
  000fc	e24618fe	 sub         r1, r6, #0xFE, 16
  00100	eb000000	 bl          TWLReadRegs
  00104	e3500000	 cmp         r0, #0
  00108	0a000005	 beq         |$LN5@KPD_IntrTh|

; 1141 : 		{
; 1142 :             TWLReadRegs(pDevice->hTWL, TWL_LOGADDR_FULL_CODE_7_0, matrix, sizeof(matrix));

  0010c	e5950034	 ldr         r0, [r5, #0x34]
  00110	e3a03008	 mov         r3, #8
  00114	e28d204c	 add         r2, sp, #0x4C
  00118	e24618fe	 sub         r1, r6, #0xFE, 16
  0011c	eb000000	 bl          TWLReadRegs

; 1143 : 		}
; 1144 :         else

  00120	ea000003	 b           |$LN4@KPD_IntrTh|
  00124		 |$LN5@KPD_IntrTh|

; 1145 : 		{
; 1146 :             memset(matrix, 0, sizeof(matrix));

  00124	e3a02008	 mov         r2, #8
  00128	e3a01000	 mov         r1, #0
  0012c	e28d004c	 add         r0, sp, #0x4C
  00130	eb000000	 bl          memset
  00134		 |$LN4@KPD_IntrTh|
  00134	e59f5178	 ldr         r5, [pc, #0x178]

; 1147 : 		}
; 1148 :        
; 1149 :         // Convert physical state to virtual keys state
; 1150 :         PhysicalStateToVirtualState(matrix, vkNewState, &keyDown);

  00138	e3a00000	 mov         r0, #0
  0013c	e3a07000	 mov         r7, #0
  00140	e3a08000	 mov         r8, #0
  00144	e3a0a001	 mov         r10, #1
  00148		 |$LL25@KPD_IntrTh|
  00148	e7d7b004	 ldrb        r11, [r7, +r4]
  0014c	e35b0000	 cmp         r11, #0
  00150	02888008	 addeq       r8, r8, #8
  00154	0a00001a	 beq         |$LN24@KPD_IntrTh|
  00158	e3a06000	 mov         r6, #0
  0015c	e3a03001	 mov         r3, #1
  00160		 |$LL21@KPD_IntrTh|
  00160	e11b0613	 tst         r11, r3, lsl r6
  00164	0a000011	 beq         |$LN20@KPD_IntrTh|
  00168	e7d84005	 ldrb        r4, [r8, +r5]
  0016c	e59f013c	 ldr         r0, [pc, #0x13C]
  00170	e1a02006	 mov         r2, r6
  00174	e1a03004	 mov         r3, r4
  00178	e1a01007	 mov         r1, r7
  0017c	eb000000	 bl          NKDbgPrintfW
  00180	e59f0124	 ldr         r0, [pc, #0x124]
  00184	e1a02007	 mov         r2, r7
  00188	e1a01008	 mov         r1, r8
  0018c	eb000000	 bl          NKDbgPrintfW
  00190	e1a032a4	 mov         r3, r4, lsr #5
  00194	e28d100c	 add         r1, sp, #0xC
  00198	e7b12103	 ldr         r2, [r1, +r3, lsl #2]!
  0019c	e204301f	 and         r3, r4, #0x1F
  001a0	e3a00001	 mov         r0, #1
  001a4	e182331a	 orr         r3, r2, r10, lsl r3
  001a8	e5813000	 str         r3, [r1]
  001ac	e3a03001	 mov         r3, #1
  001b0		 |$LN20@KPD_IntrTh|
  001b0	e2866001	 add         r6, r6, #1
  001b4	e3560008	 cmp         r6, #8
  001b8	e2888001	 add         r8, r8, #1
  001bc	3affffe7	 bcc         |$LL21@KPD_IntrTh|
  001c0	e28d404c	 add         r4, sp, #0x4C
  001c4		 |$LN24@KPD_IntrTh|
  001c4	e2877001	 add         r7, r7, #1
  001c8	e3570008	 cmp         r7, #8
  001cc	3affffdd	 bcc         |$LL25@KPD_IntrTh|
  001d0	e3500000	 cmp         r0, #0
  001d4	13a03001	 movne       r3, #1
  001d8	e59d5008	 ldr         r5, [sp, #8]
  001dc	e59da004	 ldr         r10, [sp, #4]
  001e0	158d3000	 strne       r3, [sp]

; 1151 : 
; 1152 :         time = GetTickCount();

  001e4	eb000000	 bl          GetTickCount

; 1153 : 
; 1154 :         // Remap multi virtual keys to final virtual key
; 1155 :         VirtualKeyRemap(time, &keyDown, pRemapState, vkNewState);

  001e8	e28d300c	 add         r3, sp, #0xC
  001ec	e1a0200a	 mov         r2, r10
  001f0	e28d1000	 add         r1, sp, #0
  001f4	e1a04000	 mov         r4, r0
  001f8	eb000000	 bl          VirtualKeyRemap

; 1156 :         PressedReleasedKeys(pDevice, vkState, vkNewState);

  001fc	e28d200c	 add         r2, sp, #0xC
  00200	e28d102c	 add         r1, sp, #0x2C
  00204	e1a00005	 mov         r0, r5
  00208	eb000000	 bl          PressedReleasedKeys

; 1157 :         AutoRepeat(pDevice, vkNewState, time, pRepeatState);

  0020c	e1a03009	 mov         r3, r9
  00210	e1a02004	 mov         r2, r4
  00214	e28d100c	 add         r1, sp, #0xC
  00218	e1a00005	 mov         r0, r5
  0021c	eb000000	 bl          AutoRepeat

; 1158 : 
; 1159 :         if( pDevice->hKeypressEvent != NULL )

  00220	e595303c	 ldr         r3, [r5, #0x3C]
  00224	e3530000	 cmp         r3, #0

; 1160 :             {
; 1161 :             // Signal keypad light thread
; 1162 :             SetEvent(pDevice->hKeypressEvent);

  00228	13a01003	 movne       r1, #3
  0022c	11a00003	 movne       r0, r3
  00230	1b000000	 blne        EventModify

; 1163 :             }
; 1164 : 
; 1165 :         //--------------------------------------------------------------
; 1166 :         // Prepare for next run
; 1167 :         //--------------------------------------------------------------
; 1168 : 
; 1169 :         // New state become old
; 1170 :         memcpy(vkState, vkNewState, sizeof(vkState));

  00234	e28d002c	 add         r0, sp, #0x2C
  00238	e28d100c	 add         r1, sp, #0xC
  0023c	e3a02020	 mov         r2, #0x20
  00240	eb000000	 bl          memcpy

; 1171 :         // Get new state for virtual key table
; 1172 :         memset(vkNewState, 0, sizeof(vkNewState));

  00244	e3a02020	 mov         r2, #0x20
  00248	e3a01000	 mov         r1, #0
  0024c	e28d000c	 add         r0, sp, #0xC
  00250	eb000000	 bl          memset

; 1173 : 
; 1174 :         // Set timeout period depending on data state
; 1175 :         timeout = keyDown ? pDevice->samplePeriod : INFINITE;

  00254	e59d3000	 ldr         r3, [sp]
  00258	e28d404c	 add         r4, sp, #0x4C
  0025c	e3a060db	 mov         r6, #0xDB
  00260	e3530000	 cmp         r3, #0
  00264	e5953028	 ldr         r3, [r5, #0x28]
  00268	15951014	 ldrne       r1, [r5, #0x14]
  0026c	03e01000	 mvneq       r1, #0
  00270	e3530000	 cmp         r3, #0
  00274	e3a02000	 mov         r2, #0
  00278	0affff96	 beq         |$LL8@KPD_IntrTh|
  0027c		 |$cleanUp$44152|

; 1176 : 
; 1177 :         // Interrupt is done
; 1178 :         }
; 1179 : 
; 1180 : cleanUp:
; 1181 :     if ( pRemapState != NULL )

  0027c	e35a0000	 cmp         r10, #0

; 1182 :         {
; 1183 :         LocalFree(pRemapState);

  00280	11a0000a	 movne       r0, r10
  00284	1b000000	 blne        LocalFree

; 1184 :         }
; 1185 : 
; 1186 :     if ( pRepeatState != NULL )

  00288	e3590000	 cmp         r9, #0

; 1187 :         {
; 1188 :         LocalFree(pRepeatState);

  0028c	11a00009	 movne       r0, r9
  00290	1b000000	 blne        LocalFree
  00294		 |$LN1@KPD_IntrTh|

; 1189 :         }
; 1190 : 
; 1191 :     return ERROR_SUCCESS;

  00294	e59d0054	 ldr         r0, [sp, #0x54]
  00298	eb000000	 bl          __security_check_cookie
  0029c	e3a00000	 mov         r0, #0

; 1192 : }

  002a0	e28dd058	 add         sp, sp, #0x58
  002a4	e8bd4ff0	 ldmia       sp!, {r4 - r11, lr}
  002a8	e12fff1e	 bx          lr
  002ac		 |$LN41@KPD_IntrTh|
  002ac		 |$LN42@KPD_IntrTh|
  002ac	00000000	 DCD         |??_C@_1FG@PNJOOKJC@?$AAP?$AAh?$AAy?$AAs?$AAi?$AAc?$AAa?$AAl?$AAS?$AAt?$AAa?$AAt?$AAe?$AAT?$AAo?$AAV?$AAi?$AAr?$AAt?$AAu?$AAa?$AAl?$AAS?$AAt?$AAa?$AAt?$AAe?$AA?3?$AA?5?$AAi?$AAk?$AA?$DN@|
  002b0		 |$LN43@KPD_IntrTh|
  002b0	00000000	 DCD         |??_C@_1FM@PJGOFBDI@?$AAP?$AAh?$AAy?$AAs?$AAi?$AAc?$AAa?$AAl?$AAS?$AAt?$AAa?$AAt?$AAe?$AAT?$AAo?$AAV?$AAi?$AAr?$AAt?$AAu?$AAa?$AAl?$AAS?$AAt?$AAa?$AAt?$AAe?$AA?3?$AA?5?$AA?$FL?$AA?$CF?$AAd@|
  002b4		 |$LN44@KPD_IntrTh|
  002b4	00000000	 DCD         |g_keypadVK|
  002b8		 |$LN45@KPD_IntrTh|
  002b8	00000000	 DCD         |g_keypadRepeat|
  002bc		 |$LN46@KPD_IntrTh|
  002bc	00000000	 DCD         |g_keypadRemap|
  002c0		 |$LN47@KPD_IntrTh|
  002c0	00000000	 DCD         |__security_cookie|
  002c4		 |$M44770|

			 ENDP  ; |KPD_IntrThread|

	EXPORT	|KPD_Init|
	IMPORT	|CreateThread|
	IMPORT	|TWLWakeEnable|
	IMPORT	|TWLInterruptInitialize|
	IMPORT	|CreateEventW|
	IMPORT	|TWLWriteRegs|
	IMPORT	|TWLOpen|
	IMPORT	|GetDeviceRegistryParams|

  00000			 AREA	 |.pdata|, PDATA
|$T44793| DCD	|$LN18@KPD_Init|
	DCD	0x40007502
; Function compile flags: /Ogspy

  00000			 AREA	 |.text|, CODE, ARM

  00000		 |KPD_Init| PROC

; 326  : {

  00000		 |$LN18@KPD_Init|
  00000	e92d4070	 stmdb       sp!, {r4 - r6, lr}
  00004	e24dd00c	 sub         sp, sp, #0xC
  00008		 |$M44790|
  00008	e1a06000	 mov         r6, r0

; 327  :     DWORD rc = (DWORD)NULL;
; 328  :     KeypadDevice_t *pDevice = NULL;
; 329  :     UINT8 regval;
; 330  : 
; 331  :     UNREFERENCED_PARAMETER(pBusContext);
; 332  : 
; 333  :     DEBUGMSG(ZONE_FUNCTION, (
; 334  :         L"+KPD_Init(%s, 0x%08x)\r\n", szContext, pBusContext
; 335  :         ));
; 336  : 
; 337  :     // Create device structure
; 338  :     pDevice = (KeypadDevice_t *)LocalAlloc(LPTR, sizeof(KeypadDevice_t));

  0000c	e3a0104c	 mov         r1, #0x4C
  00010	e3a00040	 mov         r0, #0x40
  00014	e3a05000	 mov         r5, #0
  00018	eb000000	 bl          LocalAlloc
  0001c	e1b04000	 movs        r4, r0

; 339  :     if (pDevice == NULL)

  00020	0a000061	 beq         |$LN15@KPD_Init|

; 340  :         {
; 341  :         DEBUGMSG(ZONE_ERROR, (L"ERROR: KPD_Init: "
; 342  :             L"Failed allocate KDP driver structure\r\n"
; 343  :             ));
; 344  :         goto cleanUp;
; 345  :         }
; 346  : 
; 347  :     memset(pDevice, 0, sizeof(KeypadDevice_t));

  00024	e3a0204c	 mov         r2, #0x4C
  00028	e3a01000	 mov         r1, #0
  0002c	e1a00004	 mov         r0, r4
  00030	eb000000	 bl          memset

; 348  : 
; 349  :     // Set cookie & initialize critical section
; 350  :     pDevice->cookie = KPD_DEVICE_COOKIE;

  00034	e59f1194	 ldr         r1, [pc, #0x194]

; 351  :     
; 352  :     // Read device parameters
; 353  :     if (GetDeviceRegistryParams(
; 354  :             szContext, pDevice, dimof(s_deviceRegParams), s_deviceRegParams)
; 355  :             != ERROR_SUCCESS)

  00038	e59f318c	 ldr         r3, [pc, #0x18C]
  0003c	e3a0200b	 mov         r2, #0xB
  00040	e5841000	 str         r1, [r4]
  00044	e1a01004	 mov         r1, r4
  00048	e1a00006	 mov         r0, r6
  0004c	eb000000	 bl          GetDeviceRegistryParams
  00050	e3500000	 cmp         r0, #0
  00054	1a000054	 bne         |$LN15@KPD_Init|

; 356  :         {
; 357  :         DEBUGMSG(ZONE_ERROR, (L"ERROR: KPD_Init: "
; 358  :             L"Failed read KPD driver registry parameters\r\n"
; 359  :             ));
; 360  :         goto cleanUp;
; 361  :         }
; 362  : 
; 363  :     // Open parent bus
; 364  :     pDevice->hTWL = TWLOpen();

  00058	eb000000	 bl          TWLOpen
  0005c	e3500000	 cmp         r0, #0
  00060	e5840034	 str         r0, [r4, #0x34]

; 365  :     if (pDevice->hTWL == NULL)

  00064	0a000050	 beq         |$LN15@KPD_Init|

; 366  :         {
; 367  :         DEBUGMSG(ZONE_ERROR, (L"ERROR: KPD_Init: "
; 368  :             L"Failed open TWL bus driver\r\n"
; 369  :             ));
; 370  :         goto cleanUp;
; 371  :         }
; 372  : 
; 373  :     // Set debounce delay and enable hardware mode
; 374  :     regval = TWL_KBD_CTRL_KBD_ON | TWL_KBD_CTRL_NRESET | TWL_KBD_CTRL_NSOFT_MODE;

  00068	e3a03043	 mov         r3, #0x43
  0006c	e5cd3008	 strb        r3, [sp, #8]

; 375  :     TWLWriteRegs(pDevice->hTWL, TWL_KEYP_CTRL_REG, &regval, sizeof(regval));

  00070	e5940034	 ldr         r0, [r4, #0x34]
  00074	e3a06802	 mov         r6, #2, 16
  00078	e3a03001	 mov         r3, #1
  0007c	e28d2008	 add         r2, sp, #8
  00080	e38610d2	 orr         r1, r6, #0xD2
  00084	eb000000	 bl          TWLWriteRegs

; 376  :     regval = 0x07 << 5;

  00088	e3a030e0	 mov         r3, #0xE0
  0008c	e5cd3008	 strb        r3, [sp, #8]

; 377  :     TWLWriteRegs(pDevice->hTWL, TWL_LK_PTV_REG, &regval, sizeof(regval));

  00090	e5940034	 ldr         r0, [r4, #0x34]
  00094	e3a03001	 mov         r3, #1
  00098	e28d2008	 add         r2, sp, #8
  0009c	e38610d5	 orr         r1, r6, #0xD5
  000a0	eb000000	 bl          TWLWriteRegs

; 378  :     regval = (UINT8)pDevice->debounceCount & 0x3F;

  000a4	e5941010	 ldr         r1, [r4, #0x10]

; 379  :     TWLWriteRegs(pDevice->hTWL, TWL_KEY_DEB_REG, &regval, sizeof(regval));

  000a8	e3a03001	 mov         r3, #1
  000ac	e28d2008	 add         r2, sp, #8
  000b0	e201103f	 and         r1, r1, #0x3F
  000b4	e5cd1008	 strb        r1, [sp, #8]
  000b8	e5940034	 ldr         r0, [r4, #0x34]
  000bc	e38610d3	 orr         r1, r6, #0xD3
  000c0	eb000000	 bl          TWLWriteRegs

; 380  :   
; 381  :     // Create interrupt event
; 382  :     pDevice->hIntrEventKeypad = CreateEvent(NULL, FALSE, FALSE, NULL);

  000c4	e3a03000	 mov         r3, #0
  000c8	e3a02000	 mov         r2, #0
  000cc	e3a01000	 mov         r1, #0
  000d0	e3a00000	 mov         r0, #0
  000d4	eb000000	 bl          CreateEventW
  000d8	e1b02000	 movs        r2, r0
  000dc	e5842020	 str         r2, [r4, #0x20]

; 383  :     if (pDevice->hIntrEventKeypad == NULL)

  000e0	0a000031	 beq         |$LN15@KPD_Init|

; 384  :         {
; 385  :         DEBUGMSG(ZONE_ERROR, (L"ERROR: KPD_Init: "
; 386  :             L"Failed create keypad interrupt event\r\n"
; 387  :             ));
; 388  :         goto cleanUp;
; 389  :         }
; 390  : 
; 391  :     // Associate event with TWL KP interrupt
; 392  :     if (!TWLInterruptInitialize(pDevice->hTWL, TWL_INTR_ITKPI, pDevice->hIntrEventKeypad))

  000e4	e5940034	 ldr         r0, [r4, #0x34]
  000e8	e3a06a01	 mov         r6, #1, 20
  000ec	e386102a	 orr         r1, r6, #0x2A
  000f0	eb000000	 bl          TWLInterruptInitialize
  000f4	e3500000	 cmp         r0, #0
  000f8	0a00002b	 beq         |$LN15@KPD_Init|

; 393  :         {
; 394  :         DEBUGMSG (ZONE_ERROR, (L"ERROR: KPD_Init: "
; 395  :             L"Failed associate event with TWL KBD interrupt\r\n"
; 396  :             ));
; 397  :         goto cleanUp;
; 398  :         }
; 399  : 
; 400  :     // Enable KP event
; 401  :     if (!TWLInterruptMask(pDevice->hTWL, TWL_INTR_ITKPI, FALSE))

  000fc	e5940034	 ldr         r0, [r4, #0x34]
  00100	e3a02000	 mov         r2, #0
  00104	e386102a	 orr         r1, r6, #0x2A
  00108	eb000000	 bl          TWLInterruptMask

; 402  :         {
; 403  :         DEBUGMSG (ZONE_ERROR, (L"ERROR: KPD_Init: "
; 404  :             L"Failed associate event with TWL KBD interrupt\r\n"
; 405  :             ));
; 406  :         }
; 407  :         
; 408  :     // register to be wake-up enabled
; 409  :     if (pDevice->enableWake != 0)

  0010c	e5943008	 ldr         r3, [r4, #8]
  00110	e3530000	 cmp         r3, #0

; 410  :         {
; 411  :         TWLWakeEnable(pDevice->hTWL, TWL_INTR_ITKPI, TRUE);

  00114	15940034	 ldrne       r0, [r4, #0x34]
  00118	13a02001	 movne       r2, #1
  0011c	1386102a	 orrne       r1, r6, #0x2A
  00120	1b000000	 blne        TWLWakeEnable

; 412  :         }
; 413  : 
; 414  :     // Start keypad interrupt service thread
; 415  :     pDevice->hIntrThreadKeypad = CreateThread(
; 416  :         NULL, 0, KPD_IntrThread, pDevice, 0,NULL
; 417  :         );

  00124	e59f209c	 ldr         r2, [pc, #0x9C]
  00128	e3a06000	 mov         r6, #0
  0012c	e1a03004	 mov         r3, r4
  00130	e3a01000	 mov         r1, #0
  00134	e3a00000	 mov         r0, #0
  00138	e58d6004	 str         r6, [sp, #4]
  0013c	e58d6000	 str         r6, [sp]
  00140	eb000000	 bl          CreateThread
  00144	e3500000	 cmp         r0, #0
  00148	e5840024	 str         r0, [r4, #0x24]

; 418  :     if (!pDevice->hIntrThreadKeypad)

  0014c	0a000016	 beq         |$LN15@KPD_Init|

; 419  :         {
; 420  :         DEBUGMSG (ZONE_ERROR, (L"ERROR: KPD_Init: "
; 421  :             L"Failed create keypad interrupt thread\r\n"
; 422  :             ));
; 423  :         goto cleanUp;
; 424  :         }
; 425  : 
; 426  :     if( pDevice->KpLedNum != -1)

  00150	e5943044	 ldr         r3, [r4, #0x44]
  00154	e3730001	 cmn         r3, #1
  00158	0a000011	 beq         |$LN2@KPD_Init|

; 427  :         {
; 428  :         // Create keypress notification event
; 429  :         pDevice->hKeypressEvent = CreateEvent(NULL, FALSE, FALSE, NULL);

  0015c	e3a03000	 mov         r3, #0
  00160	e3a02000	 mov         r2, #0
  00164	e3a01000	 mov         r1, #0
  00168	e3a00000	 mov         r0, #0
  0016c	eb000000	 bl          CreateEventW
  00170	e3500000	 cmp         r0, #0
  00174	e584003c	 str         r0, [r4, #0x3C]

; 430  :         if ( pDevice->hKeypressEvent == NULL )

  00178	0a00000b	 beq         |$LN15@KPD_Init|

; 431  :             {
; 432  :             DEBUGMSG (ZONE_ERROR, (L"ERROR: KPD_Init: "
; 433  :                 L"Failed to create keypress event\r\n"
; 434  :                 ));
; 435  :             goto cleanUp;
; 436  :             }
; 437  :     
; 438  :         // Start interrupt service thread
; 439  :         pDevice->hLightThread = CreateThread(
; 440  :             NULL, 0, KPD_LightThread, pDevice, 0,NULL
; 441  :             );

  0017c	e59f2040	 ldr         r2, [pc, #0x40]
  00180	e1a03004	 mov         r3, r4
  00184	e3a01000	 mov         r1, #0
  00188	e3a00000	 mov         r0, #0
  0018c	e58d6004	 str         r6, [sp, #4]
  00190	e58d6000	 str         r6, [sp]
  00194	eb000000	 bl          CreateThread
  00198	e3500000	 cmp         r0, #0
  0019c	e5840038	 str         r0, [r4, #0x38]

; 442  :         if (!pDevice->hLightThread)

  001a0	0a000001	 beq         |$LN15@KPD_Init|
  001a4		 |$LN2@KPD_Init|

; 443  :         {
; 444  :             DEBUGMSG (ZONE_ERROR, (L"ERROR: KPD_Init: "
; 445  :                 L"Failed to create keypad light thread\r\n"
; 446  :                 ));
; 447  :             goto cleanUp;
; 448  :             }
; 449  :         }
; 450  : 
; 451  :     // Return non-null value
; 452  :     rc = (DWORD)pDevice;

  001a4	e1a05004	 mov         r5, r4
  001a8		 |$cleanUp$43832|

; 453  : 
; 454  : cleanUp:
; 455  :     if (rc == 0)

  001a8	ea000001	 b           |$LN1@KPD_Init|
  001ac		 |$LN15@KPD_Init|

; 456  :         {
; 457  :         KPD_Deinit((DWORD)pDevice);

  001ac	e1a00004	 mov         r0, r4
  001b0	eb000000	 bl          KPD_Deinit
  001b4		 |$LN1@KPD_Init|

; 458  :         }
; 459  :     DEBUGMSG(ZONE_FUNCTION, (L"-KPD_Init(rc = %d\r\n", rc));
; 460  :     return rc;
; 461  : }

  001b4	e1a00005	 mov         r0, r5
  001b8	e28dd00c	 add         sp, sp, #0xC
  001bc	e8bd4070	 ldmia       sp!, {r4 - r6, lr}
  001c0	e12fff1e	 bx          lr
  001c4		 |$LN19@KPD_Init|
  001c4		 |$LN20@KPD_Init|
  001c4	00000000	 DCD         |KPD_LightThread|
  001c8		 |$LN21@KPD_Init|
  001c8	00000000	 DCD         |KPD_IntrThread|
  001cc		 |$LN22@KPD_Init|
  001cc	00000000	 DCD         |s_deviceRegParams|
  001d0		 |$LN23@KPD_Init|
  001d0	6b706444	 DCD         0x6b706444
  001d4		 |$M44791|

			 ENDP  ; |KPD_Init|

	END
