; Listing generated by Microsoft (R) Optimizing Compiler Version 14.01.60511.01 

	TTL	C:\WINCE600\PLATFORM\COMMON\SRC\COMMON\INTR\BASE\map.c
	CODE32

  00000			 AREA	 |.drectve|, DRECTVE
	DCB	"-defaultlib:LIBCMT "
	DCB	"-defaultlib:OLDNAMES "

	EXPORT	|OALIntrMapInit|
	EXPORT	|??_C@_1CE@HFBIALPK@?$AA?9?$AAO?$AAA?$AAL?$AAI?$AAn?$AAt?$AAr?$AAM?$AAa?$AAp?$AAI?$AAn?$AAi?$AAt?$AA?$AN?$AA?6?$AA?$AA@| [ DATA ] ; `string'
	EXPORT	|??_C@_1CE@LMNIPMAG@?$AA?$CL?$AAO?$AAA?$AAL?$AAI?$AAn?$AAt?$AAr?$AAM?$AAa?$AAp?$AAI?$AAn?$AAi?$AAt?$AA?$AN?$AA?6?$AA?$AA@| [ DATA ] ; `string'
	IMPORT	|NKDbgPrintfW|
	IMPORT	|dpCurSettings|

  00000			 AREA	 |.bss|, NOINIT
|g_oalSysIntr2Irq| % 0x120
|g_oalIrq2SysIntr| % 0x100
|g_oalSysIntr2Irq| % 0x120
; File c:\wince600\platform\common\src\common\intr\base\map.c

  00000			 AREA	 |.pdata|, PDATA
|$T39364| DCD	|$LN23@OALIntrMap|
	DCD	0x40002001

  00000			 AREA	 |.rdata|, DATA, READONLY
|??_C@_1CE@HFBIALPK@?$AA?9?$AAO?$AAA?$AAL?$AAI?$AAn?$AAt?$AAr?$AAM?$AAa?$AAp?$AAI?$AAn?$AAi?$AAt?$AA?$AN?$AA?6?$AA?$AA@| DCB "-"
	DCB	0x0, "O", 0x0, "A", 0x0, "L", 0x0, "I", 0x0, "n", 0x0, "t"
	DCB	0x0, "r", 0x0, "M", 0x0, "a", 0x0, "p", 0x0, "I", 0x0, "n"
	DCB	0x0, "i", 0x0, "t", 0x0, 0xd, 0x0, 0xa, 0x0, 0x0, 0x0 ; `string'

  00000			 AREA	 |.rdata|, DATA, READONLY
|??_C@_1CE@LMNIPMAG@?$AA?$CL?$AAO?$AAA?$AAL?$AAI?$AAn?$AAt?$AAr?$AAM?$AAa?$AAp?$AAI?$AAn?$AAi?$AAt?$AA?$AN?$AA?6?$AA?$AA@| DCB "+"
	DCB	0x0, "O", 0x0, "A", 0x0, "L", 0x0, "I", 0x0, "n", 0x0, "t"
	DCB	0x0, "r", 0x0, "M", 0x0, "a", 0x0, "p", 0x0, "I", 0x0, "n"
	DCB	0x0, "i", 0x0, "t", 0x0, 0xd, 0x0, 0xa, 0x0, 0x0, 0x0 ; `string'
; Function compile flags: /Ogspy

  00000			 AREA	 |.text|, CODE, ARM

  00000		 |OALIntrMapInit| PROC

; 40   : {

  00000		 |$LN23@OALIntrMap|
  00000	e92d4010	 stmdb       sp!, {r4, lr}
  00004		 |$M39361|

; 41   :     UINT32 i;
; 42   : 
; 43   :     OALMSG(OAL_FUNC&&OAL_INTR, (L"+OALIntrMapInit\r\n"));

  00004	e59f4070	 ldr         r4, [pc, #0x70]
  00008	e5943440	 ldr         r3, [r4, #0x440]
  0000c	e3130004	 tst         r3, #4
  00010	0a000004	 beq         |$LN9@OALIntrMap|
  00014	e3130901	 tst         r3, #1, 18
  00018	0a000002	 beq         |$LN9@OALIntrMap|
  0001c	e59f0054	 ldr         r0, [pc, #0x54]
  00020	eb000000	 bl          NKDbgPrintfW
  00024	e5943440	 ldr         r3, [r4, #0x440]
  00028		 |$LN9@OALIntrMap|

; 44   : 
; 45   :     // Initialize interrupt maps
; 46   :     for (i = 0; i < SYSINTR_MAXIMUM; i++)
; 47   :         {
; 48   :         g_oalSysIntr2Irq[i] = OAL_INTR_IRQ_UNDEFINED;

  00028	e59f1044	 ldr         r1, [pc, #0x44]
  0002c	e3e0e000	 mvn         lr, #0
  00030	e1a02001	 mov         r2, r1
  00034	e2810e12	 add         r0, r1, #0x12, 28
  00038		 |$LN17@OALIntrMap|
  00038	e482e004	 str         lr, [r2], #4
  0003c	e1520000	 cmp         r2, r0
  00040	1afffffc	 bne         |$LN17@OALIntrMap|

; 49   :         }
; 50   :     for (i = 0; i < OAL_INTR_IRQ_MAXIMUM; i++)
; 51   :         {
; 52   :         g_oalIrq2SysIntr[i] = SYSINTR_UNDEFINED;

  00044	e2812e12	 add         r2, r1, #0x12, 28
  00048	e2821c01	 add         r1, r2, #1, 24
  0004c		 |$LN19@OALIntrMap|
  0004c	e482e004	 str         lr, [r2], #4
  00050	e1520001	 cmp         r2, r1
  00054	1afffffc	 bne         |$LN19@OALIntrMap|

; 53   :         }
; 54   : 
; 55   :     OALMSG(OAL_FUNC&&OAL_INTR, (L"-OALIntrMapInit\r\n"));

  00058	e3130004	 tst         r3, #4
  0005c	13130901	 tstne       r3, #1, 18
  00060	159f0008	 ldrne       r0, [pc, #8]
  00064	1b000000	 blne        NKDbgPrintfW

; 56   : }

  00068	e8bd4010	 ldmia       sp!, {r4, lr}
  0006c	e12fff1e	 bx          lr
  00070		 |$LN24@OALIntrMap|
  00070		 |$LN25@OALIntrMap|
  00070	00000000	 DCD         |??_C@_1CE@HFBIALPK@?$AA?9?$AAO?$AAA?$AAL?$AAI?$AAn?$AAt?$AAr?$AAM?$AAa?$AAp?$AAI?$AAn?$AAi?$AAt?$AA?$AN?$AA?6?$AA?$AA@|
  00074		 |$LN26@OALIntrMap|
  00074	00000000	 DCD         |g_oalSysIntr2Irq|
  00078		 |$LN27@OALIntrMap|
  00078	00000000	 DCD         |??_C@_1CE@LMNIPMAG@?$AA?$CL?$AAO?$AAA?$AAL?$AAI?$AAn?$AAt?$AAr?$AAM?$AAa?$AAp?$AAI?$AAn?$AAi?$AAt?$AA?$AN?$AA?6?$AA?$AA@|
  0007c		 |$LN28@OALIntrMap|
  0007c	00000000	 DCD         |dpCurSettings|
  00080		 |$M39362|

			 ENDP  ; |OALIntrMapInit|

	EXPORT	|OALIntrStaticTranslate|
	EXPORT	|??_C@_1DE@CBLJKBBB@?$AA?9?$AAO?$AAA?$AAL?$AAI?$AAn?$AAt?$AAr?$AAS?$AAt?$AAa?$AAt?$AAi?$AAc?$AAT?$AAr?$AAa?$AAn?$AAs?$AAl?$AAa?$AAt?$AAe?$AA?$AN?$AA?6?$AA?$AA@| [ DATA ] ; `string'
	EXPORT	|??_C@_1EE@DPKCCBO@?$AA?$CL?$AAO?$AAA?$AAL?$AAI?$AAn?$AAt?$AAr?$AAS?$AAt?$AAa?$AAt?$AAi?$AAc?$AAT?$AAr?$AAa?$AAn?$AAs?$AAl?$AAa?$AAt?$AAe?$AA?$CI?$AA?$CF?$AAd?$AA?0?$AA?5?$AA?$CF?$AAd?$AA?$CJ?$AA?$AN@| [ DATA ] ; `string'

  00000			 AREA	 |.pdata|, PDATA
|$T39382| DCD	|$LN10@OALIntrSta|
	DCD	0x40001e01

  00000			 AREA	 |.rdata|, DATA, READONLY
|??_C@_1DE@CBLJKBBB@?$AA?9?$AAO?$AAA?$AAL?$AAI?$AAn?$AAt?$AAr?$AAS?$AAt?$AAa?$AAt?$AAi?$AAc?$AAT?$AAr?$AAa?$AAn?$AAs?$AAl?$AAa?$AAt?$AAe?$AA?$AN?$AA?6?$AA?$AA@| DCB "-"
	DCB	0x0, "O", 0x0, "A", 0x0, "L", 0x0, "I", 0x0, "n", 0x0, "t"
	DCB	0x0, "r", 0x0, "S", 0x0, "t", 0x0, "a", 0x0, "t", 0x0, "i"
	DCB	0x0, "c", 0x0, "T", 0x0, "r", 0x0, "a", 0x0, "n", 0x0, "s"
	DCB	0x0, "l", 0x0, "a", 0x0, "t", 0x0, "e", 0x0, 0xd, 0x0, 0xa
	DCB	0x0, 0x0, 0x0				; `string'

  00000			 AREA	 |.rdata|, DATA, READONLY
|??_C@_1EE@DPKCCBO@?$AA?$CL?$AAO?$AAA?$AAL?$AAI?$AAn?$AAt?$AAr?$AAS?$AAt?$AAa?$AAt?$AAi?$AAc?$AAT?$AAr?$AAa?$AAn?$AAs?$AAl?$AAa?$AAt?$AAe?$AA?$CI?$AA?$CF?$AAd?$AA?0?$AA?5?$AA?$CF?$AAd?$AA?$CJ?$AA?$AN@| DCB "+"
	DCB	0x0, "O", 0x0, "A", 0x0, "L", 0x0, "I", 0x0, "n", 0x0, "t"
	DCB	0x0, "r", 0x0, "S", 0x0, "t", 0x0, "a", 0x0, "t", 0x0, "i"
	DCB	0x0, "c", 0x0, "T", 0x0, "r", 0x0, "a", 0x0, "n", 0x0, "s"
	DCB	0x0, "l", 0x0, "a", 0x0, "t", 0x0, "e", 0x0, "(", 0x0, "%"
	DCB	0x0, "d", 0x0, ",", 0x0, " ", 0x0, "%", 0x0, "d", 0x0, ")"
	DCB	0x0, 0xd, 0x0, 0xa, 0x0, 0x0, 0x0	; `string'
; Function compile flags: /Ogspy

  00000			 AREA	 |.text|, CODE, ARM

  00000		 |OALIntrStaticTranslate| PROC

; 71   : {

  00000		 |$LN10@OALIntrSta|
  00000	e92d4070	 stmdb       sp!, {r4 - r6, lr}
  00004		 |$M39379|
  00004	e1a04001	 mov         r4, r1
  00008	e1a05000	 mov         r5, r0

; 72   :     OALMSG(OAL_FUNC&&OAL_INTR, (
; 73   :         L"+OALIntrStaticTranslate(%d, %d)\r\n", sysIntr, irq
; 74   :         ));

  0000c	e59f6060	 ldr         r6, [pc, #0x60]
  00010	e596e440	 ldr         lr, [r6, #0x440]
  00014	e31e0004	 tst         lr, #4
  00018	0a000006	 beq         |$LN4@OALIntrSta|
  0001c	e31e0901	 tst         lr, #1, 18
  00020	0a000004	 beq         |$LN4@OALIntrSta|
  00024	e59f0044	 ldr         r0, [pc, #0x44]
  00028	e1a02004	 mov         r2, r4
  0002c	e1a01005	 mov         r1, r5
  00030	eb000000	 bl          NKDbgPrintfW
  00034	e596e440	 ldr         lr, [r6, #0x440]
  00038		 |$LN4@OALIntrSta|

; 75   :     
; 76   :     if ((irq < OAL_INTR_IRQ_MAXIMUM) && (sysIntr < SYSINTR_MAXIMUM))

  00038	e3540040	 cmp         r4, #0x40
  0003c	33550048	 cmpcc       r5, #0x48

; 77   :         {
; 78   :         g_oalSysIntr2Irq[sysIntr] = irq;

  00040	359f2024	 ldrcc       r2, [pc, #0x24]

; 79   :         g_oalIrq2SysIntr[irq] = sysIntr;

  00044	32823e12	 addcc       r3, r2, #0x12, 28
  00048	37835104	 strcc       r5, [r3, +r4, lsl #2]
  0004c	37824105	 strcc       r4, [r2, +r5, lsl #2]

; 80   :         }
; 81   :     OALMSG(OAL_FUNC&&OAL_INTR, (L"-OALIntrStaticTranslate\r\n"));

  00050	e31e0004	 tst         lr, #4
  00054	131e0901	 tstne       lr, #1, 18
  00058	159f0008	 ldrne       r0, [pc, #8]
  0005c	1b000000	 blne        NKDbgPrintfW

; 82   : }

  00060	e8bd4070	 ldmia       sp!, {r4 - r6, lr}
  00064	e12fff1e	 bx          lr
  00068		 |$LN11@OALIntrSta|
  00068		 |$LN12@OALIntrSta|
  00068	00000000	 DCD         |??_C@_1DE@CBLJKBBB@?$AA?9?$AAO?$AAA?$AAL?$AAI?$AAn?$AAt?$AAr?$AAS?$AAt?$AAa?$AAt?$AAi?$AAc?$AAT?$AAr?$AAa?$AAn?$AAs?$AAl?$AAa?$AAt?$AAe?$AA?$AN?$AA?6?$AA?$AA@|
  0006c		 |$LN13@OALIntrSta|
  0006c	00000000	 DCD         |g_oalSysIntr2Irq|
  00070		 |$LN14@OALIntrSta|
  00070	00000000	 DCD         |??_C@_1EE@DPKCCBO@?$AA?$CL?$AAO?$AAA?$AAL?$AAI?$AAn?$AAt?$AAr?$AAS?$AAt?$AAa?$AAt?$AAi?$AAc?$AAT?$AAr?$AAa?$AAn?$AAs?$AAl?$AAa?$AAt?$AAe?$AA?$CI?$AA?$CF?$AAd?$AA?0?$AA?5?$AA?$CF?$AAd?$AA?$CJ?$AA?$AN@|
  00074		 |$LN15@OALIntrSta|
  00074	00000000	 DCD         |dpCurSettings|
  00078		 |$M39380|

			 ENDP  ; |OALIntrStaticTranslate|

	EXPORT	|OALIntrTranslateSysIntr|
	EXPORT	|??_C@_1EA@JDMBMDEN@?$AA?9?$AAO?$AAA?$AAL?$AAT?$AAr?$AAa?$AAn?$AAs?$AAl?$AAa?$AAt?$AAe?$AAS?$AAy?$AAs?$AAI?$AAn?$AAt?$AAr?$AA?$CI?$AAr?$AAc?$AA?5?$AA?$DN?$AA?5?$AA?$CF?$AAd?$AA?$CJ?$AA?$AN?$AA?6?$AA?$AA@| [ DATA ] ; `string'
	EXPORT	|??_C@_1DG@HAMHNOBJ@?$AA?$CL?$AAO?$AAA?$AAL?$AAT?$AAr?$AAa?$AAn?$AAs?$AAl?$AAa?$AAt?$AAe?$AAS?$AAy?$AAs?$AAI?$AAn?$AAt?$AAr?$AA?$CI?$AA?$CF?$AAd?$AA?$CJ?$AA?$AN?$AA?6?$AA?$AA@| [ DATA ] ; `string'

  00000			 AREA	 |.pdata|, PDATA
|$T39404| DCD	|$LN10@OALIntrTra|
	DCD	0x40002301

  00000			 AREA	 |.rdata|, DATA, READONLY
|??_C@_1EA@JDMBMDEN@?$AA?9?$AAO?$AAA?$AAL?$AAT?$AAr?$AAa?$AAn?$AAs?$AAl?$AAa?$AAt?$AAe?$AAS?$AAy?$AAs?$AAI?$AAn?$AAt?$AAr?$AA?$CI?$AAr?$AAc?$AA?5?$AA?$DN?$AA?5?$AA?$CF?$AAd?$AA?$CJ?$AA?$AN?$AA?6?$AA?$AA@| DCB "-"
	DCB	0x0, "O", 0x0, "A", 0x0, "L", 0x0, "T", 0x0, "r", 0x0, "a"
	DCB	0x0, "n", 0x0, "s", 0x0, "l", 0x0, "a", 0x0, "t", 0x0, "e"
	DCB	0x0, "S", 0x0, "y", 0x0, "s", 0x0, "I", 0x0, "n", 0x0, "t"
	DCB	0x0, "r", 0x0, "(", 0x0, "r", 0x0, "c", 0x0, " ", 0x0, "="
	DCB	0x0, " ", 0x0, "%", 0x0, "d", 0x0, ")", 0x0, 0xd, 0x0, 0xa
	DCB	0x0, 0x0, 0x0				; `string'

  00000			 AREA	 |.rdata|, DATA, READONLY
|??_C@_1DG@HAMHNOBJ@?$AA?$CL?$AAO?$AAA?$AAL?$AAT?$AAr?$AAa?$AAn?$AAs?$AAl?$AAa?$AAt?$AAe?$AAS?$AAy?$AAs?$AAI?$AAn?$AAt?$AAr?$AA?$CI?$AA?$CF?$AAd?$AA?$CJ?$AA?$AN?$AA?6?$AA?$AA@| DCB "+"
	DCB	0x0, "O", 0x0, "A", 0x0, "L", 0x0, "T", 0x0, "r", 0x0, "a"
	DCB	0x0, "n", 0x0, "s", 0x0, "l", 0x0, "a", 0x0, "t", 0x0, "e"
	DCB	0x0, "S", 0x0, "y", 0x0, "s", 0x0, "I", 0x0, "n", 0x0, "t"
	DCB	0x0, "r", 0x0, "(", 0x0, "%", 0x0, "d", 0x0, ")", 0x0, 0xd
	DCB	0x0, 0xa, 0x0, 0x0, 0x0			; `string'
; Function compile flags: /Ogspy

  00000			 AREA	 |.text|, CODE, ARM

  00000		 |OALIntrTranslateSysIntr| PROC

; 93   : ) {

  00000		 |$LN10@OALIntrTra|
  00000	e92d40f0	 stmdb       sp!, {r4 - r7, lr}
  00004		 |$M39401|
  00004	e1a06002	 mov         r6, r2
  00008	e1a07001	 mov         r7, r1
  0000c	e1a04000	 mov         r4, r0

; 94   :     BOOL rc;
; 95   : 
; 96   :     OALMSG(OAL_INTR&&OAL_VERBOSE, (L"+OALTranslateSysIntr(%d)\r\n", sysIntr));

  00010	e59f5070	 ldr         r5, [pc, #0x70]
  00014	e5953440	 ldr         r3, [r5, #0x440]
  00018	e3130901	 tst         r3, #1, 18
  0001c	0a000005	 beq         |$LN4@OALIntrTra|
  00020	e3130902	 tst         r3, #2, 18
  00024	0a000003	 beq         |$LN4@OALIntrTra|
  00028	e59f0054	 ldr         r0, [pc, #0x54]
  0002c	e1a01004	 mov         r1, r4
  00030	eb000000	 bl          NKDbgPrintfW
  00034	e5953440	 ldr         r3, [r5, #0x440]
  00038		 |$LN4@OALIntrTra|

; 97   : 
; 98   :     // Valid SYSINTR?
; 99   :     if (sysIntr >= SYSINTR_MAXIMUM)

  00038	e3540048	 cmp         r4, #0x48

; 100  :         {
; 101  :         rc = FALSE;
; 102  :         goto cleanUp;
; 103  :         }
; 104  :     *pCount = 1;
; 105  :     *ppIrqs = &g_oalSysIntr2Irq[sysIntr];

  0003c	359f303c	 ldrcc       r3, [pc, #0x3C]
  00040	23a04000	 movcs       r4, #0
  00044	33a02001	 movcc       r2, #1
  00048	30833104	 addcc       r3, r3, r4, lsl #2
  0004c	35872000	 strcc       r2, [r7]
  00050	35863000	 strcc       r3, [r6]

; 106  :     rc = TRUE;

  00054	35953440	 ldrcc       r3, [r5, #0x440]
  00058	33a04001	 movcc       r4, #1
  0005c		 |$cleanUp$39188|

; 107  : 
; 108  : cleanUp:
; 109  :     OALMSG(OAL_INTR&&OAL_VERBOSE, (L"-OALTranslateSysIntr(rc = %d)\r\n", rc));

  0005c	e3130901	 tst         r3, #1, 18
  00060	13130902	 tstne       r3, #2, 18
  00064	159f0010	 ldrne       r0, [pc, #0x10]
  00068	11a01004	 movne       r1, r4
  0006c	1b000000	 blne        NKDbgPrintfW

; 110  :     return rc;
; 111  : }

  00070	e1a00004	 mov         r0, r4
  00074	e8bd40f0	 ldmia       sp!, {r4 - r7, lr}
  00078	e12fff1e	 bx          lr
  0007c		 |$LN11@OALIntrTra|
  0007c		 |$LN12@OALIntrTra|
  0007c	00000000	 DCD         |??_C@_1EA@JDMBMDEN@?$AA?9?$AAO?$AAA?$AAL?$AAT?$AAr?$AAa?$AAn?$AAs?$AAl?$AAa?$AAt?$AAe?$AAS?$AAy?$AAs?$AAI?$AAn?$AAt?$AAr?$AA?$CI?$AAr?$AAc?$AA?5?$AA?$DN?$AA?5?$AA?$CF?$AAd?$AA?$CJ?$AA?$AN?$AA?6?$AA?$AA@|
  00080		 |$LN13@OALIntrTra|
  00080	00000000	 DCD         |g_oalSysIntr2Irq|
  00084		 |$LN14@OALIntrTra|
  00084	00000000	 DCD         |??_C@_1DG@HAMHNOBJ@?$AA?$CL?$AAO?$AAA?$AAL?$AAT?$AAr?$AAa?$AAn?$AAs?$AAl?$AAa?$AAt?$AAe?$AAS?$AAy?$AAs?$AAI?$AAn?$AAt?$AAr?$AA?$CI?$AA?$CF?$AAd?$AA?$CJ?$AA?$AN?$AA?6?$AA?$AA@|
  00088		 |$LN15@OALIntrTra|
  00088	00000000	 DCD         |dpCurSettings|
  0008c		 |$M39402|

			 ENDP  ; |OALIntrTranslateSysIntr|

	EXPORT	|OALIntrTranslateIrq|
	EXPORT	|??_C@_1EK@JOJPHPGP@?$AA?9?$AAO?$AAA?$AAL?$AAI?$AAn?$AAt?$AAr?$AAT?$AAr?$AAa?$AAn?$AAs?$AAl?$AAa?$AAt?$AAe?$AAI?$AAr?$AAq?$AA?$CI?$AAs?$AAy?$AAs?$AAI?$AAn?$AAt?$AAr?$AA?5?$AA?$DN?$AA?5?$AA?$CF@| [ DATA ] ; `string'
	EXPORT	|??_C@_1DG@IAFKCJEB@?$AA?$CL?$AAO?$AAA?$AAL?$AAI?$AAn?$AAt?$AAr?$AAT?$AAr?$AAa?$AAn?$AAs?$AAl?$AAa?$AAt?$AAe?$AAI?$AAr?$AAq?$AA?$CI?$AA?$CF?$AAd?$AA?$CJ?$AA?$AN?$AA?6?$AA?$AA@| [ DATA ] ; `string'

  00000			 AREA	 |.pdata|, PDATA
|$T39424| DCD	|$LN10@OALIntrTra@2|
	DCD	0x40001c01

  00000			 AREA	 |.rdata|, DATA, READONLY
|??_C@_1EK@JOJPHPGP@?$AA?9?$AAO?$AAA?$AAL?$AAI?$AAn?$AAt?$AAr?$AAT?$AAr?$AAa?$AAn?$AAs?$AAl?$AAa?$AAt?$AAe?$AAI?$AAr?$AAq?$AA?$CI?$AAs?$AAy?$AAs?$AAI?$AAn?$AAt?$AAr?$AA?5?$AA?$DN?$AA?5?$AA?$CF@| DCB "-"
	DCB	0x0, "O", 0x0, "A", 0x0, "L", 0x0, "I", 0x0, "n", 0x0, "t"
	DCB	0x0, "r", 0x0, "T", 0x0, "r", 0x0, "a", 0x0, "n", 0x0, "s"
	DCB	0x0, "l", 0x0, "a", 0x0, "t", 0x0, "e", 0x0, "I", 0x0, "r"
	DCB	0x0, "q", 0x0, "(", 0x0, "s", 0x0, "y", 0x0, "s", 0x0, "I"
	DCB	0x0, "n", 0x0, "t", 0x0, "r", 0x0, " ", 0x0, "=", 0x0, " "
	DCB	0x0, "%", 0x0, "d", 0x0, ")", 0x0, 0xd, 0x0, 0xa, 0x0, 0x0
	DCB	0x0					; `string'

  00000			 AREA	 |.rdata|, DATA, READONLY
|??_C@_1DG@IAFKCJEB@?$AA?$CL?$AAO?$AAA?$AAL?$AAI?$AAn?$AAt?$AAr?$AAT?$AAr?$AAa?$AAn?$AAs?$AAl?$AAa?$AAt?$AAe?$AAI?$AAr?$AAq?$AA?$CI?$AA?$CF?$AAd?$AA?$CJ?$AA?$AN?$AA?6?$AA?$AA@| DCB "+"
	DCB	0x0, "O", 0x0, "A", 0x0, "L", 0x0, "I", 0x0, "n", 0x0, "t"
	DCB	0x0, "r", 0x0, "T", 0x0, "r", 0x0, "a", 0x0, "n", 0x0, "s"
	DCB	0x0, "l", 0x0, "a", 0x0, "t", 0x0, "e", 0x0, "I", 0x0, "r"
	DCB	0x0, "q", 0x0, "(", 0x0, "%", 0x0, "d", 0x0, ")", 0x0, 0xd
	DCB	0x0, 0xa, 0x0, 0x0, 0x0			; `string'
; Function compile flags: /Ogspy

  00000			 AREA	 |.text|, CODE, ARM

  00000		 |OALIntrTranslateIrq| PROC

; 124  : {

  00000		 |$LN10@OALIntrTra@2|
  00000	e92d4070	 stmdb       sp!, {r4 - r6, lr}
  00004		 |$M39421|
  00004	e1a05000	 mov         r5, r0

; 125  :     UINT32 sysIntr = SYSINTR_UNDEFINED;
; 126  : 
; 127  :     OALMSG(OAL_FUNC&&OAL_VERBOSE, (L"+OALIntrTranslateIrq(%d)\r\n", irq));

  00008	e59f605c	 ldr         r6, [pc, #0x5C]
  0000c	e3e04000	 mvn         r4, #0
  00010	e5962440	 ldr         r2, [r6, #0x440]
  00014	e3120004	 tst         r2, #4
  00018	0a000005	 beq         |$LN4@OALIntrTra@2|
  0001c	e3120902	 tst         r2, #2, 18
  00020	0a000003	 beq         |$LN4@OALIntrTra@2|
  00024	e59f003c	 ldr         r0, [pc, #0x3C]
  00028	e1a01005	 mov         r1, r5
  0002c	eb000000	 bl          NKDbgPrintfW
  00030	e5962440	 ldr         r2, [r6, #0x440]
  00034		 |$LN4@OALIntrTra@2|

; 128  : 
; 129  :     if (irq >= OAL_INTR_IRQ_MAXIMUM) goto cleanUp;

  00034	e3550040	 cmp         r5, #0x40

; 130  :     sysIntr = g_oalIrq2SysIntr[irq];

  00038	359f3024	 ldrcc       r3, [pc, #0x24]
  0003c	37934105	 ldrcc       r4, [r3, +r5, lsl #2]
  00040		 |$cleanUp$39198|

; 131  : 
; 132  : cleanUp:
; 133  :     OALMSG(OAL_FUNC&&OAL_VERBOSE, (
; 134  :         L"-OALIntrTranslateIrq(sysIntr = %d)\r\n", sysIntr
; 135  :         ));

  00040	e3120004	 tst         r2, #4
  00044	13120902	 tstne       r2, #2, 18
  00048	159f0010	 ldrne       r0, [pc, #0x10]
  0004c	11a01004	 movne       r1, r4
  00050	1b000000	 blne        NKDbgPrintfW

; 136  :     return sysIntr;
; 137  : }

  00054	e1a00004	 mov         r0, r4
  00058	e8bd4070	 ldmia       sp!, {r4 - r6, lr}
  0005c	e12fff1e	 bx          lr
  00060		 |$LN11@OALIntrTra@2|
  00060		 |$LN12@OALIntrTra@2|
  00060	00000000	 DCD         |??_C@_1EK@JOJPHPGP@?$AA?9?$AAO?$AAA?$AAL?$AAI?$AAn?$AAt?$AAr?$AAT?$AAr?$AAa?$AAn?$AAs?$AAl?$AAa?$AAt?$AAe?$AAI?$AAr?$AAq?$AA?$CI?$AAs?$AAy?$AAs?$AAI?$AAn?$AAt?$AAr?$AA?5?$AA?$DN?$AA?5?$AA?$CF@|
  00064		 |$LN13@OALIntrTra@2|
  00064	00000000	 DCD         |g_oalIrq2SysIntr|
  00068		 |$LN14@OALIntrTra@2|
  00068	00000000	 DCD         |??_C@_1DG@IAFKCJEB@?$AA?$CL?$AAO?$AAA?$AAL?$AAI?$AAn?$AAt?$AAr?$AAT?$AAr?$AAa?$AAn?$AAs?$AAl?$AAa?$AAt?$AAe?$AAI?$AAr?$AAq?$AA?$CI?$AA?$CF?$AAd?$AA?$CJ?$AA?$AN?$AA?6?$AA?$AA@|
  0006c		 |$LN15@OALIntrTra@2|
  0006c	00000000	 DCD         |dpCurSettings|
  00070		 |$M39422|

			 ENDP  ; |OALIntrTranslateIrq|

	EXPORT	|OALIntrRequestSysIntr|
	EXPORT	|??_C@_1EO@CCPDBEFN@?$AA?9?$AAO?$AAA?$AAL?$AAI?$AAn?$AAt?$AAr?$AAR?$AAe?$AAq?$AAu?$AAe?$AAs?$AAt?$AAS?$AAy?$AAs?$AAI?$AAn?$AAt?$AAr?$AA?$CI?$AAs?$AAy?$AAs?$AAI?$AAn?$AAt?$AAr?$AA?5?$AA?$DN@| [ DATA ] ; `string'
	EXPORT	|??_C@_1HE@LGNFBECO@?$AAE?$AAR?$AAR?$AAO?$AAR?$AA?3?$AA?5?$AAO?$AAA?$AAL?$AAI?$AAn?$AAt?$AAr?$AAR?$AAe?$AAq?$AAu?$AAe?$AAs?$AAt?$AAS?$AAy?$AAs?$AAI?$AAn?$AAt?$AAr?$AA?3?$AA?5?$AAN?$AAo@| [ DATA ] ; `string'
	EXPORT	|??_C@_1JG@CKDDKDGB@?$AAE?$AAR?$AAR?$AAO?$AAR?$AA?3?$AA?5?$AAO?$AAA?$AAL?$AAI?$AAn?$AAt?$AAr?$AAR?$AAe?$AAq?$AAu?$AAe?$AAs?$AAt?$AAS?$AAy?$AAs?$AAI?$AAn?$AAt?$AAr?$AA?3?$AA?5?$AAS?$AAt@| [ DATA ] ; `string'
	EXPORT	|??_C@_1FK@JNHCPMAP@?$AA?$CL?$AAO?$AAA?$AAL?$AAI?$AAn?$AAt?$AAr?$AAR?$AAe?$AAq?$AAu?$AAe?$AAs?$AAt?$AAS?$AAy?$AAs?$AAI?$AAn?$AAt?$AAr?$AA?$CI?$AA?$CF?$AAd?$AA?0?$AA?5?$AA0?$AAx?$AA?$CF?$AA0?$AA8@| [ DATA ] ; `string'

  00000			 AREA	 |.pdata|, PDATA
|$T39456| DCD	|$LN31@OALIntrReq|
	DCD	0x40004c01

  00000			 AREA	 |.rdata|, DATA, READONLY
|??_C@_1EO@CCPDBEFN@?$AA?9?$AAO?$AAA?$AAL?$AAI?$AAn?$AAt?$AAr?$AAR?$AAe?$AAq?$AAu?$AAe?$AAs?$AAt?$AAS?$AAy?$AAs?$AAI?$AAn?$AAt?$AAr?$AA?$CI?$AAs?$AAy?$AAs?$AAI?$AAn?$AAt?$AAr?$AA?5?$AA?$DN@| DCB "-"
	DCB	0x0, "O", 0x0, "A", 0x0, "L", 0x0, "I", 0x0, "n", 0x0, "t"
	DCB	0x0, "r", 0x0, "R", 0x0, "e", 0x0, "q", 0x0, "u", 0x0, "e"
	DCB	0x0, "s", 0x0, "t", 0x0, "S", 0x0, "y", 0x0, "s", 0x0, "I"
	DCB	0x0, "n", 0x0, "t", 0x0, "r", 0x0, "(", 0x0, "s", 0x0, "y"
	DCB	0x0, "s", 0x0, "I", 0x0, "n", 0x0, "t", 0x0, "r", 0x0, " "
	DCB	0x0, "=", 0x0, " ", 0x0, "%", 0x0, "d", 0x0, ")", 0x0, 0xd
	DCB	0x0, 0xa, 0x0, 0x0, 0x0			; `string'

  00000			 AREA	 |.rdata|, DATA, READONLY
|??_C@_1HE@LGNFBECO@?$AAE?$AAR?$AAR?$AAO?$AAR?$AA?3?$AA?5?$AAO?$AAA?$AAL?$AAI?$AAn?$AAt?$AAr?$AAR?$AAe?$AAq?$AAu?$AAe?$AAs?$AAt?$AAS?$AAy?$AAs?$AAI?$AAn?$AAt?$AAr?$AA?3?$AA?5?$AAN?$AAo@| DCB "E"
	DCB	0x0, "R", 0x0, "R", 0x0, "O", 0x0, "R", 0x0, ":", 0x0, " "
	DCB	0x0, "O", 0x0, "A", 0x0, "L", 0x0, "I", 0x0, "n", 0x0, "t"
	DCB	0x0, "r", 0x0, "R", 0x0, "e", 0x0, "q", 0x0, "u", 0x0, "e"
	DCB	0x0, "s", 0x0, "t", 0x0, "S", 0x0, "y", 0x0, "s", 0x0, "I"
	DCB	0x0, "n", 0x0, "t", 0x0, "r", 0x0, ":", 0x0, " ", 0x0, "N"
	DCB	0x0, "o", 0x0, " ", 0x0, "a", 0x0, "v", 0x0, "a", 0x0, "i"
	DCB	0x0, "a", 0x0, "b", 0x0, "l", 0x0, "e", 0x0, " ", 0x0, "S"
	DCB	0x0, "Y", 0x0, "S", 0x0, "I", 0x0, "N", 0x0, "T", 0x0, "R"
	DCB	0x0, " ", 0x0, "f", 0x0, "o", 0x0, "u", 0x0, "n", 0x0, "d"
	DCB	0x0, 0xd, 0x0, 0xa, 0x0, 0x0, 0x0	; `string'

  00000			 AREA	 |.rdata|, DATA, READONLY
|??_C@_1JG@CKDDKDGB@?$AAE?$AAR?$AAR?$AAO?$AAR?$AA?3?$AA?5?$AAO?$AAA?$AAL?$AAI?$AAn?$AAt?$AAr?$AAR?$AAe?$AAq?$AAu?$AAe?$AAs?$AAt?$AAS?$AAy?$AAs?$AAI?$AAn?$AAt?$AAr?$AA?3?$AA?5?$AAS?$AAt@| DCB "E"
	DCB	0x0, "R", 0x0, "R", 0x0, "O", 0x0, "R", 0x0, ":", 0x0, " "
	DCB	0x0, "O", 0x0, "A", 0x0, "L", 0x0, "I", 0x0, "n", 0x0, "t"
	DCB	0x0, "r", 0x0, "R", 0x0, "e", 0x0, "q", 0x0, "u", 0x0, "e"
	DCB	0x0, "s", 0x0, "t", 0x0, "S", 0x0, "y", 0x0, "s", 0x0, "I"
	DCB	0x0, "n", 0x0, "t", 0x0, "r", 0x0, ":", 0x0, " ", 0x0, "S"
	DCB	0x0, "t", 0x0, "a", 0x0, "t", 0x0, "i", 0x0, "c", 0x0, " "
	DCB	0x0, "m", 0x0, "a", 0x0, "p", 0x0, "p", 0x0, "i", 0x0, "n"
	DCB	0x0, "g", 0x0, " ", 0x0, "f", 0x0, "o", 0x0, "r", 0x0, " "
	DCB	0x0, "I", 0x0, "R", 0x0, "Q", 0x0, " ", 0x0, "%", 0x0, "d"
	DCB	0x0, " ", 0x0, "a", 0x0, "l", 0x0, "r", 0x0, "e", 0x0, "a"
	DCB	0x0, "d", 0x0, "y", 0x0, " ", 0x0, "a", 0x0, "s", 0x0, "s"
	DCB	0x0, "i", 0x0, "g", 0x0, "n", 0x0, "e", 0x0, "d", 0x0, 0xd
	DCB	0x0, 0xa, 0x0, 0x0, 0x0			; `string'

  00000			 AREA	 |.rdata|, DATA, READONLY
|??_C@_1FK@JNHCPMAP@?$AA?$CL?$AAO?$AAA?$AAL?$AAI?$AAn?$AAt?$AAr?$AAR?$AAe?$AAq?$AAu?$AAe?$AAs?$AAt?$AAS?$AAy?$AAs?$AAI?$AAn?$AAt?$AAr?$AA?$CI?$AA?$CF?$AAd?$AA?0?$AA?5?$AA0?$AAx?$AA?$CF?$AA0?$AA8@| DCB "+"
	DCB	0x0, "O", 0x0, "A", 0x0, "L", 0x0, "I", 0x0, "n", 0x0, "t"
	DCB	0x0, "r", 0x0, "R", 0x0, "e", 0x0, "q", 0x0, "u", 0x0, "e"
	DCB	0x0, "s", 0x0, "t", 0x0, "S", 0x0, "y", 0x0, "s", 0x0, "I"
	DCB	0x0, "n", 0x0, "t", 0x0, "r", 0x0, "(", 0x0, "%", 0x0, "d"
	DCB	0x0, ",", 0x0, " ", 0x0, "0", 0x0, "x", 0x0, "%", 0x0, "0"
	DCB	0x0, "8", 0x0, "x", 0x0, ",", 0x0, " ", 0x0, "0", 0x0, "x"
	DCB	0x0, "%", 0x0, "0", 0x0, "8", 0x0, "x", 0x0, ")", 0x0, 0xd
	DCB	0x0, 0xa, 0x0, 0x0, 0x0			; `string'
; Function compile flags: /Ogspy

  00000			 AREA	 |.text|, CODE, ARM

  00000		 |OALIntrRequestSysIntr| PROC

; 152  : {

  00000		 |$LN31@OALIntrReq|
  00000	e92d41f0	 stmdb       sp!, {r4 - r8, lr}
  00004		 |$M39453|
  00004	e1a05002	 mov         r5, r2
  00008	e1a04001	 mov         r4, r1
  0000c	e1a06000	 mov         r6, r0

; 153  :     UINT32 irq, sysIntr;
; 154  : 
; 155  :     OALMSG(OAL_INTR&&OAL_FUNC, (
; 156  :         L"+OALIntrRequestSysIntr(%d, 0x%08x, 0x%08x)\r\n", count, pIrqs, flags
; 157  :         ));

  00010	e59f7114	 ldr         r7, [pc, #0x114]
  00014	e597e440	 ldr         lr, [r7, #0x440]
  00018	e31e0901	 tst         lr, #1, 18
  0001c	0a000007	 beq         |$LN16@OALIntrReq|
  00020	e31e0004	 tst         lr, #4
  00024	0a000005	 beq         |$LN16@OALIntrReq|
  00028	e59f00f8	 ldr         r0, [pc, #0xF8]
  0002c	e1a03005	 mov         r3, r5
  00030	e1a02004	 mov         r2, r4
  00034	e1a01006	 mov         r1, r6
  00038	eb000000	 bl          NKDbgPrintfW
  0003c	e597e440	 ldr         lr, [r7, #0x440]
  00040		 |$LN16@OALIntrReq|

; 158  : 
; 159  :     irq = pIrqs[0];

  00040	e5941000	 ldr         r1, [r4]

; 160  : 
; 161  :     // Valid IRQ?
; 162  :     if (count != 1 || irq >= OAL_INTR_IRQ_MAXIMUM)

  00044	e3560001	 cmp         r6, #1
  00048	1a00000d	 bne         |$LN12@OALIntrReq|
  0004c	e3510040	 cmp         r1, #0x40
  00050	2a00000b	 bcs         |$LN12@OALIntrReq|

; 165  :         goto cleanUp;
; 166  :         }
; 167  : 
; 168  :     // If there is mapping for given irq check for special cases
; 169  :     if (g_oalIrq2SysIntr[irq] != SYSINTR_UNDEFINED)

  00054	e59f60c8	 ldr         r6, [pc, #0xC8]
  00058	e2860e12	 add         r0, r6, #0x12, 28
  0005c	e7b02101	 ldr         r2, [r0, +r1, lsl #2]!
  00060	e3720001	 cmn         r2, #1
  00064	0a000012	 beq         |$LN9@OALIntrReq|

; 170  :         {
; 171  :         // If static mapping is requested we fail
; 172  :         if ((flags & OAL_INTR_STATIC) != 0)

  00068	e3150002	 tst         r5, #2
  0006c	0a00000d	 beq         |$LN10@OALIntrReq|

; 173  :             {
; 174  :             OALMSG(OAL_ERROR, (L"ERROR: OALIntrRequestSysIntr: "
; 175  :                 L"Static mapping for IRQ %d already assigned\r\n", irq
; 176  :                 ));

  00070	e31e0001	 tst         lr, #1
  00074	0a000002	 beq         |$LN12@OALIntrReq|
  00078	e59f00a0	 ldr         r0, [pc, #0xA0]
  0007c	eb000000	 bl          NKDbgPrintfW
  00080		 |$LN28@OALIntrReq|
  00080	e597e440	 ldr         lr, [r7, #0x440]
  00084		 |$LN12@OALIntrReq|

; 163  :         {
; 164  :         sysIntr = SYSINTR_UNDEFINED;

  00084	e3e04000	 mvn         r4, #0
  00088		 |$cleanUp$39214|

; 213  :         }
; 214  : 
; 215  : cleanUp:
; 216  :     OALMSG(OAL_INTR&&OAL_FUNC, (
; 217  :         L"-OALIntrRequestSysIntr(sysIntr = %d)\r\n", sysIntr
; 218  :         ));

  00088	e31e0901	 tst         lr, #1, 18
  0008c	131e0004	 tstne       lr, #4
  00090	159f0084	 ldrne       r0, [pc, #0x84]
  00094	11a01004	 movne       r1, r4
  00098	1b000000	 blne        NKDbgPrintfW

; 219  :     return sysIntr;
; 220  : }

  0009c	e1a00004	 mov         r0, r4
  000a0	e8bd41f0	 ldmia       sp!, {r4 - r8, lr}
  000a4	e12fff1e	 bx          lr
  000a8		 |$LN10@OALIntrReq|

; 177  :             sysIntr = SYSINTR_UNDEFINED;
; 178  :             goto cleanUp;
; 179  :             }
; 180  :         // If we should translate, return existing SYSINTR
; 181  :         if ((flags & OAL_INTR_TRANSLATE) != 0)

  000a8	e3150008	 tst         r5, #8

; 182  :             {
; 183  :             sysIntr = g_oalIrq2SysIntr[irq];

  000ac	11a04002	 movne       r4, r2
  000b0	1afffff4	 bne         |$cleanUp$39214|
  000b4		 |$LN9@OALIntrReq|

; 184  :             goto cleanUp;
; 185  :             }
; 186  :         }
; 187  : 
; 188  :     // Find next available SYSINTR value...
; 189  :     for (sysIntr = SYSINTR_FIRMWARE; sysIntr < SYSINTR_MAXIMUM; sysIntr++)

  000b4	e3a04010	 mov         r4, #0x10
  000b8	e2868040	 add         r8, r6, #0x40
  000bc		 |$LL8@OALIntrReq|

; 190  :         {
; 191  :         if (g_oalSysIntr2Irq[sysIntr] == OAL_INTR_IRQ_UNDEFINED) break;

  000bc	e5983000	 ldr         r3, [r8]
  000c0	e3730001	 cmn         r3, #1
  000c4	0a000003	 beq         |$LN25@OALIntrReq|
  000c8	e2844001	 add         r4, r4, #1
  000cc	e3540048	 cmp         r4, #0x48
  000d0	e2888004	 add         r8, r8, #4
  000d4	3afffff8	 bcc         |$LL8@OALIntrReq|
  000d8		 |$LN25@OALIntrReq|

; 192  :         }
; 193  : 
; 194  :     // Any available SYSINTRs left?
; 195  :     if (sysIntr >= SYSINTR_MAXIMUM)

  000d8	e3540048	 cmp         r4, #0x48
  000dc	3a000004	 bcc         |$LN4@OALIntrReq|

; 196  :         {
; 197  :         OALMSG(OAL_ERROR, (L"ERROR: OALIntrRequestSysIntr: "
; 198  :             L"No avaiable SYSINTR found\r\n"
; 199  :             ));

  000e0	e31e0001	 tst         lr, #1
  000e4	0affffe6	 beq         |$LN12@OALIntrReq|
  000e8	e59f0028	 ldr         r0, [pc, #0x28]
  000ec	eb000000	 bl          NKDbgPrintfW

; 200  :         sysIntr = SYSINTR_UNDEFINED;
; 201  :         goto cleanUp;

  000f0	eaffffe2	 b           |$LN28@OALIntrReq|
  000f4		 |$LN4@OALIntrReq|

; 202  :         }
; 203  : 
; 204  :     // Make SYSINTR -> IRQ association.
; 205  :     g_oalSysIntr2Irq[sysIntr] = irq;

  000f4	e7861104	 str         r1, [r6, +r4, lsl #2]

; 206  : 
; 207  :     // Make IRQ -> SYSINTR association if required
; 208  :     if ((flags & OAL_INTR_DYNAMIC) != 0) goto cleanUp;

  000f8	e3150001	 tst         r5, #1
  000fc	1affffe1	 bne         |$cleanUp$39214|

; 209  :     if ((g_oalIrq2SysIntr[irq] == SYSINTR_UNDEFINED) ||
; 210  :         ((flags & OAL_INTR_FORCE_STATIC) != 0))

  00100	e3720001	 cmn         r2, #1
  00104	0a000001	 beq         |$LN1@OALIntrReq|
  00108	e3150004	 tst         r5, #4
  0010c	0affffdd	 beq         |$cleanUp$39214|
  00110		 |$LN1@OALIntrReq|

; 211  :         {
; 212  :         g_oalIrq2SysIntr[irq] = sysIntr;

  00110	e5804000	 str         r4, [r0]
  00114	eaffffdb	 b           |$cleanUp$39214|
  00118		 |$LN32@OALIntrReq|
  00118		 |$LN33@OALIntrReq|
  00118	00000000	 DCD         |??_C@_1HE@LGNFBECO@?$AAE?$AAR?$AAR?$AAO?$AAR?$AA?3?$AA?5?$AAO?$AAA?$AAL?$AAI?$AAn?$AAt?$AAr?$AAR?$AAe?$AAq?$AAu?$AAe?$AAs?$AAt?$AAS?$AAy?$AAs?$AAI?$AAn?$AAt?$AAr?$AA?3?$AA?5?$AAN?$AAo@|
  0011c		 |$LN34@OALIntrReq|
  0011c	00000000	 DCD         |??_C@_1EO@CCPDBEFN@?$AA?9?$AAO?$AAA?$AAL?$AAI?$AAn?$AAt?$AAr?$AAR?$AAe?$AAq?$AAu?$AAe?$AAs?$AAt?$AAS?$AAy?$AAs?$AAI?$AAn?$AAt?$AAr?$AA?$CI?$AAs?$AAy?$AAs?$AAI?$AAn?$AAt?$AAr?$AA?5?$AA?$DN@|
  00120		 |$LN35@OALIntrReq|
  00120	00000000	 DCD         |??_C@_1JG@CKDDKDGB@?$AAE?$AAR?$AAR?$AAO?$AAR?$AA?3?$AA?5?$AAO?$AAA?$AAL?$AAI?$AAn?$AAt?$AAr?$AAR?$AAe?$AAq?$AAu?$AAe?$AAs?$AAt?$AAS?$AAy?$AAs?$AAI?$AAn?$AAt?$AAr?$AA?3?$AA?5?$AAS?$AAt@|
  00124		 |$LN36@OALIntrReq|
  00124	00000000	 DCD         |g_oalSysIntr2Irq|
  00128		 |$LN37@OALIntrReq|
  00128	00000000	 DCD         |??_C@_1FK@JNHCPMAP@?$AA?$CL?$AAO?$AAA?$AAL?$AAI?$AAn?$AAt?$AAr?$AAR?$AAe?$AAq?$AAu?$AAe?$AAs?$AAt?$AAS?$AAy?$AAs?$AAI?$AAn?$AAt?$AAr?$AA?$CI?$AA?$CF?$AAd?$AA?0?$AA?5?$AA0?$AAx?$AA?$CF?$AA0?$AA8@|
  0012c		 |$LN38@OALIntrReq|
  0012c	00000000	 DCD         |dpCurSettings|
  00130		 |$M39454|

			 ENDP  ; |OALIntrRequestSysIntr|

	EXPORT	|OALIntrReleaseSysIntr|
	EXPORT	|??_C@_1EE@GBADJBKJ@?$AA?9?$AAO?$AAA?$AAL?$AAI?$AAn?$AAt?$AAr?$AAR?$AAe?$AAl?$AAe?$AAa?$AAs?$AAe?$AAS?$AAy?$AAs?$AAI?$AAn?$AAt?$AAr?$AA?$CI?$AAr?$AAc?$AA?5?$AA?$DN?$AA?5?$AA?$CF?$AAd?$AA?$CJ?$AA?$AN@| [ DATA ] ; `string'
	EXPORT	|??_C@_1HC@BIEMDHNG@?$AAE?$AAR?$AAR?$AAO?$AAR?$AA?3?$AA?5?$AAO?$AAA?$AAL?$AAI?$AAn?$AAt?$AAr?$AAR?$AAe?$AAl?$AAe?$AAa?$AAs?$AAe?$AAS?$AAy?$AAs?$AAI?$AAn?$AAt?$AAr?$AA?3?$AA?5?$AAI?$AAn@| [ DATA ] ; `string'
	EXPORT	|??_C@_1DK@GDEEGDPM@?$AA?$CL?$AAO?$AAA?$AAL?$AAI?$AAn?$AAt?$AAr?$AAR?$AAe?$AAl?$AAe?$AAa?$AAs?$AAe?$AAS?$AAy?$AAs?$AAI?$AAn?$AAt?$AAr?$AA?$CI?$AA?$CF?$AAd?$AA?$CJ?$AA?$AN?$AA?6?$AA?$AA@| [ DATA ] ; `string'

  00000			 AREA	 |.pdata|, PDATA
|$T39481| DCD	|$LN15@OALIntrRel|
	DCD	0x40003001

  00000			 AREA	 |.rdata|, DATA, READONLY
|??_C@_1EE@GBADJBKJ@?$AA?9?$AAO?$AAA?$AAL?$AAI?$AAn?$AAt?$AAr?$AAR?$AAe?$AAl?$AAe?$AAa?$AAs?$AAe?$AAS?$AAy?$AAs?$AAI?$AAn?$AAt?$AAr?$AA?$CI?$AAr?$AAc?$AA?5?$AA?$DN?$AA?5?$AA?$CF?$AAd?$AA?$CJ?$AA?$AN@| DCB "-"
	DCB	0x0, "O", 0x0, "A", 0x0, "L", 0x0, "I", 0x0, "n", 0x0, "t"
	DCB	0x0, "r", 0x0, "R", 0x0, "e", 0x0, "l", 0x0, "e", 0x0, "a"
	DCB	0x0, "s", 0x0, "e", 0x0, "S", 0x0, "y", 0x0, "s", 0x0, "I"
	DCB	0x0, "n", 0x0, "t", 0x0, "r", 0x0, "(", 0x0, "r", 0x0, "c"
	DCB	0x0, " ", 0x0, "=", 0x0, " ", 0x0, "%", 0x0, "d", 0x0, ")"
	DCB	0x0, 0xd, 0x0, 0xa, 0x0, 0x0, 0x0	; `string'

  00000			 AREA	 |.rdata|, DATA, READONLY
|??_C@_1HC@BIEMDHNG@?$AAE?$AAR?$AAR?$AAO?$AAR?$AA?3?$AA?5?$AAO?$AAA?$AAL?$AAI?$AAn?$AAt?$AAr?$AAR?$AAe?$AAl?$AAe?$AAa?$AAs?$AAe?$AAS?$AAy?$AAs?$AAI?$AAn?$AAt?$AAr?$AA?3?$AA?5?$AAI?$AAn@| DCB "E"
	DCB	0x0, "R", 0x0, "R", 0x0, "O", 0x0, "R", 0x0, ":", 0x0, " "
	DCB	0x0, "O", 0x0, "A", 0x0, "L", 0x0, "I", 0x0, "n", 0x0, "t"
	DCB	0x0, "r", 0x0, "R", 0x0, "e", 0x0, "l", 0x0, "e", 0x0, "a"
	DCB	0x0, "s", 0x0, "e", 0x0, "S", 0x0, "y", 0x0, "s", 0x0, "I"
	DCB	0x0, "n", 0x0, "t", 0x0, "r", 0x0, ":", 0x0, " ", 0x0, "I"
	DCB	0x0, "n", 0x0, "v", 0x0, "a", 0x0, "l", 0x0, "i", 0x0, "d"
	DCB	0x0, " ", 0x0, "s", 0x0, "y", 0x0, "s", 0x0, "I", 0x0, "n"
	DCB	0x0, "t", 0x0, "r", 0x0, " ", 0x0, "v", 0x0, "a", 0x0, "l"
	DCB	0x0, "u", 0x0, "e", 0x0, " ", 0x0, "%", 0x0, "d", 0x0, 0xd
	DCB	0x0, 0xa, 0x0, 0x0, 0x0			; `string'

  00000			 AREA	 |.rdata|, DATA, READONLY
|??_C@_1DK@GDEEGDPM@?$AA?$CL?$AAO?$AAA?$AAL?$AAI?$AAn?$AAt?$AAr?$AAR?$AAe?$AAl?$AAe?$AAa?$AAs?$AAe?$AAS?$AAy?$AAs?$AAI?$AAn?$AAt?$AAr?$AA?$CI?$AA?$CF?$AAd?$AA?$CJ?$AA?$AN?$AA?6?$AA?$AA@| DCB "+"
	DCB	0x0, "O", 0x0, "A", 0x0, "L", 0x0, "I", 0x0, "n", 0x0, "t"
	DCB	0x0, "r", 0x0, "R", 0x0, "e", 0x0, "l", 0x0, "e", 0x0, "a"
	DCB	0x0, "s", 0x0, "e", 0x0, "S", 0x0, "y", 0x0, "s", 0x0, "I"
	DCB	0x0, "n", 0x0, "t", 0x0, "r", 0x0, "(", 0x0, "%", 0x0, "d"
	DCB	0x0, ")", 0x0, 0xd, 0x0, 0xa, 0x0, 0x0, 0x0 ; `string'
; Function compile flags: /Ogspy

  00000			 AREA	 |.text|, CODE, ARM

  00000		 |OALIntrReleaseSysIntr| PROC

; 232  : {

  00000		 |$LN15@OALIntrRel|
  00000	e92d4070	 stmdb       sp!, {r4 - r6, lr}
  00004		 |$M39478|
  00004	e1a05000	 mov         r5, r0

; 233  :     BOOL rc = FALSE;
; 234  :     UINT32 irq;
; 235  : 
; 236  :     OALMSG(OAL_INTR&&OAL_FUNC, (L"+OALIntrReleaseSysIntr(%d)\r\n", sysIntr));

  00008	e59f60ac	 ldr         r6, [pc, #0xAC]
  0000c	e3a04000	 mov         r4, #0
  00010	e5962440	 ldr         r2, [r6, #0x440]
  00014	e3120901	 tst         r2, #1, 18
  00018	0a000005	 beq         |$LN7@OALIntrRel|
  0001c	e3120004	 tst         r2, #4
  00020	0a000003	 beq         |$LN7@OALIntrRel|
  00024	e59f008c	 ldr         r0, [pc, #0x8C]
  00028	e1a01005	 mov         r1, r5
  0002c	eb000000	 bl          NKDbgPrintfW
  00030	e5962440	 ldr         r2, [r6, #0x440]
  00034		 |$LN7@OALIntrRel|

; 237  : 
; 238  :     // is Valid sysIntr?
; 239  :     if ((sysIntr < SYSINTR_FIRMWARE) || (sysIntr >= SYSINTR_MAXIMUM))

  00034	e2453010	 sub         r3, r5, #0x10
  00038	e3530037	 cmp         r3, #0x37
  0003c	8a00000c	 bhi         |$LN3@OALIntrRel|

; 244  :         goto cleanUp;
; 245  :         }
; 246  : 
; 247  :     // Is the SYSINTR already released?
; 248  :     if (g_oalSysIntr2Irq[sysIntr] == OAL_INTR_IRQ_UNDEFINED) goto cleanUp;

  00040	e59f306c	 ldr         r3, [pc, #0x6C]
  00044	e1a01003	 mov         r1, r3
  00048	e7b1e105	 ldr         lr, [r1, +r5, lsl #2]!
  0004c	e37e0001	 cmn         lr, #1
  00050	0a00000d	 beq         |$cleanUp$39243|

; 249  : 
; 250  :     // Remove the SYSINTR -> IRQ mapping
; 251  :     irq = g_oalSysIntr2Irq[sysIntr];
; 252  :     g_oalSysIntr2Irq[sysIntr] = OAL_INTR_IRQ_UNDEFINED;
; 253  : 
; 254  :     // If we're releasing the SYSINTR directly mapped in the IRQ mapping,
; 255  :     // remove the IRQ mapping also
; 256  :     if (g_oalIrq2SysIntr[irq] == sysIntr)

  00054	e2830e12	 add         r0, r3, #0x12, 28
  00058	e7b0310e	 ldr         r3, [r0, +lr, lsl #2]!
  0005c	e3e0e000	 mvn         lr, #0
  00060	e581e000	 str         lr, [r1]

; 257  :         {
; 258  :         g_oalIrq2SysIntr[irq] = SYSINTR_UNDEFINED;
; 259  :         }
; 260  : 
; 261  :     rc = TRUE;

  00064	e3a04001	 mov         r4, #1
  00068	e1530005	 cmp         r3, r5
  0006c	0580e000	 streq       lr, [r0]
  00070	ea000005	 b           |$cleanUp$39243|
  00074		 |$LN3@OALIntrRel|

; 240  :         {
; 241  :         OALMSG(OAL_ERROR, (L"ERROR: OALIntrReleaseSysIntr: "
; 242  :             L"Invalid sysIntr value %d\r\n", sysIntr
; 243  :             ));

  00074	e3120001	 tst         r2, #1
  00078	0a000003	 beq         |$cleanUp$39243|
  0007c	e59f002c	 ldr         r0, [pc, #0x2C]
  00080	e1a01005	 mov         r1, r5
  00084	eb000000	 bl          NKDbgPrintfW
  00088	e5962440	 ldr         r2, [r6, #0x440]
  0008c		 |$cleanUp$39243|

; 262  : 
; 263  : cleanUp:
; 264  :     OALMSG(OAL_INTR&&OAL_FUNC, (L"-OALIntrReleaseSysIntr(rc = %d)\r\n", rc));

  0008c	e3120901	 tst         r2, #1, 18
  00090	13120004	 tstne       r2, #4
  00094	159f0010	 ldrne       r0, [pc, #0x10]
  00098	11a01004	 movne       r1, r4
  0009c	1b000000	 blne        NKDbgPrintfW

; 265  :     return rc;
; 266  : }

  000a0	e1a00004	 mov         r0, r4
  000a4	e8bd4070	 ldmia       sp!, {r4 - r6, lr}
  000a8	e12fff1e	 bx          lr
  000ac		 |$LN16@OALIntrRel|
  000ac		 |$LN17@OALIntrRel|
  000ac	00000000	 DCD         |??_C@_1EE@GBADJBKJ@?$AA?9?$AAO?$AAA?$AAL?$AAI?$AAn?$AAt?$AAr?$AAR?$AAe?$AAl?$AAe?$AAa?$AAs?$AAe?$AAS?$AAy?$AAs?$AAI?$AAn?$AAt?$AAr?$AA?$CI?$AAr?$AAc?$AA?5?$AA?$DN?$AA?5?$AA?$CF?$AAd?$AA?$CJ?$AA?$AN@|
  000b0		 |$LN18@OALIntrRel|
  000b0	00000000	 DCD         |??_C@_1HC@BIEMDHNG@?$AAE?$AAR?$AAR?$AAO?$AAR?$AA?3?$AA?5?$AAO?$AAA?$AAL?$AAI?$AAn?$AAt?$AAr?$AAR?$AAe?$AAl?$AAe?$AAa?$AAs?$AAe?$AAS?$AAy?$AAs?$AAI?$AAn?$AAt?$AAr?$AA?3?$AA?5?$AAI?$AAn@|
  000b4		 |$LN19@OALIntrRel|
  000b4	00000000	 DCD         |g_oalSysIntr2Irq|
  000b8		 |$LN20@OALIntrRel|
  000b8	00000000	 DCD         |??_C@_1DK@GDEEGDPM@?$AA?$CL?$AAO?$AAA?$AAL?$AAI?$AAn?$AAt?$AAr?$AAR?$AAe?$AAl?$AAe?$AAa?$AAs?$AAe?$AAS?$AAy?$AAs?$AAI?$AAn?$AAt?$AAr?$AA?$CI?$AA?$CF?$AAd?$AA?$CJ?$AA?$AN?$AA?6?$AA?$AA@|
  000bc		 |$LN21@OALIntrRel|
  000bc	00000000	 DCD         |dpCurSettings|
  000c0		 |$M39479|

			 ENDP  ; |OALIntrReleaseSysIntr|

	EXPORT	|OEMInterruptEnable|
	EXPORT	|??_C@_1DM@KHBFOEPK@?$AA?9?$AAO?$AAE?$AAM?$AAI?$AAn?$AAt?$AAe?$AAr?$AAr?$AAu?$AAp?$AAt?$AAE?$AAn?$AAa?$AAb?$AAl?$AAe?$AA?$CI?$AAr?$AAc?$AA?5?$AA?$DN?$AA?5?$AA1?$AA?$CJ?$AA?$AN?$AA?6?$AA?$AA@| [ DATA ] ; `string'
	EXPORT	|??_C@_1EI@HHGIJMMI@?$AA?$CL?$AAO?$AAE?$AAM?$AAI?$AAn?$AAt?$AAe?$AAr?$AAr?$AAu?$AAp?$AAt?$AAE?$AAn?$AAa?$AAb?$AAl?$AAe?$AA?$CI?$AA?$CF?$AAd?$AA?0?$AA?5?$AA0?$AAx?$AA?$CF?$AAx?$AA?0?$AA?5?$AA?$CF?$AAd@| [ DATA ] ; `string'
	IMPORT	|OALIntrEnableIrqs|

  00000			 AREA	 |.pdata|, PDATA
|$T39504| DCD	|$LN11@OEMInterru|
	DCD	0x40002501

  00000			 AREA	 |.rdata|, DATA, READONLY
|??_C@_1DM@KHBFOEPK@?$AA?9?$AAO?$AAE?$AAM?$AAI?$AAn?$AAt?$AAe?$AAr?$AAr?$AAu?$AAp?$AAt?$AAE?$AAn?$AAa?$AAb?$AAl?$AAe?$AA?$CI?$AAr?$AAc?$AA?5?$AA?$DN?$AA?5?$AA1?$AA?$CJ?$AA?$AN?$AA?6?$AA?$AA@| DCB "-"
	DCB	0x0, "O", 0x0, "E", 0x0, "M", 0x0, "I", 0x0, "n", 0x0, "t"
	DCB	0x0, "e", 0x0, "r", 0x0, "r", 0x0, "u", 0x0, "p", 0x0, "t"
	DCB	0x0, "E", 0x0, "n", 0x0, "a", 0x0, "b", 0x0, "l", 0x0, "e"
	DCB	0x0, "(", 0x0, "r", 0x0, "c", 0x0, " ", 0x0, "=", 0x0, " "
	DCB	0x0, "1", 0x0, ")", 0x0, 0xd, 0x0, 0xa, 0x0, 0x0, 0x0 ; `string'

  00000			 AREA	 |.rdata|, DATA, READONLY
|??_C@_1EI@HHGIJMMI@?$AA?$CL?$AAO?$AAE?$AAM?$AAI?$AAn?$AAt?$AAe?$AAr?$AAr?$AAu?$AAp?$AAt?$AAE?$AAn?$AAa?$AAb?$AAl?$AAe?$AA?$CI?$AA?$CF?$AAd?$AA?0?$AA?5?$AA0?$AAx?$AA?$CF?$AAx?$AA?0?$AA?5?$AA?$CF?$AAd@| DCB "+"
	DCB	0x0, "O", 0x0, "E", 0x0, "M", 0x0, "I", 0x0, "n", 0x0, "t"
	DCB	0x0, "e", 0x0, "r", 0x0, "r", 0x0, "u", 0x0, "p", 0x0, "t"
	DCB	0x0, "E", 0x0, "n", 0x0, "a", 0x0, "b", 0x0, "l", 0x0, "e"
	DCB	0x0, "(", 0x0, "%", 0x0, "d", 0x0, ",", 0x0, " ", 0x0, "0"
	DCB	0x0, "x", 0x0, "%", 0x0, "x", 0x0, ",", 0x0, " ", 0x0, "%"
	DCB	0x0, "d", 0x0, ")", 0x0, 0xd, 0x0, 0xa, 0x0, 0x0, 0x0 ; `string'
; Function compile flags: /Ogspy

  00000			 AREA	 |.text|, CODE, ARM

  00000		 |OEMInterruptEnable| PROC

; 281  : {

  00000		 |$LN11@OEMInterru|
  00000	e92d4030	 stmdb       sp!, {r4, r5, lr}
  00004		 |$M39501|
  00004	e1a04000	 mov         r4, r0

; 282  :     BOOL rc = FALSE;
; 283  : 
; 284  :     OALMSG(OAL_INTR&&OAL_VERBOSE, 
; 285  :         (L"+OEMInterruptEnable(%d, 0x%x, %d)\r\n", sysIntr, pData, dataSize
; 286  :         ));

  00008	e59f5080	 ldr         r5, [pc, #0x80]
  0000c	e5953440	 ldr         r3, [r5, #0x440]
  00010	e3130901	 tst         r3, #1, 18
  00014	0a000007	 beq         |$LN5@OEMInterru|
  00018	e3130902	 tst         r3, #2, 18
  0001c	0a000005	 beq         |$LN5@OEMInterru|
  00020	e59f0064	 ldr         r0, [pc, #0x64]
  00024	e1a03002	 mov         r3, r2
  00028	e1a02001	 mov         r2, r1
  0002c	e1a01004	 mov         r1, r4
  00030	eb000000	 bl          NKDbgPrintfW
  00034	e5953440	 ldr         r3, [r5, #0x440]
  00038		 |$LN5@OEMInterru|

; 287  : 
; 288  :     // SYSINTR_VMINI & SYSINTR_TIMING are special cases
; 289  :     if ((sysIntr == SYSINTR_VMINI) || (sysIntr == SYSINTR_TIMING))

  00038	e354000f	 cmp         r4, #0xF
  0003c	0a000008	 beq         |$LN1@OEMInterru|
  00040	e354000a	 cmp         r4, #0xA
  00044	0a000006	 beq         |$LN1@OEMInterru|

; 292  :         goto cleanUp;
; 293  :         }
; 294  : 
; 295  :     // Enable interrupts
; 296  :     rc = OALIntrEnableIrqs(1, &g_oalSysIntr2Irq[sysIntr]);

  00048	e59f3038	 ldr         r3, [pc, #0x38]
  0004c	e3a00001	 mov         r0, #1
  00050	e0831104	 add         r1, r3, r4, lsl #2
  00054	eb000000	 bl          OALIntrEnableIrqs
  00058	e5953440	 ldr         r3, [r5, #0x440]
  0005c	e1a04000	 mov         r4, r0
  00060	ea000000	 b           |$cleanUp$39260|
  00064		 |$LN1@OEMInterru|

; 290  :         {
; 291  :         rc = TRUE;

  00064	e3a04001	 mov         r4, #1
  00068		 |$cleanUp$39260|

; 297  : 
; 298  : cleanUp:    
; 299  :     OALMSG(OAL_INTR&&OAL_VERBOSE, (L"-OEMInterruptEnable(rc = 1)\r\n"));

  00068	e3130901	 tst         r3, #1, 18
  0006c	13130902	 tstne       r3, #2, 18
  00070	159f000c	 ldrne       r0, [pc, #0xC]
  00074	1b000000	 blne        NKDbgPrintfW

; 300  :     return rc;
; 301  : }

  00078	e1a00004	 mov         r0, r4
  0007c	e8bd4030	 ldmia       sp!, {r4, r5, lr}
  00080	e12fff1e	 bx          lr
  00084		 |$LN12@OEMInterru|
  00084		 |$LN13@OEMInterru|
  00084	00000000	 DCD         |??_C@_1DM@KHBFOEPK@?$AA?9?$AAO?$AAE?$AAM?$AAI?$AAn?$AAt?$AAe?$AAr?$AAr?$AAu?$AAp?$AAt?$AAE?$AAn?$AAa?$AAb?$AAl?$AAe?$AA?$CI?$AAr?$AAc?$AA?5?$AA?$DN?$AA?5?$AA1?$AA?$CJ?$AA?$AN?$AA?6?$AA?$AA@|
  00088		 |$LN14@OEMInterru|
  00088	00000000	 DCD         |g_oalSysIntr2Irq|
  0008c		 |$LN15@OEMInterru|
  0008c	00000000	 DCD         |??_C@_1EI@HHGIJMMI@?$AA?$CL?$AAO?$AAE?$AAM?$AAI?$AAn?$AAt?$AAe?$AAr?$AAr?$AAu?$AAp?$AAt?$AAE?$AAn?$AAa?$AAb?$AAl?$AAe?$AA?$CI?$AA?$CF?$AAd?$AA?0?$AA?5?$AA0?$AAx?$AA?$CF?$AAx?$AA?0?$AA?5?$AA?$CF?$AAd@|
  00090		 |$LN16@OEMInterru|
  00090	00000000	 DCD         |dpCurSettings|
  00094		 |$M39502|

			 ENDP  ; |OEMInterruptEnable|

	EXPORT	|OEMInterruptDisable|
	EXPORT	|??_C@_1CO@FKOPLHGO@?$AA?9?$AAO?$AAE?$AAM?$AAI?$AAn?$AAt?$AAe?$AAr?$AAr?$AAu?$AAp?$AAt?$AAD?$AAi?$AAs?$AAa?$AAb?$AAl?$AAe?$AA?$AN?$AA?6?$AA?$AA@| [ DATA ] ; `string'
	EXPORT	|??_C@_1DG@HOKLDENP@?$AA?$CL?$AAO?$AAE?$AAM?$AAI?$AAn?$AAt?$AAe?$AAr?$AAr?$AAu?$AAp?$AAt?$AAD?$AAi?$AAs?$AAa?$AAb?$AAl?$AAe?$AA?$CI?$AA?$CF?$AAd?$AA?$CJ?$AA?$AN?$AA?6?$AA?$AA@| [ DATA ] ; `string'
	IMPORT	|OALIntrDisableIrqs|

  00000			 AREA	 |.pdata|, PDATA
|$T39521| DCD	|$LN9@OEMInterru@2|
	DCD	0x40001801

  00000			 AREA	 |.rdata|, DATA, READONLY
|??_C@_1CO@FKOPLHGO@?$AA?9?$AAO?$AAE?$AAM?$AAI?$AAn?$AAt?$AAe?$AAr?$AAr?$AAu?$AAp?$AAt?$AAD?$AAi?$AAs?$AAa?$AAb?$AAl?$AAe?$AA?$AN?$AA?6?$AA?$AA@| DCB "-"
	DCB	0x0, "O", 0x0, "E", 0x0, "M", 0x0, "I", 0x0, "n", 0x0, "t"
	DCB	0x0, "e", 0x0, "r", 0x0, "r", 0x0, "u", 0x0, "p", 0x0, "t"
	DCB	0x0, "D", 0x0, "i", 0x0, "s", 0x0, "a", 0x0, "b", 0x0, "l"
	DCB	0x0, "e", 0x0, 0xd, 0x0, 0xa, 0x0, 0x0, 0x0 ; `string'

  00000			 AREA	 |.rdata|, DATA, READONLY
|??_C@_1DG@HOKLDENP@?$AA?$CL?$AAO?$AAE?$AAM?$AAI?$AAn?$AAt?$AAe?$AAr?$AAr?$AAu?$AAp?$AAt?$AAD?$AAi?$AAs?$AAa?$AAb?$AAl?$AAe?$AA?$CI?$AA?$CF?$AAd?$AA?$CJ?$AA?$AN?$AA?6?$AA?$AA@| DCB "+"
	DCB	0x0, "O", 0x0, "E", 0x0, "M", 0x0, "I", 0x0, "n", 0x0, "t"
	DCB	0x0, "e", 0x0, "r", 0x0, "r", 0x0, "u", 0x0, "p", 0x0, "t"
	DCB	0x0, "D", 0x0, "i", 0x0, "s", 0x0, "a", 0x0, "b", 0x0, "l"
	DCB	0x0, "e", 0x0, "(", 0x0, "%", 0x0, "d", 0x0, ")", 0x0, 0xd
	DCB	0x0, 0xa, 0x0, 0x0, 0x0			; `string'
; Function compile flags: /Ogspy

  00000			 AREA	 |.text|, CODE, ARM

  00000		 |OEMInterruptDisable| PROC

; 313  : {

  00000		 |$LN9@OEMInterru@2|
  00000	e92d4030	 stmdb       sp!, {r4, r5, lr}
  00004		 |$M39518|
  00004	e1a04000	 mov         r4, r0

; 314  :     OALMSG(OAL_INTR&&OAL_VERBOSE, (L"+OEMInterruptDisable(%d)\r\n", sysIntr));

  00008	e59f504c	 ldr         r5, [pc, #0x4C]
  0000c	e5953440	 ldr         r3, [r5, #0x440]
  00010	e3130901	 tst         r3, #1, 18
  00014	13130902	 tstne       r3, #2, 18
  00018	159f0038	 ldrne       r0, [pc, #0x38]
  0001c	11a01004	 movne       r1, r4
  00020	1b000000	 blne        NKDbgPrintfW

; 315  : 
; 316  :     // Disable interrupts
; 317  :     OALIntrDisableIrqs(1, &g_oalSysIntr2Irq[sysIntr]);

  00024	e59f3028	 ldr         r3, [pc, #0x28]
  00028	e3a00001	 mov         r0, #1
  0002c	e0831104	 add         r1, r3, r4, lsl #2
  00030	eb000000	 bl          OALIntrDisableIrqs

; 318  : 
; 319  :     OALMSG(OAL_INTR&&OAL_VERBOSE, (L"-OEMInterruptDisable\r\n"));

  00034	e5953440	 ldr         r3, [r5, #0x440]
  00038	e3130901	 tst         r3, #1, 18
  0003c	13130902	 tstne       r3, #2, 18
  00040	159f0008	 ldrne       r0, [pc, #8]
  00044	1b000000	 blne        NKDbgPrintfW

; 320  : }

  00048	e8bd4030	 ldmia       sp!, {r4, r5, lr}
  0004c	e12fff1e	 bx          lr
  00050		 |$LN10@OEMInterru@2|
  00050		 |$LN11@OEMInterru@2|
  00050	00000000	 DCD         |??_C@_1CO@FKOPLHGO@?$AA?9?$AAO?$AAE?$AAM?$AAI?$AAn?$AAt?$AAe?$AAr?$AAr?$AAu?$AAp?$AAt?$AAD?$AAi?$AAs?$AAa?$AAb?$AAl?$AAe?$AA?$AN?$AA?6?$AA?$AA@|
  00054		 |$LN12@OEMInterru@2|
  00054	00000000	 DCD         |g_oalSysIntr2Irq|
  00058		 |$LN13@OEMInterru@2|
  00058	00000000	 DCD         |??_C@_1DG@HOKLDENP@?$AA?$CL?$AAO?$AAE?$AAM?$AAI?$AAn?$AAt?$AAe?$AAr?$AAr?$AAu?$AAp?$AAt?$AAD?$AAi?$AAs?$AAa?$AAb?$AAl?$AAe?$AA?$CI?$AA?$CF?$AAd?$AA?$CJ?$AA?$AN?$AA?6?$AA?$AA@|
  0005c		 |$LN14@OEMInterru@2|
  0005c	00000000	 DCD         |dpCurSettings|
  00060		 |$M39519|

			 ENDP  ; |OEMInterruptDisable|

	EXPORT	|OEMInterruptMask|
	EXPORT	|??_C@_1CI@OPHGDEL@?$AA?9?$AAO?$AAE?$AAM?$AAI?$AAn?$AAt?$AAe?$AAr?$AAr?$AAu?$AAp?$AAt?$AAM?$AAa?$AAs?$AAk?$AA?$AN?$AA?6?$AA?$AA@| [ DATA ] ; `string'
	EXPORT	|??_C@_1DI@MFEEGIMP@?$AA?$CL?$AAO?$AAE?$AAM?$AAI?$AAn?$AAt?$AAe?$AAr?$AAr?$AAu?$AAp?$AAt?$AAM?$AAa?$AAs?$AAk?$AA?$CI?$AA?$CF?$AAd?$AA?0?$AA?5?$AA?$CF?$AAd?$AA?$CJ?$AA?$AN?$AA?6?$AA?$AA@| [ DATA ] ; `string'

  00000			 AREA	 |.pdata|, PDATA
|$T39539| DCD	|$LN11@OEMInterru@3|
	DCD	0x40001e01

  00000			 AREA	 |.rdata|, DATA, READONLY
|??_C@_1CI@OPHGDEL@?$AA?9?$AAO?$AAE?$AAM?$AAI?$AAn?$AAt?$AAe?$AAr?$AAr?$AAu?$AAp?$AAt?$AAM?$AAa?$AAs?$AAk?$AA?$AN?$AA?6?$AA?$AA@| DCB "-"
	DCB	0x0, "O", 0x0, "E", 0x0, "M", 0x0, "I", 0x0, "n", 0x0, "t"
	DCB	0x0, "e", 0x0, "r", 0x0, "r", 0x0, "u", 0x0, "p", 0x0, "t"
	DCB	0x0, "M", 0x0, "a", 0x0, "s", 0x0, "k", 0x0, 0xd, 0x0, 0xa
	DCB	0x0, 0x0, 0x0				; `string'

  00000			 AREA	 |.rdata|, DATA, READONLY
|??_C@_1DI@MFEEGIMP@?$AA?$CL?$AAO?$AAE?$AAM?$AAI?$AAn?$AAt?$AAe?$AAr?$AAr?$AAu?$AAp?$AAt?$AAM?$AAa?$AAs?$AAk?$AA?$CI?$AA?$CF?$AAd?$AA?0?$AA?5?$AA?$CF?$AAd?$AA?$CJ?$AA?$AN?$AA?6?$AA?$AA@| DCB "+"
	DCB	0x0, "O", 0x0, "E", 0x0, "M", 0x0, "I", 0x0, "n", 0x0, "t"
	DCB	0x0, "e", 0x0, "r", 0x0, "r", 0x0, "u", 0x0, "p", 0x0, "t"
	DCB	0x0, "M", 0x0, "a", 0x0, "s", 0x0, "k", 0x0, "(", 0x0, "%"
	DCB	0x0, "d", 0x0, ",", 0x0, " ", 0x0, "%", 0x0, "d", 0x0, ")"
	DCB	0x0, 0xd, 0x0, 0xa, 0x0, 0x0, 0x0	; `string'
; Function compile flags: /Ogspy

  00000			 AREA	 |.text|, CODE, ARM

  00000		 |OEMInterruptMask| PROC

; 334  : {

  00000		 |$LN11@OEMInterru@3|
  00000	e92d4070	 stmdb       sp!, {r4 - r6, lr}
  00004		 |$M39536|
  00004	e1a05001	 mov         r5, r1
  00008	e1a04000	 mov         r4, r0

; 335  :     OALMSG(OAL_INTR&&OAL_VERBOSE, (
; 336  :         L"+OEMInterruptMask(%d, %d)\r\n", sysIntr, mask
; 337  :         ));

  0000c	e59f6060	 ldr         r6, [pc, #0x60]
  00010	e5963440	 ldr         r3, [r6, #0x440]
  00014	e3130901	 tst         r3, #1, 18
  00018	13130902	 tstne       r3, #2, 18
  0001c	159f004c	 ldrne       r0, [pc, #0x4C]
  00020	11a02005	 movne       r2, r5
  00024	11a01004	 movne       r1, r4
  00028	1b000000	 blne        NKDbgPrintfW

; 338  : 
; 339  :     // Based on mask enable or disable
; 340  :     if (mask)
; 341  :         {
; 342  :         OALIntrDisableIrqs(1, &g_oalSysIntr2Irq[sysIntr]);

  0002c	e59f3038	 ldr         r3, [pc, #0x38]
  00030	e3550000	 cmp         r5, #0
  00034	e3a00001	 mov         r0, #1
  00038	e0831104	 add         r1, r3, r4, lsl #2
  0003c	0a000001	 beq         |$LN2@OEMInterru@3|
  00040	eb000000	 bl          OALIntrDisableIrqs

; 343  :         }
; 344  :     else 

  00044	ea000000	 b           |$LN1@OEMInterru@3|
  00048		 |$LN2@OEMInterru@3|

; 345  :         {
; 346  :         OALIntrEnableIrqs(1, &g_oalSysIntr2Irq[sysIntr]);

  00048	eb000000	 bl          OALIntrEnableIrqs
  0004c		 |$LN1@OEMInterru@3|

; 347  :         }
; 348  : 
; 349  :     OALMSG(OAL_INTR&&OAL_VERBOSE, (L"-OEMInterruptMask\r\n"));

  0004c	e5963440	 ldr         r3, [r6, #0x440]
  00050	e3130901	 tst         r3, #1, 18
  00054	13130902	 tstne       r3, #2, 18
  00058	159f0008	 ldrne       r0, [pc, #8]
  0005c	1b000000	 blne        NKDbgPrintfW

; 350  : }

  00060	e8bd4070	 ldmia       sp!, {r4 - r6, lr}
  00064	e12fff1e	 bx          lr
  00068		 |$LN12@OEMInterru@3|
  00068		 |$LN13@OEMInterru@3|
  00068	00000000	 DCD         |??_C@_1CI@OPHGDEL@?$AA?9?$AAO?$AAE?$AAM?$AAI?$AAn?$AAt?$AAe?$AAr?$AAr?$AAu?$AAp?$AAt?$AAM?$AAa?$AAs?$AAk?$AA?$AN?$AA?6?$AA?$AA@|
  0006c		 |$LN14@OEMInterru@3|
  0006c	00000000	 DCD         |g_oalSysIntr2Irq|
  00070		 |$LN15@OEMInterru@3|
  00070	00000000	 DCD         |??_C@_1DI@MFEEGIMP@?$AA?$CL?$AAO?$AAE?$AAM?$AAI?$AAn?$AAt?$AAe?$AAr?$AAr?$AAu?$AAp?$AAt?$AAM?$AAa?$AAs?$AAk?$AA?$CI?$AA?$CF?$AAd?$AA?0?$AA?5?$AA?$CF?$AAd?$AA?$CJ?$AA?$AN?$AA?6?$AA?$AA@|
  00074		 |$LN16@OEMInterru@3|
  00074	00000000	 DCD         |dpCurSettings|
  00078		 |$M39537|

			 ENDP  ; |OEMInterruptMask|

	EXPORT	|OEMInterruptDone|
	EXPORT	|??_C@_1CI@IOEKFHHP@?$AA?9?$AAO?$AAE?$AAM?$AAI?$AAn?$AAt?$AAe?$AAr?$AAr?$AAu?$AAp?$AAt?$AAD?$AAo?$AAn?$AAe?$AA?$AN?$AA?6?$AA?$AA@| [ DATA ] ; `string'
	EXPORT	|??_C@_1DA@HAMHGFMF@?$AA?$CL?$AAO?$AAE?$AAM?$AAI?$AAn?$AAt?$AAe?$AAr?$AAr?$AAu?$AAp?$AAt?$AAD?$AAo?$AAn?$AAe?$AA?$CI?$AA?$CF?$AAd?$AA?$CJ?$AA?$AN?$AA?6?$AA?$AA@| [ DATA ] ; `string'
	IMPORT	|OALIntrDoneIrqs|

  00000			 AREA	 |.pdata|, PDATA
|$T39556| DCD	|$LN9@OEMInterru@4|
	DCD	0x40001801

  00000			 AREA	 |.rdata|, DATA, READONLY
|??_C@_1CI@IOEKFHHP@?$AA?9?$AAO?$AAE?$AAM?$AAI?$AAn?$AAt?$AAe?$AAr?$AAr?$AAu?$AAp?$AAt?$AAD?$AAo?$AAn?$AAe?$AA?$AN?$AA?6?$AA?$AA@| DCB "-"
	DCB	0x0, "O", 0x0, "E", 0x0, "M", 0x0, "I", 0x0, "n", 0x0, "t"
	DCB	0x0, "e", 0x0, "r", 0x0, "r", 0x0, "u", 0x0, "p", 0x0, "t"
	DCB	0x0, "D", 0x0, "o", 0x0, "n", 0x0, "e", 0x0, 0xd, 0x0, 0xa
	DCB	0x0, 0x0, 0x0				; `string'

  00000			 AREA	 |.rdata|, DATA, READONLY
|??_C@_1DA@HAMHGFMF@?$AA?$CL?$AAO?$AAE?$AAM?$AAI?$AAn?$AAt?$AAe?$AAr?$AAr?$AAu?$AAp?$AAt?$AAD?$AAo?$AAn?$AAe?$AA?$CI?$AA?$CF?$AAd?$AA?$CJ?$AA?$AN?$AA?6?$AA?$AA@| DCB "+"
	DCB	0x0, "O", 0x0, "E", 0x0, "M", 0x0, "I", 0x0, "n", 0x0, "t"
	DCB	0x0, "e", 0x0, "r", 0x0, "r", 0x0, "u", 0x0, "p", 0x0, "t"
	DCB	0x0, "D", 0x0, "o", 0x0, "n", 0x0, "e", 0x0, "(", 0x0, "%"
	DCB	0x0, "d", 0x0, ")", 0x0, 0xd, 0x0, 0xa, 0x0, 0x0, 0x0 ; `string'
; Function compile flags: /Ogspy

  00000			 AREA	 |.text|, CODE, ARM

  00000		 |OEMInterruptDone| PROC

; 364  : {

  00000		 |$LN9@OEMInterru@4|
  00000	e92d4030	 stmdb       sp!, {r4, r5, lr}
  00004		 |$M39553|
  00004	e1a04000	 mov         r4, r0

; 365  :     OALMSG(OAL_INTR&&OAL_VERBOSE, (L"+OEMInterruptDone(%d)\r\n", sysIntr));

  00008	e59f504c	 ldr         r5, [pc, #0x4C]
  0000c	e5953440	 ldr         r3, [r5, #0x440]
  00010	e3130901	 tst         r3, #1, 18
  00014	13130902	 tstne       r3, #2, 18
  00018	159f0038	 ldrne       r0, [pc, #0x38]
  0001c	11a01004	 movne       r1, r4
  00020	1b000000	 blne        NKDbgPrintfW

; 366  : 
; 367  :     // Re-enable interrupts
; 368  :     OALIntrDoneIrqs(1, &g_oalSysIntr2Irq[sysIntr]);

  00024	e59f3028	 ldr         r3, [pc, #0x28]
  00028	e3a00001	 mov         r0, #1
  0002c	e0831104	 add         r1, r3, r4, lsl #2
  00030	eb000000	 bl          OALIntrDoneIrqs

; 369  :     
; 370  :     OALMSG(OAL_INTR&&OAL_VERBOSE, (L"-OEMInterruptDone\r\n"));

  00034	e5953440	 ldr         r3, [r5, #0x440]
  00038	e3130901	 tst         r3, #1, 18
  0003c	13130902	 tstne       r3, #2, 18
  00040	159f0008	 ldrne       r0, [pc, #8]
  00044	1b000000	 blne        NKDbgPrintfW

; 371  : }

  00048	e8bd4030	 ldmia       sp!, {r4, r5, lr}
  0004c	e12fff1e	 bx          lr
  00050		 |$LN10@OEMInterru@4|
  00050		 |$LN11@OEMInterru@4|
  00050	00000000	 DCD         |??_C@_1CI@IOEKFHHP@?$AA?9?$AAO?$AAE?$AAM?$AAI?$AAn?$AAt?$AAe?$AAr?$AAr?$AAu?$AAp?$AAt?$AAD?$AAo?$AAn?$AAe?$AA?$AN?$AA?6?$AA?$AA@|
  00054		 |$LN12@OEMInterru@4|
  00054	00000000	 DCD         |g_oalSysIntr2Irq|
  00058		 |$LN13@OEMInterru@4|
  00058	00000000	 DCD         |??_C@_1DA@HAMHGFMF@?$AA?$CL?$AAO?$AAE?$AAM?$AAI?$AAn?$AAt?$AAe?$AAr?$AAr?$AAu?$AAp?$AAt?$AAD?$AAo?$AAn?$AAe?$AA?$CI?$AA?$CF?$AAd?$AA?$CJ?$AA?$AN?$AA?6?$AA?$AA@|
  0005c		 |$LN14@OEMInterru@4|
  0005c	00000000	 DCD         |dpCurSettings|
  00060		 |$M39554|

			 ENDP  ; |OEMInterruptDone|

	END
