; Listing generated by Microsoft (R) Optimizing Compiler Version 14.01.60511.01 

	TTL	C:\WINCE600\PLATFORM\COMMON\SRC\SOC\COMMON_TI_V1\AM3517\OAL\MISC\feature.c
	CODE32

  00000			 AREA	 |.drectve|, DRECTVE
	DCB	"-defaultlib:LIBCMT "
	DCB	"-defaultlib:OLDNAMES "


  00000			 AREA	 |.rdata|, DATA, READONLY
|EdbgVendorIds| DCW 0x0
	DCW	0x0
	DCD	0x4033
	DCB	0x1
	DCB	"AD", 0x0
	DCW	0x1050
	DCW	0x940
	DCD	0x4005
	DCB	0x1
	DCB	"LS", 0x0
	DCW	0x1050
	DCW	0x940
	DCD	0x2078
	DCB	0x1
	DCB	"LS", 0x0
	DCW	0x10ec
	DCW	0x8029
	DCD	0xc0f0
	DCB	0x1
	DCB	"KS", 0x0
	DCW	0x10ec
	DCW	0x8129
	DCD	0x0
	DCB	0x4
	DCB	"RT", 0x0
	DCW	0x10ec
	DCW	0x8139
	DCD	0x900b
	DCB	0x4
	DCB	"RT", 0x0
	DCW	0x10ec
	DCW	0x8139
	DCD	0xd0c9
	DCB	0x4
	DCB	"RT", 0x0
	DCW	0x10ec
	DCW	0x8139
	DCD	0xe04c
	DCB	0x4
	DCB	"RT", 0x0
	DCW	0x1186
	DCW	0x1300
	DCD	0x50ba
	DCB	0x4
	DCB	"DL", 0x0
	DCW	0x100b
	DCW	0x20
	DCD	0xa0cc
	DCB	0x5
	DCB	"NG", 0x0
	DCW	0x10b7
	DCW	0x9050
	DCD	0x6008
	DCB	0x6
	DCB	"3C", 0x0
	DCW	0x10b7
	DCW	0x9200
	DCD	0x476
	DCB	0x6
	DCB	"3C", 0x0
|s_featureToArchitectureMask| DCD 0x80000001
	DCD	0x1fe
	DCD	0x80000002
	DCD	0x1f8
	DCD	0x80000003
	DCD	0x180
	DCD	0x80000004
	DCD	0x100
	DCD	0x80000005
	DCD	0x1f4
	DCD	0x80000006
	DCD	0xc0
	DCD	0x80000014
	DCD	0x180
	DCD	0x8000000f
	DCD	0x180
	DCD	0x80000010
	DCD	0x180
	DCD	0x80000017
	DCD	0x100
	DCD	0x8000001b
	DCD	0x100
	EXPORT	|OALIsProcessorFeaturePresent|
	EXPORT	|??_C@_1JA@LGLDCCHC@?$AAO?$AAA?$AAL?$AAI?$AAs?$AAP?$AAr?$AAo?$AAc?$AAe?$AAs?$AAs?$AAo?$AAr?$AAF?$AAe?$AAa?$AAt?$AAu?$AAr?$AAe?$AAP?$AAr?$AAe?$AAs?$AAe?$AAn?$AAt?$AA?3?$AA?5?$AA?$CI?$AA0@| [ DATA ] ; `string'
	IMPORT	|NKDbgPrintfW|
	IMPORT	|dpCurSettings|
	IMPORT	|OALGetIdCode|
; File c:\wince600\platform\common\src\soc\common_ti_v1\am3517\oal\misc\feature.c

  00000			 AREA	 |.pdata|, PDATA
|$T46184| DCD	|$LN17@OALIsProce|
	DCD	0x40003602

  00000			 AREA	 |.rdata|, DATA, READONLY
|??_C@_1JA@LGLDCCHC@?$AAO?$AAA?$AAL?$AAI?$AAs?$AAP?$AAr?$AAo?$AAc?$AAe?$AAs?$AAs?$AAo?$AAr?$AAF?$AAe?$AAa?$AAt?$AAu?$AAr?$AAe?$AAP?$AAr?$AAe?$AAs?$AAe?$AAn?$AAt?$AA?3?$AA?5?$AA?$CI?$AA0@| DCB "O"
	DCB	0x0, "A", 0x0, "L", 0x0, "I", 0x0, "s", 0x0, "P", 0x0, "r"
	DCB	0x0, "o", 0x0, "c", 0x0, "e", 0x0, "s", 0x0, "s", 0x0, "o"
	DCB	0x0, "r", 0x0, "F", 0x0, "e", 0x0, "a", 0x0, "t", 0x0, "u"
	DCB	0x0, "r", 0x0, "e", 0x0, "P", 0x0, "r", 0x0, "e", 0x0, "s"
	DCB	0x0, "e", 0x0, "n", 0x0, "t", 0x0, ":", 0x0, " ", 0x0, "("
	DCB	0x0, "0", 0x0, "x", 0x0, "%", 0x0, "0", 0x0, "8", 0x0, "x"
	DCB	0x0, ")", 0x0, " ", 0x0, "%", 0x0, "c", 0x0, " ", 0x0, "0"
	DCB	0x0, "x", 0x0, "%", 0x0, "0", 0x0, "2", 0x0, "x", 0x0, " "
	DCB	0x0, "0", 0x0, "x", 0x0, "%", 0x0, "0", 0x0, "3", 0x0, "x"
	DCB	0x0, " ", 0x0, "0", 0x0, "x", 0x0, "%", 0x0, "0", 0x0, "3"
	DCB	0x0, "x", 0x0, " ", 0x0, "0", 0x0, "x", 0x0, "%", 0x0, "0"
	DCB	0x0, "2", 0x0, "x", 0x0, 0xd, 0x0, 0xa, 0x0, 0x0, 0x0 ; `string'
; Function compile flags: /Ogspy

  00000			 AREA	 |.text|, CODE, ARM

  00000		 |OALIsProcessorFeaturePresent| PROC

; 110  : {

  00000		 |$LN17@OALIsProce|
  00000	e92d4070	 stmdb       sp!, {r4 - r6, lr}
  00004	e24dd00c	 sub         sp, sp, #0xC
  00008		 |$M46181|
  00008	e1a06000	 mov         r6, r0

; 111  :     BOOL rc = FALSE;

  0000c	e3a04000	 mov         r4, #0

; 112  :     IdCode_t idCode;
; 113  :     ULONG idx;
; 114  : 
; 115  :     // Cortex-A8 doesn't support feature query by architecture ID anymore
; 116  :     // Returning ARM features supported by OMAP35XX
; 117  :     idCode.code = OALGetIdCode();

  00010	eb000000	 bl          OALGetIdCode

; 118  :     idCode.architecture = ARCH_7;
; 119  : 
; 120  :     OALMSG(OAL_INFO&&OAL_VERBOSE, (
; 121  :         L"OALIsProcessorFeaturePresent: (0x%08x) %c 0x%02x 0x%03x 0x%03x 0x%02x\r\n",
; 122  :         idCode.code, idCode.implementor, idCode.variant, idCode.architecture, 
; 123  :         idCode.partNumber, idCode.revision
; 124  :         ));

  00014	e59f30b8	 ldr         r3, [pc, #0xB8]
  00018	e3c02807	 bic         r2, r0, #7, 16
  0001c	e3825702	 orr         r5, r2, #2, 14
  00020	e5933440	 ldr         r3, [r3, #0x440]
  00024	e3130008	 tst         r3, #8
  00028	0a00000f	 beq         |$LN8@OALIsProce|
  0002c	e3130902	 tst         r3, #2, 18
  00030	0a00000d	 beq         |$LN8@OALIsProce|
  00034	e1a03805	 mov         r3, r5, lsl #16
  00038	e1a02605	 mov         r2, r5, lsl #12
  0003c	e1a03a23	 mov         r3, r3, lsr #20
  00040	e59f0088	 ldr         r0, [pc, #0x88]
  00044	e1a02e22	 mov         r2, r2, lsr #28
  00048	e1a01405	 mov         r1, r5, lsl #8
  0004c	e58d3004	 str         r3, [sp, #4]
  00050	e1a03e21	 mov         r3, r1, lsr #28
  00054	e205e00f	 and         lr, r5, #0xF
  00058	e58d2000	 str         r2, [sp]
  0005c	e1a01005	 mov         r1, r5
  00060	e1a02c25	 mov         r2, r5, lsr #24
  00064	e58de008	 str         lr, [sp, #8]
  00068	eb000000	 bl          NKDbgPrintfW
  0006c		 |$LN8@OALIsProce|

; 125  :     
; 126  :     // Is it possible that this feature can be supported?
; 127  :     for (idx = 0; idx < dimof(s_featureToArchitectureMask); ++idx)

  0006c	e59f0058	 ldr         r0, [pc, #0x58]
  00070	e3a02000	 mov         r2, #0
  00074	e1a01000	 mov         r1, r0
  00078		 |$LL5@OALIsProce|

; 128  :         {
; 129  :         if (s_featureToArchitectureMask[idx].feature == feature) break;

  00078	e5913000	 ldr         r3, [r1]
  0007c	e1530006	 cmp         r3, r6
  00080	0a000003	 beq         |$LN13@OALIsProce|
  00084	e2822001	 add         r2, r2, #1
  00088	e352000b	 cmp         r2, #0xB
  0008c	e2811008	 add         r1, r1, #8
  00090	3afffff8	 bcc         |$LL5@OALIsProce|
  00094		 |$LN13@OALIsProce|

; 130  :         }
; 131  : 
; 132  :     if (idx < dimof(s_featureToArchitectureMask))

  00094	e352000b	 cmp         r2, #0xB
  00098	2a000007	 bcs         |$LN11@OALIsProce|

; 133  :         {
; 134  :         // Yes, so now see if this CPU supports this feature.
; 135  :         UINT32 mask = (1 << idCode.architecture);
; 136  :         rc = (s_featureToArchitectureMask[idx].mask & mask) != 0;

  0009c	e0803182	 add         r3, r0, r2, lsl #3
  000a0	e5932004	 ldr         r2, [r3, #4]
  000a4	e1a03605	 mov         r3, r5, lsl #12
  000a8	e1a03e23	 mov         r3, r3, lsr #28
  000ac	e3a01001	 mov         r1, #1
  000b0	e1120311	 tst         r2, r1, lsl r3
  000b4	13a04001	 movne       r4, #1
  000b8	03a04000	 moveq       r4, #0
  000bc		 |$LN11@OALIsProce|

; 137  :         }
; 138  :     return rc;
; 139  : }

  000bc	e1a00004	 mov         r0, r4
  000c0	e28dd00c	 add         sp, sp, #0xC
  000c4	e8bd4070	 ldmia       sp!, {r4 - r6, lr}
  000c8	e12fff1e	 bx          lr
  000cc		 |$LN18@OALIsProce|
  000cc		 |$LN19@OALIsProce|
  000cc	00000000	 DCD         |s_featureToArchitectureMask|
  000d0		 |$LN20@OALIsProce|
  000d0	00000000	 DCD         |??_C@_1JA@LGLDCCHC@?$AAO?$AAA?$AAL?$AAI?$AAs?$AAP?$AAr?$AAo?$AAc?$AAe?$AAs?$AAs?$AAo?$AAr?$AAF?$AAe?$AAa?$AAt?$AAu?$AAr?$AAe?$AAP?$AAr?$AAe?$AAs?$AAe?$AAn?$AAt?$AA?3?$AA?5?$AA?$CI?$AA0@|
  000d4		 |$LN21@OALIsProce|
  000d4	00000000	 DCD         |dpCurSettings|
  000d8		 |$M46182|

			 ENDP  ; |OALIsProcessorFeaturePresent|

	END
