; Listing generated by Microsoft (R) Optimizing Compiler Version 14.01.60511.01 

	TTL	C:\WINCE600\PLATFORM\Z2170P\SRC\DRIVERS\BACKLIGHT\gpio_backlight.cpp
	CODE32

  00000			 AREA	 |.drectve|, DRECTVE
	DCB	"-defaultlib:LIBCMT "
	DCB	"-defaultlib:OLDNAMES "

	EXPORT	|??_C@_1BE@MAKEJFGC@?$AAP?$AAo?$AAw?$AAe?$AAr?$AAM?$AAa?$AAs?$AAk?$AA?$AA@| [ DATA ] ; `string'
	EXPORT	|??_C@_19IAPNKDAH@?$AAG?$AAp?$AAi?$AAo?$AA?$AA@| [ DATA ] ; `string'

  00000			 AREA	 |.rdata|, DATA, READONLY
|s_deviceRegParams| DCD |??_C@_19IAPNKDAH@?$AAG?$AAp?$AAi?$AAo?$AA?$AA@|
	DCD	0x1
	DCD	0x0
	DCD	0x24
	DCD	0x4
	DCD	0xffffffff
	DCD	|??_C@_1BE@MAKEJFGC@?$AAP?$AAo?$AAw?$AAe?$AAr?$AAM?$AAa?$AAs?$AAk?$AA?$AA@|
	DCD	0x1
	DCD	0x1
	DCD	0x28
	DCD	0x4
	DCD	0x0

  00000			 AREA	 |.rdata|, DATA, READONLY
|??_C@_1BE@MAKEJFGC@?$AAP?$AAo?$AAw?$AAe?$AAr?$AAM?$AAa?$AAs?$AAk?$AA?$AA@| DCB "P"
	DCB	0x0, "o", 0x0, "w", 0x0, "e", 0x0, "r", 0x0, "M", 0x0, "a"
	DCB	0x0, "s", 0x0, "k", 0x0, 0x0, 0x0	; `string'

  00000			 AREA	 |.rdata|, DATA, READONLY
|??_C@_19IAPNKDAH@?$AAG?$AAp?$AAi?$AAo?$AA?$AA@| DCB "G", 0x0, "p", 0x0, "i"
	DCB	0x0, "o", 0x0, 0x0, 0x0			; `string'
	EXPORT	|??0CBacklightRoot@@QAA@XZ|		; CBacklightRoot::CBacklightRoot
	EXPORT	|??_7CBacklightRoot@@6B@| [ DATA ]	; CBacklightRoot::`vftable'
	EXPORT	|?Initialize@CBacklightRoot@@UAAHPBG@Z|	; CBacklightRoot::Initialize
	EXPORT	|?Uninitialize@CBacklightRoot@@UAAHXZ|	; CBacklightRoot::Uninitialize
	EXPORT	|?SetPowerState@CBacklightRoot@@UAAHW4_CEDEVICE_POWER_STATE@@@Z| ; CBacklightRoot::SetPowerState
	EXPORT	|?BacklightGetSupportedStates@CBacklightRoot@@UAAEXZ| ; CBacklightRoot::BacklightGetSupportedStates

  00000			 AREA	 |.pdata|, PDATA
|$T38903| DCD	|$LN5@CBacklight|
	DCD	0x40000500

  00000			 AREA	 |.rdata|, DATA, READONLY
|??_7CBacklightRoot@@6B@| DCD |?Initialize@CBacklightRoot@@UAAHPBG@Z| ; CBacklightRoot::`vftable'
	DCD	|?Uninitialize@CBacklightRoot@@UAAHXZ|
	DCD	|?SetPowerState@CBacklightRoot@@UAAHW4_CEDEVICE_POWER_STATE@@@Z|
	DCD	|?BacklightGetSupportedStates@CBacklightRoot@@UAAEXZ|
; Function compile flags: /Ogspy

  00000			 AREA	 |.text|, CODE, ARM

  00000		 |??0CBacklightRoot@@QAA@XZ| PROC	; CBacklightRoot::CBacklightRoot
  00000		 |$LN5@CBacklight|
  00000		 |$M38900|
  00000	e1a02000	 mov         r2, r0
  00004	e59f3004	 ldr         r3, [pc, #4]
  00008	e5823000	 str         r3, [r2]
  0000c	e12fff1e	 bx          lr
  00010		 |$LN6@CBacklight|
  00010		 |$LN7@CBacklight|
  00010	00000000	 DCD         |??_7CBacklightRoot@@6B@|
  00014		 |$M38901|

			 ENDP  ; |??0CBacklightRoot@@QAA@XZ|, CBacklightRoot::CBacklightRoot

; File c:\wince600\platform\common\src\soc\common_ti_v1\common_ti\inc\backlight_class.h

  00000			 AREA	 |.pdata|, PDATA
|$T38914| DCD	|$LN5@Initialize|
	DCD	0x40000200
; Function compile flags: /Ogspy

  00000			 AREA	 |.text|, CODE, ARM

  00000		 |?Initialize@CBacklightRoot@@UAAHPBG@Z| PROC ; CBacklightRoot::Initialize

; 44   :     virtual BOOL Initialize(LPCTSTR szContext)              {UNREFERENCED_PARAMETER(szContext); return TRUE;}

  00000		 |$LN5@Initialize|
  00000		 |$M38911|
  00000	e3a00001	 mov         r0, #1
  00004	e12fff1e	 bx          lr
  00008		 |$M38912|

			 ENDP  ; |?Initialize@CBacklightRoot@@UAAHPBG@Z|, CBacklightRoot::Initialize


  00000			 AREA	 |.pdata|, PDATA
|$T38923| DCD	|$LN5@Uninitiali|
	DCD	0x40000200
; Function compile flags: /Ogspy

  00000			 AREA	 |.text|, CODE, ARM

  00000		 |?Uninitialize@CBacklightRoot@@UAAHXZ| PROC ; CBacklightRoot::Uninitialize

; 45   :     virtual BOOL Uninitialize()                             {return TRUE;}

  00000		 |$LN5@Uninitiali|
  00000		 |$M38920|
  00000	e3a00001	 mov         r0, #1
  00004	e12fff1e	 bx          lr
  00008		 |$M38921|

			 ENDP  ; |?Uninitialize@CBacklightRoot@@UAAHXZ|, CBacklightRoot::Uninitialize


  00000			 AREA	 |.pdata|, PDATA
|$T38932| DCD	|$LN5@SetPowerSt|
	DCD	0x40000200
; Function compile flags: /Ogspy

  00000			 AREA	 |.text|, CODE, ARM

  00000		 |?SetPowerState@CBacklightRoot@@UAAHW4_CEDEVICE_POWER_STATE@@@Z| PROC ; CBacklightRoot::SetPowerState

; 46   :     virtual BOOL SetPowerState(CEDEVICE_POWER_STATE power)  {UNREFERENCED_PARAMETER(power); return TRUE;}

  00000		 |$LN5@SetPowerSt|
  00000		 |$M38929|
  00000	e3a00001	 mov         r0, #1
  00004	e12fff1e	 bx          lr
  00008		 |$M38930|

			 ENDP  ; |?SetPowerState@CBacklightRoot@@UAAHW4_CEDEVICE_POWER_STATE@@@Z|, CBacklightRoot::SetPowerState


  00000			 AREA	 |.pdata|, PDATA
|$T38941| DCD	|$LN5@BacklightG|
	DCD	0x40000200
; Function compile flags: /Ogspy

  00000			 AREA	 |.text|, CODE, ARM

  00000		 |?BacklightGetSupportedStates@CBacklightRoot@@UAAEXZ| PROC ; CBacklightRoot::BacklightGetSupportedStates

; 47   :     virtual UCHAR BacklightGetSupportedStates( )            { return 0;}

  00000		 |$LN5@BacklightG|
  00000		 |$M38938|
  00000	e3a00000	 mov         r0, #0
  00004	e12fff1e	 bx          lr
  00008		 |$M38939|

			 ENDP  ; |?BacklightGetSupportedStates@CBacklightRoot@@UAAEXZ|, CBacklightRoot::BacklightGetSupportedStates

	EXPORT	|?Initialize@GPIO_Backlight@@UAAHPBG@Z|	; GPIO_Backlight::Initialize
	EXPORT	|??_C@_1EI@BOIOAFIM@?$AA?9?$AAG?$AAP?$AAI?$AAO?$AA_?$AAB?$AAa?$AAc?$AAk?$AAl?$AAi?$AAg?$AAh?$AAt?$AA?3?$AA?3?$AAI?$AAn?$AAi?$AAt?$AAi?$AAa?$AAl?$AAi?$AAz?$AAe?$AA?5?$AA?$DN?$AA?$DN?$AA?5?$AA?$CF@| [ DATA ] ; `string'
	EXPORT	|??_C@_1FE@FHNGNNPF@?$AA?5?$AAG?$AAP?$AAI?$AAO?$AA_?$AAB?$AAa?$AAc?$AAk?$AAl?$AAi?$AAg?$AAh?$AAt?$AA?3?$AA?3?$AAI?$AAn?$AAi?$AAt?$AAi?$AAa?$AAl?$AAi?$AAz?$AAe?$AA?5?$AA?9?$AA?5?$AAg?$AAp@| [ DATA ] ; `string'
	EXPORT	|??_C@_1EE@CCLNBPAA@?$AA?$CL?$AAG?$AAP?$AAI?$AAO?$AA_?$AAB?$AAa?$AAc?$AAk?$AAl?$AAi?$AAg?$AAh?$AAt?$AA?3?$AA?3?$AAI?$AAn?$AAi?$AAt?$AAi?$AAa?$AAl?$AAi?$AAz?$AAe?$AA?$CI?$AA?$CF?$AAs?$AA?$CJ?$AA?$AN@| [ DATA ] ; `string'
	IMPORT	|GPIOSetMode|
	IMPORT	|GPIOOpen|
	IMPORT	|GetDeviceRegistryParams|
	IMPORT	|?Initialize@TLED_Backlight@@UAAHPBG@Z|	; TLED_Backlight::Initialize
	IMPORT	|NKDbgPrintfW|
; File c:\wince600\platform\z2170p\src\drivers\backlight\gpio_backlight.cpp

  00000			 AREA	 |.pdata|, PDATA
|$T38960| DCD	|$LN20@Initialize@2|
	DCD	0x40002a01

  00000			 AREA	 |.rdata|, DATA, READONLY
|??_C@_1EI@BOIOAFIM@?$AA?9?$AAG?$AAP?$AAI?$AAO?$AA_?$AAB?$AAa?$AAc?$AAk?$AAl?$AAi?$AAg?$AAh?$AAt?$AA?3?$AA?3?$AAI?$AAn?$AAi?$AAt?$AAi?$AAa?$AAl?$AAi?$AAz?$AAe?$AA?5?$AA?$DN?$AA?$DN?$AA?5?$AA?$CF@| DCB "-"
	DCB	0x0, "G", 0x0, "P", 0x0, "I", 0x0, "O", 0x0, "_", 0x0, "B"
	DCB	0x0, "a", 0x0, "c", 0x0, "k", 0x0, "l", 0x0, "i", 0x0, "g"
	DCB	0x0, "h", 0x0, "t", 0x0, ":", 0x0, ":", 0x0, "I", 0x0, "n"
	DCB	0x0, "i", 0x0, "t", 0x0, "i", 0x0, "a", 0x0, "l", 0x0, "i"
	DCB	0x0, "z", 0x0, "e", 0x0, " ", 0x0, "=", 0x0, "=", 0x0, " "
	DCB	0x0, "%", 0x0, "d", 0x0, 0xd, 0x0, 0xa, 0x0, 0x0, 0x0 ; `string'

  00000			 AREA	 |.rdata|, DATA, READONLY
|??_C@_1FE@FHNGNNPF@?$AA?5?$AAG?$AAP?$AAI?$AAO?$AA_?$AAB?$AAa?$AAc?$AAk?$AAl?$AAi?$AAg?$AAh?$AAt?$AA?3?$AA?3?$AAI?$AAn?$AAi?$AAt?$AAi?$AAa?$AAl?$AAi?$AAz?$AAe?$AA?5?$AA?9?$AA?5?$AAg?$AAp@| DCB " "
	DCB	0x0, "G", 0x0, "P", 0x0, "I", 0x0, "O", 0x0, "_", 0x0, "B"
	DCB	0x0, "a", 0x0, "c", 0x0, "k", 0x0, "l", 0x0, "i", 0x0, "g"
	DCB	0x0, "h", 0x0, "t", 0x0, ":", 0x0, ":", 0x0, "I", 0x0, "n"
	DCB	0x0, "i", 0x0, "t", 0x0, "i", 0x0, "a", 0x0, "l", 0x0, "i"
	DCB	0x0, "z", 0x0, "e", 0x0, " ", 0x0, "-", 0x0, " ", 0x0, "g"
	DCB	0x0, "p", 0x0, "i", 0x0, "o", 0x0, " ", 0x0, "=", 0x0, " "
	DCB	0x0, "%", 0x0, "d", 0x0, 0xd, 0x0, 0xa, 0x0, 0x0, 0x0 ; `string'

  00000			 AREA	 |.rdata|, DATA, READONLY
|??_C@_1EE@CCLNBPAA@?$AA?$CL?$AAG?$AAP?$AAI?$AAO?$AA_?$AAB?$AAa?$AAc?$AAk?$AAl?$AAi?$AAg?$AAh?$AAt?$AA?3?$AA?3?$AAI?$AAn?$AAi?$AAt?$AAi?$AAa?$AAl?$AAi?$AAz?$AAe?$AA?$CI?$AA?$CF?$AAs?$AA?$CJ?$AA?$AN@| DCB "+"
	DCB	0x0, "G", 0x0, "P", 0x0, "I", 0x0, "O", 0x0, "_", 0x0, "B"
	DCB	0x0, "a", 0x0, "c", 0x0, "k", 0x0, "l", 0x0, "i", 0x0, "g"
	DCB	0x0, "h", 0x0, "t", 0x0, ":", 0x0, ":", 0x0, "I", 0x0, "n"
	DCB	0x0, "i", 0x0, "t", 0x0, "i", 0x0, "a", 0x0, "l", 0x0, "i"
	DCB	0x0, "z", 0x0, "e", 0x0, "(", 0x0, "%", 0x0, "s", 0x0, ")"
	DCB	0x0, 0xd, 0x0, 0xa, 0x0, 0x0, 0x0	; `string'
; Function compile flags: /Ogspy

  00000			 AREA	 |.text|, CODE, ARM

  00000		 |?Initialize@GPIO_Backlight@@UAAHPBG@Z| PROC ; GPIO_Backlight::Initialize

; 46   : {

  00000		 |$LN20@Initialize@2|
  00000	e92d4070	 stmdb       sp!, {r4 - r6, lr}
  00004		 |$M38957|
  00004	e1a06001	 mov         r6, r1
  00008	e1a05000	 mov         r5, r0

; 47   :     RETAILMSG(1, (L"+GPIO_Backlight::Initialize(%s)\r\n", szContext));

  0000c	e59f0090	 ldr         r0, [pc, #0x90]
  00010	eb000000	 bl          NKDbgPrintfW

; 48   : 
; 49   :     BOOL rc = FALSE;
; 50   : 
; 51   :     if (ParentClass::Initialize(szContext) == FALSE)

  00014	e1a01006	 mov         r1, r6
  00018	e1a00005	 mov         r0, r5
  0001c	e3a04000	 mov         r4, #0
  00020	eb000000	 bl          |?Initialize@TLED_Backlight@@UAAHPBG@Z|
  00024	e3500000	 cmp         r0, #0
  00028	0a000014	 beq         |$cleanUp$38792|

; 52   : 	{
; 53   :         DEBUGMSG(ZONE_ERROR, (L"ERROR: GPIO_Backlight::Initialize: "
; 54   :             L"Parent class failed to initialize\r\n"));
; 55   :         goto cleanUp;
; 56   : 	}
; 57   : 
; 58   :     // Read device parameters
; 59   :     if (GetDeviceRegistryParams(
; 60   :             szContext, this, dimof(s_deviceRegParams), s_deviceRegParams) != ERROR_SUCCESS)

  0002c	e59f306c	 ldr         r3, [pc, #0x6C]
  00030	e3a02002	 mov         r2, #2
  00034	e1a01005	 mov         r1, r5
  00038	e1a00006	 mov         r0, r6
  0003c	eb000000	 bl          GetDeviceRegistryParams
  00040	e3500000	 cmp         r0, #0
  00044	1a00000d	 bne         |$cleanUp$38792|

; 61   : 	{
; 62   :         DEBUGMSG(ZONE_ERROR, (L"ERROR: GPIO_Backlight::Initialize: "
; 63   :             L"Failed read gpio driver registry parameters\r\n"));
; 64   :         goto cleanUp;
; 65   : 	}
; 66   : 	RETAILMSG(1, (L" GPIO_Backlight::Initialize - gpio = %d\r\n", m_gpioId));

  00048	e5951024	 ldr         r1, [r5, #0x24]
  0004c	e59f0048	 ldr         r0, [pc, #0x48]
  00050	eb000000	 bl          NKDbgPrintfW

; 67   :     // GPIO pin not configured, tled only
; 68   :     if (m_gpioId == GPIO_NOT_USED)

  00054	e5953024	 ldr         r3, [r5, #0x24]
  00058	e3730001	 cmn         r3, #1

; 88   : cleanUp:

  0005c	0a000006	 beq         |$LN17@Initialize@2|
  00060	eb000000	 bl          GPIOOpen
  00064	e3500000	 cmp         r0, #0
  00068	e5850020	 str         r0, [r5, #0x20]
  0006c	0a000003	 beq         |$cleanUp$38792|
  00070	e5951024	 ldr         r1, [r5, #0x24]
  00074	e3a02000	 mov         r2, #0
  00078	eb000000	 bl          GPIOSetMode
  0007c		 |$LN17@Initialize@2|

; 69   :     {
; 70   :         DEBUGMSG(ZONE_FUNCTION, (
; 71   :             L"GPIO_Backlight::Initialize: No GPIO pin allocated, continuing...\r\n"));
; 72   :         rc = TRUE;
; 73   :         goto cleanUp;
; 74   :     }
; 75   : 
; 76   :     m_hGpio = GPIOOpen();
; 77   :     if (m_hGpio == NULL)
; 78   : 	{
; 79   :         DEBUGMSG(ZONE_ERROR, (L"ERROR: GPIO_Backlight::Initialize: "
; 80   :             L"Failed allocate GPIO handle\r\n"));
; 81   :         goto cleanUp;
; 82   : 	}
; 83   : 
; 84   :     // setup for output mode
; 85   :     GPIOSetMode(m_hGpio, m_gpioId, GPIO_DIR_OUTPUT);
; 86   : 
; 87   :     rc = TRUE;

  0007c	e3a04001	 mov         r4, #1
  00080		 |$cleanUp$38792|

; 89   :     RETAILMSG(1, (L"-GPIO_Backlight::Initialize == %d\r\n", rc));

  00080	e59f0010	 ldr         r0, [pc, #0x10]
  00084	e1a01004	 mov         r1, r4
  00088	eb000000	 bl          NKDbgPrintfW

; 90   : 
; 91   :     return rc;
; 92   : }

  0008c	e1a00004	 mov         r0, r4
  00090	e8bd4070	 ldmia       sp!, {r4 - r6, lr}
  00094	e12fff1e	 bx          lr
  00098		 |$LN21@Initialize@2|
  00098		 |$LN22@Initialize@2|
  00098	00000000	 DCD         |??_C@_1EI@BOIOAFIM@?$AA?9?$AAG?$AAP?$AAI?$AAO?$AA_?$AAB?$AAa?$AAc?$AAk?$AAl?$AAi?$AAg?$AAh?$AAt?$AA?3?$AA?3?$AAI?$AAn?$AAi?$AAt?$AAi?$AAa?$AAl?$AAi?$AAz?$AAe?$AA?5?$AA?$DN?$AA?$DN?$AA?5?$AA?$CF@|
  0009c		 |$LN23@Initialize@2|
  0009c	00000000	 DCD         |??_C@_1FE@FHNGNNPF@?$AA?5?$AAG?$AAP?$AAI?$AAO?$AA_?$AAB?$AAa?$AAc?$AAk?$AAl?$AAi?$AAg?$AAh?$AAt?$AA?3?$AA?3?$AAI?$AAn?$AAi?$AAt?$AAi?$AAa?$AAl?$AAi?$AAz?$AAe?$AA?5?$AA?9?$AA?5?$AAg?$AAp@|
  000a0		 |$LN24@Initialize@2|
  000a0	00000000	 DCD         |s_deviceRegParams|
  000a4		 |$LN25@Initialize@2|
  000a4	00000000	 DCD         |??_C@_1EE@CCLNBPAA@?$AA?$CL?$AAG?$AAP?$AAI?$AAO?$AA_?$AAB?$AAa?$AAc?$AAk?$AAl?$AAi?$AAg?$AAh?$AAt?$AA?3?$AA?3?$AAI?$AAn?$AAi?$AAt?$AAi?$AAa?$AAl?$AAi?$AAz?$AAe?$AA?$CI?$AA?$CF?$AAs?$AA?$CJ?$AA?$AN@|
  000a8		 |$M38958|

			 ENDP  ; |?Initialize@GPIO_Backlight@@UAAHPBG@Z|, GPIO_Backlight::Initialize

	EXPORT	|?Uninitialize@GPIO_Backlight@@UAAHXZ|	; GPIO_Backlight::Uninitialize
	IMPORT	|GPIOClose|
	IMPORT	|?Uninitialize@TLED_Backlight@@UAAHXZ|	; TLED_Backlight::Uninitialize

  00000			 AREA	 |.pdata|, PDATA
|$T38975| DCD	|$LN6@Uninitiali@2|
	DCD	0x40000d01
; Function compile flags: /Ogspy

  00000			 AREA	 |.text|, CODE, ARM

  00000		 |?Uninitialize@GPIO_Backlight@@UAAHXZ| PROC ; GPIO_Backlight::Uninitialize

; 103  : {

  00000		 |$LN6@Uninitiali@2|
  00000	e92d4010	 stmdb       sp!, {r4, lr}
  00004		 |$M38972|
  00004	e1a04000	 mov         r4, r0

; 104  :     DEBUGMSG(ZONE_FUNCTION, (L"+GPIO_Backlight::Uninitialize()\r\n"));
; 105  : 
; 106  :     ParentClass::Uninitialize();

  00008	eb000000	 bl          |?Uninitialize@TLED_Backlight@@UAAHXZ|

; 107  : 
; 108  :     // release gpio handle
; 109  :     if (m_hGpio != NULL)

  0000c	e5943020	 ldr         r3, [r4, #0x20]
  00010	e3530000	 cmp         r3, #0
  00014	0a000003	 beq         |$LN1@Uninitiali@2|

; 110  : 	{
; 111  :         GPIOClose(m_hGpio);

  00018	e1a00003	 mov         r0, r3
  0001c	eb000000	 bl          GPIOClose

; 112  :         m_hGpio = NULL;

  00020	e3a03000	 mov         r3, #0
  00024	e5843020	 str         r3, [r4, #0x20]
  00028		 |$LN1@Uninitiali@2|

; 113  : 	}
; 114  : 
; 115  :     DEBUGMSG(ZONE_FUNCTION, (L"-GPIO_Backlight::Uninitialize()\r\n"));
; 116  : 
; 117  :     return TRUE;

  00028	e3a00001	 mov         r0, #1

; 118  : }

  0002c	e8bd4010	 ldmia       sp!, {r4, lr}
  00030	e12fff1e	 bx          lr
  00034		 |$M38973|

			 ENDP  ; |?Uninitialize@GPIO_Backlight@@UAAHXZ|, GPIO_Backlight::Uninitialize

	EXPORT	|?SetPowerState@GPIO_Backlight@@UAAHW4_CEDEVICE_POWER_STATE@@@Z| ; GPIO_Backlight::SetPowerState
	EXPORT	|??_C@_1FC@CLEIMDEB@?$AA?9?$AAG?$AAP?$AAI?$AAO?$AA_?$AAB?$AAa?$AAc?$AAk?$AAl?$AAi?$AAg?$AAh?$AAt?$AA?3?$AA?3?$AAS?$AAe?$AAt?$AAP?$AAo?$AAw?$AAe?$AAr?$AAS?$AAt?$AAa?$AAt?$AAe?$AA?$CI?$AA0@| [ DATA ] ; `string'
	EXPORT	|??_C@_1FC@PBJPIOBM@?$AA?$CL?$AAG?$AAP?$AAI?$AAO?$AA_?$AAB?$AAa?$AAc?$AAk?$AAl?$AAi?$AAg?$AAh?$AAt?$AA?3?$AA?3?$AAS?$AAe?$AAt?$AAP?$AAo?$AAw?$AAe?$AAr?$AAS?$AAt?$AAa?$AAt?$AAe?$AA?$CI?$AA0@| [ DATA ] ; `string'
	IMPORT	|GPIOSetBit|
	IMPORT	|GPIOClrBit|
	IMPORT	|?SetPowerState@TLED_Backlight@@UAAHW4_CEDEVICE_POWER_STATE@@@Z| ; TLED_Backlight::SetPowerState

  00000			 AREA	 |.pdata|, PDATA
|$T38990| DCD	|$LN16@SetPowerSt@2|
	DCD	0x40002f01

  00000			 AREA	 |.rdata|, DATA, READONLY
|??_C@_1FC@CLEIMDEB@?$AA?9?$AAG?$AAP?$AAI?$AAO?$AA_?$AAB?$AAa?$AAc?$AAk?$AAl?$AAi?$AAg?$AAh?$AAt?$AA?3?$AA?3?$AAS?$AAe?$AAt?$AAP?$AAo?$AAw?$AAe?$AAr?$AAS?$AAt?$AAa?$AAt?$AAe?$AA?$CI?$AA0@| DCB "-"
	DCB	0x0, "G", 0x0, "P", 0x0, "I", 0x0, "O", 0x0, "_", 0x0, "B"
	DCB	0x0, "a", 0x0, "c", 0x0, "k", 0x0, "l", 0x0, "i", 0x0, "g"
	DCB	0x0, "h", 0x0, "t", 0x0, ":", 0x0, ":", 0x0, "S", 0x0, "e"
	DCB	0x0, "t", 0x0, "P", 0x0, "o", 0x0, "w", 0x0, "e", 0x0, "r"
	DCB	0x0, "S", 0x0, "t", 0x0, "a", 0x0, "t", 0x0, "e", 0x0, "("
	DCB	0x0, "0", 0x0, "x", 0x0, "%", 0x0, "0", 0x0, "8", 0x0, "X"
	DCB	0x0, ")", 0x0, 0xd, 0x0, 0xa, 0x0, 0x0, 0x0 ; `string'

  00000			 AREA	 |.rdata|, DATA, READONLY
|??_C@_1FC@PBJPIOBM@?$AA?$CL?$AAG?$AAP?$AAI?$AAO?$AA_?$AAB?$AAa?$AAc?$AAk?$AAl?$AAi?$AAg?$AAh?$AAt?$AA?3?$AA?3?$AAS?$AAe?$AAt?$AAP?$AAo?$AAw?$AAe?$AAr?$AAS?$AAt?$AAa?$AAt?$AAe?$AA?$CI?$AA0@| DCB "+"
	DCB	0x0, "G", 0x0, "P", 0x0, "I", 0x0, "O", 0x0, "_", 0x0, "B"
	DCB	0x0, "a", 0x0, "c", 0x0, "k", 0x0, "l", 0x0, "i", 0x0, "g"
	DCB	0x0, "h", 0x0, "t", 0x0, ":", 0x0, ":", 0x0, "S", 0x0, "e"
	DCB	0x0, "t", 0x0, "P", 0x0, "o", 0x0, "w", 0x0, "e", 0x0, "r"
	DCB	0x0, "S", 0x0, "t", 0x0, "a", 0x0, "t", 0x0, "e", 0x0, "("
	DCB	0x0, "0", 0x0, "x", 0x0, "%", 0x0, "0", 0x0, "8", 0x0, "X"
	DCB	0x0, ")", 0x0, 0xd, 0x0, 0xa, 0x0, 0x0, 0x0 ; `string'
; Function compile flags: /Ogspy

  00000			 AREA	 |.text|, CODE, ARM

  00000		 |?SetPowerState@GPIO_Backlight@@UAAHW4_CEDEVICE_POWER_STATE@@@Z| PROC ; GPIO_Backlight::SetPowerState

; 128  : {

  00000		 |$LN16@SetPowerSt@2|
  00000	e92d4030	 stmdb       sp!, {r4, r5, lr}
  00004		 |$M38987|
  00004	e1a04001	 mov         r4, r1
  00008	e1a05000	 mov         r5, r0

; 129  :     RETAILMSG(1, (L"+GPIO_Backlight::SetPowerState(0x%08X)\r\n", power));

  0000c	e59f00a4	 ldr         r0, [pc, #0xA4]
  00010	eb000000	 bl          NKDbgPrintfW

; 130  : 
; 131  :     ParentClass::SetPowerState(power);

  00014	e1a01004	 mov         r1, r4
  00018	e1a00005	 mov         r0, r5
  0001c	eb000000	 bl          |?SetPowerState@TLED_Backlight@@UAAHW4_CEDEVICE_POWER_STATE@@@Z|

; 132  : 
; 133  :     if (m_gpioId == GPIO_NOT_USED)

  00020	e5951024	 ldr         r1, [r5, #0x24]
  00024	e3710001	 cmn         r1, #1
  00028	0a00001b	 beq         |$cleanUp$38817|

; 134  :         goto cleanUp;
; 135  :     
; 136  :     switch (power)

  0002c	e3540000	 cmp         r4, #0
  00030	4a000019	 bmi         |$cleanUp$38817|
  00034	e3540001	 cmp         r4, #1
  00038	da000015	 ble         |$LN3@SetPowerSt@2|
  0003c	e3540002	 cmp         r4, #2
  00040	da000015	 ble         |$cleanUp$38817|
  00044	e3540004	 cmp         r4, #4
  00048	ca000013	 bgt         |$cleanUp$38817|

; 141  :             break;
; 142  :             
; 143  :         case D2: // 2
; 144  :         	break; // brian test
; 145  :         	
; 146  :         case D3:
; 147  :         case D4: // 4
; 148  :             GPIOClrBit(m_hGpio, m_gpioId);

  0004c	e5950020	 ldr         r0, [r5, #0x20]
  00050	eb000000	 bl          GPIOClrBit

; 149  :             // brian test
; 150  :             GPIOSetBit(m_hGpio, 37);

  00054	e5950020	 ldr         r0, [r5, #0x20]
  00058	e3a01025	 mov         r1, #0x25
  0005c	eb000000	 bl          GPIOSetBit

; 151  :             GPIOClrBit(m_hGpio, 38);

  00060	e5950020	 ldr         r0, [r5, #0x20]
  00064	e3a01026	 mov         r1, #0x26
  00068	eb000000	 bl          GPIOClrBit

; 152  :             GPIOClrBit(m_hGpio, 15);

  0006c	e5950020	 ldr         r0, [r5, #0x20]
  00070	e3a0100f	 mov         r1, #0xF
  00074	eb000000	 bl          GPIOClrBit

; 153  :             GPIOClrBit(m_hGpio, 16);

  00078	e5950020	 ldr         r0, [r5, #0x20]
  0007c	e3a01010	 mov         r1, #0x10
  00080	eb000000	 bl          GPIOClrBit

; 154  :             GPIOClrBit(m_hGpio, 34);

  00084	e5950020	 ldr         r0, [r5, #0x20]
  00088	e3a01022	 mov         r1, #0x22
  0008c	eb000000	 bl          GPIOClrBit

; 155  :             
; 156  :             break;

  00090	ea000001	 b           |$cleanUp$38817|
  00094		 |$LN3@SetPowerSt@2|

; 137  : 	{
; 138  :         case D0: // 0
; 139  :         case D1: // 1
; 140  :             GPIOSetBit(m_hGpio, m_gpioId);

  00094	e5950020	 ldr         r0, [r5, #0x20]
  00098	eb000000	 bl          GPIOSetBit
  0009c		 |$cleanUp$38817|

; 157  : 	}    
; 158  : 
; 159  : cleanUp:
; 160  :     RETAILMSG(1, (L"-GPIO_Backlight::SetPowerState(0x%08X)\r\n", power));

  0009c	e59f0010	 ldr         r0, [pc, #0x10]
  000a0	e1a01004	 mov         r1, r4
  000a4	eb000000	 bl          NKDbgPrintfW

; 161  :     
; 162  :     return TRUE;

  000a8	e3a00001	 mov         r0, #1

; 163  : }

  000ac	e8bd4030	 ldmia       sp!, {r4, r5, lr}
  000b0	e12fff1e	 bx          lr
  000b4		 |$LN17@SetPowerSt@2|
  000b4		 |$LN18@SetPowerSt@2|
  000b4	00000000	 DCD         |??_C@_1FC@CLEIMDEB@?$AA?9?$AAG?$AAP?$AAI?$AAO?$AA_?$AAB?$AAa?$AAc?$AAk?$AAl?$AAi?$AAg?$AAh?$AAt?$AA?3?$AA?3?$AAS?$AAe?$AAt?$AAP?$AAo?$AAw?$AAe?$AAr?$AAS?$AAt?$AAa?$AAt?$AAe?$AA?$CI?$AA0@|
  000b8		 |$LN19@SetPowerSt@2|
  000b8	00000000	 DCD         |??_C@_1FC@PBJPIOBM@?$AA?$CL?$AAG?$AAP?$AAI?$AAO?$AA_?$AAB?$AAa?$AAc?$AAk?$AAl?$AAi?$AAg?$AAh?$AAt?$AA?3?$AA?3?$AAS?$AAe?$AAt?$AAP?$AAo?$AAw?$AAe?$AAr?$AAS?$AAt?$AAa?$AAt?$AAe?$AA?$CI?$AA0@|
  000bc		 |$M38988|

			 ENDP  ; |?SetPowerState@GPIO_Backlight@@UAAHW4_CEDEVICE_POWER_STATE@@@Z|, GPIO_Backlight::SetPowerState

	EXPORT	|?BacklightGetSupportedStates@GPIO_Backlight@@UAAEXZ| ; GPIO_Backlight::BacklightGetSupportedStates

  00000			 AREA	 |.pdata|, PDATA
|$T39003| DCD	|$LN5@BacklightG@2|
	DCD	0x40000300
; Function compile flags: /Ogspy

  00000			 AREA	 |.text|, CODE, ARM

  00000		 |?BacklightGetSupportedStates@GPIO_Backlight@@UAAEXZ| PROC ; GPIO_Backlight::BacklightGetSupportedStates

; 171  : {

  00000		 |$LN5@BacklightG@2|
  00000		 |$M39000|

; 172  :     DEBUGMSG( ZONE_INFO, (L"Backlight supported states bitmap: 0x%x\r\n",m_powerMask));
; 173  : 
; 174  :     return (UCHAR) m_powerMask;

  00000	e5903028	 ldr         r3, [r0, #0x28]
  00004	e20300ff	 and         r0, r3, #0xFF

; 175  : }

  00008	e12fff1e	 bx          lr
  0000c		 |$M39001|

			 ENDP  ; |?BacklightGetSupportedStates@GPIO_Backlight@@UAAEXZ|, GPIO_Backlight::BacklightGetSupportedStates

	EXPORT	|??0TLED_Backlight@@QAA@XZ|		; TLED_Backlight::TLED_Backlight
	EXPORT	|??_7TLED_Backlight@@6B@| [ DATA ]	; TLED_Backlight::`vftable'
; File c:\wince600\platform\z2170p\src\drivers\backlight\bsp_backlight_class.h

  00000			 AREA	 |.pdata|, PDATA
|$T39016| DCD	|$LN7@TLED_Backl|
	DCD	0x40000800

  00000			 AREA	 |.rdata|, DATA, READONLY
|??_7TLED_Backlight@@6B@| DCD |?Initialize@TLED_Backlight@@UAAHPBG@Z| ; TLED_Backlight::`vftable'
	DCD	|?Uninitialize@TLED_Backlight@@UAAHXZ|
	DCD	|?SetPowerState@TLED_Backlight@@UAAHW4_CEDEVICE_POWER_STATE@@@Z|
	DCD	|?BacklightGetSupportedStates@CBacklightRoot@@UAAEXZ|
; Function compile flags: /Ogspy

  00000			 AREA	 |.text|, CODE, ARM

  00000		 |??0TLED_Backlight@@QAA@XZ| PROC	; TLED_Backlight::TLED_Backlight

; 43   :     TLED_Backlight() : m_hTled(NULL), m_channel((DWORD) -1)     {};

  00000		 |$LN7@TLED_Backl|
  00000		 |$M39013|
  00000	e59f3014	 ldr         r3, [pc, #0x14]
  00004	e3a02000	 mov         r2, #0
  00008	e3e01000	 mvn         r1, #0
  0000c	e5803000	 str         r3, [r0]
  00010	e5802004	 str         r2, [r0, #4]
  00014	e5801008	 str         r1, [r0, #8]
  00018	e12fff1e	 bx          lr
  0001c		 |$LN8@TLED_Backl|
  0001c		 |$LN9@TLED_Backl|
  0001c	00000000	 DCD         |??_7TLED_Backlight@@6B@|
  00020		 |$M39014|

			 ENDP  ; |??0TLED_Backlight@@QAA@XZ|, TLED_Backlight::TLED_Backlight

	EXPORT	|??0GPIO_Backlight@@QAA@XZ|		; GPIO_Backlight::GPIO_Backlight
	EXPORT	|??_7GPIO_Backlight@@6B@| [ DATA ]	; GPIO_Backlight::`vftable'

  00000			 AREA	 |.pdata|, PDATA
|$T39036| DCD	|$LN9@GPIO_Backl|
	DCD	0x40000a00

  00000			 AREA	 |.rdata|, DATA, READONLY
|??_7GPIO_Backlight@@6B@| DCD |?Initialize@GPIO_Backlight@@UAAHPBG@Z| ; GPIO_Backlight::`vftable'
	DCD	|?Uninitialize@GPIO_Backlight@@UAAHXZ|
	DCD	|?SetPowerState@GPIO_Backlight@@UAAHW4_CEDEVICE_POWER_STATE@@@Z|
	DCD	|?BacklightGetSupportedStates@GPIO_Backlight@@UAAEXZ|
; Function compile flags: /Ogspy

  00000			 AREA	 |.text|, CODE, ARM

  00000		 |??0GPIO_Backlight@@QAA@XZ| PROC	; GPIO_Backlight::GPIO_Backlight

; 79   :     GPIO_Backlight() : m_hGpio(NULL), m_gpioId((DWORD) -1)      {};

  00000		 |$LN9@GPIO_Backl|
  00000		 |$M39033|
  00000	e59f301c	 ldr         r3, [pc, #0x1C]
  00004	e3a02000	 mov         r2, #0
  00008	e3e01000	 mvn         r1, #0
  0000c	e5803000	 str         r3, [r0]
  00010	e5802004	 str         r2, [r0, #4]
  00014	e5801008	 str         r1, [r0, #8]
  00018	e5802020	 str         r2, [r0, #0x20]
  0001c	e5801024	 str         r1, [r0, #0x24]
  00020	e12fff1e	 bx          lr
  00024		 |$LN10@GPIO_Backl|
  00024		 |$LN11@GPIO_Backl|
  00024	00000000	 DCD         |??_7GPIO_Backlight@@6B@|
  00028		 |$M39034|

			 ENDP  ; |??0GPIO_Backlight@@QAA@XZ|, GPIO_Backlight::GPIO_Backlight

	EXPORT	|?GetBacklightObject@@YAPAVCBacklightRoot@@XZ| ; GetBacklightObject
	IMPORT	|??2@YAPAXI@Z|				; operator new

  00000			 AREA	 |.pdata|, PDATA
|$T39066| DCD	|$LN13@GetBacklig|
	DCD	0x40001301
; Function compile flags: /Ogspy
; File c:\wince600\platform\z2170p\src\drivers\backlight\gpio_backlight.cpp

  00000			 AREA	 |.text|, CODE, ARM

  00000		 |?GetBacklightObject@@YAPAVCBacklightRoot@@XZ| PROC ; GetBacklightObject

; 179  : {

  00000		 |$LN13@GetBacklig|
  00000	e52de004	 str         lr, [sp, #-4]!
  00004		 |$M39063|

; 180  :     return new GPIO_Backlight();

  00004	e3a0002c	 mov         r0, #0x2C
  00008	eb000000	 bl          |??2@YAPAXI@Z|
  0000c	e3500000	 cmp         r0, #0
  00010	0a000009	 beq         |$LN3@GetBacklig|
  00014	e59f302c	 ldr         r3, [pc, #0x2C]
  00018	e3a02000	 mov         r2, #0
  0001c	e3e01000	 mvn         r1, #0
  00020	e5803000	 str         r3, [r0]
  00024	e5802004	 str         r2, [r0, #4]
  00028	e5801008	 str         r1, [r0, #8]
  0002c	e5802020	 str         r2, [r0, #0x20]
  00030	e5801024	 str         r1, [r0, #0x24]

; 181  : }

  00034	e49de004	 ldr         lr, [sp], #4
  00038	e12fff1e	 bx          lr
  0003c		 |$LN3@GetBacklig|

; 180  :     return new GPIO_Backlight();

  0003c	e3a00000	 mov         r0, #0

; 181  : }

  00040	e49de004	 ldr         lr, [sp], #4
  00044	e12fff1e	 bx          lr
  00048		 |$LN14@GetBacklig|
  00048		 |$LN15@GetBacklig|
  00048	00000000	 DCD         |??_7GPIO_Backlight@@6B@|
  0004c		 |$M39064|

			 ENDP  ; |?GetBacklightObject@@YAPAVCBacklightRoot@@XZ|, GetBacklightObject

	END
