; Listing generated by Microsoft (R) Optimizing Compiler Version 14.01.60511.01 

	TTL	C:\WINCE600\PLATFORM\COMMON\SRC\SOC\COMMON_TI_V1\COMMON_TI\OAL\CORTEXA8_CACHE\init.c
	CODE32

  00000			 AREA	 |.drectve|, DRECTVE
	DCB	"-defaultlib:LIBCMT "
	DCB	"-defaultlib:OLDNAMES "


  00000			 AREA	 |.data|, DATA
	 COMMON	|g_dwRangeLimit|, 0x4


  00000			 AREA	 |.rdata|, DATA, READONLY
|EdbgVendorIds| DCW 0x0
	DCW	0x0
	DCD	0x4033
	DCB	0x1
	DCB	"AD", 0x0
	DCW	0x1050
	DCW	0x940
	DCD	0x4005
	DCB	0x1
	DCB	"LS", 0x0
	DCW	0x1050
	DCW	0x940
	DCD	0x2078
	DCB	0x1
	DCB	"LS", 0x0
	DCW	0x10ec
	DCW	0x8029
	DCD	0xc0f0
	DCB	0x1
	DCB	"KS", 0x0
	DCW	0x10ec
	DCW	0x8129
	DCD	0x0
	DCB	0x4
	DCB	"RT", 0x0
	DCW	0x10ec
	DCW	0x8139
	DCD	0x900b
	DCB	0x4
	DCB	"RT", 0x0
	DCW	0x10ec
	DCW	0x8139
	DCD	0xd0c9
	DCB	0x4
	DCB	"RT", 0x0
	DCW	0x10ec
	DCW	0x8139
	DCD	0xe04c
	DCB	0x4
	DCB	"RT", 0x0
	DCW	0x1186
	DCW	0x1300
	DCD	0x50ba
	DCB	0x4
	DCB	"DL", 0x0
	DCW	0x100b
	DCW	0x20
	DCD	0xa0cc
	DCB	0x5
	DCB	"NG", 0x0
	DCW	0x10b7
	DCW	0x9050
	DCD	0x6008
	DCB	0x6
	DCB	"3C", 0x0
	DCW	0x10b7
	DCW	0x9200
	DCD	0x476
	DCB	0x6
	DCB	"3C", 0x0
	EXPORT	|OALCacheGlobalsInit|
	EXPORT	|??_C@_1CO@DGGDEGNL@?$AA?9?$AAO?$AAA?$AAL?$AAC?$AAa?$AAc?$AAh?$AAe?$AAG?$AAl?$AAo?$AAb?$AAa?$AAl?$AAs?$AAI?$AAn?$AAi?$AAt?$AA?$AN?$AA?6?$AA?$AA@| [ DATA ] ; `string'
	EXPORT	|??_C@_1PO@EIKPNFFJ@?$AAL?$AA2?$AA?5?$AAc?$AAa?$AAc?$AAh?$AAe?$AA?5?$AAd?$AAe?$AAt?$AAa?$AAi?$AAl?$AAs?$AA?3?$AA?$AN?$AA?6?$AA?5?$AAf?$AAl?$AAa?$AAg?$AAs?$AA?5?$AA?$CF?$AAx?$AA?$AN?$AA?6?$AAI?$AA?3@| [ DATA ] ; `string'
	EXPORT	|??_C@_1PO@EMKFNNPM@?$AAL?$AA1?$AA?5?$AAc?$AAa?$AAc?$AAh?$AAe?$AA?5?$AAd?$AAe?$AAt?$AAa?$AAi?$AAl?$AAs?$AA?3?$AA?$AN?$AA?6?$AA?5?$AAf?$AAl?$AAa?$AAg?$AAs?$AA?5?$AA?$CF?$AAx?$AA?$AN?$AA?6?$AAI?$AA?3@| [ DATA ] ; `string'
	EXPORT	|??_C@_1EK@IAJMFJBI@?$AAC?$AAa?$AAc?$AAh?$AAe?$AAT?$AAy?$AAp?$AAe?$AA?5?$AA?$DN?$AA?5?$AA?$CF?$AAx?$AA?5?$AA?5?$AA?5?$AAC?$AAa?$AAc?$AAh?$AAe?$AAL?$AAe?$AAv?$AAe?$AAl?$AAI?$AAD?$AA?5?$AA?$DN?$AA?5@| [ DATA ] ; `string'
	EXPORT	|??_C@_1DC@KHMCGECI@?$AA?$CL?$AAO?$AAA?$AAL?$AAC?$AAa?$AAc?$AAh?$AAe?$AAG?$AAl?$AAo?$AAb?$AAa?$AAl?$AAs?$AAI?$AAn?$AAi?$AAt?$AA?$CI?$AA?$CJ?$AA?$AN?$AA?6?$AA?$AA@| [ DATA ] ; `string'
	IMPORT	|OALGetCacheSizeID|
	IMPORT	|OALGetCacheLevelID|
	IMPORT	|OALGetCacheType|
	IMPORT	|NKDbgPrintfW|
	IMPORT	|dpCurSettings|
	IMPORT	|g_oalCacheInfo|
	IMPORT	|memset|
; File c:\wince600\platform\common\src\soc\common_ti_v1\common_ti\oal\cortexa8_cache\init.c

  00000			 AREA	 |.pdata|, PDATA
|$T44096| DCD	|$LN19@OALCacheGl|
	DCD	0x4000a502

  00000			 AREA	 |.rdata|, DATA, READONLY
|??_C@_1CO@DGGDEGNL@?$AA?9?$AAO?$AAA?$AAL?$AAC?$AAa?$AAc?$AAh?$AAe?$AAG?$AAl?$AAo?$AAb?$AAa?$AAl?$AAs?$AAI?$AAn?$AAi?$AAt?$AA?$AN?$AA?6?$AA?$AA@| DCB "-"
	DCB	0x0, "O", 0x0, "A", 0x0, "L", 0x0, "C", 0x0, "a", 0x0, "c"
	DCB	0x0, "h", 0x0, "e", 0x0, "G", 0x0, "l", 0x0, "o", 0x0, "b"
	DCB	0x0, "a", 0x0, "l", 0x0, "s", 0x0, "I", 0x0, "n", 0x0, "i"
	DCB	0x0, "t", 0x0, 0xd, 0x0, 0xa, 0x0, 0x0, 0x0 ; `string'

  00000			 AREA	 |.rdata|, DATA, READONLY
|??_C@_1PO@EIKPNFFJ@?$AAL?$AA2?$AA?5?$AAc?$AAa?$AAc?$AAh?$AAe?$AA?5?$AAd?$AAe?$AAt?$AAa?$AAi?$AAl?$AAs?$AA?3?$AA?$AN?$AA?6?$AA?5?$AAf?$AAl?$AAa?$AAg?$AAs?$AA?5?$AA?$CF?$AAx?$AA?$AN?$AA?6?$AAI?$AA?3@| DCB "L"
	DCB	0x0, "2", 0x0, " ", 0x0, "c", 0x0, "a", 0x0, "c", 0x0, "h"
	DCB	0x0, "e", 0x0, " ", 0x0, "d", 0x0, "e", 0x0, "t", 0x0, "a"
	DCB	0x0, "i", 0x0, "l", 0x0, "s", 0x0, ":", 0x0, 0xd, 0x0, 0xa
	DCB	0x0, " ", 0x0, "f", 0x0, "l", 0x0, "a", 0x0, "g", 0x0, "s"
	DCB	0x0, " ", 0x0, "%", 0x0, "x", 0x0, 0xd, 0x0, 0xa, 0x0, "I"
	DCB	0x0, ":", 0x0, " ", 0x0, "%", 0x0, "d", 0x0, " ", 0x0, "s"
	DCB	0x0, "e", 0x0, "t", 0x0, "s", 0x0, "/", 0x0, "w", 0x0, "a"
	DCB	0x0, "y", 0x0, ",", 0x0, " ", 0x0, "%", 0x0, "d", 0x0, " "
	DCB	0x0, "w", 0x0, "a", 0x0, "y", 0x0, "s", 0x0, ",", 0x0, " "
	DCB	0x0, "%", 0x0, "d", 0x0, " ", 0x0, "l", 0x0, "i", 0x0, "n"
	DCB	0x0, "e", 0x0, " ", 0x0, "s", 0x0, "i", 0x0, "z", 0x0, "e"
	DCB	0x0, ",", 0x0, " ", 0x0, "%", 0x0, "d", 0x0, " ", 0x0, "s"
	DCB	0x0, "i", 0x0, "z", 0x0, "e", 0x0, 0xd, 0x0, 0xa, 0x0, "D"
	DCB	0x0, ":", 0x0, " ", 0x0, "%", 0x0, "d", 0x0, " ", 0x0, "s"
	DCB	0x0, "e", 0x0, "t", 0x0, "s", 0x0, "/", 0x0, "w", 0x0, "a"
	DCB	0x0, "y", 0x0, ",", 0x0, " ", 0x0, "%", 0x0, "d", 0x0, " "
	DCB	0x0, "w", 0x0, "a", 0x0, "y", 0x0, "s", 0x0, ",", 0x0, " "
	DCB	0x0, "%", 0x0, "d", 0x0, " ", 0x0, "l", 0x0, "i", 0x0, "n"
	DCB	0x0, "e", 0x0, " ", 0x0, "s", 0x0, "i", 0x0, "z", 0x0, "e"
	DCB	0x0, ",", 0x0, " ", 0x0, "%", 0x0, "d", 0x0, " ", 0x0, "s"
	DCB	0x0, "i", 0x0, "z", 0x0, "e", 0x0, 0xd, 0x0, 0xa, 0x0, 0x0
	DCB	0x0					; `string'

  00000			 AREA	 |.rdata|, DATA, READONLY
|??_C@_1PO@EMKFNNPM@?$AAL?$AA1?$AA?5?$AAc?$AAa?$AAc?$AAh?$AAe?$AA?5?$AAd?$AAe?$AAt?$AAa?$AAi?$AAl?$AAs?$AA?3?$AA?$AN?$AA?6?$AA?5?$AAf?$AAl?$AAa?$AAg?$AAs?$AA?5?$AA?$CF?$AAx?$AA?$AN?$AA?6?$AAI?$AA?3@| DCB "L"
	DCB	0x0, "1", 0x0, " ", 0x0, "c", 0x0, "a", 0x0, "c", 0x0, "h"
	DCB	0x0, "e", 0x0, " ", 0x0, "d", 0x0, "e", 0x0, "t", 0x0, "a"
	DCB	0x0, "i", 0x0, "l", 0x0, "s", 0x0, ":", 0x0, 0xd, 0x0, 0xa
	DCB	0x0, " ", 0x0, "f", 0x0, "l", 0x0, "a", 0x0, "g", 0x0, "s"
	DCB	0x0, " ", 0x0, "%", 0x0, "x", 0x0, 0xd, 0x0, 0xa, 0x0, "I"
	DCB	0x0, ":", 0x0, " ", 0x0, "%", 0x0, "d", 0x0, " ", 0x0, "s"
	DCB	0x0, "e", 0x0, "t", 0x0, "s", 0x0, "/", 0x0, "w", 0x0, "a"
	DCB	0x0, "y", 0x0, ",", 0x0, " ", 0x0, "%", 0x0, "d", 0x0, " "
	DCB	0x0, "w", 0x0, "a", 0x0, "y", 0x0, "s", 0x0, ",", 0x0, " "
	DCB	0x0, "%", 0x0, "d", 0x0, " ", 0x0, "l", 0x0, "i", 0x0, "n"
	DCB	0x0, "e", 0x0, " ", 0x0, "s", 0x0, "i", 0x0, "z", 0x0, "e"
	DCB	0x0, ",", 0x0, " ", 0x0, "%", 0x0, "d", 0x0, " ", 0x0, "s"
	DCB	0x0, "i", 0x0, "z", 0x0, "e", 0x0, 0xd, 0x0, 0xa, 0x0, "D"
	DCB	0x0, ":", 0x0, " ", 0x0, "%", 0x0, "d", 0x0, " ", 0x0, "s"
	DCB	0x0, "e", 0x0, "t", 0x0, "s", 0x0, "/", 0x0, "w", 0x0, "a"
	DCB	0x0, "y", 0x0, ",", 0x0, " ", 0x0, "%", 0x0, "d", 0x0, " "
	DCB	0x0, "w", 0x0, "a", 0x0, "y", 0x0, "s", 0x0, ",", 0x0, " "
	DCB	0x0, "%", 0x0, "d", 0x0, " ", 0x0, "l", 0x0, "i", 0x0, "n"
	DCB	0x0, "e", 0x0, " ", 0x0, "s", 0x0, "i", 0x0, "z", 0x0, "e"
	DCB	0x0, ",", 0x0, " ", 0x0, "%", 0x0, "d", 0x0, " ", 0x0, "s"
	DCB	0x0, "i", 0x0, "z", 0x0, "e", 0x0, 0xd, 0x0, 0xa, 0x0, 0x0
	DCB	0x0					; `string'

  00000			 AREA	 |.rdata|, DATA, READONLY
|??_C@_1EK@IAJMFJBI@?$AAC?$AAa?$AAc?$AAh?$AAe?$AAT?$AAy?$AAp?$AAe?$AA?5?$AA?$DN?$AA?5?$AA?$CF?$AAx?$AA?5?$AA?5?$AA?5?$AAC?$AAa?$AAc?$AAh?$AAe?$AAL?$AAe?$AAv?$AAe?$AAl?$AAI?$AAD?$AA?5?$AA?$DN?$AA?5@| DCB "C"
	DCB	0x0, "a", 0x0, "c", 0x0, "h", 0x0, "e", 0x0, "T", 0x0, "y"
	DCB	0x0, "p", 0x0, "e", 0x0, " ", 0x0, "=", 0x0, " ", 0x0, "%"
	DCB	0x0, "x", 0x0, " ", 0x0, " ", 0x0, " ", 0x0, "C", 0x0, "a"
	DCB	0x0, "c", 0x0, "h", 0x0, "e", 0x0, "L", 0x0, "e", 0x0, "v"
	DCB	0x0, "e", 0x0, "l", 0x0, "I", 0x0, "D", 0x0, " ", 0x0, "="
	DCB	0x0, " ", 0x0, "%", 0x0, "x", 0x0, 0xd, 0x0, 0xa, 0x0, 0x0
	DCB	0x0					; `string'

  00000			 AREA	 |.rdata|, DATA, READONLY
|??_C@_1DC@KHMCGECI@?$AA?$CL?$AAO?$AAA?$AAL?$AAC?$AAa?$AAc?$AAh?$AAe?$AAG?$AAl?$AAo?$AAb?$AAa?$AAl?$AAs?$AAI?$AAn?$AAi?$AAt?$AA?$CI?$AA?$CJ?$AA?$AN?$AA?6?$AA?$AA@| DCB "+"
	DCB	0x0, "O", 0x0, "A", 0x0, "L", 0x0, "C", 0x0, "a", 0x0, "c"
	DCB	0x0, "h", 0x0, "e", 0x0, "G", 0x0, "l", 0x0, "o", 0x0, "b"
	DCB	0x0, "a", 0x0, "l", 0x0, "s", 0x0, "I", 0x0, "n", 0x0, "i"
	DCB	0x0, "t", 0x0, "(", 0x0, ")", 0x0, 0xd, 0x0, 0xa, 0x0, 0x0
	DCB	0x0					; `string'
; Function compile flags: /Ogspy

  00000			 AREA	 |.text|, CODE, ARM

  00000		 |OALCacheGlobalsInit| PROC

; 91   : {

  00000		 |$LN19@OALCacheGl|
  00000	e92d4ff0	 stmdb       sp!, {r4 - r11, lr}
  00004	e24dd018	 sub         sp, sp, #0x18
  00008		 |$M44093|

; 92   :     DWORD   dwCacheType,
; 93   :             dwCacheLevelID,
; 94   :             dwCacheSize;
; 95   : 
; 96   :     OALMSG(OAL_CACHE&&OAL_VERBOSE, (
; 97   :         L"+OALCacheGlobalsInit()\r\n"
; 98   :     ));

  00008	e59fa280	 ldr         r10, [pc, #0x280]
  0000c	e59a3440	 ldr         r3, [r10, #0x440]
  00010	e3130020	 tst         r3, #0x20
  00014	13130902	 tstne       r3, #2, 18
  00018	159f026c	 ldrne       r0, [pc, #0x26C]
  0001c	1b000000	 blne        NKDbgPrintfW

; 99   : 
; 100  : 
; 101  :     //  Initialize WinCE cache info struct
; 102  :     memset( &g_oalCacheInfo, 0 , sizeof(g_oalCacheInfo) );

  00020	e59f9260	 ldr         r9, [pc, #0x260]
  00024	e3a02048	 mov         r2, #0x48
  00028	e3a01000	 mov         r1, #0
  0002c	e1a00009	 mov         r0, r9
  00030	eb000000	 bl          memset

; 103  : 
; 104  : 
; 105  :     //  Get cache type
; 106  :     dwCacheType = OALGetCacheType();

  00034	eb000000	 bl          OALGetCacheType
  00038	e1a0b000	 mov         r11, r0

; 107  : 
; 108  :     //  Get cache info
; 109  :     dwCacheLevelID = OALGetCacheLevelID();

  0003c	eb000000	 bl          OALGetCacheLevelID
  00040	e1a05000	 mov         r5, r0

; 110  : 
; 111  : 
; 112  :     //  Set L1 cache properties
; 113  :     g_oalCacheInfo.L1Flags |= ((dwCacheLevelID & ARMV7_CACHEID_MASK) == ARMV7_CACHEID_UCACHE) ? CF_UNIFIED : 0;

  00044	e2053007	 and         r3, r5, #7
  00048	e3530004	 cmp         r3, #4
  0004c	e5993000	 ldr         r3, [r9]
  00050	03a02001	 moveq       r2, #1
  00054	13a02000	 movne       r2, #0

; 114  : 
; 115  :     //  L1 data
; 116  :     dwCacheSize = OALGetCacheSizeID(ARMV7_CACHESIZE_SEL_L1|ARMV7_CACHESIZE_SEL_DATA);

  00058	e1823003	 orr         r3, r2, r3
  0005c	e3a00000	 mov         r0, #0
  00060	e5893000	 str         r3, [r9]
  00064	eb000000	 bl          OALGetCacheSizeID

; 117  : 
; 118  :     g_oalCacheInfo.L1DLineSize    = 1 << (((dwCacheSize & ARMV7_CACHESIZE_LINESIZE_MASK) >> ARMV7_CACHESIZE_LINESIZE_SHIFT) + 4);
; 119  :     g_oalCacheInfo.L1DNumWays     = ((dwCacheSize & ARMV7_CACHESIZE_ASSOCIATIVITY_MASK) >> ARMV7_CACHESIZE_ASSOCIATIVITY_SHIFT) + 1;

  00068	e1a03980	 mov         r3, r0, lsl #19

; 120  :     g_oalCacheInfo.L1DSetsPerWay  = ((dwCacheSize & ARMV7_CACHESIZE_NUMSETS_MASK) >> ARMV7_CACHESIZE_NUMSETS_SHIFT) + 1;

  0006c	e1a02200	 mov         r2, r0, lsl #4
  00070	e1a03b23	 mov         r3, r3, lsr #22
  00074	e1a028a2	 mov         r2, r2, lsr #17
  00078	e2001007	 and         r1, r0, #7
  0007c	e283e001	 add         lr, r3, #1
  00080	e2813004	 add         r3, r1, #4
  00084	e2824001	 add         r4, r2, #1
  00088	e3a01001	 mov         r1, #1

; 121  :     g_oalCacheInfo.L1DSize        = g_oalCacheInfo.L1DLineSize * g_oalCacheInfo.L1DNumWays * g_oalCacheInfo.L1DSetsPerWay;

  0008c	e0020e94	 mul         r2, r4, lr
  00090	e1a03311	 mov         r3, r1, lsl r3

; 122  : 
; 123  :     //  L1 instruction
; 124  :     dwCacheSize = OALGetCacheSizeID(ARMV7_CACHESIZE_SEL_L1|ARMV7_CACHESIZE_SEL_INSTRUCTION);

  00094	e3a00001	 mov         r0, #1
  00098	e0010392	 mul         r1, r2, r3
  0009c	e589301c	 str         r3, [r9, #0x1C]
  000a0	e589e018	 str         lr, [r9, #0x18]
  000a4	e5894014	 str         r4, [r9, #0x14]
  000a8	e5891020	 str         r1, [r9, #0x20]
  000ac	eb000000	 bl          OALGetCacheSizeID

; 125  : 
; 126  :     g_oalCacheInfo.L1ILineSize    = 1 << (((dwCacheSize & ARMV7_CACHESIZE_LINESIZE_MASK) >> ARMV7_CACHESIZE_LINESIZE_SHIFT) + 4);
; 127  :     g_oalCacheInfo.L1INumWays     = ((dwCacheSize & ARMV7_CACHESIZE_ASSOCIATIVITY_MASK) >> ARMV7_CACHESIZE_ASSOCIATIVITY_SHIFT) + 1;

  000b0	e1a03980	 mov         r3, r0, lsl #19

; 128  :     g_oalCacheInfo.L1ISetsPerWay  = ((dwCacheSize & ARMV7_CACHESIZE_NUMSETS_MASK) >> ARMV7_CACHESIZE_NUMSETS_SHIFT) + 1;

  000b4	e1a02200	 mov         r2, r0, lsl #4
  000b8	e1a03b23	 mov         r3, r3, lsr #22
  000bc	e1a028a2	 mov         r2, r2, lsr #17
  000c0	e2001007	 and         r1, r0, #7
  000c4	e2830001	 add         r0, r3, #1
  000c8	e2813004	 add         r3, r1, #4
  000cc	e282e001	 add         lr, r2, #1
  000d0	e3a01001	 mov         r1, #1

; 129  :     g_oalCacheInfo.L1ISize        = g_oalCacheInfo.L1ILineSize * g_oalCacheInfo.L1INumWays * g_oalCacheInfo.L1ISetsPerWay;

  000d4	e002009e	 mul         r2, lr, r0
  000d8	e1a03311	 mov         r3, r1, lsl r3

; 130  : 
; 131  : 
; 132  : 
; 133  :     //  Set L2 cache properties
; 134  :     dwCacheLevelID >>= 3;

  000dc	e1a041a5	 mov         r4, r5, lsr #3
  000e0	e0010392	 mul         r1, r2, r3
  000e4	e589300c	 str         r3, [r9, #0xC]
  000e8	e5890008	 str         r0, [r9, #8]

; 135  :     g_oalCacheInfo.L2Flags |= ((dwCacheLevelID & ARMV7_CACHEID_MASK) == ARMV7_CACHEID_UCACHE) ? CF_UNIFIED : 0;

  000ec	e2043007	 and         r3, r4, #7
  000f0	e589e004	 str         lr, [r9, #4]
  000f4	e5891010	 str         r1, [r9, #0x10]
  000f8	e3530004	 cmp         r3, #4
  000fc	e5993024	 ldr         r3, [r9, #0x24]
  00100	03a02001	 moveq       r2, #1
  00104	13a02000	 movne       r2, #0

; 136  : 
; 137  :     //  L2 unified cache
; 138  :     dwCacheSize = OALGetCacheSizeID(ARMV7_CACHESIZE_SEL_L2|ARMV7_CACHESIZE_SEL_DATA);

  00108	e1823003	 orr         r3, r2, r3
  0010c	e3a00002	 mov         r0, #2
  00110	e5893024	 str         r3, [r9, #0x24]
  00114	eb000000	 bl          OALGetCacheSizeID

; 139  : 
; 140  :     g_oalCacheInfo.L2DLineSize    = 1 << (((dwCacheSize & ARMV7_CACHESIZE_LINESIZE_MASK) >> ARMV7_CACHESIZE_LINESIZE_SHIFT) + 4);
; 141  :     g_oalCacheInfo.L2DNumWays     = ((dwCacheSize & ARMV7_CACHESIZE_ASSOCIATIVITY_MASK) >> ARMV7_CACHESIZE_ASSOCIATIVITY_SHIFT) + 1;

  00118	e1a03980	 mov         r3, r0, lsl #19

; 142  :     g_oalCacheInfo.L2DSetsPerWay  = ((dwCacheSize & ARMV7_CACHESIZE_NUMSETS_MASK) >> ARMV7_CACHESIZE_NUMSETS_SHIFT) + 1;

  0011c	e1a02200	 mov         r2, r0, lsl #4
  00120	e1a03b23	 mov         r3, r3, lsr #22
  00124	e1a028a2	 mov         r2, r2, lsr #17
  00128	e2001007	 and         r1, r0, #7
  0012c	e2835001	 add         r5, r3, #1
  00130	e2826001	 add         r6, r2, #1
  00134	e2813004	 add         r3, r1, #4
  00138	e3a02001	 mov         r2, #1

; 143  :     g_oalCacheInfo.L2DSize        = g_oalCacheInfo.L2DLineSize * g_oalCacheInfo.L2DNumWays * g_oalCacheInfo.L2DSetsPerWay;

  0013c	e1a07312	 mov         r7, r2, lsl r3

; 144  : 
; 145  :     g_oalCacheInfo.L2ILineSize    = g_oalCacheInfo.L2DLineSize;
; 146  :     g_oalCacheInfo.L2INumWays     = g_oalCacheInfo.L2DNumWays;
; 147  :     g_oalCacheInfo.L2ISetsPerWay  = g_oalCacheInfo.L2DSetsPerWay;
; 148  :     g_oalCacheInfo.L2ISize        = g_oalCacheInfo.L2DSize;
; 149  : 
; 150  : 
; 151  :     //  Compute cache range limit
; 152  :     /*
; 153  :     g_dwRangeLimit = g_oalCacheInfo.L1DLineSize*(
; 154  :                         g_oalCacheInfo.L1DSetsPerWay*g_oalCacheInfo.L1DNumWays +
; 155  :                         g_oalCacheInfo.L2DSetsPerWay*g_oalCacheInfo.L2DNumWays);
; 156  :     */
; 157  :     g_dwRangeLimit = g_oalCacheInfo.L2DSize;

  00140	e59f313c	 ldr         r3, [pc, #0x13C]
  00144	e0010596	 mul         r1, r6, r5

; 158  : 
; 159  : 
; 160  :     OALMSG(OAL_CACHE&&OAL_VERBOSE,
; 161  :             (TEXT("CacheType = %x   CacheLevelID = %x\r\n"),
; 162  :              dwCacheType,
; 163  :              dwCacheLevelID));

  00148	e0080791	 mul         r8, r1, r7
  0014c	e5897040	 str         r7, [r9, #0x40]
  00150	e59a0440	 ldr         r0, [r10, #0x440]
  00154	e589503c	 str         r5, [r9, #0x3C]
  00158	e5896038	 str         r6, [r9, #0x38]
  0015c	e5898044	 str         r8, [r9, #0x44]
  00160	e5897030	 str         r7, [r9, #0x30]
  00164	e589502c	 str         r5, [r9, #0x2C]
  00168	e5896028	 str         r6, [r9, #0x28]
  0016c	e5898034	 str         r8, [r9, #0x34]
  00170	e5838000	 str         r8, [r3]
  00174	e3100020	 tst         r0, #0x20
  00178	0a00000a	 beq         |$LN9@OALCacheGl|
  0017c	e3100902	 tst         r0, #2, 18
  00180	0a000008	 beq         |$LN9@OALCacheGl|
  00184	e59f00f4	 ldr         r0, [pc, #0xF4]
  00188	e1a02004	 mov         r2, r4
  0018c	e1a0100b	 mov         r1, r11
  00190	eb000000	 bl          NKDbgPrintfW
  00194	e59a0440	 ldr         r0, [r10, #0x440]
  00198	e5998044	 ldr         r8, [r9, #0x44]
  0019c	e5997040	 ldr         r7, [r9, #0x40]
  001a0	e599503c	 ldr         r5, [r9, #0x3C]
  001a4	e5996038	 ldr         r6, [r9, #0x38]
  001a8		 |$LN9@OALCacheGl|

; 164  : 
; 165  :     OALMSG(OAL_CACHE&&OAL_VERBOSE, 
; 166  :             (TEXT("L1 cache details:\r\n flags %x\r\nI: %d sets/way, %d ways, %d line size, %d size\r\nD: %d sets/way, %d ways, %d line size, %d size\r\n"),
; 167  :              g_oalCacheInfo.L1Flags,
; 168  :              g_oalCacheInfo.L1ISetsPerWay, g_oalCacheInfo.L1INumWays,
; 169  :              g_oalCacheInfo.L1ILineSize, g_oalCacheInfo.L1ISize,
; 170  :              g_oalCacheInfo.L1DSetsPerWay, g_oalCacheInfo.L1DNumWays,
; 171  :              g_oalCacheInfo.L1DLineSize, g_oalCacheInfo.L1DSize));

  001a8	e3100020	 tst         r0, #0x20
  001ac	0a000017	 beq         |$LN11@OALCacheGl|
  001b0	e3100902	 tst         r0, #2, 18
  001b4	0a000015	 beq         |$LN11@OALCacheGl|
  001b8	e5998020	 ldr         r8, [r9, #0x20]
  001bc	e599701c	 ldr         r7, [r9, #0x1C]
  001c0	e5996018	 ldr         r6, [r9, #0x18]
  001c4	e5995014	 ldr         r5, [r9, #0x14]
  001c8	e5994010	 ldr         r4, [r9, #0x10]
  001cc	e599e00c	 ldr         lr, [r9, #0xC]
  001d0	e5993008	 ldr         r3, [r9, #8]
  001d4	e5992004	 ldr         r2, [r9, #4]
  001d8	e5991000	 ldr         r1, [r9]
  001dc	e59f0098	 ldr         r0, [pc, #0x98]
  001e0	e58d8014	 str         r8, [sp, #0x14]
  001e4	e58d7010	 str         r7, [sp, #0x10]
  001e8	e58d600c	 str         r6, [sp, #0xC]
  001ec	e58d5008	 str         r5, [sp, #8]
  001f0	e58d4004	 str         r4, [sp, #4]
  001f4	e58de000	 str         lr, [sp]
  001f8	eb000000	 bl          NKDbgPrintfW
  001fc	e59a0440	 ldr         r0, [r10, #0x440]
  00200	e5998044	 ldr         r8, [r9, #0x44]
  00204	e5997040	 ldr         r7, [r9, #0x40]
  00208	e599503c	 ldr         r5, [r9, #0x3C]
  0020c	e5996038	 ldr         r6, [r9, #0x38]
  00210		 |$LN11@OALCacheGl|

; 172  : 
; 173  :     OALMSG(OAL_CACHE&&OAL_VERBOSE, 
; 174  :             (TEXT("L2 cache details:\r\n flags %x\r\nI: %d sets/way, %d ways, %d line size, %d size\r\nD: %d sets/way, %d ways, %d line size, %d size\r\n"),
; 175  :              g_oalCacheInfo.L2Flags,
; 176  :              g_oalCacheInfo.L2ISetsPerWay, g_oalCacheInfo.L2INumWays,
; 177  :              g_oalCacheInfo.L2ILineSize, g_oalCacheInfo.L2ISize,
; 178  :              g_oalCacheInfo.L2DSetsPerWay, g_oalCacheInfo.L2DNumWays,
; 179  :              g_oalCacheInfo.L2DLineSize, g_oalCacheInfo.L2DSize));

  00210	e3100020	 tst         r0, #0x20
  00214	0a00000f	 beq         |$LN13@OALCacheGl|
  00218	e3100902	 tst         r0, #2, 18
  0021c	0a00000d	 beq         |$LN13@OALCacheGl|
  00220	e599e034	 ldr         lr, [r9, #0x34]
  00224	e5994030	 ldr         r4, [r9, #0x30]
  00228	e599302c	 ldr         r3, [r9, #0x2C]
  0022c	e5992028	 ldr         r2, [r9, #0x28]
  00230	e5991024	 ldr         r1, [r9, #0x24]
  00234	e59f003c	 ldr         r0, [pc, #0x3C]
  00238	e58de004	 str         lr, [sp, #4]
  0023c	e58d4000	 str         r4, [sp]
  00240	e58d8014	 str         r8, [sp, #0x14]
  00244	e58d7010	 str         r7, [sp, #0x10]
  00248	e58d500c	 str         r5, [sp, #0xC]
  0024c	e58d6008	 str         r6, [sp, #8]
  00250	eb000000	 bl          NKDbgPrintfW
  00254	e59a0440	 ldr         r0, [r10, #0x440]
  00258		 |$LN13@OALCacheGl|

; 180  : 
; 181  : 
; 182  :     OALMSG(OAL_CACHE&&OAL_VERBOSE, (L"-OALCacheGlobalsInit\r\n"));

  00258	e3100020	 tst         r0, #0x20
  0025c	13100902	 tstne       r0, #2, 18
  00260	159f000c	 ldrne       r0, [pc, #0xC]
  00264	1b000000	 blne        NKDbgPrintfW

; 183  : }

  00268	e28dd018	 add         sp, sp, #0x18
  0026c	e8bd4ff0	 ldmia       sp!, {r4 - r11, lr}
  00270	e12fff1e	 bx          lr
  00274		 |$LN20@OALCacheGl|
  00274		 |$LN21@OALCacheGl|
  00274	00000000	 DCD         |??_C@_1CO@DGGDEGNL@?$AA?9?$AAO?$AAA?$AAL?$AAC?$AAa?$AAc?$AAh?$AAe?$AAG?$AAl?$AAo?$AAb?$AAa?$AAl?$AAs?$AAI?$AAn?$AAi?$AAt?$AA?$AN?$AA?6?$AA?$AA@|
  00278		 |$LN22@OALCacheGl|
  00278	00000000	 DCD         |??_C@_1PO@EIKPNFFJ@?$AAL?$AA2?$AA?5?$AAc?$AAa?$AAc?$AAh?$AAe?$AA?5?$AAd?$AAe?$AAt?$AAa?$AAi?$AAl?$AAs?$AA?3?$AA?$AN?$AA?6?$AA?5?$AAf?$AAl?$AAa?$AAg?$AAs?$AA?5?$AA?$CF?$AAx?$AA?$AN?$AA?6?$AAI?$AA?3@|
  0027c		 |$LN23@OALCacheGl|
  0027c	00000000	 DCD         |??_C@_1PO@EMKFNNPM@?$AAL?$AA1?$AA?5?$AAc?$AAa?$AAc?$AAh?$AAe?$AA?5?$AAd?$AAe?$AAt?$AAa?$AAi?$AAl?$AAs?$AA?3?$AA?$AN?$AA?6?$AA?5?$AAf?$AAl?$AAa?$AAg?$AAs?$AA?5?$AA?$CF?$AAx?$AA?$AN?$AA?6?$AAI?$AA?3@|
  00280		 |$LN24@OALCacheGl|
  00280	00000000	 DCD         |??_C@_1EK@IAJMFJBI@?$AAC?$AAa?$AAc?$AAh?$AAe?$AAT?$AAy?$AAp?$AAe?$AA?5?$AA?$DN?$AA?5?$AA?$CF?$AAx?$AA?5?$AA?5?$AA?5?$AAC?$AAa?$AAc?$AAh?$AAe?$AAL?$AAe?$AAv?$AAe?$AAl?$AAI?$AAD?$AA?5?$AA?$DN?$AA?5@|
  00284		 |$LN25@OALCacheGl|
  00284	00000000	 DCD         |g_dwRangeLimit|
  00288		 |$LN26@OALCacheGl|
  00288	00000000	 DCD         |g_oalCacheInfo|
  0028c		 |$LN27@OALCacheGl|
  0028c	00000000	 DCD         |??_C@_1DC@KHMCGECI@?$AA?$CL?$AAO?$AAA?$AAL?$AAC?$AAa?$AAc?$AAh?$AAe?$AAG?$AAl?$AAo?$AAb?$AAa?$AAl?$AAs?$AAI?$AAn?$AAi?$AAt?$AA?$CI?$AA?$CJ?$AA?$AN?$AA?6?$AA?$AA@|
  00290		 |$LN28@OALCacheGl|
  00290	00000000	 DCD         |dpCurSettings|
  00294		 |$M44094|

			 ENDP  ; |OALCacheGlobalsInit|

	END
