; Listing generated by Microsoft (R) Optimizing Compiler Version 14.01.60511.01 

	TTL	C:\WINCE600\PLATFORM\Z2170P\SRC\APP\NullSink\NullSink.cpp
	CODE32

  00000			 AREA	 |.drectve|, DRECTVE
	DCB	"-INCLUDE:__@@_PchSym_@00@UdrmxvGAAUkozgulinUaCBHAkUhixUz"
	DCB	"kkUmfoohrmpUlyqUzineErUivgzroUhgwzucOlyq@NullSink "
	DCB	"-defaultlib:LIBCMT "
	DCB	"-defaultlib:OLDNAMES "

	EXPORT	|?CreateInstance@CNullSink@MyNullSink@@SAPAVCUnknown@@PAUIUnknown@@PAJ@Z| ; MyNullSink::CNullSink::CreateInstance
	EXPORT	|??_C@_1BO@CAALFHMN@?$AAN?$AAu?$AAl?$AAl?$AAS?$AAi?$AAn?$AAk?$AAF?$AAi?$AAl?$AAt?$AAe?$AAr?$AA?$AA@| [ DATA ] ; `string'
	EXPORT	|??_C@_1M@PFCMLKBL@?$AAI?$AAn?$AAp?$AAu?$AAt?$AA?$AA@| [ DATA ] ; `string'
	EXPORT	|IID_IPropertyFrame| [ DATA ]
	EXPORT	|CLSID_CFontPropPage| [ DATA ]
	EXPORT	|CLSID_CColorPropPage| [ DATA ]
	EXPORT	|CLSID_CPicturePropPage| [ DATA ]
	EXPORT	|CLSID_PersistPropset| [ DATA ]
	EXPORT	|CLSID_ConvertVBX| [ DATA ]
	EXPORT	|CLSID_StdFont| [ DATA ]
	EXPORT	|CLSID_StdPicture| [ DATA ]
	EXPORT	|GUID_HIMETRIC| [ DATA ]
	EXPORT	|GUID_COLOR| [ DATA ]
	EXPORT	|GUID_XPOSPIXEL| [ DATA ]
	EXPORT	|GUID_YPOSPIXEL| [ DATA ]
	EXPORT	|GUID_XSIZEPIXEL| [ DATA ]
	EXPORT	|GUID_YSIZEPIXEL| [ DATA ]
	EXPORT	|GUID_XPOS| [ DATA ]
	EXPORT	|GUID_YPOS| [ DATA ]
	EXPORT	|GUID_XSIZE| [ DATA ]
	EXPORT	|GUID_YSIZE| [ DATA ]
	EXPORT	|GUID_OPTIONVALUEEXCLUSIVE| [ DATA ]
	EXPORT	|GUID_CHECKVALUEEXCLUSIVE| [ DATA ]
	EXPORT	|GUID_FONTNAME| [ DATA ]
	EXPORT	|GUID_FONTSIZE| [ DATA ]
	EXPORT	|GUID_FONTBOLD| [ DATA ]
	EXPORT	|GUID_FONTITALIC| [ DATA ]
	EXPORT	|GUID_FONTUNDERSCORE| [ DATA ]
	EXPORT	|GUID_FONTSTRIKETHROUGH| [ DATA ]
	EXPORT	|GUID_HANDLE| [ DATA ]
	EXPORT	|LIBID_QuartzTypeLib| [ DATA ]
	EXPORT	|IID_IAMCollection| [ DATA ]
	EXPORT	|IID_IMediaControl| [ DATA ]
	EXPORT	|IID_IMediaEvent| [ DATA ]
	EXPORT	|IID_IMediaEventEx| [ DATA ]
	EXPORT	|IID_IMediaPosition| [ DATA ]
	EXPORT	|IID_IBasicAudio| [ DATA ]
	EXPORT	|IID_IVideoWindow| [ DATA ]
	EXPORT	|IID_IBasicVideo| [ DATA ]
	EXPORT	|IID_IBasicVideo2| [ DATA ]
	EXPORT	|IID_IDeferredCommand| [ DATA ]
	EXPORT	|IID_IQueueCommand| [ DATA ]
	EXPORT	|CLSID_FilgraphManager| [ DATA ]
	EXPORT	|IID_IFilterInfo| [ DATA ]
	EXPORT	|IID_IRegFilterInfo| [ DATA ]
	EXPORT	|IID_IMediaTypeInfo| [ DATA ]
	EXPORT	|IID_IPinInfo| [ DATA ]
	EXPORT	|MEDIASUBTYPE_None| [ DATA ]
	EXPORT	|MEDIATYPE_Video| [ DATA ]
	EXPORT	|MEDIATYPE_Audio| [ DATA ]
	EXPORT	|MEDIATYPE_VideoBuffered| [ DATA ]
	EXPORT	|MEDIATYPE_AudioBuffered| [ DATA ]
	EXPORT	|MEDIATYPE_Text| [ DATA ]
	EXPORT	|MEDIATYPE_Midi| [ DATA ]
	EXPORT	|MEDIATYPE_Stream| [ DATA ]
	EXPORT	|MEDIATYPE_Interleaved| [ DATA ]
	EXPORT	|MEDIATYPE_File| [ DATA ]
	EXPORT	|MEDIATYPE_ScriptCommand| [ DATA ]
	EXPORT	|MEDIATYPE_AUXLine21Data| [ DATA ]
	EXPORT	|MEDIATYPE_Timecode| [ DATA ]
	EXPORT	|MEDIATYPE_LMRT| [ DATA ]
	EXPORT	|MEDIATYPE_URL_STREAM| [ DATA ]
	EXPORT	|MEDIASUBTYPE_YVU9| [ DATA ]
	EXPORT	|MEDIASUBTYPE_Y411| [ DATA ]
	EXPORT	|MEDIASUBTYPE_Y41P| [ DATA ]
	EXPORT	|MEDIASUBTYPE_YUY2| [ DATA ]
	EXPORT	|MEDIASUBTYPE_YVYU| [ DATA ]
	EXPORT	|MEDIASUBTYPE_UYVY| [ DATA ]
	EXPORT	|MEDIASUBTYPE_Y211| [ DATA ]
	EXPORT	|MEDIASUBTYPE_YV12| [ DATA ]
	EXPORT	|MEDIASUBTYPE_YV16| [ DATA ]
	EXPORT	|MEDIASUBTYPE_IUYV| [ DATA ]
	EXPORT	|MEDIASUBTYPE_NV12| [ DATA ]
	EXPORT	|MEDIASUBTYPE_I420| [ DATA ]
	EXPORT	|MEDIASUBTYPE_IYUV| [ DATA ]
	EXPORT	|MEDIASUBTYPE_CLJR| [ DATA ]
	EXPORT	|MEDIASUBTYPE_IF09| [ DATA ]
	EXPORT	|MEDIASUBTYPE_CPLA| [ DATA ]
	EXPORT	|MEDIASUBTYPE_MJPG| [ DATA ]
	EXPORT	|MEDIASUBTYPE_TVMJ| [ DATA ]
	EXPORT	|MEDIASUBTYPE_WAKE| [ DATA ]
	EXPORT	|MEDIASUBTYPE_CFCC| [ DATA ]
	EXPORT	|MEDIASUBTYPE_IJPG| [ DATA ]
	EXPORT	|MEDIASUBTYPE_Plum| [ DATA ]
	EXPORT	|MEDIASUBTYPE_DVCS| [ DATA ]
	EXPORT	|MEDIASUBTYPE_DVSD| [ DATA ]
	EXPORT	|MEDIASUBTYPE_MDVF| [ DATA ]
	EXPORT	|MEDIASUBTYPE_RGB1| [ DATA ]
	EXPORT	|MEDIASUBTYPE_RGB4| [ DATA ]
	EXPORT	|MEDIASUBTYPE_RGB8| [ DATA ]
	EXPORT	|MEDIASUBTYPE_RGB565| [ DATA ]
	EXPORT	|MEDIASUBTYPE_RGB555| [ DATA ]
	EXPORT	|MEDIASUBTYPE_RGB24| [ DATA ]
	EXPORT	|MEDIASUBTYPE_RGB32| [ DATA ]
	EXPORT	|MEDIASUBTYPE_Overlay| [ DATA ]
	EXPORT	|MEDIASUBTYPE_MPEG1Packet| [ DATA ]
	EXPORT	|MEDIASUBTYPE_MPEG1Payload| [ DATA ]
	EXPORT	|MEDIASUBTYPE_MPEG1AudioPayload| [ DATA ]
	EXPORT	|MEDIATYPE_MPEG1SystemStream| [ DATA ]
	EXPORT	|MEDIASUBTYPE_MPEG1System| [ DATA ]
	EXPORT	|MEDIASUBTYPE_MPEG1VideoCD| [ DATA ]
	EXPORT	|MEDIASUBTYPE_MPEG1Video| [ DATA ]
	EXPORT	|MEDIASUBTYPE_MPEG1Audio| [ DATA ]
	EXPORT	|MEDIASUBTYPE_Avi| [ DATA ]
	EXPORT	|MEDIASUBTYPE_Asf| [ DATA ]
	EXPORT	|MEDIASUBTYPE_QTMovie| [ DATA ]
	EXPORT	|MEDIASUBTYPE_QTRpza| [ DATA ]
	EXPORT	|MEDIASUBTYPE_QTSmc| [ DATA ]
	EXPORT	|MEDIASUBTYPE_QTRle| [ DATA ]
	EXPORT	|MEDIASUBTYPE_QTJpeg| [ DATA ]
	EXPORT	|MEDIASUBTYPE_PCMAudio_Obsolete| [ DATA ]
	EXPORT	|MEDIASUBTYPE_PCM| [ DATA ]
	EXPORT	|MEDIASUBTYPE_WAVE| [ DATA ]
	EXPORT	|MEDIASUBTYPE_AU| [ DATA ]
	EXPORT	|MEDIASUBTYPE_AIFF| [ DATA ]
	EXPORT	|MEDIASUBTYPE_dvsd| [ DATA ]
	EXPORT	|MEDIASUBTYPE_dvhd| [ DATA ]
	EXPORT	|MEDIASUBTYPE_dvsl| [ DATA ]
	EXPORT	|MEDIASUBTYPE_Line21_BytePair| [ DATA ]
	EXPORT	|MEDIASUBTYPE_Line21_GOPPacket| [ DATA ]
	EXPORT	|MEDIASUBTYPE_Line21_VBIRawData| [ DATA ]
	EXPORT	|MEDIASUBTYPE_DssVideo| [ DATA ]
	EXPORT	|MEDIASUBTYPE_DssAudio| [ DATA ]
	EXPORT	|MEDIASUBTYPE_VPVideo| [ DATA ]
	EXPORT	|MEDIASUBTYPE_VPVBI| [ DATA ]
	EXPORT	|IID_IAMCutListElement| [ DATA ]
	EXPORT	|IID_IAMFileCutListElement| [ DATA ]
	EXPORT	|IID_IAMVideoCutListElement| [ DATA ]
	EXPORT	|IID_IAMAudioCutListElement| [ DATA ]
	EXPORT	|CLSID_CutListSource| [ DATA ]
	EXPORT	|IID_IStandardCutList| [ DATA ]
	EXPORT	|IID_IFileClip| [ DATA ]
	EXPORT	|IID_ICutListGraphBuilder| [ DATA ]
	EXPORT	|CLSID_CutListGraphBuilder| [ DATA ]
	EXPORT	|CLSID_SimpleCutList| [ DATA ]
	EXPORT	|CLSID_VideoFileClip| [ DATA ]
	EXPORT	|CLSID_AudioFileClip| [ DATA ]
	EXPORT	|CLSID_CutListCacheMemory| [ DATA ]
	EXPORT	|CLSID_VideoCapture| [ DATA ]
	EXPORT	|CLSID_CaptureGraphBuilder| [ DATA ]
	EXPORT	|CLSID_ProtoFilterGraph| [ DATA ]
	EXPORT	|CLSID_SystemClock| [ DATA ]
	EXPORT	|CLSID_FilterMapper| [ DATA ]
	EXPORT	|CLSID_FilterGraph| [ DATA ]
	EXPORT	|CLSID_FilterGraphNoThread| [ DATA ]
	EXPORT	|CLSID_MPEG1Doc| [ DATA ]
	EXPORT	|CLSID_VideoCDSource| [ DATA ]
	EXPORT	|CLSID_VideoCDProxy| [ DATA ]
	EXPORT	|CLSID_VideoCDManager| [ DATA ]
	EXPORT	|CLSID_GenericStreamer| [ DATA ]
	EXPORT	|CLSID_FileSource| [ DATA ]
	EXPORT	|CLSID_MPEG1PacketPlayer| [ DATA ]
	EXPORT	|CLSID_MPEG1Splitter| [ DATA ]
	EXPORT	|CLSID_MPEG2Splitter| [ DATA ]
	EXPORT	|CLSID_CMpegVideoCodec| [ DATA ]
	EXPORT	|CLSID_CMpegAudioCodec| [ DATA ]
	EXPORT	|CLSID_Mp3Dec| [ DATA ]
	EXPORT	|CLSID_MjpegDec| [ DATA ]
	EXPORT	|CLSID_TextRender| [ DATA ]
	EXPORT	|CLSID_WAVEParser| [ DATA ]
	EXPORT	|CLSID_MIDIParser| [ DATA ]
	EXPORT	|CLSID_DMFilter| [ DATA ]
	EXPORT	|CLSID_InfTee| [ DATA ]
	EXPORT	|CLSID_AviSplitter| [ DATA ]
	EXPORT	|CLSID_AviReader| [ DATA ]
	EXPORT	|CLSID_VfwCapture| [ DATA ]
	EXPORT	|CLSID_CaptureProperties| [ DATA ]
	EXPORT	|CLSID_FGControl| [ DATA ]
	EXPORT	|CLSID_MOVReader| [ DATA ]
	EXPORT	|CLSID_QuickTimeParser| [ DATA ]
	EXPORT	|CLSID_QTDec| [ DATA ]
	EXPORT	|CLSID_AVIDoc| [ DATA ]
	EXPORT	|CLSID_AVIDocWriter| [ DATA ]
	EXPORT	|CLSID_VideoRenderer| [ DATA ]
	EXPORT	|CLSID_Colour| [ DATA ]
	EXPORT	|CLSID_Dither| [ DATA ]
	EXPORT	|CLSID_ModexRenderer| [ DATA ]
	EXPORT	|CLSID_AudioRender| [ DATA ]
	EXPORT	|CLSID_AudioProperties| [ DATA ]
	EXPORT	|CLSID_DSoundRender| [ DATA ]
	EXPORT	|CLSID_AudioCapture| [ DATA ]
	EXPORT	|CLSID_AudioInputMixerProperties| [ DATA ]
	EXPORT	|CLSID_AVIDec| [ DATA ]
	EXPORT	|CLSID_AVIDraw| [ DATA ]
	EXPORT	|CLSID_ACMWrapper| [ DATA ]
	EXPORT	|CLSID_AsyncReader| [ DATA ]
	EXPORT	|CLSID_URLReader| [ DATA ]
	EXPORT	|CLSID_PersistMonikerPID| [ DATA ]
	EXPORT	|CLSID_AMovie| [ DATA ]
	EXPORT	|CLSID_AVICo| [ DATA ]
	EXPORT	|CLSID_FileWriter| [ DATA ]
	EXPORT	|CLSID_AviDest| [ DATA ]
	EXPORT	|CLSID_AsfMux| [ DATA ]
	EXPORT	|CLSID_AviMuxProptyPage| [ DATA ]
	EXPORT	|CLSID_AviMuxProptyPage1| [ DATA ]
	EXPORT	|CLSID_AVIMIDIRender| [ DATA ]
	EXPORT	|CLSID_DVVideoCodec| [ DATA ]
	EXPORT	|CLSID_DVVideoEnc| [ DATA ]
	EXPORT	|CLSID_DVSplitter| [ DATA ]
	EXPORT	|CLSID_DVMux| [ DATA ]
	EXPORT	|CLSID_SeekingPassThru| [ DATA ]
	EXPORT	|CLSID_Line21Decoder| [ DATA ]
	EXPORT	|CLSID_OverlayMixer| [ DATA ]
	EXPORT	|CLSID_VBISurfaces| [ DATA ]
	EXPORT	|CLSID_VBIDataRenderer| [ DATA ]
	EXPORT	|CLSID_SystemDeviceEnum| [ DATA ]
	EXPORT	|CLSID_CDeviceMoniker| [ DATA ]
	EXPORT	|CLSID_VideoInputDeviceCategory| [ DATA ]
	EXPORT	|CLSID_CVidCapClassManager| [ DATA ]
	EXPORT	|CLSID_LegacyAmFilterCategory| [ DATA ]
	EXPORT	|CLSID_CQzFilterClassManager| [ DATA ]
	EXPORT	|CLSID_VideoCompressorCategory| [ DATA ]
	EXPORT	|CLSID_CIcmCoClassManager| [ DATA ]
	EXPORT	|CLSID_AudioCompressorCategory| [ DATA ]
	EXPORT	|CLSID_CAcmCoClassManager| [ DATA ]
	EXPORT	|CLSID_AudioInputDeviceCategory| [ DATA ]
	EXPORT	|CLSID_CWaveinClassManager| [ DATA ]
	EXPORT	|CLSID_AudioRendererCategory| [ DATA ]
	EXPORT	|CLSID_CWaveOutClassManager| [ DATA ]
	EXPORT	|CLSID_MidiRendererCategory| [ DATA ]
	EXPORT	|CLSID_CMidiOutClassManager| [ DATA ]
	EXPORT	|CLSID_TransmitCategory| [ DATA ]
	EXPORT	|CLSID_DeviceControlCategory| [ DATA ]
	EXPORT	|CLSID_ActiveMovieCategories| [ DATA ]
	EXPORT	|CLSID_DVDHWDecodersCategory| [ DATA ]
	EXPORT	|CLSID_FilterMapper2| [ DATA ]
	EXPORT	|CLSID_MemoryAllocator| [ DATA ]
	EXPORT	|CLSID_MediaPropertyBag| [ DATA ]
	EXPORT	|CLSID_DvdGraphBuilder| [ DATA ]
	EXPORT	|CLSID_DVDNavigator| [ DATA ]
	EXPORT	|CLSID_SmartTee| [ DATA ]
	EXPORT	|CLSID_DMOWrapperFilter| [ DATA ]
	EXPORT	|CLSID_WMVDec| [ DATA ]
	EXPORT	|CLSID_BufferingFilter| [ DATA ]
	EXPORT	|FORMAT_None| [ DATA ]
	EXPORT	|FORMAT_VideoInfo| [ DATA ]
	EXPORT	|FORMAT_VideoInfo2| [ DATA ]
	EXPORT	|FORMAT_WaveFormatEx| [ DATA ]
	EXPORT	|FORMAT_MPEGVideo| [ DATA ]
	EXPORT	|FORMAT_MPEGStreams| [ DATA ]
	EXPORT	|FORMAT_DvInfo| [ DATA ]
	EXPORT	|CLSID_DirectDrawProperties| [ DATA ]
	EXPORT	|CLSID_PerformanceProperties| [ DATA ]
	EXPORT	|CLSID_QualityProperties| [ DATA ]
	EXPORT	|IID_IBaseVideoMixer| [ DATA ]
	EXPORT	|IID_IDirectDrawVideo| [ DATA ]
	EXPORT	|IID_IQualProp| [ DATA ]
	EXPORT	|CLSID_VPObject| [ DATA ]
	EXPORT	|IID_IVPObject| [ DATA ]
	EXPORT	|IID_IVPControl| [ DATA ]
	EXPORT	|CLSID_VPVBIObject| [ DATA ]
	EXPORT	|IID_IVPVBIObject| [ DATA ]
	EXPORT	|IID_IVPConfig| [ DATA ]
	EXPORT	|IID_IVPNotify| [ DATA ]
	EXPORT	|IID_IVPNotify2| [ DATA ]
	EXPORT	|IID_IVPVBIConfig| [ DATA ]
	EXPORT	|IID_IVPVBINotify| [ DATA ]
	EXPORT	|IID_IMixerPinConfig| [ DATA ]
	EXPORT	|IID_IMixerPinConfig2| [ DATA ]
	EXPORT	|IID_IDDVideoPortContainer| [ DATA ]
	EXPORT	|IID_IDirectDrawKernel| [ DATA ]
	EXPORT	|IID_IDirectDrawSurfaceKernel| [ DATA ]
	EXPORT	|CLSID_ModexProperties| [ DATA ]
	EXPORT	|IID_IFullScreenVideo| [ DATA ]
	EXPORT	|IID_IFullScreenVideoEx| [ DATA ]
	EXPORT	|CLSID_DVDecPropertiesPage| [ DATA ]
	EXPORT	|CLSID_DVEncPropertiesPage| [ DATA ]
	EXPORT	|CLSID_DVMuxPropertyPage| [ DATA ]
	EXPORT	|IID_IAMDirectSound| [ DATA ]
	EXPORT	|IID_IMpegAudioDecoder| [ DATA ]
	EXPORT	|IID_IAMLine21Decoder| [ DATA ]
	EXPORT	|FORMAT_AnalogVideo| [ DATA ]
	EXPORT	|MEDIATYPE_AnalogVideo| [ DATA ]
	EXPORT	|MEDIASUBTYPE_AnalogVideo_NTSC_M| [ DATA ]
	EXPORT	|MEDIASUBTYPE_AnalogVideo_PAL_B| [ DATA ]
	EXPORT	|MEDIASUBTYPE_AnalogVideo_PAL_D| [ DATA ]
	EXPORT	|MEDIASUBTYPE_AnalogVideo_PAL_G| [ DATA ]
	EXPORT	|MEDIASUBTYPE_AnalogVideo_PAL_H| [ DATA ]
	EXPORT	|MEDIASUBTYPE_AnalogVideo_PAL_I| [ DATA ]
	EXPORT	|MEDIASUBTYPE_AnalogVideo_PAL_M| [ DATA ]
	EXPORT	|MEDIASUBTYPE_AnalogVideo_PAL_N| [ DATA ]
	EXPORT	|MEDIASUBTYPE_AnalogVideo_SECAM_B| [ DATA ]
	EXPORT	|MEDIASUBTYPE_AnalogVideo_SECAM_D| [ DATA ]
	EXPORT	|MEDIASUBTYPE_AnalogVideo_SECAM_G| [ DATA ]
	EXPORT	|MEDIASUBTYPE_AnalogVideo_SECAM_H| [ DATA ]
	EXPORT	|MEDIASUBTYPE_AnalogVideo_SECAM_K| [ DATA ]
	EXPORT	|MEDIASUBTYPE_AnalogVideo_SECAM_K1| [ DATA ]
	EXPORT	|MEDIASUBTYPE_AnalogVideo_SECAM_L| [ DATA ]
	EXPORT	|MEDIATYPE_AnalogAudio| [ DATA ]
	EXPORT	|MEDIATYPE_MPEG2_PACK| [ DATA ]
	EXPORT	|MEDIATYPE_MPEG2_PES| [ DATA ]
	EXPORT	|MEDIASUBTYPE_MPEG2_VIDEO| [ DATA ]
	EXPORT	|FORMAT_MPEG2_VIDEO| [ DATA ]
	EXPORT	|FORMAT_VIDEOINFO2| [ DATA ]
	EXPORT	|MEDIASUBTYPE_MPEG2_PROGRAM| [ DATA ]
	EXPORT	|MEDIASUBTYPE_MPEG2_TRANSPORT| [ DATA ]
	EXPORT	|MEDIASUBTYPE_MPEG2_AUDIO| [ DATA ]
	EXPORT	|MEDIASUBTYPE_DOLBY_AC3| [ DATA ]
	EXPORT	|MEDIASUBTYPE_DVD_SUBPICTURE| [ DATA ]
	EXPORT	|MEDIASUBTYPE_DVD_LPCM_AUDIO| [ DATA ]
	EXPORT	|MEDIATYPE_DVD_ENCRYPTED_PACK| [ DATA ]
	EXPORT	|MEDIATYPE_DVD_NAVIGATION| [ DATA ]
	EXPORT	|MEDIASUBTYPE_DVD_NAVIGATION_PCI| [ DATA ]
	EXPORT	|MEDIASUBTYPE_DVD_NAVIGATION_DSI| [ DATA ]
	EXPORT	|MEDIASUBTYPE_DVD_NAVIGATION_PROVIDER| [ DATA ]
	EXPORT	|FORMAT_MPEG2Video| [ DATA ]
	EXPORT	|FORMAT_DolbyAC3| [ DATA ]
	EXPORT	|FORMAT_MPEG2Audio| [ DATA ]
	EXPORT	|FORMAT_DVD_LPCMAudio| [ DATA ]
	EXPORT	|AM_KSPROPSETID_AC3| [ DATA ]
	EXPORT	|AM_KSPROPSETID_DvdSubPic| [ DATA ]
	EXPORT	|AM_KSPROPSETID_CopyProt| [ DATA ]
	EXPORT	|AM_KSPROPSETID_TSRateChange| [ DATA ]
	EXPORT	|AM_KSPROPSETID_RendererPosition| [ DATA ]
	EXPORT	|AM_KSCATEGORY_CAPTURE| [ DATA ]
	EXPORT	|AM_KSCATEGORY_RENDER| [ DATA ]
	EXPORT	|AM_KSCATEGORY_DATACOMPRESSOR| [ DATA ]
	EXPORT	|AM_KSCATEGORY_AUDIO| [ DATA ]
	EXPORT	|AM_KSCATEGORY_VIDEO| [ DATA ]
	EXPORT	|AM_KSCATEGORY_TVTUNER| [ DATA ]
	EXPORT	|AM_KSCATEGORY_CROSSBAR| [ DATA ]
	EXPORT	|AM_KSCATEGORY_TVAUDIO| [ DATA ]
	EXPORT	|AM_KSCATEGORY_VBICODEC| [ DATA ]
	EXPORT	|AM_KSCATEGORY_SPLITTER| [ DATA ]
	EXPORT	|IID_IKsInterfaceHandler| [ DATA ]
	EXPORT	|IID_IKsDataTypeHandler| [ DATA ]
	EXPORT	|IID_IKsPin| [ DATA ]
	EXPORT	|IID_IKsControl| [ DATA ]
	EXPORT	|IID_IKsPinFactory| [ DATA ]
	EXPORT	|AM_INTERFACESETID_Standard| [ DATA ]
	EXPORT	|TIME_FORMAT_NONE| [ DATA ]
	EXPORT	|TIME_FORMAT_FRAME| [ DATA ]
	EXPORT	|TIME_FORMAT_BYTE| [ DATA ]
	EXPORT	|TIME_FORMAT_SAMPLE| [ DATA ]
	EXPORT	|TIME_FORMAT_FIELD| [ DATA ]
	EXPORT	|TIME_FORMAT_MEDIA_TIME| [ DATA ]
	EXPORT	|AMPROPSETID_Pin| [ DATA ]
	EXPORT	|PIN_CATEGORY_CAPTURE| [ DATA ]
	EXPORT	|PIN_CATEGORY_PREVIEW| [ DATA ]
	EXPORT	|PIN_CATEGORY_ANALOGVIDEOIN| [ DATA ]
	EXPORT	|PIN_CATEGORY_VBI| [ DATA ]
	EXPORT	|PIN_CATEGORY_VIDEOPORT| [ DATA ]
	EXPORT	|PIN_CATEGORY_NABTS| [ DATA ]
	EXPORT	|PIN_CATEGORY_EDS| [ DATA ]
	EXPORT	|PIN_CATEGORY_TELETEXT| [ DATA ]
	EXPORT	|PIN_CATEGORY_CC| [ DATA ]
	EXPORT	|PIN_CATEGORY_STILL| [ DATA ]
	EXPORT	|PIN_CATEGORY_TIMECODE| [ DATA ]
	EXPORT	|PIN_CATEGORY_VIDEOPORT_VBI| [ DATA ]
	EXPORT	|LOOK_UPSTREAM_ONLY| [ DATA ]
	EXPORT	|LOOK_DOWNSTREAM_ONLY| [ DATA ]
	EXPORT	|CLSID_TVTunerFilterPropertyPage| [ DATA ]
	EXPORT	|CLSID_CrossbarFilterPropertyPage| [ DATA ]
	EXPORT	|CLSID_TVAudioFilterPropertyPage| [ DATA ]
	EXPORT	|CLSID_VideoProcAmpPropertyPage| [ DATA ]
	EXPORT	|CLSID_CameraControlPropertyPage| [ DATA ]
	EXPORT	|CLSID_AnalogVideoDecoderPropertyPage| [ DATA ]
	EXPORT	|CLSID_VideoStreamConfigPropertyPage| [ DATA ]
	EXPORT	|IID_IIPDVDec| [ DATA ]
	EXPORT	|CLSID_OverlayMixer2| [ DATA ]
	EXPORT	|CLSID_ScriptCommandRenderer| [ DATA ]
	EXPORT	|IID_IScriptCommandRenderer| [ DATA ]
	EXPORT	|CLSID_FileRend| [ DATA ]
	EXPORT	|CLSID_MultFile| [ DATA ]
	EXPORT	|CLSID_ASFWriter| [ DATA ]
	EXPORT	|CLSID_IMGSinkFilter| [ DATA ]
	EXPORT	|AM_KSPROPSETID_FrameStep| [ DATA ]
	EXPORT	|CLSID_NullSink| [ DATA ]
	EXPORT	|?g_Templates@@3PAVCFactoryTemplate@@A| [ DATA ] ; g_Templates
	EXPORT	|?g_cTemplates@@3HA| [ DATA ]		; g_cTemplates
	EXPORT	|?dpCurSettings@@3U_DBGPARAM@@A| [ DATA ] ; dpCurSettings
	IMPORT	|GUID_NULL|

  00000			 AREA	 |.data|, DATA
|?g_Templates@@3PAVCFactoryTemplate@@A| DCD |??_C@_1BO@CAALFHMN@?$AAN?$AAu?$AAl?$AAl?$AAS?$AAi?$AAn?$AAk?$AAF?$AAi?$AAl?$AAt?$AAe?$AAr?$AA?$AA@| ; g_Templates
	DCD	|CLSID_NullSink|
	DCD	|?CreateInstance@CNullSink@MyNullSink@@SAPAVCUnknown@@PAUIUnknown@@PAJ@Z|
	DCD	0x0
	DCD	|sudNullSink|
|?g_cTemplates@@3HA| DCD 0x1				; g_cTemplates
|?dpCurSettings@@3U_DBGPARAM@@A| DCB "N", 0x0, "u", 0x0, "l", 0x0, "l", 0x0
	DCB	" ", 0x0, "S", 0x0, "i", 0x0, "n", 0x0, "k", 0x0, " ", 0x0
	DCB	"F", 0x0, "i", 0x0, "l", 0x0, "t", 0x0, "e", 0x0, "r", 0x0
	DCB	" ", 0x0, "D", 0x0, "L", 0x0, "L", 0x0, 0x0, 0x0 ; dpCurSettings
	%	22
	DCB	"I", 0x0, "n", 0x0, "f", 0x0, "o", 0x0, 0x0, 0x0
	%	54
	DCB	"S", 0x0, "t", 0x0, "a", 0x0, "t", 0x0, "s", 0x0, 0x0, 0x0
	%	52
	DCB	"W", 0x0, "a", 0x0, "r", 0x0, "n", 0x0, "i", 0x0, "n", 0x0
	DCB	"g", 0x0, 0x0, 0x0
	%	48
	DCB	"E", 0x0, "r", 0x0, "r", 0x0, "o", 0x0, "r", 0x0, 0x0, 0x0
	%	52
	DCW	0x0
	DCW	0x0
	DCW	0x0
	DCW	0x0
	DCW	0x0
	DCW	0x0
	DCW	0x0
	DCW	0x0
	DCW	0x0
	DCW	0x0
	DCW	0x0
	DCW	0x0
	%	744
	DCD	0xf

  00000			 AREA	 |.rdata|, DATA, READONLY
|??_C@_1BO@CAALFHMN@?$AAN?$AAu?$AAl?$AAl?$AAS?$AAi?$AAn?$AAk?$AAF?$AAi?$AAl?$AAt?$AAe?$AAr?$AA?$AA@| DCB "N"
	DCB	0x0, "u", 0x0, "l", 0x0, "l", 0x0, "S", 0x0, "i", 0x0, "n"
	DCB	0x0, "k", 0x0, "F", 0x0, "i", 0x0, "l", 0x0, "t", 0x0, "e"
	DCB	0x0, "r", 0x0, 0x0, 0x0			; `string'

  00000			 AREA	 |.rdata|, DATA, READONLY
|??_C@_1M@PFCMLKBL@?$AAI?$AAn?$AAp?$AAu?$AAt?$AA?$AA@| DCB "I", 0x0, "n", 0x0
	DCB	"p", 0x0, "u", 0x0, "t", 0x0, 0x0, 0x0	; `string'

  00000			 AREA	 |.rdata|, DATA, READONLY
|IID_IPropertyFrame| DCD 0xb196b28a
	DCW	0xbab4
	DCW	0x101a
	DCB	0xb6
	DCB	0x9c
	DCB	0x0
	DCB	0xaa
	DCB	0x0
	DCB	0x34
	DCB	0x1d
	DCB	0x7
|CLSID_CFontPropPage| DCD 0xbe35200
	DCW	0x8f91
	DCW	0x11ce
	DCB	0x9d
	DCB	0xe3
	DCB	0x0
	DCB	0xaa
	DCB	0x0
	DCB	0x4b
	DCB	0xb8
	DCB	0x51
|CLSID_CColorPropPage| DCD 0xbe35201
	DCW	0x8f91
	DCW	0x11ce
	DCB	0x9d
	DCB	0xe3
	DCB	0x0
	DCB	0xaa
	DCB	0x0
	DCB	0x4b
	DCB	0xb8
	DCB	0x51
|CLSID_CPicturePropPage| DCD 0xbe35202
	DCW	0x8f91
	DCW	0x11ce
	DCB	0x9d
	DCB	0xe3
	DCB	0x0
	DCB	0xaa
	DCB	0x0
	DCB	0x4b
	DCB	0xb8
	DCB	0x51
|CLSID_PersistPropset| DCD 0xfb8f0821
	DCW	0x164
	DCW	0x101b
	DCB	0x84
	DCB	0xed
	DCB	0x8
	DCB	0x0
	DCB	0x2b
	DCB	0x2e
	DCB	0xc7
	DCB	0x13
|CLSID_ConvertVBX| DCD 0xfb8f0822
	DCW	0x164
	DCW	0x101b
	DCB	0x84
	DCB	0xed
	DCB	0x8
	DCB	0x0
	DCB	0x2b
	DCB	0x2e
	DCB	0xc7
	DCB	0x13
|CLSID_StdFont| DCD 0xbe35203
	DCW	0x8f91
	DCW	0x11ce
	DCB	0x9d
	DCB	0xe3
	DCB	0x0
	DCB	0xaa
	DCB	0x0
	DCB	0x4b
	DCB	0xb8
	DCB	0x51
|CLSID_StdPicture| DCD 0xbe35204
	DCW	0x8f91
	DCW	0x11ce
	DCB	0x9d
	DCB	0xe3
	DCB	0x0
	DCB	0xaa
	DCB	0x0
	DCB	0x4b
	DCB	0xb8
	DCB	0x51
|GUID_HIMETRIC| DCD 0x66504300
	DCW	0xbe0f
	DCW	0x101a
	DCB	0x8b
	DCB	0xbb
	DCB	0x0
	DCB	0xaa
	DCB	0x0
	DCB	0x30
	DCB	0xc
	DCB	0xab
|GUID_COLOR| DCD 0x66504301
	DCW	0xbe0f
	DCW	0x101a
	DCB	0x8b
	DCB	0xbb
	DCB	0x0
	DCB	0xaa
	DCB	0x0
	DCB	0x30
	DCB	0xc
	DCB	0xab
|GUID_XPOSPIXEL| DCD 0x66504302
	DCW	0xbe0f
	DCW	0x101a
	DCB	0x8b
	DCB	0xbb
	DCB	0x0
	DCB	0xaa
	DCB	0x0
	DCB	0x30
	DCB	0xc
	DCB	0xab
|GUID_YPOSPIXEL| DCD 0x66504303
	DCW	0xbe0f
	DCW	0x101a
	DCB	0x8b
	DCB	0xbb
	DCB	0x0
	DCB	0xaa
	DCB	0x0
	DCB	0x30
	DCB	0xc
	DCB	0xab
|GUID_XSIZEPIXEL| DCD 0x66504304
	DCW	0xbe0f
	DCW	0x101a
	DCB	0x8b
	DCB	0xbb
	DCB	0x0
	DCB	0xaa
	DCB	0x0
	DCB	0x30
	DCB	0xc
	DCB	0xab
|GUID_YSIZEPIXEL| DCD 0x66504305
	DCW	0xbe0f
	DCW	0x101a
	DCB	0x8b
	DCB	0xbb
	DCB	0x0
	DCB	0xaa
	DCB	0x0
	DCB	0x30
	DCB	0xc
	DCB	0xab
|GUID_XPOS| DCD	0x66504306
	DCW	0xbe0f
	DCW	0x101a
	DCB	0x8b
	DCB	0xbb
	DCB	0x0
	DCB	0xaa
	DCB	0x0
	DCB	0x30
	DCB	0xc
	DCB	0xab
|GUID_YPOS| DCD	0x66504307
	DCW	0xbe0f
	DCW	0x101a
	DCB	0x8b
	DCB	0xbb
	DCB	0x0
	DCB	0xaa
	DCB	0x0
	DCB	0x30
	DCB	0xc
	DCB	0xab
|GUID_XSIZE| DCD 0x66504308
	DCW	0xbe0f
	DCW	0x101a
	DCB	0x8b
	DCB	0xbb
	DCB	0x0
	DCB	0xaa
	DCB	0x0
	DCB	0x30
	DCB	0xc
	DCB	0xab
|GUID_YSIZE| DCD 0x66504309
	DCW	0xbe0f
	DCW	0x101a
	DCB	0x8b
	DCB	0xbb
	DCB	0x0
	DCB	0xaa
	DCB	0x0
	DCB	0x30
	DCB	0xc
	DCB	0xab
|GUID_OPTIONVALUEEXCLUSIVE| DCD 0x6650430b
	DCW	0xbe0f
	DCW	0x101a
	DCB	0x8b
	DCB	0xbb
	DCB	0x0
	DCB	0xaa
	DCB	0x0
	DCB	0x30
	DCB	0xc
	DCB	0xab
|GUID_CHECKVALUEEXCLUSIVE| DCD 0x6650430c
	DCW	0xbe0f
	DCW	0x101a
	DCB	0x8b
	DCB	0xbb
	DCB	0x0
	DCB	0xaa
	DCB	0x0
	DCB	0x30
	DCB	0xc
	DCB	0xab
|GUID_FONTNAME| DCD 0x6650430d
	DCW	0xbe0f
	DCW	0x101a
	DCB	0x8b
	DCB	0xbb
	DCB	0x0
	DCB	0xaa
	DCB	0x0
	DCB	0x30
	DCB	0xc
	DCB	0xab
|GUID_FONTSIZE| DCD 0x6650430e
	DCW	0xbe0f
	DCW	0x101a
	DCB	0x8b
	DCB	0xbb
	DCB	0x0
	DCB	0xaa
	DCB	0x0
	DCB	0x30
	DCB	0xc
	DCB	0xab
|GUID_FONTBOLD| DCD 0x6650430f
	DCW	0xbe0f
	DCW	0x101a
	DCB	0x8b
	DCB	0xbb
	DCB	0x0
	DCB	0xaa
	DCB	0x0
	DCB	0x30
	DCB	0xc
	DCB	0xab
|GUID_FONTITALIC| DCD 0x66504310
	DCW	0xbe0f
	DCW	0x101a
	DCB	0x8b
	DCB	0xbb
	DCB	0x0
	DCB	0xaa
	DCB	0x0
	DCB	0x30
	DCB	0xc
	DCB	0xab
|GUID_FONTUNDERSCORE| DCD 0x66504311
	DCW	0xbe0f
	DCW	0x101a
	DCB	0x8b
	DCB	0xbb
	DCB	0x0
	DCB	0xaa
	DCB	0x0
	DCB	0x30
	DCB	0xc
	DCB	0xab
|GUID_FONTSTRIKETHROUGH| DCD 0x66504312
	DCW	0xbe0f
	DCW	0x101a
	DCB	0x8b
	DCB	0xbb
	DCB	0x0
	DCB	0xaa
	DCB	0x0
	DCB	0x30
	DCB	0xc
	DCB	0xab
|GUID_HANDLE| DCD 0x66504313
	DCW	0xbe0f
	DCW	0x101a
	DCB	0x8b
	DCB	0xbb
	DCB	0x0
	DCB	0xaa
	DCB	0x0
	DCB	0x30
	DCB	0xc
	DCB	0xab
|LIBID_QuartzTypeLib| DCD 0x56a868b0
	DCW	0xad4
	DCW	0x11ce
	DCB	0xb0
	DCB	0x3a
	DCB	0x0
	DCB	0x20
	DCB	0xaf
	DCB	0xb
	DCB	0xa7
	DCB	0x70
|IID_IAMCollection| DCD 0x56a868b9
	DCW	0xad4
	DCW	0x11ce
	DCB	0xb0
	DCB	0x3a
	DCB	0x0
	DCB	0x20
	DCB	0xaf
	DCB	0xb
	DCB	0xa7
	DCB	0x70
|IID_IMediaControl| DCD 0x56a868b1
	DCW	0xad4
	DCW	0x11ce
	DCB	0xb0
	DCB	0x3a
	DCB	0x0
	DCB	0x20
	DCB	0xaf
	DCB	0xb
	DCB	0xa7
	DCB	0x70
|IID_IMediaEvent| DCD 0x56a868b6
	DCW	0xad4
	DCW	0x11ce
	DCB	0xb0
	DCB	0x3a
	DCB	0x0
	DCB	0x20
	DCB	0xaf
	DCB	0xb
	DCB	0xa7
	DCB	0x70
|IID_IMediaEventEx| DCD 0x56a868c0
	DCW	0xad4
	DCW	0x11ce
	DCB	0xb0
	DCB	0x3a
	DCB	0x0
	DCB	0x20
	DCB	0xaf
	DCB	0xb
	DCB	0xa7
	DCB	0x70
|IID_IMediaPosition| DCD 0x56a868b2
	DCW	0xad4
	DCW	0x11ce
	DCB	0xb0
	DCB	0x3a
	DCB	0x0
	DCB	0x20
	DCB	0xaf
	DCB	0xb
	DCB	0xa7
	DCB	0x70
|IID_IBasicAudio| DCD 0x56a868b3
	DCW	0xad4
	DCW	0x11ce
	DCB	0xb0
	DCB	0x3a
	DCB	0x0
	DCB	0x20
	DCB	0xaf
	DCB	0xb
	DCB	0xa7
	DCB	0x70
|IID_IVideoWindow| DCD 0x56a868b4
	DCW	0xad4
	DCW	0x11ce
	DCB	0xb0
	DCB	0x3a
	DCB	0x0
	DCB	0x20
	DCB	0xaf
	DCB	0xb
	DCB	0xa7
	DCB	0x70
|IID_IBasicVideo| DCD 0x56a868b5
	DCW	0xad4
	DCW	0x11ce
	DCB	0xb0
	DCB	0x3a
	DCB	0x0
	DCB	0x20
	DCB	0xaf
	DCB	0xb
	DCB	0xa7
	DCB	0x70
|IID_IBasicVideo2| DCD 0x329bb360
	DCW	0xf6ea
	DCW	0x11d1
	DCB	0x90
	DCB	0x38
	DCB	0x0
	DCB	0xa0
	DCB	0xc9
	DCB	0x69
	DCB	0x72
	DCB	0x98
|IID_IDeferredCommand| DCD 0x56a868b8
	DCW	0xad4
	DCW	0x11ce
	DCB	0xb0
	DCB	0x3a
	DCB	0x0
	DCB	0x20
	DCB	0xaf
	DCB	0xb
	DCB	0xa7
	DCB	0x70
|IID_IQueueCommand| DCD 0x56a868b7
	DCW	0xad4
	DCW	0x11ce
	DCB	0xb0
	DCB	0x3a
	DCB	0x0
	DCB	0x20
	DCB	0xaf
	DCB	0xb
	DCB	0xa7
	DCB	0x70
|CLSID_FilgraphManager| DCD 0xe436ebb3
	DCW	0x524f
	DCW	0x11ce
	DCB	0x9f
	DCB	0x53
	DCB	0x0
	DCB	0x20
	DCB	0xaf
	DCB	0xb
	DCB	0xa7
	DCB	0x70
|IID_IFilterInfo| DCD 0x56a868ba
	DCW	0xad4
	DCW	0x11ce
	DCB	0xb0
	DCB	0x3a
	DCB	0x0
	DCB	0x20
	DCB	0xaf
	DCB	0xb
	DCB	0xa7
	DCB	0x70
|IID_IRegFilterInfo| DCD 0x56a868bb
	DCW	0xad4
	DCW	0x11ce
	DCB	0xb0
	DCB	0x3a
	DCB	0x0
	DCB	0x20
	DCB	0xaf
	DCB	0xb
	DCB	0xa7
	DCB	0x70
|IID_IMediaTypeInfo| DCD 0x56a868bc
	DCW	0xad4
	DCW	0x11ce
	DCB	0xb0
	DCB	0x3a
	DCB	0x0
	DCB	0x20
	DCB	0xaf
	DCB	0xb
	DCB	0xa7
	DCB	0x70
|IID_IPinInfo| DCD 0x56a868bd
	DCW	0xad4
	DCW	0x11ce
	DCB	0xb0
	DCB	0x3a
	DCB	0x0
	DCB	0x20
	DCB	0xaf
	DCB	0xb
	DCB	0xa7
	DCB	0x70
|MEDIASUBTYPE_None| DCD 0xe436eb8e
	DCW	0x524f
	DCW	0x11ce
	DCB	0x9f
	DCB	0x53
	DCB	0x0
	DCB	0x20
	DCB	0xaf
	DCB	0xb
	DCB	0xa7
	DCB	0x70
|MEDIATYPE_Video| DCD 0x73646976
	DCW	0x0
	DCW	0x10
	DCB	0x80
	DCB	0x0
	DCB	0x0
	DCB	0xaa
	DCB	0x0
	DCB	0x38
	DCB	0x9b
	DCB	0x71
|MEDIATYPE_Audio| DCD 0x73647561
	DCW	0x0
	DCW	0x10
	DCB	0x80
	DCB	0x0
	DCB	0x0
	DCB	0xaa
	DCB	0x0
	DCB	0x38
	DCB	0x9b
	DCB	0x71
|MEDIATYPE_VideoBuffered| DCD 0x28e3a27d
	DCW	0x5f48
	DCW	0x4700
	DCB	0x91
	DCB	0x3b
	DCB	0x49
	DCB	0x86
	DCB	0x60
	DCB	0x8c
	DCB	0x8a
	DCB	0x8b
|MEDIATYPE_AudioBuffered| DCD 0x451efe59
	DCW	0x3bbd
	DCW	0x43c7
	DCB	0x9e
	DCB	0x67
	DCB	0x51
	DCB	0x1a
	DCB	0x83
	DCB	0x5f
	DCB	0xa7
	DCB	0xf1
|MEDIATYPE_Text| DCD 0x73747874
	DCW	0x0
	DCW	0x10
	DCB	0x80
	DCB	0x0
	DCB	0x0
	DCB	0xaa
	DCB	0x0
	DCB	0x38
	DCB	0x9b
	DCB	0x71
|MEDIATYPE_Midi| DCD 0x7364696d
	DCW	0x0
	DCW	0x10
	DCB	0x80
	DCB	0x0
	DCB	0x0
	DCB	0xaa
	DCB	0x0
	DCB	0x38
	DCB	0x9b
	DCB	0x71
|MEDIATYPE_Stream| DCD 0xe436eb83
	DCW	0x524f
	DCW	0x11ce
	DCB	0x9f
	DCB	0x53
	DCB	0x0
	DCB	0x20
	DCB	0xaf
	DCB	0xb
	DCB	0xa7
	DCB	0x70
|MEDIATYPE_Interleaved| DCD 0x73766169
	DCW	0x0
	DCW	0x10
	DCB	0x80
	DCB	0x0
	DCB	0x0
	DCB	0xaa
	DCB	0x0
	DCB	0x38
	DCB	0x9b
	DCB	0x71
|MEDIATYPE_File| DCD 0x656c6966
	DCW	0x0
	DCW	0x10
	DCB	0x80
	DCB	0x0
	DCB	0x0
	DCB	0xaa
	DCB	0x0
	DCB	0x38
	DCB	0x9b
	DCB	0x71
|MEDIATYPE_ScriptCommand| DCD 0x73636d64
	DCW	0x0
	DCW	0x10
	DCB	0x80
	DCB	0x0
	DCB	0x0
	DCB	0xaa
	DCB	0x0
	DCB	0x38
	DCB	0x9b
	DCB	0x71
|MEDIATYPE_AUXLine21Data| DCD 0x670aea80
	DCW	0x3a82
	DCW	0x11d0
	DCB	0xb7
	DCB	0x9b
	DCB	0x0
	DCB	0xaa
	DCB	0x0
	DCB	0x37
	DCB	0x67
	DCB	0xa7
|MEDIATYPE_Timecode| DCD 0x482dee3
	DCW	0x7817
	DCW	0x11cf
	DCB	0x8a
	DCB	0x3
	DCB	0x0
	DCB	0xaa
	DCB	0x0
	DCB	0x6e
	DCB	0xcb
	DCB	0x65
|MEDIATYPE_LMRT| DCD 0x74726c6d
	DCW	0x0
	DCW	0x10
	DCB	0x80
	DCB	0x0
	DCB	0x0
	DCB	0xaa
	DCB	0x0
	DCB	0x38
	DCB	0x9b
	DCB	0x71
|MEDIATYPE_URL_STREAM| DCD 0x736c7275
	DCW	0x0
	DCW	0x10
	DCB	0x80
	DCB	0x0
	DCB	0x0
	DCB	0xaa
	DCB	0x0
	DCB	0x38
	DCB	0x9b
	DCB	0x71
|MEDIASUBTYPE_YVU9| DCD 0x39555659
	DCW	0x0
	DCW	0x10
	DCB	0x80
	DCB	0x0
	DCB	0x0
	DCB	0xaa
	DCB	0x0
	DCB	0x38
	DCB	0x9b
	DCB	0x71
|MEDIASUBTYPE_Y411| DCD 0x31313459
	DCW	0x0
	DCW	0x10
	DCB	0x80
	DCB	0x0
	DCB	0x0
	DCB	0xaa
	DCB	0x0
	DCB	0x38
	DCB	0x9b
	DCB	0x71
|MEDIASUBTYPE_Y41P| DCD 0x50313459
	DCW	0x0
	DCW	0x10
	DCB	0x80
	DCB	0x0
	DCB	0x0
	DCB	0xaa
	DCB	0x0
	DCB	0x38
	DCB	0x9b
	DCB	0x71
|MEDIASUBTYPE_YUY2| DCD 0x32595559
	DCW	0x0
	DCW	0x10
	DCB	0x80
	DCB	0x0
	DCB	0x0
	DCB	0xaa
	DCB	0x0
	DCB	0x38
	DCB	0x9b
	DCB	0x71
|MEDIASUBTYPE_YVYU| DCD 0x55595659
	DCW	0x0
	DCW	0x10
	DCB	0x80
	DCB	0x0
	DCB	0x0
	DCB	0xaa
	DCB	0x0
	DCB	0x38
	DCB	0x9b
	DCB	0x71
|MEDIASUBTYPE_UYVY| DCD 0x59565955
	DCW	0x0
	DCW	0x10
	DCB	0x80
	DCB	0x0
	DCB	0x0
	DCB	0xaa
	DCB	0x0
	DCB	0x38
	DCB	0x9b
	DCB	0x71
|MEDIASUBTYPE_Y211| DCD 0x31313259
	DCW	0x0
	DCW	0x10
	DCB	0x80
	DCB	0x0
	DCB	0x0
	DCB	0xaa
	DCB	0x0
	DCB	0x38
	DCB	0x9b
	DCB	0x71
|MEDIASUBTYPE_YV12| DCD 0x32315659
	DCW	0x0
	DCW	0x10
	DCB	0x80
	DCB	0x0
	DCB	0x0
	DCB	0xaa
	DCB	0x0
	DCB	0x38
	DCB	0x9b
	DCB	0x71
|MEDIASUBTYPE_YV16| DCD 0x36315659
	DCW	0x0
	DCW	0x10
	DCB	0x80
	DCB	0x0
	DCB	0x0
	DCB	0xaa
	DCB	0x0
	DCB	0x38
	DCB	0x9b
	DCB	0x71
|MEDIASUBTYPE_IUYV| DCD 0x56595549
	DCW	0x0
	DCW	0x10
	DCB	0x80
	DCB	0x0
	DCB	0x0
	DCB	0xaa
	DCB	0x0
	DCB	0x38
	DCB	0x9b
	DCB	0x71
|MEDIASUBTYPE_NV12| DCD 0x3231564e
	DCW	0x0
	DCW	0x10
	DCB	0x80
	DCB	0x0
	DCB	0x0
	DCB	0xaa
	DCB	0x0
	DCB	0x38
	DCB	0x9b
	DCB	0x71
|MEDIASUBTYPE_I420| DCD 0x30323449
	DCW	0x0
	DCW	0x10
	DCB	0x80
	DCB	0x0
	DCB	0x0
	DCB	0xaa
	DCB	0x0
	DCB	0x38
	DCB	0x9b
	DCB	0x71
|MEDIASUBTYPE_IYUV| DCD 0x56555949
	DCW	0x0
	DCW	0x10
	DCB	0x80
	DCB	0x0
	DCB	0x0
	DCB	0xaa
	DCB	0x0
	DCB	0x38
	DCB	0x9b
	DCB	0x71
|MEDIASUBTYPE_CLJR| DCD 0x524a4c43
	DCW	0x0
	DCW	0x10
	DCB	0x80
	DCB	0x0
	DCB	0x0
	DCB	0xaa
	DCB	0x0
	DCB	0x38
	DCB	0x9b
	DCB	0x71
|MEDIASUBTYPE_IF09| DCD 0x39304649
	DCW	0x0
	DCW	0x10
	DCB	0x80
	DCB	0x0
	DCB	0x0
	DCB	0xaa
	DCB	0x0
	DCB	0x38
	DCB	0x9b
	DCB	0x71
|MEDIASUBTYPE_CPLA| DCD 0x414c5043
	DCW	0x0
	DCW	0x10
	DCB	0x80
	DCB	0x0
	DCB	0x0
	DCB	0xaa
	DCB	0x0
	DCB	0x38
	DCB	0x9b
	DCB	0x71
|MEDIASUBTYPE_MJPG| DCD 0x47504a4d
	DCW	0x0
	DCW	0x10
	DCB	0x80
	DCB	0x0
	DCB	0x0
	DCB	0xaa
	DCB	0x0
	DCB	0x38
	DCB	0x9b
	DCB	0x71
|MEDIASUBTYPE_TVMJ| DCD 0x4a4d5654
	DCW	0x0
	DCW	0x10
	DCB	0x80
	DCB	0x0
	DCB	0x0
	DCB	0xaa
	DCB	0x0
	DCB	0x38
	DCB	0x9b
	DCB	0x71
|MEDIASUBTYPE_WAKE| DCD 0x454b4157
	DCW	0x0
	DCW	0x10
	DCB	0x80
	DCB	0x0
	DCB	0x0
	DCB	0xaa
	DCB	0x0
	DCB	0x38
	DCB	0x9b
	DCB	0x71
|MEDIASUBTYPE_CFCC| DCD 0x43434643
	DCW	0x0
	DCW	0x10
	DCB	0x80
	DCB	0x0
	DCB	0x0
	DCB	0xaa
	DCB	0x0
	DCB	0x38
	DCB	0x9b
	DCB	0x71
|MEDIASUBTYPE_IJPG| DCD 0x47504a49
	DCW	0x0
	DCW	0x10
	DCB	0x80
	DCB	0x0
	DCB	0x0
	DCB	0xaa
	DCB	0x0
	DCB	0x38
	DCB	0x9b
	DCB	0x71
|MEDIASUBTYPE_Plum| DCD 0x6d756c50
	DCW	0x0
	DCW	0x10
	DCB	0x80
	DCB	0x0
	DCB	0x0
	DCB	0xaa
	DCB	0x0
	DCB	0x38
	DCB	0x9b
	DCB	0x71
|MEDIASUBTYPE_DVCS| DCD 0x53435644
	DCW	0x0
	DCW	0x10
	DCB	0x80
	DCB	0x0
	DCB	0x0
	DCB	0xaa
	DCB	0x0
	DCB	0x38
	DCB	0x9b
	DCB	0x71
|MEDIASUBTYPE_DVSD| DCD 0x44535644
	DCW	0x0
	DCW	0x10
	DCB	0x80
	DCB	0x0
	DCB	0x0
	DCB	0xaa
	DCB	0x0
	DCB	0x38
	DCB	0x9b
	DCB	0x71
|MEDIASUBTYPE_MDVF| DCD 0x4656444d
	DCW	0x0
	DCW	0x10
	DCB	0x80
	DCB	0x0
	DCB	0x0
	DCB	0xaa
	DCB	0x0
	DCB	0x38
	DCB	0x9b
	DCB	0x71
|MEDIASUBTYPE_RGB1| DCD 0xe436eb78
	DCW	0x524f
	DCW	0x11ce
	DCB	0x9f
	DCB	0x53
	DCB	0x0
	DCB	0x20
	DCB	0xaf
	DCB	0xb
	DCB	0xa7
	DCB	0x70
|MEDIASUBTYPE_RGB4| DCD 0xe436eb79
	DCW	0x524f
	DCW	0x11ce
	DCB	0x9f
	DCB	0x53
	DCB	0x0
	DCB	0x20
	DCB	0xaf
	DCB	0xb
	DCB	0xa7
	DCB	0x70
|MEDIASUBTYPE_RGB8| DCD 0xe436eb7a
	DCW	0x524f
	DCW	0x11ce
	DCB	0x9f
	DCB	0x53
	DCB	0x0
	DCB	0x20
	DCB	0xaf
	DCB	0xb
	DCB	0xa7
	DCB	0x70
|MEDIASUBTYPE_RGB565| DCD 0xe436eb7b
	DCW	0x524f
	DCW	0x11ce
	DCB	0x9f
	DCB	0x53
	DCB	0x0
	DCB	0x20
	DCB	0xaf
	DCB	0xb
	DCB	0xa7
	DCB	0x70
|MEDIASUBTYPE_RGB555| DCD 0xe436eb7c
	DCW	0x524f
	DCW	0x11ce
	DCB	0x9f
	DCB	0x53
	DCB	0x0
	DCB	0x20
	DCB	0xaf
	DCB	0xb
	DCB	0xa7
	DCB	0x70
|MEDIASUBTYPE_RGB24| DCD 0xe436eb7d
	DCW	0x524f
	DCW	0x11ce
	DCB	0x9f
	DCB	0x53
	DCB	0x0
	DCB	0x20
	DCB	0xaf
	DCB	0xb
	DCB	0xa7
	DCB	0x70
|MEDIASUBTYPE_RGB32| DCD 0xe436eb7e
	DCW	0x524f
	DCW	0x11ce
	DCB	0x9f
	DCB	0x53
	DCB	0x0
	DCB	0x20
	DCB	0xaf
	DCB	0xb
	DCB	0xa7
	DCB	0x70
|MEDIASUBTYPE_Overlay| DCD 0xe436eb7f
	DCW	0x524f
	DCW	0x11ce
	DCB	0x9f
	DCB	0x53
	DCB	0x0
	DCB	0x20
	DCB	0xaf
	DCB	0xb
	DCB	0xa7
	DCB	0x70
|MEDIASUBTYPE_MPEG1Packet| DCD 0xe436eb80
	DCW	0x524f
	DCW	0x11ce
	DCB	0x9f
	DCB	0x53
	DCB	0x0
	DCB	0x20
	DCB	0xaf
	DCB	0xb
	DCB	0xa7
	DCB	0x70
|MEDIASUBTYPE_MPEG1Payload| DCD 0xe436eb81
	DCW	0x524f
	DCW	0x11ce
	DCB	0x9f
	DCB	0x53
	DCB	0x0
	DCB	0x20
	DCB	0xaf
	DCB	0xb
	DCB	0xa7
	DCB	0x70
|MEDIASUBTYPE_MPEG1AudioPayload| DCD 0x50
	DCW	0x0
	DCW	0x10
	DCB	0x80
	DCB	0x0
	DCB	0x0
	DCB	0xaa
	DCB	0x0
	DCB	0x38
	DCB	0x9b
	DCB	0x71
|MEDIATYPE_MPEG1SystemStream| DCD 0xe436eb82
	DCW	0x524f
	DCW	0x11ce
	DCB	0x9f
	DCB	0x53
	DCB	0x0
	DCB	0x20
	DCB	0xaf
	DCB	0xb
	DCB	0xa7
	DCB	0x70
|MEDIASUBTYPE_MPEG1System| DCD 0xe436eb84
	DCW	0x524f
	DCW	0x11ce
	DCB	0x9f
	DCB	0x53
	DCB	0x0
	DCB	0x20
	DCB	0xaf
	DCB	0xb
	DCB	0xa7
	DCB	0x70
|MEDIASUBTYPE_MPEG1VideoCD| DCD 0xe436eb85
	DCW	0x524f
	DCW	0x11ce
	DCB	0x9f
	DCB	0x53
	DCB	0x0
	DCB	0x20
	DCB	0xaf
	DCB	0xb
	DCB	0xa7
	DCB	0x70
|MEDIASUBTYPE_MPEG1Video| DCD 0xe436eb86
	DCW	0x524f
	DCW	0x11ce
	DCB	0x9f
	DCB	0x53
	DCB	0x0
	DCB	0x20
	DCB	0xaf
	DCB	0xb
	DCB	0xa7
	DCB	0x70
|MEDIASUBTYPE_MPEG1Audio| DCD 0xe436eb87
	DCW	0x524f
	DCW	0x11ce
	DCB	0x9f
	DCB	0x53
	DCB	0x0
	DCB	0x20
	DCB	0xaf
	DCB	0xb
	DCB	0xa7
	DCB	0x70
|MEDIASUBTYPE_Avi| DCD 0xe436eb88
	DCW	0x524f
	DCW	0x11ce
	DCB	0x9f
	DCB	0x53
	DCB	0x0
	DCB	0x20
	DCB	0xaf
	DCB	0xb
	DCB	0xa7
	DCB	0x70
|MEDIASUBTYPE_Asf| DCD 0x3db80f90
	DCW	0x9412
	DCW	0x11d1
	DCB	0xad
	DCB	0xed
	DCB	0x0
	DCB	0x0
	DCB	0xf8
	DCB	0x75
	DCB	0x4b
	DCB	0x99
|MEDIASUBTYPE_QTMovie| DCD 0xe436eb89
	DCW	0x524f
	DCW	0x11ce
	DCB	0x9f
	DCB	0x53
	DCB	0x0
	DCB	0x20
	DCB	0xaf
	DCB	0xb
	DCB	0xa7
	DCB	0x70
|MEDIASUBTYPE_QTRpza| DCD 0x617a7072
	DCW	0x0
	DCW	0x10
	DCB	0x80
	DCB	0x0
	DCB	0x0
	DCB	0xaa
	DCB	0x0
	DCB	0x38
	DCB	0x9b
	DCB	0x71
|MEDIASUBTYPE_QTSmc| DCD 0x20636d73
	DCW	0x0
	DCW	0x10
	DCB	0x80
	DCB	0x0
	DCB	0x0
	DCB	0xaa
	DCB	0x0
	DCB	0x38
	DCB	0x9b
	DCB	0x71
|MEDIASUBTYPE_QTRle| DCD 0x20656c72
	DCW	0x0
	DCW	0x10
	DCB	0x80
	DCB	0x0
	DCB	0x0
	DCB	0xaa
	DCB	0x0
	DCB	0x38
	DCB	0x9b
	DCB	0x71
|MEDIASUBTYPE_QTJpeg| DCD 0x6765706a
	DCW	0x0
	DCW	0x10
	DCB	0x80
	DCB	0x0
	DCB	0x0
	DCB	0xaa
	DCB	0x0
	DCB	0x38
	DCB	0x9b
	DCB	0x71
|MEDIASUBTYPE_PCMAudio_Obsolete| DCD 0xe436eb8a
	DCW	0x524f
	DCW	0x11ce
	DCB	0x9f
	DCB	0x53
	DCB	0x0
	DCB	0x20
	DCB	0xaf
	DCB	0xb
	DCB	0xa7
	DCB	0x70
|MEDIASUBTYPE_PCM| DCD 0x1
	DCW	0x0
	DCW	0x10
	DCB	0x80
	DCB	0x0
	DCB	0x0
	DCB	0xaa
	DCB	0x0
	DCB	0x38
	DCB	0x9b
	DCB	0x71
|MEDIASUBTYPE_WAVE| DCD 0xe436eb8b
	DCW	0x524f
	DCW	0x11ce
	DCB	0x9f
	DCB	0x53
	DCB	0x0
	DCB	0x20
	DCB	0xaf
	DCB	0xb
	DCB	0xa7
	DCB	0x70
|MEDIASUBTYPE_AU| DCD 0xe436eb8c
	DCW	0x524f
	DCW	0x11ce
	DCB	0x9f
	DCB	0x53
	DCB	0x0
	DCB	0x20
	DCB	0xaf
	DCB	0xb
	DCB	0xa7
	DCB	0x70
|MEDIASUBTYPE_AIFF| DCD 0xe436eb8d
	DCW	0x524f
	DCW	0x11ce
	DCB	0x9f
	DCB	0x53
	DCB	0x0
	DCB	0x20
	DCB	0xaf
	DCB	0xb
	DCB	0xa7
	DCB	0x70
|MEDIASUBTYPE_dvsd| DCD 0x64737664
	DCW	0x0
	DCW	0x10
	DCB	0x80
	DCB	0x0
	DCB	0x0
	DCB	0xaa
	DCB	0x0
	DCB	0x38
	DCB	0x9b
	DCB	0x71
|MEDIASUBTYPE_dvhd| DCD 0x64687664
	DCW	0x0
	DCW	0x10
	DCB	0x80
	DCB	0x0
	DCB	0x0
	DCB	0xaa
	DCB	0x0
	DCB	0x38
	DCB	0x9b
	DCB	0x71
|MEDIASUBTYPE_dvsl| DCD 0x6c737664
	DCW	0x0
	DCW	0x10
	DCB	0x80
	DCB	0x0
	DCB	0x0
	DCB	0xaa
	DCB	0x0
	DCB	0x38
	DCB	0x9b
	DCB	0x71
|MEDIASUBTYPE_Line21_BytePair| DCD 0x6e8d4a22
	DCW	0x310c
	DCW	0x11d0
	DCB	0xb7
	DCB	0x9a
	DCB	0x0
	DCB	0xaa
	DCB	0x0
	DCB	0x37
	DCB	0x67
	DCB	0xa7
|MEDIASUBTYPE_Line21_GOPPacket| DCD 0x6e8d4a23
	DCW	0x310c
	DCW	0x11d0
	DCB	0xb7
	DCB	0x9a
	DCB	0x0
	DCB	0xaa
	DCB	0x0
	DCB	0x37
	DCB	0x67
	DCB	0xa7
|MEDIASUBTYPE_Line21_VBIRawData| DCD 0x6e8d4a24
	DCW	0x310c
	DCW	0x11d0
	DCB	0xb7
	DCB	0x9a
	DCB	0x0
	DCB	0xaa
	DCB	0x0
	DCB	0x37
	DCB	0x67
	DCB	0xa7
|MEDIASUBTYPE_DssVideo| DCD 0xa0af4f81
	DCW	0xe163
	DCW	0x11d0
	DCB	0xba
	DCB	0xd9
	DCB	0x0
	DCB	0x60
	DCB	0x97
	DCB	0x44
	DCB	0x11
	DCB	0x1a
|MEDIASUBTYPE_DssAudio| DCD 0xa0af4f82
	DCW	0xe163
	DCW	0x11d0
	DCB	0xba
	DCB	0xd9
	DCB	0x0
	DCB	0x60
	DCB	0x97
	DCB	0x44
	DCB	0x11
	DCB	0x1a
|MEDIASUBTYPE_VPVideo| DCD 0x5a9b6a40
	DCW	0x1a22
	DCW	0x11d1
	DCB	0xba
	DCB	0xd9
	DCB	0x0
	DCB	0x60
	DCB	0x97
	DCB	0x44
	DCB	0x11
	DCB	0x1a
|MEDIASUBTYPE_VPVBI| DCD 0x5a9b6a41
	DCW	0x1a22
	DCW	0x11d1
	DCB	0xba
	DCB	0xd9
	DCB	0x0
	DCB	0x60
	DCB	0x97
	DCB	0x44
	DCB	0x11
	DCB	0x1a
|IID_IAMCutListElement| DCD 0xcde29520
	DCW	0x3418
	DCW	0x11cf
	DCB	0xa5
	DCB	0xb0
	DCB	0x0
	DCB	0x20
	DCB	0xaf
	DCB	0x5
	DCB	0x3d
	DCB	0x8f
|IID_IAMFileCutListElement| DCD 0xf0947070
	DCW	0x276c
	DCW	0x11d0
	DCB	0x83
	DCB	0x16
	DCB	0x0
	DCB	0x20
	DCB	0xaf
	DCB	0x11
	DCB	0xc0
	DCB	0x10
|IID_IAMVideoCutListElement| DCD 0xcde29522
	DCW	0x3418
	DCW	0x11cf
	DCB	0xa5
	DCB	0xb0
	DCB	0x0
	DCB	0x20
	DCB	0xaf
	DCB	0x5
	DCB	0x3d
	DCB	0x8f
|IID_IAMAudioCutListElement| DCD 0xcde29524
	DCW	0x3418
	DCW	0x11cf
	DCB	0xa5
	DCB	0xb0
	DCB	0x0
	DCB	0x20
	DCB	0xaf
	DCB	0x5
	DCB	0x3d
	DCB	0x8f
|CLSID_CutListSource| DCD 0xa5ea8d20
	DCW	0x253d
	DCW	0x11d1
	DCB	0xb3
	DCB	0xf1
	DCB	0x0
	DCB	0xaa
	DCB	0x0
	DCB	0x37
	DCB	0x61
	DCB	0xc5
|IID_IStandardCutList| DCD 0xa5ea8d29
	DCW	0x253d
	DCW	0x11d1
	DCB	0xb3
	DCB	0xf1
	DCB	0x0
	DCB	0xaa
	DCB	0x0
	DCB	0x37
	DCB	0x61
	DCB	0xc5
|IID_IFileClip| DCD 0xa5ea8d2a
	DCW	0x253d
	DCW	0x11d1
	DCB	0xb3
	DCB	0xf1
	DCB	0x0
	DCB	0xaa
	DCB	0x0
	DCB	0x37
	DCB	0x61
	DCB	0xc5
|IID_ICutListGraphBuilder| DCD 0xa5ea8d2c
	DCW	0x253d
	DCW	0x11d1
	DCB	0xb3
	DCB	0xf1
	DCB	0x0
	DCB	0xaa
	DCB	0x0
	DCB	0x37
	DCB	0x61
	DCB	0xc5
|CLSID_CutListGraphBuilder| DCD 0xa5ea8d2f
	DCW	0x253d
	DCW	0x11d1
	DCB	0xb3
	DCB	0xf1
	DCB	0x0
	DCB	0xaa
	DCB	0x0
	DCB	0x37
	DCB	0x61
	DCB	0xc5
|CLSID_SimpleCutList| DCD 0xa5ea8d30
	DCW	0x253d
	DCW	0x11d1
	DCB	0xb3
	DCB	0xf1
	DCB	0x0
	DCB	0xaa
	DCB	0x0
	DCB	0x37
	DCB	0x61
	DCB	0xc5
|CLSID_VideoFileClip| DCD 0xa5ea8d31
	DCW	0x253d
	DCW	0x11d1
	DCB	0xb3
	DCB	0xf1
	DCB	0x0
	DCB	0xaa
	DCB	0x0
	DCB	0x37
	DCB	0x61
	DCB	0xc5
|CLSID_AudioFileClip| DCD 0xa5ea8d32
	DCW	0x253d
	DCW	0x11d1
	DCB	0xb3
	DCB	0xf1
	DCB	0x0
	DCB	0xaa
	DCB	0x0
	DCB	0x37
	DCB	0x61
	DCB	0xc5
|CLSID_CutListCacheMemory| DCD 0xa5ea8d33
	DCW	0x253d
	DCW	0x11d1
	DCB	0xb3
	DCB	0xf1
	DCB	0x0
	DCB	0xaa
	DCB	0x0
	DCB	0x37
	DCB	0x61
	DCB	0xc5
|CLSID_VideoCapture| DCD 0xf80b6e95
	DCW	0xb55a
	DCW	0x4619
	DCB	0xae
	DCB	0xc4
	DCB	0xa1
	DCB	0xe
	DCB	0xae
	DCB	0xde
	DCB	0x98
	DCB	0xc
|CLSID_CaptureGraphBuilder| DCD 0xbf87b6e0
	DCW	0x8c27
	DCW	0x11d0
	DCB	0xb3
	DCB	0xf0
	DCB	0x0
	DCB	0xaa
	DCB	0x0
	DCB	0x37
	DCB	0x61
	DCB	0xc5
|CLSID_ProtoFilterGraph| DCD 0xe436ebb0
	DCW	0x524f
	DCW	0x11ce
	DCB	0x9f
	DCB	0x53
	DCB	0x0
	DCB	0x20
	DCB	0xaf
	DCB	0xb
	DCB	0xa7
	DCB	0x70
|CLSID_SystemClock| DCD 0xe436ebb1
	DCW	0x524f
	DCW	0x11ce
	DCB	0x9f
	DCB	0x53
	DCB	0x0
	DCB	0x20
	DCB	0xaf
	DCB	0xb
	DCB	0xa7
	DCB	0x70
|CLSID_FilterMapper| DCD 0xe436ebb2
	DCW	0x524f
	DCW	0x11ce
	DCB	0x9f
	DCB	0x53
	DCB	0x0
	DCB	0x20
	DCB	0xaf
	DCB	0xb
	DCB	0xa7
	DCB	0x70
|CLSID_FilterGraph| DCD 0xe436ebb3
	DCW	0x524f
	DCW	0x11ce
	DCB	0x9f
	DCB	0x53
	DCB	0x0
	DCB	0x20
	DCB	0xaf
	DCB	0xb
	DCB	0xa7
	DCB	0x70
|CLSID_FilterGraphNoThread| DCD 0xe436ebb8
	DCW	0x524f
	DCW	0x11ce
	DCB	0x9f
	DCB	0x53
	DCB	0x0
	DCB	0x20
	DCB	0xaf
	DCB	0xb
	DCB	0xa7
	DCB	0x70
|CLSID_MPEG1Doc| DCD 0xe4bbd160
	DCW	0x4269
	DCW	0x11ce
	DCB	0x83
	DCB	0x8d
	DCB	0x0
	DCB	0xaa
	DCB	0x0
	DCB	0x55
	DCB	0x59
	DCB	0x5a
|CLSID_VideoCDSource| DCD 0xf4ac1a50
	DCW	0xb69e
	DCW	0x11d0
	DCB	0x88
	DCB	0xb8
	DCB	0x8
	DCB	0x0
	DCB	0x2b
	DCB	0xe5
	DCB	0x3f
	DCB	0x4a
|CLSID_VideoCDProxy| DCD 0xd41fa1a0
	DCW	0xfc5b
	DCW	0x11cf
	DCB	0xa6
	DCB	0x6b
	DCB	0x0
	DCB	0xaa
	DCB	0x0
	DCB	0xbf
	DCB	0x96
	DCB	0xaa
|CLSID_VideoCDManager| DCD 0x48319150
	DCW	0xa6fa
	DCW	0x11d0
	DCB	0x88
	DCB	0xb8
	DCB	0x8
	DCB	0x0
	DCB	0x2b
	DCB	0xe5
	DCB	0x3f
	DCB	0x4a
|CLSID_GenericStreamer| DCD 0x6949148b
	DCW	0xd79d
	DCW	0x4f29
	DCB	0xa1
	DCB	0xcf
	DCB	0x2b
	DCB	0x8e
	DCB	0x9b
	DCB	0x67
	DCB	0x5f
	DCB	0x32
|CLSID_FileSource| DCD 0x701722e0
	DCW	0x8ae3
	DCW	0x11ce
	DCB	0xa8
	DCB	0x5c
	DCB	0x0
	DCB	0xaa
	DCB	0x0
	DCB	0x2f
	DCB	0xea
	DCB	0xb5
|CLSID_MPEG1PacketPlayer| DCD 0x26c25940
	DCW	0x4ca9
	DCW	0x11ce
	DCB	0xa8
	DCB	0x28
	DCB	0x0
	DCB	0xaa
	DCB	0x0
	DCB	0x2f
	DCB	0xea
	DCB	0xb5
|CLSID_MPEG1Splitter| DCD 0x336475d0
	DCW	0x942a
	DCW	0x11ce
	DCB	0xa8
	DCB	0x70
	DCB	0x0
	DCB	0xaa
	DCB	0x0
	DCB	0x2f
	DCB	0xea
	DCB	0xb5
|CLSID_MPEG2Splitter| DCD 0x3ae86b20
	DCW	0x7be8
	DCW	0x11d1
	DCB	0xab
	DCB	0xe6
	DCB	0x0
	DCB	0xa0
	DCB	0xc9
	DCB	0x5
	DCB	0xf3
	DCB	0x75
|CLSID_CMpegVideoCodec| DCD 0xfeb50740
	DCW	0x7bef
	DCW	0x11ce
	DCB	0x9b
	DCB	0xd9
	DCB	0x0
	DCB	0x0
	DCB	0xe2
	DCB	0x2
	DCB	0x59
	DCB	0x9c
|CLSID_CMpegAudioCodec| DCD 0x4a2286e0
	DCW	0x7bef
	DCW	0x11ce
	DCB	0x9b
	DCB	0xd9
	DCB	0x0
	DCB	0x0
	DCB	0xe2
	DCB	0x2
	DCB	0x59
	DCB	0x9c
|CLSID_Mp3Dec| DCD 0x38be3000
	DCW	0xdbf4
	DCW	0x11d0
	DCB	0x86
	DCB	0xe
	DCB	0x0
	DCB	0xa0
	DCB	0x24
	DCB	0xcf
	DCB	0xef
	DCB	0x6d
|CLSID_MjpegDec| DCD 0x301056d0
	DCW	0x6dff
	DCW	0x11d2
	DCB	0x9e
	DCB	0xeb
	DCB	0x0
	DCB	0x60
	DCB	0x8
	DCB	0x3
	DCB	0x9e
	DCB	0x37
|CLSID_TextRender| DCD 0xe30629d3
	DCW	0x27e5
	DCW	0x11ce
	DCB	0x87
	DCB	0x5d
	DCB	0x0
	DCB	0x60
	DCB	0x8c
	DCB	0xb7
	DCB	0x80
	DCB	0x66
|CLSID_WAVEParser| DCD 0xd51bd5a1
	DCW	0x7548
	DCW	0x11cf
	DCB	0xa5
	DCB	0x20
	DCB	0x0
	DCB	0x80
	DCB	0xc7
	DCB	0x7e
	DCB	0xf5
	DCB	0x8a
|CLSID_MIDIParser| DCD 0xd51bd5a2
	DCW	0x7548
	DCW	0x11cf
	DCB	0xa5
	DCB	0x20
	DCB	0x0
	DCB	0x80
	DCB	0xc7
	DCB	0x7e
	DCB	0xf5
	DCB	0x8a
|CLSID_DMFilter| DCD 0x4b0e5ccc
	DCW	0x625a
	DCW	0x11d3
	DCB	0x84
	DCB	0xad
	DCB	0x0
	DCB	0xc0
	DCB	0x4f
	DCB	0x68
	DCB	0xeb
	DCB	0xf
|CLSID_InfTee| DCD 0xf8388a40
	DCW	0xd5bb
	DCW	0x11d0
	DCB	0xbe
	DCB	0x5a
	DCB	0x0
	DCB	0x80
	DCB	0xc7
	DCB	0x6
	DCB	0x56
	DCB	0x8e
|CLSID_AviSplitter| DCD 0x1b544c20
	DCW	0xfd0b
	DCW	0x11ce
	DCB	0x8c
	DCB	0x63
	DCB	0x0
	DCB	0xaa
	DCB	0x0
	DCB	0x44
	DCB	0xb5
	DCB	0x1e
|CLSID_AviReader| DCD 0x1b544c21
	DCW	0xfd0b
	DCW	0x11ce
	DCB	0x8c
	DCB	0x63
	DCB	0x0
	DCB	0xaa
	DCB	0x0
	DCB	0x44
	DCB	0xb5
	DCB	0x1e
|CLSID_VfwCapture| DCD 0x1b544c22
	DCW	0xfd0b
	DCW	0x11ce
	DCB	0x8c
	DCB	0x63
	DCB	0x0
	DCB	0xaa
	DCB	0x0
	DCB	0x44
	DCB	0xb5
	DCB	0x1e
|CLSID_CaptureProperties| DCD 0x1b544c22
	DCW	0xfd0b
	DCW	0x11ce
	DCB	0x8c
	DCB	0x63
	DCB	0x0
	DCB	0xaa
	DCB	0x0
	DCB	0x44
	DCB	0xb5
	DCB	0x1f
|CLSID_FGControl| DCD 0xe436ebb4
	DCW	0x524f
	DCW	0x11ce
	DCB	0x9f
	DCB	0x53
	DCB	0x0
	DCB	0x20
	DCB	0xaf
	DCB	0xb
	DCB	0xa7
	DCB	0x70
|CLSID_MOVReader| DCD 0x44584800
	DCW	0xf8ee
	DCW	0x11ce
	DCB	0xb2
	DCB	0xd4
	DCB	0x0
	DCB	0xdd
	DCB	0x1
	DCB	0x10
	DCB	0x1b
	DCB	0x85
|CLSID_QuickTimeParser| DCD 0xd51bd5a0
	DCW	0x7548
	DCW	0x11cf
	DCB	0xa5
	DCB	0x20
	DCB	0x0
	DCB	0x80
	DCB	0xc7
	DCB	0x7e
	DCB	0xf5
	DCB	0x8a
|CLSID_QTDec| DCD 0xfdfe9681
	DCW	0x74a3
	DCW	0x11d0
	DCB	0xaf
	DCB	0xa7
	DCB	0x0
	DCB	0xaa
	DCB	0x0
	DCB	0xb6
	DCB	0x7a
	DCB	0x42
|CLSID_AVIDoc| DCD 0xd3588ab0
	DCW	0x781
	DCW	0x11ce
	DCB	0xb0
	DCB	0x3a
	DCB	0x0
	DCB	0x20
	DCB	0xaf
	DCB	0xb
	DCB	0xa7
	DCB	0x70
|CLSID_AVIDocWriter| DCD 0xd3588ab1
	DCW	0x781
	DCW	0x11ce
	DCB	0xb0
	DCB	0x3a
	DCB	0x0
	DCB	0x20
	DCB	0xaf
	DCB	0xb
	DCB	0xa7
	DCB	0x70
|CLSID_VideoRenderer| DCD 0x70e102b0
	DCW	0x5556
	DCW	0x11ce
	DCB	0x97
	DCB	0xc0
	DCB	0x0
	DCB	0xaa
	DCB	0x0
	DCB	0x55
	DCB	0x59
	DCB	0x5a
|CLSID_Colour| DCD 0x1643e180
	DCW	0x90f5
	DCW	0x11ce
	DCB	0x97
	DCB	0xd5
	DCB	0x0
	DCB	0xaa
	DCB	0x0
	DCB	0x55
	DCB	0x59
	DCB	0x5a
|CLSID_Dither| DCD 0x1da08500
	DCW	0x9edc
	DCW	0x11cf
	DCB	0xbc
	DCB	0x10
	DCB	0x0
	DCB	0xaa
	DCB	0x0
	DCB	0xac
	DCB	0x74
	DCB	0xf6
|CLSID_ModexRenderer| DCD 0x7167665
	DCW	0x5011
	DCW	0x11cf
	DCB	0xbf
	DCB	0x33
	DCB	0x0
	DCB	0xaa
	DCB	0x0
	DCB	0x55
	DCB	0x59
	DCB	0x5a
|CLSID_AudioRender| DCD 0xe30629d1
	DCW	0x27e5
	DCW	0x11ce
	DCB	0x87
	DCB	0x5d
	DCB	0x0
	DCB	0x60
	DCB	0x8c
	DCB	0xb7
	DCB	0x80
	DCB	0x66
|CLSID_AudioProperties| DCD 0x5589faf
	DCW	0xc356
	DCW	0x11ce
	DCB	0xbf
	DCB	0x1
	DCB	0x0
	DCB	0xaa
	DCB	0x0
	DCB	0x55
	DCB	0x59
	DCB	0x5a
|CLSID_DSoundRender| DCD 0x79376820
	DCW	0x7d0
	DCW	0x11cf
	DCB	0xa2
	DCB	0x4d
	DCB	0x0
	DCB	0x20
	DCB	0xaf
	DCB	0xd7
	DCB	0x97
	DCB	0x67
|CLSID_AudioCapture| DCD 0xe30629d2
	DCW	0x27e5
	DCW	0x11ce
	DCB	0x87
	DCB	0x5d
	DCB	0x0
	DCB	0x60
	DCB	0x8c
	DCB	0xb7
	DCB	0x80
	DCB	0x66
|CLSID_AudioInputMixerProperties| DCD 0x2ca8ca52
	DCW	0x3c3f
	DCW	0x11d2
	DCB	0xb7
	DCB	0x3d
	DCB	0x0
	DCB	0xc0
	DCB	0x4f
	DCB	0xb6
	DCB	0xbd
	DCB	0x3d
|CLSID_AVIDec| DCD 0xcf49d4e0
	DCW	0x1115
	DCW	0x11ce
	DCB	0xb0
	DCB	0x3a
	DCB	0x0
	DCB	0x20
	DCB	0xaf
	DCB	0xb
	DCB	0xa7
	DCB	0x70
|CLSID_AVIDraw| DCD 0xa888df60
	DCW	0x1e90
	DCW	0x11cf
	DCB	0xac
	DCB	0x98
	DCB	0x0
	DCB	0xaa
	DCB	0x0
	DCB	0x4c
	DCB	0xf
	DCB	0xa9
|CLSID_ACMWrapper| DCD 0x6a08cf80
	DCW	0xe18
	DCW	0x11cf
	DCB	0xa2
	DCB	0x4d
	DCB	0x0
	DCB	0x20
	DCB	0xaf
	DCB	0xd7
	DCB	0x97
	DCB	0x67
|CLSID_AsyncReader| DCD 0xe436ebb5
	DCW	0x524f
	DCW	0x11ce
	DCB	0x9f
	DCB	0x53
	DCB	0x0
	DCB	0x20
	DCB	0xaf
	DCB	0xb
	DCB	0xa7
	DCB	0x70
|CLSID_URLReader| DCD 0xe436ebb6
	DCW	0x524f
	DCW	0x11ce
	DCB	0x9f
	DCB	0x53
	DCB	0x0
	DCB	0x20
	DCB	0xaf
	DCB	0xb
	DCB	0xa7
	DCB	0x70
|CLSID_PersistMonikerPID| DCD 0xe436ebb7
	DCW	0x524f
	DCW	0x11ce
	DCB	0x9f
	DCB	0x53
	DCB	0x0
	DCB	0x20
	DCB	0xaf
	DCB	0xb
	DCB	0xa7
	DCB	0x70
|CLSID_AMovie| DCD 0x5f2759c0
	DCW	0x7685
	DCW	0x11cf
	DCB	0x8b
	DCB	0x23
	DCB	0x0
	DCB	0x80
	DCB	0x5f
	DCB	0x6c
	DCB	0xef
	DCB	0x60
|CLSID_AVICo| DCD 0xd76e2820
	DCW	0x1563
	DCW	0x11cf
	DCB	0xac
	DCB	0x98
	DCB	0x0
	DCB	0xaa
	DCB	0x0
	DCB	0x4c
	DCB	0xf
	DCB	0xa9
|CLSID_FileWriter| DCD 0x8596e5f0
	DCW	0xda5
	DCW	0x11d0
	DCB	0xbd
	DCB	0x21
	DCB	0x0
	DCB	0xa0
	DCB	0xc9
	DCB	0x11
	DCB	0xce
	DCB	0x86
|CLSID_AviDest| DCD 0xe2510970
	DCW	0xf137
	DCW	0x11ce
	DCB	0x8b
	DCB	0x67
	DCB	0x0
	DCB	0xaa
	DCB	0x0
	DCB	0xa3
	DCB	0xf1
	DCB	0xa6
|CLSID_AsfMux| DCD 0xf560ae42
	DCW	0x6cdd
	DCW	0x11d1
	DCB	0xad
	DCB	0xe2
	DCB	0x0
	DCB	0x0
	DCB	0xf8
	DCB	0x75
	DCB	0x4b
	DCB	0x99
|CLSID_AviMuxProptyPage| DCD 0xc647b5c0
	DCW	0x157c
	DCW	0x11d0
	DCB	0xbd
	DCB	0x23
	DCB	0x0
	DCB	0xa0
	DCB	0xc9
	DCB	0x11
	DCB	0xce
	DCB	0x86
|CLSID_AviMuxProptyPage1| DCD 0xa9ae910
	DCW	0x85c0
	DCW	0x11d0
	DCB	0xbd
	DCB	0x42
	DCB	0x0
	DCB	0xa0
	DCB	0xc9
	DCB	0x11
	DCB	0xce
	DCB	0x86
|CLSID_AVIMIDIRender| DCD 0x7b65360
	DCW	0xc445
	DCW	0x11ce
	DCB	0xaf
	DCB	0xde
	DCB	0x0
	DCB	0xaa
	DCB	0x0
	DCB	0x6c
	DCB	0x14
	DCB	0xf4
|CLSID_DVVideoCodec| DCD 0xb1b77c00
	DCW	0xc3e4
	DCW	0x11cf
	DCB	0xaf
	DCB	0x79
	DCB	0x0
	DCB	0xaa
	DCB	0x0
	DCB	0xb6
	DCB	0x7a
	DCB	0x42
|CLSID_DVVideoEnc| DCD 0x13aa3650
	DCW	0xbb6f
	DCW	0x11d0
	DCB	0xaf
	DCB	0xb9
	DCB	0x0
	DCB	0xaa
	DCB	0x0
	DCB	0xb6
	DCB	0x7a
	DCB	0x42
|CLSID_DVSplitter| DCD 0x4eb31670
	DCW	0x9fc6
	DCW	0x11cf
	DCB	0xaf
	DCB	0x6e
	DCB	0x0
	DCB	0xaa
	DCB	0x0
	DCB	0xb6
	DCB	0x7a
	DCB	0x42
|CLSID_DVMux| DCD 0x129d7e40
	DCW	0xc10d
	DCW	0x11d0
	DCB	0xaf
	DCB	0xb9
	DCB	0x0
	DCB	0xaa
	DCB	0x0
	DCB	0xb6
	DCB	0x7a
	DCB	0x42
|CLSID_SeekingPassThru| DCD 0x60af76c
	DCW	0x68dd
	DCW	0x11d0
	DCB	0x8f
	DCB	0xc1
	DCB	0x0
	DCB	0xc0
	DCB	0x4f
	DCB	0xd9
	DCB	0x18
	DCB	0x9d
|CLSID_Line21Decoder| DCD 0x6e8d4a20
	DCW	0x310c
	DCW	0x11d0
	DCB	0xb7
	DCB	0x9a
	DCB	0x0
	DCB	0xaa
	DCB	0x0
	DCB	0x37
	DCB	0x67
	DCB	0xa7
|CLSID_OverlayMixer| DCD 0xcd8743a1
	DCW	0x3736
	DCW	0x11d0
	DCB	0x9e
	DCB	0x69
	DCB	0x0
	DCB	0xc0
	DCB	0x4f
	DCB	0xd7
	DCB	0xc1
	DCB	0x5b
|CLSID_VBISurfaces| DCD 0x814b9800
	DCW	0x1c88
	DCW	0x11d1
	DCB	0xba
	DCB	0xd9
	DCB	0x0
	DCB	0x60
	DCB	0x97
	DCB	0x44
	DCB	0x11
	DCB	0x1a
|CLSID_VBIDataRenderer| DCD 0x64cccad6
	DCW	0xba96
	DCW	0x4d94
	DCB	0x94
	DCB	0xc1
	DCB	0xb6
	DCB	0xef
	DCB	0x9d
	DCB	0x50
	DCB	0xe0
	DCB	0x2d
|CLSID_SystemDeviceEnum| DCD 0x62be5d10
	DCW	0x60eb
	DCW	0x11d0
	DCB	0xbd
	DCB	0x3b
	DCB	0x0
	DCB	0xa0
	DCB	0xc9
	DCB	0x11
	DCB	0xce
	DCB	0x86
|CLSID_CDeviceMoniker| DCD 0x4315d437
	DCW	0x5b8c
	DCW	0x11d0
	DCB	0xbd
	DCB	0x3b
	DCB	0x0
	DCB	0xa0
	DCB	0xc9
	DCB	0x11
	DCB	0xce
	DCB	0x86
|CLSID_VideoInputDeviceCategory| DCD 0x860bb310
	DCW	0x5d01
	DCW	0x11d0
	DCB	0xbd
	DCB	0x3b
	DCB	0x0
	DCB	0xa0
	DCB	0xc9
	DCB	0x11
	DCB	0xce
	DCB	0x86
|CLSID_CVidCapClassManager| DCD 0x860bb310
	DCW	0x5d01
	DCW	0x11d0
	DCB	0xbd
	DCB	0x3b
	DCB	0x0
	DCB	0xa0
	DCB	0xc9
	DCB	0x11
	DCB	0xce
	DCB	0x86
|CLSID_LegacyAmFilterCategory| DCD 0x83863f1
	DCW	0x70de
	DCW	0x11d0
	DCB	0xbd
	DCB	0x40
	DCB	0x0
	DCB	0xa0
	DCB	0xc9
	DCB	0x11
	DCB	0xce
	DCB	0x86
|CLSID_CQzFilterClassManager| DCD 0x83863f1
	DCW	0x70de
	DCW	0x11d0
	DCB	0xbd
	DCB	0x40
	DCB	0x0
	DCB	0xa0
	DCB	0xc9
	DCB	0x11
	DCB	0xce
	DCB	0x86
|CLSID_VideoCompressorCategory| DCD 0x33d9a760
	DCW	0x90c8
	DCW	0x11d0
	DCB	0xbd
	DCB	0x43
	DCB	0x0
	DCB	0xa0
	DCB	0xc9
	DCB	0x11
	DCB	0xce
	DCB	0x86
|CLSID_CIcmCoClassManager| DCD 0x33d9a760
	DCW	0x90c8
	DCW	0x11d0
	DCB	0xbd
	DCB	0x43
	DCB	0x0
	DCB	0xa0
	DCB	0xc9
	DCB	0x11
	DCB	0xce
	DCB	0x86
|CLSID_AudioCompressorCategory| DCD 0x33d9a761
	DCW	0x90c8
	DCW	0x11d0
	DCB	0xbd
	DCB	0x43
	DCB	0x0
	DCB	0xa0
	DCB	0xc9
	DCB	0x11
	DCB	0xce
	DCB	0x86
|CLSID_CAcmCoClassManager| DCD 0x33d9a761
	DCW	0x90c8
	DCW	0x11d0
	DCB	0xbd
	DCB	0x43
	DCB	0x0
	DCB	0xa0
	DCB	0xc9
	DCB	0x11
	DCB	0xce
	DCB	0x86
|CLSID_AudioInputDeviceCategory| DCD 0x33d9a762
	DCW	0x90c8
	DCW	0x11d0
	DCB	0xbd
	DCB	0x43
	DCB	0x0
	DCB	0xa0
	DCB	0xc9
	DCB	0x11
	DCB	0xce
	DCB	0x86
|CLSID_CWaveinClassManager| DCD 0x33d9a762
	DCW	0x90c8
	DCW	0x11d0
	DCB	0xbd
	DCB	0x43
	DCB	0x0
	DCB	0xa0
	DCB	0xc9
	DCB	0x11
	DCB	0xce
	DCB	0x86
|CLSID_AudioRendererCategory| DCD 0xe0f158e1
	DCW	0xcb04
	DCW	0x11d0
	DCB	0xbd
	DCB	0x4e
	DCB	0x0
	DCB	0xa0
	DCB	0xc9
	DCB	0x11
	DCB	0xce
	DCB	0x86
|CLSID_CWaveOutClassManager| DCD 0xe0f158e1
	DCW	0xcb04
	DCW	0x11d0
	DCB	0xbd
	DCB	0x4e
	DCB	0x0
	DCB	0xa0
	DCB	0xc9
	DCB	0x11
	DCB	0xce
	DCB	0x86
|CLSID_MidiRendererCategory| DCD 0x4efe2452
	DCW	0x168a
	DCW	0x11d1
	DCB	0xbc
	DCB	0x76
	DCB	0x0
	DCB	0xc0
	DCB	0x4f
	DCB	0xb9
	DCB	0x45
	DCB	0x3b
|CLSID_CMidiOutClassManager| DCD 0x4efe2452
	DCW	0x168a
	DCW	0x11d1
	DCB	0xbc
	DCB	0x76
	DCB	0x0
	DCB	0xc0
	DCB	0x4f
	DCB	0xb9
	DCB	0x45
	DCB	0x3b
|CLSID_TransmitCategory| DCD 0xcc7bfb41
	DCW	0xf175
	DCW	0x11d1
	DCB	0xa3
	DCB	0x92
	DCB	0x0
	DCB	0xe0
	DCB	0x29
	DCB	0x1f
	DCB	0x39
	DCB	0x59
|CLSID_DeviceControlCategory| DCD 0xcc7bfb46
	DCW	0xf175
	DCW	0x11d1
	DCB	0xa3
	DCB	0x92
	DCB	0x0
	DCB	0xe0
	DCB	0x29
	DCB	0x1f
	DCB	0x39
	DCB	0x59
|CLSID_ActiveMovieCategories| DCD 0xda4e3da0
	DCW	0xd07d
	DCW	0x11d0
	DCB	0xbd
	DCB	0x50
	DCB	0x0
	DCB	0xa0
	DCB	0xc9
	DCB	0x11
	DCB	0xce
	DCB	0x86
|CLSID_DVDHWDecodersCategory| DCD 0x2721ae20
	DCW	0x7e70
	DCW	0x11d0
	DCB	0xa5
	DCB	0xd6
	DCB	0x28
	DCB	0xdb
	DCB	0x4
	DCB	0xc1
	DCB	0x0
	DCB	0x0
|CLSID_FilterMapper2| DCD 0xcda42200
	DCW	0xbd88
	DCW	0x11d0
	DCB	0xbd
	DCB	0x4e
	DCB	0x0
	DCB	0xa0
	DCB	0xc9
	DCB	0x11
	DCB	0xce
	DCB	0x86
|CLSID_MemoryAllocator| DCD 0x1e651cc0
	DCW	0xb199
	DCW	0x11d0
	DCB	0x82
	DCB	0x12
	DCB	0x0
	DCB	0xc0
	DCB	0x4f
	DCB	0xc3
	DCB	0x2c
	DCB	0x45
|CLSID_MediaPropertyBag| DCD 0xcdbd8d00
	DCW	0xc193
	DCW	0x11d0
	DCB	0xbd
	DCB	0x4e
	DCB	0x0
	DCB	0xa0
	DCB	0xc9
	DCB	0x11
	DCB	0xce
	DCB	0x86
|CLSID_DvdGraphBuilder| DCD 0xfcc152b7
	DCW	0xf372
	DCW	0x11d0
	DCB	0x8e
	DCB	0x0
	DCB	0x0
	DCB	0xc0
	DCB	0x4f
	DCB	0xd7
	DCB	0xc0
	DCB	0x8b
|CLSID_DVDNavigator| DCD 0x9b8c4620
	DCW	0x2c1a
	DCW	0x11d0
	DCB	0x84
	DCB	0x93
	DCB	0x0
	DCB	0xa0
	DCB	0x24
	DCB	0x38
	DCB	0xad
	DCB	0x48
|CLSID_SmartTee| DCD 0xcc58e280
	DCW	0x8aa1
	DCW	0x11d1
	DCB	0xb3
	DCB	0xf1
	DCB	0x0
	DCB	0xaa
	DCB	0x0
	DCB	0x37
	DCB	0x61
	DCB	0xc5
|CLSID_DMOWrapperFilter| DCD 0x94297043
	DCW	0xbd82
	DCW	0x4dfd
	DCB	0xb0
	DCB	0xde
	DCB	0x81
	DCB	0x77
	DCB	0x73
	DCB	0x9c
	DCB	0x6d
	DCB	0x20
|CLSID_WMVDec| DCD 0x4facbba1
	DCW	0xffd8
	DCW	0x4cd7
	DCB	0x82
	DCB	0x28
	DCB	0x61
	DCB	0xe2
	DCB	0xf6
	DCB	0x5c
	DCB	0xb1
	DCB	0xae
|CLSID_BufferingFilter| DCD 0x32003718
	DCW	0xb4f9
	DCW	0x4bd5
	DCB	0xac
	DCB	0x2f
	DCB	0x7e
	DCB	0x11
	DCB	0xb0
	DCB	0x79
	DCB	0x7
	DCB	0x9d
|FORMAT_None| DCD 0xf6417d6
	DCW	0xc318
	DCW	0x11d0
	DCB	0xa4
	DCB	0x3f
	DCB	0x0
	DCB	0xa0
	DCB	0xc9
	DCB	0x22
	DCB	0x31
	DCB	0x96
|FORMAT_VideoInfo| DCD 0x5589f80
	DCW	0xc356
	DCW	0x11ce
	DCB	0xbf
	DCB	0x1
	DCB	0x0
	DCB	0xaa
	DCB	0x0
	DCB	0x55
	DCB	0x59
	DCB	0x5a
|FORMAT_VideoInfo2| DCD 0xf72a76a0
	DCW	0xeb0a
	DCW	0x11d0
	DCB	0xac
	DCB	0xe4
	DCB	0x0
	DCB	0x0
	DCB	0xc0
	DCB	0xcc
	DCB	0x16
	DCB	0xba
|FORMAT_WaveFormatEx| DCD 0x5589f81
	DCW	0xc356
	DCW	0x11ce
	DCB	0xbf
	DCB	0x1
	DCB	0x0
	DCB	0xaa
	DCB	0x0
	DCB	0x55
	DCB	0x59
	DCB	0x5a
|FORMAT_MPEGVideo| DCD 0x5589f82
	DCW	0xc356
	DCW	0x11ce
	DCB	0xbf
	DCB	0x1
	DCB	0x0
	DCB	0xaa
	DCB	0x0
	DCB	0x55
	DCB	0x59
	DCB	0x5a
|FORMAT_MPEGStreams| DCD 0x5589f83
	DCW	0xc356
	DCW	0x11ce
	DCB	0xbf
	DCB	0x1
	DCB	0x0
	DCB	0xaa
	DCB	0x0
	DCB	0x55
	DCB	0x59
	DCB	0x5a
|FORMAT_DvInfo| DCD 0x5589f84
	DCW	0xc356
	DCW	0x11ce
	DCB	0xbf
	DCB	0x1
	DCB	0x0
	DCB	0xaa
	DCB	0x0
	DCB	0x55
	DCB	0x59
	DCB	0x5a
|CLSID_DirectDrawProperties| DCD 0x944d4c00
	DCW	0xdd52
	DCW	0x11ce
	DCB	0xbf
	DCB	0xe
	DCB	0x0
	DCB	0xaa
	DCB	0x0
	DCB	0x55
	DCB	0x59
	DCB	0x5a
|CLSID_PerformanceProperties| DCD 0x59ce6880
	DCW	0xacf8
	DCW	0x11cf
	DCB	0xb5
	DCB	0x6e
	DCB	0x0
	DCB	0x80
	DCB	0xc7
	DCB	0xc4
	DCB	0xb6
	DCB	0x8a
|CLSID_QualityProperties| DCD 0x418afb70
	DCW	0xf8b8
	DCW	0x11ce
	DCB	0xaa
	DCB	0xc6
	DCB	0x0
	DCB	0x20
	DCB	0xaf
	DCB	0xb
	DCB	0x99
	DCB	0xa3
|IID_IBaseVideoMixer| DCD 0x61ded640
	DCW	0xe912
	DCW	0x11ce
	DCB	0xa0
	DCB	0x99
	DCB	0x0
	DCB	0xaa
	DCB	0x0
	DCB	0x47
	DCB	0x9a
	DCB	0x58
|IID_IDirectDrawVideo| DCD 0x36d39eb0
	DCW	0xdd75
	DCW	0x11ce
	DCB	0xbf
	DCB	0xe
	DCB	0x0
	DCB	0xaa
	DCB	0x0
	DCB	0x55
	DCB	0x59
	DCB	0x5a
|IID_IQualProp| DCD 0x1bd0ecb0
	DCW	0xf8e2
	DCW	0x11ce
	DCB	0xaa
	DCB	0xc6
	DCB	0x0
	DCB	0x20
	DCB	0xaf
	DCB	0xb
	DCB	0x99
	DCB	0xa3
|CLSID_VPObject| DCD 0xce292861
	DCW	0xfc88
	DCW	0x11d0
	DCB	0x9e
	DCB	0x69
	DCB	0x0
	DCB	0xc0
	DCB	0x4f
	DCB	0xd7
	DCB	0xc1
	DCB	0x5b
|IID_IVPObject| DCD 0xce292862
	DCW	0xfc88
	DCW	0x11d0
	DCB	0x9e
	DCB	0x69
	DCB	0x0
	DCB	0xc0
	DCB	0x4f
	DCB	0xd7
	DCB	0xc1
	DCB	0x5b
|IID_IVPControl| DCD 0x25df12c1
	DCW	0x3de0
	DCW	0x11d1
	DCB	0x9e
	DCB	0x69
	DCB	0x0
	DCB	0xc0
	DCB	0x4f
	DCB	0xd7
	DCB	0xc1
	DCB	0x5b
|CLSID_VPVBIObject| DCD 0x814b9801
	DCW	0x1c88
	DCW	0x11d1
	DCB	0xba
	DCB	0xd9
	DCB	0x0
	DCB	0x60
	DCB	0x97
	DCB	0x44
	DCB	0x11
	DCB	0x1a
|IID_IVPVBIObject| DCD 0x814b9802
	DCW	0x1c88
	DCW	0x11d1
	DCB	0xba
	DCB	0xd9
	DCB	0x0
	DCB	0x60
	DCB	0x97
	DCB	0x44
	DCB	0x11
	DCB	0x1a
|IID_IVPConfig| DCD 0xbc29a660
	DCW	0x30e3
	DCW	0x11d0
	DCB	0x9e
	DCB	0x69
	DCB	0x0
	DCB	0xc0
	DCB	0x4f
	DCB	0xd7
	DCB	0xc1
	DCB	0x5b
|IID_IVPNotify| DCD 0xc76794a1
	DCW	0xd6c5
	DCW	0x11d0
	DCB	0x9e
	DCB	0x69
	DCB	0x0
	DCB	0xc0
	DCB	0x4f
	DCB	0xd7
	DCB	0xc1
	DCB	0x5b
|IID_IVPNotify2| DCD 0xebf47183
	DCW	0x8764
	DCW	0x11d1
	DCB	0x9e
	DCB	0x69
	DCB	0x0
	DCB	0xc0
	DCB	0x4f
	DCB	0xd7
	DCB	0xc1
	DCB	0x5b
|IID_IVPVBIConfig| DCD 0xec529b00
	DCW	0x1a1f
	DCW	0x11d1
	DCB	0xba
	DCB	0xd9
	DCB	0x0
	DCB	0x60
	DCB	0x97
	DCB	0x44
	DCB	0x11
	DCB	0x1a
|IID_IVPVBINotify| DCD 0xec529b01
	DCW	0x1a1f
	DCW	0x11d1
	DCB	0xba
	DCB	0xd9
	DCB	0x0
	DCB	0x60
	DCB	0x97
	DCB	0x44
	DCB	0x11
	DCB	0x1a
|IID_IMixerPinConfig| DCD 0x593cdde1
	DCW	0x759
	DCW	0x11d1
	DCB	0x9e
	DCB	0x69
	DCB	0x0
	DCB	0xc0
	DCB	0x4f
	DCB	0xd7
	DCB	0xc1
	DCB	0x5b
|IID_IMixerPinConfig2| DCD 0xebf47182
	DCW	0x8764
	DCW	0x11d1
	DCB	0x9e
	DCB	0x69
	DCB	0x0
	DCB	0xc0
	DCB	0x4f
	DCB	0xd7
	DCB	0xc1
	DCB	0x5b
|IID_IDDVideoPortContainer| DCD 0x6c142760
	DCW	0xa733
	DCW	0x11ce
	DCB	0xa5
	DCB	0x21
	DCB	0x0
	DCB	0x20
	DCB	0xaf
	DCB	0xb
	DCB	0xe5
	DCB	0x60
|IID_IDirectDrawKernel| DCD 0x8d56c120
	DCW	0x6a08
	DCW	0x11d0
	DCB	0x9b
	DCB	0x6
	DCB	0x0
	DCB	0xa0
	DCB	0xc9
	DCB	0x3
	DCB	0xa3
	DCB	0xb8
|IID_IDirectDrawSurfaceKernel| DCD 0x60755da0
	DCW	0x6a40
	DCW	0x11d0
	DCB	0x9b
	DCB	0x6
	DCB	0x0
	DCB	0xa0
	DCB	0xc9
	DCB	0x3
	DCB	0xa3
	DCB	0xb8
|CLSID_ModexProperties| DCD 0x618aa30
	DCW	0x6bc4
	DCW	0x11cf
	DCB	0xbf
	DCB	0x36
	DCB	0x0
	DCB	0xaa
	DCB	0x0
	DCB	0x55
	DCB	0x59
	DCB	0x5a
|IID_IFullScreenVideo| DCD 0xdd1d7110
	DCW	0x7836
	DCW	0x11cf
	DCB	0xbf
	DCB	0x47
	DCB	0x0
	DCB	0xaa
	DCB	0x0
	DCB	0x55
	DCB	0x59
	DCB	0x5a
|IID_IFullScreenVideoEx| DCD 0x53479470
	DCW	0xf1dd
	DCW	0x11cf
	DCB	0xbc
	DCB	0x42
	DCB	0x0
	DCB	0xaa
	DCB	0x0
	DCB	0xac
	DCB	0x74
	DCB	0xf6
|CLSID_DVDecPropertiesPage| DCD 0x101193c0
	DCW	0xbfe
	DCW	0x11d0
	DCB	0xaf
	DCB	0x91
	DCB	0x0
	DCB	0xaa
	DCB	0x0
	DCB	0xb6
	DCB	0x7a
	DCB	0x42
|CLSID_DVEncPropertiesPage| DCD 0x4150f050
	DCW	0xbb6f
	DCW	0x11d0
	DCB	0xaf
	DCB	0xb9
	DCB	0x0
	DCB	0xaa
	DCB	0x0
	DCB	0xb6
	DCB	0x7a
	DCB	0x42
|CLSID_DVMuxPropertyPage| DCD 0x4db880e0
	DCW	0xc10d
	DCW	0x11d0
	DCB	0xaf
	DCB	0xb9
	DCB	0x0
	DCB	0xaa
	DCB	0x0
	DCB	0xb6
	DCB	0x7a
	DCB	0x42
|IID_IAMDirectSound| DCD 0x546f4260
	DCW	0xd53e
	DCW	0x11cf
	DCB	0xb3
	DCB	0xf0
	DCB	0x0
	DCB	0xaa
	DCB	0x0
	DCB	0x37
	DCB	0x61
	DCB	0xc5
|IID_IMpegAudioDecoder| DCD 0xb45dd570
	DCW	0x3c77
	DCW	0x11d1
	DCB	0xab
	DCB	0xe1
	DCB	0x0
	DCB	0xa0
	DCB	0xc9
	DCB	0x5
	DCB	0xf3
	DCB	0x75
|IID_IAMLine21Decoder| DCD 0x6e8d4a21
	DCW	0x310c
	DCW	0x11d0
	DCB	0xb7
	DCB	0x9a
	DCB	0x0
	DCB	0xaa
	DCB	0x0
	DCB	0x37
	DCB	0x67
	DCB	0xa7
|FORMAT_AnalogVideo| DCD 0x482dde0
	DCW	0x7817
	DCW	0x11cf
	DCB	0x8a
	DCB	0x3
	DCB	0x0
	DCB	0xaa
	DCB	0x0
	DCB	0x6e
	DCB	0xcb
	DCB	0x65
|MEDIATYPE_AnalogVideo| DCD 0x482dde1
	DCW	0x7817
	DCW	0x11cf
	DCB	0x8a
	DCB	0x3
	DCB	0x0
	DCB	0xaa
	DCB	0x0
	DCB	0x6e
	DCB	0xcb
	DCB	0x65
|MEDIASUBTYPE_AnalogVideo_NTSC_M| DCD 0x482dde2
	DCW	0x7817
	DCW	0x11cf
	DCB	0x8a
	DCB	0x3
	DCB	0x0
	DCB	0xaa
	DCB	0x0
	DCB	0x6e
	DCB	0xcb
	DCB	0x65
|MEDIASUBTYPE_AnalogVideo_PAL_B| DCD 0x482dde5
	DCW	0x7817
	DCW	0x11cf
	DCB	0x8a
	DCB	0x3
	DCB	0x0
	DCB	0xaa
	DCB	0x0
	DCB	0x6e
	DCB	0xcb
	DCB	0x65
|MEDIASUBTYPE_AnalogVideo_PAL_D| DCD 0x482dde6
	DCW	0x7817
	DCW	0x11cf
	DCB	0x8a
	DCB	0x3
	DCB	0x0
	DCB	0xaa
	DCB	0x0
	DCB	0x6e
	DCB	0xcb
	DCB	0x65
|MEDIASUBTYPE_AnalogVideo_PAL_G| DCD 0x482dde7
	DCW	0x7817
	DCW	0x11cf
	DCB	0x8a
	DCB	0x3
	DCB	0x0
	DCB	0xaa
	DCB	0x0
	DCB	0x6e
	DCB	0xcb
	DCB	0x65
|MEDIASUBTYPE_AnalogVideo_PAL_H| DCD 0x482dde8
	DCW	0x7817
	DCW	0x11cf
	DCB	0x8a
	DCB	0x3
	DCB	0x0
	DCB	0xaa
	DCB	0x0
	DCB	0x6e
	DCB	0xcb
	DCB	0x65
|MEDIASUBTYPE_AnalogVideo_PAL_I| DCD 0x482dde9
	DCW	0x7817
	DCW	0x11cf
	DCB	0x8a
	DCB	0x3
	DCB	0x0
	DCB	0xaa
	DCB	0x0
	DCB	0x6e
	DCB	0xcb
	DCB	0x65
|MEDIASUBTYPE_AnalogVideo_PAL_M| DCD 0x482ddea
	DCW	0x7817
	DCW	0x11cf
	DCB	0x8a
	DCB	0x3
	DCB	0x0
	DCB	0xaa
	DCB	0x0
	DCB	0x6e
	DCB	0xcb
	DCB	0x65
|MEDIASUBTYPE_AnalogVideo_PAL_N| DCD 0x482ddeb
	DCW	0x7817
	DCW	0x11cf
	DCB	0x8a
	DCB	0x3
	DCB	0x0
	DCB	0xaa
	DCB	0x0
	DCB	0x6e
	DCB	0xcb
	DCB	0x65
|MEDIASUBTYPE_AnalogVideo_SECAM_B| DCD 0x482ddf0
	DCW	0x7817
	DCW	0x11cf
	DCB	0x8a
	DCB	0x3
	DCB	0x0
	DCB	0xaa
	DCB	0x0
	DCB	0x6e
	DCB	0xcb
	DCB	0x65
|MEDIASUBTYPE_AnalogVideo_SECAM_D| DCD 0x482ddf1
	DCW	0x7817
	DCW	0x11cf
	DCB	0x8a
	DCB	0x3
	DCB	0x0
	DCB	0xaa
	DCB	0x0
	DCB	0x6e
	DCB	0xcb
	DCB	0x65
|MEDIASUBTYPE_AnalogVideo_SECAM_G| DCD 0x482ddf2
	DCW	0x7817
	DCW	0x11cf
	DCB	0x8a
	DCB	0x3
	DCB	0x0
	DCB	0xaa
	DCB	0x0
	DCB	0x6e
	DCB	0xcb
	DCB	0x65
|MEDIASUBTYPE_AnalogVideo_SECAM_H| DCD 0x482ddf3
	DCW	0x7817
	DCW	0x11cf
	DCB	0x8a
	DCB	0x3
	DCB	0x0
	DCB	0xaa
	DCB	0x0
	DCB	0x6e
	DCB	0xcb
	DCB	0x65
|MEDIASUBTYPE_AnalogVideo_SECAM_K| DCD 0x482ddf4
	DCW	0x7817
	DCW	0x11cf
	DCB	0x8a
	DCB	0x3
	DCB	0x0
	DCB	0xaa
	DCB	0x0
	DCB	0x6e
	DCB	0xcb
	DCB	0x65
|MEDIASUBTYPE_AnalogVideo_SECAM_K1| DCD 0x482ddf5
	DCW	0x7817
	DCW	0x11cf
	DCB	0x8a
	DCB	0x3
	DCB	0x0
	DCB	0xaa
	DCB	0x0
	DCB	0x6e
	DCB	0xcb
	DCB	0x65
|MEDIASUBTYPE_AnalogVideo_SECAM_L| DCD 0x482ddf6
	DCW	0x7817
	DCW	0x11cf
	DCB	0x8a
	DCB	0x3
	DCB	0x0
	DCB	0xaa
	DCB	0x0
	DCB	0x6e
	DCB	0xcb
	DCB	0x65
|MEDIATYPE_AnalogAudio| DCD 0x482dee1
	DCW	0x7817
	DCW	0x11cf
	DCB	0x8a
	DCB	0x3
	DCB	0x0
	DCB	0xaa
	DCB	0x0
	DCB	0x6e
	DCB	0xcb
	DCB	0x65
|MEDIATYPE_MPEG2_PACK| DCD 0x36523b13
	DCW	0x8ee5
	DCW	0x11d1
	DCB	0x8c
	DCB	0xa3
	DCB	0x0
	DCB	0x60
	DCB	0xb0
	DCB	0x57
	DCB	0x66
	DCB	0x4a
|MEDIATYPE_MPEG2_PES| DCD 0xe06d8020
	DCW	0xdb46
	DCW	0x11cf
	DCB	0xb4
	DCB	0xd1
	DCB	0x0
	DCB	0x80
	DCB	0x5f
	DCB	0x6c
	DCB	0xbb
	DCB	0xea
|MEDIASUBTYPE_MPEG2_VIDEO| DCD 0xe06d8026
	DCW	0xdb46
	DCW	0x11cf
	DCB	0xb4
	DCB	0xd1
	DCB	0x0
	DCB	0x80
	DCB	0x5f
	DCB	0x6c
	DCB	0xbb
	DCB	0xea
|FORMAT_MPEG2_VIDEO| DCD 0xe06d80e3
	DCW	0xdb46
	DCW	0x11cf
	DCB	0xb4
	DCB	0xd1
	DCB	0x0
	DCB	0x80
	DCB	0x5f
	DCB	0x6c
	DCB	0xbb
	DCB	0xea
|FORMAT_VIDEOINFO2| DCD 0xf72a76a0
	DCW	0xeb0a
	DCW	0x11d0
	DCB	0xac
	DCB	0xe4
	DCB	0x0
	DCB	0x0
	DCB	0xc0
	DCB	0xcc
	DCB	0x16
	DCB	0xba
|MEDIASUBTYPE_MPEG2_PROGRAM| DCD 0xe06d8022
	DCW	0xdb46
	DCW	0x11cf
	DCB	0xb4
	DCB	0xd1
	DCB	0x0
	DCB	0x80
	DCB	0x5f
	DCB	0x6c
	DCB	0xbb
	DCB	0xea
|MEDIASUBTYPE_MPEG2_TRANSPORT| DCD 0xe06d8023
	DCW	0xdb46
	DCW	0x11cf
	DCB	0xb4
	DCB	0xd1
	DCB	0x0
	DCB	0x80
	DCB	0x5f
	DCB	0x6c
	DCB	0xbb
	DCB	0xea
|MEDIASUBTYPE_MPEG2_AUDIO| DCD 0xe06d802b
	DCW	0xdb46
	DCW	0x11cf
	DCB	0xb4
	DCB	0xd1
	DCB	0x0
	DCB	0x80
	DCB	0x5f
	DCB	0x6c
	DCB	0xbb
	DCB	0xea
|MEDIASUBTYPE_DOLBY_AC3| DCD 0xe06d802c
	DCW	0xdb46
	DCW	0x11cf
	DCB	0xb4
	DCB	0xd1
	DCB	0x0
	DCB	0x80
	DCB	0x5f
	DCB	0x6c
	DCB	0xbb
	DCB	0xea
|MEDIASUBTYPE_DVD_SUBPICTURE| DCD 0xe06d802d
	DCW	0xdb46
	DCW	0x11cf
	DCB	0xb4
	DCB	0xd1
	DCB	0x0
	DCB	0x80
	DCB	0x5f
	DCB	0x6c
	DCB	0xbb
	DCB	0xea
|MEDIASUBTYPE_DVD_LPCM_AUDIO| DCD 0xe06d8032
	DCW	0xdb46
	DCW	0x11cf
	DCB	0xb4
	DCB	0xd1
	DCB	0x0
	DCB	0x80
	DCB	0x5f
	DCB	0x6c
	DCB	0xbb
	DCB	0xea
|MEDIATYPE_DVD_ENCRYPTED_PACK| DCD 0xed0b916a
	DCW	0x44d
	DCW	0x11d1
	DCB	0xaa
	DCB	0x78
	DCB	0x0
	DCB	0xc0
	DCB	0x4f
	DCB	0xc3
	DCB	0x1d
	DCB	0x60
|MEDIATYPE_DVD_NAVIGATION| DCD 0xe06d802e
	DCW	0xdb46
	DCW	0x11cf
	DCB	0xb4
	DCB	0xd1
	DCB	0x0
	DCB	0x80
	DCB	0x5f
	DCB	0x6c
	DCB	0xbb
	DCB	0xea
|MEDIASUBTYPE_DVD_NAVIGATION_PCI| DCD 0xe06d802f
	DCW	0xdb46
	DCW	0x11cf
	DCB	0xb4
	DCB	0xd1
	DCB	0x0
	DCB	0x80
	DCB	0x5f
	DCB	0x6c
	DCB	0xbb
	DCB	0xea
|MEDIASUBTYPE_DVD_NAVIGATION_DSI| DCD 0xe06d8030
	DCW	0xdb46
	DCW	0x11cf
	DCB	0xb4
	DCB	0xd1
	DCB	0x0
	DCB	0x80
	DCB	0x5f
	DCB	0x6c
	DCB	0xbb
	DCB	0xea
|MEDIASUBTYPE_DVD_NAVIGATION_PROVIDER| DCD 0xe06d8031
	DCW	0xdb46
	DCW	0x11cf
	DCB	0xb4
	DCB	0xd1
	DCB	0x0
	DCB	0x80
	DCB	0x5f
	DCB	0x6c
	DCB	0xbb
	DCB	0xea
|FORMAT_MPEG2Video| DCD 0xe06d80e3
	DCW	0xdb46
	DCW	0x11cf
	DCB	0xb4
	DCB	0xd1
	DCB	0x0
	DCB	0x80
	DCB	0x5f
	DCB	0x6c
	DCB	0xbb
	DCB	0xea
|FORMAT_DolbyAC3| DCD 0xe06d80e4
	DCW	0xdb46
	DCW	0x11cf
	DCB	0xb4
	DCB	0xd1
	DCB	0x0
	DCB	0x80
	DCB	0x5f
	DCB	0x6c
	DCB	0xbb
	DCB	0xea
|FORMAT_MPEG2Audio| DCD 0xe06d80e5
	DCW	0xdb46
	DCW	0x11cf
	DCB	0xb4
	DCB	0xd1
	DCB	0x0
	DCB	0x80
	DCB	0x5f
	DCB	0x6c
	DCB	0xbb
	DCB	0xea
|FORMAT_DVD_LPCMAudio| DCD 0xe06d80e6
	DCW	0xdb46
	DCW	0x11cf
	DCB	0xb4
	DCB	0xd1
	DCB	0x0
	DCB	0x80
	DCB	0x5f
	DCB	0x6c
	DCB	0xbb
	DCB	0xea
|AM_KSPROPSETID_AC3| DCD 0xbfabe720
	DCW	0x6e1f
	DCW	0x11d0
	DCB	0xbc
	DCB	0xf2
	DCB	0x44
	DCB	0x45
	DCB	0x53
	DCB	0x54
	DCB	0x0
	DCB	0x0
|AM_KSPROPSETID_DvdSubPic| DCD 0xac390460
	DCW	0x43af
	DCW	0x11d0
	DCB	0xbd
	DCB	0x6a
	DCB	0x0
	DCB	0x35
	DCB	0x5
	DCB	0xc1
	DCB	0x3
	DCB	0xa9
|AM_KSPROPSETID_CopyProt| DCD 0xe8a0a40
	DCW	0x6aef
	DCW	0x11d0
	DCB	0x9e
	DCB	0xd0
	DCB	0x0
	DCB	0xa0
	DCB	0x24
	DCB	0xca
	DCB	0x19
	DCB	0xb3
|AM_KSPROPSETID_TSRateChange| DCD 0xa503c5c0
	DCW	0x1d1d
	DCW	0x11d1
	DCB	0xad
	DCB	0x80
	DCB	0x44
	DCB	0x45
	DCB	0x53
	DCB	0x54
	DCB	0x0
	DCB	0x0
|AM_KSPROPSETID_RendererPosition| DCD 0x582c8c6a
	DCW	0x6f45
	DCW	0x4056
	DCB	0x82
	DCB	0x7b
	DCB	0xd3
	DCB	0xc9
	DCB	0xe3
	DCB	0x7a
	DCB	0xf
	DCB	0xe4
|AM_KSCATEGORY_CAPTURE| DCD 0x65e8773d
	DCW	0x8f56
	DCW	0x11d0
	DCB	0xa3
	DCB	0xb9
	DCB	0x0
	DCB	0xa0
	DCB	0xc9
	DCB	0x22
	DCB	0x31
	DCB	0x96
|AM_KSCATEGORY_RENDER| DCD 0x65e8773e
	DCW	0x8f56
	DCW	0x11d0
	DCB	0xa3
	DCB	0xb9
	DCB	0x0
	DCB	0xa0
	DCB	0xc9
	DCB	0x22
	DCB	0x31
	DCB	0x96
|AM_KSCATEGORY_DATACOMPRESSOR| DCD 0x1e84c900
	DCW	0x7e70
	DCW	0x11d0
	DCB	0xa5
	DCB	0xd6
	DCB	0x28
	DCB	0xdb
	DCB	0x4
	DCB	0xc1
	DCB	0x0
	DCB	0x0
|AM_KSCATEGORY_AUDIO| DCD 0x6994ad04
	DCW	0x93ef
	DCW	0x11d0
	DCB	0xa3
	DCB	0xcc
	DCB	0x0
	DCB	0xa0
	DCB	0xc9
	DCB	0x22
	DCB	0x31
	DCB	0x96
|AM_KSCATEGORY_VIDEO| DCD 0x6994ad05
	DCW	0x93ef
	DCW	0x11d0
	DCB	0xa3
	DCB	0xcc
	DCB	0x0
	DCB	0xa0
	DCB	0xc9
	DCB	0x22
	DCB	0x31
	DCB	0x96
|AM_KSCATEGORY_TVTUNER| DCD 0xa799a800
	DCW	0xa46d
	DCW	0x11d0
	DCB	0xa1
	DCB	0x8c
	DCB	0x0
	DCB	0xa0
	DCB	0x24
	DCB	0x1
	DCB	0xdc
	DCB	0xd4
|AM_KSCATEGORY_CROSSBAR| DCD 0xa799a801
	DCW	0xa46d
	DCW	0x11d0
	DCB	0xa1
	DCB	0x8c
	DCB	0x0
	DCB	0xa0
	DCB	0x24
	DCB	0x1
	DCB	0xdc
	DCB	0xd4
|AM_KSCATEGORY_TVAUDIO| DCD 0xa799a802
	DCW	0xa46d
	DCW	0x11d0
	DCB	0xa1
	DCB	0x8c
	DCB	0x0
	DCB	0xa0
	DCB	0x24
	DCB	0x1
	DCB	0xdc
	DCB	0xd4
|AM_KSCATEGORY_VBICODEC| DCD 0x7dad660
	DCW	0x22f1
	DCW	0x11d1
	DCB	0xa9
	DCB	0xf4
	DCB	0x0
	DCB	0xc0
	DCB	0x4f
	DCB	0xbb
	DCB	0xde
	DCB	0x8f
|AM_KSCATEGORY_SPLITTER| DCD 0xa4252a0
	DCW	0x7e70
	DCW	0x11d0
	DCB	0xa5
	DCB	0xd6
	DCB	0x28
	DCB	0xdb
	DCB	0x4
	DCB	0xc1
	DCB	0x0
	DCB	0x0
|IID_IKsInterfaceHandler| DCD 0xd3abc7e0
	DCW	0x9a61
	DCW	0x11d0
	DCB	0xa4
	DCB	0xd
	DCB	0x0
	DCB	0xa0
	DCB	0xc9
	DCB	0x22
	DCB	0x31
	DCB	0x96
|IID_IKsDataTypeHandler| DCD 0x5ffbaa02
	DCW	0x49a3
	DCW	0x11d0
	DCB	0x9f
	DCB	0x36
	DCB	0x0
	DCB	0xaa
	DCB	0x0
	DCB	0xa2
	DCB	0x16
	DCB	0xa1
|IID_IKsPin| DCD 0xb61178d1
	DCW	0xa2d9
	DCW	0x11cf
	DCB	0x9e
	DCB	0x53
	DCB	0x0
	DCB	0xaa
	DCB	0x0
	DCB	0xa2
	DCB	0x16
	DCB	0xa1
|IID_IKsControl| DCD 0x28f54685
	DCW	0x6fd
	DCW	0x11d2
	DCB	0xb2
	DCB	0x7a
	DCB	0x0
	DCB	0xa0
	DCB	0xc9
	DCB	0x22
	DCB	0x31
	DCB	0x96
|IID_IKsPinFactory| DCD 0xcd5ebe6b
	DCW	0x8b6e
	DCW	0x11d1
	DCB	0x8a
	DCB	0xe0
	DCB	0x0
	DCB	0xa0
	DCB	0xc9
	DCB	0x22
	DCB	0x31
	DCB	0x96
|AM_INTERFACESETID_Standard| DCD 0x1a8766a0
	DCW	0x62ce
	DCW	0x11cf
	DCB	0xa5
	DCB	0xd6
	DCB	0x28
	DCB	0xdb
	DCB	0x4
	DCB	0xc1
	DCB	0x0
	DCB	0x0
|TIME_FORMAT_NONE| DCD 0x0
	DCW	0x0
	DCW	0x0
	DCB	0x0
	DCB	0x0
	DCB	0x0
	DCB	0x0
	DCB	0x0
	DCB	0x0
	DCB	0x0
	DCB	0x0
|TIME_FORMAT_FRAME| DCD 0x7b785570
	DCW	0x8c82
	DCW	0x11cf
	DCB	0xbc
	DCB	0xc
	DCB	0x0
	DCB	0xaa
	DCB	0x0
	DCB	0xac
	DCB	0x74
	DCB	0xf6
|TIME_FORMAT_BYTE| DCD 0x7b785571
	DCW	0x8c82
	DCW	0x11cf
	DCB	0xbc
	DCB	0xc
	DCB	0x0
	DCB	0xaa
	DCB	0x0
	DCB	0xac
	DCB	0x74
	DCB	0xf6
|TIME_FORMAT_SAMPLE| DCD 0x7b785572
	DCW	0x8c82
	DCW	0x11cf
	DCB	0xbc
	DCB	0xc
	DCB	0x0
	DCB	0xaa
	DCB	0x0
	DCB	0xac
	DCB	0x74
	DCB	0xf6
|TIME_FORMAT_FIELD| DCD 0x7b785573
	DCW	0x8c82
	DCW	0x11cf
	DCB	0xbc
	DCB	0xc
	DCB	0x0
	DCB	0xaa
	DCB	0x0
	DCB	0xac
	DCB	0x74
	DCB	0xf6
|TIME_FORMAT_MEDIA_TIME| DCD 0x7b785574
	DCW	0x8c82
	DCW	0x11cf
	DCB	0xbc
	DCB	0xc
	DCB	0x0
	DCB	0xaa
	DCB	0x0
	DCB	0xac
	DCB	0x74
	DCB	0xf6
|AMPROPSETID_Pin| DCD 0x8c134960
	DCW	0x51ad
	DCW	0x11cf
	DCB	0x87
	DCB	0x8a
	DCB	0x94
	DCB	0xf8
	DCB	0x1
	DCB	0xc1
	DCB	0x0
	DCB	0x0
|PIN_CATEGORY_CAPTURE| DCD 0xfb6c4281
	DCW	0x353
	DCW	0x11d1
	DCB	0x90
	DCB	0x5f
	DCB	0x0
	DCB	0x0
	DCB	0xc0
	DCB	0xcc
	DCB	0x16
	DCB	0xba
|PIN_CATEGORY_PREVIEW| DCD 0xfb6c4282
	DCW	0x353
	DCW	0x11d1
	DCB	0x90
	DCB	0x5f
	DCB	0x0
	DCB	0x0
	DCB	0xc0
	DCB	0xcc
	DCB	0x16
	DCB	0xba
|PIN_CATEGORY_ANALOGVIDEOIN| DCD 0xfb6c4283
	DCW	0x353
	DCW	0x11d1
	DCB	0x90
	DCB	0x5f
	DCB	0x0
	DCB	0x0
	DCB	0xc0
	DCB	0xcc
	DCB	0x16
	DCB	0xba
|PIN_CATEGORY_VBI| DCD 0xfb6c4284
	DCW	0x353
	DCW	0x11d1
	DCB	0x90
	DCB	0x5f
	DCB	0x0
	DCB	0x0
	DCB	0xc0
	DCB	0xcc
	DCB	0x16
	DCB	0xba
|PIN_CATEGORY_VIDEOPORT| DCD 0xfb6c4285
	DCW	0x353
	DCW	0x11d1
	DCB	0x90
	DCB	0x5f
	DCB	0x0
	DCB	0x0
	DCB	0xc0
	DCB	0xcc
	DCB	0x16
	DCB	0xba
|PIN_CATEGORY_NABTS| DCD 0xfb6c4286
	DCW	0x353
	DCW	0x11d1
	DCB	0x90
	DCB	0x5f
	DCB	0x0
	DCB	0x0
	DCB	0xc0
	DCB	0xcc
	DCB	0x16
	DCB	0xba
|PIN_CATEGORY_EDS| DCD 0xfb6c4287
	DCW	0x353
	DCW	0x11d1
	DCB	0x90
	DCB	0x5f
	DCB	0x0
	DCB	0x0
	DCB	0xc0
	DCB	0xcc
	DCB	0x16
	DCB	0xba
|PIN_CATEGORY_TELETEXT| DCD 0xfb6c4288
	DCW	0x353
	DCW	0x11d1
	DCB	0x90
	DCB	0x5f
	DCB	0x0
	DCB	0x0
	DCB	0xc0
	DCB	0xcc
	DCB	0x16
	DCB	0xba
|PIN_CATEGORY_CC| DCD 0xfb6c4289
	DCW	0x353
	DCW	0x11d1
	DCB	0x90
	DCB	0x5f
	DCB	0x0
	DCB	0x0
	DCB	0xc0
	DCB	0xcc
	DCB	0x16
	DCB	0xba
|PIN_CATEGORY_STILL| DCD 0xfb6c428a
	DCW	0x353
	DCW	0x11d1
	DCB	0x90
	DCB	0x5f
	DCB	0x0
	DCB	0x0
	DCB	0xc0
	DCB	0xcc
	DCB	0x16
	DCB	0xba
|PIN_CATEGORY_TIMECODE| DCD 0xfb6c428b
	DCW	0x353
	DCW	0x11d1
	DCB	0x90
	DCB	0x5f
	DCB	0x0
	DCB	0x0
	DCB	0xc0
	DCB	0xcc
	DCB	0x16
	DCB	0xba
|PIN_CATEGORY_VIDEOPORT_VBI| DCD 0xfb6c428c
	DCW	0x353
	DCW	0x11d1
	DCB	0x90
	DCB	0x5f
	DCB	0x0
	DCB	0x0
	DCB	0xc0
	DCB	0xcc
	DCB	0x16
	DCB	0xba
|LOOK_UPSTREAM_ONLY| DCD 0xac798be0
	DCW	0x98e3
	DCW	0x11d1
	DCB	0xb3
	DCB	0xf1
	DCB	0x0
	DCB	0xaa
	DCB	0x0
	DCB	0x37
	DCB	0x61
	DCB	0xc5
|LOOK_DOWNSTREAM_ONLY| DCD 0xac798be1
	DCW	0x98e3
	DCW	0x11d1
	DCB	0xb3
	DCB	0xf1
	DCB	0x0
	DCB	0xaa
	DCB	0x0
	DCB	0x37
	DCB	0x61
	DCB	0xc5
|CLSID_TVTunerFilterPropertyPage| DCD 0x266eee41
	DCW	0x6c63
	DCW	0x11cf
	DCB	0x8a
	DCB	0x3
	DCB	0x0
	DCB	0xaa
	DCB	0x0
	DCB	0x6e
	DCB	0xcb
	DCB	0x65
|CLSID_CrossbarFilterPropertyPage| DCD 0x71f96461
	DCW	0x78f3
	DCW	0x11d0
	DCB	0xa1
	DCB	0x8c
	DCB	0x0
	DCB	0xa0
	DCB	0xc9
	DCB	0x11
	DCB	0x89
	DCB	0x56
|CLSID_TVAudioFilterPropertyPage| DCD 0x71f96463
	DCW	0x78f3
	DCW	0x11d0
	DCB	0xa1
	DCB	0x8c
	DCB	0x0
	DCB	0xa0
	DCB	0xc9
	DCB	0x11
	DCB	0x89
	DCB	0x56
|CLSID_VideoProcAmpPropertyPage| DCD 0x71f96464
	DCW	0x78f3
	DCW	0x11d0
	DCB	0xa1
	DCB	0x8c
	DCB	0x0
	DCB	0xa0
	DCB	0xc9
	DCB	0x11
	DCB	0x89
	DCB	0x56
|CLSID_CameraControlPropertyPage| DCD 0x71f96465
	DCW	0x78f3
	DCW	0x11d0
	DCB	0xa1
	DCB	0x8c
	DCB	0x0
	DCB	0xa0
	DCB	0xc9
	DCB	0x11
	DCB	0x89
	DCB	0x56
|CLSID_AnalogVideoDecoderPropertyPage| DCD 0x71f96466
	DCW	0x78f3
	DCW	0x11d0
	DCB	0xa1
	DCB	0x8c
	DCB	0x0
	DCB	0xa0
	DCB	0xc9
	DCB	0x11
	DCB	0x89
	DCB	0x56
|CLSID_VideoStreamConfigPropertyPage| DCD 0x71f96467
	DCW	0x78f3
	DCW	0x11d0
	DCB	0xa1
	DCB	0x8c
	DCB	0x0
	DCB	0xa0
	DCB	0xc9
	DCB	0x11
	DCB	0x89
	DCB	0x56
|IID_IIPDVDec| DCD 0xb8e8bd60
	DCW	0xbfe
	DCW	0x11d0
	DCB	0xaf
	DCB	0x91
	DCB	0x0
	DCB	0xaa
	DCB	0x0
	DCB	0xb6
	DCB	0x7a
	DCB	0x42
|CLSID_OverlayMixer2| DCD 0xa0025e90
	DCW	0xe45b
	DCW	0x11d1
	DCB	0xab
	DCB	0xe9
	DCB	0x0
	DCB	0xa0
	DCB	0xc9
	DCB	0x5
	DCB	0xf3
	DCB	0x75
|CLSID_ScriptCommandRenderer| DCD 0x48025243
	DCW	0x2d39
	DCW	0x11ce
	DCB	0x87
	DCB	0x5d
	DCB	0x0
	DCB	0x60
	DCB	0x8c
	DCB	0xb7
	DCB	0x80
	DCB	0x66
|IID_IScriptCommandRenderer| DCD 0x48025244
	DCW	0x2d39
	DCW	0x11ce
	DCB	0x87
	DCB	0x5d
	DCB	0x0
	DCB	0x60
	DCB	0x8c
	DCB	0xb7
	DCB	0x80
	DCB	0x66
|CLSID_FileRend| DCD 0xd51bd5a5
	DCW	0x7548
	DCW	0x11cf
	DCB	0xa5
	DCB	0x20
	DCB	0x0
	DCB	0x80
	DCB	0xc7
	DCB	0x7e
	DCB	0xf5
	DCB	0x8a
|CLSID_MultFile| DCD 0xd51bd5a3
	DCW	0x7548
	DCW	0x11cf
	DCB	0xa5
	DCB	0x20
	DCB	0x0
	DCB	0x80
	DCB	0xc7
	DCB	0x7e
	DCB	0xf5
	DCB	0x8a
|CLSID_ASFWriter| DCD 0x4f4ba16c
	DCW	0xccb0
	DCW	0x4d23
	DCB	0xb1
	DCB	0xe8
	DCB	0x67
	DCB	0x2c
	DCB	0x7d
	DCB	0xfe
	DCB	0x4a
	DCB	0x2
|CLSID_IMGSinkFilter| DCD 0x1d4d3676
	DCW	0x96ef
	DCW	0x4cd7
	DCB	0xa3
	DCB	0xd7
	DCB	0x7
	DCB	0xfa
	DCB	0xc0
	DCB	0xd0
	DCB	0xc5
	DCB	0x85
|AM_KSPROPSETID_FrameStep| DCD 0xc830acbd
	DCW	0xab07
	DCW	0x492f
	DCB	0x88
	DCB	0x52
	DCB	0x45
	DCB	0xb6
	DCB	0x98
	DCB	0x7c
	DCB	0x29
	DCB	0x79
|CLSID_NullSink| DCD 0x1322bae0
	DCW	0x35ff
	DCW	0x11df
	DCB	0x98
	DCB	0x79
	DCB	0x8
	DCB	0x0
	DCB	0x20
	DCB	0xc
	DCB	0x9a
	DCB	0x66
|sudPinTypes| DCD |MEDIATYPE_Video|
	DCD	|GUID_NULL|
	DCD	|MEDIATYPE_VideoBuffered|
	DCD	|GUID_NULL|
|sudpPins| DCD	|??_C@_1M@PFCMLKBL@?$AAI?$AAn?$AAp?$AAu?$AAt?$AA?$AA@|
	DCD	0x0
	DCD	0x0
	DCD	0x0
	DCD	0x0
	DCD	|GUID_NULL|
	DCD	0x0
	DCD	0x2
	DCD	|sudPinTypes|
|sudNullSink| DCD |CLSID_NullSink|
	DCD	|??_C@_1BO@CAALFHMN@?$AAN?$AAu?$AAl?$AAl?$AAS?$AAi?$AAn?$AAk?$AAF?$AAi?$AAl?$AAt?$AAe?$AAr?$AA?$AA@|
	DCD	0x200000
	DCD	0x1
	DCD	|sudpPins|
	EXPORT	|??0CCritSec@@QAA@XZ|			; CCritSec::CCritSec
	IMPORT	|InitializeCriticalSection|
; File c:\wince600\public\directx\sdk\inc\wxutil.h

  00000			 AREA	 |.pdata|, PDATA
|$T55506| DCD	|$LN5@CCritSec|
	DCD	0x40000601
; Function compile flags: /Ogspy

  00000			 AREA	 |.text|, CODE, ARM

  00000		 |??0CCritSec@@QAA@XZ| PROC		; CCritSec::CCritSec

; 52   :     CCritSec() {

  00000		 |$LN5@CCritSec|
  00000	e92d4010	 stmdb       sp!, {r4, lr}
  00004		 |$M55503|
  00004	e1a04000	 mov         r4, r0

; 53   : 	InitializeCriticalSection(&m_CritSec);

  00008	eb000000	 bl          InitializeCriticalSection

; 54   :     };

  0000c	e1a00004	 mov         r0, r4
  00010	e8bd4010	 ldmia       sp!, {r4, lr}
  00014	e12fff1e	 bx          lr
  00018		 |$M55504|

			 ENDP  ; |??0CCritSec@@QAA@XZ|, CCritSec::CCritSec

	EXPORT	|??1CCritSec@@QAA@XZ|			; CCritSec::~CCritSec
	IMPORT	|DeleteCriticalSection|

  00000			 AREA	 |.pdata|, PDATA
|$T55514| DCD	|$LN5@CCritSec@2|
	DCD	0x40000401
; Function compile flags: /Ogspy

  00000			 AREA	 |.text|, CODE, ARM

  00000		 |??1CCritSec@@QAA@XZ| PROC		; CCritSec::~CCritSec

; 56   :     ~CCritSec() {

  00000		 |$LN5@CCritSec@2|
  00000	e52de004	 str         lr, [sp, #-4]!
  00004		 |$M55511|

; 57   : 	DeleteCriticalSection(&m_CritSec);

  00004	eb000000	 bl          DeleteCriticalSection

; 58   :     };

  00008	e49de004	 ldr         lr, [sp], #4
  0000c	e12fff1e	 bx          lr
  00010		 |$M55512|

			 ENDP  ; |??1CCritSec@@QAA@XZ|, CCritSec::~CCritSec

	EXPORT	|DllRegisterServer|
	EXPORT	|??_C@_1EI@MPLJLCGA@?$AAI?$AAn?$AA?5?$AAD?$AAl?$AAl?$AAR?$AAe?$AAg?$AAi?$AAs?$AAt?$AAe?$AAr?$AAS?$AAe?$AAr?$AAv?$AAe?$AAr?$AA?5?$AA?5?$AAh?$AAr?$AA?5?$AA?$DN?$AA?5?$AA0?$AAx?$AA?$CF?$AA0?$AA8@| [ DATA ] ; `string'
	IMPORT	|NKDbgPrintfW|
	IMPORT	|AMovieDllRegisterServer2|
; File c:\wince600\platform\z2170p\src\app\nullsink\nullsink.cpp

  00000			 AREA	 |.pdata|, PDATA
|$T55526| DCD	|$LN7@DllRegiste|
	DCD	0x40000f01

  00000			 AREA	 |.rdata|, DATA, READONLY
|??_C@_1EI@MPLJLCGA@?$AAI?$AAn?$AA?5?$AAD?$AAl?$AAl?$AAR?$AAe?$AAg?$AAi?$AAs?$AAt?$AAe?$AAr?$AAS?$AAe?$AAr?$AAv?$AAe?$AAr?$AA?5?$AA?5?$AAh?$AAr?$AA?5?$AA?$DN?$AA?5?$AA0?$AAx?$AA?$CF?$AA0?$AA8@| DCB "I"
	DCB	0x0, "n", 0x0, " ", 0x0, "D", 0x0, "l", 0x0, "l", 0x0, "R"
	DCB	0x0, "e", 0x0, "g", 0x0, "i", 0x0, "s", 0x0, "t", 0x0, "e"
	DCB	0x0, "r", 0x0, "S", 0x0, "e", 0x0, "r", 0x0, "v", 0x0, "e"
	DCB	0x0, "r", 0x0, " ", 0x0, " ", 0x0, "h", 0x0, "r", 0x0, " "
	DCB	0x0, "=", 0x0, " ", 0x0, "0", 0x0, "x", 0x0, "%", 0x0, "0"
	DCB	0x0, "8", 0x0, "X", 0x0, 0xd, 0x0, 0xa, 0x0, 0x0, 0x0 ; `string'
; Function compile flags: /Ogspy

  00000			 AREA	 |.text|, CODE, ARM

  00000		 |DllRegisterServer| PROC

; 70   : {

  00000		 |$LN7@DllRegiste|
  00000	e92d4010	 stmdb       sp!, {r4, lr}
  00004		 |$M55523|

; 71   : 	HRESULT hr = AMovieDllRegisterServer2( TRUE );

  00004	e3a00001	 mov         r0, #1
  00008	eb000000	 bl          AMovieDllRegisterServer2

; 72   :     RETAILMSG(DBGZONE_INFO, (TEXT("In DllRegisterServer  hr = 0x%08X\r\n"), hr));

  0000c	e59f3024	 ldr         r3, [pc, #0x24]
  00010	e1a04000	 mov         r4, r0
  00014	e5933440	 ldr         r3, [r3, #0x440]
  00018	e3130001	 tst         r3, #1
  0001c	159f0010	 ldrne       r0, [pc, #0x10]
  00020	11a01004	 movne       r1, r4
  00024	1b000000	 blne        NKDbgPrintfW

; 73   : 	return hr;
; 74   : }

  00028	e1a00004	 mov         r0, r4
  0002c	e8bd4010	 ldmia       sp!, {r4, lr}
  00030	e12fff1e	 bx          lr
  00034		 |$LN8@DllRegiste|
  00034		 |$LN9@DllRegiste|
  00034	00000000	 DCD         |??_C@_1EI@MPLJLCGA@?$AAI?$AAn?$AA?5?$AAD?$AAl?$AAl?$AAR?$AAe?$AAg?$AAi?$AAs?$AAt?$AAe?$AAr?$AAS?$AAe?$AAr?$AAv?$AAe?$AAr?$AA?5?$AA?5?$AAh?$AAr?$AA?5?$AA?$DN?$AA?5?$AA0?$AAx?$AA?$CF?$AA0?$AA8@|
  00038		 |$LN10@DllRegiste|
  00038	00000000	 DCD         |?dpCurSettings@@3U_DBGPARAM@@A|
  0003c		 |$M55524|

			 ENDP  ; |DllRegisterServer|

	EXPORT	|DllUnregisterServer|
	EXPORT	|??_C@_1DC@IOHHMDAM@?$AAI?$AAn?$AA?5?$AAD?$AAl?$AAl?$AAU?$AAn?$AAr?$AAe?$AAg?$AAi?$AAs?$AAt?$AAe?$AAr?$AAS?$AAe?$AAr?$AAv?$AAe?$AAr?$AA?$AN?$AA?6?$AA?$AA@| [ DATA ] ; `string'

  00000			 AREA	 |.pdata|, PDATA
|$T55540| DCD	|$LN7@DllUnregis|
	DCD	0x40000c01

  00000			 AREA	 |.rdata|, DATA, READONLY
|??_C@_1DC@IOHHMDAM@?$AAI?$AAn?$AA?5?$AAD?$AAl?$AAl?$AAU?$AAn?$AAr?$AAe?$AAg?$AAi?$AAs?$AAt?$AAe?$AAr?$AAS?$AAe?$AAr?$AAv?$AAe?$AAr?$AA?$AN?$AA?6?$AA?$AA@| DCB "I"
	DCB	0x0, "n", 0x0, " ", 0x0, "D", 0x0, "l", 0x0, "l", 0x0, "U"
	DCB	0x0, "n", 0x0, "r", 0x0, "e", 0x0, "g", 0x0, "i", 0x0, "s"
	DCB	0x0, "t", 0x0, "e", 0x0, "r", 0x0, "S", 0x0, "e", 0x0, "r"
	DCB	0x0, "v", 0x0, "e", 0x0, "r", 0x0, 0xd, 0x0, 0xa, 0x0, 0x0
	DCB	0x0					; `string'
; Function compile flags: /Ogspy

  00000			 AREA	 |.text|, CODE, ARM

  00000		 |DllUnregisterServer| PROC

; 77   : {

  00000		 |$LN7@DllUnregis|
  00000	e52de004	 str         lr, [sp, #-4]!
  00004		 |$M55537|

; 78   :     RETAILMSG(DBGZONE_INFO, (TEXT("In DllUnregisterServer\r\n")));

  00004	e59f3020	 ldr         r3, [pc, #0x20]
  00008	e5933440	 ldr         r3, [r3, #0x440]
  0000c	e3130001	 tst         r3, #1
  00010	159f0010	 ldrne       r0, [pc, #0x10]
  00014	1b000000	 blne        NKDbgPrintfW

; 79   : 	return AMovieDllRegisterServer2( FALSE );

  00018	e3a00000	 mov         r0, #0
  0001c	eb000000	 bl          AMovieDllRegisterServer2

; 80   : }

  00020	e49de004	 ldr         lr, [sp], #4
  00024	e12fff1e	 bx          lr
  00028		 |$LN8@DllUnregis|
  00028		 |$LN9@DllUnregis|
  00028	00000000	 DCD         |??_C@_1DC@IOHHMDAM@?$AAI?$AAn?$AA?5?$AAD?$AAl?$AAl?$AAU?$AAn?$AAr?$AAe?$AAg?$AAi?$AAs?$AAt?$AAe?$AAr?$AAS?$AAe?$AAr?$AAv?$AAe?$AAr?$AA?$AN?$AA?6?$AA?$AA@|
  0002c		 |$LN10@DllUnregis|
  0002c	00000000	 DCD         |?dpCurSettings@@3U_DBGPARAM@@A|
  00030		 |$M55538|

			 ENDP  ; |DllUnregisterServer|

	EXPORT	|DllMain|
	IMPORT	|DllEntryPoint|
	IMPORT	|RegisterDbgZones|

  00000			 AREA	 |.pdata|, PDATA
|$T55555| DCD	|$LN6@DllMain|
	DCD	0x40000e01
; Function compile flags: /Ogspy

  00000			 AREA	 |.text|, CODE, ARM

  00000		 |DllMain| PROC

; 84   :                        LPVOID lpReserved) {

  00000		 |$LN6@DllMain|
  00000	e92d4070	 stmdb       sp!, {r4 - r6, lr}
  00004		 |$M55552|
  00004	e1a06002	 mov         r6, r2
  00008	e1a05001	 mov         r5, r1
  0000c	e1a04000	 mov         r4, r0

; 85   : 
; 86   :     BOOL hr = TRUE;
; 87   :     
; 88   : #ifndef SHIP_BUILD
; 89   :     if (dwReason == DLL_PROCESS_ATTACH) {

  00010	e3550001	 cmp         r5, #1

; 90   :         RegisterDbgZones((HMODULE)hModule, &dpCurSettings);

  00014	059f1018	 ldreq       r1, [pc, #0x18]
  00018	0b000000	 bleq        RegisterDbgZones

; 91   :     }
; 92   : #endif
; 93   :     hr = DllEntryPoint((HINSTANCE)(hModule), dwReason, lpReserved);

  0001c	e1a02006	 mov         r2, r6
  00020	e1a01005	 mov         r1, r5
  00024	e1a00004	 mov         r0, r4
  00028	eb000000	 bl          DllEntryPoint

; 94   :     return hr;
; 95   : }

  0002c	e8bd4070	 ldmia       sp!, {r4 - r6, lr}
  00030	e12fff1e	 bx          lr
  00034		 |$LN7@DllMain|
  00034		 |$LN8@DllMain|
  00034	00000000	 DCD         |?dpCurSettings@@3U_DBGPARAM@@A|
  00038		 |$M55553|

			 ENDP  ; |DllMain|

	EXPORT	|??1CNullSink@MyNullSink@@UAA@XZ|	; MyNullSink::CNullSink::~CNullSink
	EXPORT	|??_C@_1BE@JCJMHJOM@?$AAN?$AAu?$AAl?$AAl?$AA?5?$AAS?$AAi?$AAn?$AAk?$AA?$AA@| [ DATA ] ; `string'
	EXPORT	|??_C@_1DI@EAECCJJL@?$AA?$CF?$AAs?$AA?3?$AA?5?$AAC?$AAN?$AAu?$AAl?$AAl?$AAS?$AAi?$AAn?$AAk?$AA?5?$AAd?$AAe?$AAs?$AAt?$AAr?$AAu?$AAc?$AAt?$AAo?$AAr?$AA?5?$AA?$AN?$AA?6?$AA?$AA@| [ DATA ] ; `string'
	EXPORT	|??_7CNullSink@MyNullSink@@6BCUnknown@@@| [ DATA ] ; MyNullSink::CNullSink::`vftable'
	EXPORT	|??_7CNullSink@MyNullSink@@6BIBaseFilter@@@| [ DATA ] ; MyNullSink::CNullSink::`vftable'
	EXPORT	|??_7CNullSink@MyNullSink@@6BIAMovieSetup@@@| [ DATA ] ; MyNullSink::CNullSink::`vftable'
	EXPORT	|?QueryInterface@CNullSink@MyNullSink@@W3AAJABU_GUID@@PAPAX@Z| ; [thunk]:MyNullSink::CNullSink::QueryInterface`adjustor{4}'
	EXPORT	|?AddRef@CNullSink@MyNullSink@@W3AAKXZ|	; [thunk]:MyNullSink::CNullSink::AddRef`adjustor{4}'
	EXPORT	|?Release@CNullSink@MyNullSink@@W3AAKXZ| ; [thunk]:MyNullSink::CNullSink::Release`adjustor{4}'
	EXPORT	|?QueryInterface@CNullSink@MyNullSink@@UAAJABU_GUID@@PAPAX@Z| ; MyNullSink::CNullSink::QueryInterface
	EXPORT	|?AddRef@CNullSink@MyNullSink@@UAAKXZ|	; MyNullSink::CNullSink::AddRef
	EXPORT	|?Release@CNullSink@MyNullSink@@UAAKXZ|	; MyNullSink::CNullSink::Release
	EXPORT	|?GetPinCount@CNullSink@MyNullSink@@UAAHXZ| ; MyNullSink::CNullSink::GetPinCount
	EXPORT	|?GetPin@CNullSink@MyNullSink@@UAAPAVCBasePin@@H@Z| ; MyNullSink::CNullSink::GetPin
	EXPORT	|?GetSetupData@CNullSink@MyNullSink@@UAAPAU_AMOVIESETUP_FILTER@@XZ| ; MyNullSink::CNullSink::GetSetupData
	IMPORT	|??1CBaseFilter@@UAA@XZ|		; CBaseFilter::~CBaseFilter
	IMPORT	|?Register@CBaseFilter@@UAAJXZ|		; CBaseFilter::Register
	IMPORT	|?Unregister@CBaseFilter@@UAAJXZ|	; CBaseFilter::Unregister
	IMPORT	|?GetClassID@CBaseFilter@@UAAJPAU_GUID@@@Z| ; CBaseFilter::GetClassID
	IMPORT	|?Stop@CBaseFilter@@UAAJXZ|		; CBaseFilter::Stop
	IMPORT	|?Pause@CBaseFilter@@UAAJXZ|		; CBaseFilter::Pause
	IMPORT	|?Run@CBaseFilter@@UAAJ_J@Z|		; CBaseFilter::Run
	IMPORT	|?GetState@CBaseFilter@@UAAJKPAW4_FilterState@@@Z| ; CBaseFilter::GetState
	IMPORT	|?SetSyncSource@CBaseFilter@@UAAJPAUIReferenceClock@@@Z| ; CBaseFilter::SetSyncSource
	IMPORT	|?GetSyncSource@CBaseFilter@@UAAJPAPAUIReferenceClock@@@Z| ; CBaseFilter::GetSyncSource
	IMPORT	|?EnumPins@CBaseFilter@@UAAJPAPAUIEnumPins@@@Z| ; CBaseFilter::EnumPins
	IMPORT	|?FindPin@CBaseFilter@@UAAJPBGPAPAUIPin@@@Z| ; CBaseFilter::FindPin
	IMPORT	|?QueryFilterInfo@CBaseFilter@@UAAJPAU_FilterInfo@@@Z| ; CBaseFilter::QueryFilterInfo
	IMPORT	|?JoinFilterGraph@CBaseFilter@@UAAJPAUIFilterGraph@@PBG@Z| ; CBaseFilter::JoinFilterGraph
	IMPORT	|?QueryVendorInfo@CBaseFilter@@UAAJPAPAG@Z| ; CBaseFilter::QueryVendorInfo
	IMPORT	|?NonDelegatingQueryInterface@CBaseFilter@@UAAJABU_GUID@@PAPAX@Z| ; CBaseFilter::NonDelegatingQueryInterface
	IMPORT	|?NonDelegatingAddRef@CUnknown@@UAAKXZ|	; CUnknown::NonDelegatingAddRef
	IMPORT	|?NonDelegatingRelease@CUnknown@@UAAKXZ| ; CUnknown::NonDelegatingRelease
	IMPORT	|??_ECNullSink@MyNullSink@@UAAPAXI@Z|, WEAK |??_GCNullSink@MyNullSink@@UAAPAXI@Z| ; MyNullSink::CNullSink::`vector deleting destructor', MyNullSink::CNullSink::`scalar deleting destructor'
	IMPORT	|?StreamTime@CBaseFilter@@UAAJAAVCRefTime@@@Z| ; CBaseFilter::StreamTime
	IMPORT	|?GetPinVersion@CBaseFilter@@UAAJXZ|	; CBaseFilter::GetPinVersion
; File c:\wince600\public\directx\sdk\inc\wxutil.h

  00000			 AREA	 |.pdata|, PDATA
|$T55575| DCD	|$LN12@CNullSink|
	DCD	0x40002401

  00000			 AREA	 |.rdata|, DATA, READONLY
|??_C@_1BE@JCJMHJOM@?$AAN?$AAu?$AAl?$AAl?$AA?5?$AAS?$AAi?$AAn?$AAk?$AA?$AA@| DCB "N"
	DCB	0x0, "u", 0x0, "l", 0x0, "l", 0x0, " ", 0x0, "S", 0x0, "i"
	DCB	0x0, "n", 0x0, "k", 0x0, 0x0, 0x0	; `string'

  00000			 AREA	 |.rdata|, DATA, READONLY
|??_C@_1DI@EAECCJJL@?$AA?$CF?$AAs?$AA?3?$AA?5?$AAC?$AAN?$AAu?$AAl?$AAl?$AAS?$AAi?$AAn?$AAk?$AA?5?$AAd?$AAe?$AAs?$AAt?$AAr?$AAu?$AAc?$AAt?$AAo?$AAr?$AA?5?$AA?$AN?$AA?6?$AA?$AA@| DCB "%"
	DCB	0x0, "s", 0x0, ":", 0x0, " ", 0x0, "C", 0x0, "N", 0x0, "u"
	DCB	0x0, "l", 0x0, "l", 0x0, "S", 0x0, "i", 0x0, "n", 0x0, "k"
	DCB	0x0, " ", 0x0, "d", 0x0, "e", 0x0, "s", 0x0, "t", 0x0, "r"
	DCB	0x0, "u", 0x0, "c", 0x0, "t", 0x0, "o", 0x0, "r", 0x0, " "
	DCB	0x0, 0xd, 0x0, 0xa, 0x0, 0x0, 0x0	; `string'

  00000			 AREA	 |.rdata|, DATA, READONLY
|??_7CNullSink@MyNullSink@@6BCUnknown@@@| DCD |?NonDelegatingQueryInterface@CBaseFilter@@UAAJABU_GUID@@PAPAX@Z| ; MyNullSink::CNullSink::`vftable'
	DCD	|?NonDelegatingAddRef@CUnknown@@UAAKXZ|
	DCD	|?NonDelegatingRelease@CUnknown@@UAAKXZ|
	DCD	|??_ECNullSink@MyNullSink@@UAAPAXI@Z|
	DCD	|?StreamTime@CBaseFilter@@UAAJAAVCRefTime@@@Z|
	DCD	|?GetPinVersion@CBaseFilter@@UAAJXZ|
	DCD	|?GetPinCount@CNullSink@MyNullSink@@UAAHXZ|
	DCD	|?GetPin@CNullSink@MyNullSink@@UAAPAVCBasePin@@H@Z|
	DCD	|?GetSetupData@CNullSink@MyNullSink@@UAAPAU_AMOVIESETUP_FILTER@@XZ|

  00000			 AREA	 |.rdata|, DATA, READONLY
|??_7CNullSink@MyNullSink@@6BIBaseFilter@@@| DCD |?QueryInterface@CNullSink@MyNullSink@@UAAJABU_GUID@@PAPAX@Z| ; MyNullSink::CNullSink::`vftable'
	DCD	|?AddRef@CNullSink@MyNullSink@@UAAKXZ|
	DCD	|?Release@CNullSink@MyNullSink@@UAAKXZ|
	DCD	|?GetClassID@CBaseFilter@@UAAJPAU_GUID@@@Z|
	DCD	|?Stop@CBaseFilter@@UAAJXZ|
	DCD	|?Pause@CBaseFilter@@UAAJXZ|
	DCD	|?Run@CBaseFilter@@UAAJ_J@Z|
	DCD	|?GetState@CBaseFilter@@UAAJKPAW4_FilterState@@@Z|
	DCD	|?SetSyncSource@CBaseFilter@@UAAJPAUIReferenceClock@@@Z|
	DCD	|?GetSyncSource@CBaseFilter@@UAAJPAPAUIReferenceClock@@@Z|
	DCD	|?EnumPins@CBaseFilter@@UAAJPAPAUIEnumPins@@@Z|
	DCD	|?FindPin@CBaseFilter@@UAAJPBGPAPAUIPin@@@Z|
	DCD	|?QueryFilterInfo@CBaseFilter@@UAAJPAU_FilterInfo@@@Z|
	DCD	|?JoinFilterGraph@CBaseFilter@@UAAJPAUIFilterGraph@@PBG@Z|
	DCD	|?QueryVendorInfo@CBaseFilter@@UAAJPAPAG@Z|

  00000			 AREA	 |.rdata|, DATA, READONLY
|??_7CNullSink@MyNullSink@@6BIAMovieSetup@@@| DCD |?QueryInterface@CNullSink@MyNullSink@@W3AAJABU_GUID@@PAPAX@Z| ; MyNullSink::CNullSink::`vftable'
	DCD	|?AddRef@CNullSink@MyNullSink@@W3AAKXZ|
	DCD	|?Release@CNullSink@MyNullSink@@W3AAKXZ|
	DCD	|?Register@CBaseFilter@@UAAJXZ|
	DCD	|?Unregister@CBaseFilter@@UAAJXZ|
; Function compile flags: /Ogspy
; File c:\wince600\platform\z2170p\src\app\nullsink\nullsink.cpp

  00000			 AREA	 |.text|, CODE, ARM

  00000		 |??1CNullSink@MyNullSink@@UAA@XZ| PROC	; MyNullSink::CNullSink::~CNullSink

; 143  : {

  00000		 |$LN12@CNullSink|
  00000	e92d4010	 stmdb       sp!, {r4, lr}
  00004		 |$M55572|
  00004	e1a04000	 mov         r4, r0
  00008	e59f307c	 ldr         r3, [pc, #0x7C]
  0000c	e59f2074	 ldr         r2, [pc, #0x74]
  00010	e59f106c	 ldr         r1, [pc, #0x6C]

; 144  :     RETAILMSG(DBGZONE_INFO, (TEXT("%s: CNullSink destructor \r\n"), APP_NAME));

  00014	e59fe064	 ldr         lr, [pc, #0x64]
  00018	e5843000	 str         r3, [r4]
  0001c	e584200c	 str         r2, [r4, #0xC]
  00020	e5841010	 str         r1, [r4, #0x10]
  00024	e59e3440	 ldr         r3, [lr, #0x440]
  00028	e3130001	 tst         r3, #1
  0002c	159f1048	 ldrne       r1, [pc, #0x48]
  00030	159f0040	 ldrne       r0, [pc, #0x40]
  00034	1b000000	 blne        NKDbgPrintfW

; 145  :     
; 146  :     if (m_pInput){

  00038	e5943064	 ldr         r3, [r4, #0x64]
  0003c	e1b00003	 movs        r0, r3
  00040	0a000006	 beq         |$LN1@CNullSink|

; 147  :         delete m_pInput;

  00044	e5903000	 ldr         r3, [r0]
  00048	e3a01001	 mov         r1, #1
  0004c	e593300c	 ldr         r3, [r3, #0xC]
  00050	e1a0e00f	 mov         lr, pc
  00054	e12fff13	 bx          r3

; 148  :         m_pInput = NULL;

  00058	e3a03000	 mov         r3, #0
  0005c	e5843064	 str         r3, [r4, #0x64]
  00060		 |$LN1@CNullSink|

; 149  :     }
; 150  : }

  00060	e2840050	 add         r0, r4, #0x50
  00064	eb000000	 bl          DeleteCriticalSection
  00068	e1a00004	 mov         r0, r4
  0006c	eb000000	 bl          |??1CBaseFilter@@UAA@XZ|
  00070	e8bd4010	 ldmia       sp!, {r4, lr}
  00074	e12fff1e	 bx          lr
  00078		 |$LN13@CNullSink|
  00078		 |$LN14@CNullSink|
  00078	00000000	 DCD         |??_C@_1DI@EAECCJJL@?$AA?$CF?$AAs?$AA?3?$AA?5?$AAC?$AAN?$AAu?$AAl?$AAl?$AAS?$AAi?$AAn?$AAk?$AA?5?$AAd?$AAe?$AAs?$AAt?$AAr?$AAu?$AAc?$AAt?$AAo?$AAr?$AA?5?$AA?$AN?$AA?6?$AA?$AA@|
  0007c		 |$LN15@CNullSink|
  0007c	00000000	 DCD         |??_C@_1BE@JCJMHJOM@?$AAN?$AAu?$AAl?$AAl?$AA?5?$AAS?$AAi?$AAn?$AAk?$AA?$AA@|
  00080		 |$LN16@CNullSink|
  00080	00000000	 DCD         |?dpCurSettings@@3U_DBGPARAM@@A|
  00084		 |$LN17@CNullSink|
  00084	00000000	 DCD         |??_7CNullSink@MyNullSink@@6BIAMovieSetup@@@|
  00088		 |$LN18@CNullSink|
  00088	00000000	 DCD         |??_7CNullSink@MyNullSink@@6BIBaseFilter@@@|
  0008c		 |$LN19@CNullSink|
  0008c	00000000	 DCD         |??_7CNullSink@MyNullSink@@6BCUnknown@@@|
  00090		 |$M55573|

			 ENDP  ; |??1CNullSink@MyNullSink@@UAA@XZ|, MyNullSink::CNullSink::~CNullSink

	EXPORT	|?GetOwner@CUnknown@@QBAPAUIUnknown@@XZ| ; CUnknown::GetOwner
; File c:\wince600\public\directx\sdk\inc\combase.h

  00000			 AREA	 |.pdata|, PDATA
|$T55592| DCD	|$LN5@GetOwner|
	DCD	0x40000200
; Function compile flags: /Ogspy

  00000			 AREA	 |.text|, CODE, ARM

  00000		 |?GetOwner@CUnknown@@QBAPAUIUnknown@@XZ| PROC ; CUnknown::GetOwner

; 233  :     LPUNKNOWN GetOwner() const {

  00000		 |$LN5@GetOwner|
  00000		 |$M55589|

; 234  :         return m_pUnknown;

  00000	e5900004	 ldr         r0, [r0, #4]

; 235  :     };

  00004	e12fff1e	 bx          lr
  00008		 |$M55590|

			 ENDP  ; |?GetOwner@CUnknown@@QBAPAUIUnknown@@XZ|, CUnknown::GetOwner


  00000			 AREA	 |.pdata|, PDATA
|$T55608| DCD	|$LN7@QueryInter|
	DCD	0x40000801
; Function compile flags: /Ogspy
; File c:\wince600\platform\z2170p\src\app\nullsink\nullsink.h

  00000			 AREA	 |.text|, CODE, ARM

  00000		 |?QueryInterface@CNullSink@MyNullSink@@UAAJABU_GUID@@PAPAX@Z| PROC ; MyNullSink::CNullSink::QueryInterface

; 63   :     DECLARE_IUNKNOWN

  00000		 |$LN7@QueryInter|
  00000	e52de004	 str         lr, [sp, #-4]!
  00004		 |$M55605|
  00004	e5100008	 ldr         r0, [r0, #-8]
  00008	e5903000	 ldr         r3, [r0]
  0000c	e5933000	 ldr         r3, [r3]
  00010	e1a0e00f	 mov         lr, pc
  00014	e12fff13	 bx          r3
  00018	e49de004	 ldr         lr, [sp], #4
  0001c	e12fff1e	 bx          lr
  00020		 |$M55606|

			 ENDP  ; |?QueryInterface@CNullSink@MyNullSink@@UAAJABU_GUID@@PAPAX@Z|, MyNullSink::CNullSink::QueryInterface

; File c:\wince600\public\directx\sdk\inc\combase.h

  00000			 AREA	 |.pdata|, PDATA
|$T55622| DCD	|$LN7@AddRef|
	DCD	0x40000801
; Function compile flags: /Ogspy
; File c:\wince600\platform\z2170p\src\app\nullsink\nullsink.h

  00000			 AREA	 |.text|, CODE, ARM

  00000		 |?AddRef@CNullSink@MyNullSink@@UAAKXZ| PROC ; MyNullSink::CNullSink::AddRef

; 63   :     DECLARE_IUNKNOWN

  00000		 |$LN7@AddRef|
  00000	e52de004	 str         lr, [sp, #-4]!
  00004		 |$M55619|
  00004	e5100008	 ldr         r0, [r0, #-8]
  00008	e5903000	 ldr         r3, [r0]
  0000c	e5933004	 ldr         r3, [r3, #4]
  00010	e1a0e00f	 mov         lr, pc
  00014	e12fff13	 bx          r3
  00018	e49de004	 ldr         lr, [sp], #4
  0001c	e12fff1e	 bx          lr
  00020		 |$M55620|

			 ENDP  ; |?AddRef@CNullSink@MyNullSink@@UAAKXZ|, MyNullSink::CNullSink::AddRef

; File c:\wince600\public\directx\sdk\inc\combase.h

  00000			 AREA	 |.pdata|, PDATA
|$T55636| DCD	|$LN7@Release|
	DCD	0x40000801
; Function compile flags: /Ogspy
; File c:\wince600\platform\z2170p\src\app\nullsink\nullsink.h

  00000			 AREA	 |.text|, CODE, ARM

  00000		 |?Release@CNullSink@MyNullSink@@UAAKXZ| PROC ; MyNullSink::CNullSink::Release

; 63   :     DECLARE_IUNKNOWN

  00000		 |$LN7@Release|
  00000	e52de004	 str         lr, [sp, #-4]!
  00004		 |$M55633|
  00004	e5100008	 ldr         r0, [r0, #-8]
  00008	e5903000	 ldr         r3, [r0]
  0000c	e5933008	 ldr         r3, [r3, #8]
  00010	e1a0e00f	 mov         lr, pc
  00014	e12fff13	 bx          r3
  00018	e49de004	 ldr         lr, [sp], #4
  0001c	e12fff1e	 bx          lr
  00020		 |$M55634|

			 ENDP  ; |?Release@CNullSink@MyNullSink@@UAAKXZ|, MyNullSink::CNullSink::Release

; File c:\wince600\platform\z2170p\src\app\nullsink\nullsink.cpp

  00000			 AREA	 |.pdata|, PDATA
|$T55647| DCD	|$LN8@GetPin|
	DCD	0x40000400
; Function compile flags: /Ogspy

  00000			 AREA	 |.text|, CODE, ARM

  00000		 |?GetPin@CNullSink@MyNullSink@@UAAPAVCBasePin@@H@Z| PROC ; MyNullSink::CNullSink::GetPin

; 153  : {

  00000		 |$LN8@GetPin|
  00000		 |$M55644|
  00000	e3510000	 cmp         r1, #0

; 158  :         break;
; 159  :     };
; 160  : 
; 161  :     return NULL;

  00004	13a00000	 movne       r0, #0

; 154  :     switch (Index)
; 155  :     {
; 156  :     case 0:
; 157  :         return m_pInput;

  00008	05900064	 ldreq       r0, [r0, #0x64]

; 162  : }

  0000c	e12fff1e	 bx          lr
  00010		 |$M55645|

			 ENDP  ; |?GetPin@CNullSink@MyNullSink@@UAAPAVCBasePin@@H@Z|, MyNullSink::CNullSink::GetPin


  00000			 AREA	 |.pdata|, PDATA
|$T55656| DCD	|$LN5@GetPinCoun|
	DCD	0x40000200
; Function compile flags: /Ogspy

  00000			 AREA	 |.text|, CODE, ARM

  00000		 |?GetPinCount@CNullSink@MyNullSink@@UAAHXZ| PROC ; MyNullSink::CNullSink::GetPinCount

; 165  : {

  00000		 |$LN5@GetPinCoun|
  00000		 |$M55653|

; 166  :     return NUMELMS(sudpPins);

  00000	e3a00001	 mov         r0, #1

; 167  : }

  00004	e12fff1e	 bx          lr
  00008		 |$M55654|

			 ENDP  ; |?GetPinCount@CNullSink@MyNullSink@@UAAHXZ|, MyNullSink::CNullSink::GetPinCount


  00000			 AREA	 |.pdata|, PDATA
|$T55665| DCD	|$LN5@GetSetupDa|
	DCD	0x40000300
; Function compile flags: /Ogspy

  00000			 AREA	 |.text|, CODE, ARM

  00000		 |?GetSetupData@CNullSink@MyNullSink@@UAAPAU_AMOVIESETUP_FILTER@@XZ| PROC ; MyNullSink::CNullSink::GetSetupData

; 171  : {

  00000		 |$LN5@GetSetupDa|
  00000		 |$M55662|

; 172  :     return (LPAMOVIESETUP_FILTER) &sudNullSink;

  00000	e59f0000	 ldr         r0, [pc]

; 173  : }

  00004	e12fff1e	 bx          lr
  00008		 |$LN6@GetSetupDa|
  00008		 |$LN7@GetSetupDa|
  00008	00000000	 DCD         |sudNullSink|
  0000c		 |$M55663|

			 ENDP  ; |?GetSetupData@CNullSink@MyNullSink@@UAAPAU_AMOVIESETUP_FILTER@@XZ|, MyNullSink::CNullSink::GetSetupData

	EXPORT	|??0CNullInputPin@MyNullSink@@QAA@PAGPAVCNullSink@1@PAVCCritSec@@PAJ0@Z| ; MyNullSink::CNullInputPin::CNullInputPin
	EXPORT	|??_7CNullInputPin@MyNullSink@@6BCUnknown@@@| [ DATA ] ; MyNullSink::CNullInputPin::`vftable'
	EXPORT	|??_7CNullInputPin@MyNullSink@@6BIPin@@@| [ DATA ] ; MyNullSink::CNullInputPin::`vftable'
	EXPORT	|??_7CNullInputPin@MyNullSink@@6BIQualityControl@@@| [ DATA ] ; MyNullSink::CNullInputPin::`vftable'
	EXPORT	|??_7CNullInputPin@MyNullSink@@6B@| [ DATA ] ; MyNullSink::CNullInputPin::`vftable'
	EXPORT	|?QueryInterface@CBaseInputPin@@WIM@AAJABU_GUID@@PAPAX@Z| ; [thunk]:CBaseInputPin::QueryInterface`adjustor{140}'
	EXPORT	|?AddRef@CBaseInputPin@@WIM@AAKXZ|	; [thunk]:CBaseInputPin::AddRef`adjustor{140}'
	EXPORT	|?Release@CBaseInputPin@@WIM@AAKXZ|	; [thunk]:CBaseInputPin::Release`adjustor{140}'
	EXPORT	|?Receive@CNullInputPin@MyNullSink@@UAAJPAUIMediaSample@@@Z| ; MyNullSink::CNullInputPin::Receive
	EXPORT	|?QueryInterface@CBaseInputPin@@W3AAJABU_GUID@@PAPAX@Z| ; [thunk]:CBaseInputPin::QueryInterface`adjustor{4}'
	EXPORT	|?AddRef@CBaseInputPin@@W3AAKXZ|	; [thunk]:CBaseInputPin::AddRef`adjustor{4}'
	EXPORT	|?Release@CBaseInputPin@@W3AAKXZ|	; [thunk]:CBaseInputPin::Release`adjustor{4}'
	EXPORT	|?QueryInterface@CBaseInputPin@@UAAJABU_GUID@@PAPAX@Z| ; CBaseInputPin::QueryInterface
	EXPORT	|?AddRef@CBaseInputPin@@UAAKXZ|		; CBaseInputPin::AddRef
	EXPORT	|?Release@CBaseInputPin@@UAAKXZ|	; CBaseInputPin::Release
	EXPORT	|?QueryInternalConnections@CBasePin@@UAAJPAPAUIPin@@PAK@Z| ; CBasePin::QueryInternalConnections
	EXPORT	|?CheckMediaType@CNullInputPin@MyNullSink@@UAAJPBVCMediaType@@@Z| ; MyNullSink::CNullInputPin::CheckMediaType
	EXPORT	|?GetMediaType@CNullInputPin@MyNullSink@@UAAJHPAVCMediaType@@@Z| ; MyNullSink::CNullInputPin::GetMediaType
	IMPORT	|??0CBaseInputPin@@QAA@PAGPAVCBaseFilter@@PAVCCritSec@@PAJPBG@Z| ; CBaseInputPin::CBaseInputPin
	IMPORT	|?GetAllocator@CBaseInputPin@@UAAJPAPAUIMemAllocator@@@Z| ; CBaseInputPin::GetAllocator
	IMPORT	|?NotifyAllocator@CBaseInputPin@@UAAJPAUIMemAllocator@@H@Z| ; CBaseInputPin::NotifyAllocator
	IMPORT	|?GetAllocatorRequirements@CBaseInputPin@@UAAJPAU_AllocatorProperties@@@Z| ; CBaseInputPin::GetAllocatorRequirements
	IMPORT	|?ReceiveMultiple@CBaseInputPin@@UAAJPAPAUIMediaSample@@JPAJ@Z| ; CBaseInputPin::ReceiveMultiple
	IMPORT	|?ReceiveCanBlock@CBaseInputPin@@UAAJXZ| ; CBaseInputPin::ReceiveCanBlock
	IMPORT	|?Notify@CBaseInputPin@@UAAJPAUIBaseFilter@@UtagQuality@@@Z| ; CBaseInputPin::Notify
	IMPORT	|?SetSink@CBasePin@@UAAJPAUIQualityControl@@@Z| ; CBasePin::SetSink
	IMPORT	|?Connect@CBasePin@@UAAJPAUIPin@@PBU_AMMediaType@@@Z| ; CBasePin::Connect
	IMPORT	|?ReceiveConnection@CBasePin@@UAAJPAUIPin@@PBU_AMMediaType@@@Z| ; CBasePin::ReceiveConnection
	IMPORT	|?Disconnect@CBaseInputPin@@UAAJXZ|	; CBaseInputPin::Disconnect
	IMPORT	|?ConnectedTo@CBasePin@@UAAJPAPAUIPin@@@Z| ; CBasePin::ConnectedTo
	IMPORT	|?ConnectionMediaType@CBasePin@@UAAJPAU_AMMediaType@@@Z| ; CBasePin::ConnectionMediaType
	IMPORT	|?QueryPinInfo@CBasePin@@UAAJPAU_PinInfo@@@Z| ; CBasePin::QueryPinInfo
	IMPORT	|?QueryDirection@CBasePin@@UAAJPAW4_PinDirection@@@Z| ; CBasePin::QueryDirection
	IMPORT	|?QueryId@CBasePin@@UAAJPAPAG@Z|	; CBasePin::QueryId
	IMPORT	|?QueryAccept@CBasePin@@UAAJPBU_AMMediaType@@@Z| ; CBasePin::QueryAccept
	IMPORT	|?EnumMediaTypes@CBasePin@@UAAJPAPAUIEnumMediaTypes@@@Z| ; CBasePin::EnumMediaTypes
	IMPORT	|?EndOfStream@CBasePin@@UAAJXZ|		; CBasePin::EndOfStream
	IMPORT	|?BeginFlush@CBaseInputPin@@UAAJXZ|	; CBaseInputPin::BeginFlush
	IMPORT	|?EndFlush@CBaseInputPin@@UAAJXZ|	; CBaseInputPin::EndFlush
	IMPORT	|?NewSegment@CBasePin@@UAAJ_J0N@Z|	; CBasePin::NewSegment
	IMPORT	|?NonDelegatingQueryInterface@CBaseInputPin@@UAAJABU_GUID@@PAPAX@Z| ; CBaseInputPin::NonDelegatingQueryInterface
	IMPORT	|?NonDelegatingAddRef@CBasePin@@UAAKXZ|	; CBasePin::NonDelegatingAddRef
	IMPORT	|?NonDelegatingRelease@CBasePin@@UAAKXZ| ; CBasePin::NonDelegatingRelease
	IMPORT	|??_ECNullInputPin@MyNullSink@@UAAPAXI@Z|, WEAK |??_GCNullInputPin@MyNullSink@@UAAPAXI@Z| ; MyNullSink::CNullInputPin::`vector deleting destructor', MyNullSink::CNullInputPin::`scalar deleting destructor'
	IMPORT	|?GetMediaTypeVersion@CBasePin@@UAAJXZ|	; CBasePin::GetMediaTypeVersion
	IMPORT	|?Active@CBasePin@@UAAJXZ|		; CBasePin::Active
	IMPORT	|?Inactive@CBaseInputPin@@UAAJXZ|	; CBaseInputPin::Inactive
	IMPORT	|?Run@CBasePin@@UAAJ_J@Z|		; CBasePin::Run
	IMPORT	|?SetMediaType@CBasePin@@UAAJPBVCMediaType@@@Z| ; CBasePin::SetMediaType
	IMPORT	|?CheckConnect@CBasePin@@UAAJPAUIPin@@@Z| ; CBasePin::CheckConnect
	IMPORT	|?BreakConnect@CBasePin@@UAAJXZ|	; CBasePin::BreakConnect
	IMPORT	|?CompleteConnect@CBasePin@@UAAJPAUIPin@@@Z| ; CBasePin::CompleteConnect
	IMPORT	|?CheckStreaming@CBaseInputPin@@UAAJXZ|	; CBaseInputPin::CheckStreaming

  00000			 AREA	 |.pdata|, PDATA
|$T55680| DCD	|$LN5@CNullInput|
	DCD	0x40001802

  00000			 AREA	 |.rdata|, DATA, READONLY
|??_7CNullInputPin@MyNullSink@@6BCUnknown@@@| DCD |?NonDelegatingQueryInterface@CBaseInputPin@@UAAJABU_GUID@@PAPAX@Z| ; MyNullSink::CNullInputPin::`vftable'
	DCD	|?NonDelegatingAddRef@CBasePin@@UAAKXZ|
	DCD	|?NonDelegatingRelease@CBasePin@@UAAKXZ|
	DCD	|??_ECNullInputPin@MyNullSink@@UAAPAXI@Z|
	DCD	|?GetMediaTypeVersion@CBasePin@@UAAJXZ|
	DCD	|?Active@CBasePin@@UAAJXZ|
	DCD	|?Inactive@CBaseInputPin@@UAAJXZ|
	DCD	|?Run@CBasePin@@UAAJ_J@Z|
	DCD	|?CheckMediaType@CNullInputPin@MyNullSink@@UAAJPBVCMediaType@@@Z|
	DCD	|?SetMediaType@CBasePin@@UAAJPBVCMediaType@@@Z|
	DCD	|?CheckConnect@CBasePin@@UAAJPAUIPin@@@Z|
	DCD	|?BreakConnect@CBasePin@@UAAJXZ|
	DCD	|?CompleteConnect@CBasePin@@UAAJPAUIPin@@@Z|
	DCD	|?GetMediaType@CNullInputPin@MyNullSink@@UAAJHPAVCMediaType@@@Z|
	DCD	|?CheckStreaming@CBaseInputPin@@UAAJXZ|

  00000			 AREA	 |.rdata|, DATA, READONLY
|??_7CNullInputPin@MyNullSink@@6BIPin@@@| DCD |?QueryInterface@CBaseInputPin@@UAAJABU_GUID@@PAPAX@Z| ; MyNullSink::CNullInputPin::`vftable'
	DCD	|?AddRef@CBaseInputPin@@UAAKXZ|
	DCD	|?Release@CBaseInputPin@@UAAKXZ|
	DCD	|?Connect@CBasePin@@UAAJPAUIPin@@PBU_AMMediaType@@@Z|
	DCD	|?ReceiveConnection@CBasePin@@UAAJPAUIPin@@PBU_AMMediaType@@@Z|
	DCD	|?Disconnect@CBaseInputPin@@UAAJXZ|
	DCD	|?ConnectedTo@CBasePin@@UAAJPAPAUIPin@@@Z|
	DCD	|?ConnectionMediaType@CBasePin@@UAAJPAU_AMMediaType@@@Z|
	DCD	|?QueryPinInfo@CBasePin@@UAAJPAU_PinInfo@@@Z|
	DCD	|?QueryDirection@CBasePin@@UAAJPAW4_PinDirection@@@Z|
	DCD	|?QueryId@CBasePin@@UAAJPAPAG@Z|
	DCD	|?QueryAccept@CBasePin@@UAAJPBU_AMMediaType@@@Z|
	DCD	|?EnumMediaTypes@CBasePin@@UAAJPAPAUIEnumMediaTypes@@@Z|
	DCD	|?QueryInternalConnections@CBasePin@@UAAJPAPAUIPin@@PAK@Z|
	DCD	|?EndOfStream@CBasePin@@UAAJXZ|
	DCD	|?BeginFlush@CBaseInputPin@@UAAJXZ|
	DCD	|?EndFlush@CBaseInputPin@@UAAJXZ|
	DCD	|?NewSegment@CBasePin@@UAAJ_J0N@Z|

  00000			 AREA	 |.rdata|, DATA, READONLY
|??_7CNullInputPin@MyNullSink@@6BIQualityControl@@@| DCD |?QueryInterface@CBaseInputPin@@W3AAJABU_GUID@@PAPAX@Z| ; MyNullSink::CNullInputPin::`vftable'
	DCD	|?AddRef@CBaseInputPin@@W3AAKXZ|
	DCD	|?Release@CBaseInputPin@@W3AAKXZ|
	DCD	|?Notify@CBaseInputPin@@UAAJPAUIBaseFilter@@UtagQuality@@@Z|
	DCD	|?SetSink@CBasePin@@UAAJPAUIQualityControl@@@Z|

  00000			 AREA	 |.rdata|, DATA, READONLY
|??_7CNullInputPin@MyNullSink@@6B@| DCD |?QueryInterface@CBaseInputPin@@WIM@AAJABU_GUID@@PAPAX@Z| ; MyNullSink::CNullInputPin::`vftable'
	DCD	|?AddRef@CBaseInputPin@@WIM@AAKXZ|
	DCD	|?Release@CBaseInputPin@@WIM@AAKXZ|
	DCD	|?GetAllocator@CBaseInputPin@@UAAJPAPAUIMemAllocator@@@Z|
	DCD	|?NotifyAllocator@CBaseInputPin@@UAAJPAUIMemAllocator@@H@Z|
	DCD	|?GetAllocatorRequirements@CBaseInputPin@@UAAJPAU_AllocatorProperties@@@Z|
	DCD	|?Receive@CNullInputPin@MyNullSink@@UAAJPAUIMediaSample@@@Z|
	DCD	|?ReceiveMultiple@CBaseInputPin@@UAAJPAPAUIMediaSample@@JPAJ@Z|
	DCD	|?ReceiveCanBlock@CBaseInputPin@@UAAJXZ|
; Function compile flags: /Ogspy

  00000			 AREA	 |.text|, CODE, ARM

  00000		 |??0CNullInputPin@MyNullSink@@QAA@PAGPAVCNullSink@1@PAVCCritSec@@PAJ0@Z| PROC ; MyNullSink::CNullInputPin::CNullInputPin

; 186  : {

  00000		 |$LN5@CNullInput|
  00000	e92d4030	 stmdb       sp!, {r4, r5, lr}
  00004	e24dd008	 sub         sp, sp, #8
  00008		 |$M55677|
  00008	e1a05000	 mov         r5, r0
  0000c	e59de018	 ldr         lr, [sp, #0x18]
  00010	e59d4014	 ldr         r4, [sp, #0x14]
  00014	e58de004	 str         lr, [sp, #4]
  00018	e58d4000	 str         r4, [sp]
  0001c	eb000000	 bl          |??0CBaseInputPin@@QAA@PAGPAVCBaseFilter@@PAVCCritSec@@PAJPBG@Z|
  00020	e59fe034	 ldr         lr, [pc, #0x34]
  00024	e59f302c	 ldr         r3, [pc, #0x2C]
  00028	e59f2024	 ldr         r2, [pc, #0x24]
  0002c	e59f101c	 ldr         r1, [pc, #0x1C]
  00030	e585e098	 str         lr, [r5, #0x98]
  00034	e5853000	 str         r3, [r5]
  00038	e585200c	 str         r2, [r5, #0xC]
  0003c	e5851010	 str         r1, [r5, #0x10]

; 187  : }

  00040	e1a00005	 mov         r0, r5
  00044	e28dd008	 add         sp, sp, #8
  00048	e8bd4030	 ldmia       sp!, {r4, r5, lr}
  0004c	e12fff1e	 bx          lr
  00050		 |$LN6@CNullInput|
  00050		 |$LN7@CNullInput|
  00050	00000000	 DCD         |??_7CNullInputPin@MyNullSink@@6BIQualityControl@@@|
  00054		 |$LN8@CNullInput|
  00054	00000000	 DCD         |??_7CNullInputPin@MyNullSink@@6BIPin@@@|
  00058		 |$LN9@CNullInput|
  00058	00000000	 DCD         |??_7CNullInputPin@MyNullSink@@6BCUnknown@@@|
  0005c		 |$LN10@CNullInput|
  0005c	00000000	 DCD         |??_7CNullInputPin@MyNullSink@@6B@|
  00060		 |$M55678|

			 ENDP  ; |??0CNullInputPin@MyNullSink@@QAA@PAGPAVCNullSink@1@PAVCCritSec@@PAJ0@Z|, MyNullSink::CNullInputPin::CNullInputPin

; File c:\wince600\public\directx\sdk\inc\amfilter.h

  00000			 AREA	 |.pdata|, PDATA
|$T55694| DCD	|$LN5@QueryInter@2|
	DCD	0x40000300
; Function compile flags: /Ogspy

  00000			 AREA	 |.text|, CODE, ARM

  00000		 |?QueryInternalConnections@CBasePin@@UAAJPAPAUIPin@@PAK@Z| PROC ; CBasePin::QueryInternalConnections

; 458  :         ) { return E_NOTIMPL; }

  00000		 |$LN5@QueryInter@2|
  00000		 |$M55691|
  00000	e3a03106	 mov         r3, #6, 2
  00004	e3830901	 orr         r0, r3, #1, 18
  00008	e12fff1e	 bx          lr
  0000c		 |$M55692|

			 ENDP  ; |?QueryInternalConnections@CBasePin@@UAAJPAPAUIPin@@PAK@Z|, CBasePin::QueryInternalConnections

; File c:\wince600\public\directx\sdk\inc\combase.h

  00000			 AREA	 |.pdata|, PDATA
|$T55710| DCD	|$LN7@QueryInter@3|
	DCD	0x40000801
; Function compile flags: /Ogspy
; File c:\wince600\public\directx\sdk\inc\amfilter.h

  00000			 AREA	 |.text|, CODE, ARM

  00000		 |?QueryInterface@CBaseInputPin@@UAAJABU_GUID@@PAPAX@Z| PROC ; CBaseInputPin::QueryInterface

; 822  :     DECLARE_IUNKNOWN

  00000		 |$LN7@QueryInter@3|
  00000	e52de004	 str         lr, [sp, #-4]!
  00004		 |$M55707|
  00004	e5100008	 ldr         r0, [r0, #-8]
  00008	e5903000	 ldr         r3, [r0]
  0000c	e5933000	 ldr         r3, [r3]
  00010	e1a0e00f	 mov         lr, pc
  00014	e12fff13	 bx          r3
  00018	e49de004	 ldr         lr, [sp], #4
  0001c	e12fff1e	 bx          lr
  00020		 |$M55708|

			 ENDP  ; |?QueryInterface@CBaseInputPin@@UAAJABU_GUID@@PAPAX@Z|, CBaseInputPin::QueryInterface

; File c:\wince600\public\directx\sdk\inc\combase.h

  00000			 AREA	 |.pdata|, PDATA
|$T55724| DCD	|$LN7@AddRef@2|
	DCD	0x40000801
; Function compile flags: /Ogspy
; File c:\wince600\public\directx\sdk\inc\amfilter.h

  00000			 AREA	 |.text|, CODE, ARM

  00000		 |?AddRef@CBaseInputPin@@UAAKXZ| PROC	; CBaseInputPin::AddRef

; 822  :     DECLARE_IUNKNOWN

  00000		 |$LN7@AddRef@2|
  00000	e52de004	 str         lr, [sp, #-4]!
  00004		 |$M55721|
  00004	e5100008	 ldr         r0, [r0, #-8]
  00008	e5903000	 ldr         r3, [r0]
  0000c	e5933004	 ldr         r3, [r3, #4]
  00010	e1a0e00f	 mov         lr, pc
  00014	e12fff13	 bx          r3
  00018	e49de004	 ldr         lr, [sp], #4
  0001c	e12fff1e	 bx          lr
  00020		 |$M55722|

			 ENDP  ; |?AddRef@CBaseInputPin@@UAAKXZ|, CBaseInputPin::AddRef

; File c:\wince600\public\directx\sdk\inc\combase.h

  00000			 AREA	 |.pdata|, PDATA
|$T55738| DCD	|$LN7@Release@2|
	DCD	0x40000801
; Function compile flags: /Ogspy
; File c:\wince600\public\directx\sdk\inc\amfilter.h

  00000			 AREA	 |.text|, CODE, ARM

  00000		 |?Release@CBaseInputPin@@UAAKXZ| PROC	; CBaseInputPin::Release

; 822  :     DECLARE_IUNKNOWN

  00000		 |$LN7@Release@2|
  00000	e52de004	 str         lr, [sp, #-4]!
  00004		 |$M55735|
  00004	e5100008	 ldr         r0, [r0, #-8]
  00008	e5903000	 ldr         r3, [r0]
  0000c	e5933008	 ldr         r3, [r3, #8]
  00010	e1a0e00f	 mov         lr, pc
  00014	e12fff13	 bx          r3
  00018	e49de004	 ldr         lr, [sp], #4
  0001c	e12fff1e	 bx          lr
  00020		 |$M55736|

			 ENDP  ; |?Release@CBaseInputPin@@UAAKXZ|, CBaseInputPin::Release

	EXPORT	|??1CNullInputPin@MyNullSink@@UAA@XZ|	; MyNullSink::CNullInputPin::~CNullInputPin
	IMPORT	|??1CBaseInputPin@@UAA@XZ|		; CBaseInputPin::~CBaseInputPin
; File c:\wince600\platform\z2170p\src\app\nullsink\nullsink.cpp

  00000			 AREA	 |.pdata|, PDATA
|$T55746| DCD	|$LN5@CNullInput@2|
	DCD	0x40001001
; Function compile flags: /Ogspy

  00000			 AREA	 |.text|, CODE, ARM

  00000		 |??1CNullInputPin@MyNullSink@@UAA@XZ| PROC ; MyNullSink::CNullInputPin::~CNullInputPin

; 191  : {

  00000		 |$LN5@CNullInput@2|
  00000	e52de004	 str         lr, [sp, #-4]!
  00004		 |$M55743|
  00004	e59f3030	 ldr         r3, [pc, #0x30]
  00008	e59f2028	 ldr         r2, [pc, #0x28]
  0000c	e59f1020	 ldr         r1, [pc, #0x20]
  00010	e59fe018	 ldr         lr, [pc, #0x18]
  00014	e5803000	 str         r3, [r0]
  00018	e580200c	 str         r2, [r0, #0xC]
  0001c	e5801010	 str         r1, [r0, #0x10]
  00020	e580e098	 str         lr, [r0, #0x98]

; 192  : }

  00024	eb000000	 bl          |??1CBaseInputPin@@UAA@XZ|
  00028	e49de004	 ldr         lr, [sp], #4
  0002c	e12fff1e	 bx          lr
  00030		 |$LN6@CNullInput@2|
  00030		 |$LN7@CNullInput@2|
  00030	00000000	 DCD         |??_7CNullInputPin@MyNullSink@@6B@|
  00034		 |$LN8@CNullInput@2|
  00034	00000000	 DCD         |??_7CNullInputPin@MyNullSink@@6BIQualityControl@@@|
  00038		 |$LN9@CNullInput@2|
  00038	00000000	 DCD         |??_7CNullInputPin@MyNullSink@@6BIPin@@@|
  0003c		 |$LN10@CNullInput@2|
  0003c	00000000	 DCD         |??_7CNullInputPin@MyNullSink@@6BCUnknown@@@|
  00040		 |$M55744|

			 ENDP  ; |??1CNullInputPin@MyNullSink@@UAA@XZ|, MyNullSink::CNullInputPin::~CNullInputPin


  00000			 AREA	 |.pdata|, PDATA
|$T55761| DCD	|$LN6@CheckMedia|
	DCD	0x40000500
; Function compile flags: /Ogspy

  00000			 AREA	 |.text|, CODE, ARM

  00000		 |?CheckMediaType@CNullInputPin@MyNullSink@@UAAJPBVCMediaType@@@Z| PROC ; MyNullSink::CNullInputPin::CheckMediaType

; 195  : CNullInputPin::CheckMediaType( const CMediaType* pMediaType ) {

  00000		 |$LN6@CheckMedia|
  00000		 |$M55758|
  00000	e3510000	 cmp         r1, #0

; 196  :     if (!pMediaType)

  00004	03a0310e	 moveq       r3, #0xE, 2

; 197  :         {
; 198  :         ASSERT(false);
; 199  :         return E_POINTER;

  00008	03830901	 orreq       r0, r3, #1, 18

; 200  :         }
; 201  : 
; 202  :     // accept any input media type
; 203  :     return S_OK;

  0000c	13a00000	 movne       r0, #0

; 204  : }

  00010	e12fff1e	 bx          lr
  00014		 |$M55759|

			 ENDP  ; |?CheckMediaType@CNullInputPin@MyNullSink@@UAAJPBVCMediaType@@@Z|, MyNullSink::CNullInputPin::CheckMediaType

	IMPORT	|?SetSubtype@CMediaType@@QAAXPBU_GUID@@@Z| ; CMediaType::SetSubtype
	IMPORT	|?SetType@CMediaType@@QAAXPBU_GUID@@@Z|	; CMediaType::SetType
	IMPORT	|?InitMediaType@CMediaType@@QAAXXZ|	; CMediaType::InitMediaType

  00000			 AREA	 |.pdata|, PDATA
|$T55772| DCD	|$LN8@GetMediaTy|
	DCD	0x40001d01
; Function compile flags: /Ogspy

  00000			 AREA	 |.text|, CODE, ARM

  00000		 |?GetMediaType@CNullInputPin@MyNullSink@@UAAJHPAVCMediaType@@@Z| PROC ; MyNullSink::CNullInputPin::GetMediaType

; 210  :     ) {

  00000		 |$LN8@GetMediaTy|
  00000	e92d4070	 stmdb       sp!, {r4 - r6, lr}
  00004		 |$M55769|
  00004	e1b06002	 movs        r6, r2
  00008	e1a05001	 mov         r5, r1

; 211  :     if (!pMediaType){

  0000c	03a0310e	 moveq       r3, #0xE, 2

; 212  :         ASSERT(false);
; 213  :         return E_POINTER;

  00010	03830901	 orreq       r0, r3, #1, 18

; 225  : }

  00014	08bd4070	 ldmeqia     sp!, {r4 - r6, lr}
  00018	012fff1e	 bxeq        lr

; 214  :     }
; 215  : 
; 216  :     if (pos < 0 || pos >= NUMELMS(sudPinTypes)) {

  0001c	e3550000	 cmp         r5, #0
  00020	4a00000e	 bmi         |$LN1@GetMediaTy|
  00024	e3550002	 cmp         r5, #2
  00028	2a00000c	 bcs         |$LN1@GetMediaTy|

; 218  :     }
; 219  :     
; 220  :     pMediaType->InitMediaType();

  0002c	e1a00006	 mov         r0, r6
  00030	eb000000	 bl          |?InitMediaType@CMediaType@@QAAXXZ|

; 221  :     pMediaType->SetType(sudPinTypes[pos].clsMajorType);

  00034	e59f4034	 ldr         r4, [pc, #0x34]
  00038	e1a00006	 mov         r0, r6
  0003c	e7941185	 ldr         r1, [r4, +r5, lsl #3]
  00040	eb000000	 bl          |?SetType@CMediaType@@QAAXPBU_GUID@@@Z|

; 222  :     pMediaType->SetSubtype(sudPinTypes[pos].clsMinorType);

  00044	e0843185	 add         r3, r4, r5, lsl #3
  00048	e5931004	 ldr         r1, [r3, #4]
  0004c	e1a00006	 mov         r0, r6
  00050	eb000000	 bl          |?SetSubtype@CMediaType@@QAAXPBU_GUID@@@Z|

; 223  : 
; 224  :     return S_OK;

  00054	e3a00000	 mov         r0, #0

; 225  : }

  00058	e8bd4070	 ldmia       sp!, {r4 - r6, lr}
  0005c	e12fff1e	 bx          lr
  00060		 |$LN1@GetMediaTy|

; 217  :         return VFW_S_NO_MORE_ITEMS;

  00060	e59f0004	 ldr         r0, [pc, #4]

; 225  : }

  00064	e8bd4070	 ldmia       sp!, {r4 - r6, lr}
  00068	e12fff1e	 bx          lr
  0006c		 |$LN9@GetMediaTy|
  0006c		 |$LN10@GetMediaTy|
  0006c	00040103	 DCD         0x40103
  00070		 |$LN11@GetMediaTy|
  00070	00000000	 DCD         |sudPinTypes|
  00074		 |$M55770|

			 ENDP  ; |?GetMediaType@CNullInputPin@MyNullSink@@UAAJHPAVCMediaType@@@Z|, MyNullSink::CNullInputPin::GetMediaType


  00000			 AREA	 |.pdata|, PDATA
|$T55784| DCD	|$LN5@Receive|
	DCD	0x40000200
; Function compile flags: /Ogspy

  00000			 AREA	 |.text|, CODE, ARM

  00000		 |?Receive@CNullInputPin@MyNullSink@@UAAJPAUIMediaSample@@@Z| PROC ; MyNullSink::CNullInputPin::Receive

; 228  : CNullInputPin::Receive(IMediaSample* pSample) {

  00000		 |$LN5@Receive|
  00000		 |$M55781|

; 229  : 
; 230  :     // discard the sample
; 231  :     return S_OK;

  00000	e3a00000	 mov         r0, #0

; 232  : }

  00004	e12fff1e	 bx          lr
  00008		 |$M55782|

			 ENDP  ; |?Receive@CNullInputPin@MyNullSink@@UAAJPAUIMediaSample@@@Z|, MyNullSink::CNullInputPin::Receive

; Function compile flags: /Odspy

  00000			 AREA	 |.text|, CODE, ARM

  00000		 |?QueryInterface@CNullSink@MyNullSink@@W3AAJABU_GUID@@PAPAX@Z| PROC ; [thunk]:MyNullSink::CNullSink::QueryInterface`adjustor{4}'
  00000	e2400004	 sub         r0, r0, #4
  00004	ea000000	 b           |?QueryInterface@CNullSink@MyNullSink@@UAAJABU_GUID@@PAPAX@Z|

			 ENDP  ; |?QueryInterface@CNullSink@MyNullSink@@W3AAJABU_GUID@@PAPAX@Z|, [thunk]:MyNullSink::CNullSink::QueryInterface`adjustor{4}'

; Function compile flags: /Odspy

  00000			 AREA	 |.text|, CODE, ARM

  00000		 |?QueryInterface@CBaseInputPin@@WIM@AAJABU_GUID@@PAPAX@Z| PROC ; [thunk]:CBaseInputPin::QueryInterface`adjustor{140}'
  00000	e240008c	 sub         r0, r0, #0x8C
  00004	ea000000	 b           |?QueryInterface@CBaseInputPin@@UAAJABU_GUID@@PAPAX@Z|

			 ENDP  ; |?QueryInterface@CBaseInputPin@@WIM@AAJABU_GUID@@PAPAX@Z|, [thunk]:CBaseInputPin::QueryInterface`adjustor{140}'

; Function compile flags: /Odspy

  00000			 AREA	 |.text|, CODE, ARM

  00000		 |?Release@CNullSink@MyNullSink@@W3AAKXZ| PROC ; [thunk]:MyNullSink::CNullSink::Release`adjustor{4}'
  00000	e2400004	 sub         r0, r0, #4
  00004	ea000000	 b           |?Release@CNullSink@MyNullSink@@UAAKXZ|

			 ENDP  ; |?Release@CNullSink@MyNullSink@@W3AAKXZ|, [thunk]:MyNullSink::CNullSink::Release`adjustor{4}'

; Function compile flags: /Odspy

  00000			 AREA	 |.text|, CODE, ARM

  00000		 |?Release@CBaseInputPin@@WIM@AAKXZ| PROC ; [thunk]:CBaseInputPin::Release`adjustor{140}'
  00000	e240008c	 sub         r0, r0, #0x8C
  00004	ea000000	 b           |?Release@CBaseInputPin@@UAAKXZ|

			 ENDP  ; |?Release@CBaseInputPin@@WIM@AAKXZ|, [thunk]:CBaseInputPin::Release`adjustor{140}'

; Function compile flags: /Odspy

  00000			 AREA	 |.text|, CODE, ARM

  00000		 |?AddRef@CBaseInputPin@@W3AAKXZ| PROC	; [thunk]:CBaseInputPin::AddRef`adjustor{4}'
  00000	e2400004	 sub         r0, r0, #4
  00004	ea000000	 b           |?AddRef@CBaseInputPin@@UAAKXZ|

			 ENDP  ; |?AddRef@CBaseInputPin@@W3AAKXZ|, [thunk]:CBaseInputPin::AddRef`adjustor{4}'

; Function compile flags: /Odspy

  00000			 AREA	 |.text|, CODE, ARM

  00000		 |?AddRef@CNullSink@MyNullSink@@W3AAKXZ| PROC ; [thunk]:MyNullSink::CNullSink::AddRef`adjustor{4}'
  00000	e2400004	 sub         r0, r0, #4
  00004	ea000000	 b           |?AddRef@CNullSink@MyNullSink@@UAAKXZ|

			 ENDP  ; |?AddRef@CNullSink@MyNullSink@@W3AAKXZ|, [thunk]:MyNullSink::CNullSink::AddRef`adjustor{4}'

; Function compile flags: /Odspy

  00000			 AREA	 |.text|, CODE, ARM

  00000		 |?AddRef@CBaseInputPin@@WIM@AAKXZ| PROC ; [thunk]:CBaseInputPin::AddRef`adjustor{140}'
  00000	e240008c	 sub         r0, r0, #0x8C
  00004	ea000000	 b           |?AddRef@CBaseInputPin@@UAAKXZ|

			 ENDP  ; |?AddRef@CBaseInputPin@@WIM@AAKXZ|, [thunk]:CBaseInputPin::AddRef`adjustor{140}'

; Function compile flags: /Odspy

  00000			 AREA	 |.text|, CODE, ARM

  00000		 |?QueryInterface@CBaseInputPin@@W3AAJABU_GUID@@PAPAX@Z| PROC ; [thunk]:CBaseInputPin::QueryInterface`adjustor{4}'
  00000	e2400004	 sub         r0, r0, #4
  00004	ea000000	 b           |?QueryInterface@CBaseInputPin@@UAAJABU_GUID@@PAPAX@Z|

			 ENDP  ; |?QueryInterface@CBaseInputPin@@W3AAJABU_GUID@@PAPAX@Z|, [thunk]:CBaseInputPin::QueryInterface`adjustor{4}'

; Function compile flags: /Odspy

  00000			 AREA	 |.text|, CODE, ARM

  00000		 |?Release@CBaseInputPin@@W3AAKXZ| PROC	; [thunk]:CBaseInputPin::Release`adjustor{4}'
  00000	e2400004	 sub         r0, r0, #4
  00004	ea000000	 b           |?Release@CBaseInputPin@@UAAKXZ|

			 ENDP  ; |?Release@CBaseInputPin@@W3AAKXZ|, [thunk]:CBaseInputPin::Release`adjustor{4}'

	EXPORT	|??0CNullSink@MyNullSink@@QAA@PAGPAUIUnknown@@PAJ@Z| ; MyNullSink::CNullSink::CNullSink
	EXPORT	|??_C@_1BM@PJANEIKB@?$AAC?$AAN?$AAu?$AAl?$AAl?$AAI?$AAn?$AAp?$AAu?$AAt?$AAP?$AAi?$AAn?$AA?$AA@| [ DATA ] ; `string'
	EXPORT	|??_C@_1DK@NGKIIBDH@?$AA?$CF?$AAs?$AA?3?$AA?5?$AAC?$AAN?$AAu?$AAl?$AAl?$AAS?$AAi?$AAn?$AAk?$AA?5?$AAc?$AAo?$AAn?$AAs?$AAt?$AAr?$AAu?$AAc?$AAt?$AAo?$AAr?$AA?5?$AA?$AN?$AA?6?$AA?$AA@| [ DATA ] ; `string'
	IMPORT	|??2@YAPAXI@Z|				; operator new
	IMPORT	|??0CBaseFilter@@QAA@PBGPAUIUnknown@@PAVCCritSec@@ABU_GUID@@@Z| ; CBaseFilter::CBaseFilter
; File c:\wince600\public\directx\sdk\inc\wxutil.h

  00000			 AREA	 |.pdata|, PDATA
|$T55830| DCD	|$LN16@CNullSink@2|
	DCD	0x40004202

  00000			 AREA	 |.rdata|, DATA, READONLY
|??_C@_1BM@PJANEIKB@?$AAC?$AAN?$AAu?$AAl?$AAl?$AAI?$AAn?$AAp?$AAu?$AAt?$AAP?$AAi?$AAn?$AA?$AA@| DCB "C"
	DCB	0x0, "N", 0x0, "u", 0x0, "l", 0x0, "l", 0x0, "I", 0x0, "n"
	DCB	0x0, "p", 0x0, "u", 0x0, "t", 0x0, "P", 0x0, "i", 0x0, "n"
	DCB	0x0, 0x0, 0x0				; `string'

  00000			 AREA	 |.rdata|, DATA, READONLY
|??_C@_1DK@NGKIIBDH@?$AA?$CF?$AAs?$AA?3?$AA?5?$AAC?$AAN?$AAu?$AAl?$AAl?$AAS?$AAi?$AAn?$AAk?$AA?5?$AAc?$AAo?$AAn?$AAs?$AAt?$AAr?$AAu?$AAc?$AAt?$AAo?$AAr?$AA?5?$AA?$AN?$AA?6?$AA?$AA@| DCB "%"
	DCB	0x0, "s", 0x0, ":", 0x0, " ", 0x0, "C", 0x0, "N", 0x0, "u"
	DCB	0x0, "l", 0x0, "l", 0x0, "S", 0x0, "i", 0x0, "n", 0x0, "k"
	DCB	0x0, " ", 0x0, "c", 0x0, "o", 0x0, "n", 0x0, "s", 0x0, "t"
	DCB	0x0, "r", 0x0, "u", 0x0, "c", 0x0, "t", 0x0, "o", 0x0, "r"
	DCB	0x0, " ", 0x0, 0xd, 0x0, 0xa, 0x0, 0x0, 0x0 ; `string'
; Function compile flags: /Ogspy
; File c:\wince600\platform\z2170p\src\app\nullsink\nullsink.cpp

  00000			 AREA	 |.text|, CODE, ARM

  00000		 |??0CNullSink@MyNullSink@@QAA@PAGPAUIUnknown@@PAJ@Z| PROC ; MyNullSink::CNullSink::CNullSink

; 116  : {

  00000		 |$LN16@CNullSink@2|
  00000	e92d4030	 stmdb       sp!, {r4, r5, lr}
  00004	e24dd008	 sub         sp, sp, #8
  00008		 |$M55827|
  00008	e1a05003	 mov         r5, r3
  0000c	e1a04000	 mov         r4, r0
  00010	e59fe0ec	 ldr         lr, [pc, #0xEC]
  00014	e2843050	 add         r3, r4, #0x50
  00018	e58de000	 str         lr, [sp]
  0001c	eb000000	 bl          |??0CBaseFilter@@QAA@PBGPAUIUnknown@@PAVCCritSec@@ABU_GUID@@@Z|
  00020	e59fe0d8	 ldr         lr, [pc, #0xD8]
  00024	e59f20d0	 ldr         r2, [pc, #0xD0]
  00028	e59f10c8	 ldr         r1, [pc, #0xC8]
  0002c	e2840050	 add         r0, r4, #0x50
  00030	e584e010	 str         lr, [r4, #0x10]
  00034	e5842000	 str         r2, [r4]
  00038	e584100c	 str         r1, [r4, #0xC]
  0003c	eb000000	 bl          InitializeCriticalSection

; 117  : 
; 118  :     RETAILMSG(DBGZONE_INFO, (TEXT("%s: CNullSink constructor \r\n"), APP_NAME));

  00040	e59f20ac	 ldr         r2, [pc, #0xAC]
  00044	e5922440	 ldr         r2, [r2, #0x440]
  00048	e3120001	 tst         r2, #1
  0004c	159f109c	 ldrne       r1, [pc, #0x9C]
  00050	159f0094	 ldrne       r0, [pc, #0x94]
  00054	1b000000	 blne        NKDbgPrintfW

; 119  : 
; 120  :     m_pInput = new CNullInputPin(
; 121  :         L"CNullInputPin",
; 122  :         this,
; 123  :         &m_Lock,
; 124  :         phr,
; 125  :         L"Input"
; 126  :         );

  00058	e3a000d8	 mov         r0, #0xD8
  0005c	eb000000	 bl          |??2@YAPAXI@Z|
  00060	e3500000	 cmp         r0, #0
  00064	0a000007	 beq         |$LN8@CNullSink@2|
  00068	e59f2078	 ldr         r2, [pc, #0x78]
  0006c	e59f1070	 ldr         r1, [pc, #0x70]
  00070	e2843050	 add         r3, r4, #0x50
  00074	e58d2004	 str         r2, [sp, #4]
  00078	e1a02004	 mov         r2, r4
  0007c	e58d5000	 str         r5, [sp]
  00080	eb000000	 bl          |??0CNullInputPin@MyNullSink@@QAA@PAGPAVCNullSink@1@PAVCCritSec@@PAJ0@Z|
  00084	ea000000	 b           |$LN9@CNullSink@2|
  00088		 |$LN8@CNullSink@2|
  00088	e3a00000	 mov         r0, #0
  0008c		 |$LN9@CNullSink@2|
  0008c	e5840064	 str         r0, [r4, #0x64]

; 127  : 
; 128  :     if (m_pInput && SUCCEEDED(*phr)){

  00090	e3500000	 cmp         r0, #0
  00094	0a000009	 beq         |$LN2@CNullSink@2|
  00098	e5953000	 ldr         r3, [r5]
  0009c	e3530000	 cmp         r3, #0
  000a0	aa00000b	 bge         |$LN1@CNullSink@2|

; 129  :         return;
; 130  :     }
; 131  : 
; 132  :     if (m_pInput){
; 133  :         delete m_pInput;

  000a4	e5903000	 ldr         r3, [r0]
  000a8	e3a01001	 mov         r1, #1
  000ac	e593300c	 ldr         r3, [r3, #0xC]
  000b0	e1a0e00f	 mov         lr, pc
  000b4	e12fff13	 bx          r3

; 134  :         m_pInput = NULL;

  000b8	e3a03000	 mov         r3, #0
  000bc	e5843064	 str         r3, [r4, #0x64]
  000c0		 |$LN2@CNullSink@2|

; 135  :     }
; 136  : 
; 137  :     if (SUCCEEDED(*phr)){

  000c0	e5953000	 ldr         r3, [r5]
  000c4	e3530000	 cmp         r3, #0
  000c8	a3a0313a	 movge       r3, #0x3A, 2

; 138  :         *phr = E_OUTOFMEMORY;

  000cc	a3833807	 orrge       r3, r3, #7, 16
  000d0	a5853000	 strge       r3, [r5]
  000d4		 |$LN1@CNullSink@2|

; 139  :     }
; 140  : }

  000d4	e1a00004	 mov         r0, r4
  000d8	e28dd008	 add         sp, sp, #8
  000dc	e8bd4030	 ldmia       sp!, {r4, r5, lr}
  000e0	e12fff1e	 bx          lr
  000e4		 |$LN17@CNullSink@2|
  000e4		 |$LN18@CNullSink@2|
  000e4	00000000	 DCD         |??_C@_1BM@PJANEIKB@?$AAC?$AAN?$AAu?$AAl?$AAl?$AAI?$AAn?$AAp?$AAu?$AAt?$AAP?$AAi?$AAn?$AA?$AA@|
  000e8		 |$LN19@CNullSink@2|
  000e8	00000000	 DCD         |??_C@_1M@PFCMLKBL@?$AAI?$AAn?$AAp?$AAu?$AAt?$AA?$AA@|
  000ec		 |$LN20@CNullSink@2|
  000ec	00000000	 DCD         |??_C@_1DK@NGKIIBDH@?$AA?$CF?$AAs?$AA?3?$AA?5?$AAC?$AAN?$AAu?$AAl?$AAl?$AAS?$AAi?$AAn?$AAk?$AA?5?$AAc?$AAo?$AAn?$AAs?$AAt?$AAr?$AAu?$AAc?$AAt?$AAo?$AAr?$AA?5?$AA?$AN?$AA?6?$AA?$AA@|
  000f0		 |$LN21@CNullSink@2|
  000f0	00000000	 DCD         |??_C@_1BE@JCJMHJOM@?$AAN?$AAu?$AAl?$AAl?$AA?5?$AAS?$AAi?$AAn?$AAk?$AA?$AA@|
  000f4		 |$LN22@CNullSink@2|
  000f4	00000000	 DCD         |?dpCurSettings@@3U_DBGPARAM@@A|
  000f8		 |$LN23@CNullSink@2|
  000f8	00000000	 DCD         |??_7CNullSink@MyNullSink@@6BIBaseFilter@@@|
  000fc		 |$LN24@CNullSink@2|
  000fc	00000000	 DCD         |??_7CNullSink@MyNullSink@@6BCUnknown@@@|
  00100		 |$LN25@CNullSink@2|
  00100	00000000	 DCD         |??_7CNullSink@MyNullSink@@6BIAMovieSetup@@@|
  00104		 |$LN26@CNullSink@2|
  00104	00000000	 DCD         |CLSID_NullSink|
  00108		 |$M55828|

			 ENDP  ; |??0CNullSink@MyNullSink@@QAA@PAGPAUIUnknown@@PAJ@Z|, MyNullSink::CNullSink::CNullSink

	IMPORT	|??3@YAXPAX@Z|				; operator delete

  00000			 AREA	 |.pdata|, PDATA
|$T55851| DCD	|$LN6@scalar|
	DCD	0x40000a01
; Function compile flags: /Ogspy

  00000			 AREA	 |.text|, CODE, ARM

  00000		 |??_GCNullSink@MyNullSink@@UAAPAXI@Z| PROC ; MyNullSink::CNullSink::`scalar deleting destructor'
  00000		 |$LN6@scalar|
  00000	e92d4030	 stmdb       sp!, {r4, r5, lr}
  00004		 |$M55848|
  00004	e1a04001	 mov         r4, r1
  00008	e1a05000	 mov         r5, r0
  0000c	eb000000	 bl          |??1CNullSink@MyNullSink@@UAA@XZ|
  00010	e3140001	 tst         r4, #1
  00014	11a00005	 movne       r0, r5
  00018	1b000000	 blne        |??3@YAXPAX@Z|
  0001c	e1a00005	 mov         r0, r5
  00020	e8bd4030	 ldmia       sp!, {r4, r5, lr}
  00024	e12fff1e	 bx          lr
  00028		 |$M55849|

			 ENDP  ; |??_GCNullSink@MyNullSink@@UAAPAXI@Z|, MyNullSink::CNullSink::`scalar deleting destructor'


  00000			 AREA	 |.pdata|, PDATA
|$T55862| DCD	|$LN6@scalar@2|
	DCD	0x40000a01
; Function compile flags: /Ogspy

  00000			 AREA	 |.text|, CODE, ARM

  00000		 |??_GCNullInputPin@MyNullSink@@UAAPAXI@Z| PROC ; MyNullSink::CNullInputPin::`scalar deleting destructor'
  00000		 |$LN6@scalar@2|
  00000	e92d4030	 stmdb       sp!, {r4, r5, lr}
  00004		 |$M55859|
  00004	e1a04001	 mov         r4, r1
  00008	e1a05000	 mov         r5, r0
  0000c	eb000000	 bl          |??1CNullInputPin@MyNullSink@@UAA@XZ|
  00010	e3140001	 tst         r4, #1
  00014	11a00005	 movne       r0, r5
  00018	1b000000	 blne        |??3@YAXPAX@Z|
  0001c	e1a00005	 mov         r0, r5
  00020	e8bd4030	 ldmia       sp!, {r4, r5, lr}
  00024	e12fff1e	 bx          lr
  00028		 |$M55860|

			 ENDP  ; |??_GCNullInputPin@MyNullSink@@UAAPAXI@Z|, MyNullSink::CNullInputPin::`scalar deleting destructor'

	EXPORT	|??_C@_1GM@CJKMJPNI@?$AA?$CF?$AAs?$AA?3?$AA?5?$AAC?$AAN?$AAu?$AAl?$AAl?$AAS?$AAi?$AAn?$AAk?$AA?3?$AA?3?$AAC?$AAr?$AAe?$AAa?$AAt?$AAe?$AAI?$AAn?$AAs?$AAt?$AAa?$AAn?$AAc?$AAe?$AA?5?$AAo?$AAb@| [ DATA ] ; `string'
	EXPORT	|??_C@_1GC@LAPLPIGE@?$AA?$CF?$AAs?$AA?3?$AA?5?$AAC?$AAa?$AAn?$AAn?$AAo?$AAt?$AA?5?$AAc?$AAr?$AAe?$AAa?$AAt?$AAe?$AA?5?$AAC?$AAN?$AAu?$AAl?$AAl?$AAS?$AAi?$AAn?$AAk?$AA?5?$AAo?$AAb?$AAj?$AAe@| [ DATA ] ; `string'
	EXPORT	|??_C@_1BC@FGFFJLCK@?$AAN?$AAu?$AAl?$AAl?$AAS?$AAi?$AAn?$AAk?$AA?$AA@| [ DATA ] ; `string'

  00000			 AREA	 |.bss|, NOINIT
|?hr@?1??CreateInstance@CNullSink@MyNullSink@@SAPAVCUnknown@@PAUIUnknown@@PAJ@Z@4JA| % 0x4 ; `MyNullSink::CNullSink::CreateInstance'::`2'::hr

  00000			 AREA	 |.pdata|, PDATA
|$T55882| DCD	|$LN13@CreateInst|
	DCD	0x40002c01

  00000			 AREA	 |.rdata|, DATA, READONLY
|??_C@_1GM@CJKMJPNI@?$AA?$CF?$AAs?$AA?3?$AA?5?$AAC?$AAN?$AAu?$AAl?$AAl?$AAS?$AAi?$AAn?$AAk?$AA?3?$AA?3?$AAC?$AAr?$AAe?$AAa?$AAt?$AAe?$AAI?$AAn?$AAs?$AAt?$AAa?$AAn?$AAc?$AAe?$AA?5?$AAo?$AAb@| DCB "%"
	DCB	0x0, "s", 0x0, ":", 0x0, " ", 0x0, "C", 0x0, "N", 0x0, "u"
	DCB	0x0, "l", 0x0, "l", 0x0, "S", 0x0, "i", 0x0, "n", 0x0, "k"
	DCB	0x0, ":", 0x0, ":", 0x0, "C", 0x0, "r", 0x0, "e", 0x0, "a"
	DCB	0x0, "t", 0x0, "e", 0x0, "I", 0x0, "n", 0x0, "s", 0x0, "t"
	DCB	0x0, "a", 0x0, "n", 0x0, "c", 0x0, "e", 0x0, " ", 0x0, "o"
	DCB	0x0, "b", 0x0, "j", 0x0, "=", 0x0, "0", 0x0, "x", 0x0, "%"
	DCB	0x0, "0", 0x0, "8", 0x0, "X", 0x0, " ", 0x0, "h", 0x0, "r"
	DCB	0x0, "=", 0x0, "0", 0x0, "x", 0x0, "%", 0x0, "0", 0x0, "8"
	DCB	0x0, "X", 0x0, " ", 0x0, 0xd, 0x0, 0xa, 0x0, 0x0, 0x0 ; `string'

  00000			 AREA	 |.rdata|, DATA, READONLY
|??_C@_1GC@LAPLPIGE@?$AA?$CF?$AAs?$AA?3?$AA?5?$AAC?$AAa?$AAn?$AAn?$AAo?$AAt?$AA?5?$AAc?$AAr?$AAe?$AAa?$AAt?$AAe?$AA?5?$AAC?$AAN?$AAu?$AAl?$AAl?$AAS?$AAi?$AAn?$AAk?$AA?5?$AAo?$AAb?$AAj?$AAe@| DCB "%"
	DCB	0x0, "s", 0x0, ":", 0x0, " ", 0x0, "C", 0x0, "a", 0x0, "n"
	DCB	0x0, "n", 0x0, "o", 0x0, "t", 0x0, " ", 0x0, "c", 0x0, "r"
	DCB	0x0, "e", 0x0, "a", 0x0, "t", 0x0, "e", 0x0, " ", 0x0, "C"
	DCB	0x0, "N", 0x0, "u", 0x0, "l", 0x0, "l", 0x0, "S", 0x0, "i"
	DCB	0x0, "n", 0x0, "k", 0x0, " ", 0x0, "o", 0x0, "b", 0x0, "j"
	DCB	0x0, "e", 0x0, "c", 0x0, "t", 0x0, ",", 0x0, " ", 0x0, "h"
	DCB	0x0, "r", 0x0, "=", 0x0, "0", 0x0, "x", 0x0, "%", 0x0, "0"
	DCB	0x0, "8", 0x0, "X", 0x0, " ", 0x0, 0xd, 0x0, 0xa, 0x0, 0x0
	DCB	0x0					; `string'

  00000			 AREA	 |.rdata|, DATA, READONLY
|??_C@_1BC@FGFFJLCK@?$AAN?$AAu?$AAl?$AAl?$AAS?$AAi?$AAn?$AAk?$AA?$AA@| DCB "N"
	DCB	0x0, "u", 0x0, "l", 0x0, "l", 0x0, "S", 0x0, "i", 0x0, "n"
	DCB	0x0, "k", 0x0, 0x0, 0x0			; `string'
; Function compile flags: /Ogspy

  00000			 AREA	 |.text|, CODE, ARM

  00000		 |?CreateInstance@CNullSink@MyNullSink@@SAPAVCUnknown@@PAUIUnknown@@PAJ@Z| PROC ; MyNullSink::CNullSink::CreateInstance

; 99   : CNullSink::CreateInstance(LPUNKNOWN punk, HRESULT *phr) {

  00000		 |$LN13@CreateInst|
  00000	e92d40f0	 stmdb       sp!, {r4 - r7, lr}
  00004		 |$M55879|
  00004	e1b05001	 movs        r5, r1
  00008	e1a04000	 mov         r4, r0

; 100  :     static HRESULT hr = S_OK;
; 101  :     if (!phr)

  0000c	e59f6098	 ldr         r6, [pc, #0x98]

; 102  :         phr = &hr;
; 103  :     CNullSink *pNewObject = new CNullSink(L"NullSink", punk, phr);

  00010	e3a00068	 mov         r0, #0x68
  00014	01a05006	 moveq       r5, r6
  00018	eb000000	 bl          |??2@YAPAXI@Z|
  0001c	e3500000	 cmp         r0, #0
  00020	0a000005	 beq         |$LN5@CreateInst|
  00024	e59f107c	 ldr         r1, [pc, #0x7C]
  00028	e1a03005	 mov         r3, r5
  0002c	e1a02004	 mov         r2, r4
  00030	eb000000	 bl          |??0CNullSink@MyNullSink@@QAA@PAGPAUIUnknown@@PAJ@Z|
  00034	e1a04000	 mov         r4, r0
  00038	ea000000	 b           |$LN6@CreateInst|
  0003c		 |$LN5@CreateInst|
  0003c	e3a04000	 mov         r4, #0
  00040		 |$LN6@CreateInst|

; 104  :     if (pNewObject == NULL) {

  00040	e59f705c	 ldr         r7, [pc, #0x5C]
  00044	e3540000	 cmp         r4, #0
  00048	1a000008	 bne         |$LN1@CreateInst|

; 105  :         RETAILMSG(DBGZONE_INFO, (TEXT("%s: Cannot create CNullSink object, hr=0x%08X \r\n"), APP_NAME, hr));

  0004c	e5973440	 ldr         r3, [r7, #0x440]
  00050	e3130001	 tst         r3, #1
  00054	15962000	 ldrne       r2, [r6]
  00058	159f0040	 ldrne       r0, [pc, #0x40]
  0005c	159f1034	 ldrne       r1, [pc, #0x34]
  00060	1b000000	 blne        NKDbgPrintfW
  00064	e3a0313a	 mov         r3, #0x3A, 2

; 106  :         *phr = E_OUTOFMEMORY;

  00068	e3833807	 orr         r3, r3, #7, 16
  0006c	e5853000	 str         r3, [r5]
  00070		 |$LN1@CreateInst|

; 107  :     }
; 108  :     
; 109  :     RETAILMSG(DBGZONE_INFO, (TEXT("%s: CNullSink::CreateInstance obj=0x%08X hr=0x%08X \r\n"), 
; 110  :         APP_NAME, pNewObject, *phr));

  00070	e5973440	 ldr         r3, [r7, #0x440]
  00074	e3130001	 tst         r3, #1
  00078	15953000	 ldrne       r3, [r5]
  0007c	159f0018	 ldrne       r0, [pc, #0x18]
  00080	159f1010	 ldrne       r1, [pc, #0x10]
  00084	11a02004	 movne       r2, r4
  00088	1b000000	 blne        NKDbgPrintfW

; 111  :     return pNewObject;
; 112  : }

  0008c	e1a00004	 mov         r0, r4
  00090	e8bd40f0	 ldmia       sp!, {r4 - r7, lr}
  00094	e12fff1e	 bx          lr
  00098		 |$LN14@CreateInst|
  00098		 |$LN15@CreateInst|
  00098	00000000	 DCD         |??_C@_1BE@JCJMHJOM@?$AAN?$AAu?$AAl?$AAl?$AA?5?$AAS?$AAi?$AAn?$AAk?$AA?$AA@|
  0009c		 |$LN16@CreateInst|
  0009c	00000000	 DCD         |??_C@_1GM@CJKMJPNI@?$AA?$CF?$AAs?$AA?3?$AA?5?$AAC?$AAN?$AAu?$AAl?$AAl?$AAS?$AAi?$AAn?$AAk?$AA?3?$AA?3?$AAC?$AAr?$AAe?$AAa?$AAt?$AAe?$AAI?$AAn?$AAs?$AAt?$AAa?$AAn?$AAc?$AAe?$AA?5?$AAo?$AAb@|
  000a0		 |$LN17@CreateInst|
  000a0	00000000	 DCD         |??_C@_1GC@LAPLPIGE@?$AA?$CF?$AAs?$AA?3?$AA?5?$AAC?$AAa?$AAn?$AAn?$AAo?$AAt?$AA?5?$AAc?$AAr?$AAe?$AAa?$AAt?$AAe?$AA?5?$AAC?$AAN?$AAu?$AAl?$AAl?$AAS?$AAi?$AAn?$AAk?$AA?5?$AAo?$AAb?$AAj?$AAe@|
  000a4		 |$LN18@CreateInst|
  000a4	00000000	 DCD         |?dpCurSettings@@3U_DBGPARAM@@A|
  000a8		 |$LN19@CreateInst|
  000a8	00000000	 DCD         |??_C@_1BC@FGFFJLCK@?$AAN?$AAu?$AAl?$AAl?$AAS?$AAi?$AAn?$AAk?$AA?$AA@|
  000ac		 |$LN20@CreateInst|
  000ac	00000000	 DCD         |?hr@?1??CreateInstance@CNullSink@MyNullSink@@SAPAVCUnknown@@PAUIUnknown@@PAJ@Z@4JA|
  000b0		 |$M55880|

			 ENDP  ; |?CreateInstance@CNullSink@MyNullSink@@SAPAVCUnknown@@PAUIUnknown@@PAJ@Z|, MyNullSink::CNullSink::CreateInstance

	END
