; Listing generated by Microsoft (R) Optimizing Compiler Version 14.01.60511.01 

	TTL	C:\WINCE600\PLATFORM\COMMON\SRC\SOC\COMMON_TI_V1\COMMON_TI\OAL\OMAP_IOCTL\reboot.c
	CODE32

  00000			 AREA	 |.drectve|, DRECTVE
	DCB	"-defaultlib:LIBCMT "
	DCB	"-defaultlib:OLDNAMES "


  00000			 AREA	 |.rdata|, DATA, READONLY
|EdbgVendorIds| DCW 0x0
	DCW	0x0
	DCD	0x4033
	DCB	0x1
	DCB	"AD", 0x0
	DCW	0x1050
	DCW	0x940
	DCD	0x4005
	DCB	0x1
	DCB	"LS", 0x0
	DCW	0x1050
	DCW	0x940
	DCD	0x2078
	DCB	0x1
	DCB	"LS", 0x0
	DCW	0x10ec
	DCW	0x8029
	DCD	0xc0f0
	DCB	0x1
	DCB	"KS", 0x0
	DCW	0x10ec
	DCW	0x8129
	DCD	0x0
	DCB	0x4
	DCB	"RT", 0x0
	DCW	0x10ec
	DCW	0x8139
	DCD	0x900b
	DCB	0x4
	DCB	"RT", 0x0
	DCW	0x10ec
	DCW	0x8139
	DCD	0xd0c9
	DCB	0x4
	DCB	"RT", 0x0
	DCW	0x10ec
	DCW	0x8139
	DCD	0xe04c
	DCB	0x4
	DCB	"RT", 0x0
	DCW	0x1186
	DCW	0x1300
	DCD	0x50ba
	DCB	0x4
	DCB	"DL", 0x0
	DCW	0x100b
	DCW	0x20
	DCD	0xa0cc
	DCB	0x5
	DCB	"NG", 0x0
	DCW	0x10b7
	DCW	0x9050
	DCD	0x6008
	DCB	0x6
	DCB	"3C", 0x0
	DCW	0x10b7
	DCW	0x9200
	DCD	0x476
	DCB	0x6
	DCB	"3C", 0x0
	EXPORT	|OALIoCtlHalReboot|
	EXPORT	|??_C@_1CK@MAHBEPGM@?$AA?9?$AAO?$AAA?$AAL?$AAI?$AAo?$AAC?$AAt?$AAl?$AAH?$AAa?$AAl?$AAR?$AAe?$AAb?$AAo?$AAo?$AAt?$AA?$AN?$AA?6?$AA?$AA@| [ DATA ] ; `string'
	EXPORT	|??_C@_1CA@PEBMPEHG@?$AA?$CK?$AA?$CK?$AA?$CK?$AA?5?$AAR?$AAE?$AAS?$AAE?$AAT?$AA?5?$AA?$CK?$AA?$CK?$AA?$CK?$AA?$AN?$AA?6?$AA?$AA@| [ DATA ] ; `string'
	EXPORT	|??_C@_1CK@LAAGFJIK@?$AA?$CL?$AAO?$AAA?$AAL?$AAI?$AAo?$AAC?$AAt?$AAl?$AAH?$AAa?$AAl?$AAR?$AAe?$AAb?$AAo?$AAo?$AAt?$AA?$AN?$AA?6?$AA?$AA@| [ DATA ] ; `string'
	IMPORT	|PrcmGlobalReset|
	IMPORT	|OEMCacheRangeFlush|
	IMPORT	|g_pContextRestore|
	IMPORT	|KITLIoctl|
	IMPORT	|NKDbgPrintfW|
	IMPORT	|dpCurSettings|
; File c:\wince600\platform\common\src\soc\common_ti_v1\common_ti\oal\omap_ioctl\reboot.c

  00000			 AREA	 |.pdata|, PDATA
|$T45342| DCD	|$LN9@OALIoCtlHa|
	DCD	0x40003902

  00000			 AREA	 |.rdata|, DATA, READONLY
|??_C@_1CK@MAHBEPGM@?$AA?9?$AAO?$AAA?$AAL?$AAI?$AAo?$AAC?$AAt?$AAl?$AAH?$AAa?$AAl?$AAR?$AAe?$AAb?$AAo?$AAo?$AAt?$AA?$AN?$AA?6?$AA?$AA@| DCB "-"
	DCB	0x0, "O", 0x0, "A", 0x0, "L", 0x0, "I", 0x0, "o", 0x0, "C"
	DCB	0x0, "t", 0x0, "l", 0x0, "H", 0x0, "a", 0x0, "l", 0x0, "R"
	DCB	0x0, "e", 0x0, "b", 0x0, "o", 0x0, "o", 0x0, "t", 0x0, 0xd
	DCB	0x0, 0xa, 0x0, 0x0, 0x0			; `string'

  00000			 AREA	 |.rdata|, DATA, READONLY
|??_C@_1CA@PEBMPEHG@?$AA?$CK?$AA?$CK?$AA?$CK?$AA?5?$AAR?$AAE?$AAS?$AAE?$AAT?$AA?5?$AA?$CK?$AA?$CK?$AA?$CK?$AA?$AN?$AA?6?$AA?$AA@| DCB "*"
	DCB	0x0, "*", 0x0, "*", 0x0, " ", 0x0, "R", 0x0, "E", 0x0, "S"
	DCB	0x0, "E", 0x0, "T", 0x0, " ", 0x0, "*", 0x0, "*", 0x0, "*"
	DCB	0x0, 0xd, 0x0, 0xa, 0x0, 0x0, 0x0	; `string'

  00000			 AREA	 |.rdata|, DATA, READONLY
|??_C@_1CK@LAAGFJIK@?$AA?$CL?$AAO?$AAA?$AAL?$AAI?$AAo?$AAC?$AAt?$AAl?$AAH?$AAa?$AAl?$AAR?$AAe?$AAb?$AAo?$AAo?$AAt?$AA?$AN?$AA?6?$AA?$AA@| DCB "+"
	DCB	0x0, "O", 0x0, "A", 0x0, "L", 0x0, "I", 0x0, "o", 0x0, "C"
	DCB	0x0, "t", 0x0, "l", 0x0, "H", 0x0, "a", 0x0, "l", 0x0, "R"
	DCB	0x0, "e", 0x0, "b", 0x0, "o", 0x0, "o", 0x0, "t", 0x0, 0xd
	DCB	0x0, 0xa, 0x0, 0x0, 0x0			; `string'
; Function compile flags: /Ogspy

  00000			 AREA	 |.text|, CODE, ARM

  00000		 |OALIoCtlHalReboot| PROC

; 39   : {    

  00000		 |$LN9@OALIoCtlHa|
  00000	e92d4030	 stmdb       sp!, {r4, r5, lr}
  00004	e24dd00c	 sub         sp, sp, #0xC
  00008		 |$M45339|

; 40   :     BOOL    bPowerOn = FALSE;
; 41   : 
; 42   :     UNREFERENCED_PARAMETER(inpSize);
; 43   :     UNREFERENCED_PARAMETER(pInpBuffer);
; 44   :     UNREFERENCED_PARAMETER(code);
; 45   :     UNREFERENCED_PARAMETER(pOutSize);
; 46   :     UNREFERENCED_PARAMETER(outSize);
; 47   :     UNREFERENCED_PARAMETER(pOutBuffer);
; 48   : 
; 49   :     OALMSG(OAL_IOCTL&&OAL_FUNC, (L"+OALIoCtlHalReboot\r\n"));

  00008	e59f40d0	 ldr         r4, [pc, #0xD0]
  0000c	e3a03000	 mov         r3, #0
  00010	e58d3008	 str         r3, [sp, #8]
  00014	e5943440	 ldr         r3, [r4, #0x440]
  00018	e3130a01	 tst         r3, #1, 20
  0001c	13130004	 tstne       r3, #4
  00020	159f00b4	 ldrne       r0, [pc, #0xB4]
  00024	1b000000	 blne        NKDbgPrintfW

; 50   : 
; 51   :     // Perform a global SW reset
; 52   :     OALMSG(TRUE, (L"*** RESET ***\r\n"));

  00028	e59f00a8	 ldr         r0, [pc, #0xA8]
  0002c	eb000000	 bl          NKDbgPrintfW

; 53   : 
; 54   :     // Disable KITL
; 55   : #if (_WINCEOSVER<600)
; 56   :     OALKitlPowerOff();
; 57   : #else    
; 58   :     KITLIoctl(IOCTL_KITL_POWER_CALL, &bPowerOn, sizeof(bPowerOn), NULL, 0, NULL);    

  00030	e59f009c	 ldr         r0, [pc, #0x9C]
  00034	e3a05000	 mov         r5, #0
  00038	e3a03000	 mov         r3, #0
  0003c	e3a02004	 mov         r2, #4
  00040	e28d1008	 add         r1, sp, #8
  00044	e58d5004	 str         r5, [sp, #4]
  00048	e58d5000	 str         r5, [sp]
  0004c	eb000000	 bl          KITLIoctl

; 59   : #endif
; 60   : 
; 61   :     // Clear context registers
; 62   :     OUTREG32(&g_pContextRestore->BOOT_CONFIG_ADDR, 0);

  00050	e59fe078	 ldr         lr, [pc, #0x78]

; 63   :     OUTREG32(&g_pContextRestore->PUBLIC_RESTORE_ADDR, 0);
; 64   :     OUTREG32(&g_pContextRestore->SECURE_SRAM_RESTORE_ADDR, 0);
; 65   :     OUTREG32(&g_pContextRestore->SDRC_MODULE_SEMAPHORE, 0);
; 66   :     OUTREG32(&g_pContextRestore->PRCM_BLOCK_OFFSET, 0);
; 67   :     OUTREG32(&g_pContextRestore->SDRC_BLOCK_OFFSET, 0);
; 68   :     OUTREG32(&g_pContextRestore->OEM_CPU_INFO_DATA_PA, 0);
; 69   :     OUTREG32(&g_pContextRestore->OEM_CPU_INFO_DATA_VA, 0);
; 70   : 
; 71   :     // Flush the cache
; 72   :     OEMCacheRangeFlush( NULL, 0, CACHE_SYNC_ALL );

  00054	e3a0207f	 mov         r2, #0x7F
  00058	e3a01000	 mov         r1, #0
  0005c	e59e3000	 ldr         r3, [lr]
  00060	e3a00000	 mov         r0, #0
  00064	e5835000	 str         r5, [r3]
  00068	e59e3000	 ldr         r3, [lr]
  0006c	e5835004	 str         r5, [r3, #4]
  00070	e59e3000	 ldr         r3, [lr]
  00074	e5835008	 str         r5, [r3, #8]
  00078	e59e3000	 ldr         r3, [lr]
  0007c	e583500c	 str         r5, [r3, #0xC]
  00080	e59e3000	 ldr         r3, [lr]
  00084	e5835010	 str         r5, [r3, #0x10]
  00088	e59e3000	 ldr         r3, [lr]
  0008c	e5835014	 str         r5, [r3, #0x14]
  00090	e59e3000	 ldr         r3, [lr]
  00094	e583501c	 str         r5, [r3, #0x1C]
  00098	e59e3000	 ldr         r3, [lr]
  0009c	e5835020	 str         r5, [r3, #0x20]
  000a0	eb000000	 bl          OEMCacheRangeFlush

; 73   : 
; 74   :     // Do warm reset
; 75   :     PrcmGlobalReset();

  000a4	eb000000	 bl          PrcmGlobalReset

; 76   : 
; 77   :     // Should never get to this point...
; 78   :     OALMSG(OAL_IOCTL&&OAL_FUNC, (L"-OALIoCtlHalReboot\r\n"));

  000a8	e5943440	 ldr         r3, [r4, #0x440]
  000ac	e3130a01	 tst         r3, #1, 20
  000b0	13130004	 tstne       r3, #4
  000b4	159f0010	 ldrne       r0, [pc, #0x10]
  000b8	1b000000	 blne        NKDbgPrintfW

; 79   : 
; 80   :     return TRUE;

  000bc	e3a00001	 mov         r0, #1

; 81   : }

  000c0	e28dd00c	 add         sp, sp, #0xC
  000c4	e8bd4030	 ldmia       sp!, {r4, r5, lr}
  000c8	e12fff1e	 bx          lr
  000cc		 |$LN10@OALIoCtlHa|
  000cc		 |$LN11@OALIoCtlHa|
  000cc	00000000	 DCD         |??_C@_1CK@MAHBEPGM@?$AA?9?$AAO?$AAA?$AAL?$AAI?$AAo?$AAC?$AAt?$AAl?$AAH?$AAa?$AAl?$AAR?$AAe?$AAb?$AAo?$AAo?$AAt?$AA?$AN?$AA?6?$AA?$AA@|
  000d0		 |$LN12@OALIoCtlHa|
  000d0	00000000	 DCD         |g_pContextRestore|
  000d4		 |$LN13@OALIoCtlHa|
  000d4	01010144	 DCD         0x1010144
  000d8		 |$LN14@OALIoCtlHa|
  000d8	00000000	 DCD         |??_C@_1CA@PEBMPEHG@?$AA?$CK?$AA?$CK?$AA?$CK?$AA?5?$AAR?$AAE?$AAS?$AAE?$AAT?$AA?5?$AA?$CK?$AA?$CK?$AA?$CK?$AA?$AN?$AA?6?$AA?$AA@|
  000dc		 |$LN15@OALIoCtlHa|
  000dc	00000000	 DCD         |??_C@_1CK@LAAGFJIK@?$AA?$CL?$AAO?$AAA?$AAL?$AAI?$AAo?$AAC?$AAt?$AAl?$AAH?$AAa?$AAl?$AAR?$AAe?$AAb?$AAo?$AAo?$AAt?$AA?$AN?$AA?6?$AA?$AA@|
  000e0		 |$LN16@OALIoCtlHa|
  000e0	00000000	 DCD         |dpCurSettings|
  000e4		 |$M45340|

			 ENDP  ; |OALIoCtlHalReboot|

	END
