; Listing generated by Microsoft (R) Optimizing Compiler Version 14.01.60511.01 

	TTL	C:\WINCE600\PLATFORM\Z2170P\SRC\APP\SampleGrabber\SampleGrabber.cpp
	CODE32

  00000			 AREA	 |.drectve|, DRECTVE
	DCB	"-defaultlib:LIBCMT "
	DCB	"-defaultlib:OLDNAMES "

	EXPORT	|?CreateInstance@CSampleGrabber@@SAPAVCUnknown@@PAUIUnknown@@PAJ@Z| ; CSampleGrabber::CreateInstance
	EXPORT	|??_C@_1BM@OEMAOINM@?$AAS?$AAa?$AAm?$AAp?$AAl?$AAe?$AAG?$AAr?$AAa?$AAb?$AAb?$AAe?$AAr?$AA?$AA@| [ DATA ] ; `string'
	EXPORT	|??_C@_1BI@MLPJODKF@?$AAV?$AAi?$AAd?$AAe?$AAo?$AAO?$AAu?$AAt?$AAp?$AAu?$AAt?$AA?$AA@| [ DATA ] ; `string'
	EXPORT	|??_C@_1BG@JFBCJHGD@?$AAV?$AAi?$AAd?$AAe?$AAo?$AAI?$AAn?$AAp?$AAu?$AAt?$AA?$AA@| [ DATA ] ; `string'
	EXPORT	|CLSID_SampleGrabber| [ DATA ]
	EXPORT	|IID_ISampleGrabber| [ DATA ]
	EXPORT	|?g_Templates@@3PAVCFactoryTemplate@@A| [ DATA ] ; g_Templates
	EXPORT	|?g_cTemplates@@3HA| [ DATA ]		; g_cTemplates
	EXPORT	|?dpCurSettings@@3U_DBGPARAM@@A| [ DATA ] ; dpCurSettings
	IMPORT	|GUID_NULL|
	IMPORT	|MEDIASUBTYPE_YUY2|
	IMPORT	|MEDIASUBTYPE_UYVY|
	IMPORT	|MEDIATYPE_Video|

  00000			 AREA	 |.data|, DATA
|?g_Templates@@3PAVCFactoryTemplate@@A| DCD |??_C@_1BM@OEMAOINM@?$AAS?$AAa?$AAm?$AAp?$AAl?$AAe?$AAG?$AAr?$AAa?$AAb?$AAb?$AAe?$AAr?$AA?$AA@| ; g_Templates
	DCD	|CLSID_SampleGrabber|
	DCD	|?CreateInstance@CSampleGrabber@@SAPAVCUnknown@@PAUIUnknown@@PAJ@Z|
	DCD	0x0
	DCD	|sudSampleGrabber|
|?g_cTemplates@@3HA| DCD 0x1				; g_cTemplates
|?dpCurSettings@@3U_DBGPARAM@@A| DCB "S", 0x0, "a", 0x0, "m", 0x0, "p", 0x0
	DCB	"l", 0x0, "e", 0x0, " ", 0x0, "G", 0x0, "r", 0x0, "a", 0x0
	DCB	"b", 0x0, "b", 0x0, "e", 0x0, "r", 0x0, " ", 0x0, "F", 0x0
	DCB	"i", 0x0, "l", 0x0, "t", 0x0, "e", 0x0, "r", 0x0, " ", 0x0
	DCB	"D", 0x0, "L", 0x0, "L", 0x0, 0x0, 0x0	; dpCurSettings
	%	12
	DCB	"I", 0x0, "n", 0x0, "f", 0x0, "o", 0x0, 0x0, 0x0
	%	54
	DCB	"S", 0x0, "t", 0x0, "a", 0x0, "t", 0x0, "s", 0x0, 0x0, 0x0
	%	52
	DCB	"W", 0x0, "a", 0x0, "r", 0x0, "n", 0x0, "i", 0x0, "n", 0x0
	DCB	"g", 0x0, 0x0, 0x0
	%	48
	DCB	"E", 0x0, "r", 0x0, "r", 0x0, "o", 0x0, "r", 0x0, 0x0, 0x0
	%	52
	DCW	0x0
	DCW	0x0
	DCW	0x0
	DCW	0x0
	DCW	0x0
	DCW	0x0
	DCW	0x0
	DCW	0x0
	DCW	0x0
	DCW	0x0
	DCW	0x0
	DCW	0x0
	%	744
	DCD	0xe

  00000			 AREA	 |.rdata|, DATA, READONLY
|??_C@_1BM@OEMAOINM@?$AAS?$AAa?$AAm?$AAp?$AAl?$AAe?$AAG?$AAr?$AAa?$AAb?$AAb?$AAe?$AAr?$AA?$AA@| DCB "S"
	DCB	0x0, "a", 0x0, "m", 0x0, "p", 0x0, "l", 0x0, "e", 0x0, "G"
	DCB	0x0, "r", 0x0, "a", 0x0, "b", 0x0, "b", 0x0, "e", 0x0, "r"
	DCB	0x0, 0x0, 0x0				; `string'

  00000			 AREA	 |.rdata|, DATA, READONLY
|??_C@_1BI@MLPJODKF@?$AAV?$AAi?$AAd?$AAe?$AAo?$AAO?$AAu?$AAt?$AAp?$AAu?$AAt?$AA?$AA@| DCB "V"
	DCB	0x0, "i", 0x0, "d", 0x0, "e", 0x0, "o", 0x0, "O", 0x0, "u"
	DCB	0x0, "t", 0x0, "p", 0x0, "u", 0x0, "t", 0x0, 0x0, 0x0 ; `string'

  00000			 AREA	 |.rdata|, DATA, READONLY
|??_C@_1BG@JFBCJHGD@?$AAV?$AAi?$AAd?$AAe?$AAo?$AAI?$AAn?$AAp?$AAu?$AAt?$AA?$AA@| DCB "V"
	DCB	0x0, "i", 0x0, "d", 0x0, "e", 0x0, "o", 0x0, "I", 0x0, "n"
	DCB	0x0, "p", 0x0, "u", 0x0, "t", 0x0, 0x0, 0x0 ; `string'

  00000			 AREA	 |.rdata|, DATA, READONLY
|CLSID_SampleGrabber| DCD 0xad5db5b4
	DCW	0xd1ab
	DCW	0x4f37
	DCB	0xa6
	DCB	0xd
	DCB	0x21
	DCB	0x51
	DCB	0x54
	DCB	0xb4
	DCB	0xec
	DCB	0xc1
|IID_ISampleGrabber| DCD 0x4951bff
	DCW	0x696a
	DCW	0x4ade
	DCB	0x82
	DCB	0x8d
	DCB	0x42
	DCB	0xa5
	DCB	0xf1
	DCB	0xed
	DCB	0xb6
	DCB	0x31
|sudPinTypes| DCD |MEDIATYPE_Video|
	DCD	|MEDIASUBTYPE_UYVY|
	DCD	|MEDIATYPE_Video|
	DCD	|MEDIASUBTYPE_YUY2|
|sudpPins| DCD	|??_C@_1BG@JFBCJHGD@?$AAV?$AAi?$AAd?$AAe?$AAo?$AAI?$AAn?$AAp?$AAu?$AAt?$AA?$AA@|
	DCD	0x0
	DCD	0x0
	DCD	0x0
	DCD	0x0
	DCD	|GUID_NULL|
	DCD	0x0
	DCD	0x2
	DCD	|sudPinTypes|
	DCD	|??_C@_1BI@MLPJODKF@?$AAV?$AAi?$AAd?$AAe?$AAo?$AAO?$AAu?$AAt?$AAp?$AAu?$AAt?$AA?$AA@|
	DCD	0x0
	DCD	0x1
	DCD	0x0
	DCD	0x0
	DCD	|GUID_NULL|
	DCD	0x0
	DCD	0x2
	DCD	|sudPinTypes|
|sudSampleGrabber| DCD |CLSID_SampleGrabber|
	DCD	|??_C@_1BM@OEMAOINM@?$AAS?$AAa?$AAm?$AAp?$AAl?$AAe?$AAG?$AAr?$AAa?$AAb?$AAb?$AAe?$AAr?$AA?$AA@|
	DCD	0x200000
	DCD	0x2
	DCD	|sudpPins|
	EXPORT	|??8@YAHABU_GUID@@0@Z|			; operator==
	IMPORT	|memcmp|
; File c:\wince600\public\common\sdk\inc\objbase.h

  00000			 AREA	 |.pdata|, PDATA
|$T55832| DCD	|$LN7@operator|
	DCD	0x40000901
; Function compile flags: /Ogspy

  00000			 AREA	 |.text|, CODE, ARM

  00000		 |??8@YAHABU_GUID@@0@Z| PROC		; operator==

; 516  : {

  00000		 |$LN7@operator|
  00000	e52de004	 str         lr, [sp, #-4]!
  00004		 |$M55829|

; 517  : #ifdef _WIN32
; 518  :     return !memcmp(&guidOne,&guidOther,sizeof(GUID));

  00004	e3a02010	 mov         r2, #0x10
  00008	eb000000	 bl          memcmp
  0000c	e3500000	 cmp         r0, #0
  00010	03a00001	 moveq       r0, #1

; 519  : #else
; 520  :     return !_fmemcmp(&guidOne,&guidOther,sizeof(GUID)); }
; 521  : #endif
; 522  : }

  00014	049de004	 ldreq       lr, [sp], #4

; 517  : #ifdef _WIN32
; 518  :     return !memcmp(&guidOne,&guidOther,sizeof(GUID));

  00018	13a00000	 movne       r0, #0

; 519  : #else
; 520  :     return !_fmemcmp(&guidOne,&guidOther,sizeof(GUID)); }
; 521  : #endif
; 522  : }

  0001c	149de004	 ldrne       lr, [sp], #4
  00020	e12fff1e	 bx          lr
  00024		 |$M55830|

			 ENDP  ; |??8@YAHABU_GUID@@0@Z|, operator==

	EXPORT	|??9@YAHABU_GUID@@0@Z|			; operator!=

  00000			 AREA	 |.pdata|, PDATA
|$T55852| DCD	|$LN11@operator@2|
	DCD	0x40000901
; Function compile flags: /Ogspy

  00000			 AREA	 |.text|, CODE, ARM

  00000		 |??9@YAHABU_GUID@@0@Z| PROC		; operator!=

; 526  : {

  00000		 |$LN11@operator@2|
  00000	e52de004	 str         lr, [sp, #-4]!
  00004		 |$M55849|

; 527  :     return !(guidOne == guidOther);

  00004	e3a02010	 mov         r2, #0x10
  00008	eb000000	 bl          memcmp
  0000c	e3500000	 cmp         r0, #0
  00010	13a00001	 movne       r0, #1

; 528  : }

  00014	149de004	 ldrne       lr, [sp], #4

; 527  :     return !(guidOne == guidOther);

  00018	03a00000	 moveq       r0, #0

; 528  : }

  0001c	049de004	 ldreq       lr, [sp], #4
  00020	e12fff1e	 bx          lr
  00024		 |$M55850|

			 ENDP  ; |??9@YAHABU_GUID@@0@Z|, operator!=

	EXPORT	|?IsConnected@CBasePin@@QAAHXZ|		; CBasePin::IsConnected
; File c:\wince600\public\directx\sdk\inc\amfilter.h

  00000			 AREA	 |.pdata|, PDATA
|$T55864| DCD	|$LN7@IsConnecte|
	DCD	0x40000500
; Function compile flags: /Ogspy

  00000			 AREA	 |.text|, CODE, ARM

  00000		 |?IsConnected@CBasePin@@QAAHXZ| PROC	; CBasePin::IsConnected

; 485  :     BOOL IsConnected(void) {return (m_Connected != NULL); };

  00000		 |$LN7@IsConnecte|
  00000		 |$M55861|
  00000	e5903018	 ldr         r3, [r0, #0x18]
  00004	e3530000	 cmp         r3, #0
  00008	13a00001	 movne       r0, #1
  0000c	03a00000	 moveq       r0, #0
  00010	e12fff1e	 bx          lr
  00014		 |$M55862|

			 ENDP  ; |?IsConnected@CBasePin@@QAAHXZ|, CBasePin::IsConnected

	EXPORT	|?CurrentMediaType@CTransformInputPin@@QAAAAVCMediaType@@XZ| ; CTransformInputPin::CurrentMediaType
; File c:\wince600\public\directx\sdk\inc\transfrm.h

  00000			 AREA	 |.pdata|, PDATA
|$T55874| DCD	|$LN5@CurrentMed|
	DCD	0x40000200
; Function compile flags: /Ogspy

  00000			 AREA	 |.text|, CODE, ARM

  00000		 |?CurrentMediaType@CTransformInputPin@@QAAAAVCMediaType@@XZ| PROC ; CTransformInputPin::CurrentMediaType

; 106  :     CMediaType& CurrentMediaType() { return m_mt; };

  00000		 |$LN5@CurrentMed|
  00000		 |$M55871|
  00000	e280001c	 add         r0, r0, #0x1C
  00004	e12fff1e	 bx          lr
  00008		 |$M55872|

			 ENDP  ; |?CurrentMediaType@CTransformInputPin@@QAAAAVCMediaType@@XZ|, CTransformInputPin::CurrentMediaType

	EXPORT	|??0IUnknown@@QAA@XZ|			; IUnknown::IUnknown

  00000			 AREA	 |.pdata|, PDATA
|$T55884| DCD	|$LN5@IUnknown|
	DCD	0x40000100
; Function compile flags: /Ogspy

  00000			 AREA	 |.text|, CODE, ARM

  00000		 |??0IUnknown@@QAA@XZ| PROC		; IUnknown::IUnknown
  00000		 |$LN5@IUnknown|
  00000		 |$M55881|
  00000	e12fff1e	 bx          lr
  00004		 |$M55882|

			 ENDP  ; |??0IUnknown@@QAA@XZ|, IUnknown::IUnknown

	EXPORT	|DllRegisterServer|
	EXPORT	|??_C@_1EI@MPLJLCGA@?$AAI?$AAn?$AA?5?$AAD?$AAl?$AAl?$AAR?$AAe?$AAg?$AAi?$AAs?$AAt?$AAe?$AAr?$AAS?$AAe?$AAr?$AAv?$AAe?$AAr?$AA?5?$AA?5?$AAh?$AAr?$AA?5?$AA?$DN?$AA?5?$AA0?$AAx?$AA?$CF?$AA0?$AA8@| [ DATA ] ; `string'
	IMPORT	|NKDbgPrintfW|
	IMPORT	|AMovieDllRegisterServer2|
; File c:\wince600\platform\z2170p\src\app\samplegrabber\samplegrabber.cpp

  00000			 AREA	 |.pdata|, PDATA
|$T55896| DCD	|$LN7@DllRegiste|
	DCD	0x40000f01

  00000			 AREA	 |.rdata|, DATA, READONLY
|??_C@_1EI@MPLJLCGA@?$AAI?$AAn?$AA?5?$AAD?$AAl?$AAl?$AAR?$AAe?$AAg?$AAi?$AAs?$AAt?$AAe?$AAr?$AAS?$AAe?$AAr?$AAv?$AAe?$AAr?$AA?5?$AA?5?$AAh?$AAr?$AA?5?$AA?$DN?$AA?5?$AA0?$AAx?$AA?$CF?$AA0?$AA8@| DCB "I"
	DCB	0x0, "n", 0x0, " ", 0x0, "D", 0x0, "l", 0x0, "l", 0x0, "R"
	DCB	0x0, "e", 0x0, "g", 0x0, "i", 0x0, "s", 0x0, "t", 0x0, "e"
	DCB	0x0, "r", 0x0, "S", 0x0, "e", 0x0, "r", 0x0, "v", 0x0, "e"
	DCB	0x0, "r", 0x0, " ", 0x0, " ", 0x0, "h", 0x0, "r", 0x0, " "
	DCB	0x0, "=", 0x0, " ", 0x0, "0", 0x0, "x", 0x0, "%", 0x0, "0"
	DCB	0x0, "8", 0x0, "X", 0x0, 0xd, 0x0, 0xa, 0x0, 0x0, 0x0 ; `string'
; Function compile flags: /Ogspy

  00000			 AREA	 |.text|, CODE, ARM

  00000		 |DllRegisterServer| PROC

; 79   : {

  00000		 |$LN7@DllRegiste|
  00000	e92d4010	 stmdb       sp!, {r4, lr}
  00004		 |$M55893|

; 80   : 	HRESULT hr = AMovieDllRegisterServer2( TRUE );

  00004	e3a00001	 mov         r0, #1
  00008	eb000000	 bl          AMovieDllRegisterServer2

; 81   :     RETAILMSG(DBGZONE_INFO, (TEXT("In DllRegisterServer  hr = 0x%08X\r\n"), hr));

  0000c	e59f3024	 ldr         r3, [pc, #0x24]
  00010	e1a04000	 mov         r4, r0
  00014	e5933440	 ldr         r3, [r3, #0x440]
  00018	e3130001	 tst         r3, #1
  0001c	159f0010	 ldrne       r0, [pc, #0x10]
  00020	11a01004	 movne       r1, r4
  00024	1b000000	 blne        NKDbgPrintfW

; 82   : 	return hr;
; 83   : }

  00028	e1a00004	 mov         r0, r4
  0002c	e8bd4010	 ldmia       sp!, {r4, lr}
  00030	e12fff1e	 bx          lr
  00034		 |$LN8@DllRegiste|
  00034		 |$LN9@DllRegiste|
  00034	00000000	 DCD         |??_C@_1EI@MPLJLCGA@?$AAI?$AAn?$AA?5?$AAD?$AAl?$AAl?$AAR?$AAe?$AAg?$AAi?$AAs?$AAt?$AAe?$AAr?$AAS?$AAe?$AAr?$AAv?$AAe?$AAr?$AA?5?$AA?5?$AAh?$AAr?$AA?5?$AA?$DN?$AA?5?$AA0?$AAx?$AA?$CF?$AA0?$AA8@|
  00038		 |$LN10@DllRegiste|
  00038	00000000	 DCD         |?dpCurSettings@@3U_DBGPARAM@@A|
  0003c		 |$M55894|

			 ENDP  ; |DllRegisterServer|

	EXPORT	|DllUnregisterServer|
	EXPORT	|??_C@_1DC@IOHHMDAM@?$AAI?$AAn?$AA?5?$AAD?$AAl?$AAl?$AAU?$AAn?$AAr?$AAe?$AAg?$AAi?$AAs?$AAt?$AAe?$AAr?$AAS?$AAe?$AAr?$AAv?$AAe?$AAr?$AA?$AN?$AA?6?$AA?$AA@| [ DATA ] ; `string'

  00000			 AREA	 |.pdata|, PDATA
|$T55910| DCD	|$LN7@DllUnregis|
	DCD	0x40000c01

  00000			 AREA	 |.rdata|, DATA, READONLY
|??_C@_1DC@IOHHMDAM@?$AAI?$AAn?$AA?5?$AAD?$AAl?$AAl?$AAU?$AAn?$AAr?$AAe?$AAg?$AAi?$AAs?$AAt?$AAe?$AAr?$AAS?$AAe?$AAr?$AAv?$AAe?$AAr?$AA?$AN?$AA?6?$AA?$AA@| DCB "I"
	DCB	0x0, "n", 0x0, " ", 0x0, "D", 0x0, "l", 0x0, "l", 0x0, "U"
	DCB	0x0, "n", 0x0, "r", 0x0, "e", 0x0, "g", 0x0, "i", 0x0, "s"
	DCB	0x0, "t", 0x0, "e", 0x0, "r", 0x0, "S", 0x0, "e", 0x0, "r"
	DCB	0x0, "v", 0x0, "e", 0x0, "r", 0x0, 0xd, 0x0, 0xa, 0x0, 0x0
	DCB	0x0					; `string'
; Function compile flags: /Ogspy

  00000			 AREA	 |.text|, CODE, ARM

  00000		 |DllUnregisterServer| PROC

; 86   : {

  00000		 |$LN7@DllUnregis|
  00000	e52de004	 str         lr, [sp, #-4]!
  00004		 |$M55907|

; 87   :     RETAILMSG(DBGZONE_INFO, (TEXT("In DllUnregisterServer\r\n")));

  00004	e59f3020	 ldr         r3, [pc, #0x20]
  00008	e5933440	 ldr         r3, [r3, #0x440]
  0000c	e3130001	 tst         r3, #1
  00010	159f0010	 ldrne       r0, [pc, #0x10]
  00014	1b000000	 blne        NKDbgPrintfW

; 88   : 	return AMovieDllRegisterServer2( FALSE );

  00018	e3a00000	 mov         r0, #0
  0001c	eb000000	 bl          AMovieDllRegisterServer2

; 89   : }

  00020	e49de004	 ldr         lr, [sp], #4
  00024	e12fff1e	 bx          lr
  00028		 |$LN8@DllUnregis|
  00028		 |$LN9@DllUnregis|
  00028	00000000	 DCD         |??_C@_1DC@IOHHMDAM@?$AAI?$AAn?$AA?5?$AAD?$AAl?$AAl?$AAU?$AAn?$AAr?$AAe?$AAg?$AAi?$AAs?$AAt?$AAe?$AAr?$AAS?$AAe?$AAr?$AAv?$AAe?$AAr?$AA?$AN?$AA?6?$AA?$AA@|
  0002c		 |$LN10@DllUnregis|
  0002c	00000000	 DCD         |?dpCurSettings@@3U_DBGPARAM@@A|
  00030		 |$M55908|

			 ENDP  ; |DllUnregisterServer|

	EXPORT	|DllMain|
	EXPORT	|??_C@_1BO@LGJFMGDC@?$AAS?$AAa?$AAm?$AAp?$AAl?$AAe?$AA?5?$AAG?$AAr?$AAa?$AAb?$AAb?$AAe?$AAr?$AA?$AA@| [ DATA ] ; `string'
	EXPORT	|??_C@_1GC@CBBHGAHJ@?$AA?$CF?$AAs?$AA?3?$AA?5?$AAI?$AAn?$AA?5?$AAD?$AAl?$AAl?$AAM?$AAa?$AAi?$AAn?$AA?5?$AA?9?$AA?5?$AAD?$AAl?$AAl?$AAE?$AAn?$AAt?$AAr?$AAy?$AAP?$AAo?$AAi?$AAn?$AAt?$AA?5?$AAr@| [ DATA ] ; `string'
	IMPORT	|DllEntryPoint|
	IMPORT	|RegisterDbgZones|

  00000			 AREA	 |.pdata|, PDATA
|$T55928| DCD	|$LN8@DllMain|
	DCD	0x40001901

  00000			 AREA	 |.rdata|, DATA, READONLY
|??_C@_1BO@LGJFMGDC@?$AAS?$AAa?$AAm?$AAp?$AAl?$AAe?$AA?5?$AAG?$AAr?$AAa?$AAb?$AAb?$AAe?$AAr?$AA?$AA@| DCB "S"
	DCB	0x0, "a", 0x0, "m", 0x0, "p", 0x0, "l", 0x0, "e", 0x0, " "
	DCB	0x0, "G", 0x0, "r", 0x0, "a", 0x0, "b", 0x0, "b", 0x0, "e"
	DCB	0x0, "r", 0x0, 0x0, 0x0			; `string'

  00000			 AREA	 |.rdata|, DATA, READONLY
|??_C@_1GC@CBBHGAHJ@?$AA?$CF?$AAs?$AA?3?$AA?5?$AAI?$AAn?$AA?5?$AAD?$AAl?$AAl?$AAM?$AAa?$AAi?$AAn?$AA?5?$AA?9?$AA?5?$AAD?$AAl?$AAl?$AAE?$AAn?$AAt?$AAr?$AAy?$AAP?$AAo?$AAi?$AAn?$AAt?$AA?5?$AAr@| DCB "%"
	DCB	0x0, "s", 0x0, ":", 0x0, " ", 0x0, "I", 0x0, "n", 0x0, " "
	DCB	0x0, "D", 0x0, "l", 0x0, "l", 0x0, "M", 0x0, "a", 0x0, "i"
	DCB	0x0, "n", 0x0, " ", 0x0, "-", 0x0, " ", 0x0, "D", 0x0, "l"
	DCB	0x0, "l", 0x0, "E", 0x0, "n", 0x0, "t", 0x0, "r", 0x0, "y"
	DCB	0x0, "P", 0x0, "o", 0x0, "i", 0x0, "n", 0x0, "t", 0x0, " "
	DCB	0x0, "r", 0x0, "e", 0x0, "t", 0x0, "u", 0x0, "r", 0x0, "n"
	DCB	0x0, "e", 0x0, "d", 0x0, " ", 0x0, "0", 0x0, "x", 0x0, "%"
	DCB	0x0, "0", 0x0, "8", 0x0, "X", 0x0, 0xd, 0x0, 0xa, 0x0, 0x0
	DCB	0x0					; `string'
; Function compile flags: /Ogspy

  00000			 AREA	 |.text|, CODE, ARM

  00000		 |DllMain| PROC

; 93   :                        LPVOID lpReserved) {

  00000		 |$LN8@DllMain|
  00000	e92d40f0	 stmdb       sp!, {r4 - r7, lr}
  00004		 |$M55925|
  00004	e1a07002	 mov         r7, r2
  00008	e1a06001	 mov         r6, r1
  0000c	e1a04000	 mov         r4, r0

; 94   : 
; 95   :     BOOL hr = TRUE;
; 96   :     
; 97   : #ifndef SHIP_BUILD
; 98   :     if (dwReason == DLL_PROCESS_ATTACH) {

  00010	e59f5048	 ldr         r5, [pc, #0x48]
  00014	e3560001	 cmp         r6, #1

; 99   :         RegisterDbgZones((HMODULE)hModule, &dpCurSettings);

  00018	01a01005	 moveq       r1, r5
  0001c	0b000000	 bleq        RegisterDbgZones

; 100  :     }
; 101  : #endif
; 102  :     hr = DllEntryPoint((HINSTANCE)(hModule), dwReason, lpReserved);

  00020	e1a02007	 mov         r2, r7
  00024	e1a01006	 mov         r1, r6
  00028	e1a00004	 mov         r0, r4
  0002c	eb000000	 bl          DllEntryPoint

; 103  :     RETAILMSG(DBGZONE_INFO, (TEXT("%s: In DllMain - DllEntryPoint returned 0x%08X\r\n"), APP_NAME, hr));

  00030	e5953440	 ldr         r3, [r5, #0x440]
  00034	e1a04000	 mov         r4, r0
  00038	e3130001	 tst         r3, #1
  0003c	159f1018	 ldrne       r1, [pc, #0x18]
  00040	159f0010	 ldrne       r0, [pc, #0x10]
  00044	11a02004	 movne       r2, r4
  00048	1b000000	 blne        NKDbgPrintfW

; 104  :     return hr;
; 105  : }

  0004c	e1a00004	 mov         r0, r4
  00050	e8bd40f0	 ldmia       sp!, {r4 - r7, lr}
  00054	e12fff1e	 bx          lr
  00058		 |$LN9@DllMain|
  00058		 |$LN10@DllMain|
  00058	00000000	 DCD         |??_C@_1GC@CBBHGAHJ@?$AA?$CF?$AAs?$AA?3?$AA?5?$AAI?$AAn?$AA?5?$AAD?$AAl?$AAl?$AAM?$AAa?$AAi?$AAn?$AA?5?$AA?9?$AA?5?$AAD?$AAl?$AAl?$AAE?$AAn?$AAt?$AAr?$AAy?$AAP?$AAo?$AAi?$AAn?$AAt?$AA?5?$AAr@|
  0005c		 |$LN11@DllMain|
  0005c	00000000	 DCD         |??_C@_1BO@LGJFMGDC@?$AAS?$AAa?$AAm?$AAp?$AAl?$AAe?$AA?5?$AAG?$AAr?$AAa?$AAb?$AAb?$AAe?$AAr?$AA?$AA@|
  00060		 |$LN12@DllMain|
  00060	00000000	 DCD         |?dpCurSettings@@3U_DBGPARAM@@A|
  00064		 |$M55926|

			 ENDP  ; |DllMain|

	EXPORT	|??1CTransInPlaceFilter@@UAA@XZ|	; CTransInPlaceFilter::~CTransInPlaceFilter
	IMPORT	|??1CTransformFilter@@UAA@XZ|		; CTransformFilter::~CTransformFilter

  00000			 AREA	 |.pdata|, PDATA
|$T55940| DCD	|$LN5@CTransInPl|
	DCD	0x40000401
; Function compile flags: /Ogspy

  00000			 AREA	 |.text|, CODE, ARM

  00000		 |??1CTransInPlaceFilter@@UAA@XZ| PROC	; CTransInPlaceFilter::~CTransInPlaceFilter
  00000		 |$LN5@CTransInPl|
  00000	e52de004	 str         lr, [sp, #-4]!
  00004		 |$M55937|
  00004	eb000000	 bl          |??1CTransformFilter@@UAA@XZ|
  00008	e49de004	 ldr         lr, [sp], #4
  0000c	e12fff1e	 bx          lr
  00010		 |$M55938|

			 ENDP  ; |??1CTransInPlaceFilter@@UAA@XZ|, CTransInPlaceFilter::~CTransInPlaceFilter

	EXPORT	|??0ISampleGrabber@@QAA@XZ|		; ISampleGrabber::ISampleGrabber
	EXPORT	|??_7ISampleGrabber@@6B@| [ DATA ]	; ISampleGrabber::`vftable'
	IMPORT	|_purecall|

  00000			 AREA	 |.pdata|, PDATA
|$T55953| DCD	|$LN7@ISampleGra|
	DCD	0x40000500

  00000			 AREA	 |.rdata|, DATA, READONLY
|??_7ISampleGrabber@@6B@| DCD |_purecall|		; ISampleGrabber::`vftable'
	DCD	|_purecall|
	DCD	|_purecall|
	DCD	|_purecall|
; Function compile flags: /Ogspy

  00000			 AREA	 |.text|, CODE, ARM

  00000		 |??0ISampleGrabber@@QAA@XZ| PROC	; ISampleGrabber::ISampleGrabber
  00000		 |$LN7@ISampleGra|
  00000		 |$M55950|
  00000	e1a02000	 mov         r2, r0
  00004	e59f3004	 ldr         r3, [pc, #4]
  00008	e5823000	 str         r3, [r2]
  0000c	e12fff1e	 bx          lr
  00010		 |$LN8@ISampleGra|
  00010		 |$LN9@ISampleGra|
  00010	00000000	 DCD         |??_7ISampleGrabber@@6B@|
  00014		 |$M55951|

			 ENDP  ; |??0ISampleGrabber@@QAA@XZ|, ISampleGrabber::ISampleGrabber

	EXPORT	|??1CSampleGrabber@@UAA@XZ|		; CSampleGrabber::~CSampleGrabber
	EXPORT	|??_C@_1EC@DOJDFKKO@?$AA?$CF?$AAs?$AA?3?$AA?5?$AAC?$AAS?$AAa?$AAm?$AAp?$AAl?$AAe?$AAG?$AAr?$AAa?$AAb?$AAb?$AAe?$AAr?$AA?5?$AAd?$AAe?$AAs?$AAt?$AAr?$AAu?$AAc?$AAt?$AAo?$AAr?$AA?5?$AA?$AN?$AA?6@| [ DATA ] ; `string'
	EXPORT	|??_7CSampleGrabber@@6BCUnknown@@@| [ DATA ] ; CSampleGrabber::`vftable'
	EXPORT	|??_7CSampleGrabber@@6BIBaseFilter@@@| [ DATA ] ; CSampleGrabber::`vftable'
	EXPORT	|??_7CSampleGrabber@@6BIAMovieSetup@@@| [ DATA ] ; CSampleGrabber::`vftable'
	EXPORT	|??_7CSampleGrabber@@6B@| [ DATA ]	; CSampleGrabber::`vftable'
	EXPORT	|?QueryInterface@CSampleGrabber@@WIM@AAJABU_GUID@@PAPAX@Z| ; [thunk]:CSampleGrabber::QueryInterface`adjustor{140}'
	EXPORT	|?AddRef@CSampleGrabber@@WIM@AAKXZ|	; [thunk]:CSampleGrabber::AddRef`adjustor{140}'
	EXPORT	|?Release@CSampleGrabber@@WIM@AAKXZ|	; [thunk]:CSampleGrabber::Release`adjustor{140}'
	EXPORT	|?RegisterCallback@CSampleGrabber@@UAAJP6AXPAUIMediaSample@@@Z@Z| ; CSampleGrabber::RegisterCallback
	EXPORT	|?QueryInterface@CSampleGrabber@@W3AAJABU_GUID@@PAPAX@Z| ; [thunk]:CSampleGrabber::QueryInterface`adjustor{4}'
	EXPORT	|?AddRef@CSampleGrabber@@W3AAKXZ|	; [thunk]:CSampleGrabber::AddRef`adjustor{4}'
	EXPORT	|?Release@CSampleGrabber@@W3AAKXZ|	; [thunk]:CSampleGrabber::Release`adjustor{4}'
	EXPORT	|?QueryInterface@CSampleGrabber@@UAAJABU_GUID@@PAPAX@Z| ; CSampleGrabber::QueryInterface
	EXPORT	|?AddRef@CSampleGrabber@@UAAKXZ|	; CSampleGrabber::AddRef
	EXPORT	|?Release@CSampleGrabber@@UAAKXZ|	; CSampleGrabber::Release
	EXPORT	|?NonDelegatingQueryInterface@CSampleGrabber@@UAAJABU_GUID@@PAPAX@Z| ; CSampleGrabber::NonDelegatingQueryInterface
	EXPORT	|?GetPin@CSampleGrabber@@UAAPAVCBasePin@@H@Z| ; CSampleGrabber::GetPin
	EXPORT	|?GetSetupData@CSampleGrabber@@UAAPAU_AMOVIESETUP_FILTER@@XZ| ; CSampleGrabber::GetSetupData
	EXPORT	|?CheckInputType@CSampleGrabber@@UAAJPBVCMediaType@@@Z| ; CSampleGrabber::CheckInputType
	EXPORT	|?CheckTransform@CSampleGrabber@@UAAJPBVCMediaType@@0@Z| ; CSampleGrabber::CheckTransform
	EXPORT	|?DecideBufferSize@CSampleGrabber@@UAAJPAUIMemAllocator@@PAU_AllocatorProperties@@@Z| ; CSampleGrabber::DecideBufferSize
	EXPORT	|?GetMediaType@CSampleGrabber@@UAAJHPAVCMediaType@@@Z| ; CSampleGrabber::GetMediaType
	EXPORT	|?SetMediaType@CSampleGrabber@@UAAJW4_PinDirection@@PBVCMediaType@@@Z| ; CSampleGrabber::SetMediaType
	EXPORT	|?Transform@CSampleGrabber@@UAAJPAUIMediaSample@@@Z| ; CSampleGrabber::Transform
	IMPORT	|?Register@CBaseFilter@@UAAJXZ|		; CBaseFilter::Register
	IMPORT	|?Unregister@CBaseFilter@@UAAJXZ|	; CBaseFilter::Unregister
	IMPORT	|?GetClassID@CBaseFilter@@UAAJPAU_GUID@@@Z| ; CBaseFilter::GetClassID
	IMPORT	|?Stop@CTransformFilter@@UAAJXZ|	; CTransformFilter::Stop
	IMPORT	|?Pause@CTransformFilter@@UAAJXZ|	; CTransformFilter::Pause
	IMPORT	|?Run@CBaseFilter@@UAAJ_J@Z|		; CBaseFilter::Run
	IMPORT	|?GetState@CBaseFilter@@UAAJKPAW4_FilterState@@@Z| ; CBaseFilter::GetState
	IMPORT	|?SetSyncSource@CBaseFilter@@UAAJPAUIReferenceClock@@@Z| ; CBaseFilter::SetSyncSource
	IMPORT	|?GetSyncSource@CBaseFilter@@UAAJPAPAUIReferenceClock@@@Z| ; CBaseFilter::GetSyncSource
	IMPORT	|?EnumPins@CBaseFilter@@UAAJPAPAUIEnumPins@@@Z| ; CBaseFilter::EnumPins
	IMPORT	|?FindPin@CTransformFilter@@UAAJPBGPAPAUIPin@@@Z| ; CTransformFilter::FindPin
	IMPORT	|?QueryFilterInfo@CBaseFilter@@UAAJPAU_FilterInfo@@@Z| ; CBaseFilter::QueryFilterInfo
	IMPORT	|?JoinFilterGraph@CBaseFilter@@UAAJPAUIFilterGraph@@PBG@Z| ; CBaseFilter::JoinFilterGraph
	IMPORT	|?QueryVendorInfo@CBaseFilter@@UAAJPAPAG@Z| ; CBaseFilter::QueryVendorInfo
	IMPORT	|?NonDelegatingAddRef@CUnknown@@UAAKXZ|	; CUnknown::NonDelegatingAddRef
	IMPORT	|?NonDelegatingRelease@CUnknown@@UAAKXZ| ; CUnknown::NonDelegatingRelease
	IMPORT	|??_ECSampleGrabber@@UAAPAXI@Z|, WEAK |??_GCSampleGrabber@@UAAPAXI@Z| ; CSampleGrabber::`vector deleting destructor', CSampleGrabber::`scalar deleting destructor'
	IMPORT	|?StreamTime@CBaseFilter@@UAAJAAVCRefTime@@@Z| ; CBaseFilter::StreamTime
	IMPORT	|?GetPinVersion@CBaseFilter@@UAAJXZ|	; CBaseFilter::GetPinVersion
	IMPORT	|?GetPinCount@CTransformFilter@@UAAHXZ|	; CTransformFilter::GetPinCount
	IMPORT	|?Transform@CTransformFilter@@UAAJPAUIMediaSample@@0@Z| ; CTransformFilter::Transform
	IMPORT	|?StartStreaming@CTransformFilter@@UAAJXZ| ; CTransformFilter::StartStreaming
	IMPORT	|?StopStreaming@CTransformFilter@@UAAJXZ| ; CTransformFilter::StopStreaming
	IMPORT	|?AlterQuality@CTransformFilter@@UAAJUtagQuality@@@Z| ; CTransformFilter::AlterQuality
	IMPORT	|?CheckConnect@CTransformFilter@@UAAJW4_PinDirection@@PAUIPin@@@Z| ; CTransformFilter::CheckConnect
	IMPORT	|?BreakConnect@CTransformFilter@@UAAJW4_PinDirection@@@Z| ; CTransformFilter::BreakConnect
	IMPORT	|?CompleteConnect@CTransInPlaceFilter@@UAAJW4_PinDirection@@PAUIPin@@@Z| ; CTransInPlaceFilter::CompleteConnect
	IMPORT	|?Receive@CTransInPlaceFilter@@UAAJPAUIMediaSample@@@Z| ; CTransInPlaceFilter::Receive
	IMPORT	|?EndOfStream@CTransformFilter@@UAAJXZ|	; CTransformFilter::EndOfStream
	IMPORT	|?BeginFlush@CTransformFilter@@UAAJXZ|	; CTransformFilter::BeginFlush
	IMPORT	|?EndFlush@CTransformFilter@@UAAJXZ|	; CTransformFilter::EndFlush
	IMPORT	|?NewSegment@CTransformFilter@@UAAJ_J0N@Z| ; CTransformFilter::NewSegment

  00000			 AREA	 |.pdata|, PDATA
|$T55968| DCD	|$LN9@CSampleGra|
	DCD	0x40001d01

  00000			 AREA	 |.rdata|, DATA, READONLY
|??_C@_1EC@DOJDFKKO@?$AA?$CF?$AAs?$AA?3?$AA?5?$AAC?$AAS?$AAa?$AAm?$AAp?$AAl?$AAe?$AAG?$AAr?$AAa?$AAb?$AAb?$AAe?$AAr?$AA?5?$AAd?$AAe?$AAs?$AAt?$AAr?$AAu?$AAc?$AAt?$AAo?$AAr?$AA?5?$AA?$AN?$AA?6@| DCB "%"
	DCB	0x0, "s", 0x0, ":", 0x0, " ", 0x0, "C", 0x0, "S", 0x0, "a"
	DCB	0x0, "m", 0x0, "p", 0x0, "l", 0x0, "e", 0x0, "G", 0x0, "r"
	DCB	0x0, "a", 0x0, "b", 0x0, "b", 0x0, "e", 0x0, "r", 0x0, " "
	DCB	0x0, "d", 0x0, "e", 0x0, "s", 0x0, "t", 0x0, "r", 0x0, "u"
	DCB	0x0, "c", 0x0, "t", 0x0, "o", 0x0, "r", 0x0, " ", 0x0, 0xd
	DCB	0x0, 0xa, 0x0, 0x0, 0x0			; `string'

  00000			 AREA	 |.rdata|, DATA, READONLY
|??_7CSampleGrabber@@6BCUnknown@@@| DCD |?NonDelegatingQueryInterface@CSampleGrabber@@UAAJABU_GUID@@PAPAX@Z| ; CSampleGrabber::`vftable'
	DCD	|?NonDelegatingAddRef@CUnknown@@UAAKXZ|
	DCD	|?NonDelegatingRelease@CUnknown@@UAAKXZ|
	DCD	|??_ECSampleGrabber@@UAAPAXI@Z|
	DCD	|?StreamTime@CBaseFilter@@UAAJAAVCRefTime@@@Z|
	DCD	|?GetPinVersion@CBaseFilter@@UAAJXZ|
	DCD	|?GetPinCount@CTransformFilter@@UAAHXZ|
	DCD	|?GetPin@CSampleGrabber@@UAAPAVCBasePin@@H@Z|
	DCD	|?GetSetupData@CSampleGrabber@@UAAPAU_AMOVIESETUP_FILTER@@XZ|
	DCD	|?Transform@CTransformFilter@@UAAJPAUIMediaSample@@0@Z|
	DCD	|?CheckInputType@CSampleGrabber@@UAAJPBVCMediaType@@@Z|
	DCD	|?CheckTransform@CSampleGrabber@@UAAJPBVCMediaType@@0@Z|
	DCD	|?DecideBufferSize@CSampleGrabber@@UAAJPAUIMemAllocator@@PAU_AllocatorProperties@@@Z|
	DCD	|?GetMediaType@CSampleGrabber@@UAAJHPAVCMediaType@@@Z|
	DCD	|?StartStreaming@CTransformFilter@@UAAJXZ|
	DCD	|?StopStreaming@CTransformFilter@@UAAJXZ|
	DCD	|?AlterQuality@CTransformFilter@@UAAJUtagQuality@@@Z|
	DCD	|?SetMediaType@CSampleGrabber@@UAAJW4_PinDirection@@PBVCMediaType@@@Z|
	DCD	|?CheckConnect@CTransformFilter@@UAAJW4_PinDirection@@PAUIPin@@@Z|
	DCD	|?BreakConnect@CTransformFilter@@UAAJW4_PinDirection@@@Z|
	DCD	|?CompleteConnect@CTransInPlaceFilter@@UAAJW4_PinDirection@@PAUIPin@@@Z|
	DCD	|?Receive@CTransInPlaceFilter@@UAAJPAUIMediaSample@@@Z|
	DCD	|?EndOfStream@CTransformFilter@@UAAJXZ|
	DCD	|?BeginFlush@CTransformFilter@@UAAJXZ|
	DCD	|?EndFlush@CTransformFilter@@UAAJXZ|
	DCD	|?NewSegment@CTransformFilter@@UAAJ_J0N@Z|
	DCD	|?Transform@CSampleGrabber@@UAAJPAUIMediaSample@@@Z|

  00000			 AREA	 |.rdata|, DATA, READONLY
|??_7CSampleGrabber@@6BIBaseFilter@@@| DCD |?QueryInterface@CSampleGrabber@@UAAJABU_GUID@@PAPAX@Z| ; CSampleGrabber::`vftable'
	DCD	|?AddRef@CSampleGrabber@@UAAKXZ|
	DCD	|?Release@CSampleGrabber@@UAAKXZ|
	DCD	|?GetClassID@CBaseFilter@@UAAJPAU_GUID@@@Z|
	DCD	|?Stop@CTransformFilter@@UAAJXZ|
	DCD	|?Pause@CTransformFilter@@UAAJXZ|
	DCD	|?Run@CBaseFilter@@UAAJ_J@Z|
	DCD	|?GetState@CBaseFilter@@UAAJKPAW4_FilterState@@@Z|
	DCD	|?SetSyncSource@CBaseFilter@@UAAJPAUIReferenceClock@@@Z|
	DCD	|?GetSyncSource@CBaseFilter@@UAAJPAPAUIReferenceClock@@@Z|
	DCD	|?EnumPins@CBaseFilter@@UAAJPAPAUIEnumPins@@@Z|
	DCD	|?FindPin@CTransformFilter@@UAAJPBGPAPAUIPin@@@Z|
	DCD	|?QueryFilterInfo@CBaseFilter@@UAAJPAU_FilterInfo@@@Z|
	DCD	|?JoinFilterGraph@CBaseFilter@@UAAJPAUIFilterGraph@@PBG@Z|
	DCD	|?QueryVendorInfo@CBaseFilter@@UAAJPAPAG@Z|

  00000			 AREA	 |.rdata|, DATA, READONLY
|??_7CSampleGrabber@@6BIAMovieSetup@@@| DCD |?QueryInterface@CSampleGrabber@@W3AAJABU_GUID@@PAPAX@Z| ; CSampleGrabber::`vftable'
	DCD	|?AddRef@CSampleGrabber@@W3AAKXZ|
	DCD	|?Release@CSampleGrabber@@W3AAKXZ|
	DCD	|?Register@CBaseFilter@@UAAJXZ|
	DCD	|?Unregister@CBaseFilter@@UAAJXZ|

  00000			 AREA	 |.rdata|, DATA, READONLY
|??_7CSampleGrabber@@6B@| DCD |?QueryInterface@CSampleGrabber@@WIM@AAJABU_GUID@@PAPAX@Z| ; CSampleGrabber::`vftable'
	DCD	|?AddRef@CSampleGrabber@@WIM@AAKXZ|
	DCD	|?Release@CSampleGrabber@@WIM@AAKXZ|
	DCD	|?RegisterCallback@CSampleGrabber@@UAAJP6AXPAUIMediaSample@@@Z@Z|
; Function compile flags: /Ogspy

  00000			 AREA	 |.text|, CODE, ARM

  00000		 |??1CSampleGrabber@@UAA@XZ| PROC	; CSampleGrabber::~CSampleGrabber

; 131  : {

  00000		 |$LN9@CSampleGra|
  00000	e92d4030	 stmdb       sp!, {r4, r5, lr}
  00004		 |$M55965|
  00004	e1a05000	 mov         r5, r0
  00008	e59f3060	 ldr         r3, [pc, #0x60]
  0000c	e59f2058	 ldr         r2, [pc, #0x58]
  00010	e59f1050	 ldr         r1, [pc, #0x50]
  00014	e59fe048	 ldr         lr, [pc, #0x48]

; 132  :     RETAILMSG(DBGZONE_INFO, (TEXT("%s: CSampleGrabber destructor \r\n"), APP_NAME));

  00018	e59f4040	 ldr         r4, [pc, #0x40]
  0001c	e5853000	 str         r3, [r5]
  00020	e585200c	 str         r2, [r5, #0xC]
  00024	e5851010	 str         r1, [r5, #0x10]
  00028	e585e098	 str         lr, [r5, #0x98]
  0002c	e5943440	 ldr         r3, [r4, #0x440]
  00030	e3130001	 tst         r3, #1
  00034	159f1020	 ldrne       r1, [pc, #0x20]
  00038	159f0018	 ldrne       r0, [pc, #0x18]
  0003c	1b000000	 blne        NKDbgPrintfW

; 133  :     callback = NULL;

  00040	e3a03000	 mov         r3, #0

; 134  : }

  00044	e1a00005	 mov         r0, r5
  00048	e585309c	 str         r3, [r5, #0x9C]
  0004c	eb000000	 bl          |??1CTransformFilter@@UAA@XZ|
  00050	e8bd4030	 ldmia       sp!, {r4, r5, lr}
  00054	e12fff1e	 bx          lr
  00058		 |$LN10@CSampleGra|
  00058		 |$LN11@CSampleGra|
  00058	00000000	 DCD         |??_C@_1EC@DOJDFKKO@?$AA?$CF?$AAs?$AA?3?$AA?5?$AAC?$AAS?$AAa?$AAm?$AAp?$AAl?$AAe?$AAG?$AAr?$AAa?$AAb?$AAb?$AAe?$AAr?$AA?5?$AAd?$AAe?$AAs?$AAt?$AAr?$AAu?$AAc?$AAt?$AAo?$AAr?$AA?5?$AA?$AN?$AA?6@|
  0005c		 |$LN12@CSampleGra|
  0005c	00000000	 DCD         |??_C@_1BO@LGJFMGDC@?$AAS?$AAa?$AAm?$AAp?$AAl?$AAe?$AA?5?$AAG?$AAr?$AAa?$AAb?$AAb?$AAe?$AAr?$AA?$AA@|
  00060		 |$LN13@CSampleGra|
  00060	00000000	 DCD         |?dpCurSettings@@3U_DBGPARAM@@A|
  00064		 |$LN14@CSampleGra|
  00064	00000000	 DCD         |??_7CSampleGrabber@@6B@|
  00068		 |$LN15@CSampleGra|
  00068	00000000	 DCD         |??_7CSampleGrabber@@6BIAMovieSetup@@@|
  0006c		 |$LN16@CSampleGra|
  0006c	00000000	 DCD         |??_7CSampleGrabber@@6BIBaseFilter@@@|
  00070		 |$LN17@CSampleGra|
  00070	00000000	 DCD         |??_7CSampleGrabber@@6BCUnknown@@@|
  00074		 |$M55966|

			 ENDP  ; |??1CSampleGrabber@@UAA@XZ|, CSampleGrabber::~CSampleGrabber

	EXPORT	|?GetOwner@CUnknown@@QBAPAUIUnknown@@XZ| ; CUnknown::GetOwner
; File c:\wince600\public\directx\sdk\inc\combase.h

  00000			 AREA	 |.pdata|, PDATA
|$T55986| DCD	|$LN5@GetOwner|
	DCD	0x40000200
; Function compile flags: /Ogspy

  00000			 AREA	 |.text|, CODE, ARM

  00000		 |?GetOwner@CUnknown@@QBAPAUIUnknown@@XZ| PROC ; CUnknown::GetOwner

; 233  :     LPUNKNOWN GetOwner() const {

  00000		 |$LN5@GetOwner|
  00000		 |$M55983|

; 234  :         return m_pUnknown;

  00000	e5900004	 ldr         r0, [r0, #4]

; 235  :     };

  00004	e12fff1e	 bx          lr
  00008		 |$M55984|

			 ENDP  ; |?GetOwner@CUnknown@@QBAPAUIUnknown@@XZ|, CUnknown::GetOwner


  00000			 AREA	 |.pdata|, PDATA
|$T56002| DCD	|$LN7@QueryInter|
	DCD	0x40000801
; Function compile flags: /Ogspy
; File c:\wince600\platform\z2170p\src\app\samplegrabber\samplegrabber.h

  00000			 AREA	 |.text|, CODE, ARM

  00000		 |?QueryInterface@CSampleGrabber@@UAAJABU_GUID@@PAPAX@Z| PROC ; CSampleGrabber::QueryInterface

; 96   :     DECLARE_IUNKNOWN;

  00000		 |$LN7@QueryInter|
  00000	e52de004	 str         lr, [sp, #-4]!
  00004		 |$M55999|
  00004	e5100008	 ldr         r0, [r0, #-8]
  00008	e5903000	 ldr         r3, [r0]
  0000c	e5933000	 ldr         r3, [r3]
  00010	e1a0e00f	 mov         lr, pc
  00014	e12fff13	 bx          r3
  00018	e49de004	 ldr         lr, [sp], #4
  0001c	e12fff1e	 bx          lr
  00020		 |$M56000|

			 ENDP  ; |?QueryInterface@CSampleGrabber@@UAAJABU_GUID@@PAPAX@Z|, CSampleGrabber::QueryInterface

; File c:\wince600\public\directx\sdk\inc\combase.h

  00000			 AREA	 |.pdata|, PDATA
|$T56016| DCD	|$LN7@AddRef|
	DCD	0x40000801
; Function compile flags: /Ogspy
; File c:\wince600\platform\z2170p\src\app\samplegrabber\samplegrabber.h

  00000			 AREA	 |.text|, CODE, ARM

  00000		 |?AddRef@CSampleGrabber@@UAAKXZ| PROC	; CSampleGrabber::AddRef

; 96   :     DECLARE_IUNKNOWN;

  00000		 |$LN7@AddRef|
  00000	e52de004	 str         lr, [sp, #-4]!
  00004		 |$M56013|
  00004	e5100008	 ldr         r0, [r0, #-8]
  00008	e5903000	 ldr         r3, [r0]
  0000c	e5933004	 ldr         r3, [r3, #4]
  00010	e1a0e00f	 mov         lr, pc
  00014	e12fff13	 bx          r3
  00018	e49de004	 ldr         lr, [sp], #4
  0001c	e12fff1e	 bx          lr
  00020		 |$M56014|

			 ENDP  ; |?AddRef@CSampleGrabber@@UAAKXZ|, CSampleGrabber::AddRef

; File c:\wince600\public\directx\sdk\inc\combase.h

  00000			 AREA	 |.pdata|, PDATA
|$T56030| DCD	|$LN7@Release|
	DCD	0x40000801
; Function compile flags: /Ogspy
; File c:\wince600\platform\z2170p\src\app\samplegrabber\samplegrabber.h

  00000			 AREA	 |.text|, CODE, ARM

  00000		 |?Release@CSampleGrabber@@UAAKXZ| PROC	; CSampleGrabber::Release

; 96   :     DECLARE_IUNKNOWN;

  00000		 |$LN7@Release|
  00000	e52de004	 str         lr, [sp, #-4]!
  00004		 |$M56027|
  00004	e5100008	 ldr         r0, [r0, #-8]
  00008	e5903000	 ldr         r3, [r0]
  0000c	e5933008	 ldr         r3, [r3, #8]
  00010	e1a0e00f	 mov         lr, pc
  00014	e12fff13	 bx          r3
  00018	e49de004	 ldr         lr, [sp], #4
  0001c	e12fff1e	 bx          lr
  00020		 |$M56028|

			 ENDP  ; |?Release@CSampleGrabber@@UAAKXZ|, CSampleGrabber::Release


  00000			 AREA	 |.pdata|, PDATA
|$T56039| DCD	|$LN5@CheckTrans|
	DCD	0x40000200
; Function compile flags: /Ogspy

  00000			 AREA	 |.text|, CODE, ARM

  00000		 |?CheckTransform@CSampleGrabber@@UAAJPBVCMediaType@@0@Z| PROC ; CSampleGrabber::CheckTransform

; 107  :     HRESULT CheckTransform(const CMediaType *mtIn, const CMediaType *mtOut) {

  00000		 |$LN5@CheckTrans|
  00000		 |$M56036|

; 108  :             return NOERROR; }

  00000	e3a00000	 mov         r0, #0
  00004	e12fff1e	 bx          lr
  00008		 |$M56037|

			 ENDP  ; |?CheckTransform@CSampleGrabber@@UAAJPBVCMediaType@@0@Z|, CSampleGrabber::CheckTransform

	IMPORT	|?NonDelegatingQueryInterface@CBaseFilter@@UAAJABU_GUID@@PAPAX@Z| ; CBaseFilter::NonDelegatingQueryInterface
	IMPORT	|GetInterface|
; File c:\wince600\public\common\sdk\inc\objbase.h

  00000			 AREA	 |.pdata|, PDATA
|$T56061| DCD	|$LN14@NonDelegat|
	DCD	0x40001801
; Function compile flags: /Ogspy
; File c:\wince600\platform\z2170p\src\app\samplegrabber\samplegrabber.cpp

  00000			 AREA	 |.text|, CODE, ARM

  00000		 |?NonDelegatingQueryInterface@CSampleGrabber@@UAAJABU_GUID@@PAPAX@Z| PROC ; CSampleGrabber::NonDelegatingQueryInterface

; 138  : CSampleGrabber::NonDelegatingQueryInterface(const IID &riid, void **ppv) {

  00000		 |$LN14@NonDelegat|
  00000	e92d4070	 stmdb       sp!, {r4 - r6, lr}
  00004		 |$M56058|
  00004	e1a05002	 mov         r5, r2
  00008	e1a06001	 mov         r6, r1
  0000c	e1a04000	 mov         r4, r0

; 139  :     if ( riid == IID_ISampleGrabber ) {

  00010	e59f1044	 ldr         r1, [pc, #0x44]
  00014	e3a02010	 mov         r2, #0x10
  00018	e1a00006	 mov         r0, r6
  0001c	eb000000	 bl          memcmp
  00020	e3500000	 cmp         r0, #0
  00024	1a000006	 bne         |$LN2@NonDelegat|

; 140  :         return GetInterface(static_cast<ISampleGrabber*>(this), ppv);

  00028	e3540000	 cmp         r4, #0
  0002c	12840098	 addne       r0, r4, #0x98
  00030	03a00000	 moveq       r0, #0
  00034	e1a01005	 mov         r1, r5
  00038	eb000000	 bl          GetInterface

; 144  : }

  0003c	e8bd4070	 ldmia       sp!, {r4 - r6, lr}
  00040	e12fff1e	 bx          lr
  00044		 |$LN2@NonDelegat|

; 141  :     }
; 142  :     else
; 143  :         return CTransInPlaceFilter::NonDelegatingQueryInterface(riid, ppv);

  00044	e1a02005	 mov         r2, r5
  00048	e1a01006	 mov         r1, r6
  0004c	e1a00004	 mov         r0, r4
  00050	eb000000	 bl          |?NonDelegatingQueryInterface@CBaseFilter@@UAAJABU_GUID@@PAPAX@Z|

; 144  : }

  00054	e8bd4070	 ldmia       sp!, {r4 - r6, lr}
  00058	e12fff1e	 bx          lr
  0005c		 |$LN15@NonDelegat|
  0005c		 |$LN16@NonDelegat|
  0005c	00000000	 DCD         |IID_ISampleGrabber|
  00060		 |$M56059|

			 ENDP  ; |?NonDelegatingQueryInterface@CSampleGrabber@@UAAJABU_GUID@@PAPAX@Z|, CSampleGrabber::NonDelegatingQueryInterface


  00000			 AREA	 |.pdata|, PDATA
|$T56072| DCD	|$LN5@GetSetupDa|
	DCD	0x40000300
; Function compile flags: /Ogspy

  00000			 AREA	 |.text|, CODE, ARM

  00000		 |?GetSetupData@CSampleGrabber@@UAAPAU_AMOVIESETUP_FILTER@@XZ| PROC ; CSampleGrabber::GetSetupData

; 150  : {

  00000		 |$LN5@GetSetupDa|
  00000		 |$M56069|

; 151  :     return (LPAMOVIESETUP_FILTER) &sudSampleGrabber;

  00000	e59f0000	 ldr         r0, [pc]

; 152  : }

  00004	e12fff1e	 bx          lr
  00008		 |$LN6@GetSetupDa|
  00008		 |$LN7@GetSetupDa|
  00008	00000000	 DCD         |sudSampleGrabber|
  0000c		 |$M56070|

			 ENDP  ; |?GetSetupData@CSampleGrabber@@UAAPAU_AMOVIESETUP_FILTER@@XZ|, CSampleGrabber::GetSetupData

; File c:\wince600\public\common\sdk\inc\objbase.h

  00000			 AREA	 |.pdata|, PDATA
|$T56092| DCD	|$LN12@CheckInput|
	DCD	0x40000d01
; Function compile flags: /Ogspy
; File c:\wince600\platform\z2170p\src\app\samplegrabber\samplegrabber.cpp

  00000			 AREA	 |.text|, CODE, ARM

  00000		 |?CheckInputType@CSampleGrabber@@UAAJPBVCMediaType@@@Z| PROC ; CSampleGrabber::CheckInputType

; 211  : {

  00000		 |$LN12@CheckInput|
  00000	e52de004	 str         lr, [sp, #-4]!
  00004		 |$M56089|
  00004	e1a00001	 mov         r0, r1

; 212  :     if (pmt->majortype == MEDIATYPE_Video) {

  00008	e59f1020	 ldr         r1, [pc, #0x20]
  0000c	e3a02010	 mov         r2, #0x10
  00010	eb000000	 bl          memcmp
  00014	e3500000	 cmp         r0, #0

; 213  :         return S_OK;

  00018	03a00000	 moveq       r0, #0

; 217  :     }
; 218  : }

  0001c	049de004	 ldreq       lr, [sp], #4

; 213  :         return S_OK;

  00020	13a03116	 movne       r3, #0x16, 2

; 214  :     }
; 215  :     else {
; 216  :         return E_FAIL;

  00024	13830901	 orrne       r0, r3, #1, 18

; 217  :     }
; 218  : }

  00028	149de004	 ldrne       lr, [sp], #4
  0002c	e12fff1e	 bx          lr
  00030		 |$LN13@CheckInput|
  00030		 |$LN14@CheckInput|
  00030	00000000	 DCD         |MEDIATYPE_Video|
  00034		 |$M56090|

			 ENDP  ; |?CheckInputType@CSampleGrabber@@UAAJPBVCMediaType@@@Z|, CSampleGrabber::CheckInputType

	EXPORT	|??_C@_1DG@MINCNGOB@?$AA?$CF?$AAs?$AA?3?$AA?5?$AAS?$AAe?$AAt?$AAM?$AAe?$AAd?$AAi?$AAa?$AAT?$AAy?$AAp?$AAe?$AA?5?$AAf?$AAa?$AAi?$AAl?$AAe?$AAd?$AA?5?$AA?$AN?$AA?6?$AA?$AA@| [ DATA ] ; `string'
; File c:\wince600\public\common\sdk\inc\objbase.h

  00000			 AREA	 |.pdata|, PDATA
|$T56126| DCD	|$LN17@SetMediaTy|
	DCD	0x40001701

  00000			 AREA	 |.rdata|, DATA, READONLY
|??_C@_1DG@MINCNGOB@?$AA?$CF?$AAs?$AA?3?$AA?5?$AAS?$AAe?$AAt?$AAM?$AAe?$AAd?$AAi?$AAa?$AAT?$AAy?$AAp?$AAe?$AA?5?$AAf?$AAa?$AAi?$AAl?$AAe?$AAd?$AA?5?$AA?$AN?$AA?6?$AA?$AA@| DCB "%"
	DCB	0x0, "s", 0x0, ":", 0x0, " ", 0x0, "S", 0x0, "e", 0x0, "t"
	DCB	0x0, "M", 0x0, "e", 0x0, "d", 0x0, "i", 0x0, "a", 0x0, "T"
	DCB	0x0, "y", 0x0, "p", 0x0, "e", 0x0, " ", 0x0, "f", 0x0, "a"
	DCB	0x0, "i", 0x0, "l", 0x0, "e", 0x0, "d", 0x0, " ", 0x0, 0xd
	DCB	0x0, 0xa, 0x0, 0x0, 0x0			; `string'
; Function compile flags: /Ogspy
; File c:\wince600\platform\z2170p\src\app\samplegrabber\samplegrabber.cpp

  00000			 AREA	 |.text|, CODE, ARM

  00000		 |?SetMediaType@CSampleGrabber@@UAAJW4_PinDirection@@PBVCMediaType@@@Z| PROC ; CSampleGrabber::SetMediaType

; 222  : {

  00000		 |$LN17@SetMediaTy|
  00000	e92d4010	 stmdb       sp!, {r4, lr}
  00004		 |$M56123|
  00004	e1a00002	 mov         r0, r2

; 223  :     HRESULT hr = S_OK;
; 224  : 
; 225  :     if (pmt->majortype != MEDIATYPE_Video ) {

  00008	e59f1048	 ldr         r1, [pc, #0x48]
  0000c	e3a02010	 mov         r2, #0x10
  00010	e3a04000	 mov         r4, #0
  00014	eb000000	 bl          memcmp
  00018	e3500000	 cmp         r0, #0
  0001c	0a000007	 beq         |$LN1@SetMediaTy|

; 226  : 
; 227  :         RETAILMSG(DBGZONE_ERROR, (TEXT("%s: SetMediaType failed \r\n"), APP_NAME));

  00020	e59f302c	 ldr         r3, [pc, #0x2C]
  00024	e5933440	 ldr         r3, [r3, #0x440]
  00028	e3130008	 tst         r3, #8
  0002c	159f101c	 ldrne       r1, [pc, #0x1C]
  00030	159f0014	 ldrne       r0, [pc, #0x14]
  00034	1b000000	 blne        NKDbgPrintfW
  00038	e3a03116	 mov         r3, #0x16, 2

; 228  :         hr = E_FAIL;

  0003c	e3834901	 orr         r4, r3, #1, 18
  00040		 |$LN1@SetMediaTy|

; 229  :     }
; 230  : 
; 231  :     return hr;
; 232  : }

  00040	e1a00004	 mov         r0, r4
  00044	e8bd4010	 ldmia       sp!, {r4, lr}
  00048	e12fff1e	 bx          lr
  0004c		 |$LN18@SetMediaTy|
  0004c		 |$LN19@SetMediaTy|
  0004c	00000000	 DCD         |??_C@_1DG@MINCNGOB@?$AA?$CF?$AAs?$AA?3?$AA?5?$AAS?$AAe?$AAt?$AAM?$AAe?$AAd?$AAi?$AAa?$AAT?$AAy?$AAp?$AAe?$AA?5?$AAf?$AAa?$AAi?$AAl?$AAe?$AAd?$AA?5?$AA?$AN?$AA?6?$AA?$AA@|
  00050		 |$LN20@SetMediaTy|
  00050	00000000	 DCD         |??_C@_1BO@LGJFMGDC@?$AAS?$AAa?$AAm?$AAp?$AAl?$AAe?$AA?5?$AAG?$AAr?$AAa?$AAb?$AAb?$AAe?$AAr?$AA?$AA@|
  00054		 |$LN21@SetMediaTy|
  00054	00000000	 DCD         |?dpCurSettings@@3U_DBGPARAM@@A|
  00058		 |$LN22@SetMediaTy|
  00058	00000000	 DCD         |MEDIATYPE_Video|
  0005c		 |$M56124|

			 ENDP  ; |?SetMediaType@CSampleGrabber@@UAAJW4_PinDirection@@PBVCMediaType@@@Z|, CSampleGrabber::SetMediaType


  00000			 AREA	 |.pdata|, PDATA
|$T56142| DCD	|$LN7@Transform|
	DCD	0x40000e01
; Function compile flags: /Ogspy

  00000			 AREA	 |.text|, CODE, ARM

  00000		 |?Transform@CSampleGrabber@@UAAJPAUIMediaSample@@@Z| PROC ; CSampleGrabber::Transform

; 236  : {    

  00000		 |$LN7@Transform|
  00000	e52de004	 str         lr, [sp, #-4]!
  00004		 |$M56139|
  00004	e3510000	 cmp         r1, #0

; 237  : 
; 238  :     if ( !pMediaSample )

  00008	03a03116	 moveq       r3, #0x16, 2

; 239  :         return E_FAIL;

  0000c	03830901	 orreq       r0, r3, #1, 18

; 246  : }

  00010	049de004	 ldreq       lr, [sp], #4
  00014	012fff1e	 bxeq        lr

; 240  : 
; 241  :     // invoke managed delegate
; 242  :     if ( callback )

  00018	e590309c	 ldr         r3, [r0, #0x9C]
  0001c	e3530000	 cmp         r3, #0

; 243  :         callback(pMediaSample);

  00020	11a00001	 movne       r0, r1
  00024	11a0e00f	 movne       lr, pc
  00028	112fff13	 bxne        r3

; 244  : 
; 245  :     return S_OK;

  0002c	e3a00000	 mov         r0, #0

; 246  : }

  00030	e49de004	 ldr         lr, [sp], #4
  00034	e12fff1e	 bx          lr
  00038		 |$M56140|

			 ENDP  ; |?Transform@CSampleGrabber@@UAAJPAUIMediaSample@@@Z|, CSampleGrabber::Transform

	EXPORT	|??_C@_1EE@PHLPOLPH@?$AA?$CF?$AAs?$AA?3?$AA?5?$AAD?$AAe?$AAc?$AAi?$AAd?$AAe?$AAB?$AAu?$AAf?$AAf?$AAe?$AAr?$AAS?$AAi?$AAz?$AAe?$AA?5?$AAs?$AAu?$AAc?$AAc?$AAe?$AAs?$AAs?$AAf?$AAu?$AAl?$AA?$AN@| [ DATA ] ; `string'
	EXPORT	|??_C@_1GI@DPBDANGC@?$AA?$CF?$AAs?$AA?3?$AA?5?$AAD?$AAe?$AAc?$AAi?$AAd?$AAe?$AAB?$AAu?$AAf?$AAf?$AAe?$AAr?$AAS?$AAi?$AAz?$AAe?$AA?5?$AAf?$AAa?$AAi?$AAl?$AAe?$AAd?$AA?9?$AA?5?$AAS?$AAe?$AAt@| [ DATA ] ; `string'
	EXPORT	|??_C@_1GG@MGFLIKMO@?$AA?$CF?$AAs?$AA?3?$AA?5?$AAD?$AAe?$AAc?$AAi?$AAd?$AAe?$AAB?$AAu?$AAf?$AAf?$AAe?$AAr?$AAS?$AAi?$AAz?$AAe?$AA?5?$AAf?$AAa?$AAi?$AAl?$AAe?$AAd?$AA?9?$AA?5?$AAi?$AAn?$AAp@| [ DATA ] ; `string'
	EXPORT	|??_C@_1DA@EHAILAEM@?$AA?$CF?$AAs?$AA?3?$AA?5?$AAD?$AAe?$AAc?$AAi?$AAd?$AAe?$AAB?$AAu?$AAf?$AAf?$AAe?$AAr?$AAS?$AAi?$AAz?$AAe?$AA?5?$AA?$AN?$AA?6?$AA?$AA@| [ DATA ] ; `string'
	IMPORT	|?GetSampleSize@CMediaType@@QBAKXZ|	; CMediaType::GetSampleSize
; File c:\wince600\public\directx\sdk\inc\transfrm.h

  00000			 AREA	 |.pdata|, PDATA
|$T56175| DCD	|$LN25@DecideBuff|
	DCD	0x40004e02

  00000			 AREA	 |.rdata|, DATA, READONLY
|??_C@_1EE@PHLPOLPH@?$AA?$CF?$AAs?$AA?3?$AA?5?$AAD?$AAe?$AAc?$AAi?$AAd?$AAe?$AAB?$AAu?$AAf?$AAf?$AAe?$AAr?$AAS?$AAi?$AAz?$AAe?$AA?5?$AAs?$AAu?$AAc?$AAc?$AAe?$AAs?$AAs?$AAf?$AAu?$AAl?$AA?$AN@| DCB "%"
	DCB	0x0, "s", 0x0, ":", 0x0, " ", 0x0, "D", 0x0, "e", 0x0, "c"
	DCB	0x0, "i", 0x0, "d", 0x0, "e", 0x0, "B", 0x0, "u", 0x0, "f"
	DCB	0x0, "f", 0x0, "e", 0x0, "r", 0x0, "S", 0x0, "i", 0x0, "z"
	DCB	0x0, "e", 0x0, " ", 0x0, "s", 0x0, "u", 0x0, "c", 0x0, "c"
	DCB	0x0, "e", 0x0, "s", 0x0, "s", 0x0, "f", 0x0, "u", 0x0, "l"
	DCB	0x0, 0xd, 0x0, 0xa, 0x0, 0x0, 0x0	; `string'

  00000			 AREA	 |.rdata|, DATA, READONLY
|??_C@_1GI@DPBDANGC@?$AA?$CF?$AAs?$AA?3?$AA?5?$AAD?$AAe?$AAc?$AAi?$AAd?$AAe?$AAB?$AAu?$AAf?$AAf?$AAe?$AAr?$AAS?$AAi?$AAz?$AAe?$AA?5?$AAf?$AAa?$AAi?$AAl?$AAe?$AAd?$AA?9?$AA?5?$AAS?$AAe?$AAt@| DCB "%"
	DCB	0x0, "s", 0x0, ":", 0x0, " ", 0x0, "D", 0x0, "e", 0x0, "c"
	DCB	0x0, "i", 0x0, "d", 0x0, "e", 0x0, "B", 0x0, "u", 0x0, "f"
	DCB	0x0, "f", 0x0, "e", 0x0, "r", 0x0, "S", 0x0, "i", 0x0, "z"
	DCB	0x0, "e", 0x0, " ", 0x0, "f", 0x0, "a", 0x0, "i", 0x0, "l"
	DCB	0x0, "e", 0x0, "d", 0x0, "-", 0x0, " ", 0x0, "S", 0x0, "e"
	DCB	0x0, "t", 0x0, "P", 0x0, "r", 0x0, "o", 0x0, "p", 0x0, "e"
	DCB	0x0, "r", 0x0, "t", 0x0, "i", 0x0, "e", 0x0, "s", 0x0, " "
	DCB	0x0, "f", 0x0, "a", 0x0, "i", 0x0, "l", 0x0, "e", 0x0, "d"
	DCB	0x0, 0xd, 0x0, 0xa, 0x0, 0x0, 0x0	; `string'

  00000			 AREA	 |.rdata|, DATA, READONLY
|??_C@_1GG@MGFLIKMO@?$AA?$CF?$AAs?$AA?3?$AA?5?$AAD?$AAe?$AAc?$AAi?$AAd?$AAe?$AAB?$AAu?$AAf?$AAf?$AAe?$AAr?$AAS?$AAi?$AAz?$AAe?$AA?5?$AAf?$AAa?$AAi?$AAl?$AAe?$AAd?$AA?9?$AA?5?$AAi?$AAn?$AAp@| DCB "%"
	DCB	0x0, "s", 0x0, ":", 0x0, " ", 0x0, "D", 0x0, "e", 0x0, "c"
	DCB	0x0, "i", 0x0, "d", 0x0, "e", 0x0, "B", 0x0, "u", 0x0, "f"
	DCB	0x0, "f", 0x0, "e", 0x0, "r", 0x0, "S", 0x0, "i", 0x0, "z"
	DCB	0x0, "e", 0x0, " ", 0x0, "f", 0x0, "a", 0x0, "i", 0x0, "l"
	DCB	0x0, "e", 0x0, "d", 0x0, "-", 0x0, " ", 0x0, "i", 0x0, "n"
	DCB	0x0, "p", 0x0, "u", 0x0, "t", 0x0, " ", 0x0, "n", 0x0, "o"
	DCB	0x0, "t", 0x0, " ", 0x0, "c", 0x0, "o", 0x0, "n", 0x0, "n"
	DCB	0x0, "e", 0x0, "c", 0x0, "t", 0x0, "e", 0x0, "d", 0x0, 0xd
	DCB	0x0, 0xa, 0x0, 0x0, 0x0			; `string'

  00000			 AREA	 |.rdata|, DATA, READONLY
|??_C@_1DA@EHAILAEM@?$AA?$CF?$AAs?$AA?3?$AA?5?$AAD?$AAe?$AAc?$AAi?$AAd?$AAe?$AAB?$AAu?$AAf?$AAf?$AAe?$AAr?$AAS?$AAi?$AAz?$AAe?$AA?5?$AA?$AN?$AA?6?$AA?$AA@| DCB "%"
	DCB	0x0, "s", 0x0, ":", 0x0, " ", 0x0, "D", 0x0, "e", 0x0, "c"
	DCB	0x0, "i", 0x0, "d", 0x0, "e", 0x0, "B", 0x0, "u", 0x0, "f"
	DCB	0x0, "f", 0x0, "e", 0x0, "r", 0x0, "S", 0x0, "i", 0x0, "z"
	DCB	0x0, "e", 0x0, " ", 0x0, 0xd, 0x0, 0xa, 0x0, 0x0, 0x0 ; `string'
; Function compile flags: /Ogspy
; File c:\wince600\platform\z2170p\src\app\samplegrabber\samplegrabber.cpp

  00000			 AREA	 |.text|, CODE, ARM

  00000		 |?DecideBufferSize@CSampleGrabber@@UAAJPAUIMemAllocator@@PAU_AllocatorProperties@@@Z| PROC ; CSampleGrabber::DecideBufferSize

; 250  : {

  00000		 |$LN25@DecideBuff|
  00000	e92d40f0	 stmdb       sp!, {r4 - r7, lr}
  00004	e24dd010	 sub         sp, sp, #0x10
  00008		 |$M56172|
  00008	e1a06002	 mov         r6, r2
  0000c	e1a07001	 mov         r7, r1
  00010	e1a04000	 mov         r4, r0

; 251  : 
; 252  :     RETAILMSG(DBGZONE_INFO, (TEXT("%s: DecideBufferSize \r\n"), APP_NAME));

  00014	e59f5118	 ldr         r5, [pc, #0x118]
  00018	e595e440	 ldr         lr, [r5, #0x440]
  0001c	e31e0001	 tst         lr, #1
  00020	0a000003	 beq         |$LN7@DecideBuff|
  00024	e59f0104	 ldr         r0, [pc, #0x104]
  00028	e59f10f0	 ldr         r1, [pc, #0xF0]
  0002c	eb000000	 bl          NKDbgPrintfW
  00030	e595e440	 ldr         lr, [r5, #0x440]
  00034		 |$LN7@DecideBuff|

; 253  : 
; 254  :     if (m_pInput->IsConnected() == FALSE) {

  00034	e5943084	 ldr         r3, [r4, #0x84]
  00038	e5933018	 ldr         r3, [r3, #0x18]
  0003c	e3530000	 cmp         r3, #0
  00040	1a000006	 bne         |$LN4@DecideBuff|

; 255  :         RETAILMSG(DBGZONE_ERROR, (TEXT("%s: DecideBufferSize failed- input not connected\r\n"), APP_NAME));

  00044	e31e0008	 tst         lr, #8
  00048	159f00dc	 ldrne       r0, [pc, #0xDC]
  0004c	159f10cc	 ldrne       r1, [pc, #0xCC]
  00050	1b000000	 blne        NKDbgPrintfW
  00054	e3e0347f	 mvn         r3, #0x7F, 8

; 256  :         return E_UNEXPECTED;

  00058	e22348ff	 eor         r4, r3, #0xFF, 16
  0005c	ea00002b	 b           |$LN5@DecideBuff|
  00060		 |$LN4@DecideBuff|

; 257  :     }
; 258  : 
; 259  :     ASSERT(pAlloc);
; 260  :     ASSERT(pProperties);
; 261  :     HRESULT hr = NOERROR;
; 262  : 
; 263  :     pProperties->cBuffers = 1;

  00060	e3a03001	 mov         r3, #1
  00064	e5863000	 str         r3, [r6]

; 264  :     pProperties->cbBuffer = m_pInput->CurrentMediaType().GetSampleSize();

  00068	e5943084	 ldr         r3, [r4, #0x84]
  0006c	e283001c	 add         r0, r3, #0x1C
  00070	eb000000	 bl          |?GetSampleSize@CMediaType@@QBAKXZ|
  00074	e5860004	 str         r0, [r6, #4]

; 265  :     ASSERT(pProperties->cbBuffer);
; 266  : 
; 267  :     // Ask the allocator to reserve us some sample memory, NOTE the function
; 268  :     // can succeed (that is return NOERROR) but still not have allocated the
; 269  :     // memory that we requested, so we must check we got whatever we wanted
; 270  :     ALLOCATOR_PROPERTIES Actual;
; 271  :     hr = pAlloc->SetProperties(pProperties,&Actual);

  00078	e5973000	 ldr         r3, [r7]
  0007c	e28d2000	 add         r2, sp, #0
  00080	e1a01006	 mov         r1, r6
  00084	e593300c	 ldr         r3, [r3, #0xC]
  00088	e1a00007	 mov         r0, r7
  0008c	e1a0e00f	 mov         lr, pc
  00090	e12fff13	 bx          r3
  00094	e1b04000	 movs        r4, r0

; 272  :     if (FAILED(hr)) {

  00098	5a000006	 bpl         |$LN3@DecideBuff|

; 273  :         RETAILMSG(DBGZONE_ERROR, (TEXT("%s: DecideBufferSize failed- SetProperties failed\r\n"), APP_NAME));

  0009c	e5953440	 ldr         r3, [r5, #0x440]
  000a0	e3130008	 tst         r3, #8
  000a4	0a000019	 beq         |$LN5@DecideBuff|
  000a8	e59f0074	 ldr         r0, [pc, #0x74]
  000ac	e59f106c	 ldr         r1, [pc, #0x6C]
  000b0	eb000000	 bl          NKDbgPrintfW

; 274  :         return hr;

  000b4	ea000015	 b           |$LN5@DecideBuff|
  000b8		 |$LN3@DecideBuff|

; 275  :     }
; 276  : 
; 277  :     ASSERT( Actual.cBuffers >= 1 );
; 278  : 
; 279  :     if (pProperties->cBuffers > Actual.cBuffers ||
; 280  :         pProperties->cbBuffer > Actual.cbBuffer) {

  000b8	e5962000	 ldr         r2, [r6]
  000bc	e59d3000	 ldr         r3, [sp]
  000c0	e1520003	 cmp         r2, r3
  000c4	ca00000a	 bgt         |$LN1@DecideBuff|
  000c8	e5962004	 ldr         r2, [r6, #4]
  000cc	e59d3004	 ldr         r3, [sp, #4]
  000d0	e1520003	 cmp         r2, r3
  000d4	ca000006	 bgt         |$LN1@DecideBuff|

; 283  :     }
; 284  :     RETAILMSG(DBGZONE_INFO, (TEXT("%s: DecideBufferSize successful\r\n"), APP_NAME));

  000d8	e5953440	 ldr         r3, [r5, #0x440]
  000dc	e3130001	 tst         r3, #1
  000e0	159f0040	 ldrne       r0, [pc, #0x40]
  000e4	159f1034	 ldrne       r1, [pc, #0x34]
  000e8	1b000000	 blne        NKDbgPrintfW

; 285  :     return NOERROR;

  000ec	e3a04000	 mov         r4, #0
  000f0	ea000006	 b           |$LN5@DecideBuff|
  000f4		 |$LN1@DecideBuff|

; 281  :         RETAILMSG(DBGZONE_ERROR, (TEXT("%s: DecideBufferSize failed- SetProperties failed\r\n"), APP_NAME));

  000f4	e5953440	 ldr         r3, [r5, #0x440]
  000f8	e3130008	 tst         r3, #8
  000fc	159f0020	 ldrne       r0, [pc, #0x20]
  00100	159f1018	 ldrne       r1, [pc, #0x18]
  00104	1b000000	 blne        NKDbgPrintfW
  00108	e3a03116	 mov         r3, #0x16, 2

; 282  :         return E_FAIL;

  0010c	e3834901	 orr         r4, r3, #1, 18
  00110		 |$LN5@DecideBuff|

; 286  : }

  00110	e1a00004	 mov         r0, r4
  00114	e28dd010	 add         sp, sp, #0x10
  00118	e8bd40f0	 ldmia       sp!, {r4 - r7, lr}
  0011c	e12fff1e	 bx          lr
  00120		 |$LN26@DecideBuff|
  00120		 |$LN27@DecideBuff|
  00120	00000000	 DCD         |??_C@_1BO@LGJFMGDC@?$AAS?$AAa?$AAm?$AAp?$AAl?$AAe?$AA?5?$AAG?$AAr?$AAa?$AAb?$AAb?$AAe?$AAr?$AA?$AA@|
  00124		 |$LN28@DecideBuff|
  00124	00000000	 DCD         |??_C@_1GI@DPBDANGC@?$AA?$CF?$AAs?$AA?3?$AA?5?$AAD?$AAe?$AAc?$AAi?$AAd?$AAe?$AAB?$AAu?$AAf?$AAf?$AAe?$AAr?$AAS?$AAi?$AAz?$AAe?$AA?5?$AAf?$AAa?$AAi?$AAl?$AAe?$AAd?$AA?9?$AA?5?$AAS?$AAe?$AAt@|
  00128		 |$LN29@DecideBuff|
  00128	00000000	 DCD         |??_C@_1EE@PHLPOLPH@?$AA?$CF?$AAs?$AA?3?$AA?5?$AAD?$AAe?$AAc?$AAi?$AAd?$AAe?$AAB?$AAu?$AAf?$AAf?$AAe?$AAr?$AAS?$AAi?$AAz?$AAe?$AA?5?$AAs?$AAu?$AAc?$AAc?$AAe?$AAs?$AAs?$AAf?$AAu?$AAl?$AA?$AN@|
  0012c		 |$LN30@DecideBuff|
  0012c	00000000	 DCD         |??_C@_1GG@MGFLIKMO@?$AA?$CF?$AAs?$AA?3?$AA?5?$AAD?$AAe?$AAc?$AAi?$AAd?$AAe?$AAB?$AAu?$AAf?$AAf?$AAe?$AAr?$AAS?$AAi?$AAz?$AAe?$AA?5?$AAf?$AAa?$AAi?$AAl?$AAe?$AAd?$AA?9?$AA?5?$AAi?$AAn?$AAp@|
  00130		 |$LN31@DecideBuff|
  00130	00000000	 DCD         |??_C@_1DA@EHAILAEM@?$AA?$CF?$AAs?$AA?3?$AA?5?$AAD?$AAe?$AAc?$AAi?$AAd?$AAe?$AAB?$AAu?$AAf?$AAf?$AAe?$AAr?$AAS?$AAi?$AAz?$AAe?$AA?5?$AA?$AN?$AA?6?$AA?$AA@|
  00134		 |$LN32@DecideBuff|
  00134	00000000	 DCD         |?dpCurSettings@@3U_DBGPARAM@@A|
  00138		 |$M56173|

			 ENDP  ; |?DecideBufferSize@CSampleGrabber@@UAAJPAUIMemAllocator@@PAU_AllocatorProperties@@@Z|, CSampleGrabber::DecideBufferSize

	EXPORT	|??_C@_1DM@EOBPLANG@?$AA?$CF?$AAs?$AA?3?$AA?5?$AAG?$AAe?$AAt?$AAM?$AAe?$AAd?$AAi?$AAa?$AAT?$AAy?$AAp?$AAe?$AA?5?$AAs?$AAu?$AAc?$AAc?$AAe?$AAs?$AAs?$AAf?$AAu?$AAl?$AA?$AN?$AA?6?$AA?$AA@| [ DATA ] ; `string'
	EXPORT	|??_C@_1FE@BFMOPDB@?$AA?$CF?$AAs?$AA?3?$AA?5?$AAG?$AAe?$AAt?$AAM?$AAe?$AAd?$AAi?$AAa?$AAT?$AAy?$AAp?$AAe?$AA?9?$AA?5?$AAE?$AAR?$AAR?$AAO?$AAR?$AA?5?$AA?9?$AA?5?$AAi?$AAP?$AAo?$AAs?$AAi?$AAt@| [ DATA ] ; `string'
	EXPORT	|??_C@_1FE@ONGHHBKO@?$AA?$CF?$AAs?$AA?3?$AA?5?$AAG?$AAe?$AAt?$AAM?$AAe?$AAd?$AAi?$AAa?$AAT?$AAy?$AAp?$AAe?$AA?9?$AA?5?$AAE?$AAR?$AAR?$AAO?$AAR?$AA?5?$AA?9?$AA?5?$AAi?$AAP?$AAo?$AAs?$AAi?$AAt@| [ DATA ] ; `string'
	EXPORT	|??_C@_1GI@IHPDDOMM@?$AA?$CF?$AAs?$AA?3?$AA?5?$AAG?$AAe?$AAt?$AAM?$AAe?$AAd?$AAi?$AAa?$AAT?$AAy?$AAp?$AAe?$AA?9?$AA?5?$AAE?$AAR?$AAR?$AAO?$AAR?$AA?5?$AA?9?$AA?5?$AAi?$AAn?$AAp?$AAu?$AAt?$AA?5@| [ DATA ] ; `string'
	EXPORT	|??_C@_1CG@LKNDFBP@?$AA?$CF?$AAs?$AA?3?$AA?5?$AAG?$AAe?$AAt?$AAM?$AAe?$AAd?$AAi?$AAa?$AAT?$AAy?$AAp?$AAe?$AA?5?$AA?6?$AA?$AA@| [ DATA ] ; `string'
	IMPORT	|??4CMediaType@@QAAAAV0@ABV0@@Z|	; CMediaType::operator=
; File c:\wince600\public\directx\sdk\inc\transfrm.h

  00000			 AREA	 |.pdata|, PDATA
|$T56215| DCD	|$LN25@GetMediaTy|
	DCD	0x40003d01

  00000			 AREA	 |.rdata|, DATA, READONLY
|??_C@_1DM@EOBPLANG@?$AA?$CF?$AAs?$AA?3?$AA?5?$AAG?$AAe?$AAt?$AAM?$AAe?$AAd?$AAi?$AAa?$AAT?$AAy?$AAp?$AAe?$AA?5?$AAs?$AAu?$AAc?$AAc?$AAe?$AAs?$AAs?$AAf?$AAu?$AAl?$AA?$AN?$AA?6?$AA?$AA@| DCB "%"
	DCB	0x0, "s", 0x0, ":", 0x0, " ", 0x0, "G", 0x0, "e", 0x0, "t"
	DCB	0x0, "M", 0x0, "e", 0x0, "d", 0x0, "i", 0x0, "a", 0x0, "T"
	DCB	0x0, "y", 0x0, "p", 0x0, "e", 0x0, " ", 0x0, "s", 0x0, "u"
	DCB	0x0, "c", 0x0, "c", 0x0, "e", 0x0, "s", 0x0, "s", 0x0, "f"
	DCB	0x0, "u", 0x0, "l", 0x0, 0xd, 0x0, 0xa, 0x0, 0x0, 0x0 ; `string'

  00000			 AREA	 |.rdata|, DATA, READONLY
|??_C@_1FE@BFMOPDB@?$AA?$CF?$AAs?$AA?3?$AA?5?$AAG?$AAe?$AAt?$AAM?$AAe?$AAd?$AAi?$AAa?$AAT?$AAy?$AAp?$AAe?$AA?9?$AA?5?$AAE?$AAR?$AAR?$AAO?$AAR?$AA?5?$AA?9?$AA?5?$AAi?$AAP?$AAo?$AAs?$AAi?$AAt@| DCB "%"
	DCB	0x0, "s", 0x0, ":", 0x0, " ", 0x0, "G", 0x0, "e", 0x0, "t"
	DCB	0x0, "M", 0x0, "e", 0x0, "d", 0x0, "i", 0x0, "a", 0x0, "T"
	DCB	0x0, "y", 0x0, "p", 0x0, "e", 0x0, "-", 0x0, " ", 0x0, "E"
	DCB	0x0, "R", 0x0, "R", 0x0, "O", 0x0, "R", 0x0, " ", 0x0, "-"
	DCB	0x0, " ", 0x0, "i", 0x0, "P", 0x0, "o", 0x0, "s", 0x0, "i"
	DCB	0x0, "t", 0x0, "i", 0x0, "o", 0x0, "n", 0x0, " ", 0x0, ">"
	DCB	0x0, " ", 0x0, "0", 0x0, 0xd, 0x0, 0xa, 0x0, 0x0, 0x0 ; `string'

  00000			 AREA	 |.rdata|, DATA, READONLY
|??_C@_1FE@ONGHHBKO@?$AA?$CF?$AAs?$AA?3?$AA?5?$AAG?$AAe?$AAt?$AAM?$AAe?$AAd?$AAi?$AAa?$AAT?$AAy?$AAp?$AAe?$AA?9?$AA?5?$AAE?$AAR?$AAR?$AAO?$AAR?$AA?5?$AA?9?$AA?5?$AAi?$AAP?$AAo?$AAs?$AAi?$AAt@| DCB "%"
	DCB	0x0, "s", 0x0, ":", 0x0, " ", 0x0, "G", 0x0, "e", 0x0, "t"
	DCB	0x0, "M", 0x0, "e", 0x0, "d", 0x0, "i", 0x0, "a", 0x0, "T"
	DCB	0x0, "y", 0x0, "p", 0x0, "e", 0x0, "-", 0x0, " ", 0x0, "E"
	DCB	0x0, "R", 0x0, "R", 0x0, "O", 0x0, "R", 0x0, " ", 0x0, "-"
	DCB	0x0, " ", 0x0, "i", 0x0, "P", 0x0, "o", 0x0, "s", 0x0, "i"
	DCB	0x0, "t", 0x0, "i", 0x0, "o", 0x0, "n", 0x0, " ", 0x0, "<"
	DCB	0x0, " ", 0x0, "0", 0x0, 0xd, 0x0, 0xa, 0x0, 0x0, 0x0 ; `string'

  00000			 AREA	 |.rdata|, DATA, READONLY
|??_C@_1GI@IHPDDOMM@?$AA?$CF?$AAs?$AA?3?$AA?5?$AAG?$AAe?$AAt?$AAM?$AAe?$AAd?$AAi?$AAa?$AAT?$AAy?$AAp?$AAe?$AA?9?$AA?5?$AAE?$AAR?$AAR?$AAO?$AAR?$AA?5?$AA?9?$AA?5?$AAi?$AAn?$AAp?$AAu?$AAt?$AA?5@| DCB "%"
	DCB	0x0, "s", 0x0, ":", 0x0, " ", 0x0, "G", 0x0, "e", 0x0, "t"
	DCB	0x0, "M", 0x0, "e", 0x0, "d", 0x0, "i", 0x0, "a", 0x0, "T"
	DCB	0x0, "y", 0x0, "p", 0x0, "e", 0x0, "-", 0x0, " ", 0x0, "E"
	DCB	0x0, "R", 0x0, "R", 0x0, "O", 0x0, "R", 0x0, " ", 0x0, "-"
	DCB	0x0, " ", 0x0, "i", 0x0, "n", 0x0, "p", 0x0, "u", 0x0, "t"
	DCB	0x0, " ", 0x0, "p", 0x0, "i", 0x0, "n", 0x0, " ", 0x0, "n"
	DCB	0x0, "o", 0x0, "t", 0x0, " ", 0x0, "c", 0x0, "o", 0x0, "n"
	DCB	0x0, "n", 0x0, "e", 0x0, "c", 0x0, "t", 0x0, "e", 0x0, "d"
	DCB	0x0, 0xd, 0x0, 0xa, 0x0, 0x0, 0x0	; `string'

  00000			 AREA	 |.rdata|, DATA, READONLY
|??_C@_1CG@LKNDFBP@?$AA?$CF?$AAs?$AA?3?$AA?5?$AAG?$AAe?$AAt?$AAM?$AAe?$AAd?$AAi?$AAa?$AAT?$AAy?$AAp?$AAe?$AA?5?$AA?6?$AA?$AA@| DCB "%"
	DCB	0x0, "s", 0x0, ":", 0x0, " ", 0x0, "G", 0x0, "e", 0x0, "t"
	DCB	0x0, "M", 0x0, "e", 0x0, "d", 0x0, "i", 0x0, "a", 0x0, "T"
	DCB	0x0, "y", 0x0, "p", 0x0, "e", 0x0, " ", 0x0, 0xa, 0x0, 0x0
	DCB	0x0					; `string'
; Function compile flags: /Ogspy
; File c:\wince600\platform\z2170p\src\app\samplegrabber\samplegrabber.cpp

  00000			 AREA	 |.text|, CODE, ARM

  00000		 |?GetMediaType@CSampleGrabber@@UAAJHPAVCMediaType@@@Z| PROC ; CSampleGrabber::GetMediaType

; 290  : {

  00000		 |$LN25@GetMediaTy|
  00000	e92d40f0	 stmdb       sp!, {r4 - r7, lr}
  00004		 |$M56212|
  00004	e1a07002	 mov         r7, r2
  00008	e1a04001	 mov         r4, r1
  0000c	e1a06000	 mov         r6, r0

; 291  :     
; 292  :     RETAILMSG(DBGZONE_INFO, (TEXT("%s: GetMediaType \n"), APP_NAME));

  00010	e59f50d8	 ldr         r5, [pc, #0xD8]
  00014	e595e440	 ldr         lr, [r5, #0x440]
  00018	e31e0001	 tst         lr, #1
  0001c	0a000003	 beq         |$LN6@GetMediaTy|
  00020	e59f00c4	 ldr         r0, [pc, #0xC4]
  00024	e59f10a4	 ldr         r1, [pc, #0xA4]
  00028	eb000000	 bl          NKDbgPrintfW
  0002c	e595e440	 ldr         lr, [r5, #0x440]
  00030		 |$LN6@GetMediaTy|

; 293  :     // Is the input pin connected
; 294  :     if (m_pInput->IsConnected() == FALSE) {

  00030	e5961084	 ldr         r1, [r6, #0x84]
  00034	e5913018	 ldr         r3, [r1, #0x18]
  00038	e3530000	 cmp         r3, #0
  0003c	1a000007	 bne         |$LN3@GetMediaTy|

; 295  :         RETAILMSG(DBGZONE_ERROR, (TEXT("%s: GetMediaType- ERROR - input pin not connected\r\n"), APP_NAME));

  00040	e31e0008	 tst         lr, #8
  00044	159f009c	 ldrne       r0, [pc, #0x9C]
  00048	159f1080	 ldrne       r1, [pc, #0x80]
  0004c	1b000000	 blne        NKDbgPrintfW
  00050	e3e0347f	 mvn         r3, #0x7F, 8

; 296  :         return E_UNEXPECTED;

  00054	e22308ff	 eor         r0, r3, #0xFF, 16

; 315  : }

  00058	e8bd40f0	 ldmia       sp!, {r4 - r7, lr}
  0005c	e12fff1e	 bx          lr
  00060		 |$LN3@GetMediaTy|

; 297  :     }
; 298  : 
; 299  :     // This should never happen
; 300  :     if (iPosition < 0) {

  00060	e3540000	 cmp         r4, #0
  00064	5a000006	 bpl         |$LN22@GetMediaTy|

; 301  :         RETAILMSG(DBGZONE_ERROR, (TEXT("%s: GetMediaType- ERROR - iPosition < 0\r\n"), APP_NAME));

  00068	e31e0008	 tst         lr, #8
  0006c	159f0070	 ldrne       r0, [pc, #0x70]
  00070	159f1058	 ldrne       r1, [pc, #0x58]
  00074	1b000000	 blne        NKDbgPrintfW

; 302  :         return E_INVALIDARG;

  00078	e59f0060	 ldr         r0, [pc, #0x60]

; 315  : }

  0007c	e8bd40f0	 ldmia       sp!, {r4 - r7, lr}
  00080	e12fff1e	 bx          lr
  00084		 |$LN22@GetMediaTy|

; 303  :     }
; 304  : 
; 305  :     // Do we have more items to offer
; 306  :     if (iPosition > 0) {

  00084	da000006	 ble         |$LN1@GetMediaTy|

; 307  :         RETAILMSG(DBGZONE_ERROR, (TEXT("%s: GetMediaType- ERROR - iPosition > 0\r\n"), APP_NAME));

  00088	e31e0008	 tst         lr, #8
  0008c	159f0048	 ldrne       r0, [pc, #0x48]
  00090	159f1038	 ldrne       r1, [pc, #0x38]
  00094	1b000000	 blne        NKDbgPrintfW

; 308  :         return VFW_S_NO_MORE_ITEMS;

  00098	e59f0038	 ldr         r0, [pc, #0x38]

; 315  : }

  0009c	e8bd40f0	 ldmia       sp!, {r4 - r7, lr}
  000a0	e12fff1e	 bx          lr
  000a4		 |$LN1@GetMediaTy|

; 309  :     }
; 310  : 
; 311  :     *pMediaType = m_pInput->CurrentMediaType();

  000a4	e281101c	 add         r1, r1, #0x1C
  000a8	e1a00007	 mov         r0, r7
  000ac	eb000000	 bl          |??4CMediaType@@QAAAAV0@ABV0@@Z|

; 312  :     
; 313  :     RETAILMSG(DBGZONE_INFO, (TEXT("%s: GetMediaType successful\r\n"), APP_NAME));

  000b0	e5953440	 ldr         r3, [r5, #0x440]
  000b4	e3130001	 tst         r3, #1
  000b8	159f0014	 ldrne       r0, [pc, #0x14]
  000bc	159f100c	 ldrne       r1, [pc, #0xC]
  000c0	1b000000	 blne        NKDbgPrintfW

; 314  :     return NOERROR;

  000c4	e3a00000	 mov         r0, #0

; 315  : }

  000c8	e8bd40f0	 ldmia       sp!, {r4 - r7, lr}
  000cc	e12fff1e	 bx          lr
  000d0		 |$LN26@GetMediaTy|
  000d0		 |$LN27@GetMediaTy|
  000d0	00000000	 DCD         |??_C@_1BO@LGJFMGDC@?$AAS?$AAa?$AAm?$AAp?$AAl?$AAe?$AA?5?$AAG?$AAr?$AAa?$AAb?$AAb?$AAe?$AAr?$AA?$AA@|
  000d4		 |$LN28@GetMediaTy|
  000d4	00000000	 DCD         |??_C@_1DM@EOBPLANG@?$AA?$CF?$AAs?$AA?3?$AA?5?$AAG?$AAe?$AAt?$AAM?$AAe?$AAd?$AAi?$AAa?$AAT?$AAy?$AAp?$AAe?$AA?5?$AAs?$AAu?$AAc?$AAc?$AAe?$AAs?$AAs?$AAf?$AAu?$AAl?$AA?$AN?$AA?6?$AA?$AA@|
  000d8		 |$LN29@GetMediaTy|
  000d8	00040103	 DCD         0x40103
  000dc		 |$LN30@GetMediaTy|
  000dc	00000000	 DCD         |??_C@_1FE@BFMOPDB@?$AA?$CF?$AAs?$AA?3?$AA?5?$AAG?$AAe?$AAt?$AAM?$AAe?$AAd?$AAi?$AAa?$AAT?$AAy?$AAp?$AAe?$AA?9?$AA?5?$AAE?$AAR?$AAR?$AAO?$AAR?$AA?5?$AA?9?$AA?5?$AAi?$AAP?$AAo?$AAs?$AAi?$AAt@|
  000e0		 |$LN31@GetMediaTy|
  000e0	80070057	 DCD         0x80070057
  000e4		 |$LN32@GetMediaTy|
  000e4	00000000	 DCD         |??_C@_1FE@ONGHHBKO@?$AA?$CF?$AAs?$AA?3?$AA?5?$AAG?$AAe?$AAt?$AAM?$AAe?$AAd?$AAi?$AAa?$AAT?$AAy?$AAp?$AAe?$AA?9?$AA?5?$AAE?$AAR?$AAR?$AAO?$AAR?$AA?5?$AA?9?$AA?5?$AAi?$AAP?$AAo?$AAs?$AAi?$AAt@|
  000e8		 |$LN33@GetMediaTy|
  000e8	00000000	 DCD         |??_C@_1GI@IHPDDOMM@?$AA?$CF?$AAs?$AA?3?$AA?5?$AAG?$AAe?$AAt?$AAM?$AAe?$AAd?$AAi?$AAa?$AAT?$AAy?$AAp?$AAe?$AA?9?$AA?5?$AAE?$AAR?$AAR?$AAO?$AAR?$AA?5?$AA?9?$AA?5?$AAi?$AAn?$AAp?$AAu?$AAt?$AA?5@|
  000ec		 |$LN34@GetMediaTy|
  000ec	00000000	 DCD         |??_C@_1CG@LKNDFBP@?$AA?$CF?$AAs?$AA?3?$AA?5?$AAG?$AAe?$AAt?$AAM?$AAe?$AAd?$AAi?$AAa?$AAT?$AAy?$AAp?$AAe?$AA?5?$AA?6?$AA?$AA@|
  000f0		 |$LN35@GetMediaTy|
  000f0	00000000	 DCD         |?dpCurSettings@@3U_DBGPARAM@@A|
  000f4		 |$M56213|

			 ENDP  ; |?GetMediaType@CSampleGrabber@@UAAJHPAVCMediaType@@@Z|, CSampleGrabber::GetMediaType


  00000			 AREA	 |.pdata|, PDATA
|$T56236| DCD	|$LN5@RegisterCa|
	DCD	0x40000300
; Function compile flags: /Ogspy

  00000			 AREA	 |.text|, CODE, ARM

  00000		 |?RegisterCallback@CSampleGrabber@@UAAJP6AXPAUIMediaSample@@@Z@Z| PROC ; CSampleGrabber::RegisterCallback

; 320  : {

  00000		 |$LN5@RegisterCa|
  00000		 |$M56233|

; 321  :     // Set pointer to managed delegate
; 322  :     callback = mdelegate;

  00000	e5801004	 str         r1, [r0, #4]

; 323  :     return S_OK;

  00004	e3a00000	 mov         r0, #0

; 324  : }

  00008	e12fff1e	 bx          lr
  0000c		 |$M56234|

			 ENDP  ; |?RegisterCallback@CSampleGrabber@@UAAJP6AXPAUIMediaSample@@@Z@Z|, CSampleGrabber::RegisterCallback

	EXPORT	|??1CTransformInputPin@@UAA@XZ|		; CTransformInputPin::~CTransformInputPin
	IMPORT	|??1CBaseInputPin@@UAA@XZ|		; CBaseInputPin::~CBaseInputPin

  00000			 AREA	 |.pdata|, PDATA
|$T56244| DCD	|$LN5@CTransform|
	DCD	0x40000401
; Function compile flags: /Ogspy

  00000			 AREA	 |.text|, CODE, ARM

  00000		 |??1CTransformInputPin@@UAA@XZ| PROC	; CTransformInputPin::~CTransformInputPin
  00000		 |$LN5@CTransform|
  00000	e52de004	 str         lr, [sp, #-4]!
  00004		 |$M56241|
  00004	eb000000	 bl          |??1CBaseInputPin@@UAA@XZ|
  00008	e49de004	 ldr         lr, [sp], #4
  0000c	e12fff1e	 bx          lr
  00010		 |$M56242|

			 ENDP  ; |??1CTransformInputPin@@UAA@XZ|, CTransformInputPin::~CTransformInputPin

	EXPORT	|?EnumMediaTypes@CSampleGrabberInputPin@@UAAJPAPAUIEnumMediaTypes@@@Z| ; CSampleGrabberInputPin::EnumMediaTypes
	IMPORT	|?EnumMediaTypes@CTransInPlaceInputPin@@UAAJPAPAUIEnumMediaTypes@@@Z| ; CTransInPlaceInputPin::EnumMediaTypes
	IMPORT	|?EnumMediaTypes@CBasePin@@UAAJPAPAUIEnumMediaTypes@@@Z| ; CBasePin::EnumMediaTypes
; File c:\wince600\public\directx\sdk\inc\amfilter.h

  00000			 AREA	 |.pdata|, PDATA
|$T56262| DCD	|$LN10@EnumMediaT|
	DCD	0x40000c01
; Function compile flags: /Ogspy
; File c:\wince600\platform\z2170p\src\app\samplegrabber\samplegrabber.cpp

  00000			 AREA	 |.text|, CODE, ARM

  00000		 |?EnumMediaTypes@CSampleGrabberInputPin@@UAAJPAPAUIEnumMediaTypes@@@Z| PROC ; CSampleGrabberInputPin::EnumMediaTypes

; 350  : {

  00000		 |$LN10@EnumMediaT|
  00000	e52de004	 str         lr, [sp, #-4]!
  00004		 |$M56259|

; 351  :     // Can only pass through if connected
; 352  :     if(!m_pGrabberFilter->m_pOutput->IsConnected())

  00004	e59030dc	 ldr         r3, [r0, #0xDC]
  00008	e5933088	 ldr         r3, [r3, #0x88]
  0000c	e5933018	 ldr         r3, [r3, #0x18]
  00010	e3530000	 cmp         r3, #0
  00014	1a000002	 bne         |$LN1@EnumMediaT|

; 353  :         return CBasePin::EnumMediaTypes(ppEnum);

  00018	eb000000	 bl          |?EnumMediaTypes@CBasePin@@UAAJPAPAUIEnumMediaTypes@@@Z|

; 356  : 
; 357  : }

  0001c	e49de004	 ldr         lr, [sp], #4
  00020	e12fff1e	 bx          lr
  00024		 |$LN1@EnumMediaT|

; 354  : 
; 355  :     return CTransInPlaceInputPin::EnumMediaTypes(ppEnum);

  00024	eb000000	 bl          |?EnumMediaTypes@CTransInPlaceInputPin@@UAAJPAPAUIEnumMediaTypes@@@Z|

; 356  : 
; 357  : }

  00028	e49de004	 ldr         lr, [sp], #4
  0002c	e12fff1e	 bx          lr
  00030		 |$M56260|

			 ENDP  ; |?EnumMediaTypes@CSampleGrabberInputPin@@UAAJPAPAUIEnumMediaTypes@@@Z|, CSampleGrabberInputPin::EnumMediaTypes

	EXPORT	|__$ArrayPad$| [ DATA ]
	EXPORT	|?GetMediaType@CSampleGrabberInputPin@@UAAJHPAVCMediaType@@@Z| ; CSampleGrabberInputPin::GetMediaType
	EXPORT	|??_C@_1KE@PCALAGNG@?$AAC?$AAS?$AAa?$AAm?$AAp?$AAl?$AAe?$AAG?$AAr?$AAa?$AAb?$AAb?$AAe?$AAr?$AAI?$AAn?$AAp?$AAu?$AAt?$AAP?$AAi?$AAn?$AA?3?$AA?3?$AAG?$AAe?$AAt?$AAM?$AAe?$AAd?$AAi?$AAa@| [ DATA ] ; `string'
	EXPORT	|??_C@_1GO@FGDCJPAI@?$AAC?$AAS?$AAa?$AAm?$AAp?$AAl?$AAe?$AAG?$AAr?$AAa?$AAb?$AAb?$AAe?$AAr?$AAI?$AAn?$AAp?$AAu?$AAt?$AAP?$AAi?$AAn?$AA?3?$AA?3?$AAG?$AAe?$AAt?$AAM?$AAe?$AAd?$AAi?$AAa@| [ DATA ] ; `string'
	IMPORT	|?SetVariableSize@CMediaType@@QAAXXZ|	; CMediaType::SetVariableSize
	IMPORT	|?SetSampleSize@CMediaType@@QAAXK@Z|	; CMediaType::SetSampleSize
	IMPORT	|?SetSubtype@CMediaType@@QAAXPBU_GUID@@@Z| ; CMediaType::SetSubtype
	IMPORT	|GetBitmapSubtype|
	IMPORT	|?SetTemporalCompression@CMediaType@@QAAXH@Z| ; CMediaType::SetTemporalCompression
	IMPORT	|?SetFormatType@CMediaType@@QAAXPBU_GUID@@@Z| ; CMediaType::SetFormatType
	IMPORT	|?SetType@CMediaType@@QAAXPBU_GUID@@@Z|	; CMediaType::SetType
	IMPORT	|GetBitmapSize|
	IMPORT	|SetRectEmpty|
	IMPORT	|?AllocFormatBuffer@CMediaType@@QAAPAEK@Z| ; CMediaType::AllocFormatBuffer
	IMPORT	|?InitMediaType@CMediaType@@QAAXXZ|	; CMediaType::InitMediaType
	IMPORT	|?FreeMediaType@@YAXAAU_AMMediaType@@@Z| ; FreeMediaType
	IMPORT	|__GSHandlerCheck|
	IMPORT	|FORMAT_VideoInfo|
	IMPORT	|__security_cookie|
	IMPORT	|__security_check_cookie|

  00000			 AREA	 |.pdata|, PDATA
|$T56288| DCD	|$LN17@GetMediaTy@2|
	DCD	0xc0007b02

  00000			 AREA	 |.xdata|, DATA
|$T56284| DCD	0xffffffec

  00000			 AREA	 |.rdata|, DATA, READONLY
|??_C@_1KE@PCALAGNG@?$AAC?$AAS?$AAa?$AAm?$AAp?$AAl?$AAe?$AAG?$AAr?$AAa?$AAb?$AAb?$AAe?$AAr?$AAI?$AAn?$AAp?$AAu?$AAt?$AAP?$AAi?$AAn?$AA?3?$AA?3?$AAG?$AAe?$AAt?$AAM?$AAe?$AAd?$AAi?$AAa@| DCB "C"
	DCB	0x0, "S", 0x0, "a", 0x0, "m", 0x0, "p", 0x0, "l", 0x0, "e"
	DCB	0x0, "G", 0x0, "r", 0x0, "a", 0x0, "b", 0x0, "b", 0x0, "e"
	DCB	0x0, "r", 0x0, "I", 0x0, "n", 0x0, "p", 0x0, "u", 0x0, "t"
	DCB	0x0, "P", 0x0, "i", 0x0, "n", 0x0, ":", 0x0, ":", 0x0, "G"
	DCB	0x0, "e", 0x0, "t", 0x0, "M", 0x0, "e", 0x0, "d", 0x0, "i"
	DCB	0x0, "a", 0x0, "T", 0x0, "y", 0x0, "p", 0x0, "e", 0x0, " "
	DCB	0x0, ":", 0x0, " ", 0x0, "E", 0x0, "R", 0x0, "R", 0x0, "O"
	DCB	0x0, "R", 0x0, " ", 0x0, "-", 0x0, " ", 0x0, "I", 0x0, "n"
	DCB	0x0, "v", 0x0, "a", 0x0, "l", 0x0, "i", 0x0, "d", 0x0, " "
	DCB	0x0, "m", 0x0, "e", 0x0, "d", 0x0, "i", 0x0, "a", 0x0, " "
	DCB	0x0, "t", 0x0, "y", 0x0, "p", 0x0, "e", 0x0, " ", 0x0, "p"
	DCB	0x0, "o", 0x0, "s", 0x0, "i", 0x0, "t", 0x0, "i", 0x0, "o"
	DCB	0x0, "n", 0x0, " ", 0x0, "%", 0x0, "d", 0x0, "!", 0x0, " "
	DCB	0x0, 0xd, 0x0, 0xa, 0x0, 0x0, 0x0	; `string'

  00000			 AREA	 |.rdata|, DATA, READONLY
|??_C@_1GO@FGDCJPAI@?$AAC?$AAS?$AAa?$AAm?$AAp?$AAl?$AAe?$AAG?$AAr?$AAa?$AAb?$AAb?$AAe?$AAr?$AAI?$AAn?$AAp?$AAu?$AAt?$AAP?$AAi?$AAn?$AA?3?$AA?3?$AAG?$AAe?$AAt?$AAM?$AAe?$AAd?$AAi?$AAa@| DCB "C"
	DCB	0x0, "S", 0x0, "a", 0x0, "m", 0x0, "p", 0x0, "l", 0x0, "e"
	DCB	0x0, "G", 0x0, "r", 0x0, "a", 0x0, "b", 0x0, "b", 0x0, "e"
	DCB	0x0, "r", 0x0, "I", 0x0, "n", 0x0, "p", 0x0, "u", 0x0, "t"
	DCB	0x0, "P", 0x0, "i", 0x0, "n", 0x0, ":", 0x0, ":", 0x0, "G"
	DCB	0x0, "e", 0x0, "t", 0x0, "M", 0x0, "e", 0x0, "d", 0x0, "i"
	DCB	0x0, "a", 0x0, "T", 0x0, "y", 0x0, "p", 0x0, "e", 0x0, " "
	DCB	0x0, "f", 0x0, "o", 0x0, "r", 0x0, " ", 0x0, "p", 0x0, "o"
	DCB	0x0, "s", 0x0, "i", 0x0, "t", 0x0, "i", 0x0, "o", 0x0, "n"
	DCB	0x0, " ", 0x0, "%", 0x0, "d", 0x0, 0xd, 0x0, 0xa, 0x0, 0x0
	DCB	0x0					; `string'
; Function compile flags: /Ogspy

  00000			 AREA	 |.text|, CODE, ARM

  00000	00000000	 DCD         |__GSHandlerCheck|
  00004	00000000	 DCD         |$T56284|

  00008		 |?GetMediaType@CSampleGrabberInputPin@@UAAJHPAVCMediaType@@@Z| PROC ; CSampleGrabberInputPin::GetMediaType

; 362  : {

  00008		 |$LN17@GetMediaTy@2|
  00008	e92d4070	 stmdb       sp!, {r4 - r6, lr}
  0000c	e24dd024	 sub         sp, sp, #0x24
  00010		 |$M56285|
  00010	e1a05002	 mov         r5, r2
  00014	e1a06001	 mov         r6, r1
  00018	e59f31d0	 ldr         r3, [pc, #0x1D0]
  0001c	e5933000	 ldr         r3, [r3]
  00020	e58d3020	 str         r3, [sp, #0x20]

; 363  : 
; 364  :     RETAILMSG(DBGZONE_INFO, (TEXT("CSampleGrabberInputPin::GetMediaType for position %d\r\n"), iPosition));

  00024	e59f41c0	 ldr         r4, [pc, #0x1C0]
  00028	e5943440	 ldr         r3, [r4, #0x440]
  0002c	e3130001	 tst         r3, #1
  00030	159f01b0	 ldrne       r0, [pc, #0x1B0]
  00034	1b000000	 blne        NKDbgPrintfW

; 365  :     CheckPointer(pMediaType,E_POINTER);

  00038	e3550000	 cmp         r5, #0
  0003c	1a000004	 bne         |$LN7@GetMediaTy@2|
  00040	e59d0020	 ldr         r0, [sp, #0x20]
  00044	eb000000	 bl          __security_check_cookie
  00048	e3a0310e	 mov         r3, #0xE, 2
  0004c	e3830901	 orr         r0, r3, #1, 18
  00050	ea00005a	 b           |$LN8@GetMediaTy@2|
  00054		 |$LN7@GetMediaTy@2|

; 366  : 
; 367  :     FreeMediaType(*pMediaType);

  00054	e1a00005	 mov         r0, r5
  00058	eb000000	 bl          |?FreeMediaType@@YAXAAU_AMMediaType@@@Z|

; 368  :     pMediaType->InitMediaType();

  0005c	e1a00005	 mov         r0, r5
  00060	eb000000	 bl          |?InitMediaType@CMediaType@@QAAXXZ|

; 369  :     VIDEOINFOHEADER *p_vih = NULL;
; 370  : 
; 371  : 
; 372  :     if (iPosition < 0 ) { 

  00064	e3560000	 cmp         r6, #0
  00068	5a000008	 bpl         |$LN6@GetMediaTy@2|

; 373  :         RETAILMSG(DBGZONE_ERROR, 
; 374  :             (TEXT("CSampleGrabberInputPin::GetMediaType : ERROR - Invalid media type position %d! \r\n"), 
; 375  :             iPosition));

  0006c	e5943440	 ldr         r3, [r4, #0x440]
  00070	e3130008	 tst         r3, #8
  00074	159f0168	 ldrne       r0, [pc, #0x168]
  00078	11a01006	 movne       r1, r6
  0007c	1b000000	 blne        NKDbgPrintfW

; 376  :         return E_INVALIDARG;

  00080	e59d0020	 ldr         r0, [sp, #0x20]
  00084	eb000000	 bl          __security_check_cookie
  00088	e59f0150	 ldr         r0, [pc, #0x150]
  0008c	ea00004b	 b           |$LN8@GetMediaTy@2|
  00090		 |$LN6@GetMediaTy@2|

; 377  :     }
; 378  : 
; 379  :     p_vih = (VIDEOINFOHEADER*) pMediaType->AllocFormatBuffer(sizeof(VIDEOINFOHEADER));

  00090	e3a01058	 mov         r1, #0x58
  00094	e1a00005	 mov         r0, r5
  00098	eb000000	 bl          |?AllocFormatBuffer@CMediaType@@QAAPAEK@Z|
  0009c	e1a04000	 mov         r4, r0

; 380  :     p_vih->bmiHeader.biBitCount       = 16;

  000a0	e3a03010	 mov         r3, #0x10

; 381  :     p_vih->bmiHeader.biSize           = sizeof(BITMAPINFOHEADER);
; 382  :     p_vih->bmiHeader.biWidth          = 0;
; 383  :     p_vih->bmiHeader.biHeight         = 0;
; 384  :     p_vih->bmiHeader.biPlanes         = 1;

  000a4	e1c433be	 strh        r3, [r4, #0x3E]
  000a8	e3a03000	 mov         r3, #0
  000ac	e3a02028	 mov         r2, #0x28
  000b0	e3a01001	 mov         r1, #1
  000b4	e5843034	 str         r3, [r4, #0x34]
  000b8	e5843038	 str         r3, [r4, #0x38]

; 385  :     p_vih->bmiHeader.biClrImportant   = 0;

  000bc	e5843054	 str         r3, [r4, #0x54]

; 386  :     p_vih->bmiHeader.biClrUsed        = 0;

  000c0	e5843050	 str         r3, [r4, #0x50]

; 387  :     p_vih->bmiHeader.biXPelsPerMeter  = 0;

  000c4	e5843048	 str         r3, [r4, #0x48]

; 388  :     p_vih->bmiHeader.biYPelsPerMeter  = 0;

  000c8	e584304c	 str         r3, [r4, #0x4C]

; 389  :     p_vih->dwBitRate                  = 0;

  000cc	e5843020	 str         r3, [r4, #0x20]

; 390  :     p_vih->dwBitErrorRate             = 0;

  000d0	e5843024	 str         r3, [r4, #0x24]

; 391  :     p_vih->AvgTimePerFrame            = 0;

  000d4	e5843028	 str         r3, [r4, #0x28]
  000d8	e584302c	 str         r3, [r4, #0x2C]
  000dc	e5842030	 str         r2, [r4, #0x30]
  000e0	e1c413bc	 strh        r1, [r4, #0x3C]

; 392  : 
; 393  :     switch (iPosition) {

  000e4	e3560000	 cmp         r6, #0
  000e8	0a000009	 beq         |$LN3@GetMediaTy@2|
  000ec	e3560001	 cmp         r6, #1
  000f0	0a000005	 beq         |$LN2@GetMediaTy@2|

; 402  : 
; 403  :         default: // should never get here
; 404  :             FreeMediaType(*pMediaType);

  000f4	e1a00005	 mov         r0, r5
  000f8	eb000000	 bl          |?FreeMediaType@@YAXAAU_AMMediaType@@@Z|

; 405  :             return VFW_S_NO_MORE_ITEMS;

  000fc	e59d0020	 ldr         r0, [sp, #0x20]
  00100	eb000000	 bl          __security_check_cookie
  00104	e59f00d0	 ldr         r0, [pc, #0xD0]
  00108	ea00002c	 b           |$LN8@GetMediaTy@2|
  0010c		 |$LN2@GetMediaTy@2|

; 397  :             break;
; 398  : 
; 399  :         case 1:
; 400  :             p_vih->bmiHeader.biCompression    = MEDIASUBTYPE_YUY2.Data1;

  0010c	e59f30c4	 ldr         r3, [pc, #0xC4]

; 401  :             break;

  00110	ea000000	 b           |$LN14@GetMediaTy@2|
  00114		 |$LN3@GetMediaTy@2|

; 394  : 
; 395  :         case 0:
; 396  :             p_vih->bmiHeader.biCompression    = MEDIASUBTYPE_UYVY.Data1;

  00114	e59f30b8	 ldr         r3, [pc, #0xB8]
  00118		 |$LN14@GetMediaTy@2|
  00118	e5933000	 ldr         r3, [r3]

; 406  :     }
; 407  : 
; 408  :     SetRectEmpty(&(p_vih->rcSource)); // we want the whole image area rendered.

  0011c	e1a00004	 mov         r0, r4
  00120	e5843040	 str         r3, [r4, #0x40]
  00124	eb000000	 bl          SetRectEmpty

; 409  :     SetRectEmpty(&(p_vih->rcTarget)); // no particular destination rectangle

  00128	e2840010	 add         r0, r4, #0x10
  0012c	eb000000	 bl          SetRectEmpty

; 410  : 
; 411  :     p_vih->bmiHeader.biSizeImage  = GetBitmapSize(&p_vih->bmiHeader);

  00130	e2840030	 add         r0, r4, #0x30
  00134	eb000000	 bl          GetBitmapSize

; 412  : 
; 413  :     pMediaType->SetType(&MEDIATYPE_Video);

  00138	e59f1090	 ldr         r1, [pc, #0x90]
  0013c	e1a03000	 mov         r3, r0
  00140	e1a00005	 mov         r0, r5
  00144	e5843044	 str         r3, [r4, #0x44]
  00148	eb000000	 bl          |?SetType@CMediaType@@QAAXPBU_GUID@@@Z|

; 414  : 
; 415  :     pMediaType->SetFormatType(&FORMAT_VideoInfo);

  0014c	e59f1078	 ldr         r1, [pc, #0x78]
  00150	e1a00005	 mov         r0, r5
  00154	eb000000	 bl          |?SetFormatType@CMediaType@@QAAXPBU_GUID@@@Z|

; 416  : 
; 417  :     pMediaType->SetTemporalCompression(FALSE);

  00158	e3a01000	 mov         r1, #0
  0015c	e1a00005	 mov         r0, r5
  00160	eb000000	 bl          |?SetTemporalCompression@CMediaType@@QAAXH@Z|

; 418  : 
; 419  :     // Work out the GUID for the subtype from the header info.
; 420  :     const GUID subTypeGUID = GetBitmapSubtype(&p_vih->bmiHeader);

  00164	e2841030	 add         r1, r4, #0x30
  00168	e28d0000	 add         r0, sp, #0
  0016c	eb000000	 bl          GetBitmapSubtype
  00170	e1a02000	 mov         r2, r0
  00174	e5923000	 ldr         r3, [r2]

; 421  :     pMediaType->SetSubtype(&subTypeGUID);

  00178	e28d1010	 add         r1, sp, #0x10
  0017c	e1a00005	 mov         r0, r5
  00180	e58d3010	 str         r3, [sp, #0x10]
  00184	e5923004	 ldr         r3, [r2, #4]
  00188	e58d3014	 str         r3, [sp, #0x14]
  0018c	e5923008	 ldr         r3, [r2, #8]
  00190	e58d3018	 str         r3, [sp, #0x18]
  00194	e592300c	 ldr         r3, [r2, #0xC]
  00198	e58d301c	 str         r3, [sp, #0x1C]
  0019c	eb000000	 bl          |?SetSubtype@CMediaType@@QAAXPBU_GUID@@@Z|

; 422  : 
; 423  :     // Indicate that the encoded output will be varying in size
; 424  :     pMediaType->SetSampleSize(0);

  001a0	e3a01000	 mov         r1, #0
  001a4	e1a00005	 mov         r0, r5
  001a8	eb000000	 bl          |?SetSampleSize@CMediaType@@QAAXK@Z|

; 425  :     pMediaType->SetVariableSize();

  001ac	e1a00005	 mov         r0, r5
  001b0	eb000000	 bl          |?SetVariableSize@CMediaType@@QAAXXZ|

; 426  : 
; 427  :     return NOERROR;

  001b4	e59d0020	 ldr         r0, [sp, #0x20]
  001b8	eb000000	 bl          __security_check_cookie
  001bc	e3a00000	 mov         r0, #0
  001c0		 |$LN8@GetMediaTy@2|

; 428  : } 

  001c0	e28dd024	 add         sp, sp, #0x24
  001c4	e8bd4070	 ldmia       sp!, {r4 - r6, lr}
  001c8	e12fff1e	 bx          lr
  001cc		 |$LN18@GetMediaTy@2|
  001cc		 |$LN19@GetMediaTy@2|
  001cc	00000000	 DCD         |FORMAT_VideoInfo|
  001d0		 |$LN20@GetMediaTy@2|
  001d0	00000000	 DCD         |MEDIATYPE_Video|
  001d4		 |$LN21@GetMediaTy@2|
  001d4	00000000	 DCD         |MEDIASUBTYPE_UYVY|
  001d8		 |$LN22@GetMediaTy@2|
  001d8	00000000	 DCD         |MEDIASUBTYPE_YUY2|
  001dc		 |$LN23@GetMediaTy@2|
  001dc	00040103	 DCD         0x40103
  001e0		 |$LN24@GetMediaTy@2|
  001e0	80070057	 DCD         0x80070057
  001e4		 |$LN25@GetMediaTy@2|
  001e4	00000000	 DCD         |??_C@_1KE@PCALAGNG@?$AAC?$AAS?$AAa?$AAm?$AAp?$AAl?$AAe?$AAG?$AAr?$AAa?$AAb?$AAb?$AAe?$AAr?$AAI?$AAn?$AAp?$AAu?$AAt?$AAP?$AAi?$AAn?$AA?3?$AA?3?$AAG?$AAe?$AAt?$AAM?$AAe?$AAd?$AAi?$AAa@|
  001e8		 |$LN26@GetMediaTy@2|
  001e8	00000000	 DCD         |??_C@_1GO@FGDCJPAI@?$AAC?$AAS?$AAa?$AAm?$AAp?$AAl?$AAe?$AAG?$AAr?$AAa?$AAb?$AAb?$AAe?$AAr?$AAI?$AAn?$AAp?$AAu?$AAt?$AAP?$AAi?$AAn?$AA?3?$AA?3?$AAG?$AAe?$AAt?$AAM?$AAe?$AAd?$AAi?$AAa@|
  001ec		 |$LN27@GetMediaTy@2|
  001ec	00000000	 DCD         |?dpCurSettings@@3U_DBGPARAM@@A|
  001f0		 |$LN28@GetMediaTy@2|
  001f0	00000000	 DCD         |__security_cookie|
  001f4		 |$M56286|

			 ENDP  ; |?GetMediaType@CSampleGrabberInputPin@@UAAJHPAVCMediaType@@@Z|, CSampleGrabberInputPin::GetMediaType

	EXPORT	|??1CTransInPlaceOutputPin@@UAA@XZ|	; CTransInPlaceOutputPin::~CTransInPlaceOutputPin
	IMPORT	|??1CTransformOutputPin@@UAA@XZ|	; CTransformOutputPin::~CTransformOutputPin

  00000			 AREA	 |.pdata|, PDATA
|$T56308| DCD	|$LN5@CTransInPl@2|
	DCD	0x40000401
; Function compile flags: /Ogspy

  00000			 AREA	 |.text|, CODE, ARM

  00000		 |??1CTransInPlaceOutputPin@@UAA@XZ| PROC ; CTransInPlaceOutputPin::~CTransInPlaceOutputPin
  00000		 |$LN5@CTransInPl@2|
  00000	e52de004	 str         lr, [sp, #-4]!
  00004		 |$M56305|
  00004	eb000000	 bl          |??1CTransformOutputPin@@UAA@XZ|
  00008	e49de004	 ldr         lr, [sp], #4
  0000c	e12fff1e	 bx          lr
  00010		 |$M56306|

			 ENDP  ; |??1CTransInPlaceOutputPin@@UAA@XZ|, CTransInPlaceOutputPin::~CTransInPlaceOutputPin

	EXPORT	|?EnumMediaTypes@CSampleGrabberOutputPin@@UAAJPAPAUIEnumMediaTypes@@@Z| ; CSampleGrabberOutputPin::EnumMediaTypes
	IMPORT	|?EnumMediaTypes@CTransInPlaceOutputPin@@UAAJPAPAUIEnumMediaTypes@@@Z| ; CTransInPlaceOutputPin::EnumMediaTypes
; File c:\wince600\public\directx\sdk\inc\amfilter.h

  00000			 AREA	 |.pdata|, PDATA
|$T56326| DCD	|$LN10@EnumMediaT@2|
	DCD	0x40000c01
; Function compile flags: /Ogspy
; File c:\wince600\platform\z2170p\src\app\samplegrabber\samplegrabber.cpp

  00000			 AREA	 |.text|, CODE, ARM

  00000		 |?EnumMediaTypes@CSampleGrabberOutputPin@@UAAJPAPAUIEnumMediaTypes@@@Z| PROC ; CSampleGrabberOutputPin::EnumMediaTypes

; 452  : {

  00000		 |$LN10@EnumMediaT@2|
  00000	e52de004	 str         lr, [sp, #-4]!
  00004		 |$M56323|

; 453  :     // Can only pass through if connected
; 454  :     if(!m_pGrabberFilter->m_pInput->IsConnected())

  00004	e59030a4	 ldr         r3, [r0, #0xA4]
  00008	e5933084	 ldr         r3, [r3, #0x84]
  0000c	e5933018	 ldr         r3, [r3, #0x18]
  00010	e3530000	 cmp         r3, #0
  00014	1a000002	 bne         |$LN1@EnumMediaT@2|

; 455  :         return CBasePin::EnumMediaTypes(ppEnum);

  00018	eb000000	 bl          |?EnumMediaTypes@CBasePin@@UAAJPAPAUIEnumMediaTypes@@@Z|

; 458  : 
; 459  : }

  0001c	e49de004	 ldr         lr, [sp], #4
  00020	e12fff1e	 bx          lr
  00024		 |$LN1@EnumMediaT@2|

; 456  : 
; 457  :     return CTransInPlaceOutputPin::EnumMediaTypes(ppEnum);

  00024	eb000000	 bl          |?EnumMediaTypes@CTransInPlaceOutputPin@@UAAJPAPAUIEnumMediaTypes@@@Z|

; 458  : 
; 459  : }

  00028	e49de004	 ldr         lr, [sp], #4
  0002c	e12fff1e	 bx          lr
  00030		 |$M56324|

			 ENDP  ; |?EnumMediaTypes@CSampleGrabberOutputPin@@UAAJPAPAUIEnumMediaTypes@@@Z|, CSampleGrabberOutputPin::EnumMediaTypes

	EXPORT	|__$ArrayPad$| [ DATA ]
	EXPORT	|?GetMediaType@CSampleGrabberOutputPin@@UAAJHPAVCMediaType@@@Z| ; CSampleGrabberOutputPin::GetMediaType
	EXPORT	|??_C@_1KG@DPLCBGPB@?$AAC?$AAS?$AAa?$AAm?$AAp?$AAl?$AAe?$AAG?$AAr?$AAa?$AAb?$AAb?$AAe?$AAr?$AAO?$AAu?$AAt?$AAp?$AAu?$AAt?$AAP?$AAi?$AAn?$AA?3?$AA?3?$AAG?$AAe?$AAt?$AAM?$AAe?$AAd?$AAi@| [ DATA ] ; `string'
	EXPORT	|??_C@_1HA@PHGDKDO@?$AAC?$AAS?$AAa?$AAm?$AAp?$AAl?$AAe?$AAG?$AAr?$AAa?$AAb?$AAb?$AAe?$AAr?$AAO?$AAu?$AAt?$AAp?$AAu?$AAt?$AAP?$AAi?$AAn?$AA?3?$AA?3?$AAG?$AAe?$AAt?$AAM?$AAe?$AAd?$AAi@| [ DATA ] ; `string'

  00000			 AREA	 |.pdata|, PDATA
|$T56349| DCD	|$LN17@GetMediaTy@3|
	DCD	0xc0007b02

  00000			 AREA	 |.xdata|, DATA
|$T56345| DCD	0xffffffec

  00000			 AREA	 |.rdata|, DATA, READONLY
|??_C@_1KG@DPLCBGPB@?$AAC?$AAS?$AAa?$AAm?$AAp?$AAl?$AAe?$AAG?$AAr?$AAa?$AAb?$AAb?$AAe?$AAr?$AAO?$AAu?$AAt?$AAp?$AAu?$AAt?$AAP?$AAi?$AAn?$AA?3?$AA?3?$AAG?$AAe?$AAt?$AAM?$AAe?$AAd?$AAi@| DCB "C"
	DCB	0x0, "S", 0x0, "a", 0x0, "m", 0x0, "p", 0x0, "l", 0x0, "e"
	DCB	0x0, "G", 0x0, "r", 0x0, "a", 0x0, "b", 0x0, "b", 0x0, "e"
	DCB	0x0, "r", 0x0, "O", 0x0, "u", 0x0, "t", 0x0, "p", 0x0, "u"
	DCB	0x0, "t", 0x0, "P", 0x0, "i", 0x0, "n", 0x0, ":", 0x0, ":"
	DCB	0x0, "G", 0x0, "e", 0x0, "t", 0x0, "M", 0x0, "e", 0x0, "d"
	DCB	0x0, "i", 0x0, "a", 0x0, "T", 0x0, "y", 0x0, "p", 0x0, "e"
	DCB	0x0, " ", 0x0, ":", 0x0, " ", 0x0, "E", 0x0, "R", 0x0, "R"
	DCB	0x0, "O", 0x0, "R", 0x0, " ", 0x0, "-", 0x0, " ", 0x0, "I"
	DCB	0x0, "n", 0x0, "v", 0x0, "a", 0x0, "l", 0x0, "i", 0x0, "d"
	DCB	0x0, " ", 0x0, "m", 0x0, "e", 0x0, "d", 0x0, "i", 0x0, "a"
	DCB	0x0, " ", 0x0, "t", 0x0, "y", 0x0, "p", 0x0, "e", 0x0, " "
	DCB	0x0, "p", 0x0, "o", 0x0, "s", 0x0, "i", 0x0, "t", 0x0, "i"
	DCB	0x0, "o", 0x0, "n", 0x0, " ", 0x0, "%", 0x0, "d", 0x0, "!"
	DCB	0x0, " ", 0x0, 0xd, 0x0, 0xa, 0x0, 0x0, 0x0 ; `string'

  00000			 AREA	 |.rdata|, DATA, READONLY
|??_C@_1HA@PHGDKDO@?$AAC?$AAS?$AAa?$AAm?$AAp?$AAl?$AAe?$AAG?$AAr?$AAa?$AAb?$AAb?$AAe?$AAr?$AAO?$AAu?$AAt?$AAp?$AAu?$AAt?$AAP?$AAi?$AAn?$AA?3?$AA?3?$AAG?$AAe?$AAt?$AAM?$AAe?$AAd?$AAi@| DCB "C"
	DCB	0x0, "S", 0x0, "a", 0x0, "m", 0x0, "p", 0x0, "l", 0x0, "e"
	DCB	0x0, "G", 0x0, "r", 0x0, "a", 0x0, "b", 0x0, "b", 0x0, "e"
	DCB	0x0, "r", 0x0, "O", 0x0, "u", 0x0, "t", 0x0, "p", 0x0, "u"
	DCB	0x0, "t", 0x0, "P", 0x0, "i", 0x0, "n", 0x0, ":", 0x0, ":"
	DCB	0x0, "G", 0x0, "e", 0x0, "t", 0x0, "M", 0x0, "e", 0x0, "d"
	DCB	0x0, "i", 0x0, "a", 0x0, "T", 0x0, "y", 0x0, "p", 0x0, "e"
	DCB	0x0, " ", 0x0, "f", 0x0, "o", 0x0, "r", 0x0, " ", 0x0, "p"
	DCB	0x0, "o", 0x0, "s", 0x0, "i", 0x0, "t", 0x0, "i", 0x0, "o"
	DCB	0x0, "n", 0x0, " ", 0x0, "%", 0x0, "d", 0x0, 0xd, 0x0, 0xa
	DCB	0x0, 0x0, 0x0				; `string'
; Function compile flags: /Ogspy

  00000			 AREA	 |.text|, CODE, ARM

  00000	00000000	 DCD         |__GSHandlerCheck|
  00004	00000000	 DCD         |$T56345|

  00008		 |?GetMediaType@CSampleGrabberOutputPin@@UAAJHPAVCMediaType@@@Z| PROC ; CSampleGrabberOutputPin::GetMediaType

; 464  : {

  00008		 |$LN17@GetMediaTy@3|
  00008	e92d4070	 stmdb       sp!, {r4 - r6, lr}
  0000c	e24dd024	 sub         sp, sp, #0x24
  00010		 |$M56346|
  00010	e1a05002	 mov         r5, r2
  00014	e1a06001	 mov         r6, r1
  00018	e59f31d0	 ldr         r3, [pc, #0x1D0]
  0001c	e5933000	 ldr         r3, [r3]
  00020	e58d3020	 str         r3, [sp, #0x20]

; 465  : 
; 466  :     RETAILMSG(DBGZONE_INFO, (TEXT("CSampleGrabberOutputPin::GetMediaType for position %d\r\n"), iPosition));

  00024	e59f41c0	 ldr         r4, [pc, #0x1C0]
  00028	e5943440	 ldr         r3, [r4, #0x440]
  0002c	e3130001	 tst         r3, #1
  00030	159f01b0	 ldrne       r0, [pc, #0x1B0]
  00034	1b000000	 blne        NKDbgPrintfW

; 467  :     CheckPointer(pMediaType,E_POINTER);

  00038	e3550000	 cmp         r5, #0
  0003c	1a000004	 bne         |$LN7@GetMediaTy@3|
  00040	e59d0020	 ldr         r0, [sp, #0x20]
  00044	eb000000	 bl          __security_check_cookie
  00048	e3a0310e	 mov         r3, #0xE, 2
  0004c	e3830901	 orr         r0, r3, #1, 18
  00050	ea00005a	 b           |$LN8@GetMediaTy@3|
  00054		 |$LN7@GetMediaTy@3|

; 468  : 
; 469  :     FreeMediaType(*pMediaType);

  00054	e1a00005	 mov         r0, r5
  00058	eb000000	 bl          |?FreeMediaType@@YAXAAU_AMMediaType@@@Z|

; 470  :     pMediaType->InitMediaType();

  0005c	e1a00005	 mov         r0, r5
  00060	eb000000	 bl          |?InitMediaType@CMediaType@@QAAXXZ|

; 471  :     VIDEOINFOHEADER *p_vih = NULL;
; 472  : 
; 473  : 
; 474  :     if (iPosition < 0 ) { 

  00064	e3560000	 cmp         r6, #0
  00068	5a000008	 bpl         |$LN6@GetMediaTy@3|

; 475  :         RETAILMSG(DBGZONE_ERROR, 
; 476  :             (TEXT("CSampleGrabberOutputPin::GetMediaType : ERROR - Invalid media type position %d! \r\n"), 
; 477  :             iPosition));

  0006c	e5943440	 ldr         r3, [r4, #0x440]
  00070	e3130008	 tst         r3, #8
  00074	159f0168	 ldrne       r0, [pc, #0x168]
  00078	11a01006	 movne       r1, r6
  0007c	1b000000	 blne        NKDbgPrintfW

; 478  :         return E_INVALIDARG;

  00080	e59d0020	 ldr         r0, [sp, #0x20]
  00084	eb000000	 bl          __security_check_cookie
  00088	e59f0150	 ldr         r0, [pc, #0x150]
  0008c	ea00004b	 b           |$LN8@GetMediaTy@3|
  00090		 |$LN6@GetMediaTy@3|

; 479  :     }
; 480  : 
; 481  :     p_vih = (VIDEOINFOHEADER*) pMediaType->AllocFormatBuffer(sizeof(VIDEOINFOHEADER));

  00090	e3a01058	 mov         r1, #0x58
  00094	e1a00005	 mov         r0, r5
  00098	eb000000	 bl          |?AllocFormatBuffer@CMediaType@@QAAPAEK@Z|
  0009c	e1a04000	 mov         r4, r0

; 482  :     p_vih->bmiHeader.biBitCount       = 16;

  000a0	e3a03010	 mov         r3, #0x10

; 483  :     p_vih->bmiHeader.biSize           = sizeof(BITMAPINFOHEADER);
; 484  :     p_vih->bmiHeader.biWidth          = 0;
; 485  :     p_vih->bmiHeader.biHeight         = 0;
; 486  :     p_vih->bmiHeader.biPlanes         = 1;

  000a4	e1c433be	 strh        r3, [r4, #0x3E]
  000a8	e3a03000	 mov         r3, #0
  000ac	e3a02028	 mov         r2, #0x28
  000b0	e3a01001	 mov         r1, #1
  000b4	e5843034	 str         r3, [r4, #0x34]
  000b8	e5843038	 str         r3, [r4, #0x38]

; 487  :     p_vih->bmiHeader.biClrImportant   = 0;

  000bc	e5843054	 str         r3, [r4, #0x54]

; 488  :     p_vih->bmiHeader.biClrUsed        = 0;

  000c0	e5843050	 str         r3, [r4, #0x50]

; 489  :     p_vih->bmiHeader.biXPelsPerMeter  = 0;

  000c4	e5843048	 str         r3, [r4, #0x48]

; 490  :     p_vih->bmiHeader.biYPelsPerMeter  = 0;

  000c8	e584304c	 str         r3, [r4, #0x4C]

; 491  :     p_vih->dwBitRate                  = 0;

  000cc	e5843020	 str         r3, [r4, #0x20]

; 492  :     p_vih->dwBitErrorRate             = 0;

  000d0	e5843024	 str         r3, [r4, #0x24]

; 493  :     p_vih->AvgTimePerFrame            = 0;

  000d4	e5843028	 str         r3, [r4, #0x28]
  000d8	e584302c	 str         r3, [r4, #0x2C]
  000dc	e5842030	 str         r2, [r4, #0x30]
  000e0	e1c413bc	 strh        r1, [r4, #0x3C]

; 494  : 
; 495  :     switch (iPosition) {

  000e4	e3560000	 cmp         r6, #0
  000e8	0a000009	 beq         |$LN3@GetMediaTy@3|
  000ec	e3560001	 cmp         r6, #1
  000f0	0a000005	 beq         |$LN2@GetMediaTy@3|

; 504  : 
; 505  :         default: // should never get here
; 506  :             FreeMediaType(*pMediaType);

  000f4	e1a00005	 mov         r0, r5
  000f8	eb000000	 bl          |?FreeMediaType@@YAXAAU_AMMediaType@@@Z|

; 507  :             return VFW_S_NO_MORE_ITEMS;

  000fc	e59d0020	 ldr         r0, [sp, #0x20]
  00100	eb000000	 bl          __security_check_cookie
  00104	e59f00d0	 ldr         r0, [pc, #0xD0]
  00108	ea00002c	 b           |$LN8@GetMediaTy@3|
  0010c		 |$LN2@GetMediaTy@3|

; 499  :             break;
; 500  : 
; 501  :         case 1:
; 502  :             p_vih->bmiHeader.biCompression    = MEDIASUBTYPE_YUY2.Data1;

  0010c	e59f30c4	 ldr         r3, [pc, #0xC4]

; 503  :             break;

  00110	ea000000	 b           |$LN14@GetMediaTy@3|
  00114		 |$LN3@GetMediaTy@3|

; 496  : 
; 497  :         case 0:
; 498  :             p_vih->bmiHeader.biCompression    = MEDIASUBTYPE_UYVY.Data1;

  00114	e59f30b8	 ldr         r3, [pc, #0xB8]
  00118		 |$LN14@GetMediaTy@3|
  00118	e5933000	 ldr         r3, [r3]

; 508  :     }
; 509  : 
; 510  :     SetRectEmpty(&(p_vih->rcSource)); // we want the whole image area rendered.

  0011c	e1a00004	 mov         r0, r4
  00120	e5843040	 str         r3, [r4, #0x40]
  00124	eb000000	 bl          SetRectEmpty

; 511  :     SetRectEmpty(&(p_vih->rcTarget)); // no particular destination rectangle

  00128	e2840010	 add         r0, r4, #0x10
  0012c	eb000000	 bl          SetRectEmpty

; 512  : 
; 513  :     p_vih->bmiHeader.biSizeImage  = GetBitmapSize(&p_vih->bmiHeader);

  00130	e2840030	 add         r0, r4, #0x30
  00134	eb000000	 bl          GetBitmapSize

; 514  : 
; 515  :     pMediaType->SetType(&MEDIATYPE_Video);

  00138	e59f1090	 ldr         r1, [pc, #0x90]
  0013c	e1a03000	 mov         r3, r0
  00140	e1a00005	 mov         r0, r5
  00144	e5843044	 str         r3, [r4, #0x44]
  00148	eb000000	 bl          |?SetType@CMediaType@@QAAXPBU_GUID@@@Z|

; 516  : 
; 517  :     pMediaType->SetFormatType(&FORMAT_VideoInfo);

  0014c	e59f1078	 ldr         r1, [pc, #0x78]
  00150	e1a00005	 mov         r0, r5
  00154	eb000000	 bl          |?SetFormatType@CMediaType@@QAAXPBU_GUID@@@Z|

; 518  : 
; 519  :     pMediaType->SetTemporalCompression(FALSE);

  00158	e3a01000	 mov         r1, #0
  0015c	e1a00005	 mov         r0, r5
  00160	eb000000	 bl          |?SetTemporalCompression@CMediaType@@QAAXH@Z|

; 520  : 
; 521  :     // Work out the GUID for the subtype from the header info.
; 522  :     const GUID subTypeGUID = GetBitmapSubtype(&p_vih->bmiHeader);

  00164	e2841030	 add         r1, r4, #0x30
  00168	e28d0000	 add         r0, sp, #0
  0016c	eb000000	 bl          GetBitmapSubtype
  00170	e1a02000	 mov         r2, r0
  00174	e5923000	 ldr         r3, [r2]

; 523  :     pMediaType->SetSubtype(&subTypeGUID);

  00178	e28d1010	 add         r1, sp, #0x10
  0017c	e1a00005	 mov         r0, r5
  00180	e58d3010	 str         r3, [sp, #0x10]
  00184	e5923004	 ldr         r3, [r2, #4]
  00188	e58d3014	 str         r3, [sp, #0x14]
  0018c	e5923008	 ldr         r3, [r2, #8]
  00190	e58d3018	 str         r3, [sp, #0x18]
  00194	e592300c	 ldr         r3, [r2, #0xC]
  00198	e58d301c	 str         r3, [sp, #0x1C]
  0019c	eb000000	 bl          |?SetSubtype@CMediaType@@QAAXPBU_GUID@@@Z|

; 524  : 
; 525  :     // Indicate that the encoded output will be varying in size
; 526  :     pMediaType->SetSampleSize(0);

  001a0	e3a01000	 mov         r1, #0
  001a4	e1a00005	 mov         r0, r5
  001a8	eb000000	 bl          |?SetSampleSize@CMediaType@@QAAXK@Z|

; 527  :     pMediaType->SetVariableSize();

  001ac	e1a00005	 mov         r0, r5
  001b0	eb000000	 bl          |?SetVariableSize@CMediaType@@QAAXXZ|

; 528  : 
; 529  :     return NOERROR;

  001b4	e59d0020	 ldr         r0, [sp, #0x20]
  001b8	eb000000	 bl          __security_check_cookie
  001bc	e3a00000	 mov         r0, #0
  001c0		 |$LN8@GetMediaTy@3|

; 530  : } 

  001c0	e28dd024	 add         sp, sp, #0x24
  001c4	e8bd4070	 ldmia       sp!, {r4 - r6, lr}
  001c8	e12fff1e	 bx          lr
  001cc		 |$LN18@GetMediaTy@3|
  001cc		 |$LN19@GetMediaTy@3|
  001cc	00000000	 DCD         |FORMAT_VideoInfo|
  001d0		 |$LN20@GetMediaTy@3|
  001d0	00000000	 DCD         |MEDIATYPE_Video|
  001d4		 |$LN21@GetMediaTy@3|
  001d4	00000000	 DCD         |MEDIASUBTYPE_UYVY|
  001d8		 |$LN22@GetMediaTy@3|
  001d8	00000000	 DCD         |MEDIASUBTYPE_YUY2|
  001dc		 |$LN23@GetMediaTy@3|
  001dc	00040103	 DCD         0x40103
  001e0		 |$LN24@GetMediaTy@3|
  001e0	80070057	 DCD         0x80070057
  001e4		 |$LN25@GetMediaTy@3|
  001e4	00000000	 DCD         |??_C@_1KG@DPLCBGPB@?$AAC?$AAS?$AAa?$AAm?$AAp?$AAl?$AAe?$AAG?$AAr?$AAa?$AAb?$AAb?$AAe?$AAr?$AAO?$AAu?$AAt?$AAp?$AAu?$AAt?$AAP?$AAi?$AAn?$AA?3?$AA?3?$AAG?$AAe?$AAt?$AAM?$AAe?$AAd?$AAi@|
  001e8		 |$LN26@GetMediaTy@3|
  001e8	00000000	 DCD         |??_C@_1HA@PHGDKDO@?$AAC?$AAS?$AAa?$AAm?$AAp?$AAl?$AAe?$AAG?$AAr?$AAa?$AAb?$AAb?$AAe?$AAr?$AAO?$AAu?$AAt?$AAp?$AAu?$AAt?$AAP?$AAi?$AAn?$AA?3?$AA?3?$AAG?$AAe?$AAt?$AAM?$AAe?$AAd?$AAi@|
  001ec		 |$LN27@GetMediaTy@3|
  001ec	00000000	 DCD         |?dpCurSettings@@3U_DBGPARAM@@A|
  001f0		 |$LN28@GetMediaTy@3|
  001f0	00000000	 DCD         |__security_cookie|
  001f4		 |$M56347|

			 ENDP  ; |?GetMediaType@CSampleGrabberOutputPin@@UAAJHPAVCMediaType@@@Z|, CSampleGrabberOutputPin::GetMediaType

; Function compile flags: /Odspy

  00000			 AREA	 |.text|, CODE, ARM

  00000		 |?Release@CSampleGrabber@@WIM@AAKXZ| PROC ; [thunk]:CSampleGrabber::Release`adjustor{140}'
  00000	e240008c	 sub         r0, r0, #0x8C
  00004	ea000000	 b           |?Release@CSampleGrabber@@UAAKXZ|

			 ENDP  ; |?Release@CSampleGrabber@@WIM@AAKXZ|, [thunk]:CSampleGrabber::Release`adjustor{140}'

; Function compile flags: /Odspy

  00000			 AREA	 |.text|, CODE, ARM

  00000		 |?AddRef@CSampleGrabber@@W3AAKXZ| PROC	; [thunk]:CSampleGrabber::AddRef`adjustor{4}'
  00000	e2400004	 sub         r0, r0, #4
  00004	ea000000	 b           |?AddRef@CSampleGrabber@@UAAKXZ|

			 ENDP  ; |?AddRef@CSampleGrabber@@W3AAKXZ|, [thunk]:CSampleGrabber::AddRef`adjustor{4}'

; Function compile flags: /Odspy

  00000			 AREA	 |.text|, CODE, ARM

  00000		 |?AddRef@CSampleGrabber@@WIM@AAKXZ| PROC ; [thunk]:CSampleGrabber::AddRef`adjustor{140}'
  00000	e240008c	 sub         r0, r0, #0x8C
  00004	ea000000	 b           |?AddRef@CSampleGrabber@@UAAKXZ|

			 ENDP  ; |?AddRef@CSampleGrabber@@WIM@AAKXZ|, [thunk]:CSampleGrabber::AddRef`adjustor{140}'

; Function compile flags: /Odspy

  00000			 AREA	 |.text|, CODE, ARM

  00000		 |?QueryInterface@CSampleGrabber@@W3AAJABU_GUID@@PAPAX@Z| PROC ; [thunk]:CSampleGrabber::QueryInterface`adjustor{4}'
  00000	e2400004	 sub         r0, r0, #4
  00004	ea000000	 b           |?QueryInterface@CSampleGrabber@@UAAJABU_GUID@@PAPAX@Z|

			 ENDP  ; |?QueryInterface@CSampleGrabber@@W3AAJABU_GUID@@PAPAX@Z|, [thunk]:CSampleGrabber::QueryInterface`adjustor{4}'

; Function compile flags: /Odspy

  00000			 AREA	 |.text|, CODE, ARM

  00000		 |?Release@CSampleGrabber@@W3AAKXZ| PROC ; [thunk]:CSampleGrabber::Release`adjustor{4}'
  00000	e2400004	 sub         r0, r0, #4
  00004	ea000000	 b           |?Release@CSampleGrabber@@UAAKXZ|

			 ENDP  ; |?Release@CSampleGrabber@@W3AAKXZ|, [thunk]:CSampleGrabber::Release`adjustor{4}'

; Function compile flags: /Odspy

  00000			 AREA	 |.text|, CODE, ARM

  00000		 |?QueryInterface@CSampleGrabber@@WIM@AAJABU_GUID@@PAPAX@Z| PROC ; [thunk]:CSampleGrabber::QueryInterface`adjustor{140}'
  00000	e240008c	 sub         r0, r0, #0x8C
  00004	ea000000	 b           |?QueryInterface@CSampleGrabber@@UAAJABU_GUID@@PAPAX@Z|

			 ENDP  ; |?QueryInterface@CSampleGrabber@@WIM@AAJABU_GUID@@PAPAX@Z|, [thunk]:CSampleGrabber::QueryInterface`adjustor{140}'

	EXPORT	|??0CSampleGrabber@@QAA@PAUIUnknown@@PAJH@Z| ; CSampleGrabber::CSampleGrabber
	EXPORT	|??_C@_1EE@LNJFBNNG@?$AA?$CF?$AAs?$AA?3?$AA?5?$AAC?$AAS?$AAa?$AAm?$AAp?$AAl?$AAe?$AAG?$AAr?$AAa?$AAb?$AAb?$AAe?$AAr?$AA?5?$AAc?$AAo?$AAn?$AAs?$AAt?$AAr?$AAu?$AAc?$AAt?$AAo?$AAr?$AA?5?$AA?$AN@| [ DATA ] ; `string'
	IMPORT	|??0CTransInPlaceFilter@@QAA@PAGPAUIUnknown@@ABU_GUID@@PAJ@Z| ; CTransInPlaceFilter::CTransInPlaceFilter
; File c:\wince600\public\directx\sdk\inc\videoctl.h

  00000			 AREA	 |.pdata|, PDATA
|$T56396| DCD	|$LN11@CSampleGra@2|
	DCD	0x40002902

  00000			 AREA	 |.rdata|, DATA, READONLY
|??_C@_1EE@LNJFBNNG@?$AA?$CF?$AAs?$AA?3?$AA?5?$AAC?$AAS?$AAa?$AAm?$AAp?$AAl?$AAe?$AAG?$AAr?$AAa?$AAb?$AAb?$AAe?$AAr?$AA?5?$AAc?$AAo?$AAn?$AAs?$AAt?$AAr?$AAu?$AAc?$AAt?$AAo?$AAr?$AA?5?$AA?$AN@| DCB "%"
	DCB	0x0, "s", 0x0, ":", 0x0, " ", 0x0, "C", 0x0, "S", 0x0, "a"
	DCB	0x0, "m", 0x0, "p", 0x0, "l", 0x0, "e", 0x0, "G", 0x0, "r"
	DCB	0x0, "a", 0x0, "b", 0x0, "b", 0x0, "e", 0x0, "r", 0x0, " "
	DCB	0x0, "c", 0x0, "o", 0x0, "n", 0x0, "s", 0x0, "t", 0x0, "r"
	DCB	0x0, "u", 0x0, "c", 0x0, "t", 0x0, "o", 0x0, "r", 0x0, " "
	DCB	0x0, 0xd, 0x0, 0xa, 0x0, 0x0, 0x0	; `string'
; Function compile flags: /Ogspy
; File c:\wince600\platform\z2170p\src\app\samplegrabber\samplegrabber.cpp

  00000			 AREA	 |.text|, CODE, ARM

  00000		 |??0CSampleGrabber@@QAA@PAUIUnknown@@PAJH@Z| PROC ; CSampleGrabber::CSampleGrabber

; 124  : {

  00000		 |$LN11@CSampleGra@2|
  00000	e92d4070	 stmdb       sp!, {r4 - r6, lr}
  00004	e24dd004	 sub         sp, sp, #4
  00008		 |$M56393|
  00008	e1a0e002	 mov         lr, r2
  0000c	e1a02001	 mov         r2, r1
  00010	e1a06000	 mov         r6, r0
  00014	e59f3084	 ldr         r3, [pc, #0x84]
  00018	e59f107c	 ldr         r1, [pc, #0x7C]
  0001c	e58de000	 str         lr, [sp]
  00020	eb000000	 bl          |??0CTransInPlaceFilter@@QAA@PAGPAUIUnknown@@ABU_GUID@@PAJ@Z|
  00024	e59f306c	 ldr         r3, [pc, #0x6C]
  00028	e59fe064	 ldr         lr, [pc, #0x64]
  0002c	e59f205c	 ldr         r2, [pc, #0x5C]
  00030	e59f1054	 ldr         r1, [pc, #0x54]
  00034	e59f404c	 ldr         r4, [pc, #0x4C]

; 125  : 
; 126  :     RETAILMSG(DBGZONE_INFO, (TEXT("%s: CSampleGrabber constructor \r\n"), APP_NAME));

  00038	e59f5044	 ldr         r5, [pc, #0x44]
  0003c	e5863098	 str         r3, [r6, #0x98]
  00040	e5862000	 str         r2, [r6]
  00044	e586100c	 str         r1, [r6, #0xC]
  00048	e586e010	 str         lr, [r6, #0x10]
  0004c	e5864098	 str         r4, [r6, #0x98]
  00050	e5953440	 ldr         r3, [r5, #0x440]
  00054	e3130001	 tst         r3, #1
  00058	159f1020	 ldrne       r1, [pc, #0x20]
  0005c	159f0018	 ldrne       r0, [pc, #0x18]
  00060	1b000000	 blne        NKDbgPrintfW

; 127  :     callback = NULL;

  00064	e3a03000	 mov         r3, #0
  00068	e586309c	 str         r3, [r6, #0x9C]

; 128  : }

  0006c	e1a00006	 mov         r0, r6
  00070	e28dd004	 add         sp, sp, #4
  00074	e8bd4070	 ldmia       sp!, {r4 - r6, lr}
  00078	e12fff1e	 bx          lr
  0007c		 |$LN12@CSampleGra@2|
  0007c		 |$LN13@CSampleGra@2|
  0007c	00000000	 DCD         |??_C@_1EE@LNJFBNNG@?$AA?$CF?$AAs?$AA?3?$AA?5?$AAC?$AAS?$AAa?$AAm?$AAp?$AAl?$AAe?$AAG?$AAr?$AAa?$AAb?$AAb?$AAe?$AAr?$AA?5?$AAc?$AAo?$AAn?$AAs?$AAt?$AAr?$AAu?$AAc?$AAt?$AAo?$AAr?$AA?5?$AA?$AN@|
  00080		 |$LN14@CSampleGra@2|
  00080	00000000	 DCD         |??_C@_1BO@LGJFMGDC@?$AAS?$AAa?$AAm?$AAp?$AAl?$AAe?$AA?5?$AAG?$AAr?$AAa?$AAb?$AAb?$AAe?$AAr?$AA?$AA@|
  00084		 |$LN15@CSampleGra@2|
  00084	00000000	 DCD         |?dpCurSettings@@3U_DBGPARAM@@A|
  00088		 |$LN16@CSampleGra@2|
  00088	00000000	 DCD         |??_7CSampleGrabber@@6B@|
  0008c		 |$LN17@CSampleGra@2|
  0008c	00000000	 DCD         |??_7CSampleGrabber@@6BIBaseFilter@@@|
  00090		 |$LN18@CSampleGra@2|
  00090	00000000	 DCD         |??_7CSampleGrabber@@6BCUnknown@@@|
  00094		 |$LN19@CSampleGra@2|
  00094	00000000	 DCD         |??_7CSampleGrabber@@6BIAMovieSetup@@@|
  00098		 |$LN20@CSampleGra@2|
  00098	00000000	 DCD         |??_7ISampleGrabber@@6B@|
  0009c		 |$LN21@CSampleGra@2|
  0009c	00000000	 DCD         |??_C@_1BM@OEMAOINM@?$AAS?$AAa?$AAm?$AAp?$AAl?$AAe?$AAG?$AAr?$AAa?$AAb?$AAb?$AAe?$AAr?$AA?$AA@|
  000a0		 |$LN22@CSampleGra@2|
  000a0	00000000	 DCD         |CLSID_SampleGrabber|
  000a4		 |$M56394|

			 ENDP  ; |??0CSampleGrabber@@QAA@PAUIUnknown@@PAJH@Z|, CSampleGrabber::CSampleGrabber

	IMPORT	|??3@YAXPAX@Z|				; operator delete

  00000			 AREA	 |.pdata|, PDATA
|$T56418| DCD	|$LN6@scalar|
	DCD	0x40000a01
; Function compile flags: /Ogspy

  00000			 AREA	 |.text|, CODE, ARM

  00000		 |??_GCSampleGrabber@@UAAPAXI@Z| PROC	; CSampleGrabber::`scalar deleting destructor'
  00000		 |$LN6@scalar|
  00000	e92d4030	 stmdb       sp!, {r4, r5, lr}
  00004		 |$M56415|
  00004	e1a04001	 mov         r4, r1
  00008	e1a05000	 mov         r5, r0
  0000c	eb000000	 bl          |??1CSampleGrabber@@UAA@XZ|
  00010	e3140001	 tst         r4, #1
  00014	11a00005	 movne       r0, r5
  00018	1b000000	 blne        |??3@YAXPAX@Z|
  0001c	e1a00005	 mov         r0, r5
  00020	e8bd4030	 ldmia       sp!, {r4, r5, lr}
  00024	e12fff1e	 bx          lr
  00028		 |$M56416|

			 ENDP  ; |??_GCSampleGrabber@@UAAPAXI@Z|, CSampleGrabber::`scalar deleting destructor'

	EXPORT	|??1CTransInPlaceInputPin@@UAA@XZ|	; CTransInPlaceInputPin::~CTransInPlaceInputPin

  00000			 AREA	 |.pdata|, PDATA
|$T56429| DCD	|$LN7@CTransInPl@3|
	DCD	0x40000401
; Function compile flags: /Ogspy

  00000			 AREA	 |.text|, CODE, ARM

  00000		 |??1CTransInPlaceInputPin@@UAA@XZ| PROC ; CTransInPlaceInputPin::~CTransInPlaceInputPin
  00000		 |$LN7@CTransInPl@3|
  00000	e52de004	 str         lr, [sp, #-4]!
  00004		 |$M56426|
  00004	eb000000	 bl          |??1CBaseInputPin@@UAA@XZ|
  00008	e49de004	 ldr         lr, [sp], #4
  0000c	e12fff1e	 bx          lr
  00010		 |$M56427|

			 ENDP  ; |??1CTransInPlaceInputPin@@UAA@XZ|, CTransInPlaceInputPin::~CTransInPlaceInputPin

	EXPORT	|??0CSampleGrabberOutputPin@@QAA@PAGPAVCSampleGrabber@@PAJPBG@Z| ; CSampleGrabberOutputPin::CSampleGrabberOutputPin
	EXPORT	|??_7CSampleGrabberOutputPin@@6BCUnknown@@@| [ DATA ] ; CSampleGrabberOutputPin::`vftable'
	EXPORT	|??_7CSampleGrabberOutputPin@@6BIPin@@@| [ DATA ] ; CSampleGrabberOutputPin::`vftable'
	EXPORT	|??_7CSampleGrabberOutputPin@@6BIQualityControl@@@| [ DATA ] ; CSampleGrabberOutputPin::`vftable'
	EXPORT	|?QueryInterface@CBasePin@@W3AAJABU_GUID@@PAPAX@Z| ; [thunk]:CBasePin::QueryInterface`adjustor{4}'
	EXPORT	|?AddRef@CBasePin@@W3AAKXZ|		; [thunk]:CBasePin::AddRef`adjustor{4}'
	EXPORT	|?Release@CBasePin@@W3AAKXZ|		; [thunk]:CBasePin::Release`adjustor{4}'
	EXPORT	|?QueryInterface@CBasePin@@UAAJABU_GUID@@PAPAX@Z| ; CBasePin::QueryInterface
	EXPORT	|?AddRef@CBasePin@@UAAKXZ|		; CBasePin::AddRef
	EXPORT	|?Release@CBasePin@@UAAKXZ|		; CBasePin::Release
	EXPORT	|?QueryId@CTransformOutputPin@@UAAJPAPAG@Z| ; CTransformOutputPin::QueryId
	EXPORT	|?QueryInternalConnections@CBasePin@@UAAJPAPAUIPin@@PAK@Z| ; CBasePin::QueryInternalConnections
	IMPORT	|??0CTransInPlaceOutputPin@@QAA@PAGPAVCTransInPlaceFilter@@PAJPBG@Z| ; CTransInPlaceOutputPin::CTransInPlaceOutputPin
	IMPORT	|?Notify@CTransformOutputPin@@UAAJPAUIBaseFilter@@UtagQuality@@@Z| ; CTransformOutputPin::Notify
	IMPORT	|?SetSink@CBasePin@@UAAJPAUIQualityControl@@@Z| ; CBasePin::SetSink
	IMPORT	|?Connect@CBasePin@@UAAJPAUIPin@@PBU_AMMediaType@@@Z| ; CBasePin::Connect
	IMPORT	|?ReceiveConnection@CBasePin@@UAAJPAUIPin@@PBU_AMMediaType@@@Z| ; CBasePin::ReceiveConnection
	IMPORT	|?Disconnect@CBasePin@@UAAJXZ|		; CBasePin::Disconnect
	IMPORT	|?ConnectedTo@CBasePin@@UAAJPAPAUIPin@@@Z| ; CBasePin::ConnectedTo
	IMPORT	|?ConnectionMediaType@CBasePin@@UAAJPAU_AMMediaType@@@Z| ; CBasePin::ConnectionMediaType
	IMPORT	|?QueryPinInfo@CBasePin@@UAAJPAU_PinInfo@@@Z| ; CBasePin::QueryPinInfo
	IMPORT	|?QueryDirection@CBasePin@@UAAJPAW4_PinDirection@@@Z| ; CBasePin::QueryDirection
	IMPORT	|?QueryAccept@CBasePin@@UAAJPBU_AMMediaType@@@Z| ; CBasePin::QueryAccept
	IMPORT	|?EndOfStream@CBaseOutputPin@@UAAJXZ|	; CBaseOutputPin::EndOfStream
	IMPORT	|?BeginFlush@CBaseOutputPin@@UAAJXZ|	; CBaseOutputPin::BeginFlush
	IMPORT	|?EndFlush@CBaseOutputPin@@UAAJXZ|	; CBaseOutputPin::EndFlush
	IMPORT	|?NewSegment@CBasePin@@UAAJ_J0N@Z|	; CBasePin::NewSegment
	IMPORT	|?NonDelegatingQueryInterface@CTransformOutputPin@@UAAJABU_GUID@@PAPAX@Z| ; CTransformOutputPin::NonDelegatingQueryInterface
	IMPORT	|?NonDelegatingAddRef@CBasePin@@UAAKXZ|	; CBasePin::NonDelegatingAddRef
	IMPORT	|?NonDelegatingRelease@CBasePin@@UAAKXZ| ; CBasePin::NonDelegatingRelease
	IMPORT	|??_ECSampleGrabberOutputPin@@UAAPAXI@Z|, WEAK |??_GCSampleGrabberOutputPin@@UAAPAXI@Z| ; CSampleGrabberOutputPin::`vector deleting destructor', CSampleGrabberOutputPin::`scalar deleting destructor'
	IMPORT	|?GetMediaTypeVersion@CBasePin@@UAAJXZ|	; CBasePin::GetMediaTypeVersion
	IMPORT	|?Active@CBaseOutputPin@@UAAJXZ|	; CBaseOutputPin::Active
	IMPORT	|?Inactive@CBaseOutputPin@@UAAJXZ|	; CBaseOutputPin::Inactive
	IMPORT	|?Run@CBasePin@@UAAJ_J@Z|		; CBasePin::Run
	IMPORT	|?CheckMediaType@CTransInPlaceOutputPin@@UAAJPBVCMediaType@@@Z| ; CTransInPlaceOutputPin::CheckMediaType
	IMPORT	|?SetMediaType@CTransformOutputPin@@UAAJPBVCMediaType@@@Z| ; CTransformOutputPin::SetMediaType
	IMPORT	|?CheckConnect@CTransformOutputPin@@UAAJPAUIPin@@@Z| ; CTransformOutputPin::CheckConnect
	IMPORT	|?BreakConnect@CTransformOutputPin@@UAAJXZ| ; CTransformOutputPin::BreakConnect
	IMPORT	|?CompleteConnect@CTransformOutputPin@@UAAJPAUIPin@@@Z| ; CTransformOutputPin::CompleteConnect
	IMPORT	|?DecideAllocator@CTransInPlaceOutputPin@@UAAJPAUIMemInputPin@@PAPAUIMemAllocator@@@Z| ; CTransInPlaceOutputPin::DecideAllocator
	IMPORT	|?DecideBufferSize@CTransformOutputPin@@UAAJPAUIMemAllocator@@PAU_AllocatorProperties@@@Z| ; CTransformOutputPin::DecideBufferSize
	IMPORT	|?GetDeliveryBuffer@CBaseOutputPin@@UAAJPAPAUIMediaSample@@PA_J1K@Z| ; CBaseOutputPin::GetDeliveryBuffer
	IMPORT	|?Deliver@CBaseOutputPin@@UAAJPAUIMediaSample@@@Z| ; CBaseOutputPin::Deliver
	IMPORT	|?InitAllocator@CBaseOutputPin@@UAAJPAPAUIMemAllocator@@@Z| ; CBaseOutputPin::InitAllocator
	IMPORT	|?DeliverEndOfStream@CBaseOutputPin@@UAAJXZ| ; CBaseOutputPin::DeliverEndOfStream
	IMPORT	|?DeliverBeginFlush@CBaseOutputPin@@UAAJXZ| ; CBaseOutputPin::DeliverBeginFlush
	IMPORT	|?DeliverEndFlush@CBaseOutputPin@@UAAJXZ| ; CBaseOutputPin::DeliverEndFlush
	IMPORT	|?DeliverNewSegment@CBaseOutputPin@@UAAJ_J0N@Z| ; CBaseOutputPin::DeliverNewSegment

  00000			 AREA	 |.pdata|, PDATA
|$T56442| DCD	|$LN5@CSampleGra@3|
	DCD	0x40001502

  00000			 AREA	 |.rdata|, DATA, READONLY
|??_7CSampleGrabberOutputPin@@6BCUnknown@@@| DCD |?NonDelegatingQueryInterface@CTransformOutputPin@@UAAJABU_GUID@@PAPAX@Z| ; CSampleGrabberOutputPin::`vftable'
	DCD	|?NonDelegatingAddRef@CBasePin@@UAAKXZ|
	DCD	|?NonDelegatingRelease@CBasePin@@UAAKXZ|
	DCD	|??_ECSampleGrabberOutputPin@@UAAPAXI@Z|
	DCD	|?GetMediaTypeVersion@CBasePin@@UAAJXZ|
	DCD	|?Active@CBaseOutputPin@@UAAJXZ|
	DCD	|?Inactive@CBaseOutputPin@@UAAJXZ|
	DCD	|?Run@CBasePin@@UAAJ_J@Z|
	DCD	|?CheckMediaType@CTransInPlaceOutputPin@@UAAJPBVCMediaType@@@Z|
	DCD	|?SetMediaType@CTransformOutputPin@@UAAJPBVCMediaType@@@Z|
	DCD	|?CheckConnect@CTransformOutputPin@@UAAJPAUIPin@@@Z|
	DCD	|?BreakConnect@CTransformOutputPin@@UAAJXZ|
	DCD	|?CompleteConnect@CTransformOutputPin@@UAAJPAUIPin@@@Z|
	DCD	|?GetMediaType@CSampleGrabberOutputPin@@UAAJHPAVCMediaType@@@Z|
	DCD	|?DecideAllocator@CTransInPlaceOutputPin@@UAAJPAUIMemInputPin@@PAPAUIMemAllocator@@@Z|
	DCD	|?DecideBufferSize@CTransformOutputPin@@UAAJPAUIMemAllocator@@PAU_AllocatorProperties@@@Z|
	DCD	|?GetDeliveryBuffer@CBaseOutputPin@@UAAJPAPAUIMediaSample@@PA_J1K@Z|
	DCD	|?Deliver@CBaseOutputPin@@UAAJPAUIMediaSample@@@Z|
	DCD	|?InitAllocator@CBaseOutputPin@@UAAJPAPAUIMemAllocator@@@Z|
	DCD	|?DeliverEndOfStream@CBaseOutputPin@@UAAJXZ|
	DCD	|?DeliverBeginFlush@CBaseOutputPin@@UAAJXZ|
	DCD	|?DeliverEndFlush@CBaseOutputPin@@UAAJXZ|
	DCD	|?DeliverNewSegment@CBaseOutputPin@@UAAJ_J0N@Z|

  00000			 AREA	 |.rdata|, DATA, READONLY
|??_7CSampleGrabberOutputPin@@6BIPin@@@| DCD |?QueryInterface@CBasePin@@UAAJABU_GUID@@PAPAX@Z| ; CSampleGrabberOutputPin::`vftable'
	DCD	|?AddRef@CBasePin@@UAAKXZ|
	DCD	|?Release@CBasePin@@UAAKXZ|
	DCD	|?Connect@CBasePin@@UAAJPAUIPin@@PBU_AMMediaType@@@Z|
	DCD	|?ReceiveConnection@CBasePin@@UAAJPAUIPin@@PBU_AMMediaType@@@Z|
	DCD	|?Disconnect@CBasePin@@UAAJXZ|
	DCD	|?ConnectedTo@CBasePin@@UAAJPAPAUIPin@@@Z|
	DCD	|?ConnectionMediaType@CBasePin@@UAAJPAU_AMMediaType@@@Z|
	DCD	|?QueryPinInfo@CBasePin@@UAAJPAU_PinInfo@@@Z|
	DCD	|?QueryDirection@CBasePin@@UAAJPAW4_PinDirection@@@Z|
	DCD	|?QueryId@CTransformOutputPin@@UAAJPAPAG@Z|
	DCD	|?QueryAccept@CBasePin@@UAAJPBU_AMMediaType@@@Z|
	DCD	|?EnumMediaTypes@CSampleGrabberOutputPin@@UAAJPAPAUIEnumMediaTypes@@@Z|
	DCD	|?QueryInternalConnections@CBasePin@@UAAJPAPAUIPin@@PAK@Z|
	DCD	|?EndOfStream@CBaseOutputPin@@UAAJXZ|
	DCD	|?BeginFlush@CBaseOutputPin@@UAAJXZ|
	DCD	|?EndFlush@CBaseOutputPin@@UAAJXZ|
	DCD	|?NewSegment@CBasePin@@UAAJ_J0N@Z|

  00000			 AREA	 |.rdata|, DATA, READONLY
|??_7CSampleGrabberOutputPin@@6BIQualityControl@@@| DCD |?QueryInterface@CBasePin@@W3AAJABU_GUID@@PAPAX@Z| ; CSampleGrabberOutputPin::`vftable'
	DCD	|?AddRef@CBasePin@@W3AAKXZ|
	DCD	|?Release@CBasePin@@W3AAKXZ|
	DCD	|?Notify@CTransformOutputPin@@UAAJPAUIBaseFilter@@UtagQuality@@@Z|
	DCD	|?SetSink@CBasePin@@UAAJPAUIQualityControl@@@Z|
; Function compile flags: /Ogspy

  00000			 AREA	 |.text|, CODE, ARM

  00000		 |??0CSampleGrabberOutputPin@@QAA@PAGPAVCSampleGrabber@@PAJPBG@Z| PROC ; CSampleGrabberOutputPin::CSampleGrabberOutputPin

; 444  : {

  00000		 |$LN5@CSampleGra@3|
  00000	e92d4030	 stmdb       sp!, {r4, r5, lr}
  00004	e24dd004	 sub         sp, sp, #4
  00008		 |$M56439|
  00008	e1a05002	 mov         r5, r2
  0000c	e1a04000	 mov         r4, r0
  00010	e59de010	 ldr         lr, [sp, #0x10]
  00014	e58de000	 str         lr, [sp]
  00018	eb000000	 bl          |??0CTransInPlaceOutputPin@@QAA@PAGPAVCTransInPlaceFilter@@PAJPBG@Z|
  0001c	e59fe02c	 ldr         lr, [pc, #0x2C]
  00020	e59f3024	 ldr         r3, [pc, #0x24]
  00024	e59f101c	 ldr         r1, [pc, #0x1C]
  00028	e584e010	 str         lr, [r4, #0x10]
  0002c	e5843000	 str         r3, [r4]
  00030	e584100c	 str         r1, [r4, #0xC]
  00034	e58450b0	 str         r5, [r4, #0xB0]

; 445  : 
; 446  : 
; 447  : }

  00038	e1a00004	 mov         r0, r4
  0003c	e28dd004	 add         sp, sp, #4
  00040	e8bd4030	 ldmia       sp!, {r4, r5, lr}
  00044	e12fff1e	 bx          lr
  00048		 |$LN6@CSampleGra@3|
  00048		 |$LN7@CSampleGra@3|
  00048	00000000	 DCD         |??_7CSampleGrabberOutputPin@@6BIPin@@@|
  0004c		 |$LN8@CSampleGra@3|
  0004c	00000000	 DCD         |??_7CSampleGrabberOutputPin@@6BCUnknown@@@|
  00050		 |$LN9@CSampleGra@3|
  00050	00000000	 DCD         |??_7CSampleGrabberOutputPin@@6BIQualityControl@@@|
  00054		 |$M56440|

			 ENDP  ; |??0CSampleGrabberOutputPin@@QAA@PAGPAVCSampleGrabber@@PAJPBG@Z|, CSampleGrabberOutputPin::CSampleGrabberOutputPin

; File c:\wince600\public\directx\sdk\inc\combase.h

  00000			 AREA	 |.pdata|, PDATA
|$T56462| DCD	|$LN7@QueryInter@2|
	DCD	0x40000801
; Function compile flags: /Ogspy
; File c:\wince600\public\directx\sdk\inc\amfilter.h

  00000			 AREA	 |.text|, CODE, ARM

  00000		 |?QueryInterface@CBasePin@@UAAJABU_GUID@@PAPAX@Z| PROC ; CBasePin::QueryInterface

; 397  :     DECLARE_IUNKNOWN

  00000		 |$LN7@QueryInter@2|
  00000	e52de004	 str         lr, [sp, #-4]!
  00004		 |$M56459|
  00004	e5100008	 ldr         r0, [r0, #-8]
  00008	e5903000	 ldr         r3, [r0]
  0000c	e5933000	 ldr         r3, [r3]
  00010	e1a0e00f	 mov         lr, pc
  00014	e12fff13	 bx          r3
  00018	e49de004	 ldr         lr, [sp], #4
  0001c	e12fff1e	 bx          lr
  00020		 |$M56460|

			 ENDP  ; |?QueryInterface@CBasePin@@UAAJABU_GUID@@PAPAX@Z|, CBasePin::QueryInterface

; File c:\wince600\public\directx\sdk\inc\combase.h

  00000			 AREA	 |.pdata|, PDATA
|$T56476| DCD	|$LN7@AddRef@2|
	DCD	0x40000801
; Function compile flags: /Ogspy
; File c:\wince600\public\directx\sdk\inc\amfilter.h

  00000			 AREA	 |.text|, CODE, ARM

  00000		 |?AddRef@CBasePin@@UAAKXZ| PROC	; CBasePin::AddRef

; 397  :     DECLARE_IUNKNOWN

  00000		 |$LN7@AddRef@2|
  00000	e52de004	 str         lr, [sp, #-4]!
  00004		 |$M56473|
  00004	e5100008	 ldr         r0, [r0, #-8]
  00008	e5903000	 ldr         r3, [r0]
  0000c	e5933004	 ldr         r3, [r3, #4]
  00010	e1a0e00f	 mov         lr, pc
  00014	e12fff13	 bx          r3
  00018	e49de004	 ldr         lr, [sp], #4
  0001c	e12fff1e	 bx          lr
  00020		 |$M56474|

			 ENDP  ; |?AddRef@CBasePin@@UAAKXZ|, CBasePin::AddRef

; File c:\wince600\public\directx\sdk\inc\combase.h

  00000			 AREA	 |.pdata|, PDATA
|$T56490| DCD	|$LN7@Release@2|
	DCD	0x40000801
; Function compile flags: /Ogspy
; File c:\wince600\public\directx\sdk\inc\amfilter.h

  00000			 AREA	 |.text|, CODE, ARM

  00000		 |?Release@CBasePin@@UAAKXZ| PROC	; CBasePin::Release

; 397  :     DECLARE_IUNKNOWN

  00000		 |$LN7@Release@2|
  00000	e52de004	 str         lr, [sp, #-4]!
  00004		 |$M56487|
  00004	e5100008	 ldr         r0, [r0, #-8]
  00008	e5903000	 ldr         r3, [r0]
  0000c	e5933008	 ldr         r3, [r3, #8]
  00010	e1a0e00f	 mov         lr, pc
  00014	e12fff13	 bx          r3
  00018	e49de004	 ldr         lr, [sp], #4
  0001c	e12fff1e	 bx          lr
  00020		 |$M56488|

			 ENDP  ; |?Release@CBasePin@@UAAKXZ|, CBasePin::Release


  00000			 AREA	 |.pdata|, PDATA
|$T56499| DCD	|$LN5@QueryInter@3|
	DCD	0x40000300
; Function compile flags: /Ogspy

  00000			 AREA	 |.text|, CODE, ARM

  00000		 |?QueryInternalConnections@CBasePin@@UAAJPAPAUIPin@@PAK@Z| PROC ; CBasePin::QueryInternalConnections

; 458  :         ) { return E_NOTIMPL; }

  00000		 |$LN5@QueryInter@3|
  00000		 |$M56496|
  00000	e3a03106	 mov         r3, #6, 2
  00004	e3830901	 orr         r0, r3, #1, 18
  00008	e12fff1e	 bx          lr
  0000c		 |$M56497|

			 ENDP  ; |?QueryInternalConnections@CBasePin@@UAAJPAPAUIPin@@PAK@Z|, CBasePin::QueryInternalConnections

	EXPORT	|??_C@_17NFNCFLGO@?$AAO?$AAu?$AAt?$AA?$AA@| [ DATA ] ; `string'
	IMPORT	|AMGetWideString|
; File c:\wince600\public\directx\sdk\inc\transfrm.h

  00000			 AREA	 |.pdata|, PDATA
|$T56509| DCD	|$LN5@QueryId|
	DCD	0x40000601

  00000			 AREA	 |.rdata|, DATA, READONLY
|??_C@_17NFNCFLGO@?$AAO?$AAu?$AAt?$AA?$AA@| DCB "O", 0x0, "u", 0x0, "t", 0x0
	DCB	0x0, 0x0				; `string'
; Function compile flags: /Ogspy

  00000			 AREA	 |.text|, CODE, ARM

  00000		 |?QueryId@CTransformOutputPin@@UAAJPAPAG@Z| PROC ; CTransformOutputPin::QueryId

; 140  :     {

  00000		 |$LN5@QueryId|
  00000	e52de004	 str         lr, [sp, #-4]!
  00004		 |$M56506|

; 141  :         return AMGetWideString(L"Out", Id);

  00004	e59f0008	 ldr         r0, [pc, #8]
  00008	eb000000	 bl          AMGetWideString

; 142  :     }

  0000c	e49de004	 ldr         lr, [sp], #4
  00010	e12fff1e	 bx          lr
  00014		 |$LN6@QueryId|
  00014		 |$LN7@QueryId|
  00014	00000000	 DCD         |??_C@_17NFNCFLGO@?$AAO?$AAu?$AAt?$AA?$AA@|
  00018		 |$M56507|

			 ENDP  ; |?QueryId@CTransformOutputPin@@UAAJPAPAG@Z|, CTransformOutputPin::QueryId

	EXPORT	|??1CSampleGrabberOutputPin@@UAA@XZ|	; CSampleGrabberOutputPin::~CSampleGrabberOutputPin

  00000			 AREA	 |.pdata|, PDATA
|$T56522| DCD	|$LN7@CSampleGra@4|
	DCD	0x40000401
; Function compile flags: /Ogspy

  00000			 AREA	 |.text|, CODE, ARM

  00000		 |??1CSampleGrabberOutputPin@@UAA@XZ| PROC ; CSampleGrabberOutputPin::~CSampleGrabberOutputPin
  00000		 |$LN7@CSampleGra@4|
  00000	e52de004	 str         lr, [sp, #-4]!
  00004		 |$M56519|
  00004	eb000000	 bl          |??1CTransformOutputPin@@UAA@XZ|
  00008	e49de004	 ldr         lr, [sp], #4
  0000c	e12fff1e	 bx          lr
  00010		 |$M56520|

			 ENDP  ; |??1CSampleGrabberOutputPin@@UAA@XZ|, CSampleGrabberOutputPin::~CSampleGrabberOutputPin

; Function compile flags: /Odspy

  00000			 AREA	 |.text|, CODE, ARM

  00000		 |?Release@CBasePin@@W3AAKXZ| PROC	; [thunk]:CBasePin::Release`adjustor{4}'
  00000	e2400004	 sub         r0, r0, #4
  00004	ea000000	 b           |?Release@CBasePin@@UAAKXZ|

			 ENDP  ; |?Release@CBasePin@@W3AAKXZ|, [thunk]:CBasePin::Release`adjustor{4}'

; Function compile flags: /Odspy

  00000			 AREA	 |.text|, CODE, ARM

  00000		 |?AddRef@CBasePin@@W3AAKXZ| PROC	; [thunk]:CBasePin::AddRef`adjustor{4}'
  00000	e2400004	 sub         r0, r0, #4
  00004	ea000000	 b           |?AddRef@CBasePin@@UAAKXZ|

			 ENDP  ; |?AddRef@CBasePin@@W3AAKXZ|, [thunk]:CBasePin::AddRef`adjustor{4}'

; Function compile flags: /Odspy

  00000			 AREA	 |.text|, CODE, ARM

  00000		 |?QueryInterface@CBasePin@@W3AAJABU_GUID@@PAPAX@Z| PROC ; [thunk]:CBasePin::QueryInterface`adjustor{4}'
  00000	e2400004	 sub         r0, r0, #4
  00004	ea000000	 b           |?QueryInterface@CBasePin@@UAAJABU_GUID@@PAPAX@Z|

			 ENDP  ; |?QueryInterface@CBasePin@@W3AAJABU_GUID@@PAPAX@Z|, [thunk]:CBasePin::QueryInterface`adjustor{4}'


  00000			 AREA	 |.pdata|, PDATA
|$T56547| DCD	|$LN10@scalar@2|
	DCD	0x40000a01
; Function compile flags: /Ogspy

  00000			 AREA	 |.text|, CODE, ARM

  00000		 |??_GCSampleGrabberOutputPin@@UAAPAXI@Z| PROC ; CSampleGrabberOutputPin::`scalar deleting destructor'
  00000		 |$LN10@scalar@2|
  00000	e92d4030	 stmdb       sp!, {r4, r5, lr}
  00004		 |$M56544|
  00004	e1a04001	 mov         r4, r1
  00008	e1a05000	 mov         r5, r0
  0000c	eb000000	 bl          |??1CTransformOutputPin@@UAA@XZ|
  00010	e3140001	 tst         r4, #1
  00014	11a00005	 movne       r0, r5
  00018	1b000000	 blne        |??3@YAXPAX@Z|
  0001c	e1a00005	 mov         r0, r5
  00020	e8bd4030	 ldmia       sp!, {r4, r5, lr}
  00024	e12fff1e	 bx          lr
  00028		 |$M56545|

			 ENDP  ; |??_GCSampleGrabberOutputPin@@UAAPAXI@Z|, CSampleGrabberOutputPin::`scalar deleting destructor'

	EXPORT	|??_C@_1HG@FPOAIOHM@?$AA?$CF?$AAs?$AA?3?$AA?5?$AAC?$AAS?$AAa?$AAm?$AAp?$AAl?$AAe?$AAG?$AAr?$AAa?$AAb?$AAb?$AAe?$AAr?$AA?3?$AA?3?$AAC?$AAr?$AAe?$AAa?$AAt?$AAe?$AAI?$AAn?$AAs?$AAt?$AAa?$AAn@| [ DATA ] ; `string'
	IMPORT	|??2@YAPAXI@Z|				; operator new
; File c:\wince600\platform\z2170p\src\app\samplegrabber\samplegrabber.cpp

  00000			 AREA	 |.bss|, NOINIT
|?hr@?1??CreateInstance@CSampleGrabber@@SAPAVCUnknown@@PAUIUnknown@@PAJ@Z@4JA| % 0x4 ; `CSampleGrabber::CreateInstance'::`2'::hr

  00000			 AREA	 |.pdata|, PDATA
|$T56565| DCD	|$LN11@CreateInst|
	DCD	0x40002201

  00000			 AREA	 |.rdata|, DATA, READONLY
|??_C@_1HG@FPOAIOHM@?$AA?$CF?$AAs?$AA?3?$AA?5?$AAC?$AAS?$AAa?$AAm?$AAp?$AAl?$AAe?$AAG?$AAr?$AAa?$AAb?$AAb?$AAe?$AAr?$AA?3?$AA?3?$AAC?$AAr?$AAe?$AAa?$AAt?$AAe?$AAI?$AAn?$AAs?$AAt?$AAa?$AAn@| DCB "%"
	DCB	0x0, "s", 0x0, ":", 0x0, " ", 0x0, "C", 0x0, "S", 0x0, "a"
	DCB	0x0, "m", 0x0, "p", 0x0, "l", 0x0, "e", 0x0, "G", 0x0, "r"
	DCB	0x0, "a", 0x0, "b", 0x0, "b", 0x0, "e", 0x0, "r", 0x0, ":"
	DCB	0x0, ":", 0x0, "C", 0x0, "r", 0x0, "e", 0x0, "a", 0x0, "t"
	DCB	0x0, "e", 0x0, "I", 0x0, "n", 0x0, "s", 0x0, "t", 0x0, "a"
	DCB	0x0, "n", 0x0, "c", 0x0, "e", 0x0, " ", 0x0, "o", 0x0, "b"
	DCB	0x0, "j", 0x0, "=", 0x0, "0", 0x0, "x", 0x0, "%", 0x0, "0"
	DCB	0x0, "8", 0x0, "X", 0x0, " ", 0x0, "h", 0x0, "r", 0x0, "="
	DCB	0x0, "0", 0x0, "x", 0x0, "%", 0x0, "0", 0x0, "8", 0x0, "X"
	DCB	0x0, " ", 0x0, 0xd, 0x0, 0xa, 0x0, 0x0, 0x0 ; `string'
; Function compile flags: /Ogspy

  00000			 AREA	 |.text|, CODE, ARM

  00000		 |?CreateInstance@CSampleGrabber@@SAPAVCUnknown@@PAUIUnknown@@PAJ@Z| PROC ; CSampleGrabber::CreateInstance

; 109  : CSampleGrabber::CreateInstance(LPUNKNOWN punk, HRESULT *phr) {

  00000		 |$LN11@CreateInst|
  00000	e92d4030	 stmdb       sp!, {r4, r5, lr}
  00004		 |$M56562|
  00004	e1b05001	 movs        r5, r1
  00008	e1a04000	 mov         r4, r0

; 110  :     static HRESULT hr = S_OK;
; 111  :     if (!phr)
; 112  :         phr = &hr;

  0000c	059f5070	 ldreq       r5, [pc, #0x70]

; 113  :     CSampleGrabber *pNewObject = new CSampleGrabber(punk, phr, FALSE);

  00010	e3a000b0	 mov         r0, #0xB0
  00014	eb000000	 bl          |??2@YAPAXI@Z|
  00018	e3500000	 cmp         r0, #0
  0001c	0a000005	 beq         |$LN5@CreateInst|
  00020	e3a03000	 mov         r3, #0
  00024	e1a02005	 mov         r2, r5
  00028	e1a01004	 mov         r1, r4
  0002c	eb000000	 bl          |??0CSampleGrabber@@QAA@PAUIUnknown@@PAJH@Z|
  00030	e1a04000	 mov         r4, r0
  00034	ea000000	 b           |$LN6@CreateInst|
  00038		 |$LN5@CreateInst|
  00038	e3a04000	 mov         r4, #0
  0003c		 |$LN6@CreateInst|

; 114  :     if (pNewObject == NULL)

  0003c	e3540000	 cmp         r4, #0
  00040	03a0313a	 moveq       r3, #0x3A, 2

; 115  :         *phr = E_OUTOFMEMORY;

  00044	03833807	 orreq       r3, r3, #7, 16
  00048	05853000	 streq       r3, [r5]

; 116  :     
; 117  :     RETAILMSG(DBGZONE_INFO, (TEXT("%s: CSampleGrabber::CreateInstance obj=0x%08X hr=0x%08X \r\n"), 
; 118  :         APP_NAME, pNewObject, *phr));

  0004c	e59f302c	 ldr         r3, [pc, #0x2C]
  00050	e5933440	 ldr         r3, [r3, #0x440]
  00054	e3130001	 tst         r3, #1
  00058	15953000	 ldrne       r3, [r5]
  0005c	159f1018	 ldrne       r1, [pc, #0x18]
  00060	159f0010	 ldrne       r0, [pc, #0x10]
  00064	11a02004	 movne       r2, r4
  00068	1b000000	 blne        NKDbgPrintfW

; 119  :     return pNewObject;
; 120  : }

  0006c	e1a00004	 mov         r0, r4
  00070	e8bd4030	 ldmia       sp!, {r4, r5, lr}
  00074	e12fff1e	 bx          lr
  00078		 |$LN12@CreateInst|
  00078		 |$LN13@CreateInst|
  00078	00000000	 DCD         |??_C@_1HG@FPOAIOHM@?$AA?$CF?$AAs?$AA?3?$AA?5?$AAC?$AAS?$AAa?$AAm?$AAp?$AAl?$AAe?$AAG?$AAr?$AAa?$AAb?$AAb?$AAe?$AAr?$AA?3?$AA?3?$AAC?$AAr?$AAe?$AAa?$AAt?$AAe?$AAI?$AAn?$AAs?$AAt?$AAa?$AAn@|
  0007c		 |$LN14@CreateInst|
  0007c	00000000	 DCD         |??_C@_1BO@LGJFMGDC@?$AAS?$AAa?$AAm?$AAp?$AAl?$AAe?$AA?5?$AAG?$AAr?$AAa?$AAb?$AAb?$AAe?$AAr?$AA?$AA@|
  00080		 |$LN15@CreateInst|
  00080	00000000	 DCD         |?dpCurSettings@@3U_DBGPARAM@@A|
  00084		 |$LN16@CreateInst|
  00084	00000000	 DCD         |?hr@?1??CreateInstance@CSampleGrabber@@SAPAVCUnknown@@PAUIUnknown@@PAJ@Z@4JA|
  00088		 |$M56563|

			 ENDP  ; |?CreateInstance@CSampleGrabber@@SAPAVCUnknown@@PAUIUnknown@@PAJ@Z|, CSampleGrabber::CreateInstance

	EXPORT	|??0CSampleGrabberInputPin@@QAA@PAGPAVCSampleGrabber@@PAJPBG@Z| ; CSampleGrabberInputPin::CSampleGrabberInputPin
	EXPORT	|??_7CSampleGrabberInputPin@@6BCUnknown@@@| [ DATA ] ; CSampleGrabberInputPin::`vftable'
	EXPORT	|??_7CSampleGrabberInputPin@@6BIPin@@@| [ DATA ] ; CSampleGrabberInputPin::`vftable'
	EXPORT	|??_7CSampleGrabberInputPin@@6BIQualityControl@@@| [ DATA ] ; CSampleGrabberInputPin::`vftable'
	EXPORT	|??_7CSampleGrabberInputPin@@6B@| [ DATA ] ; CSampleGrabberInputPin::`vftable'
	EXPORT	|?QueryInterface@CBaseInputPin@@WIM@AAJABU_GUID@@PAPAX@Z| ; [thunk]:CBaseInputPin::QueryInterface`adjustor{140}'
	EXPORT	|?AddRef@CBaseInputPin@@WIM@AAKXZ|	; [thunk]:CBaseInputPin::AddRef`adjustor{140}'
	EXPORT	|?Release@CBaseInputPin@@WIM@AAKXZ|	; [thunk]:CBaseInputPin::Release`adjustor{140}'
	EXPORT	|?QueryInterface@CBaseInputPin@@W3AAJABU_GUID@@PAPAX@Z| ; [thunk]:CBaseInputPin::QueryInterface`adjustor{4}'
	EXPORT	|?AddRef@CBaseInputPin@@W3AAKXZ|	; [thunk]:CBaseInputPin::AddRef`adjustor{4}'
	EXPORT	|?Release@CBaseInputPin@@W3AAKXZ|	; [thunk]:CBaseInputPin::Release`adjustor{4}'
	EXPORT	|?QueryInterface@CBaseInputPin@@UAAJABU_GUID@@PAPAX@Z| ; CBaseInputPin::QueryInterface
	EXPORT	|?AddRef@CBaseInputPin@@UAAKXZ|		; CBaseInputPin::AddRef
	EXPORT	|?Release@CBaseInputPin@@UAAKXZ|	; CBaseInputPin::Release
	EXPORT	|?QueryId@CTransformInputPin@@UAAJPAPAG@Z| ; CTransformInputPin::QueryId
	IMPORT	|??0CTransInPlaceInputPin@@QAA@PAGPAVCTransInPlaceFilter@@PAJPBG@Z| ; CTransInPlaceInputPin::CTransInPlaceInputPin
	IMPORT	|?GetAllocator@CTransInPlaceInputPin@@UAAJPAPAUIMemAllocator@@@Z| ; CTransInPlaceInputPin::GetAllocator
	IMPORT	|?NotifyAllocator@CTransInPlaceInputPin@@UAAJPAUIMemAllocator@@H@Z| ; CTransInPlaceInputPin::NotifyAllocator
	IMPORT	|?GetAllocatorRequirements@CTransInPlaceInputPin@@UAAJPAU_AllocatorProperties@@@Z| ; CTransInPlaceInputPin::GetAllocatorRequirements
	IMPORT	|?Receive@CTransformInputPin@@UAAJPAUIMediaSample@@@Z| ; CTransformInputPin::Receive
	IMPORT	|?ReceiveMultiple@CBaseInputPin@@UAAJPAPAUIMediaSample@@JPAJ@Z| ; CBaseInputPin::ReceiveMultiple
	IMPORT	|?ReceiveCanBlock@CBaseInputPin@@UAAJXZ| ; CBaseInputPin::ReceiveCanBlock
	IMPORT	|?Notify@CBaseInputPin@@UAAJPAUIBaseFilter@@UtagQuality@@@Z| ; CBaseInputPin::Notify
	IMPORT	|?Disconnect@CBaseInputPin@@UAAJXZ|	; CBaseInputPin::Disconnect
	IMPORT	|?EndOfStream@CTransformInputPin@@UAAJXZ| ; CTransformInputPin::EndOfStream
	IMPORT	|?BeginFlush@CTransformInputPin@@UAAJXZ| ; CTransformInputPin::BeginFlush
	IMPORT	|?EndFlush@CTransformInputPin@@UAAJXZ|	; CTransformInputPin::EndFlush
	IMPORT	|?NewSegment@CTransformInputPin@@UAAJ_J0N@Z| ; CTransformInputPin::NewSegment
	IMPORT	|?NonDelegatingQueryInterface@CBaseInputPin@@UAAJABU_GUID@@PAPAX@Z| ; CBaseInputPin::NonDelegatingQueryInterface
	IMPORT	|??_ECSampleGrabberInputPin@@UAAPAXI@Z|, WEAK |??_GCSampleGrabberInputPin@@UAAPAXI@Z| ; CSampleGrabberInputPin::`vector deleting destructor', CSampleGrabberInputPin::`scalar deleting destructor'
	IMPORT	|?Active@CBasePin@@UAAJXZ|		; CBasePin::Active
	IMPORT	|?Inactive@CBaseInputPin@@UAAJXZ|	; CBaseInputPin::Inactive
	IMPORT	|?CheckMediaType@CTransInPlaceInputPin@@UAAJPBVCMediaType@@@Z| ; CTransInPlaceInputPin::CheckMediaType
	IMPORT	|?SetMediaType@CTransformInputPin@@UAAJPBVCMediaType@@@Z| ; CTransformInputPin::SetMediaType
	IMPORT	|?CheckConnect@CTransformInputPin@@UAAJPAUIPin@@@Z| ; CTransformInputPin::CheckConnect
	IMPORT	|?BreakConnect@CTransformInputPin@@UAAJXZ| ; CTransformInputPin::BreakConnect
	IMPORT	|?CompleteConnect@CTransformInputPin@@UAAJPAUIPin@@@Z| ; CTransformInputPin::CompleteConnect
	IMPORT	|?CheckStreaming@CTransformInputPin@@UAAJXZ| ; CTransformInputPin::CheckStreaming

  00000			 AREA	 |.pdata|, PDATA
|$T56584| DCD	|$LN5@CSampleGra@5|
	DCD	0x40001802

  00000			 AREA	 |.rdata|, DATA, READONLY
|??_7CSampleGrabberInputPin@@6BCUnknown@@@| DCD |?NonDelegatingQueryInterface@CBaseInputPin@@UAAJABU_GUID@@PAPAX@Z| ; CSampleGrabberInputPin::`vftable'
	DCD	|?NonDelegatingAddRef@CBasePin@@UAAKXZ|
	DCD	|?NonDelegatingRelease@CBasePin@@UAAKXZ|
	DCD	|??_ECSampleGrabberInputPin@@UAAPAXI@Z|
	DCD	|?GetMediaTypeVersion@CBasePin@@UAAJXZ|
	DCD	|?Active@CBasePin@@UAAJXZ|
	DCD	|?Inactive@CBaseInputPin@@UAAJXZ|
	DCD	|?Run@CBasePin@@UAAJ_J@Z|
	DCD	|?CheckMediaType@CTransInPlaceInputPin@@UAAJPBVCMediaType@@@Z|
	DCD	|?SetMediaType@CTransformInputPin@@UAAJPBVCMediaType@@@Z|
	DCD	|?CheckConnect@CTransformInputPin@@UAAJPAUIPin@@@Z|
	DCD	|?BreakConnect@CTransformInputPin@@UAAJXZ|
	DCD	|?CompleteConnect@CTransformInputPin@@UAAJPAUIPin@@@Z|
	DCD	|?GetMediaType@CSampleGrabberInputPin@@UAAJHPAVCMediaType@@@Z|
	DCD	|?CheckStreaming@CTransformInputPin@@UAAJXZ|

  00000			 AREA	 |.rdata|, DATA, READONLY
|??_7CSampleGrabberInputPin@@6BIPin@@@| DCD |?QueryInterface@CBaseInputPin@@UAAJABU_GUID@@PAPAX@Z| ; CSampleGrabberInputPin::`vftable'
	DCD	|?AddRef@CBaseInputPin@@UAAKXZ|
	DCD	|?Release@CBaseInputPin@@UAAKXZ|
	DCD	|?Connect@CBasePin@@UAAJPAUIPin@@PBU_AMMediaType@@@Z|
	DCD	|?ReceiveConnection@CBasePin@@UAAJPAUIPin@@PBU_AMMediaType@@@Z|
	DCD	|?Disconnect@CBaseInputPin@@UAAJXZ|
	DCD	|?ConnectedTo@CBasePin@@UAAJPAPAUIPin@@@Z|
	DCD	|?ConnectionMediaType@CBasePin@@UAAJPAU_AMMediaType@@@Z|
	DCD	|?QueryPinInfo@CBasePin@@UAAJPAU_PinInfo@@@Z|
	DCD	|?QueryDirection@CBasePin@@UAAJPAW4_PinDirection@@@Z|
	DCD	|?QueryId@CTransformInputPin@@UAAJPAPAG@Z|
	DCD	|?QueryAccept@CBasePin@@UAAJPBU_AMMediaType@@@Z|
	DCD	|?EnumMediaTypes@CSampleGrabberInputPin@@UAAJPAPAUIEnumMediaTypes@@@Z|
	DCD	|?QueryInternalConnections@CBasePin@@UAAJPAPAUIPin@@PAK@Z|
	DCD	|?EndOfStream@CTransformInputPin@@UAAJXZ|
	DCD	|?BeginFlush@CTransformInputPin@@UAAJXZ|
	DCD	|?EndFlush@CTransformInputPin@@UAAJXZ|
	DCD	|?NewSegment@CTransformInputPin@@UAAJ_J0N@Z|

  00000			 AREA	 |.rdata|, DATA, READONLY
|??_7CSampleGrabberInputPin@@6BIQualityControl@@@| DCD |?QueryInterface@CBaseInputPin@@W3AAJABU_GUID@@PAPAX@Z| ; CSampleGrabberInputPin::`vftable'
	DCD	|?AddRef@CBaseInputPin@@W3AAKXZ|
	DCD	|?Release@CBaseInputPin@@W3AAKXZ|
	DCD	|?Notify@CBaseInputPin@@UAAJPAUIBaseFilter@@UtagQuality@@@Z|
	DCD	|?SetSink@CBasePin@@UAAJPAUIQualityControl@@@Z|

  00000			 AREA	 |.rdata|, DATA, READONLY
|??_7CSampleGrabberInputPin@@6B@| DCD |?QueryInterface@CBaseInputPin@@WIM@AAJABU_GUID@@PAPAX@Z| ; CSampleGrabberInputPin::`vftable'
	DCD	|?AddRef@CBaseInputPin@@WIM@AAKXZ|
	DCD	|?Release@CBaseInputPin@@WIM@AAKXZ|
	DCD	|?GetAllocator@CTransInPlaceInputPin@@UAAJPAPAUIMemAllocator@@@Z|
	DCD	|?NotifyAllocator@CTransInPlaceInputPin@@UAAJPAUIMemAllocator@@H@Z|
	DCD	|?GetAllocatorRequirements@CTransInPlaceInputPin@@UAAJPAU_AllocatorProperties@@@Z|
	DCD	|?Receive@CTransformInputPin@@UAAJPAUIMediaSample@@@Z|
	DCD	|?ReceiveMultiple@CBaseInputPin@@UAAJPAPAUIMediaSample@@JPAJ@Z|
	DCD	|?ReceiveCanBlock@CBaseInputPin@@UAAJXZ|
; Function compile flags: /Ogspy

  00000			 AREA	 |.text|, CODE, ARM

  00000		 |??0CSampleGrabberInputPin@@QAA@PAGPAVCSampleGrabber@@PAJPBG@Z| PROC ; CSampleGrabberInputPin::CSampleGrabberInputPin

; 342  : {

  00000		 |$LN5@CSampleGra@5|
  00000	e92d4070	 stmdb       sp!, {r4 - r6, lr}
  00004	e24dd004	 sub         sp, sp, #4
  00008		 |$M56581|
  00008	e1a06002	 mov         r6, r2
  0000c	e1a05000	 mov         r5, r0
  00010	e59de014	 ldr         lr, [sp, #0x14]
  00014	e58de000	 str         lr, [sp]
  00018	eb000000	 bl          |??0CTransInPlaceInputPin@@QAA@PAGPAVCTransInPlaceFilter@@PAJPBG@Z|
  0001c	e59fe038	 ldr         lr, [pc, #0x38]
  00020	e59f3030	 ldr         r3, [pc, #0x30]
  00024	e59f1028	 ldr         r1, [pc, #0x28]
  00028	e59f4020	 ldr         r4, [pc, #0x20]
  0002c	e585e010	 str         lr, [r5, #0x10]
  00030	e5853000	 str         r3, [r5]
  00034	e585100c	 str         r1, [r5, #0xC]
  00038	e5854098	 str         r4, [r5, #0x98]
  0003c	e58560e8	 str         r6, [r5, #0xE8]

; 343  : 
; 344  : 
; 345  : }

  00040	e1a00005	 mov         r0, r5
  00044	e28dd004	 add         sp, sp, #4
  00048	e8bd4070	 ldmia       sp!, {r4 - r6, lr}
  0004c	e12fff1e	 bx          lr
  00050		 |$LN6@CSampleGra@5|
  00050		 |$LN7@CSampleGra@5|
  00050	00000000	 DCD         |??_7CSampleGrabberInputPin@@6B@|
  00054		 |$LN8@CSampleGra@5|
  00054	00000000	 DCD         |??_7CSampleGrabberInputPin@@6BIPin@@@|
  00058		 |$LN9@CSampleGra@5|
  00058	00000000	 DCD         |??_7CSampleGrabberInputPin@@6BCUnknown@@@|
  0005c		 |$LN10@CSampleGra@5|
  0005c	00000000	 DCD         |??_7CSampleGrabberInputPin@@6BIQualityControl@@@|
  00060		 |$M56582|

			 ENDP  ; |??0CSampleGrabberInputPin@@QAA@PAGPAVCSampleGrabber@@PAJPBG@Z|, CSampleGrabberInputPin::CSampleGrabberInputPin

; File c:\wince600\public\directx\sdk\inc\combase.h

  00000			 AREA	 |.pdata|, PDATA
|$T56605| DCD	|$LN7@QueryInter@4|
	DCD	0x40000801
; Function compile flags: /Ogspy
; File c:\wince600\public\directx\sdk\inc\amfilter.h

  00000			 AREA	 |.text|, CODE, ARM

  00000		 |?QueryInterface@CBaseInputPin@@UAAJABU_GUID@@PAPAX@Z| PROC ; CBaseInputPin::QueryInterface

; 822  :     DECLARE_IUNKNOWN

  00000		 |$LN7@QueryInter@4|
  00000	e52de004	 str         lr, [sp, #-4]!
  00004		 |$M56602|
  00004	e5100008	 ldr         r0, [r0, #-8]
  00008	e5903000	 ldr         r3, [r0]
  0000c	e5933000	 ldr         r3, [r3]
  00010	e1a0e00f	 mov         lr, pc
  00014	e12fff13	 bx          r3
  00018	e49de004	 ldr         lr, [sp], #4
  0001c	e12fff1e	 bx          lr
  00020		 |$M56603|

			 ENDP  ; |?QueryInterface@CBaseInputPin@@UAAJABU_GUID@@PAPAX@Z|, CBaseInputPin::QueryInterface

; File c:\wince600\public\directx\sdk\inc\combase.h

  00000			 AREA	 |.pdata|, PDATA
|$T56619| DCD	|$LN7@AddRef@3|
	DCD	0x40000801
; Function compile flags: /Ogspy
; File c:\wince600\public\directx\sdk\inc\amfilter.h

  00000			 AREA	 |.text|, CODE, ARM

  00000		 |?AddRef@CBaseInputPin@@UAAKXZ| PROC	; CBaseInputPin::AddRef

; 822  :     DECLARE_IUNKNOWN

  00000		 |$LN7@AddRef@3|
  00000	e52de004	 str         lr, [sp, #-4]!
  00004		 |$M56616|
  00004	e5100008	 ldr         r0, [r0, #-8]
  00008	e5903000	 ldr         r3, [r0]
  0000c	e5933004	 ldr         r3, [r3, #4]
  00010	e1a0e00f	 mov         lr, pc
  00014	e12fff13	 bx          r3
  00018	e49de004	 ldr         lr, [sp], #4
  0001c	e12fff1e	 bx          lr
  00020		 |$M56617|

			 ENDP  ; |?AddRef@CBaseInputPin@@UAAKXZ|, CBaseInputPin::AddRef

; File c:\wince600\public\directx\sdk\inc\combase.h

  00000			 AREA	 |.pdata|, PDATA
|$T56633| DCD	|$LN7@Release@3|
	DCD	0x40000801
; Function compile flags: /Ogspy
; File c:\wince600\public\directx\sdk\inc\amfilter.h

  00000			 AREA	 |.text|, CODE, ARM

  00000		 |?Release@CBaseInputPin@@UAAKXZ| PROC	; CBaseInputPin::Release

; 822  :     DECLARE_IUNKNOWN

  00000		 |$LN7@Release@3|
  00000	e52de004	 str         lr, [sp, #-4]!
  00004		 |$M56630|
  00004	e5100008	 ldr         r0, [r0, #-8]
  00008	e5903000	 ldr         r3, [r0]
  0000c	e5933008	 ldr         r3, [r3, #8]
  00010	e1a0e00f	 mov         lr, pc
  00014	e12fff13	 bx          r3
  00018	e49de004	 ldr         lr, [sp], #4
  0001c	e12fff1e	 bx          lr
  00020		 |$M56631|

			 ENDP  ; |?Release@CBaseInputPin@@UAAKXZ|, CBaseInputPin::Release

	EXPORT	|??_C@_15LNJDIFMI@?$AAI?$AAn?$AA?$AA@| [ DATA ] ; `string'
; File c:\wince600\public\directx\sdk\inc\transfrm.h

  00000			 AREA	 |.pdata|, PDATA
|$T56643| DCD	|$LN5@QueryId@2|
	DCD	0x40000601

  00000			 AREA	 |.rdata|, DATA, READONLY
|??_C@_15LNJDIFMI@?$AAI?$AAn?$AA?$AA@| DCB "I", 0x0, "n", 0x0, 0x0, 0x0 ; `string'
; Function compile flags: /Ogspy

  00000			 AREA	 |.text|, CODE, ARM

  00000		 |?QueryId@CTransformInputPin@@UAAJPAPAG@Z| PROC ; CTransformInputPin::QueryId

; 63   :     {

  00000		 |$LN5@QueryId@2|
  00000	e52de004	 str         lr, [sp, #-4]!
  00004		 |$M56640|

; 64   :         return AMGetWideString(L"In", Id);

  00004	e59f0008	 ldr         r0, [pc, #8]
  00008	eb000000	 bl          AMGetWideString

; 65   :     }

  0000c	e49de004	 ldr         lr, [sp], #4
  00010	e12fff1e	 bx          lr
  00014		 |$LN6@QueryId@2|
  00014		 |$LN7@QueryId@2|
  00014	00000000	 DCD         |??_C@_15LNJDIFMI@?$AAI?$AAn?$AA?$AA@|
  00018		 |$M56641|

			 ENDP  ; |?QueryId@CTransformInputPin@@UAAJPAPAG@Z|, CTransformInputPin::QueryId

; Function compile flags: /Odspy

  00000			 AREA	 |.text|, CODE, ARM

  00000		 |?Release@CBaseInputPin@@WIM@AAKXZ| PROC ; [thunk]:CBaseInputPin::Release`adjustor{140}'
  00000	e240008c	 sub         r0, r0, #0x8C
  00004	ea000000	 b           |?Release@CBaseInputPin@@UAAKXZ|

			 ENDP  ; |?Release@CBaseInputPin@@WIM@AAKXZ|, [thunk]:CBaseInputPin::Release`adjustor{140}'

; Function compile flags: /Odspy

  00000			 AREA	 |.text|, CODE, ARM

  00000		 |?AddRef@CBaseInputPin@@W3AAKXZ| PROC	; [thunk]:CBaseInputPin::AddRef`adjustor{4}'
  00000	e2400004	 sub         r0, r0, #4
  00004	ea000000	 b           |?AddRef@CBaseInputPin@@UAAKXZ|

			 ENDP  ; |?AddRef@CBaseInputPin@@W3AAKXZ|, [thunk]:CBaseInputPin::AddRef`adjustor{4}'

; Function compile flags: /Odspy

  00000			 AREA	 |.text|, CODE, ARM

  00000		 |?AddRef@CBaseInputPin@@WIM@AAKXZ| PROC ; [thunk]:CBaseInputPin::AddRef`adjustor{140}'
  00000	e240008c	 sub         r0, r0, #0x8C
  00004	ea000000	 b           |?AddRef@CBaseInputPin@@UAAKXZ|

			 ENDP  ; |?AddRef@CBaseInputPin@@WIM@AAKXZ|, [thunk]:CBaseInputPin::AddRef`adjustor{140}'

; Function compile flags: /Odspy

  00000			 AREA	 |.text|, CODE, ARM

  00000		 |?QueryInterface@CBaseInputPin@@W3AAJABU_GUID@@PAPAX@Z| PROC ; [thunk]:CBaseInputPin::QueryInterface`adjustor{4}'
  00000	e2400004	 sub         r0, r0, #4
  00004	ea000000	 b           |?QueryInterface@CBaseInputPin@@UAAJABU_GUID@@PAPAX@Z|

			 ENDP  ; |?QueryInterface@CBaseInputPin@@W3AAJABU_GUID@@PAPAX@Z|, [thunk]:CBaseInputPin::QueryInterface`adjustor{4}'

; Function compile flags: /Odspy

  00000			 AREA	 |.text|, CODE, ARM

  00000		 |?Release@CBaseInputPin@@W3AAKXZ| PROC	; [thunk]:CBaseInputPin::Release`adjustor{4}'
  00000	e2400004	 sub         r0, r0, #4
  00004	ea000000	 b           |?Release@CBaseInputPin@@UAAKXZ|

			 ENDP  ; |?Release@CBaseInputPin@@W3AAKXZ|, [thunk]:CBaseInputPin::Release`adjustor{4}'

; Function compile flags: /Odspy

  00000			 AREA	 |.text|, CODE, ARM

  00000		 |?QueryInterface@CBaseInputPin@@WIM@AAJABU_GUID@@PAPAX@Z| PROC ; [thunk]:CBaseInputPin::QueryInterface`adjustor{140}'
  00000	e240008c	 sub         r0, r0, #0x8C
  00004	ea000000	 b           |?QueryInterface@CBaseInputPin@@UAAJABU_GUID@@PAPAX@Z|

			 ENDP  ; |?QueryInterface@CBaseInputPin@@WIM@AAJABU_GUID@@PAPAX@Z|, [thunk]:CBaseInputPin::QueryInterface`adjustor{140}'

	EXPORT	|??1CSampleGrabberInputPin@@UAA@XZ|	; CSampleGrabberInputPin::~CSampleGrabberInputPin

  00000			 AREA	 |.pdata|, PDATA
|$T56673| DCD	|$LN9@CSampleGra@6|
	DCD	0x40000401
; Function compile flags: /Ogspy

  00000			 AREA	 |.text|, CODE, ARM

  00000		 |??1CSampleGrabberInputPin@@UAA@XZ| PROC ; CSampleGrabberInputPin::~CSampleGrabberInputPin
  00000		 |$LN9@CSampleGra@6|
  00000	e52de004	 str         lr, [sp, #-4]!
  00004		 |$M56670|
  00004	eb000000	 bl          |??1CBaseInputPin@@UAA@XZ|
  00008	e49de004	 ldr         lr, [sp], #4
  0000c	e12fff1e	 bx          lr
  00010		 |$M56671|

			 ENDP  ; |??1CSampleGrabberInputPin@@UAA@XZ|, CSampleGrabberInputPin::~CSampleGrabberInputPin


  00000			 AREA	 |.pdata|, PDATA
|$T56699| DCD	|$LN12@scalar@3|
	DCD	0x40000a01
; Function compile flags: /Ogspy

  00000			 AREA	 |.text|, CODE, ARM

  00000		 |??_GCSampleGrabberInputPin@@UAAPAXI@Z| PROC ; CSampleGrabberInputPin::`scalar deleting destructor'
  00000		 |$LN12@scalar@3|
  00000	e92d4030	 stmdb       sp!, {r4, r5, lr}
  00004		 |$M56696|
  00004	e1a04001	 mov         r4, r1
  00008	e1a05000	 mov         r5, r0
  0000c	eb000000	 bl          |??1CBaseInputPin@@UAA@XZ|
  00010	e3140001	 tst         r4, #1
  00014	11a00005	 movne       r0, r5
  00018	1b000000	 blne        |??3@YAXPAX@Z|
  0001c	e1a00005	 mov         r0, r5
  00020	e8bd4030	 ldmia       sp!, {r4, r5, lr}
  00024	e12fff1e	 bx          lr
  00028		 |$M56697|

			 ENDP  ; |??_GCSampleGrabberInputPin@@UAAPAXI@Z|, CSampleGrabberInputPin::`scalar deleting destructor'

	EXPORT	|??_C@_1O@GJMACMBA@?$AAO?$AAu?$AAt?$AAp?$AAu?$AAt?$AA?$AA@| [ DATA ] ; `string'
	EXPORT	|??_C@_1M@PFCMLKBL@?$AAI?$AAn?$AAp?$AAu?$AAt?$AA?$AA@| [ DATA ] ; `string'
; File c:\wince600\platform\z2170p\src\app\samplegrabber\samplegrabber.cpp

  00000			 AREA	 |.pdata|, PDATA
|$T56724| DCD	|$LN19@GetPin|
	DCD	0x40003e02

  00000			 AREA	 |.rdata|, DATA, READONLY
|??_C@_1O@GJMACMBA@?$AAO?$AAu?$AAt?$AAp?$AAu?$AAt?$AA?$AA@| DCB "O", 0x0, "u"
	DCB	0x0, "t", 0x0, "p", 0x0, "u", 0x0, "t", 0x0, 0x0, 0x0 ; `string'

  00000			 AREA	 |.rdata|, DATA, READONLY
|??_C@_1M@PFCMLKBL@?$AAI?$AAn?$AAp?$AAu?$AAt?$AA?$AA@| DCB "I", 0x0, "n", 0x0
	DCB	"p", 0x0, "u", 0x0, "t", 0x0, 0x0, 0x0	; `string'
; Function compile flags: /Ogspy

  00000			 AREA	 |.text|, CODE, ARM

  00000		 |?GetPin@CSampleGrabber@@UAAPAVCBasePin@@H@Z| PROC ; CSampleGrabber::GetPin

; 158  : {

  00000		 |$LN19@GetPin|
  00000	e92d4030	 stmdb       sp!, {r4, r5, lr}
  00004	e24dd008	 sub         sp, sp, #8
  00008		 |$M56721|
  00008	e1a05001	 mov         r5, r1
  0000c	e1a04000	 mov         r4, r0

; 159  :     HRESULT hr = S_OK;
; 160  : 
; 161  :     // Create an input pin if not already done
; 162  : 
; 163  :     if (m_pInput == NULL) {

  00010	e5943084	 ldr         r3, [r4, #0x84]
  00014	e3a02000	 mov         r2, #0
  00018	e58d2004	 str         r2, [sp, #4]
  0001c	e3530000	 cmp         r3, #0
  00020	1a00000e	 bne         |$LN16@GetPin|

; 164  : 
; 165  :         m_pInput = new CSampleGrabberInputPin( NAME("Sample Grabber input pin")
; 166  :                                             , this        // Owner filter
; 167  :                                             , &hr         // Result code
; 168  :                                             , L"Input"    // Pin name
; 169  :                                             );

  00024	e3a000f0	 mov         r0, #0xF0
  00028	eb000000	 bl          |??2@YAPAXI@Z|
  0002c	e3500000	 cmp         r0, #0
  00030	0a000006	 beq         |$LN10@GetPin|
  00034	e59fe0b8	 ldr         lr, [pc, #0xB8]
  00038	e28d3004	 add         r3, sp, #4
  0003c	e1a02004	 mov         r2, r4
  00040	e3a01000	 mov         r1, #0
  00044	e58de000	 str         lr, [sp]
  00048	eb000000	 bl          |??0CSampleGrabberInputPin@@QAA@PAGPAVCSampleGrabber@@PAJPBG@Z|
  0004c	ea000000	 b           |$LN11@GetPin|
  00050		 |$LN10@GetPin|
  00050	e3a00000	 mov         r0, #0
  00054		 |$LN11@GetPin|
  00054	e5840084	 str         r0, [r4, #0x84]

; 170  : 
; 171  :         // Constructor for CTransInPlaceInputPin can't fail
; 172  :         ASSERT(SUCCEEDED(hr));
; 173  :     }
; 174  : 
; 175  :     // Create an output pin if not already done
; 176  : 
; 177  :     if (m_pInput!=NULL && m_pOutput == NULL) {

  00058	e3500000	 cmp         r0, #0
  0005c	0a00001a	 beq         |$LN5@GetPin|
  00060		 |$LN16@GetPin|
  00060	e5943088	 ldr         r3, [r4, #0x88]
  00064	e3530000	 cmp         r3, #0
  00068	1a000017	 bne         |$LN5@GetPin|

; 178  : 
; 179  :         m_pOutput = new CSampleGrabberOutputPin( NAME("Sample Grabber output pin")
; 180  :                                               , this       // Owner filter
; 181  :                                               , &hr        // Result code
; 182  :                                               , L"Output"  // Pin name
; 183  :                                               );

  0006c	e3a000b8	 mov         r0, #0xB8
  00070	eb000000	 bl          |??2@YAPAXI@Z|
  00074	e3500000	 cmp         r0, #0
  00078	0a000006	 beq         |$LN12@GetPin|
  0007c	e59f106c	 ldr         r1, [pc, #0x6C]
  00080	e28d3004	 add         r3, sp, #4
  00084	e1a02004	 mov         r2, r4
  00088	e58d1000	 str         r1, [sp]
  0008c	e3a01000	 mov         r1, #0
  00090	eb000000	 bl          |??0CSampleGrabberOutputPin@@QAA@PAGPAVCSampleGrabber@@PAJPBG@Z|
  00094	ea000000	 b           |$LN13@GetPin|
  00098		 |$LN12@GetPin|
  00098	e3a00000	 mov         r0, #0
  0009c		 |$LN13@GetPin|
  0009c	e5840088	 str         r0, [r4, #0x88]

; 184  : 
; 185  :         // a failed return code should delete the object
; 186  : 
; 187  :         ASSERT(SUCCEEDED(hr));
; 188  :         if (m_pOutput == NULL) {

  000a0	e3500000	 cmp         r0, #0
  000a4	1a000008	 bne         |$LN5@GetPin|

; 189  :             delete m_pInput;

  000a8	e5943084	 ldr         r3, [r4, #0x84]
  000ac	e1b00003	 movs        r0, r3
  000b0	15903000	 ldrne       r3, [r0]
  000b4	13a01001	 movne       r1, #1
  000b8	1593300c	 ldrne       r3, [r3, #0xC]
  000bc	11a0e00f	 movne       lr, pc
  000c0	112fff13	 bxne        r3

; 190  :             m_pInput = NULL;

  000c4	e3a03000	 mov         r3, #0
  000c8	e5843084	 str         r3, [r4, #0x84]
  000cc		 |$LN5@GetPin|

; 191  :         }
; 192  :     }
; 193  : 
; 194  :     // Return the appropriate pin
; 195  : 
; 196  :     ASSERT (n>=0 && n<=1);
; 197  :     if (n == 0) {

  000cc	e3550000	 cmp         r5, #0

; 198  :         return m_pInput;

  000d0	05940084	 ldreq       r0, [r4, #0x84]
  000d4	0a000002	 beq         |$LN1@GetPin|

; 199  :     } else if (n==1) {

  000d8	e3550001	 cmp         r5, #1

; 200  :         return m_pOutput;

  000dc	05940088	 ldreq       r0, [r4, #0x88]

; 201  :     } else {
; 202  :         return NULL;

  000e0	13a00000	 movne       r0, #0
  000e4		 |$LN1@GetPin|

; 203  :     }
; 204  : 
; 205  : } // GetPin

  000e4	e28dd008	 add         sp, sp, #8
  000e8	e8bd4030	 ldmia       sp!, {r4, r5, lr}
  000ec	e12fff1e	 bx          lr
  000f0		 |$LN20@GetPin|
  000f0		 |$LN21@GetPin|
  000f0	00000000	 DCD         |??_C@_1O@GJMACMBA@?$AAO?$AAu?$AAt?$AAp?$AAu?$AAt?$AA?$AA@|
  000f4		 |$LN22@GetPin|
  000f4	00000000	 DCD         |??_C@_1M@PFCMLKBL@?$AAI?$AAn?$AAp?$AAu?$AAt?$AA?$AA@|
  000f8		 |$M56722|

			 ENDP  ; |?GetPin@CSampleGrabber@@UAAPAVCBasePin@@H@Z|, CSampleGrabber::GetPin

	END
