; Listing generated by Microsoft (R) Optimizing Compiler Version 14.01.60511.01 

	TTL	C:\WINCE600\PLATFORM\COMMON\SRC\SOC\COMMON_TI_V1\COMMON_TI\CEDDK\I2C\i2c.c
	CODE32

  00000			 AREA	 |.drectve|, DRECTVE
	DCB	"-defaultlib:LIBCMT "
	DCB	"-defaultlib:OLDNAMES "


  00000			 AREA	 |.bss|, NOINIT
|_bI2CFnTableInit| % 0x4

  00000			 AREA	 |.rdata|, DATA, READONLY
|EdbgVendorIds| DCW 0x0
	DCW	0x0
	DCD	0x4033
	DCB	0x1
	DCB	"AD", 0x0
	DCW	0x1050
	DCW	0x940
	DCD	0x4005
	DCB	0x1
	DCB	"LS", 0x0
	DCW	0x1050
	DCW	0x940
	DCD	0x2078
	DCB	0x1
	DCB	"LS", 0x0
	DCW	0x10ec
	DCW	0x8029
	DCD	0xc0f0
	DCB	0x1
	DCB	"KS", 0x0
	DCW	0x10ec
	DCW	0x8129
	DCD	0x0
	DCB	0x4
	DCB	"RT", 0x0
	DCW	0x10ec
	DCW	0x8139
	DCD	0x900b
	DCB	0x4
	DCB	"RT", 0x0
	DCW	0x10ec
	DCW	0x8139
	DCD	0xd0c9
	DCB	0x4
	DCB	"RT", 0x0
	DCW	0x10ec
	DCW	0x8139
	DCD	0xe04c
	DCB	0x4
	DCB	"RT", 0x0
	DCW	0x1186
	DCW	0x1300
	DCD	0x50ba
	DCB	0x4
	DCB	"DL", 0x0
	DCW	0x100b
	DCW	0x20
	DCD	0xa0cc
	DCB	0x5
	DCB	"NG", 0x0
	DCW	0x10b7
	DCW	0x9050
	DCD	0x6008
	DCB	0x6
	DCB	"3C", 0x0
	DCW	0x10b7
	DCW	0x9200
	DCD	0x476
	DCB	0x6
	DCB	"3C", 0x0
	IMPORT	|KernelIoControl|
	IMPORT	|memset|

  00004			 AREA	 |.bss|, NOINIT
|_i2cFnTable| %	0x34
|_i2cFnTable| %	0x34
; File c:\wince600\platform\common\src\soc\common_ti_v1\common_ti\ceddk\i2c\i2c.c

  00000			 AREA	 |.pdata|, PDATA
|$T44618| DCD	|$LN8@I2CInitial|
	DCD	0x40001c02
; Function compile flags: /Ogspy

  00000			 AREA	 |.text|, CODE, ARM

  00000		 |I2CInitialize| PROC

; 42   : {

  00000		 |$LN8@I2CInitial|
  00000	e92d4010	 stmdb       sp!, {r4, lr}
  00004	e24dd008	 sub         sp, sp, #8
  00008		 |$M44615|

; 43   :     if (_bI2CFnTableInit == FALSE)

  00008	e59f405c	 ldr         r4, [pc, #0x5C]
  0000c	e5940034	 ldr         r0, [r4, #0x34]
  00010	e3500000	 cmp         r0, #0
  00014	1a000010	 bne         |$LN1@I2CInitial|

; 44   :     {
; 45   :         // get clock ref counter table from kernel
; 46   :         if (KernelIoControl(IOCTL_HAL_I2CCOPYFNTABLE, (void*)&_i2cFnTable,
; 47   :             sizeof(OAL_IFC_I2C), NULL, 0, NULL))

  00018	e59f0048	 ldr         r0, [pc, #0x48]
  0001c	e3a0e000	 mov         lr, #0
  00020	e3a03000	 mov         r3, #0
  00024	e3a02034	 mov         r2, #0x34
  00028	e1a01004	 mov         r1, r4
  0002c	e58de004	 str         lr, [sp, #4]
  00030	e58de000	 str         lr, [sp]
  00034	eb000000	 bl          KernelIoControl
  00038	e3500000	 cmp         r0, #0

; 48   :         {
; 49   :             _bI2CFnTableInit = TRUE;

  0003c	13a00001	 movne       r0, #1
  00040	15840034	 strne       r0, [r4, #0x34]
  00044	1a000004	 bne         |$LN1@I2CInitial|

; 50   :         }
; 51   :         else
; 52   :         {
; 53   :             memset(&_i2cFnTable,0,sizeof(_i2cFnTable));

  00048	e3a02034	 mov         r2, #0x34
  0004c	e3a01000	 mov         r1, #0
  00050	e1a00004	 mov         r0, r4
  00054	eb000000	 bl          memset
  00058	e5940034	 ldr         r0, [r4, #0x34]
  0005c		 |$LN1@I2CInitial|

; 54   :         }
; 55   :     }
; 56   :     return _bI2CFnTableInit;
; 57   : }

  0005c	e28dd008	 add         sp, sp, #8
  00060	e8bd4010	 ldmia       sp!, {r4, lr}
  00064	e12fff1e	 bx          lr
  00068		 |$LN9@I2CInitial|
  00068		 |$LN10@I2CInitial|
  00068	01011014	 DCD         0x1011014
  0006c		 |$LN11@I2CInitial|
  0006c	00000000	 DCD         |_i2cFnTable|
  00070		 |$M44616|

			 ENDP  ; |I2CInitialize|

	EXPORT	|I2CGetDeviceIdFromMembase|
	IMPORT	|GetDeviceByAddress|

  00000			 AREA	 |.pdata|, PDATA
|$T44631| DCD	|$LN5@I2CGetDevi|
	DCD	0x40000401
; Function compile flags: /Ogspy

  00000			 AREA	 |.text|, CODE, ARM

  00000		 |I2CGetDeviceIdFromMembase| PROC

; 66   : {

  00000		 |$LN5@I2CGetDevi|
  00000	e52de004	 str         lr, [sp, #-4]!
  00004		 |$M44628|

; 67   :     return GetDeviceByAddress(memBase);

  00004	eb000000	 bl          GetDeviceByAddress

; 68   : }

  00008	e49de004	 ldr         lr, [sp], #4
  0000c	e12fff1e	 bx          lr
  00010		 |$M44629|

			 ENDP  ; |I2CGetDeviceIdFromMembase|

	EXPORT	|I2COpen|

  00000			 AREA	 |.pdata|, PDATA
|$T44647| DCD	|$LN11@I2COpen|
	DCD	0x40002502
; Function compile flags: /Ogspy

  00000			 AREA	 |.text|, CODE, ARM

  00000		 |I2COpen| PROC

; 76   : {

  00000		 |$LN11@I2COpen|
  00000	e92d4030	 stmdb       sp!, {r4, r5, lr}
  00004	e24dd008	 sub         sp, sp, #8
  00008		 |$M44644|
  00008	e1a05000	 mov         r5, r0

; 77   :     if (I2CInitialize() == FALSE) return NULL;

  0000c	e59f407c	 ldr         r4, [pc, #0x7C]
  00010	e5943034	 ldr         r3, [r4, #0x34]
  00014	e3530000	 cmp         r3, #0
  00018	1a00000b	 bne         |$LN1@I2COpen|
  0001c	e59f0068	 ldr         r0, [pc, #0x68]
  00020	e3a0e000	 mov         lr, #0
  00024	e3a03000	 mov         r3, #0
  00028	e3a02034	 mov         r2, #0x34
  0002c	e1a01004	 mov         r1, r4
  00030	e58de004	 str         lr, [sp, #4]
  00034	e58de000	 str         lr, [sp]
  00038	eb000000	 bl          KernelIoControl
  0003c	e3500000	 cmp         r0, #0
  00040	0a000008	 beq         |$LN5@I2COpen|
  00044	e3a03001	 mov         r3, #1
  00048	e5843034	 str         r3, [r4, #0x34]
  0004c		 |$LN1@I2COpen|

; 78   : 
; 79   :     return _i2cFnTable.fnI2COpen(devId);

  0004c	e5943008	 ldr         r3, [r4, #8]
  00050	e1a00005	 mov         r0, r5
  00054	e1a0e00f	 mov         lr, pc
  00058	e12fff13	 bx          r3
  0005c		 |$LN2@I2COpen|

; 80   : }

  0005c	e28dd008	 add         sp, sp, #8
  00060	e8bd4030	 ldmia       sp!, {r4, r5, lr}
  00064	e12fff1e	 bx          lr

; 77   :     if (I2CInitialize() == FALSE) return NULL;

  00068		 |$LN5@I2COpen|
  00068	e3a02034	 mov         r2, #0x34
  0006c	e3a01000	 mov         r1, #0
  00070	e1a00004	 mov         r0, r4
  00074	eb000000	 bl          memset
  00078	e5943034	 ldr         r3, [r4, #0x34]
  0007c	e3530000	 cmp         r3, #0
  00080	1afffff1	 bne         |$LN1@I2COpen|
  00084	e3a00000	 mov         r0, #0
  00088	eafffff3	 b           |$LN2@I2COpen|
  0008c		 |$LN12@I2COpen|
  0008c		 |$LN13@I2COpen|
  0008c	01011014	 DCD         0x1011014
  00090		 |$LN14@I2COpen|
  00090	00000000	 DCD         |_i2cFnTable|
  00094		 |$M44645|

			 ENDP  ; |I2COpen|

	EXPORT	|I2CSetSlaveAddress|

  00000			 AREA	 |.pdata|, PDATA
|$T44661| DCD	|$LN5@I2CSetSlav|
	DCD	0x40000801
; Function compile flags: /Ogspy

  00000			 AREA	 |.text|, CODE, ARM

  00000		 |I2CSetSlaveAddress| PROC

; 89   : {

  00000		 |$LN5@I2CSetSlav|
  00000	e52de004	 str         lr, [sp, #-4]!
  00004		 |$M44658|

; 90   :     return _i2cFnTable.fnI2CSetSlaveAddress(hContext,slaveAddress);

  00004	e59f3010	 ldr         r3, [pc, #0x10]
  00008	e5933018	 ldr         r3, [r3, #0x18]
  0000c	e1a0e00f	 mov         lr, pc
  00010	e12fff13	 bx          r3

; 91   : }

  00014	e49de004	 ldr         lr, [sp], #4
  00018	e12fff1e	 bx          lr
  0001c		 |$LN6@I2CSetSlav|
  0001c		 |$LN7@I2CSetSlav|
  0001c	00000000	 DCD         |_i2cFnTable|
  00020		 |$M44659|

			 ENDP  ; |I2CSetSlaveAddress|

	EXPORT	|I2CSetSubAddressMode|

  00000			 AREA	 |.pdata|, PDATA
|$T44672| DCD	|$LN5@I2CSetSubA|
	DCD	0x40000801
; Function compile flags: /Ogspy

  00000			 AREA	 |.text|, CODE, ARM

  00000		 |I2CSetSubAddressMode| PROC

; 99   : {

  00000		 |$LN5@I2CSetSubA|
  00000	e52de004	 str         lr, [sp, #-4]!
  00004		 |$M44669|

; 100  :     _i2cFnTable.fnI2CSetSubAddressMode(hContext,subAddressMode);    

  00004	e59f3010	 ldr         r3, [pc, #0x10]
  00008	e593301c	 ldr         r3, [r3, #0x1C]
  0000c	e1a0e00f	 mov         lr, pc
  00010	e12fff13	 bx          r3

; 101  : }

  00014	e49de004	 ldr         lr, [sp], #4
  00018	e12fff1e	 bx          lr
  0001c		 |$LN6@I2CSetSubA|
  0001c		 |$LN7@I2CSetSubA|
  0001c	00000000	 DCD         |_i2cFnTable|
  00020		 |$M44670|

			 ENDP  ; |I2CSetSubAddressMode|

	EXPORT	|I2CSetBaudIndex|

  00000			 AREA	 |.pdata|, PDATA
|$T44683| DCD	|$LN5@I2CSetBaud|
	DCD	0x40000801
; Function compile flags: /Ogspy

  00000			 AREA	 |.text|, CODE, ARM

  00000		 |I2CSetBaudIndex| PROC

; 109  : {

  00000		 |$LN5@I2CSetBaud|
  00000	e52de004	 str         lr, [sp, #-4]!
  00004		 |$M44680|

; 110  :     _i2cFnTable.fnI2CSetBaudIndex(hContext,baudIndex);    

  00004	e59f3010	 ldr         r3, [pc, #0x10]
  00008	e5933020	 ldr         r3, [r3, #0x20]
  0000c	e1a0e00f	 mov         lr, pc
  00010	e12fff13	 bx          r3

; 111  : }

  00014	e49de004	 ldr         lr, [sp], #4
  00018	e12fff1e	 bx          lr
  0001c		 |$LN6@I2CSetBaud|
  0001c		 |$LN7@I2CSetBaud|
  0001c	00000000	 DCD         |_i2cFnTable|
  00020		 |$M44681|

			 ENDP  ; |I2CSetBaudIndex|

	EXPORT	|I2CSetTimeout|

  00000			 AREA	 |.pdata|, PDATA
|$T44694| DCD	|$LN5@I2CSetTime|
	DCD	0x40000801
; Function compile flags: /Ogspy

  00000			 AREA	 |.text|, CODE, ARM

  00000		 |I2CSetTimeout| PROC

; 119  : {

  00000		 |$LN5@I2CSetTime|
  00000	e52de004	 str         lr, [sp, #-4]!
  00004		 |$M44691|

; 120  :     _i2cFnTable.fnI2CSetTimeout(hContext,timeOut); 

  00004	e59f3010	 ldr         r3, [pc, #0x10]
  00008	e5933024	 ldr         r3, [r3, #0x24]
  0000c	e1a0e00f	 mov         lr, pc
  00010	e12fff13	 bx          r3

; 121  : }

  00014	e49de004	 ldr         lr, [sp], #4
  00018	e12fff1e	 bx          lr
  0001c		 |$LN6@I2CSetTime|
  0001c		 |$LN7@I2CSetTime|
  0001c	00000000	 DCD         |_i2cFnTable|
  00020		 |$M44692|

			 ENDP  ; |I2CSetTimeout|

	EXPORT	|I2CClose|

  00000			 AREA	 |.pdata|, PDATA
|$T44704| DCD	|$LN5@I2CClose|
	DCD	0x40000801
; Function compile flags: /Ogspy

  00000			 AREA	 |.text|, CODE, ARM

  00000		 |I2CClose| PROC

; 129  : {

  00000		 |$LN5@I2CClose|
  00000	e52de004	 str         lr, [sp, #-4]!
  00004		 |$M44701|

; 130  :     _i2cFnTable.fnI2CClose(hContext);

  00004	e59f3010	 ldr         r3, [pc, #0x10]
  00008	e593300c	 ldr         r3, [r3, #0xC]
  0000c	e1a0e00f	 mov         lr, pc
  00010	e12fff13	 bx          r3

; 131  : }

  00014	e49de004	 ldr         lr, [sp], #4
  00018	e12fff1e	 bx          lr
  0001c		 |$LN6@I2CClose|
  0001c		 |$LN7@I2CClose|
  0001c	00000000	 DCD         |_i2cFnTable|
  00020		 |$M44702|

			 ENDP  ; |I2CClose|

	EXPORT	|I2CRead|

  00000			 AREA	 |.pdata|, PDATA
|$T44719| DCD	|$LN5@I2CRead|
	DCD	0x40000801
; Function compile flags: /Ogspy

  00000			 AREA	 |.text|, CODE, ARM

  00000		 |I2CRead| PROC

; 141  : {

  00000		 |$LN5@I2CRead|
  00000	e92d4010	 stmdb       sp!, {r4, lr}
  00004		 |$M44716|

; 142  :     return _i2cFnTable.fnI2CRead(hCtx, subAddr, pBuffer, size);

  00004	e59fe010	 ldr         lr, [pc, #0x10]
  00008	e59e4014	 ldr         r4, [lr, #0x14]
  0000c	e1a0e00f	 mov         lr, pc
  00010	e12fff14	 bx          r4

; 143  : }

  00014	e8bd4010	 ldmia       sp!, {r4, lr}
  00018	e12fff1e	 bx          lr
  0001c		 |$LN6@I2CRead|
  0001c		 |$LN7@I2CRead|
  0001c	00000000	 DCD         |_i2cFnTable|
  00020		 |$M44717|

			 ENDP  ; |I2CRead|

	EXPORT	|I2CWrite|

  00000			 AREA	 |.pdata|, PDATA
|$T44734| DCD	|$LN5@I2CWrite|
	DCD	0x40000801
; Function compile flags: /Ogspy

  00000			 AREA	 |.text|, CODE, ARM

  00000		 |I2CWrite| PROC

; 153  : {

  00000		 |$LN5@I2CWrite|
  00000	e92d4010	 stmdb       sp!, {r4, lr}
  00004		 |$M44731|

; 154  :     return _i2cFnTable.fnI2CWrite(hCtx, subAddr, (VOID*)pBuffer, size);

  00004	e59fe010	 ldr         lr, [pc, #0x10]
  00008	e59e4010	 ldr         r4, [lr, #0x10]
  0000c	e1a0e00f	 mov         lr, pc
  00010	e12fff14	 bx          r4

; 155  : }

  00014	e8bd4010	 ldmia       sp!, {r4, lr}
  00018	e12fff1e	 bx          lr
  0001c		 |$LN6@I2CWrite|
  0001c		 |$LN7@I2CWrite|
  0001c	00000000	 DCD         |_i2cFnTable|
  00020		 |$M44732|

			 ENDP  ; |I2CWrite|

	EXPORT	|I2CLock|

  00000			 AREA	 |.pdata|, PDATA
|$T44744| DCD	|$LN5@I2CLock|
	DCD	0x40000801
; Function compile flags: /Ogspy

  00000			 AREA	 |.text|, CODE, ARM

  00000		 |I2CLock| PROC

; 158  : {

  00000		 |$LN5@I2CLock|
  00000	e52de004	 str         lr, [sp, #-4]!
  00004		 |$M44741|

; 159  :     _i2cFnTable.fnI2CLock(hCtx);

  00004	e59f3010	 ldr         r3, [pc, #0x10]
  00008	e5933000	 ldr         r3, [r3]
  0000c	e1a0e00f	 mov         lr, pc
  00010	e12fff13	 bx          r3

; 160  : }           

  00014	e49de004	 ldr         lr, [sp], #4
  00018	e12fff1e	 bx          lr
  0001c		 |$LN6@I2CLock|
  0001c		 |$LN7@I2CLock|
  0001c	00000000	 DCD         |_i2cFnTable|
  00020		 |$M44742|

			 ENDP  ; |I2CLock|

	EXPORT	|I2CUnlock|

  00000			 AREA	 |.pdata|, PDATA
|$T44754| DCD	|$LN5@I2CUnlock|
	DCD	0x40000801
; Function compile flags: /Ogspy

  00000			 AREA	 |.text|, CODE, ARM

  00000		 |I2CUnlock| PROC

; 163  : {

  00000		 |$LN5@I2CUnlock|
  00000	e52de004	 str         lr, [sp, #-4]!
  00004		 |$M44751|

; 164  :     _i2cFnTable.fnI2CUnlock(hCtx);

  00004	e59f3010	 ldr         r3, [pc, #0x10]
  00008	e5933004	 ldr         r3, [r3, #4]
  0000c	e1a0e00f	 mov         lr, pc
  00010	e12fff13	 bx          r3

; 165  : } 

  00014	e49de004	 ldr         lr, [sp], #4
  00018	e12fff1e	 bx          lr
  0001c		 |$LN6@I2CUnlock|
  0001c		 |$LN7@I2CUnlock|
  0001c	00000000	 DCD         |_i2cFnTable|
  00020		 |$M44752|

			 ENDP  ; |I2CUnlock|

	EXPORT	|I2CSetManualDriveMode|

  00000			 AREA	 |.pdata|, PDATA
|$T44765| DCD	|$LN5@I2CSetManu|
	DCD	0x40000801
; Function compile flags: /Ogspy

  00000			 AREA	 |.text|, CODE, ARM

  00000		 |I2CSetManualDriveMode| PROC

; 169  : {

  00000		 |$LN5@I2CSetManu|
  00000	e52de004	 str         lr, [sp, #-4]!
  00004		 |$M44762|

; 170  :     _i2cFnTable.fnSetManualDriveMode(hCtx,fOn);

  00004	e59f3010	 ldr         r3, [pc, #0x10]
  00008	e5933028	 ldr         r3, [r3, #0x28]
  0000c	e1a0e00f	 mov         lr, pc
  00010	e12fff13	 bx          r3

; 171  : }

  00014	e49de004	 ldr         lr, [sp], #4
  00018	e12fff1e	 bx          lr
  0001c		 |$LN6@I2CSetManu|
  0001c		 |$LN7@I2CSetManu|
  0001c	00000000	 DCD         |_i2cFnTable|
  00020		 |$M44763|

			 ENDP  ; |I2CSetManualDriveMode|

	EXPORT	|I2CDriveSCL|

  00000			 AREA	 |.pdata|, PDATA
|$T44776| DCD	|$LN5@I2CDriveSC|
	DCD	0x40000801
; Function compile flags: /Ogspy

  00000			 AREA	 |.text|, CODE, ARM

  00000		 |I2CDriveSCL| PROC

; 173  : {

  00000		 |$LN5@I2CDriveSC|
  00000	e52de004	 str         lr, [sp, #-4]!
  00004		 |$M44773|

; 174  :     _i2cFnTable.fnDriveSCL(hCtx,fHigh);

  00004	e59f3010	 ldr         r3, [pc, #0x10]
  00008	e593302c	 ldr         r3, [r3, #0x2C]
  0000c	e1a0e00f	 mov         lr, pc
  00010	e12fff13	 bx          r3

; 175  : }

  00014	e49de004	 ldr         lr, [sp], #4
  00018	e12fff1e	 bx          lr
  0001c		 |$LN6@I2CDriveSC|
  0001c		 |$LN7@I2CDriveSC|
  0001c	00000000	 DCD         |_i2cFnTable|
  00020		 |$M44774|

			 ENDP  ; |I2CDriveSCL|

	EXPORT	|I2CDriveSDA|

  00000			 AREA	 |.pdata|, PDATA
|$T44787| DCD	|$LN5@I2CDriveSD|
	DCD	0x40000801
; Function compile flags: /Ogspy

  00000			 AREA	 |.text|, CODE, ARM

  00000		 |I2CDriveSDA| PROC

; 177  : {

  00000		 |$LN5@I2CDriveSD|
  00000	e52de004	 str         lr, [sp, #-4]!
  00004		 |$M44784|

; 178  :     _i2cFnTable.fnDriveSDA(hCtx,fHigh);

  00004	e59f3010	 ldr         r3, [pc, #0x10]
  00008	e5933030	 ldr         r3, [r3, #0x30]
  0000c	e1a0e00f	 mov         lr, pc
  00010	e12fff13	 bx          r3

; 179  : }

  00014	e49de004	 ldr         lr, [sp], #4
  00018	e12fff1e	 bx          lr
  0001c		 |$LN6@I2CDriveSD|
  0001c		 |$LN7@I2CDriveSD|
  0001c	00000000	 DCD         |_i2cFnTable|
  00020		 |$M44785|

			 ENDP  ; |I2CDriveSDA|

	END
