; Listing generated by Microsoft (R) Optimizing Compiler Version 14.01.60511.01 

	TTL	C:\WINCE600\PLATFORM\COMMON\SRC\SOC\COMMON_TI_V1\COMMON_TI\OAL\OMAP_INTR\map.c
	CODE32

  00000			 AREA	 |.drectve|, DRECTVE
	DCB	"-defaultlib:LIBCMT "
	DCB	"-defaultlib:OLDNAMES "


  00000			 AREA	 |.rdata|, DATA, READONLY
|EdbgVendorIds| DCW 0x0
	DCW	0x0
	DCD	0x4033
	DCB	0x1
	DCB	"AD", 0x0
	DCW	0x1050
	DCW	0x940
	DCD	0x4005
	DCB	0x1
	DCB	"LS", 0x0
	DCW	0x1050
	DCW	0x940
	DCD	0x2078
	DCB	0x1
	DCB	"LS", 0x0
	DCW	0x10ec
	DCW	0x8029
	DCD	0xc0f0
	DCB	0x1
	DCB	"KS", 0x0
	DCW	0x10ec
	DCW	0x8129
	DCD	0x0
	DCB	0x4
	DCB	"RT", 0x0
	DCW	0x10ec
	DCW	0x8139
	DCD	0x900b
	DCB	0x4
	DCB	"RT", 0x0
	DCW	0x10ec
	DCW	0x8139
	DCD	0xd0c9
	DCB	0x4
	DCB	"RT", 0x0
	DCW	0x10ec
	DCW	0x8139
	DCD	0xe04c
	DCB	0x4
	DCB	"RT", 0x0
	DCW	0x1186
	DCW	0x1300
	DCD	0x50ba
	DCB	0x4
	DCB	"DL", 0x0
	DCW	0x100b
	DCW	0x20
	DCD	0xa0cc
	DCB	0x5
	DCB	"NG", 0x0
	DCW	0x10b7
	DCW	0x9050
	DCD	0x6008
	DCB	0x6
	DCB	"3C", 0x0
	DCW	0x10b7
	DCW	0x9200
	DCD	0x476
	DCB	0x6
	DCB	"3C", 0x0
	EXPORT	|OALIntrMapInit|
	EXPORT	|??_C@_1CO@DBMFJBPK@?$AA?9?$AAO?$AAE?$AAM?$AAI?$AAn?$AAt?$AAe?$AAr?$AAr?$AAu?$AAp?$AAt?$AAM?$AAa?$AAp?$AAI?$AAn?$AAi?$AAt?$AA?$AN?$AA?6?$AA?$AA@| [ DATA ] ; `string'
	EXPORT	|??_C@_1CO@OKABMONB@?$AA?$CL?$AAO?$AAE?$AAM?$AAI?$AAn?$AAt?$AAe?$AAr?$AAr?$AAu?$AAp?$AAt?$AAM?$AAa?$AAp?$AAI?$AAn?$AAi?$AAt?$AA?$AN?$AA?6?$AA?$AA@| [ DATA ] ; `string'
	IMPORT	|NKDbgPrintfW|
	IMPORT	|dpCurSettings|

  00000			 AREA	 |.bss|, NOINIT
|s_oalSysIntr2Irq| % 0x5a0
|s_oalIrq2SysIntr| % 0x500
|s_oalSysIntr2Irq| % 0x5a0
; File c:\wince600\platform\common\src\soc\common_ti_v1\common_ti\oal\omap_intr\map.c

  00000			 AREA	 |.pdata|, PDATA
|$T43372| DCD	|$LN28@OALIntrMap|
	DCD	0x40002001

  00000			 AREA	 |.rdata|, DATA, READONLY
|??_C@_1CO@DBMFJBPK@?$AA?9?$AAO?$AAE?$AAM?$AAI?$AAn?$AAt?$AAe?$AAr?$AAr?$AAu?$AAp?$AAt?$AAM?$AAa?$AAp?$AAI?$AAn?$AAi?$AAt?$AA?$AN?$AA?6?$AA?$AA@| DCB "-"
	DCB	0x0, "O", 0x0, "E", 0x0, "M", 0x0, "I", 0x0, "n", 0x0, "t"
	DCB	0x0, "e", 0x0, "r", 0x0, "r", 0x0, "u", 0x0, "p", 0x0, "t"
	DCB	0x0, "M", 0x0, "a", 0x0, "p", 0x0, "I", 0x0, "n", 0x0, "i"
	DCB	0x0, "t", 0x0, 0xd, 0x0, 0xa, 0x0, 0x0, 0x0 ; `string'

  00000			 AREA	 |.rdata|, DATA, READONLY
|??_C@_1CO@OKABMONB@?$AA?$CL?$AAO?$AAE?$AAM?$AAI?$AAn?$AAt?$AAe?$AAr?$AAr?$AAu?$AAp?$AAt?$AAM?$AAa?$AAp?$AAI?$AAn?$AAi?$AAt?$AA?$AN?$AA?6?$AA?$AA@| DCB "+"
	DCB	0x0, "O", 0x0, "E", 0x0, "M", 0x0, "I", 0x0, "n", 0x0, "t"
	DCB	0x0, "e", 0x0, "r", 0x0, "r", 0x0, "u", 0x0, "p", 0x0, "t"
	DCB	0x0, "M", 0x0, "a", 0x0, "p", 0x0, "I", 0x0, "n", 0x0, "i"
	DCB	0x0, "t", 0x0, 0xd, 0x0, 0xa, 0x0, 0x0, 0x0 ; `string'
; Function compile flags: /Ogspy

  00000			 AREA	 |.text|, CODE, ARM

  00000		 |OALIntrMapInit| PROC

; 42   : {

  00000		 |$LN28@OALIntrMap|
  00000	e92d4010	 stmdb       sp!, {r4, lr}
  00004		 |$M43369|

; 43   :     UINT32 i, j;
; 44   : 
; 45   :     OALMSG(OAL_FUNC&&OAL_INTR, (L"+OEMInterruptMapInit\r\n"));

  00004	e59f4070	 ldr         r4, [pc, #0x70]
  00008	e5943440	 ldr         r3, [r4, #0x440]
  0000c	e3130004	 tst         r3, #4
  00010	0a000004	 beq         |$LN12@OALIntrMap|
  00014	e3130901	 tst         r3, #1, 18
  00018	0a000002	 beq         |$LN12@OALIntrMap|
  0001c	e59f0054	 ldr         r0, [pc, #0x54]
  00020	eb000000	 bl          NKDbgPrintfW
  00024	e5943440	 ldr         r3, [r4, #0x440]
  00028		 |$LN12@OALIntrMap|

; 46   : 
; 47   :     // Initialize interrupt maps
; 48   :     for (i = 0; i < SYSINTR_MAXIMUM; i++) // 72
; 49   : 	{
; 50   :         for (j = 0; j < OMAP_IRQ_PER_SYSINTR; j++) // 5 - \COMMON_TI_V1\COMMON_TI\INC\intr.h
; 51   : 		{
; 52   :             s_oalSysIntr2Irq[i][j] = (DWORD) OAL_INTR_IRQ_UNDEFINED;

  00028	e59f1044	 ldr         r1, [pc, #0x44]
  0002c	e3e0e000	 mvn         lr, #0
  00030	e1a02001	 mov         r2, r1
  00034	e2810e5a	 add         r0, r1, #0x5A, 28
  00038		 |$LN22@OALIntrMap|
  00038	e482e004	 str         lr, [r2], #4
  0003c	e1520000	 cmp         r2, r0
  00040	1afffffc	 bne         |$LN22@OALIntrMap|

; 53   : 		}
; 54   : 	}
; 55   :     for (i = 0; i < OMAP_IRQ_MAXIMUM; i++) //320 - \COMMON_TI_V1\COMMON_TI\INC\intr.h
; 56   : 	{
; 57   :         s_oalIrq2SysIntr[i] = (DWORD) SYSINTR_UNDEFINED;

  00044	e2812e5a	 add         r2, r1, #0x5A, 28
  00048	e2821c05	 add         r1, r2, #5, 24
  0004c		 |$LN24@OALIntrMap|
  0004c	e482e004	 str         lr, [r2], #4
  00050	e1520001	 cmp         r2, r1
  00054	1afffffc	 bne         |$LN24@OALIntrMap|

; 58   : 	}
; 59   : 
; 60   :     OALMSG(OAL_FUNC&&OAL_INTR, (L"-OEMInterruptMapInit\r\n"));

  00058	e3130004	 tst         r3, #4
  0005c	13130901	 tstne       r3, #1, 18
  00060	159f0008	 ldrne       r0, [pc, #8]
  00064	1b000000	 blne        NKDbgPrintfW

; 61   : }

  00068	e8bd4010	 ldmia       sp!, {r4, lr}
  0006c	e12fff1e	 bx          lr
  00070		 |$LN29@OALIntrMap|
  00070		 |$LN30@OALIntrMap|
  00070	00000000	 DCD         |??_C@_1CO@DBMFJBPK@?$AA?9?$AAO?$AAE?$AAM?$AAI?$AAn?$AAt?$AAe?$AAr?$AAr?$AAu?$AAp?$AAt?$AAM?$AAa?$AAp?$AAI?$AAn?$AAi?$AAt?$AA?$AN?$AA?6?$AA?$AA@|
  00074		 |$LN31@OALIntrMap|
  00074	00000000	 DCD         |s_oalSysIntr2Irq|
  00078		 |$LN32@OALIntrMap|
  00078	00000000	 DCD         |??_C@_1CO@OKABMONB@?$AA?$CL?$AAO?$AAE?$AAM?$AAI?$AAn?$AAt?$AAe?$AAr?$AAr?$AAu?$AAp?$AAt?$AAM?$AAa?$AAp?$AAI?$AAn?$AAi?$AAt?$AA?$AN?$AA?6?$AA?$AA@|
  0007c		 |$LN33@OALIntrMap|
  0007c	00000000	 DCD         |dpCurSettings|
  00080		 |$M43370|

			 ENDP  ; |OALIntrMapInit|

	EXPORT	|OALIntrStaticTranslate|
	EXPORT	|??_C@_1DE@CBLJKBBB@?$AA?9?$AAO?$AAA?$AAL?$AAI?$AAn?$AAt?$AAr?$AAS?$AAt?$AAa?$AAt?$AAi?$AAc?$AAT?$AAr?$AAa?$AAn?$AAs?$AAl?$AAa?$AAt?$AAe?$AA?$AN?$AA?6?$AA?$AA@| [ DATA ] ; `string'
	EXPORT	|??_C@_1EE@DPKCCBO@?$AA?$CL?$AAO?$AAA?$AAL?$AAI?$AAn?$AAt?$AAr?$AAS?$AAt?$AAa?$AAt?$AAi?$AAc?$AAT?$AAr?$AAa?$AAn?$AAs?$AAl?$AAa?$AAt?$AAe?$AA?$CI?$AA?$CF?$AAd?$AA?0?$AA?5?$AA?$CF?$AAd?$AA?$CJ?$AA?$AN@| [ DATA ] ; `string'

  00000			 AREA	 |.pdata|, PDATA
|$T43393| DCD	|$LN17@OALIntrSta|
	DCD	0x40002d01

  00000			 AREA	 |.rdata|, DATA, READONLY
|??_C@_1DE@CBLJKBBB@?$AA?9?$AAO?$AAA?$AAL?$AAI?$AAn?$AAt?$AAr?$AAS?$AAt?$AAa?$AAt?$AAi?$AAc?$AAT?$AAr?$AAa?$AAn?$AAs?$AAl?$AAa?$AAt?$AAe?$AA?$AN?$AA?6?$AA?$AA@| DCB "-"
	DCB	0x0, "O", 0x0, "A", 0x0, "L", 0x0, "I", 0x0, "n", 0x0, "t"
	DCB	0x0, "r", 0x0, "S", 0x0, "t", 0x0, "a", 0x0, "t", 0x0, "i"
	DCB	0x0, "c", 0x0, "T", 0x0, "r", 0x0, "a", 0x0, "n", 0x0, "s"
	DCB	0x0, "l", 0x0, "a", 0x0, "t", 0x0, "e", 0x0, 0xd, 0x0, 0xa
	DCB	0x0, 0x0, 0x0				; `string'

  00000			 AREA	 |.rdata|, DATA, READONLY
|??_C@_1EE@DPKCCBO@?$AA?$CL?$AAO?$AAA?$AAL?$AAI?$AAn?$AAt?$AAr?$AAS?$AAt?$AAa?$AAt?$AAi?$AAc?$AAT?$AAr?$AAa?$AAn?$AAs?$AAl?$AAa?$AAt?$AAe?$AA?$CI?$AA?$CF?$AAd?$AA?0?$AA?5?$AA?$CF?$AAd?$AA?$CJ?$AA?$AN@| DCB "+"
	DCB	0x0, "O", 0x0, "A", 0x0, "L", 0x0, "I", 0x0, "n", 0x0, "t"
	DCB	0x0, "r", 0x0, "S", 0x0, "t", 0x0, "a", 0x0, "t", 0x0, "i"
	DCB	0x0, "c", 0x0, "T", 0x0, "r", 0x0, "a", 0x0, "n", 0x0, "s"
	DCB	0x0, "l", 0x0, "a", 0x0, "t", 0x0, "e", 0x0, "(", 0x0, "%"
	DCB	0x0, "d", 0x0, ",", 0x0, " ", 0x0, "%", 0x0, "d", 0x0, ")"
	DCB	0x0, 0xd, 0x0, 0xa, 0x0, 0x0, 0x0	; `string'
; Function compile flags: /Ogspy

  00000			 AREA	 |.text|, CODE, ARM

  00000		 |OALIntrStaticTranslate| PROC

; 75   : {

  00000		 |$LN17@OALIntrSta|
  00000	e92d4070	 stmdb       sp!, {r4 - r6, lr}
  00004		 |$M43390|
  00004	e1a05001	 mov         r5, r1
  00008	e1a04000	 mov         r4, r0

; 76   : 
; 77   :     UINT32 i;
; 78   : 
; 79   :     OALMSG(OAL_FUNC&&OAL_INTR, (
; 80   :         L"+OALIntrStaticTranslate(%d, %d)\r\n", sysIntr, irq
; 81   :         ));

  0000c	e59f609c	 ldr         r6, [pc, #0x9C]
  00010	e596e440	 ldr         lr, [r6, #0x440]
  00014	e31e0004	 tst         lr, #4
  00018	0a000006	 beq         |$LN9@OALIntrSta|
  0001c	e31e0901	 tst         lr, #1, 18
  00020	0a000004	 beq         |$LN9@OALIntrSta|
  00024	e59f0080	 ldr         r0, [pc, #0x80]
  00028	e1a02005	 mov         r2, r5
  0002c	e1a01004	 mov         r1, r4
  00030	eb000000	 bl          NKDbgPrintfW
  00034	e596e440	 ldr         lr, [r6, #0x440]
  00038		 |$LN9@OALIntrSta|

; 82   :     if ((irq >= OMAP_IRQ_MAXIMUM) || (sysIntr >= SYSINTR_MAXIMUM))

  00038	e3550d05	 cmp         r5, #5, 26
  0003c	2a000012	 bcs         |$cleanUp$43178|
  00040	e3540048	 cmp         r4, #0x48
  00044	2a000010	 bcs         |$cleanUp$43178|

; 83   :         goto cleanUp;
; 84   : 
; 85   :     for (i = 0; i < OMAP_IRQ_PER_SYSINTR; i++)

  00048	e59f0058	 ldr         r0, [pc, #0x58]
  0004c	e0843104	 add         r3, r4, r4, lsl #2
  00050	e3a02000	 mov         r2, #0
  00054	e0801103	 add         r1, r0, r3, lsl #2
  00058		 |$LL4@OALIntrSta|

; 86   :         {
; 87   :         if (s_oalSysIntr2Irq[sysIntr][i] != (DWORD) OAL_INTR_IRQ_UNDEFINED) continue;

  00058	e5913000	 ldr         r3, [r1]
  0005c	e3730001	 cmn         r3, #1
  00060	0a000004	 beq         |$LN1@OALIntrSta|
  00064	e2822001	 add         r2, r2, #1
  00068	e3520005	 cmp         r2, #5
  0006c	e2811004	 add         r1, r1, #4
  00070	3afffff8	 bcc         |$LL4@OALIntrSta|

; 82   :     if ((irq >= OMAP_IRQ_MAXIMUM) || (sysIntr >= SYSINTR_MAXIMUM))

  00074	ea000004	 b           |$cleanUp$43178|
  00078		 |$LN1@OALIntrSta|

; 88   :         s_oalSysIntr2Irq[sysIntr][i] = irq;

  00078	e0843104	 add         r3, r4, r4, lsl #2
  0007c	e0833002	 add         r3, r3, r2

; 89   :         s_oalIrq2SysIntr[irq] = sysIntr;

  00080	e2802e5a	 add         r2, r0, #0x5A, 28
  00084	e7824105	 str         r4, [r2, +r5, lsl #2]
  00088	e7805103	 str         r5, [r0, +r3, lsl #2]
  0008c		 |$cleanUp$43178|

; 90   :         break;
; 91   :         }
; 92   : 
; 93   : cleanUp:
; 94   :     OALMSG(OAL_FUNC&&OAL_INTR, (L"-OALIntrStaticTranslate\r\n"));

  0008c	e31e0004	 tst         lr, #4
  00090	131e0901	 tstne       lr, #1, 18
  00094	159f0008	 ldrne       r0, [pc, #8]
  00098	1b000000	 blne        NKDbgPrintfW

; 95   : 
; 96   : }

  0009c	e8bd4070	 ldmia       sp!, {r4 - r6, lr}
  000a0	e12fff1e	 bx          lr
  000a4		 |$LN18@OALIntrSta|
  000a4		 |$LN19@OALIntrSta|
  000a4	00000000	 DCD         |??_C@_1DE@CBLJKBBB@?$AA?9?$AAO?$AAA?$AAL?$AAI?$AAn?$AAt?$AAr?$AAS?$AAt?$AAa?$AAt?$AAi?$AAc?$AAT?$AAr?$AAa?$AAn?$AAs?$AAl?$AAa?$AAt?$AAe?$AA?$AN?$AA?6?$AA?$AA@|
  000a8		 |$LN20@OALIntrSta|
  000a8	00000000	 DCD         |s_oalSysIntr2Irq|
  000ac		 |$LN21@OALIntrSta|
  000ac	00000000	 DCD         |??_C@_1EE@DPKCCBO@?$AA?$CL?$AAO?$AAA?$AAL?$AAI?$AAn?$AAt?$AAr?$AAS?$AAt?$AAa?$AAt?$AAi?$AAc?$AAT?$AAr?$AAa?$AAn?$AAs?$AAl?$AAa?$AAt?$AAe?$AA?$CI?$AA?$CF?$AAd?$AA?0?$AA?5?$AA?$CF?$AAd?$AA?$CJ?$AA?$AN@|
  000b0		 |$LN22@OALIntrSta|
  000b0	00000000	 DCD         |dpCurSettings|
  000b4		 |$M43391|

			 ENDP  ; |OALIntrStaticTranslate|

	EXPORT	|OALIntrTranslateSysIntr|
	EXPORT	|??_C@_1EA@JDMBMDEN@?$AA?9?$AAO?$AAA?$AAL?$AAT?$AAr?$AAa?$AAn?$AAs?$AAl?$AAa?$AAt?$AAe?$AAS?$AAy?$AAs?$AAI?$AAn?$AAt?$AAr?$AA?$CI?$AAr?$AAc?$AA?5?$AA?$DN?$AA?5?$AA?$CF?$AAd?$AA?$CJ?$AA?$AN?$AA?6?$AA?$AA@| [ DATA ] ; `string'
	EXPORT	|??_C@_1DG@HAMHNOBJ@?$AA?$CL?$AAO?$AAA?$AAL?$AAT?$AAr?$AAa?$AAn?$AAs?$AAl?$AAa?$AAt?$AAe?$AAS?$AAy?$AAs?$AAI?$AAn?$AAt?$AAr?$AA?$CI?$AA?$CF?$AAd?$AA?$CJ?$AA?$AN?$AA?6?$AA?$AA@| [ DATA ] ; `string'

  00000			 AREA	 |.pdata|, PDATA
|$T43415| DCD	|$LN10@OALIntrTra|
	DCD	0x40002401

  00000			 AREA	 |.rdata|, DATA, READONLY
|??_C@_1EA@JDMBMDEN@?$AA?9?$AAO?$AAA?$AAL?$AAT?$AAr?$AAa?$AAn?$AAs?$AAl?$AAa?$AAt?$AAe?$AAS?$AAy?$AAs?$AAI?$AAn?$AAt?$AAr?$AA?$CI?$AAr?$AAc?$AA?5?$AA?$DN?$AA?5?$AA?$CF?$AAd?$AA?$CJ?$AA?$AN?$AA?6?$AA?$AA@| DCB "-"
	DCB	0x0, "O", 0x0, "A", 0x0, "L", 0x0, "T", 0x0, "r", 0x0, "a"
	DCB	0x0, "n", 0x0, "s", 0x0, "l", 0x0, "a", 0x0, "t", 0x0, "e"
	DCB	0x0, "S", 0x0, "y", 0x0, "s", 0x0, "I", 0x0, "n", 0x0, "t"
	DCB	0x0, "r", 0x0, "(", 0x0, "r", 0x0, "c", 0x0, " ", 0x0, "="
	DCB	0x0, " ", 0x0, "%", 0x0, "d", 0x0, ")", 0x0, 0xd, 0x0, 0xa
	DCB	0x0, 0x0, 0x0				; `string'

  00000			 AREA	 |.rdata|, DATA, READONLY
|??_C@_1DG@HAMHNOBJ@?$AA?$CL?$AAO?$AAA?$AAL?$AAT?$AAr?$AAa?$AAn?$AAs?$AAl?$AAa?$AAt?$AAe?$AAS?$AAy?$AAs?$AAI?$AAn?$AAt?$AAr?$AA?$CI?$AA?$CF?$AAd?$AA?$CJ?$AA?$AN?$AA?6?$AA?$AA@| DCB "+"
	DCB	0x0, "O", 0x0, "A", 0x0, "L", 0x0, "T", 0x0, "r", 0x0, "a"
	DCB	0x0, "n", 0x0, "s", 0x0, "l", 0x0, "a", 0x0, "t", 0x0, "e"
	DCB	0x0, "S", 0x0, "y", 0x0, "s", 0x0, "I", 0x0, "n", 0x0, "t"
	DCB	0x0, "r", 0x0, "(", 0x0, "%", 0x0, "d", 0x0, ")", 0x0, 0xd
	DCB	0x0, 0xa, 0x0, 0x0, 0x0			; `string'
; Function compile flags: /Ogspy

  00000			 AREA	 |.text|, CODE, ARM

  00000		 |OALIntrTranslateSysIntr| PROC

; 112  : {

  00000		 |$LN10@OALIntrTra|
  00000	e92d40f0	 stmdb       sp!, {r4 - r7, lr}
  00004		 |$M43412|
  00004	e1a06002	 mov         r6, r2
  00008	e1a07001	 mov         r7, r1
  0000c	e1a04000	 mov         r4, r0

; 113  :     BOOL rc = FALSE;
; 114  : 
; 115  : 
; 116  :     OALMSG(OAL_FUNC&&OAL_INTR, (L"+OALTranslateSysIntr(%d)\r\n", sysIntr));

  00010	e59f5074	 ldr         r5, [pc, #0x74]
  00014	e5953440	 ldr         r3, [r5, #0x440]
  00018	e3130004	 tst         r3, #4
  0001c	0a000005	 beq         |$LN4@OALIntrTra|
  00020	e3130901	 tst         r3, #1, 18
  00024	0a000003	 beq         |$LN4@OALIntrTra|
  00028	e59f0058	 ldr         r0, [pc, #0x58]
  0002c	e1a01004	 mov         r1, r4
  00030	eb000000	 bl          NKDbgPrintfW
  00034	e5953440	 ldr         r3, [r5, #0x440]
  00038		 |$LN4@OALIntrTra|

; 117  : 
; 118  :     // Valid SYSINTR?
; 119  :     if (sysIntr >= SYSINTR_MAXIMUM)

  00038	e3540048	 cmp         r4, #0x48

; 120  :         {
; 121  :         rc = FALSE;
; 122  :         goto cleanUp;
; 123  :         }
; 124  :     
; 125  :     *pCount = OMAP_IRQ_PER_SYSINTR;
; 126  :     *ppIrqs = s_oalSysIntr2Irq[sysIntr];

  0003c	359f2040	 ldrcc       r2, [pc, #0x40]
  00040	23a04000	 movcs       r4, #0
  00044	30843104	 addcc       r3, r4, r4, lsl #2
  00048	33a01005	 movcc       r1, #5
  0004c	30823103	 addcc       r3, r2, r3, lsl #2
  00050	35871000	 strcc       r1, [r7]
  00054	35863000	 strcc       r3, [r6]

; 127  :     rc = TRUE;

  00058	35953440	 ldrcc       r3, [r5, #0x440]
  0005c	33a04001	 movcc       r4, #1
  00060		 |$cleanUp$43197|

; 128  : 
; 129  : cleanUp:
; 130  :     OALMSG(OAL_FUNC&&OAL_INTR, (L"-OALTranslateSysIntr(rc = %d)\r\n", rc));

  00060	e3130004	 tst         r3, #4
  00064	13130901	 tstne       r3, #1, 18
  00068	159f0010	 ldrne       r0, [pc, #0x10]
  0006c	11a01004	 movne       r1, r4
  00070	1b000000	 blne        NKDbgPrintfW

; 131  : 
; 132  :     return rc;
; 133  : }

  00074	e1a00004	 mov         r0, r4
  00078	e8bd40f0	 ldmia       sp!, {r4 - r7, lr}
  0007c	e12fff1e	 bx          lr
  00080		 |$LN11@OALIntrTra|
  00080		 |$LN12@OALIntrTra|
  00080	00000000	 DCD         |??_C@_1EA@JDMBMDEN@?$AA?9?$AAO?$AAA?$AAL?$AAT?$AAr?$AAa?$AAn?$AAs?$AAl?$AAa?$AAt?$AAe?$AAS?$AAy?$AAs?$AAI?$AAn?$AAt?$AAr?$AA?$CI?$AAr?$AAc?$AA?5?$AA?$DN?$AA?5?$AA?$CF?$AAd?$AA?$CJ?$AA?$AN?$AA?6?$AA?$AA@|
  00084		 |$LN13@OALIntrTra|
  00084	00000000	 DCD         |s_oalSysIntr2Irq|
  00088		 |$LN14@OALIntrTra|
  00088	00000000	 DCD         |??_C@_1DG@HAMHNOBJ@?$AA?$CL?$AAO?$AAA?$AAL?$AAT?$AAr?$AAa?$AAn?$AAs?$AAl?$AAa?$AAt?$AAe?$AAS?$AAy?$AAs?$AAI?$AAn?$AAt?$AAr?$AA?$CI?$AA?$CF?$AAd?$AA?$CJ?$AA?$AN?$AA?6?$AA?$AA@|
  0008c		 |$LN15@OALIntrTra|
  0008c	00000000	 DCD         |dpCurSettings|
  00090		 |$M43413|

			 ENDP  ; |OALIntrTranslateSysIntr|

	EXPORT	|OALIntrTranslateIrq|
	EXPORT	|??_C@_1EK@JOJPHPGP@?$AA?9?$AAO?$AAA?$AAL?$AAI?$AAn?$AAt?$AAr?$AAT?$AAr?$AAa?$AAn?$AAs?$AAl?$AAa?$AAt?$AAe?$AAI?$AAr?$AAq?$AA?$CI?$AAs?$AAy?$AAs?$AAI?$AAn?$AAt?$AAr?$AA?5?$AA?$DN?$AA?5?$AA?$CF@| [ DATA ] ; `string'
	EXPORT	|??_C@_1DG@IAFKCJEB@?$AA?$CL?$AAO?$AAA?$AAL?$AAI?$AAn?$AAt?$AAr?$AAT?$AAr?$AAa?$AAn?$AAs?$AAl?$AAa?$AAt?$AAe?$AAI?$AAr?$AAq?$AA?$CI?$AA?$CF?$AAd?$AA?$CJ?$AA?$AN?$AA?6?$AA?$AA@| [ DATA ] ; `string'

  00000			 AREA	 |.pdata|, PDATA
|$T43435| DCD	|$LN10@OALIntrTra@2|
	DCD	0x40001c01

  00000			 AREA	 |.rdata|, DATA, READONLY
|??_C@_1EK@JOJPHPGP@?$AA?9?$AAO?$AAA?$AAL?$AAI?$AAn?$AAt?$AAr?$AAT?$AAr?$AAa?$AAn?$AAs?$AAl?$AAa?$AAt?$AAe?$AAI?$AAr?$AAq?$AA?$CI?$AAs?$AAy?$AAs?$AAI?$AAn?$AAt?$AAr?$AA?5?$AA?$DN?$AA?5?$AA?$CF@| DCB "-"
	DCB	0x0, "O", 0x0, "A", 0x0, "L", 0x0, "I", 0x0, "n", 0x0, "t"
	DCB	0x0, "r", 0x0, "T", 0x0, "r", 0x0, "a", 0x0, "n", 0x0, "s"
	DCB	0x0, "l", 0x0, "a", 0x0, "t", 0x0, "e", 0x0, "I", 0x0, "r"
	DCB	0x0, "q", 0x0, "(", 0x0, "s", 0x0, "y", 0x0, "s", 0x0, "I"
	DCB	0x0, "n", 0x0, "t", 0x0, "r", 0x0, " ", 0x0, "=", 0x0, " "
	DCB	0x0, "%", 0x0, "d", 0x0, ")", 0x0, 0xd, 0x0, 0xa, 0x0, 0x0
	DCB	0x0					; `string'

  00000			 AREA	 |.rdata|, DATA, READONLY
|??_C@_1DG@IAFKCJEB@?$AA?$CL?$AAO?$AAA?$AAL?$AAI?$AAn?$AAt?$AAr?$AAT?$AAr?$AAa?$AAn?$AAs?$AAl?$AAa?$AAt?$AAe?$AAI?$AAr?$AAq?$AA?$CI?$AA?$CF?$AAd?$AA?$CJ?$AA?$AN?$AA?6?$AA?$AA@| DCB "+"
	DCB	0x0, "O", 0x0, "A", 0x0, "L", 0x0, "I", 0x0, "n", 0x0, "t"
	DCB	0x0, "r", 0x0, "T", 0x0, "r", 0x0, "a", 0x0, "n", 0x0, "s"
	DCB	0x0, "l", 0x0, "a", 0x0, "t", 0x0, "e", 0x0, "I", 0x0, "r"
	DCB	0x0, "q", 0x0, "(", 0x0, "%", 0x0, "d", 0x0, ")", 0x0, 0xd
	DCB	0x0, 0xa, 0x0, 0x0, 0x0			; `string'
; Function compile flags: /Ogspy

  00000			 AREA	 |.text|, CODE, ARM

  00000		 |OALIntrTranslateIrq| PROC

; 146  : {

  00000		 |$LN10@OALIntrTra@2|
  00000	e92d4070	 stmdb       sp!, {r4 - r6, lr}
  00004		 |$M43432|
  00004	e1a05000	 mov         r5, r0

; 147  :     UINT32 sysIntr = (DWORD) SYSINTR_UNDEFINED;
; 148  : 
; 149  :     OALMSG(OAL_FUNC&&OAL_INTR, (L"+OALIntrTranslateIrq(%d)\r\n", irq));

  00008	e59f605c	 ldr         r6, [pc, #0x5C]
  0000c	e3e04000	 mvn         r4, #0
  00010	e5962440	 ldr         r2, [r6, #0x440]
  00014	e3120004	 tst         r2, #4
  00018	0a000005	 beq         |$LN4@OALIntrTra@2|
  0001c	e3120901	 tst         r2, #1, 18
  00020	0a000003	 beq         |$LN4@OALIntrTra@2|
  00024	e59f003c	 ldr         r0, [pc, #0x3C]
  00028	e1a01005	 mov         r1, r5
  0002c	eb000000	 bl          NKDbgPrintfW
  00030	e5962440	 ldr         r2, [r6, #0x440]
  00034		 |$LN4@OALIntrTra@2|

; 150  : 
; 151  : 
; 152  :     if (irq < OMAP_IRQ_MAXIMUM) sysIntr = s_oalIrq2SysIntr[irq];

  00034	e3550d05	 cmp         r5, #5, 26
  00038	359f3024	 ldrcc       r3, [pc, #0x24]
  0003c	37934105	 ldrcc       r4, [r3, +r5, lsl #2]

; 153  : 
; 154  : 
; 155  :     OALMSG(OAL_FUNC&&OAL_INTR, (
; 156  :         L"-OALIntrTranslateIrq(sysIntr = %d)\r\n", sysIntr
; 157  :         ));

  00040	e3120004	 tst         r2, #4
  00044	13120901	 tstne       r2, #1, 18
  00048	159f0010	 ldrne       r0, [pc, #0x10]
  0004c	11a01004	 movne       r1, r4
  00050	1b000000	 blne        NKDbgPrintfW

; 158  :     return sysIntr;
; 159  : }

  00054	e1a00004	 mov         r0, r4
  00058	e8bd4070	 ldmia       sp!, {r4 - r6, lr}
  0005c	e12fff1e	 bx          lr
  00060		 |$LN11@OALIntrTra@2|
  00060		 |$LN12@OALIntrTra@2|
  00060	00000000	 DCD         |??_C@_1EK@JOJPHPGP@?$AA?9?$AAO?$AAA?$AAL?$AAI?$AAn?$AAt?$AAr?$AAT?$AAr?$AAa?$AAn?$AAs?$AAl?$AAa?$AAt?$AAe?$AAI?$AAr?$AAq?$AA?$CI?$AAs?$AAy?$AAs?$AAI?$AAn?$AAt?$AAr?$AA?5?$AA?$DN?$AA?5?$AA?$CF@|
  00064		 |$LN13@OALIntrTra@2|
  00064	00000000	 DCD         |s_oalIrq2SysIntr|
  00068		 |$LN14@OALIntrTra@2|
  00068	00000000	 DCD         |??_C@_1DG@IAFKCJEB@?$AA?$CL?$AAO?$AAA?$AAL?$AAI?$AAn?$AAt?$AAr?$AAT?$AAr?$AAa?$AAn?$AAs?$AAl?$AAa?$AAt?$AAe?$AAI?$AAr?$AAq?$AA?$CI?$AA?$CF?$AAd?$AA?$CJ?$AA?$AN?$AA?6?$AA?$AA@|
  0006c		 |$LN15@OALIntrTra@2|
  0006c	00000000	 DCD         |dpCurSettings|
  00070		 |$M43433|

			 ENDP  ; |OALIntrTranslateIrq|

	EXPORT	|OALIntrRequestSysIntr|
	EXPORT	|??_C@_1EO@CCPDBEFN@?$AA?9?$AAO?$AAA?$AAL?$AAI?$AAn?$AAt?$AAr?$AAR?$AAe?$AAq?$AAu?$AAe?$AAs?$AAt?$AAS?$AAy?$AAs?$AAI?$AAn?$AAt?$AAr?$AA?$CI?$AAs?$AAy?$AAs?$AAI?$AAn?$AAt?$AAr?$AA?5?$AA?$DN@| [ DATA ] ; `string'
	EXPORT	|??_C@_1HG@GANLJKGD@?$AAE?$AAR?$AAR?$AAO?$AAR?$AA?3?$AA?5?$AAO?$AAA?$AAL?$AAI?$AAn?$AAt?$AAr?$AAR?$AAe?$AAq?$AAu?$AAe?$AAs?$AAt?$AAS?$AAy?$AAs?$AAI?$AAn?$AAt?$AAr?$AA?3?$AA?5?$AAN?$AAo@| [ DATA ] ; `string'
	EXPORT	|??_C@_1JG@CKDDKDGB@?$AAE?$AAR?$AAR?$AAO?$AAR?$AA?3?$AA?5?$AAO?$AAA?$AAL?$AAI?$AAn?$AAt?$AAr?$AAR?$AAe?$AAq?$AAu?$AAe?$AAs?$AAt?$AAS?$AAy?$AAs?$AAI?$AAn?$AAt?$AAr?$AA?3?$AA?5?$AAS?$AAt@| [ DATA ] ; `string'
	EXPORT	|??_C@_1GI@NODFOAGP@?$AAE?$AAR?$AAR?$AAO?$AAR?$AA?3?$AA?5?$AAO?$AAA?$AAL?$AAI?$AAn?$AAt?$AAr?$AAR?$AAe?$AAq?$AAu?$AAe?$AAs?$AAt?$AAS?$AAy?$AAs?$AAI?$AAn?$AAt?$AAr?$AA?3?$AA?5?$AAI?$AAR@| [ DATA ] ; `string'
	EXPORT	|??_C@_1IM@ENJFJBNJ@?$AAE?$AAR?$AAR?$AAO?$AAR?$AA?3?$AA?5?$AAO?$AAA?$AAL?$AAI?$AAn?$AAt?$AAr?$AAR?$AAe?$AAq?$AAu?$AAe?$AAs?$AAt?$AAS?$AAy?$AAs?$AAI?$AAn?$AAt?$AAr?$AA?3?$AA?5?$AAO?$AAn@| [ DATA ] ; `string'
	EXPORT	|??_C@_1FK@JNHCPMAP@?$AA?$CL?$AAO?$AAA?$AAL?$AAI?$AAn?$AAt?$AAr?$AAR?$AAe?$AAq?$AAu?$AAe?$AAs?$AAt?$AAS?$AAy?$AAs?$AAI?$AAn?$AAt?$AAr?$AA?$CI?$AA?$CF?$AAd?$AA?0?$AA?5?$AA0?$AAx?$AA?$CF?$AA0?$AA8@| [ DATA ] ; `string'

  00000			 AREA	 |.pdata|, PDATA
|$T43503| DCD	|$LN86@OALIntrReq|
	DCD	0x4000b701

  00000			 AREA	 |.rdata|, DATA, READONLY
|??_C@_1EO@CCPDBEFN@?$AA?9?$AAO?$AAA?$AAL?$AAI?$AAn?$AAt?$AAr?$AAR?$AAe?$AAq?$AAu?$AAe?$AAs?$AAt?$AAS?$AAy?$AAs?$AAI?$AAn?$AAt?$AAr?$AA?$CI?$AAs?$AAy?$AAs?$AAI?$AAn?$AAt?$AAr?$AA?5?$AA?$DN@| DCB "-"
	DCB	0x0, "O", 0x0, "A", 0x0, "L", 0x0, "I", 0x0, "n", 0x0, "t"
	DCB	0x0, "r", 0x0, "R", 0x0, "e", 0x0, "q", 0x0, "u", 0x0, "e"
	DCB	0x0, "s", 0x0, "t", 0x0, "S", 0x0, "y", 0x0, "s", 0x0, "I"
	DCB	0x0, "n", 0x0, "t", 0x0, "r", 0x0, "(", 0x0, "s", 0x0, "y"
	DCB	0x0, "s", 0x0, "I", 0x0, "n", 0x0, "t", 0x0, "r", 0x0, " "
	DCB	0x0, "=", 0x0, " ", 0x0, "%", 0x0, "d", 0x0, ")", 0x0, 0xd
	DCB	0x0, 0xa, 0x0, 0x0, 0x0			; `string'

  00000			 AREA	 |.rdata|, DATA, READONLY
|??_C@_1HG@GANLJKGD@?$AAE?$AAR?$AAR?$AAO?$AAR?$AA?3?$AA?5?$AAO?$AAA?$AAL?$AAI?$AAn?$AAt?$AAr?$AAR?$AAe?$AAq?$AAu?$AAe?$AAs?$AAt?$AAS?$AAy?$AAs?$AAI?$AAn?$AAt?$AAr?$AA?3?$AA?5?$AAN?$AAo@| DCB "E"
	DCB	0x0, "R", 0x0, "R", 0x0, "O", 0x0, "R", 0x0, ":", 0x0, " "
	DCB	0x0, "O", 0x0, "A", 0x0, "L", 0x0, "I", 0x0, "n", 0x0, "t"
	DCB	0x0, "r", 0x0, "R", 0x0, "e", 0x0, "q", 0x0, "u", 0x0, "e"
	DCB	0x0, "s", 0x0, "t", 0x0, "S", 0x0, "y", 0x0, "s", 0x0, "I"
	DCB	0x0, "n", 0x0, "t", 0x0, "r", 0x0, ":", 0x0, " ", 0x0, "N"
	DCB	0x0, "o", 0x0, " ", 0x0, "a", 0x0, "v", 0x0, "a", 0x0, "i"
	DCB	0x0, "l", 0x0, "a", 0x0, "b", 0x0, "l", 0x0, "e", 0x0, " "
	DCB	0x0, "S", 0x0, "Y", 0x0, "S", 0x0, "I", 0x0, "N", 0x0, "T"
	DCB	0x0, "R", 0x0, " ", 0x0, "f", 0x0, "o", 0x0, "u", 0x0, "n"
	DCB	0x0, "d", 0x0, 0xd, 0x0, 0xa, 0x0, 0x0, 0x0 ; `string'

  00000			 AREA	 |.rdata|, DATA, READONLY
|??_C@_1JG@CKDDKDGB@?$AAE?$AAR?$AAR?$AAO?$AAR?$AA?3?$AA?5?$AAO?$AAA?$AAL?$AAI?$AAn?$AAt?$AAr?$AAR?$AAe?$AAq?$AAu?$AAe?$AAs?$AAt?$AAS?$AAy?$AAs?$AAI?$AAn?$AAt?$AAr?$AA?3?$AA?5?$AAS?$AAt@| DCB "E"
	DCB	0x0, "R", 0x0, "R", 0x0, "O", 0x0, "R", 0x0, ":", 0x0, " "
	DCB	0x0, "O", 0x0, "A", 0x0, "L", 0x0, "I", 0x0, "n", 0x0, "t"
	DCB	0x0, "r", 0x0, "R", 0x0, "e", 0x0, "q", 0x0, "u", 0x0, "e"
	DCB	0x0, "s", 0x0, "t", 0x0, "S", 0x0, "y", 0x0, "s", 0x0, "I"
	DCB	0x0, "n", 0x0, "t", 0x0, "r", 0x0, ":", 0x0, " ", 0x0, "S"
	DCB	0x0, "t", 0x0, "a", 0x0, "t", 0x0, "i", 0x0, "c", 0x0, " "
	DCB	0x0, "m", 0x0, "a", 0x0, "p", 0x0, "p", 0x0, "i", 0x0, "n"
	DCB	0x0, "g", 0x0, " ", 0x0, "f", 0x0, "o", 0x0, "r", 0x0, " "
	DCB	0x0, "I", 0x0, "R", 0x0, "Q", 0x0, " ", 0x0, "%", 0x0, "d"
	DCB	0x0, " ", 0x0, "a", 0x0, "l", 0x0, "r", 0x0, "e", 0x0, "a"
	DCB	0x0, "d", 0x0, "y", 0x0, " ", 0x0, "a", 0x0, "s", 0x0, "s"
	DCB	0x0, "i", 0x0, "g", 0x0, "n", 0x0, "e", 0x0, "d", 0x0, 0xd
	DCB	0x0, 0xa, 0x0, 0x0, 0x0			; `string'

  00000			 AREA	 |.rdata|, DATA, READONLY
|??_C@_1GI@NODFOAGP@?$AAE?$AAR?$AAR?$AAO?$AAR?$AA?3?$AA?5?$AAO?$AAA?$AAL?$AAI?$AAn?$AAt?$AAr?$AAR?$AAe?$AAq?$AAu?$AAe?$AAs?$AAt?$AAS?$AAy?$AAs?$AAI?$AAn?$AAt?$AAr?$AA?3?$AA?5?$AAI?$AAR@| DCB "E"
	DCB	0x0, "R", 0x0, "R", 0x0, "O", 0x0, "R", 0x0, ":", 0x0, " "
	DCB	0x0, "O", 0x0, "A", 0x0, "L", 0x0, "I", 0x0, "n", 0x0, "t"
	DCB	0x0, "r", 0x0, "R", 0x0, "e", 0x0, "q", 0x0, "u", 0x0, "e"
	DCB	0x0, "s", 0x0, "t", 0x0, "S", 0x0, "y", 0x0, "s", 0x0, "I"
	DCB	0x0, "n", 0x0, "t", 0x0, "r", 0x0, ":", 0x0, " ", 0x0, "I"
	DCB	0x0, "R", 0x0, "Q", 0x0, " ", 0x0, "%", 0x0, "d", 0x0, " "
	DCB	0x0, "o", 0x0, "u", 0x0, "t", 0x0, " ", 0x0, "o", 0x0, "f"
	DCB	0x0, " ", 0x0, "r", 0x0, "a", 0x0, "n", 0x0, "g", 0x0, "e"
	DCB	0x0, 0xd, 0x0, 0xa, 0x0, 0x0, 0x0	; `string'

  00000			 AREA	 |.rdata|, DATA, READONLY
|??_C@_1IM@ENJFJBNJ@?$AAE?$AAR?$AAR?$AAO?$AAR?$AA?3?$AA?5?$AAO?$AAA?$AAL?$AAI?$AAn?$AAt?$AAr?$AAR?$AAe?$AAq?$AAu?$AAe?$AAs?$AAt?$AAS?$AAy?$AAs?$AAI?$AAn?$AAt?$AAr?$AA?3?$AA?5?$AAO?$AAn@| DCB "E"
	DCB	0x0, "R", 0x0, "R", 0x0, "O", 0x0, "R", 0x0, ":", 0x0, " "
	DCB	0x0, "O", 0x0, "A", 0x0, "L", 0x0, "I", 0x0, "n", 0x0, "t"
	DCB	0x0, "r", 0x0, "R", 0x0, "e", 0x0, "q", 0x0, "u", 0x0, "e"
	DCB	0x0, "s", 0x0, "t", 0x0, "S", 0x0, "y", 0x0, "s", 0x0, "I"
	DCB	0x0, "n", 0x0, "t", 0x0, "r", 0x0, ":", 0x0, " ", 0x0, "O"
	DCB	0x0, "n", 0x0, "l", 0x0, "y", 0x0, " ", 0x0, "%", 0x0, "d"
	DCB	0x0, " ", 0x0, "I", 0x0, "R", 0x0, "Q", 0x0, "s", 0x0, " "
	DCB	0x0, "f", 0x0, "o", 0x0, "r", 0x0, " ", 0x0, "S", 0x0, "Y"
	DCB	0x0, "S", 0x0, "I", 0x0, "N", 0x0, "T", 0x0, "R", 0x0, " "
	DCB	0x0, "i", 0x0, "s", 0x0, " ", 0x0, "s", 0x0, "u", 0x0, "p"
	DCB	0x0, "p", 0x0, "o", 0x0, "r", 0x0, "t", 0x0, "e", 0x0, "d"
	DCB	0x0, 0xd, 0x0, 0xa, 0x0, 0x0, 0x0	; `string'

  00000			 AREA	 |.rdata|, DATA, READONLY
|??_C@_1FK@JNHCPMAP@?$AA?$CL?$AAO?$AAA?$AAL?$AAI?$AAn?$AAt?$AAr?$AAR?$AAe?$AAq?$AAu?$AAe?$AAs?$AAt?$AAS?$AAy?$AAs?$AAI?$AAn?$AAt?$AAr?$AA?$CI?$AA?$CF?$AAd?$AA?0?$AA?5?$AA0?$AAx?$AA?$CF?$AA0?$AA8@| DCB "+"
	DCB	0x0, "O", 0x0, "A", 0x0, "L", 0x0, "I", 0x0, "n", 0x0, "t"
	DCB	0x0, "r", 0x0, "R", 0x0, "e", 0x0, "q", 0x0, "u", 0x0, "e"
	DCB	0x0, "s", 0x0, "t", 0x0, "S", 0x0, "y", 0x0, "s", 0x0, "I"
	DCB	0x0, "n", 0x0, "t", 0x0, "r", 0x0, "(", 0x0, "%", 0x0, "d"
	DCB	0x0, ",", 0x0, " ", 0x0, "0", 0x0, "x", 0x0, "%", 0x0, "0"
	DCB	0x0, "8", 0x0, "x", 0x0, ",", 0x0, " ", 0x0, "0", 0x0, "x"
	DCB	0x0, "%", 0x0, "0", 0x0, "8", 0x0, "x", 0x0, ")", 0x0, 0xd
	DCB	0x0, 0xa, 0x0, 0x0, 0x0			; `string'
; Function compile flags: /Ogspy

  00000			 AREA	 |.text|, CODE, ARM

  00000		 |OALIntrRequestSysIntr| PROC

; 175  : {

  00000		 |$LN86@OALIntrReq|
  00000	e92d47f0	 stmdb       sp!, {r4 - r10, lr}
  00004		 |$M43500|
  00004	e1a05002	 mov         r5, r2
  00008	e1a08001	 mov         r8, r1
  0000c	e1a09000	 mov         r9, r0

; 176  : 
; 177  :     UINT32 sysIntr, i, j;
; 178  : 
; 179  :     OALMSG(OAL_INTR&&OAL_FUNC, (
; 180  :         L"+OALIntrRequestSysIntr(%d, 0x%08x, 0x%08x)\r\n", count, *pIrqs, flags));

  00010	e59f72c0	 ldr         r7, [pc, #0x2C0]
  00014	e597e440	 ldr         lr, [r7, #0x440]
  00018	e31e0901	 tst         lr, #1, 18
  0001c	0a000007	 beq         |$LN37@OALIntrReq|
  00020	e31e0004	 tst         lr, #4
  00024	0a000005	 beq         |$LN37@OALIntrReq|
  00028	e5982000	 ldr         r2, [r8]
  0002c	e59f02a0	 ldr         r0, [pc, #0x2A0]
  00030	e1a03005	 mov         r3, r5
  00034	e1a01009	 mov         r1, r9
  00038	eb000000	 bl          NKDbgPrintfW
  0003c	e597e440	 ldr         lr, [r7, #0x440]
  00040		 |$LN37@OALIntrReq|

; 181  : 
; 182  :     // Valid IRQ?
; 183  :     if (count > OMAP_IRQ_PER_SYSINTR) // 5

  00040	e3590005	 cmp         r9, #5
  00044	9a000007	 bls         |$LN34@OALIntrReq|

; 184  : 	{
; 185  :         OALMSG(OAL_ERROR, (L"ERROR: OALIntrRequestSysIntr: "
; 186  :             L"Only %d IRQs for SYSINTR is supported\r\n",
; 187  :             OMAP_IRQ_PER_SYSINTR));

  00048	e31e0001	 tst         lr, #1
  0004c	0a000003	 beq         |$LN39@OALIntrReq|
  00050	e59f0278	 ldr         r0, [pc, #0x278]
  00054	e3a01005	 mov         r1, #5
  00058		 |$LN82@OALIntrReq|
  00058	eb000000	 bl          NKDbgPrintfW
  0005c		 |$LN83@OALIntrReq|
  0005c	e597e440	 ldr         lr, [r7, #0x440]
  00060		 |$LN39@OALIntrReq|

; 188  :         sysIntr = (DWORD) SYSINTR_UNDEFINED;

  00060	e3e04000	 mvn         r4, #0

; 189  :         goto cleanUp;

  00064	ea00007b	 b           |$cleanUp$43226|
  00068		 |$LN34@OALIntrReq|

; 190  : 	}
; 191  : 
; 192  :     // If static mapping is requested check if we can obtain one
; 193  :     if ((flags & OAL_INTR_STATIC) != 0) // OAL_INTR_STATIC = 2

  00068	e59fa25c	 ldr         r10, [pc, #0x25C]
  0006c	e3150002	 tst         r5, #2
  00070	0a00000e	 beq         |$LN30@OALIntrReq|

; 194  : 	{
; 195  :         for (i = 0; i < count; i++)

  00074	e3a02000	 mov         r2, #0
  00078	e3590000	 cmp         r9, #0
  0007c	0a00000b	 beq         |$LN30@OALIntrReq|
  00080	e1a01008	 mov         r1, r8
  00084	e28a0e5a	 add         r0, r10, #0x5A, 28
  00088		 |$LL32@OALIntrReq|

; 196  : 		{
; 197  :             if (pIrqs[i] >= OMAP_IRQ_MAXIMUM)

  00088	e5913000	 ldr         r3, [r1]
  0008c	e3530d05	 cmp         r3, #5, 26
  00090	2a000013	 bcs         |$LN62@OALIntrReq|

; 202  : 			}
; 203  :             if (s_oalIrq2SysIntr[pIrqs[i]] != (DWORD) SYSINTR_UNDEFINED)

  00094	e7903103	 ldr         r3, [r0, +r3, lsl #2]
  00098	e3730001	 cmn         r3, #1
  0009c	1a00000b	 bne         |$LN63@OALIntrReq|
  000a0	e2822001	 add         r2, r2, #1
  000a4	e1520009	 cmp         r2, r9
  000a8	e2811004	 add         r1, r1, #4
  000ac	3afffff5	 bcc         |$LL32@OALIntrReq|
  000b0		 |$LN30@OALIntrReq|

; 209  : 			}
; 210  : 		}
; 211  : 	}
; 212  : 
; 213  :     // If translate flag is set all IRQs must be mapped to same SYSINTR
; 214  :     if (pIrqs[0] >= OMAP_IRQ_MAXIMUM)

  000b0	e5982000	 ldr         r2, [r8]
  000b4	e3520d05	 cmp         r2, #5, 26
  000b8	3a00000e	 bcc         |$LN27@OALIntrReq|

; 215  : 	{
; 216  :         OALMSG(OAL_ERROR, (L"ERROR: OALIntrRequestSysIntr: "
; 217  :             L"IRQ %d out of range\r\n", pIrqs[0]));

  000bc	e31e0001	 tst         lr, #1
  000c0	0affffe6	 beq         |$LN39@OALIntrReq|
  000c4	e59f01f0	 ldr         r0, [pc, #0x1F0]
  000c8	e1a01002	 mov         r1, r2

; 218  :         sysIntr = (DWORD) SYSINTR_UNDEFINED;
; 219  :         goto cleanUp;

  000cc	eaffffe1	 b           |$LN82@OALIntrReq|
  000d0		 |$LN63@OALIntrReq|

; 204  : 			{
; 205  :                 OALMSG(OAL_ERROR, (L"ERROR: OALIntrRequestSysIntr: "
; 206  :                     L"Static mapping for IRQ %d already assigned\r\n", pIrqs[i]));

  000d0	e31e0001	 tst         lr, #1
  000d4	0affffe1	 beq         |$LN39@OALIntrReq|
  000d8	e7981102	 ldr         r1, [r8, +r2, lsl #2]
  000dc	e59f01e4	 ldr         r0, [pc, #0x1E4]

; 207  :                 sysIntr = (DWORD) SYSINTR_UNDEFINED;
; 208  :                 goto cleanUp;

  000e0	eaffffdc	 b           |$LN82@OALIntrReq|
  000e4		 |$LN62@OALIntrReq|

; 198  : 			{
; 199  :                 OALMSG(OAL_ERROR, (L"ERROR: OALIntrRequestSysIntr: "L"IRQ %d out of range\r\n", pIrqs[i]));

  000e4	e31e0001	 tst         lr, #1
  000e8	0affffdc	 beq         |$LN39@OALIntrReq|
  000ec	e7981102	 ldr         r1, [r8, +r2, lsl #2]
  000f0	e59f01c4	 ldr         r0, [pc, #0x1C4]

; 200  :                 sysIntr = (DWORD) SYSINTR_UNDEFINED;
; 201  :                 goto cleanUp;

  000f4	eaffffd7	 b           |$LN82@OALIntrReq|
  000f8		 |$LN27@OALIntrReq|

; 220  : 	}
; 221  :     if (((flags & OAL_INTR_TRANSLATE) != 0) &&
; 222  :         (s_oalIrq2SysIntr[pIrqs[0]] != (DWORD) SYSINTR_UNDEFINED))

  000f8	e3150008	 tst         r5, #8
  000fc	0a00001c	 beq         |$LN26@OALIntrReq|
  00100	e28a3e5a	 add         r3, r10, #0x5A, 28
  00104	e7934102	 ldr         r4, [r3, +r2, lsl #2]
  00108	e3740001	 cmn         r4, #1
  0010c	0a000018	 beq         |$LN26@OALIntrReq|

; 223  : 	{
; 224  :         sysIntr = s_oalIrq2SysIntr[pIrqs[0]];
; 225  :         // Check remaining IRQs
; 226  :         for (i = 1; i < count; i++)

  00110	e3a02001	 mov         r2, #1
  00114	e3590001	 cmp         r9, #1
  00118	9a00004e	 bls         |$cleanUp$43226|
  0011c	e2881004	 add         r1, r8, #4
  00120	e3e05000	 mvn         r5, #0
  00124	e28a0e5a	 add         r0, r10, #0x5A, 28
  00128		 |$LL25@OALIntrReq|

; 227  : 		{
; 228  :             if (pIrqs[i] >= OMAP_IRQ_MAXIMUM)

  00128	e5913000	 ldr         r3, [r1]
  0012c	e3530d05	 cmp         r3, #5, 26
  00130	2a000007	 bcs         |$LN64@OALIntrReq|

; 235  : 			}
; 236  :             // If it is mapped to same SYSINTR, we are fine
; 237  :             if (s_oalIrq2SysIntr[pIrqs[i]] == sysIntr) continue;

  00134	e7903103	 ldr         r3, [r0, +r3, lsl #2]
  00138	e2822001	 add         r2, r2, #1
  0013c	e2811004	 add         r1, r1, #4
  00140	e1530004	 cmp         r3, r4

; 238  :             // It isn't mapped or mapped to some other SYSINTR, error...
; 239  :             sysIntr = (DWORD) SYSINTR_UNDEFINED;

  00144	11a04005	 movne       r4, r5
  00148	e1520009	 cmp         r2, r9
  0014c	3afffff5	 bcc         |$LL25@OALIntrReq|

; 262  :         {
; 263  :         if (pIrqs[i] >= OMAP_IRQ_MAXIMUM)

  00150	ea000040	 b           |$cleanUp$43226|
  00154		 |$LN64@OALIntrReq|

; 229  : 			{
; 230  :                 OALMSG(OAL_ERROR, (L"ERROR: OALIntrRequestSysIntr: "
; 231  :                     L"IRQ %d out of range\r\n", pIrqs[i]
; 232  :                     ));

  00154	e31e0001	 tst         lr, #1
  00158	0a000003	 beq         |$LN47@OALIntrReq|
  0015c	e7981102	 ldr         r1, [r8, +r2, lsl #2]
  00160	e59f0154	 ldr         r0, [pc, #0x154]
  00164	eb000000	 bl          NKDbgPrintfW
  00168	e597e440	 ldr         lr, [r7, #0x440]
  0016c		 |$LN47@OALIntrReq|

; 233  :                 sysIntr = (DWORD) SYSINTR_UNDEFINED;

  0016c	e1a04005	 mov         r4, r5

; 234  :                 goto cleanUp;

  00170	ea000038	 b           |$cleanUp$43226|
  00174		 |$LN26@OALIntrReq|

; 240  : 		}
; 241  :         goto cleanUp;
; 242  : 	}
; 243  : 
; 244  :     // Find next available SYSINTR value...
; 245  :     for (sysIntr = SYSINTR_FIRMWARE; sysIntr < SYSINTR_MAXIMUM; sysIntr++)

  00174	e3a04010	 mov         r4, #0x10
  00178	e28a2d05	 add         r2, r10, #5, 26
  0017c		 |$LL20@OALIntrReq|

; 246  : 	{
; 247  :         if (s_oalSysIntr2Irq[sysIntr][0] == (DWORD) OAL_INTR_IRQ_UNDEFINED) break;

  0017c	e5923000	 ldr         r3, [r2]
  00180	e3730001	 cmn         r3, #1
  00184	0a000003	 beq         |$LN65@OALIntrReq|
  00188	e2844001	 add         r4, r4, #1
  0018c	e3540048	 cmp         r4, #0x48
  00190	e2822014	 add         r2, r2, #0x14
  00194	3afffff8	 bcc         |$LL20@OALIntrReq|
  00198		 |$LN65@OALIntrReq|

; 248  : 	}
; 249  : 
; 250  :     // Any available SYSINTRs left?
; 251  :     if (sysIntr >= SYSINTR_MAXIMUM)

  00198	e3540048	 cmp         r4, #0x48
  0019c	3a000004	 bcc         |$LN16@OALIntrReq|

; 252  :         {
; 253  :         OALMSG(OAL_ERROR, (L"ERROR: OALIntrRequestSysIntr: "
; 254  :             L"No available SYSINTR found\r\n"
; 255  :             ));

  001a0	e31e0001	 tst         lr, #1
  001a4	0affffad	 beq         |$LN39@OALIntrReq|
  001a8	e59f0114	 ldr         r0, [pc, #0x114]
  001ac	eb000000	 bl          NKDbgPrintfW

; 256  :         sysIntr = (DWORD) SYSINTR_UNDEFINED;
; 257  :         goto cleanUp;

  001b0	eaffffa9	 b           |$LN83@OALIntrReq|
  001b4		 |$LN16@OALIntrReq|

; 258  :         }
; 259  : 
; 260  :     // Make SYSINTR -> IRQs association
; 261  :     for (i = 0; i < count; i++)

  001b4	e3a06000	 mov         r6, #0
  001b8	e3590000	 cmp         r9, #0
  001bc	0a00000c	 beq         |$LN76@OALIntrReq|
  001c0	e1a02008	 mov         r2, r8
  001c4	e0840104	 add         r0, r4, r4, lsl #2
  001c8		 |$LL15@OALIntrReq|

; 262  :         {
; 263  :         if (pIrqs[i] >= OMAP_IRQ_MAXIMUM)

  001c8	e5921000	 ldr         r1, [r2]
  001cc	e3510d05	 cmp         r1, #5, 26
  001d0	2a000028	 bcs         |$LN66@OALIntrReq|

; 269  :                 {
; 270  :                 s_oalSysIntr2Irq[sysIntr][j] = (DWORD) OAL_INTR_IRQ_UNDEFINED;
; 271  :                 }
; 272  :             sysIntr = (DWORD) SYSINTR_UNDEFINED;
; 273  :             goto cleanUp;
; 274  :             }
; 275  :         s_oalSysIntr2Irq[sysIntr][i] = pIrqs[i];

  001d4	e0803006	 add         r3, r0, r6
  001d8	e2866001	 add         r6, r6, #1
  001dc	e1560009	 cmp         r6, r9
  001e0	e78a1103	 str         r1, [r10, +r3, lsl #2]
  001e4	e2822004	 add         r2, r2, #4
  001e8	3afffff6	 bcc         |$LL15@OALIntrReq|

; 276  :         }
; 277  :     while (i < OMAP_IRQ_PER_SYSINTR)

  001ec	e3560005	 cmp         r6, #5
  001f0	2a000009	 bcs         |$LN8@OALIntrReq|
  001f4		 |$LN76@OALIntrReq|

; 278  :         {
; 279  :         s_oalSysIntr2Irq[sysIntr][i++] = (DWORD) OAL_INTR_IRQ_UNDEFINED;

  001f4	e0843104	 add         r3, r4, r4, lsl #2
  001f8	e0833006	 add         r3, r3, r6
  001fc	e08a3103	 add         r3, r10, r3, lsl #2
  00200	e2762005	 rsbs        r2, r6, #5
  00204	e3e01000	 mvn         r1, #0
  00208	0a000003	 beq         |$LN8@OALIntrReq|
  0020c	e0832102	 add         r2, r3, r2, lsl #2
  00210		 |$LN80@OALIntrReq|
  00210	e4831004	 str         r1, [r3], #4
  00214	e1530002	 cmp         r3, r2
  00218	1afffffc	 bne         |$LN80@OALIntrReq|
  0021c		 |$LN8@OALIntrReq|

; 280  :         }
; 281  : 
; 282  :     // Make IRQ -> SYSINTR association, only if not multiply-mapped
; 283  :     if ((flags & OAL_INTR_DYNAMIC) != 0) goto cleanUp;

  0021c	e3150001	 tst         r5, #1
  00220	1a00000c	 bne         |$cleanUp$43226|

; 284  :     for (i = 0; i < count; i++)

  00224	e3590000	 cmp         r9, #0
  00228	0a00000a	 beq         |$cleanUp$43226|
  0022c		 |$LL5@OALIntrReq|

; 285  :         {
; 286  :         if ((s_oalIrq2SysIntr[pIrqs[i]] == (DWORD) SYSINTR_UNDEFINED) ||
; 287  :             ((flags & OAL_INTR_FORCE_STATIC) != 0))

  0022c	e5983000	 ldr         r3, [r8]
  00230	e28a2e5a	 add         r2, r10, #0x5A, 28
  00234	e7b23103	 ldr         r3, [r2, +r3, lsl #2]!
  00238	e3730001	 cmn         r3, #1
  0023c	0a000001	 beq         |$LN1@OALIntrReq|
  00240	e3150004	 tst         r5, #4
  00244	0a000000	 beq         |$LN4@OALIntrReq|
  00248		 |$LN1@OALIntrReq|

; 288  :             {
; 289  :             s_oalIrq2SysIntr[pIrqs[i]] = sysIntr;

  00248	e5824000	 str         r4, [r2]
  0024c		 |$LN4@OALIntrReq|

; 284  :     for (i = 0; i < count; i++)

  0024c	e2888004	 add         r8, r8, #4
  00250	e2599001	 subs        r9, r9, #1
  00254	1afffff4	 bne         |$LL5@OALIntrReq|
  00258		 |$cleanUp$43226|

; 290  :             }
; 291  :         }
; 292  : 
; 293  : cleanUp:
; 294  :     
; 295  :     OALMSG(OAL_INTR&&OAL_FUNC, (
; 296  :         L"-OALIntrRequestSysIntr(sysIntr = %d)\r\n", sysIntr
; 297  :         ));

  00258	e31e0901	 tst         lr, #1, 18
  0025c	131e0004	 tstne       lr, #4
  00260	159f0058	 ldrne       r0, [pc, #0x58]
  00264	11a01004	 movne       r1, r4
  00268	1b000000	 blne        NKDbgPrintfW

; 298  :     return sysIntr;
; 299  : 
; 300  : }

  0026c	e1a00004	 mov         r0, r4
  00270	e8bd47f0	 ldmia       sp!, {r4 - r10, lr}
  00274	e12fff1e	 bx          lr
  00278		 |$LN66@OALIntrReq|

; 264  :             {
; 265  :             OALMSG(OAL_ERROR, (L"ERROR: OALIntrRequestSysIntr: "
; 266  :                 L"IRQ %d out of range\r\n", pIrqs[i]
; 267  :                 ));

  00278	e31e0001	 tst         lr, #1
  0027c	0a000003	 beq         |$LN51@OALIntrReq|
  00280	e7981106	 ldr         r1, [r8, +r6, lsl #2]
  00284	e59f0030	 ldr         r0, [pc, #0x30]
  00288	eb000000	 bl          NKDbgPrintfW
  0028c	e597e440	 ldr         lr, [r7, #0x440]
  00290		 |$LN51@OALIntrReq|

; 268  :             for (j = 0; j < i; j++)

  00290	e3e05000	 mvn         r5, #0
  00294	e3560000	 cmp         r6, #0
  00298	0affffb3	 beq         |$LN47@OALIntrReq|
  0029c	e0843104	 add         r3, r4, r4, lsl #2
  002a0	e08a3103	 add         r3, r10, r3, lsl #2
  002a4	e0832106	 add         r2, r3, r6, lsl #2
  002a8		 |$LN78@OALIntrReq|
  002a8	e4835004	 str         r5, [r3], #4
  002ac	e1530002	 cmp         r3, r2
  002b0	1afffffc	 bne         |$LN78@OALIntrReq|

; 233  :                 sysIntr = (DWORD) SYSINTR_UNDEFINED;

  002b4	e1a04005	 mov         r4, r5

; 234  :                 goto cleanUp;

  002b8	eaffffe6	 b           |$cleanUp$43226|
  002bc		 |$LN87@OALIntrReq|
  002bc		 |$LN88@OALIntrReq|
  002bc	00000000	 DCD         |??_C@_1GI@NODFOAGP@?$AAE?$AAR?$AAR?$AAO?$AAR?$AA?3?$AA?5?$AAO?$AAA?$AAL?$AAI?$AAn?$AAt?$AAr?$AAR?$AAe?$AAq?$AAu?$AAe?$AAs?$AAt?$AAS?$AAy?$AAs?$AAI?$AAn?$AAt?$AAr?$AA?3?$AA?5?$AAI?$AAR@|
  002c0		 |$LN89@OALIntrReq|
  002c0	00000000	 DCD         |??_C@_1EO@CCPDBEFN@?$AA?9?$AAO?$AAA?$AAL?$AAI?$AAn?$AAt?$AAr?$AAR?$AAe?$AAq?$AAu?$AAe?$AAs?$AAt?$AAS?$AAy?$AAs?$AAI?$AAn?$AAt?$AAr?$AA?$CI?$AAs?$AAy?$AAs?$AAI?$AAn?$AAt?$AAr?$AA?5?$AA?$DN@|
  002c4		 |$LN90@OALIntrReq|
  002c4	00000000	 DCD         |??_C@_1HG@GANLJKGD@?$AAE?$AAR?$AAR?$AAO?$AAR?$AA?3?$AA?5?$AAO?$AAA?$AAL?$AAI?$AAn?$AAt?$AAr?$AAR?$AAe?$AAq?$AAu?$AAe?$AAs?$AAt?$AAS?$AAy?$AAs?$AAI?$AAn?$AAt?$AAr?$AA?3?$AA?5?$AAN?$AAo@|
  002c8		 |$LN91@OALIntrReq|
  002c8	00000000	 DCD         |??_C@_1JG@CKDDKDGB@?$AAE?$AAR?$AAR?$AAO?$AAR?$AA?3?$AA?5?$AAO?$AAA?$AAL?$AAI?$AAn?$AAt?$AAr?$AAR?$AAe?$AAq?$AAu?$AAe?$AAs?$AAt?$AAS?$AAy?$AAs?$AAI?$AAn?$AAt?$AAr?$AA?3?$AA?5?$AAS?$AAt@|
  002cc		 |$LN92@OALIntrReq|
  002cc	00000000	 DCD         |s_oalSysIntr2Irq|
  002d0		 |$LN93@OALIntrReq|
  002d0	00000000	 DCD         |??_C@_1IM@ENJFJBNJ@?$AAE?$AAR?$AAR?$AAO?$AAR?$AA?3?$AA?5?$AAO?$AAA?$AAL?$AAI?$AAn?$AAt?$AAr?$AAR?$AAe?$AAq?$AAu?$AAe?$AAs?$AAt?$AAS?$AAy?$AAs?$AAI?$AAn?$AAt?$AAr?$AA?3?$AA?5?$AAO?$AAn@|
  002d4		 |$LN94@OALIntrReq|
  002d4	00000000	 DCD         |??_C@_1FK@JNHCPMAP@?$AA?$CL?$AAO?$AAA?$AAL?$AAI?$AAn?$AAt?$AAr?$AAR?$AAe?$AAq?$AAu?$AAe?$AAs?$AAt?$AAS?$AAy?$AAs?$AAI?$AAn?$AAt?$AAr?$AA?$CI?$AA?$CF?$AAd?$AA?0?$AA?5?$AA0?$AAx?$AA?$CF?$AA0?$AA8@|
  002d8		 |$LN95@OALIntrReq|
  002d8	00000000	 DCD         |dpCurSettings|
  002dc		 |$M43501|

			 ENDP  ; |OALIntrRequestSysIntr|

	EXPORT	|OALIntrReleaseSysIntr|
	EXPORT	|??_C@_1EE@GBADJBKJ@?$AA?9?$AAO?$AAA?$AAL?$AAI?$AAn?$AAt?$AAr?$AAR?$AAe?$AAl?$AAe?$AAa?$AAs?$AAe?$AAS?$AAy?$AAs?$AAI?$AAn?$AAt?$AAr?$AA?$CI?$AAr?$AAc?$AA?5?$AA?$DN?$AA?5?$AA?$CF?$AAd?$AA?$CJ?$AA?$AN@| [ DATA ] ; `string'
	EXPORT	|??_C@_1HC@BIEMDHNG@?$AAE?$AAR?$AAR?$AAO?$AAR?$AA?3?$AA?5?$AAO?$AAA?$AAL?$AAI?$AAn?$AAt?$AAr?$AAR?$AAe?$AAl?$AAe?$AAa?$AAs?$AAe?$AAS?$AAy?$AAs?$AAI?$AAn?$AAt?$AAr?$AA?3?$AA?5?$AAI?$AAn@| [ DATA ] ; `string'
	EXPORT	|??_C@_1DK@GDEEGDPM@?$AA?$CL?$AAO?$AAA?$AAL?$AAI?$AAn?$AAt?$AAr?$AAR?$AAe?$AAl?$AAe?$AAa?$AAs?$AAe?$AAS?$AAy?$AAs?$AAI?$AAn?$AAt?$AAr?$AA?$CI?$AA?$CF?$AAd?$AA?$CJ?$AA?$AN?$AA?6?$AA?$AA@| [ DATA ] ; `string'

  00000			 AREA	 |.pdata|, PDATA
|$T43532| DCD	|$LN21@OALIntrRel|
	DCD	0x40003801

  00000			 AREA	 |.rdata|, DATA, READONLY
|??_C@_1EE@GBADJBKJ@?$AA?9?$AAO?$AAA?$AAL?$AAI?$AAn?$AAt?$AAr?$AAR?$AAe?$AAl?$AAe?$AAa?$AAs?$AAe?$AAS?$AAy?$AAs?$AAI?$AAn?$AAt?$AAr?$AA?$CI?$AAr?$AAc?$AA?5?$AA?$DN?$AA?5?$AA?$CF?$AAd?$AA?$CJ?$AA?$AN@| DCB "-"
	DCB	0x0, "O", 0x0, "A", 0x0, "L", 0x0, "I", 0x0, "n", 0x0, "t"
	DCB	0x0, "r", 0x0, "R", 0x0, "e", 0x0, "l", 0x0, "e", 0x0, "a"
	DCB	0x0, "s", 0x0, "e", 0x0, "S", 0x0, "y", 0x0, "s", 0x0, "I"
	DCB	0x0, "n", 0x0, "t", 0x0, "r", 0x0, "(", 0x0, "r", 0x0, "c"
	DCB	0x0, " ", 0x0, "=", 0x0, " ", 0x0, "%", 0x0, "d", 0x0, ")"
	DCB	0x0, 0xd, 0x0, 0xa, 0x0, 0x0, 0x0	; `string'

  00000			 AREA	 |.rdata|, DATA, READONLY
|??_C@_1HC@BIEMDHNG@?$AAE?$AAR?$AAR?$AAO?$AAR?$AA?3?$AA?5?$AAO?$AAA?$AAL?$AAI?$AAn?$AAt?$AAr?$AAR?$AAe?$AAl?$AAe?$AAa?$AAs?$AAe?$AAS?$AAy?$AAs?$AAI?$AAn?$AAt?$AAr?$AA?3?$AA?5?$AAI?$AAn@| DCB "E"
	DCB	0x0, "R", 0x0, "R", 0x0, "O", 0x0, "R", 0x0, ":", 0x0, " "
	DCB	0x0, "O", 0x0, "A", 0x0, "L", 0x0, "I", 0x0, "n", 0x0, "t"
	DCB	0x0, "r", 0x0, "R", 0x0, "e", 0x0, "l", 0x0, "e", 0x0, "a"
	DCB	0x0, "s", 0x0, "e", 0x0, "S", 0x0, "y", 0x0, "s", 0x0, "I"
	DCB	0x0, "n", 0x0, "t", 0x0, "r", 0x0, ":", 0x0, " ", 0x0, "I"
	DCB	0x0, "n", 0x0, "v", 0x0, "a", 0x0, "l", 0x0, "i", 0x0, "d"
	DCB	0x0, " ", 0x0, "s", 0x0, "y", 0x0, "s", 0x0, "I", 0x0, "n"
	DCB	0x0, "t", 0x0, "r", 0x0, " ", 0x0, "v", 0x0, "a", 0x0, "l"
	DCB	0x0, "u", 0x0, "e", 0x0, " ", 0x0, "%", 0x0, "d", 0x0, 0xd
	DCB	0x0, 0xa, 0x0, 0x0, 0x0			; `string'

  00000			 AREA	 |.rdata|, DATA, READONLY
|??_C@_1DK@GDEEGDPM@?$AA?$CL?$AAO?$AAA?$AAL?$AAI?$AAn?$AAt?$AAr?$AAR?$AAe?$AAl?$AAe?$AAa?$AAs?$AAe?$AAS?$AAy?$AAs?$AAI?$AAn?$AAt?$AAr?$AA?$CI?$AA?$CF?$AAd?$AA?$CJ?$AA?$AN?$AA?6?$AA?$AA@| DCB "+"
	DCB	0x0, "O", 0x0, "A", 0x0, "L", 0x0, "I", 0x0, "n", 0x0, "t"
	DCB	0x0, "r", 0x0, "R", 0x0, "e", 0x0, "l", 0x0, "e", 0x0, "a"
	DCB	0x0, "s", 0x0, "e", 0x0, "S", 0x0, "y", 0x0, "s", 0x0, "I"
	DCB	0x0, "n", 0x0, "t", 0x0, "r", 0x0, "(", 0x0, "%", 0x0, "d"
	DCB	0x0, ")", 0x0, 0xd, 0x0, 0xa, 0x0, 0x0, 0x0 ; `string'
; Function compile flags: /Ogspy

  00000			 AREA	 |.text|, CODE, ARM

  00000		 |OALIntrReleaseSysIntr| PROC

; 313  : {

  00000		 |$LN21@OALIntrRel|
  00000	e92d40f0	 stmdb       sp!, {r4 - r7, lr}
  00004		 |$M43529|
  00004	e1a05000	 mov         r5, r0

; 314  :     BOOL rc = TRUE;
; 315  : 
; 316  :     UINT32 i, irq;
; 317  : 
; 318  :     OALMSG(OAL_INTR&&OAL_FUNC, (L"+OALIntrReleaseSysIntr(%d)\r\n", sysIntr));

  00008	e59f60cc	 ldr         r6, [pc, #0xCC]
  0000c	e3a04001	 mov         r4, #1
  00010	e5962440	 ldr         r2, [r6, #0x440]
  00014	e3120901	 tst         r2, #1, 18
  00018	0a000005	 beq         |$LN11@OALIntrRel|
  0001c	e3120004	 tst         r2, #4
  00020	0a000003	 beq         |$LN11@OALIntrRel|
  00024	e59f00ac	 ldr         r0, [pc, #0xAC]
  00028	e1a01005	 mov         r1, r5
  0002c	eb000000	 bl          NKDbgPrintfW
  00030	e5962440	 ldr         r2, [r6, #0x440]
  00034		 |$LN11@OALIntrRel|

; 319  : 
; 320  :     if ((sysIntr < SYSINTR_DEVICES) || (sysIntr >= SYSINTR_MAXIMUM))

  00034	e2453008	 sub         r3, r5, #8
  00038	e353003f	 cmp         r3, #0x3F
  0003c	8a000013	 bhi         |$LN7@OALIntrRel|

; 326  :         goto cleanUp;
; 327  :         }
; 328  : 
; 329  :         
; 330  :     // Release all mapping for given SYSINTR
; 331  :     for (i = 0; i < OMAP_IRQ_PER_SYSINTR; i++)

  00040	e59f608c	 ldr         r6, [pc, #0x8C]
  00044	e0853105	 add         r3, r5, r5, lsl #2
  00048	e3a0e005	 mov         lr, #5
  0004c	e0861103	 add         r1, r6, r3, lsl #2
  00050	e3e07000	 mvn         r7, #0
  00054		 |$LL6@OALIntrRel|

; 332  :         {
; 333  :         if (s_oalSysIntr2Irq[sysIntr][i] == (DWORD) OAL_INTR_IRQ_UNDEFINED) continue;

  00054	e5913000	 ldr         r3, [r1]
  00058	e3730001	 cmn         r3, #1
  0005c	0a000007	 beq         |$LN5@OALIntrRel|

; 334  :         // Remove the SYSINTR -> IRQ mapping
; 335  :         irq = s_oalSysIntr2Irq[sysIntr][i];
; 336  :         s_oalSysIntr2Irq[sysIntr][i] = (DWORD) OAL_INTR_IRQ_UNDEFINED;
; 337  :         // If there is IRQ -> SYSINTR for this IRQ release it also
; 338  :         if (irq >= OMAP_IRQ_MAXIMUM) 

  00060	e3530d05	 cmp         r3, #5, 26

; 339  :             {
; 340  :             rc = FALSE;

  00064	23a04000	 movcs       r4, #0
  00068	e5817000	 str         r7, [r1]
  0006c	2a000003	 bcs         |$LN5@OALIntrRel|

; 341  :             continue;
; 342  :             }
; 343  :         if (s_oalIrq2SysIntr[irq] == sysIntr)

  00070	e2860e5a	 add         r0, r6, #0x5A, 28
  00074	e7b03103	 ldr         r3, [r0, +r3, lsl #2]!
  00078	e1530005	 cmp         r3, r5

; 344  :             {
; 345  :             s_oalIrq2SysIntr[irq] = (DWORD) SYSINTR_UNDEFINED;

  0007c	05807000	 streq       r7, [r0]
  00080		 |$LN5@OALIntrRel|
  00080	e2811004	 add         r1, r1, #4
  00084	e25ee001	 subs        lr, lr, #1
  00088	1afffff1	 bne         |$LL6@OALIntrRel|

; 319  : 
; 320  :     if ((sysIntr < SYSINTR_DEVICES) || (sysIntr >= SYSINTR_MAXIMUM))

  0008c	ea000006	 b           |$cleanUp$43297|
  00090		 |$LN7@OALIntrRel|

; 321  :         {
; 322  :         OALMSG(OAL_ERROR, (L"ERROR: OALIntrReleaseSysIntr: "
; 323  :             L"Invalid sysIntr value %d\r\n", sysIntr
; 324  :             ));

  00090	e3120001	 tst         r2, #1
  00094	0a000003	 beq         |$LN13@OALIntrRel|
  00098	e59f0030	 ldr         r0, [pc, #0x30]
  0009c	e1a01005	 mov         r1, r5
  000a0	eb000000	 bl          NKDbgPrintfW
  000a4	e5962440	 ldr         r2, [r6, #0x440]
  000a8		 |$LN13@OALIntrRel|

; 325  :         rc = FALSE;

  000a8	e3a04000	 mov         r4, #0
  000ac		 |$cleanUp$43297|

; 346  :             }
; 347  :         }
; 348  : 
; 349  : cleanUp:
; 350  :     OALMSG(OAL_INTR&&OAL_FUNC, (L"-OALIntrReleaseSysIntr(rc = %d)\r\n", rc));

  000ac	e3120901	 tst         r2, #1, 18
  000b0	13120004	 tstne       r2, #4
  000b4	159f0010	 ldrne       r0, [pc, #0x10]
  000b8	11a01004	 movne       r1, r4
  000bc	1b000000	 blne        NKDbgPrintfW

; 351  : 
; 352  :     return rc;
; 353  : }

  000c0	e1a00004	 mov         r0, r4
  000c4	e8bd40f0	 ldmia       sp!, {r4 - r7, lr}
  000c8	e12fff1e	 bx          lr
  000cc		 |$LN22@OALIntrRel|
  000cc		 |$LN23@OALIntrRel|
  000cc	00000000	 DCD         |??_C@_1EE@GBADJBKJ@?$AA?9?$AAO?$AAA?$AAL?$AAI?$AAn?$AAt?$AAr?$AAR?$AAe?$AAl?$AAe?$AAa?$AAs?$AAe?$AAS?$AAy?$AAs?$AAI?$AAn?$AAt?$AAr?$AA?$CI?$AAr?$AAc?$AA?5?$AA?$DN?$AA?5?$AA?$CF?$AAd?$AA?$CJ?$AA?$AN@|
  000d0		 |$LN24@OALIntrRel|
  000d0	00000000	 DCD         |??_C@_1HC@BIEMDHNG@?$AAE?$AAR?$AAR?$AAO?$AAR?$AA?3?$AA?5?$AAO?$AAA?$AAL?$AAI?$AAn?$AAt?$AAr?$AAR?$AAe?$AAl?$AAe?$AAa?$AAs?$AAe?$AAS?$AAy?$AAs?$AAI?$AAn?$AAt?$AAr?$AA?3?$AA?5?$AAI?$AAn@|
  000d4		 |$LN25@OALIntrRel|
  000d4	00000000	 DCD         |s_oalSysIntr2Irq|
  000d8		 |$LN26@OALIntrRel|
  000d8	00000000	 DCD         |??_C@_1DK@GDEEGDPM@?$AA?$CL?$AAO?$AAA?$AAL?$AAI?$AAn?$AAt?$AAr?$AAR?$AAe?$AAl?$AAe?$AAa?$AAs?$AAe?$AAS?$AAy?$AAs?$AAI?$AAn?$AAt?$AAr?$AA?$CI?$AA?$CF?$AAd?$AA?$CJ?$AA?$AN?$AA?6?$AA?$AA@|
  000dc		 |$LN27@OALIntrRel|
  000dc	00000000	 DCD         |dpCurSettings|
  000e0		 |$M43530|

			 ENDP  ; |OALIntrReleaseSysIntr|

	END
