; Listing generated by Microsoft (R) Optimizing Compiler Version 14.01.60511.01 

	TTL	C:\WINCE600\PLATFORM\COMMON\SRC\SOC\COMMON_TI_V1\COMMON_TI\MUSB\USBOTG_ISP1504\isp1504_musb.cpp
	CODE32

  00000			 AREA	 |.drectve|, DRECTVE
	DCB	"-defaultlib:LIBCMT "
	DCB	"-defaultlib:OLDNAMES "

	EXPORT	|??0HSUSBOTGTransceiver@@QAA@XZ|	; HSUSBOTGTransceiver::HSUSBOTGTransceiver
	EXPORT	|??_7HSUSBOTGTransceiver@@6B@| [ DATA ]	; HSUSBOTGTransceiver::`vftable'
	IMPORT	|_purecall|
; File c:\wince600\platform\common\src\soc\common_ti_v1\common_ti\inc\transceiver_musb.hpp

  00000			 AREA	 |.pdata|, PDATA
|$T36234| DCD	|$LN5@HSUSBOTGTr|
	DCD	0x40000500

  00000			 AREA	 |.rdata|, DATA, READONLY
|??_7HSUSBOTGTransceiver@@6B@| DCD |_purecall|		; HSUSBOTGTransceiver::`vftable'
	DCD	|_purecall|
	DCD	|_purecall|
	DCD	|_purecall|
	DCD	|_purecall|
	DCD	|_purecall|
	DCD	|_purecall|
	DCD	|_purecall|
	DCD	|_purecall|
	DCD	|_purecall|
	DCD	|_purecall|
	DCD	|_purecall|
	DCD	|_purecall|
	DCD	|_purecall|
; Function compile flags: /Ogspy

  00000			 AREA	 |.text|, CODE, ARM

  00000		 |??0HSUSBOTGTransceiver@@QAA@XZ| PROC	; HSUSBOTGTransceiver::HSUSBOTGTransceiver

; 23   :     HSUSBOTGTransceiver() {};

  00000		 |$LN5@HSUSBOTGTr|
  00000		 |$M36231|
  00000	e1a02000	 mov         r2, r0
  00004	e59f3004	 ldr         r3, [pc, #4]
  00008	e5823000	 str         r3, [r2]
  0000c	e12fff1e	 bx          lr
  00010		 |$LN6@HSUSBOTGTr|
  00010		 |$LN7@HSUSBOTGTr|
  00010	00000000	 DCD         |??_7HSUSBOTGTransceiver@@6B@|
  00014		 |$M36232|

			 ENDP  ; |??0HSUSBOTGTransceiver@@QAA@XZ|, HSUSBOTGTransceiver::HSUSBOTGTransceiver

	EXPORT	|??1HSUSBOTGTransceiver@@QAA@XZ|	; HSUSBOTGTransceiver::~HSUSBOTGTransceiver

  00000			 AREA	 |.pdata|, PDATA
|$T36244| DCD	|$LN5@HSUSBOTGTr@2|
	DCD	0x40000400
; Function compile flags: /Ogspy

  00000			 AREA	 |.text|, CODE, ARM

  00000		 |??1HSUSBOTGTransceiver@@QAA@XZ| PROC	; HSUSBOTGTransceiver::~HSUSBOTGTransceiver

; 24   :     ~HSUSBOTGTransceiver() {};

  00000		 |$LN5@HSUSBOTGTr@2|
  00000		 |$M36241|
  00000	e59f3004	 ldr         r3, [pc, #4]
  00004	e5803000	 str         r3, [r0]
  00008	e12fff1e	 bx          lr
  0000c		 |$LN6@HSUSBOTGTr@2|
  0000c		 |$LN7@HSUSBOTGTr@2|
  0000c	00000000	 DCD         |??_7HSUSBOTGTransceiver@@6B@|
  00010		 |$M36242|

			 ENDP  ; |??1HSUSBOTGTransceiver@@QAA@XZ|, HSUSBOTGTransceiver::~HSUSBOTGTransceiver

	EXPORT	|ISP1504_ReadReg|
	EXPORT	|??_C@_1GA@KDAFPHFP@?$AA?$CD?$AA?$CD?$AA?$CD?$AA?$CD?$AA?$CD?$AA?$CD?$AA?$CD?$AA?5?$AAF?$AAA?$AAI?$AAL?$AA?5?$AAt?$AAo?$AA?5?$AAr?$AAe?$AAa?$AAd?$AA?5?$AAU?$AAL?$AAP?$AAI?$AA?5?$AAR?$AAe?$AAg?$AA?0?$AA?5?$AAC@| [ DATA ] ; `string'
	IMPORT	|NKDbgPrintfW|
	IMPORT	|Sleep|
; File c:\wince600\platform\common\src\soc\common_ti_v1\common_ti\inc\omap_isp1504.h

  00000			 AREA	 |.pdata|, PDATA
|$T36265| DCD	|$LN14@ISP1504_Re|
	DCD	0x40001f01

  00000			 AREA	 |.rdata|, DATA, READONLY
|??_C@_1GA@KDAFPHFP@?$AA?$CD?$AA?$CD?$AA?$CD?$AA?$CD?$AA?$CD?$AA?$CD?$AA?$CD?$AA?5?$AAF?$AAA?$AAI?$AAL?$AA?5?$AAt?$AAo?$AA?5?$AAr?$AAe?$AAa?$AAd?$AA?5?$AAU?$AAL?$AAP?$AAI?$AA?5?$AAR?$AAe?$AAg?$AA?0?$AA?5?$AAC@| DCB "#"
	DCB	0x0, "#", 0x0, "#", 0x0, "#", 0x0, "#", 0x0, "#", 0x0, "#"
	DCB	0x0, " ", 0x0, "F", 0x0, "A", 0x0, "I", 0x0, "L", 0x0, " "
	DCB	0x0, "t", 0x0, "o", 0x0, " ", 0x0, "r", 0x0, "e", 0x0, "a"
	DCB	0x0, "d", 0x0, " ", 0x0, "U", 0x0, "L", 0x0, "P", 0x0, "I"
	DCB	0x0, " ", 0x0, "R", 0x0, "e", 0x0, "g", 0x0, ",", 0x0, " "
	DCB	0x0, "C", 0x0, "o", 0x0, "n", 0x0, "t", 0x0, "r", 0x0, "o"
	DCB	0x0, "l", 0x0, " ", 0x0, "=", 0x0, " ", 0x0, "0", 0x0, "x"
	DCB	0x0, "%", 0x0, "x", 0x0, 0xd, 0x0, 0xa, 0x0, 0x0, 0x0 ; `string'
; Function compile flags: /Ogspy

  00000			 AREA	 |.text|, CODE, ARM

  00000		 |ISP1504_ReadReg| PROC

; 72   : {

  00000		 |$LN14@ISP1504_Re|
  00000	e92d4030	 stmdb       sp!, {r4, r5, lr}
  00004		 |$M36262|
  00004	e1a04000	 mov         r4, r0

; 73   :     DWORD dwCount = 100;
; 74   :     UCHAR ucData = 0x00;
; 75   :     pOTG->pUsbGenRegs->ulpi_regs.ULPIRegAddr = idx;

  00008	e5943020	 ldr         r3, [r4, #0x20]

; 76   :     pOTG->pUsbGenRegs->ulpi_regs.ULPIRegControl = ULPI_REG_REQ | ULPI_RD_N_WR;

  0000c	e3a02005	 mov         r2, #5
  00010	e3a05064	 mov         r5, #0x64
  00014	e5c31075	 strb        r1, [r3, #0x75]
  00018	e5943020	 ldr         r3, [r4, #0x20]
  0001c	e5c32076	 strb        r2, [r3, #0x76]

; 77   :     // May lead to deadlock
; 78   :     while ((pOTG->pUsbGenRegs->ulpi_regs.ULPIRegControl & ULPI_REG_CMPLT) == 0)

  00020	ea000003	 b           |$LN11@ISP1504_Re|
  00024		 |$LL3@ISP1504_Re|

; 79   :     {
; 80   :         Sleep(20);

  00024	e3a00014	 mov         r0, #0x14
  00028	eb000000	 bl          Sleep

; 81   :         dwCount--;

  0002c	e2555001	 subs        r5, r5, #1

; 82   :         if (dwCount == 0)

  00030	0a000009	 beq         |$LN9@ISP1504_Re|
  00034		 |$LN11@ISP1504_Re|
  00034	e5943020	 ldr         r3, [r4, #0x20]
  00038	e5d33076	 ldrb        r3, [r3, #0x76]
  0003c	e3130002	 tst         r3, #2
  00040	0afffff7	 beq         |$LL3@ISP1504_Re|

; 87   :         }
; 88   :     }
; 89   :     ucData = pOTG->pUsbGenRegs->ulpi_regs.ULPIRegData;

  00044	e5943020	 ldr         r3, [r4, #0x20]

; 90   : 
; 91   :     pOTG->pUsbGenRegs->ulpi_regs.ULPIRegControl = 0;

  00048	e3a02000	 mov         r2, #0
  0004c	e5d30074	 ldrb        r0, [r3, #0x74]
  00050	e5c32076	 strb        r2, [r3, #0x76]

; 92   : 
; 93   :     return ucData;
; 94   : }

  00054	e8bd4030	 ldmia       sp!, {r4, r5, lr}
  00058	e12fff1e	 bx          lr
  0005c		 |$LN9@ISP1504_Re|

; 83   :         {
; 84   :             RETAILMSG(1, (TEXT("####### FAIL to read ULPI Reg, Control = 0x%x\r\n"), 
; 85   :                 pOTG->pUsbGenRegs->ulpi_regs.ULPIRegControl));

  0005c	e5943020	 ldr         r3, [r4, #0x20]
  00060	e59f0010	 ldr         r0, [pc, #0x10]
  00064	e5d31076	 ldrb        r1, [r3, #0x76]
  00068	eb000000	 bl          NKDbgPrintfW

; 86   :             return 0x00;

  0006c	e3a00000	 mov         r0, #0

; 92   : 
; 93   :     return ucData;
; 94   : }

  00070	e8bd4030	 ldmia       sp!, {r4, r5, lr}
  00074	e12fff1e	 bx          lr
  00078		 |$LN15@ISP1504_Re|
  00078		 |$LN16@ISP1504_Re|
  00078	00000000	 DCD         |??_C@_1GA@KDAFPHFP@?$AA?$CD?$AA?$CD?$AA?$CD?$AA?$CD?$AA?$CD?$AA?$CD?$AA?$CD?$AA?5?$AAF?$AAA?$AAI?$AAL?$AA?5?$AAt?$AAo?$AA?5?$AAr?$AAe?$AAa?$AAd?$AA?5?$AAU?$AAL?$AAP?$AAI?$AA?5?$AAR?$AAe?$AAg?$AA?0?$AA?5?$AAC@|
  0007c		 |$M36263|

			 ENDP  ; |ISP1504_ReadReg|

	EXPORT	|ISP1504_WriteReg|
	EXPORT	|??_C@_1GC@CFNKCDFO@?$AA?$CD?$AA?$CD?$AA?$CD?$AA?$CD?$AA?$CD?$AA?$CD?$AA?$CD?$AA?5?$AAF?$AAA?$AAI?$AAL?$AA?5?$AAt?$AAo?$AA?5?$AAw?$AAr?$AAi?$AAt?$AAe?$AA?5?$AAU?$AAL?$AAP?$AAI?$AA?5?$AAR?$AAe?$AAg?$AA?0?$AA?5@| [ DATA ] ; `string'

  00000			 AREA	 |.pdata|, PDATA
|$T36286| DCD	|$LN14@ISP1504_Wr|
	DCD	0x40002101

  00000			 AREA	 |.rdata|, DATA, READONLY
|??_C@_1GC@CFNKCDFO@?$AA?$CD?$AA?$CD?$AA?$CD?$AA?$CD?$AA?$CD?$AA?$CD?$AA?$CD?$AA?5?$AAF?$AAA?$AAI?$AAL?$AA?5?$AAt?$AAo?$AA?5?$AAw?$AAr?$AAi?$AAt?$AAe?$AA?5?$AAU?$AAL?$AAP?$AAI?$AA?5?$AAR?$AAe?$AAg?$AA?0?$AA?5@| DCB "#"
	DCB	0x0, "#", 0x0, "#", 0x0, "#", 0x0, "#", 0x0, "#", 0x0, "#"
	DCB	0x0, " ", 0x0, "F", 0x0, "A", 0x0, "I", 0x0, "L", 0x0, " "
	DCB	0x0, "t", 0x0, "o", 0x0, " ", 0x0, "w", 0x0, "r", 0x0, "i"
	DCB	0x0, "t", 0x0, "e", 0x0, " ", 0x0, "U", 0x0, "L", 0x0, "P"
	DCB	0x0, "I", 0x0, " ", 0x0, "R", 0x0, "e", 0x0, "g", 0x0, ","
	DCB	0x0, " ", 0x0, "C", 0x0, "o", 0x0, "n", 0x0, "t", 0x0, "r"
	DCB	0x0, "o", 0x0, "l", 0x0, " ", 0x0, "=", 0x0, " ", 0x0, "0"
	DCB	0x0, "x", 0x0, "%", 0x0, "x", 0x0, 0xd, 0x0, 0xa, 0x0, 0x0
	DCB	0x0					; `string'
; Function compile flags: /Ogspy

  00000			 AREA	 |.text|, CODE, ARM

  00000		 |ISP1504_WriteReg| PROC

; 113  : {

  00000		 |$LN14@ISP1504_Wr|
  00000	e92d4030	 stmdb       sp!, {r4, r5, lr}
  00004		 |$M36283|
  00004	e1a04000	 mov         r4, r0

; 114  :     DWORD dwCount = 100;
; 115  :     pOTG->pUsbGenRegs->ulpi_regs.ULPIRegAddr = idx;

  00008	e5943020	 ldr         r3, [r4, #0x20]

; 116  :     pOTG->pUsbGenRegs->ulpi_regs.ULPIRegData = (UINT8)data;
; 117  :     pOTG->pUsbGenRegs->ulpi_regs.ULPIRegControl = ULPI_REG_REQ;

  0000c	e3a00001	 mov         r0, #1
  00010	e3a05064	 mov         r5, #0x64
  00014	e5c31075	 strb        r1, [r3, #0x75]
  00018	e5943020	 ldr         r3, [r4, #0x20]
  0001c	e5c32074	 strb        r2, [r3, #0x74]
  00020	e5943020	 ldr         r3, [r4, #0x20]
  00024	e5c30076	 strb        r0, [r3, #0x76]

; 118  :     // May lead to deadlock
; 119  :     while ((pOTG->pUsbGenRegs->ulpi_regs.ULPIRegControl & ULPI_REG_CMPLT) == 0)

  00028	ea000003	 b           |$LN11@ISP1504_Wr|
  0002c		 |$LL3@ISP1504_Wr|

; 120  :     {
; 121  :         Sleep(2);

  0002c	e3a00002	 mov         r0, #2
  00030	eb000000	 bl          Sleep

; 122  :         dwCount--;

  00034	e2555001	 subs        r5, r5, #1

; 123  :         if (dwCount == 0)

  00038	0a000009	 beq         |$LN9@ISP1504_Wr|
  0003c		 |$LN11@ISP1504_Wr|
  0003c	e5943020	 ldr         r3, [r4, #0x20]
  00040	e5d33076	 ldrb        r3, [r3, #0x76]
  00044	e3130002	 tst         r3, #2
  00048	0afffff7	 beq         |$LL3@ISP1504_Wr|

; 128  :         }
; 129  :     }
; 130  : 
; 131  :     pOTG->pUsbGenRegs->ulpi_regs.ULPIRegControl = 0;

  0004c	e5943020	 ldr         r3, [r4, #0x20]
  00050	e3a02000	 mov         r2, #0

; 132  : 
; 133  :     return TRUE;

  00054	e3a00001	 mov         r0, #1
  00058	e5c32076	 strb        r2, [r3, #0x76]

; 134  : }

  0005c	e8bd4030	 ldmia       sp!, {r4, r5, lr}
  00060	e12fff1e	 bx          lr
  00064		 |$LN9@ISP1504_Wr|

; 124  :         {
; 125  :             RETAILMSG(1, (TEXT("####### FAIL to write ULPI Reg, Control = 0x%x\r\n"), 
; 126  :                 pOTG->pUsbGenRegs->ulpi_regs.ULPIRegControl));

  00064	e5943020	 ldr         r3, [r4, #0x20]
  00068	e59f0010	 ldr         r0, [pc, #0x10]
  0006c	e5d31076	 ldrb        r1, [r3, #0x76]
  00070	eb000000	 bl          NKDbgPrintfW

; 127  :             return FALSE;

  00074	e3a00000	 mov         r0, #0

; 134  : }

  00078	e8bd4030	 ldmia       sp!, {r4, r5, lr}
  0007c	e12fff1e	 bx          lr
  00080		 |$LN15@ISP1504_Wr|
  00080		 |$LN16@ISP1504_Wr|
  00080	00000000	 DCD         |??_C@_1GC@CFNKCDFO@?$AA?$CD?$AA?$CD?$AA?$CD?$AA?$CD?$AA?$CD?$AA?$CD?$AA?$CD?$AA?5?$AAF?$AAA?$AAI?$AAL?$AA?5?$AAt?$AAo?$AA?5?$AAw?$AAr?$AAi?$AAt?$AAe?$AA?5?$AAU?$AAL?$AAP?$AAI?$AA?5?$AAR?$AAe?$AAg?$AA?0?$AA?5@|
  00084		 |$M36284|

			 ENDP  ; |ISP1504_WriteReg|

	EXPORT	|DumpIsp1504Regs|

  00000			 AREA	 |.pdata|, PDATA
|$T36295| DCD	|$LN5@DumpIsp150|
	DCD	0x40000100
; Function compile flags: /Ogspy

  00000			 AREA	 |.text|, CODE, ARM

  00000		 |DumpIsp1504Regs| PROC

; 150  : {

  00000		 |$LN5@DumpIsp150|
  00000		 |$M36292|

; 151  : 	UNREFERENCED_PARAMETER(pOTG);
; 152  : 
; 153  :     // Don't touch the ULPI register interface
; 154  :     /*
; 155  :     RETAILMSG(1, (L"ULPI Register\r\n"));
; 156  :     RETAILMSG(1, (L"\tULPI_VID=(%x,%x)\r\n", 
; 157  :             ISP1504_ReadReg(pOTG, ISP1504_VENDORID_LOW_R),
; 158  :             ISP1504_ReadReg(pOTG, ISP1504_VENDORID_HIGH_R)));
; 159  :     RETAILMSG(1, (L"\tULPI_PID=(%x,%x)\r\n", 
; 160  :             ISP1504_ReadReg(pOTG, ISP1504_PRODUCT_LOW_R),
; 161  :             ISP1504_ReadReg(pOTG, ISP1504_PRODUCT_HIGH_R)));
; 162  :     RETAILMSG(1, (L"\tFunction Control(%x)=%x\r\n", 
; 163  :             ISP1504_FUNCTION_CTRL_RW,
; 164  :             ISP1504_ReadReg(pOTG, ISP1504_FUNCTION_CTRL_RW)));
; 165  :     RETAILMSG(1, (L"\tInterface Control(%x)=%x\r\n", 
; 166  :             ISP1504_INTERFACE_CTRL_RW,
; 167  :             ISP1504_ReadReg(pOTG, ISP1504_INTERFACE_CTRL_RW)));
; 168  :     RETAILMSG(1, (L"\tOTG Control(%x)=%x\r\n", 
; 169  :             ISP1504_OTG_CTRL_RW,
; 170  :             ISP1504_ReadReg(pOTG, ISP1504_OTG_CTRL_RW)));
; 171  :     RETAILMSG(1, (L"\tInterrupt Enable rising(%x)=%x\r\n", 
; 172  :             ISP1504_INTR_RISING_RW,
; 173  :             ISP1504_ReadReg(pOTG, ISP1504_INTR_RISING_RW)));
; 174  :     RETAILMSG(1, (L"\tInterrupt Enable Falling(%x)=%x\r\n", 
; 175  :             ISP1504_INTR_FALLING_RW,
; 176  :             ISP1504_ReadReg(pOTG, ISP1504_INTR_FALLING_RW)));
; 177  :     RETAILMSG(1, (L"\tInterrupt Status(%x)=%x\r\n", 
; 178  :             ISP1504_INTR_STATUS_R,
; 179  :             ISP1504_ReadReg(pOTG, ISP1504_INTR_STATUS_R)));
; 180  :     // Don't read the latch, reading clears the interrupt.
; 181  :     //RETAILMSG(1, (L"\tInterrupt Latch(%x)=%x\r\n", 
; 182  :     //        ISP1504_INTR_LATCH_RC,
; 183  :     //        ISP1504_ReadReg(pOTG, ISP1504_INTR_LATCH_RC)));
; 184  :     RETAILMSG(1, (L"\tDebug(%x)=%x\r\n", 
; 185  :             ISP1504_DEBUG_R,
; 186  :             ISP1504_ReadReg(pOTG, ISP1504_DEBUG_R)));
; 187  :     RETAILMSG(1, (L"\tScratch(%x)=%x\r\n", 
; 188  :             ISP1504_SCRATCH_RW,
; 189  :             ISP1504_ReadReg(pOTG, ISP1504_SCRATCH_RW)));
; 190  :     RETAILMSG(1, (L"\tPower(%x)=%x\r\n", 
; 191  :             ISP1504_POWER_CTRL_RW,
; 192  :             ISP1504_ReadReg(pOTG, ISP1504_POWER_CTRL_RW)));
; 193  :     */
; 194  : }

  00000	e12fff1e	 bx          lr
  00004		 |$M36293|

			 ENDP  ; |DumpIsp1504Regs|

	EXPORT	|ISP1504_SetLowPowerMode|

  00000			 AREA	 |.pdata|, PDATA
|$T36305| DCD	|$LN5@ISP1504_Se|
	DCD	0x40000701
; Function compile flags: /Ogspy

  00000			 AREA	 |.text|, CODE, ARM

  00000		 |ISP1504_SetLowPowerMode| PROC

; 208  : {    

  00000		 |$LN5@ISP1504_Se|
  00000	e52de004	 str         lr, [sp, #-4]!
  00004		 |$M36302|

; 209  :     ISP1504_WriteReg(pOTG, ISP1504_FUNCTION_CTRL_C, 1<<6);

  00004	e3a02040	 mov         r2, #0x40
  00008	e3a01006	 mov         r1, #6
  0000c	eb000000	 bl          ISP1504_WriteReg

; 210  :     return TRUE;

  00010	e3a00001	 mov         r0, #1

; 211  : }

  00014	e49de004	 ldr         lr, [sp], #4
  00018	e12fff1e	 bx          lr
  0001c		 |$M36303|

			 ENDP  ; |ISP1504_SetLowPowerMode|

	EXPORT	|?AconnNotifHandle@HSUSBOTGTransceiverIsp1504@@UAAXPAX@Z| ; HSUSBOTGTransceiverIsp1504::AconnNotifHandle
; File c:\wince600\platform\common\src\soc\common_ti_v1\common_ti\musb\usbotg_isp1504\isp1504_musb.cpp

  00000			 AREA	 |.pdata|, PDATA
|$T36314| DCD	|$LN5@AconnNotif|
	DCD	0x40000200
; Function compile flags: /Ogspy

  00000			 AREA	 |.text|, CODE, ARM

  00000		 |?AconnNotifHandle@HSUSBOTGTransceiverIsp1504@@UAAXPAX@Z| PROC ; HSUSBOTGTransceiverIsp1504::AconnNotifHandle

; 55   : {

  00000		 |$LN5@AconnNotif|
  00000		 |$M36311|

; 56   :     m_hAconnEvent = hAconnEvent;

  00000	e5801004	 str         r1, [r0, #4]

; 57   :     DEBUGMSG(ZONE_OTG_FUNCTION, (TEXT("HSUSBOTGTransceiver::AconnNotifHandle (0x%x)\r\n"), hAconnEvent));
; 58   : }

  00004	e12fff1e	 bx          lr
  00008		 |$M36312|

			 ENDP  ; |?AconnNotifHandle@HSUSBOTGTransceiverIsp1504@@UAAXPAX@Z|, HSUSBOTGTransceiverIsp1504::AconnNotifHandle

	EXPORT	|??0HSUSBOTGTransceiverIsp1504@@QAA@PAUHSMUSB_T@@@Z| ; HSUSBOTGTransceiverIsp1504::HSUSBOTGTransceiverIsp1504
	EXPORT	|??_7HSUSBOTGTransceiverIsp1504@@6B@| [ DATA ] ; HSUSBOTGTransceiverIsp1504::`vftable'
	EXPORT	|?EnableVBusDischarge@HSUSBOTGTransceiverIsp1504@@UAAXH@Z| ; HSUSBOTGTransceiverIsp1504::EnableVBusDischarge
	EXPORT	|?SetVBusSource@HSUSBOTGTransceiverIsp1504@@UAAXH@Z| ; HSUSBOTGTransceiverIsp1504::SetVBusSource
	EXPORT	|?EnableWakeupInterrupt@HSUSBOTGTransceiverIsp1504@@UAAXH@Z| ; HSUSBOTGTransceiverIsp1504::EnableWakeupInterrupt
	EXPORT	|?UpdateUSBVBusSleepOffState@HSUSBOTGTransceiverIsp1504@@UAAHH@Z| ; HSUSBOTGTransceiverIsp1504::UpdateUSBVBusSleepOffState
	EXPORT	|?SupportsTransceiverWakeWithoutClock@HSUSBOTGTransceiverIsp1504@@UAAHXZ| ; HSUSBOTGTransceiverIsp1504::SupportsTransceiverWakeWithoutClock
	EXPORT	|?SetLowPowerMode@HSUSBOTGTransceiverIsp1504@@UAAHXZ| ; HSUSBOTGTransceiverIsp1504::SetLowPowerMode
	EXPORT	|?IsSE0@HSUSBOTGTransceiverIsp1504@@UAAHXZ| ; HSUSBOTGTransceiverIsp1504::IsSE0
	EXPORT	|?DumpULPIRegs@HSUSBOTGTransceiverIsp1504@@UAAXXZ| ; HSUSBOTGTransceiverIsp1504::DumpULPIRegs
	EXPORT	|?Reset@HSUSBOTGTransceiverIsp1504@@UAAXXZ| ; HSUSBOTGTransceiverIsp1504::Reset
	EXPORT	|?Resume@HSUSBOTGTransceiverIsp1504@@UAAXXZ| ; HSUSBOTGTransceiverIsp1504::Resume
	EXPORT	|?ResetPHY@HSUSBOTGTransceiverIsp1504@@UAAHXZ| ; HSUSBOTGTransceiverIsp1504::ResetPHY
	EXPORT	|?IsADeviceConnected@HSUSBOTGTransceiverIsp1504@@UAAHXZ| ; HSUSBOTGTransceiverIsp1504::IsADeviceConnected
	EXPORT	|?IsBDeviceConnected@HSUSBOTGTransceiverIsp1504@@UAAHXZ| ; HSUSBOTGTransceiverIsp1504::IsBDeviceConnected
; File c:\wince600\platform\common\src\soc\common_ti_v1\common_ti\inc\transceiver_musb.hpp

  00000			 AREA	 |.pdata|, PDATA
|$T36328| DCD	|$LN7@HSUSBOTGTr@3|
	DCD	0x40000600

  00000			 AREA	 |.rdata|, DATA, READONLY
|??_7HSUSBOTGTransceiverIsp1504@@6B@| DCD |?EnableVBusDischarge@HSUSBOTGTransceiverIsp1504@@UAAXH@Z| ; HSUSBOTGTransceiverIsp1504::`vftable'
	DCD	|?SetVBusSource@HSUSBOTGTransceiverIsp1504@@UAAXH@Z|
	DCD	|?EnableWakeupInterrupt@HSUSBOTGTransceiverIsp1504@@UAAXH@Z|
	DCD	|?AconnNotifHandle@HSUSBOTGTransceiverIsp1504@@UAAXPAX@Z|
	DCD	|?UpdateUSBVBusSleepOffState@HSUSBOTGTransceiverIsp1504@@UAAHH@Z|
	DCD	|?SupportsTransceiverWakeWithoutClock@HSUSBOTGTransceiverIsp1504@@UAAHXZ|
	DCD	|?SetLowPowerMode@HSUSBOTGTransceiverIsp1504@@UAAHXZ|
	DCD	|?IsSE0@HSUSBOTGTransceiverIsp1504@@UAAHXZ|
	DCD	|?DumpULPIRegs@HSUSBOTGTransceiverIsp1504@@UAAXXZ|
	DCD	|?Reset@HSUSBOTGTransceiverIsp1504@@UAAXXZ|
	DCD	|?Resume@HSUSBOTGTransceiverIsp1504@@UAAXXZ|
	DCD	|?ResetPHY@HSUSBOTGTransceiverIsp1504@@UAAHXZ|
	DCD	|?IsADeviceConnected@HSUSBOTGTransceiverIsp1504@@UAAHXZ|
	DCD	|?IsBDeviceConnected@HSUSBOTGTransceiverIsp1504@@UAAHXZ|
; Function compile flags: /Ogspy
; File c:\wince600\platform\common\src\soc\common_ti_v1\common_ti\musb\usbotg_isp1504\isp1504_musb.cpp

  00000			 AREA	 |.text|, CODE, ARM

  00000		 |??0HSUSBOTGTransceiverIsp1504@@QAA@PAUHSMUSB_T@@@Z| PROC ; HSUSBOTGTransceiverIsp1504::HSUSBOTGTransceiverIsp1504

; 61   : {

  00000		 |$LN7@HSUSBOTGTr@3|
  00000		 |$M36325|
  00000	e1a02000	 mov         r2, r0
  00004	e59f3008	 ldr         r3, [pc, #8]

; 62   :     m_pOTG = pOTG;

  00008	e5821008	 str         r1, [r2, #8]

; 63   :     
; 64   :     DEBUGMSG(ZONE_OTG_FUNCTION, (TEXT("HSUSBOTGTransceiver called\r\n")));
; 65   : }

  0000c	e5823000	 str         r3, [r2]
  00010	e12fff1e	 bx          lr
  00014		 |$LN8@HSUSBOTGTr@3|
  00014		 |$LN9@HSUSBOTGTr@3|
  00014	00000000	 DCD         |??_7HSUSBOTGTransceiverIsp1504@@6B@|
  00018		 |$M36326|

			 ENDP  ; |??0HSUSBOTGTransceiverIsp1504@@QAA@PAUHSMUSB_T@@@Z|, HSUSBOTGTransceiverIsp1504::HSUSBOTGTransceiverIsp1504

; File c:\wince600\platform\common\src\soc\common_ti_v1\common_ti\inc\isp1504_musb.hpp

  00000			 AREA	 |.pdata|, PDATA
|$T36337| DCD	|$LN5@EnableVBus|
	DCD	0x40000100
; Function compile flags: /Ogspy

  00000			 AREA	 |.text|, CODE, ARM

  00000		 |?EnableVBusDischarge@HSUSBOTGTransceiverIsp1504@@UAAXH@Z| PROC ; HSUSBOTGTransceiverIsp1504::EnableVBusDischarge

; 25   :     void EnableVBusDischarge(BOOL fDischarge) {UNREFERENCED_PARAMETER(fDischarge);};

  00000		 |$LN5@EnableVBus|
  00000		 |$M36334|
  00000	e12fff1e	 bx          lr
  00004		 |$M36335|

			 ENDP  ; |?EnableVBusDischarge@HSUSBOTGTransceiverIsp1504@@UAAXH@Z|, HSUSBOTGTransceiverIsp1504::EnableVBusDischarge


  00000			 AREA	 |.pdata|, PDATA
|$T36344| DCD	|$LN5@SetVBusSou|
	DCD	0x40000100
; Function compile flags: /Ogspy

  00000			 AREA	 |.text|, CODE, ARM

  00000		 |?SetVBusSource@HSUSBOTGTransceiverIsp1504@@UAAXH@Z| PROC ; HSUSBOTGTransceiverIsp1504::SetVBusSource

; 26   :     void SetVBusSource(BOOL fBat) {UNREFERENCED_PARAMETER(fBat);};

  00000		 |$LN5@SetVBusSou|
  00000		 |$M36341|
  00000	e12fff1e	 bx          lr
  00004		 |$M36342|

			 ENDP  ; |?SetVBusSource@HSUSBOTGTransceiverIsp1504@@UAAXH@Z|, HSUSBOTGTransceiverIsp1504::SetVBusSource


  00000			 AREA	 |.pdata|, PDATA
|$T36351| DCD	|$LN5@EnableWake|
	DCD	0x40000100
; Function compile flags: /Ogspy

  00000			 AREA	 |.text|, CODE, ARM

  00000		 |?EnableWakeupInterrupt@HSUSBOTGTransceiverIsp1504@@UAAXH@Z| PROC ; HSUSBOTGTransceiverIsp1504::EnableWakeupInterrupt

; 27   :     void EnableWakeupInterrupt(BOOL fEnable) {UNREFERENCED_PARAMETER(fEnable);};

  00000		 |$LN5@EnableWake|
  00000		 |$M36348|
  00000	e12fff1e	 bx          lr
  00004		 |$M36349|

			 ENDP  ; |?EnableWakeupInterrupt@HSUSBOTGTransceiverIsp1504@@UAAXH@Z|, HSUSBOTGTransceiverIsp1504::EnableWakeupInterrupt


  00000			 AREA	 |.pdata|, PDATA
|$T36360| DCD	|$LN5@UpdateUSBV|
	DCD	0x40000200
; Function compile flags: /Ogspy

  00000			 AREA	 |.text|, CODE, ARM

  00000		 |?UpdateUSBVBusSleepOffState@HSUSBOTGTransceiverIsp1504@@UAAHH@Z| PROC ; HSUSBOTGTransceiverIsp1504::UpdateUSBVBusSleepOffState

; 29   :     BOOL UpdateUSBVBusSleepOffState(BOOL fActive) {UNREFERENCED_PARAMETER(fActive);return TRUE;};

  00000		 |$LN5@UpdateUSBV|
  00000		 |$M36357|
  00000	e3a00001	 mov         r0, #1
  00004	e12fff1e	 bx          lr
  00008		 |$M36358|

			 ENDP  ; |?UpdateUSBVBusSleepOffState@HSUSBOTGTransceiverIsp1504@@UAAHH@Z|, HSUSBOTGTransceiverIsp1504::UpdateUSBVBusSleepOffState


  00000			 AREA	 |.pdata|, PDATA
|$T36369| DCD	|$LN5@SupportsTr|
	DCD	0x40000200
; Function compile flags: /Ogspy

  00000			 AREA	 |.text|, CODE, ARM

  00000		 |?SupportsTransceiverWakeWithoutClock@HSUSBOTGTransceiverIsp1504@@UAAHXZ| PROC ; HSUSBOTGTransceiverIsp1504::SupportsTransceiverWakeWithoutClock

; 30   :     BOOL SupportsTransceiverWakeWithoutClock() {return FALSE;};

  00000		 |$LN5@SupportsTr|
  00000		 |$M36366|
  00000	e3a00000	 mov         r0, #0
  00004	e12fff1e	 bx          lr
  00008		 |$M36367|

			 ENDP  ; |?SupportsTransceiverWakeWithoutClock@HSUSBOTGTransceiverIsp1504@@UAAHXZ|, HSUSBOTGTransceiverIsp1504::SupportsTransceiverWakeWithoutClock


  00000			 AREA	 |.pdata|, PDATA
|$T36378| DCD	|$LN5@ResetPHY|
	DCD	0x40000200
; Function compile flags: /Ogspy

  00000			 AREA	 |.text|, CODE, ARM

  00000		 |?ResetPHY@HSUSBOTGTransceiverIsp1504@@UAAHXZ| PROC ; HSUSBOTGTransceiverIsp1504::ResetPHY

; 36   :     BOOL ResetPHY() {return TRUE;};

  00000		 |$LN5@ResetPHY|
  00000		 |$M36375|
  00000	e3a00001	 mov         r0, #1
  00004	e12fff1e	 bx          lr
  00008		 |$M36376|

			 ENDP  ; |?ResetPHY@HSUSBOTGTransceiverIsp1504@@UAAHXZ|, HSUSBOTGTransceiverIsp1504::ResetPHY


  00000			 AREA	 |.pdata|, PDATA
|$T36387| DCD	|$LN5@IsADeviceC|
	DCD	0x40000200
; Function compile flags: /Ogspy

  00000			 AREA	 |.text|, CODE, ARM

  00000		 |?IsADeviceConnected@HSUSBOTGTransceiverIsp1504@@UAAHXZ| PROC ; HSUSBOTGTransceiverIsp1504::IsADeviceConnected

; 37   :     BOOL IsADeviceConnected() {return FALSE;};

  00000		 |$LN5@IsADeviceC|
  00000		 |$M36384|
  00000	e3a00000	 mov         r0, #0
  00004	e12fff1e	 bx          lr
  00008		 |$M36385|

			 ENDP  ; |?IsADeviceConnected@HSUSBOTGTransceiverIsp1504@@UAAHXZ|, HSUSBOTGTransceiverIsp1504::IsADeviceConnected


  00000			 AREA	 |.pdata|, PDATA
|$T36396| DCD	|$LN5@IsBDeviceC|
	DCD	0x40000200
; Function compile flags: /Ogspy

  00000			 AREA	 |.text|, CODE, ARM

  00000		 |?IsBDeviceConnected@HSUSBOTGTransceiverIsp1504@@UAAHXZ| PROC ; HSUSBOTGTransceiverIsp1504::IsBDeviceConnected

; 38   :     BOOL IsBDeviceConnected() {return FALSE;};

  00000		 |$LN5@IsBDeviceC|
  00000		 |$M36393|
  00000	e3a00000	 mov         r0, #0
  00004	e12fff1e	 bx          lr
  00008		 |$M36394|

			 ENDP  ; |?IsBDeviceConnected@HSUSBOTGTransceiverIsp1504@@UAAHXZ|, HSUSBOTGTransceiverIsp1504::IsBDeviceConnected

	EXPORT	|??1HSUSBOTGTransceiverIsp1504@@QAA@XZ|	; HSUSBOTGTransceiverIsp1504::~HSUSBOTGTransceiverIsp1504
; File c:\wince600\platform\common\src\soc\common_ti_v1\common_ti\inc\transceiver_musb.hpp

  00000			 AREA	 |.pdata|, PDATA
|$T36407| DCD	|$LN7@HSUSBOTGTr@4|
	DCD	0x40000400
; Function compile flags: /Ogspy
; File c:\wince600\platform\common\src\soc\common_ti_v1\common_ti\musb\usbotg_isp1504\isp1504_musb.cpp

  00000			 AREA	 |.text|, CODE, ARM

  00000		 |??1HSUSBOTGTransceiverIsp1504@@QAA@XZ| PROC ; HSUSBOTGTransceiverIsp1504::~HSUSBOTGTransceiverIsp1504

; 69   : {

  00000		 |$LN7@HSUSBOTGTr@4|
  00000		 |$M36404|

; 70   : }

  00000	e59f3004	 ldr         r3, [pc, #4]
  00004	e5803000	 str         r3, [r0]
  00008	e12fff1e	 bx          lr
  0000c		 |$LN8@HSUSBOTGTr@4|
  0000c		 |$LN9@HSUSBOTGTr@4|
  0000c	00000000	 DCD         |??_7HSUSBOTGTransceiver@@6B@|
  00010		 |$M36405|

			 ENDP  ; |??1HSUSBOTGTransceiverIsp1504@@QAA@XZ|, HSUSBOTGTransceiverIsp1504::~HSUSBOTGTransceiverIsp1504


  00000			 AREA	 |.pdata|, PDATA
|$T36418| DCD	|$LN5@SetLowPowe|
	DCD	0x40000200
; Function compile flags: /Ogspy

  00000			 AREA	 |.text|, CODE, ARM

  00000		 |?SetLowPowerMode@HSUSBOTGTransceiverIsp1504@@UAAHXZ| PROC ; HSUSBOTGTransceiverIsp1504::SetLowPowerMode

; 75   : {

  00000		 |$LN5@SetLowPowe|
  00000		 |$M36415|

; 76   :     return TRUE;

  00000	e3a00001	 mov         r0, #1

; 77   : }

  00004	e12fff1e	 bx          lr
  00008		 |$M36416|

			 ENDP  ; |?SetLowPowerMode@HSUSBOTGTransceiverIsp1504@@UAAHXZ|, HSUSBOTGTransceiverIsp1504::SetLowPowerMode


  00000			 AREA	 |.pdata|, PDATA
|$T36427| DCD	|$LN5@IsSE0|
	DCD	0x40000200
; Function compile flags: /Ogspy

  00000			 AREA	 |.text|, CODE, ARM

  00000		 |?IsSE0@HSUSBOTGTransceiverIsp1504@@UAAHXZ| PROC ; HSUSBOTGTransceiverIsp1504::IsSE0

; 80   : {

  00000		 |$LN5@IsSE0|
  00000		 |$M36424|

; 81   :     return FALSE;

  00000	e3a00000	 mov         r0, #0

; 82   : }

  00004	e12fff1e	 bx          lr
  00008		 |$M36425|

			 ENDP  ; |?IsSE0@HSUSBOTGTransceiverIsp1504@@UAAHXZ|, HSUSBOTGTransceiverIsp1504::IsSE0


  00000			 AREA	 |.pdata|, PDATA
|$T36434| DCD	|$LN5@DumpULPIRe|
	DCD	0x40000100
; Function compile flags: /Ogspy

  00000			 AREA	 |.text|, CODE, ARM

  00000		 |?DumpULPIRegs@HSUSBOTGTransceiverIsp1504@@UAAXXZ| PROC ; HSUSBOTGTransceiverIsp1504::DumpULPIRegs

; 85   : {

  00000		 |$LN5@DumpULPIRe|
  00000		 |$M36431|

; 86   :     //DumpIsp1504Regs(m_pOTG);
; 87   : }

  00000	e12fff1e	 bx          lr
  00004		 |$M36432|

			 ENDP  ; |?DumpULPIRegs@HSUSBOTGTransceiverIsp1504@@UAAXXZ|, HSUSBOTGTransceiverIsp1504::DumpULPIRegs


  00000			 AREA	 |.pdata|, PDATA
|$T36442| DCD	|$LN5@Reset|
	DCD	0x40000500
; Function compile flags: /Ogspy

  00000			 AREA	 |.text|, CODE, ARM

  00000		 |?Reset@HSUSBOTGTransceiverIsp1504@@UAAXXZ| PROC ; HSUSBOTGTransceiverIsp1504::Reset

; 91   : {

  00000		 |$LN5@Reset|
  00000		 |$M36439|

; 92   : 	// enable external VBUS control
; 93   :     m_pOTG->pUsbGenRegs->ulpi_regs.ULPIVbusControl = 0x1;

  00000	e5903008	 ldr         r3, [r0, #8]
  00004	e3a02001	 mov         r2, #1
  00008	e5933020	 ldr         r3, [r3, #0x20]
  0000c	e5c32070	 strb        r2, [r3, #0x70]

; 94   : }

  00010	e12fff1e	 bx          lr
  00014		 |$M36440|

			 ENDP  ; |?Reset@HSUSBOTGTransceiverIsp1504@@UAAXXZ|, HSUSBOTGTransceiverIsp1504::Reset


  00000			 AREA	 |.pdata|, PDATA
|$T36450| DCD	|$LN5@Resume|
	DCD	0x40000500
; Function compile flags: /Ogspy

  00000			 AREA	 |.text|, CODE, ARM

  00000		 |?Resume@HSUSBOTGTransceiverIsp1504@@UAAXXZ| PROC ; HSUSBOTGTransceiverIsp1504::Resume

; 98   : {

  00000		 |$LN5@Resume|
  00000		 |$M36447|

; 99   :     // enable external VBUS control
; 100  :     m_pOTG->pUsbGenRegs->ulpi_regs.ULPIVbusControl = 0x1;

  00000	e5903008	 ldr         r3, [r0, #8]
  00004	e3a02001	 mov         r2, #1
  00008	e5933020	 ldr         r3, [r3, #0x20]
  0000c	e5c32070	 strb        r2, [r3, #0x70]

; 101  : }

  00010	e12fff1e	 bx          lr
  00014		 |$M36448|

			 ENDP  ; |?Resume@HSUSBOTGTransceiverIsp1504@@UAAXXZ|, HSUSBOTGTransceiverIsp1504::Resume

	EXPORT	|CreateHSUSBOTGTransceiver|
	IMPORT	|??2@YAPAXI@Z|				; operator new
; File c:\wince600\platform\common\src\soc\common_ti_v1\common_ti\inc\transceiver_musb.hpp

  00000			 AREA	 |.pdata|, PDATA
|$T36472| DCD	|$LN11@CreateHSUS|
	DCD	0x40000d01
; Function compile flags: /Ogspy
; File c:\wince600\platform\common\src\soc\common_ti_v1\common_ti\musb\usbotg_isp1504\isp1504_musb.cpp

  00000			 AREA	 |.text|, CODE, ARM

  00000		 |CreateHSUSBOTGTransceiver| PROC

; 49   : {

  00000		 |$LN11@CreateHSUS|
  00000	e92d4010	 stmdb       sp!, {r4, lr}
  00004		 |$M36469|
  00004	e1a04000	 mov         r4, r0

; 50   :     return new HSUSBOTGTransceiverIsp1504(pOTG);

  00008	e3a0000c	 mov         r0, #0xC
  0000c	eb000000	 bl          |??2@YAPAXI@Z|
  00010	e3500000	 cmp         r0, #0
  00014	159f3014	 ldrne       r3, [pc, #0x14]
  00018	15804008	 strne       r4, [r0, #8]
  0001c	15803000	 strne       r3, [r0]

; 51   : }

  00020	18bd4010	 ldmneia     sp!, {r4, lr}

; 50   :     return new HSUSBOTGTransceiverIsp1504(pOTG);

  00024	03a00000	 moveq       r0, #0

; 51   : }

  00028	08bd4010	 ldmeqia     sp!, {r4, lr}
  0002c	e12fff1e	 bx          lr
  00030		 |$LN12@CreateHSUS|
  00030		 |$LN13@CreateHSUS|
  00030	00000000	 DCD         |??_7HSUSBOTGTransceiverIsp1504@@6B@|
  00034		 |$M36470|

			 ENDP  ; |CreateHSUSBOTGTransceiver|

	END
