; Listing generated by Microsoft (R) Optimizing Compiler Version 14.01.60511.01 

	TTL	C:\WINCE600\PLATFORM\COMMON\SRC\ARM\COMMON\MISC\feature.cpp
	CODE32

  00000			 AREA	 |.drectve|, DRECTVE
	DCB	"-defaultlib:LIBCMT "
	DCB	"-defaultlib:OLDNAMES "


  00000			 AREA	 |.rdata|, DATA, READONLY
|sc_rgFeatureToArchMask| DCD 0x80000001
	DCD	0x6
	DCD	0x80000002
	DCD	0x78
	DCD	0x80000003
	DCD	0x80
	DCD	0x80000005
	DCD	0x74
	DCD	0x80000006
	DCD	0x40
	EXPORT	|??_C@_1KC@KHIEGOFB@?$AAO?$AAA?$AAL?$AAI?$AAs?$AAP?$AAr?$AAo?$AAc?$AAe?$AAs?$AAs?$AAo?$AAr?$AAF?$AAe?$AAa?$AAt?$AAu?$AAr?$AAe?$AAP?$AAr?$AAe?$AAs?$AAe?$AAn?$AAt?$AA?3?$AA?5?$AAI?$AAD@| [ DATA ] ; `string'
	EXPORT	|OALIsProcessorFeaturePresent|
	IMPORT	|NKDbgPrintfW|
	IMPORT	|dpCurSettings|
	IMPORT	|OALGetIdCode|

  00000			 AREA	 |.pdata|, PDATA
|$T37415| DCD	|$LN13@OALIsProce|
	DCD	0x40005a04
; File c:\wince600\platform\common\src\arm\common\misc\feature.cpp

  00000			 AREA	 |.rdata|, DATA, READONLY
|??_C@_1KC@KHIEGOFB@?$AAO?$AAA?$AAL?$AAI?$AAs?$AAP?$AAr?$AAo?$AAc?$AAe?$AAs?$AAs?$AAo?$AAr?$AAF?$AAe?$AAa?$AAt?$AAu?$AAr?$AAe?$AAP?$AAr?$AAe?$AAs?$AAe?$AAn?$AAt?$AA?3?$AA?5?$AAI?$AAD@| DCB "O"
	DCB	0x0, "A", 0x0, "L", 0x0, "I", 0x0, "s", 0x0, "P", 0x0, "r"
	DCB	0x0, "o", 0x0, "c", 0x0, "e", 0x0, "s", 0x0, "s", 0x0, "o"
	DCB	0x0, "r", 0x0, "F", 0x0, "e", 0x0, "a", 0x0, "t", 0x0, "u"
	DCB	0x0, "r", 0x0, "e", 0x0, "P", 0x0, "r", 0x0, "e", 0x0, "s"
	DCB	0x0, "e", 0x0, "n", 0x0, "t", 0x0, ":", 0x0, " ", 0x0, "I"
	DCB	0x0, "D", 0x0, " ", 0x0, "C", 0x0, "o", 0x0, "d", 0x0, "e"
	DCB	0x0, " ", 0x0, "r", 0x0, "e", 0x0, "g", 0x0, "i", 0x0, "s"
	DCB	0x0, "t", 0x0, "e", 0x0, "r", 0x0, ":", 0x0, " ", 0x0, "%"
	DCB	0x0, "c", 0x0, " ", 0x0, "0", 0x0, "x", 0x0, "%", 0x0, "0"
	DCB	0x0, "2", 0x0, "x", 0x0, " ", 0x0, "0", 0x0, "x", 0x0, "%"
	DCB	0x0, "0", 0x0, "2", 0x0, "x", 0x0, " ", 0x0, "0", 0x0, "x"
	DCB	0x0, "%", 0x0, "0", 0x0, "3", 0x0, "x", 0x0, " ", 0x0, "0"
	DCB	0x0, "x", 0x0, "%", 0x0, "0", 0x0, "2", 0x0, "x", 0x0, 0xd
	DCB	0x0, 0xa, 0x0, 0x0, 0x0			; `string'
; Function compile flags: /Odtp

  00000			 AREA	 |.text|, CODE, ARM

  00000		 |OALIsProcessorFeaturePresent| PROC

; 72   : {

  00000		 |$LN13@OALIsProce|
  00000	e1a0c00d	 mov         r12, sp
  00004	e92d0001	 stmdb       sp!, {r0}
  00008	e92d5000	 stmdb       sp!, {r12, lr}
  0000c	e24dd02c	 sub         sp, sp, #0x2C
  00010		 |$M37412|

; 73   :     BOOL rc = FALSE;

  00010	e3a03000	 mov         r3, #0
  00014	e58d300c	 str         r3, [sp, #0xC]

; 74   : 
; 75   :     // Get the ID from the hardware.
; 76   :     IDCodeReg idCode = { OALGetIdCode() };

  00018	eb000000	 bl          OALGetIdCode
  0001c	e58d0024	 str         r0, [sp, #0x24]
  00020	e59d3024	 ldr         r3, [sp, #0x24]
  00024	e58d3008	 str         r3, [sp, #8]

; 77   : 
; 78   :     OALMSG(OAL_INFO&&OAL_VERBOSE, 
; 79   :         (L"OALIsProcessorFeaturePresent: ID Code register: %c 0x%02x 0x%02x 0x%03x 0x%02x\r\n",
; 80   :         idCode.implementor, idCode.variant, idCode.architecture, 
; 81   :         idCode.partNumber, idCode.revision));

  00028	e59f3134	 ldr         r3, [pc, #0x134]
  0002c	e5933440	 ldr         r3, [r3, #0x440]
  00030	e3130008	 tst         r3, #8
  00034	0a000017	 beq         |$LN9@OALIsProce|
  00038	e59f3124	 ldr         r3, [pc, #0x124]
  0003c	e5933440	 ldr         r3, [r3, #0x440]
  00040	e3130902	 tst         r3, #2, 18
  00044	0a000013	 beq         |$LN9@OALIsProce|
  00048	e59d3008	 ldr         r3, [sp, #8]
  0004c	e203300f	 and         r3, r3, #0xF
  00050	e58d3004	 str         r3, [sp, #4]
  00054	e59d3008	 ldr         r3, [sp, #8]
  00058	e1a03803	 mov         r3, r3, lsl #16
  0005c	e1a03a23	 mov         r3, r3, lsr #20
  00060	e58d3000	 str         r3, [sp]
  00064	e59d3008	 ldr         r3, [sp, #8]
  00068	e1a03603	 mov         r3, r3, lsl #12
  0006c	e1a03e43	 mov         r3, r3, asr #28
  00070	e59d2008	 ldr         r2, [sp, #8]
  00074	e1a02402	 mov         r2, r2, lsl #8
  00078	e1a02e22	 mov         r2, r2, lsr #28
  0007c	e59d1008	 ldr         r1, [sp, #8]
  00080	e1a01c21	 mov         r1, r1, lsr #24
  00084	e59f00d4	 ldr         r0, [pc, #0xD4]
  00088	eb000000	 bl          NKDbgPrintfW
  0008c	e3a03001	 mov         r3, #1
  00090	e58d3028	 str         r3, [sp, #0x28]
  00094	ea000001	 b           |$LN10@OALIsProce|
  00098		 |$LN9@OALIsProce|
  00098	e3a03000	 mov         r3, #0
  0009c	e58d3028	 str         r3, [sp, #0x28]
  000a0		 |$LN10@OALIsProce|

; 82   :     
; 83   :     // Is it possible that this feature can be supported?
; 84   :     UINT32 idx;
; 85   :     for (idx = 0; idx < dim(sc_rgFeatureToArchMask); ++idx) {

  000a0	e3a03000	 mov         r3, #0
  000a4	e58d3010	 str         r3, [sp, #0x10]
  000a8	ea000002	 b           |$LN6@OALIsProce|
  000ac		 |$LN5@OALIsProce|
  000ac	e59d3010	 ldr         r3, [sp, #0x10]
  000b0	e2833001	 add         r3, r3, #1
  000b4	e58d3010	 str         r3, [sp, #0x10]
  000b8		 |$LN6@OALIsProce|
  000b8	e59d3010	 ldr         r3, [sp, #0x10]
  000bc	e3530005	 cmp         r3, #5
  000c0	2a00000a	 bcs         |$LN4@OALIsProce|

; 86   :         if (sc_rgFeatureToArchMask[idx].processorFeature == feature) {

  000c4	e59d1010	 ldr         r1, [sp, #0x10]
  000c8	e3a03008	 mov         r3, #8
  000cc	e0020391	 mul         r2, r1, r3
  000d0	e59f3084	 ldr         r3, [pc, #0x84]
  000d4	e0833002	 add         r3, r3, r2
  000d8	e5932000	 ldr         r2, [r3]
  000dc	e59d3034	 ldr         r3, [sp, #0x34]
  000e0	e1520003	 cmp         r2, r3
  000e4	1a000000	 bne         |$LN3@OALIsProce|

; 87   :             break;

  000e8	ea000000	 b           |$LN4@OALIsProce|
  000ec		 |$LN3@OALIsProce|

; 88   :         }
; 89   :     }

  000ec	eaffffee	 b           |$LN5@OALIsProce|
  000f0		 |$LN4@OALIsProce|

; 90   : 
; 91   :     if (idx < dim(sc_rgFeatureToArchMask)) {

  000f0	e59d3010	 ldr         r3, [sp, #0x10]
  000f4	e3530005	 cmp         r3, #5
  000f8	2a000011	 bcs         |$LN2@OALIsProce|

; 92   :         // Yes, so now see if this CPU supports this feature.
; 93   :         UINT32 actualMask = (1 << idCode.architecture);

  000fc	e59d3008	 ldr         r3, [sp, #8]
  00100	e1a03603	 mov         r3, r3, lsl #12
  00104	e1a02e43	 mov         r2, r3, asr #28
  00108	e3a03001	 mov         r3, #1
  0010c	e1a03213	 mov         r3, r3, lsl r2
  00110	e58d3014	 str         r3, [sp, #0x14]

; 94   :         if (sc_rgFeatureToArchMask[idx].archMask & actualMask) {

  00114	e59d1010	 ldr         r1, [sp, #0x10]
  00118	e3a03008	 mov         r3, #8
  0011c	e0020391	 mul         r2, r1, r3
  00120	e59f3034	 ldr         r3, [pc, #0x34]
  00124	e0833002	 add         r3, r3, r2
  00128	e2833004	 add         r3, r3, #4
  0012c	e5932000	 ldr         r2, [r3]
  00130	e59d3014	 ldr         r3, [sp, #0x14]
  00134	e1120003	 tst         r2, r3
  00138	0a000001	 beq         |$LN1@OALIsProce|

; 95   :             rc = TRUE;

  0013c	e3a03001	 mov         r3, #1
  00140	e58d300c	 str         r3, [sp, #0xC]
  00144		 |$LN1@OALIsProce|
  00144		 |$LN2@OALIsProce|

; 96   :         }
; 97   :     }
; 98   :     
; 99   :     return rc;

  00144	e59d300c	 ldr         r3, [sp, #0xC]
  00148	e58d3020	 str         r3, [sp, #0x20]

; 100  : }

  0014c	e59d0020	 ldr         r0, [sp, #0x20]
  00150	e28dd02c	 add         sp, sp, #0x2C
  00154	e89d6000	 ldmia       sp, {sp, lr}
  00158	e12fff1e	 bx          lr
  0015c		 |$LN14@OALIsProce|
  0015c		 |$LN15@OALIsProce|
  0015c	00000000	 DCD         |sc_rgFeatureToArchMask|
  00160		 |$LN16@OALIsProce|
  00160	00000000	 DCD         |??_C@_1KC@KHIEGOFB@?$AAO?$AAA?$AAL?$AAI?$AAs?$AAP?$AAr?$AAo?$AAc?$AAe?$AAs?$AAs?$AAo?$AAr?$AAF?$AAe?$AAa?$AAt?$AAu?$AAr?$AAe?$AAP?$AAr?$AAe?$AAs?$AAe?$AAn?$AAt?$AA?3?$AA?5?$AAI?$AAD@|
  00164		 |$LN17@OALIsProce|
  00164	00000000	 DCD         |dpCurSettings|
  00168		 |$M37413|

			 ENDP  ; |OALIsProcessorFeaturePresent|

	END
