; Listing generated by Microsoft (R) Optimizing Compiler Version 14.01.60511.01 

	TTL	C:\WINCE600\PLATFORM\COMMON\SRC\COMMON\TIMER\FAKE\fake.c
	CODE32

  00000			 AREA	 |.drectve|, DRECTVE
	DCB	"-defaultlib:LIBCMT "
	DCB	"-defaultlib:OLDNAMES "


  00000			 AREA	 |.data|, DATA
	 COMMON	|g_oalLastSysIntr|, 0x4


  00000			 AREA	 |.rdata|, DATA, READONLY
|EdbgVendorIds| DCW 0x0
	DCW	0x0
	DCD	0x4033
	DCB	0x1
	DCB	"AD", 0x0
	DCW	0x1050
	DCW	0x940
	DCD	0x4005
	DCB	0x1
	DCB	"LS", 0x0
	DCW	0x1050
	DCW	0x940
	DCD	0x2078
	DCB	0x1
	DCB	"LS", 0x0
	DCW	0x10ec
	DCW	0x8029
	DCD	0xc0f0
	DCB	0x1
	DCB	"KS", 0x0
	DCW	0x10ec
	DCW	0x8129
	DCD	0x0
	DCB	0x4
	DCB	"RT", 0x0
	DCW	0x10ec
	DCW	0x8139
	DCD	0x900b
	DCB	0x4
	DCB	"RT", 0x0
	DCW	0x10ec
	DCW	0x8139
	DCD	0xd0c9
	DCB	0x4
	DCB	"RT", 0x0
	DCW	0x10ec
	DCW	0x8139
	DCD	0xe04c
	DCB	0x4
	DCB	"RT", 0x0
	DCW	0x1186
	DCW	0x1300
	DCD	0x50ba
	DCB	0x4
	DCB	"DL", 0x0
	DCW	0x100b
	DCW	0x20
	DCD	0xa0cc
	DCB	0x5
	DCB	"NG", 0x0
	DCW	0x10b7
	DCW	0x9050
	DCD	0x6008
	DCB	0x6
	DCB	"3C", 0x0
	DCW	0x10b7
	DCW	0x9200
	DCD	0x476
	DCB	0x6
	DCB	"3C", 0x0
	EXPORT	|OALCPUIdle|
	IMPORT	|INTERRUPTS_OFF|
	IMPORT	|INTERRUPTS_ON|

  00000			 AREA	 |.pdata|, PDATA
|$T43096| DCD	|$LN7@OALCPUIdle|
	DCD	0x40000e01
; Function compile flags: /Odtp
; File c:\wince600\platform\common\src\common\timer\fake\fake.c

  00000			 AREA	 |.text|, CODE, ARM

  00000		 |OALCPUIdle| PROC

; 43   : {

  00000		 |$LN7@OALCPUIdle|
  00000	e52de004	 str         lr, [sp, #-4]!
  00004		 |$M43093|

; 44   :     // Clear last SYSINTR global value
; 45   :     g_oalLastSysIntr = SYSINTR_NOP;

  00004	e59f2028	 ldr         r2, [pc, #0x28]
  00008	e3a03000	 mov         r3, #0
  0000c	e5823000	 str         r3, [r2]

; 46   : 
; 47   :     INTERRUPTS_ON();

  00010	eb000000	 bl          INTERRUPTS_ON
  00014		 |$LN2@OALCPUIdle|

; 48   :     // Wait until interrupt handler set interrupt flag
; 49   :     while (g_oalLastSysIntr == SYSINTR_NOP);

  00014	e59f3018	 ldr         r3, [pc, #0x18]
  00018	e5933000	 ldr         r3, [r3]
  0001c	e3530000	 cmp         r3, #0
  00020	1a000000	 bne         |$LN1@OALCPUIdle|
  00024	eafffffa	 b           |$LN2@OALCPUIdle|
  00028		 |$LN1@OALCPUIdle|

; 50   :     INTERRUPTS_OFF();

  00028	eb000000	 bl          INTERRUPTS_OFF

; 51   : }

  0002c	e49de004	 ldr         lr, [sp], #4
  00030	e12fff1e	 bx          lr
  00034		 |$LN8@OALCPUIdle|
  00034		 |$LN9@OALCPUIdle|
  00034	00000000	 DCD         |g_oalLastSysIntr|
  00038		 |$M43094|

			 ENDP  ; |OALCPUIdle|

	END
