; Listing generated by Microsoft (R) Optimizing Compiler Version 14.01.60511.01 

	TTL	C:\WINCE600\PLATFORM\COMMON\SRC\SOC\COMMON_TI_V1\COMMON_TI\PM\POLICYADAPTERS\SYSTEMSTATE\systemstate.cpp
	CODE32

  00000			 AREA	 |.drectve|, DRECTVE
	DCB	"-defaultlib:LIBCMT "
	DCB	"-defaultlib:OLDNAMES "

	EXPORT	|??_C@_1BI@OJGHJKJA@?$AAp?$AAr?$AAi?$AAo?$AAr?$AAi?$AAt?$AAy?$AA2?$AA5?$AA6?$AA?$AA@| [ DATA ] ; `string'
	EXPORT	|??_C@_1BA@EHNEILKF@?$AAU?$AAs?$AAe?$AAr?$AAO?$AAp?$AAm?$AA?$AA@| [ DATA ] ; `string'
	EXPORT	|dpCurSettings| [ DATA ]
	EXPORT	|?g_reg@@3PAUREGISTRY_PARAMETERS@@A| [ DATA ] ; g_reg

  00000			 AREA	 |.rdata|, DATA, READONLY
|??_C@_1BI@OJGHJKJA@?$AAp?$AAr?$AAi?$AAo?$AAr?$AAi?$AAt?$AAy?$AA2?$AA5?$AA6?$AA?$AA@| DCB "p"
	DCB	0x0, "r", 0x0, "i", 0x0, "o", 0x0, "r", 0x0, "i", 0x0, "t"
	DCB	0x0, "y", 0x0, "2", 0x0, "5", 0x0, "6", 0x0, 0x0, 0x0 ; `string'

  00000			 AREA	 |.rdata|, DATA, READONLY
|??_C@_1BA@EHNEILKF@?$AAU?$AAs?$AAe?$AAr?$AAO?$AAp?$AAm?$AA?$AA@| DCB "U", 0x0
	DCB	"s", 0x0, "e", 0x0, "r", 0x0, "O", 0x0, "p", 0x0, "m", 0x0
	DCB	0x0, 0x0				; `string'

  00000			 AREA	 |.data|, DATA
|dpCurSettings| DCB "P", 0x0, "r", 0x0, "o", 0x0, "x", 0x0, "y", 0x0, "D", 0x0
	DCB	"r", 0x0, "i", 0x0, "v", 0x0, "e", 0x0, "r", 0x0, 0x0, 0x0
	%	40
	DCB	"E", 0x0, "r", 0x0, "r", 0x0, "o", 0x0, "r", 0x0, "s", 0x0
	DCB	0x0, 0x0
	%	50
	DCB	"W", 0x0, "a", 0x0, "r", 0x0, "n", 0x0, "i", 0x0, "n", 0x0
	DCB	"g", 0x0, "s", 0x0, 0x0, 0x0
	%	46
	DCB	"F", 0x0, "u", 0x0, "n", 0x0, "c", 0x0, "t", 0x0, "i", 0x0
	DCB	"o", 0x0, "n", 0x0, 0x0, 0x0
	%	46
	DCB	"I", 0x0, "n", 0x0, "f", 0x0, "o", 0x0, 0x0, 0x0
	%	54
	DCB	"U", 0x0, "n", 0x0, "d", 0x0, "e", 0x0, "f", 0x0, "i", 0x0
	DCB	"n", 0x0, "e", 0x0, "d", 0x0, 0x0, 0x0
	%	44
	DCB	"U", 0x0, "n", 0x0, "d", 0x0, "e", 0x0, "f", 0x0, "i", 0x0
	DCB	"n", 0x0, "e", 0x0, "d", 0x0, 0x0, 0x0
	%	44
	DCB	"U", 0x0, "n", 0x0, "d", 0x0, "e", 0x0, "f", 0x0, "i", 0x0
	DCB	"n", 0x0, "e", 0x0, "d", 0x0, 0x0, 0x0
	%	44
	DCB	"U", 0x0, "n", 0x0, "d", 0x0, "e", 0x0, "f", 0x0, "i", 0x0
	DCB	"n", 0x0, "e", 0x0, "d", 0x0, 0x0, 0x0
	%	44
	DCB	"U", 0x0, "n", 0x0, "d", 0x0, "e", 0x0, "f", 0x0, "i", 0x0
	DCB	"n", 0x0, "e", 0x0, "d", 0x0, 0x0, 0x0
	%	44
	DCB	"U", 0x0, "n", 0x0, "d", 0x0, "e", 0x0, "f", 0x0, "i", 0x0
	DCB	"n", 0x0, "e", 0x0, "d", 0x0, 0x0, 0x0
	%	44
	DCB	"U", 0x0, "n", 0x0, "d", 0x0, "e", 0x0, "f", 0x0, "i", 0x0
	DCB	"n", 0x0, "e", 0x0, "d", 0x0, 0x0, 0x0
	%	44
	DCB	"U", 0x0, "n", 0x0, "d", 0x0, "e", 0x0, "f", 0x0, "i", 0x0
	DCB	"n", 0x0, "e", 0x0, "d", 0x0, 0x0, 0x0
	%	44
	DCB	"U", 0x0, "n", 0x0, "d", 0x0, "e", 0x0, "f", 0x0, "i", 0x0
	DCB	"n", 0x0, "e", 0x0, "d", 0x0, 0x0, 0x0
	%	44
	DCB	"U", 0x0, "n", 0x0, "d", 0x0, "e", 0x0, "f", 0x0, "i", 0x0
	DCB	"n", 0x0, "e", 0x0, "d", 0x0, 0x0, 0x0
	%	44
	DCB	"U", 0x0, "n", 0x0, "d", 0x0, "e", 0x0, "f", 0x0, "i", 0x0
	DCB	"n", 0x0, "e", 0x0, "d", 0x0, 0x0, 0x0
	%	44
	DCB	"U", 0x0, "n", 0x0, "d", 0x0, "e", 0x0, "f", 0x0, "i", 0x0
	DCB	"n", 0x0, "e", 0x0, "d", 0x0, 0x0, 0x0
	%	44
	DCD	0x0
|?g_reg@@3PAUREGISTRY_PARAMETERS@@A| DCD |??_C@_1BA@EHNEILKF@?$AAU?$AAs?$AAe?$AAr?$AAO?$AAp?$AAm?$AA?$AA@| ; g_reg
	DCD	0x4
	DCD	|??_C@_1BI@OJGHJKJA@?$AAp?$AAr?$AAi?$AAo?$AAr?$AAi?$AAt?$AAy?$AA2?$AA5?$AA6?$AA?$AA@|
	DCD	0x4
	EXPORT	|?GetRegVal@@YAHPAG@Z|			; GetRegVal
	IMPORT	|RegCloseKey|
	IMPORT	|RegQueryValueExW|
	IMPORT	|RegOpenKeyExW|

  00000			 AREA	 |.bss|, NOINIT
|s_SystenStatePolicyInfo| % 0x1c
|s_SystenStatePolicyInfo| % 0x1c
; File c:\wince600\platform\common\src\soc\common_ti_v1\common_ti\pm\policyadapters\systemstate\systemstate.cpp

  00000			 AREA	 |.pdata|, PDATA
|$T36661| DCD	|$LN13@GetRegVal|
	DCD	0x40003002
; Function compile flags: /Ogspy

  00000			 AREA	 |.text|, CODE, ARM

  00000		 |?GetRegVal@@YAHPAG@Z| PROC		; GetRegVal

; 121  : {

  00000		 |$LN13@GetRegVal|
  00000	e92d40f0	 stmdb       sp!, {r4 - r7, lr}
  00004	e24dd00c	 sub         sp, sp, #0xC
  00008		 |$M36658|
  00008	e1a01000	 mov         r1, r0

; 122  :     BOOL rc=FALSE;
; 123  :     HKEY hOpenedKey=NULL;

  0000c	e3a02000	 mov         r2, #0

; 124  : 
; 125  :     if(ERROR_SUCCESS != RegOpenKeyEx(HKEY_LOCAL_MACHINE,
; 126  :                                         szRegPath,
; 127  :                                         0,
; 128  :                                         0,
; 129  :                                         &hOpenedKey))

  00010	e28d3008	 add         r3, sp, #8
  00014	e58d2008	 str         r2, [sp, #8]
  00018	e58d3000	 str         r3, [sp]
  0001c	e3a03000	 mov         r3, #0
  00020	e3a02000	 mov         r2, #0
  00024	e3a0010a	 mov         r0, #0xA, 2
  00028	e3a05000	 mov         r5, #0
  0002c	eb000000	 bl          RegOpenKeyExW
  00030	e3500000	 cmp         r0, #0
  00034	1a00001b	 bne         |$cleanUp$36522|

; 130  :         {
; 131  :         goto cleanUp;
; 132  :         }
; 133  :     
; 134  :     if (ERROR_SUCCESS != RegQueryValueEx(hOpenedKey,
; 135  :                                         g_reg[UserOpm].lpRegname,
; 136  :                                         NULL,
; 137  :                                         NULL,
; 138  :                                         (UCHAR *)&s_SystenStatePolicyInfo.dwUserOpm,
; 139  :                                         &g_reg[UserOpm].dwSize))

  00038	e59f607c	 ldr         r6, [pc, #0x7C]
  0003c	e59f7074	 ldr         r7, [pc, #0x74]
  00040	e59d0008	 ldr         r0, [sp, #8]
  00044	e5961000	 ldr         r1, [r6]
  00048	e286e004	 add         lr, r6, #4
  0004c	e2874014	 add         r4, r7, #0x14
  00050	e3a03000	 mov         r3, #0
  00054	e3a02000	 mov         r2, #0
  00058	e58de004	 str         lr, [sp, #4]
  0005c	e58d4000	 str         r4, [sp]
  00060	eb000000	 bl          RegQueryValueExW
  00064	e3500000	 cmp         r0, #0
  00068	1a00000a	 bne         |$closeKey$36526|

; 140  :         {
; 141  :         goto closeKey;
; 142  :         }
; 143  : 
; 144  :     if (ERROR_SUCCESS != RegQueryValueEx(hOpenedKey,
; 145  :                                         g_reg[ThreadPriority].lpRegname,
; 146  :                                         NULL,
; 147  :                                         NULL,
; 148  :                                         (UCHAR *)&s_SystenStatePolicyInfo.dwThreadPriority,
; 149  :                                         &g_reg[ThreadPriority].dwSize))

  0006c	e5961008	 ldr         r1, [r6, #8]
  00070	e59d0008	 ldr         r0, [sp, #8]
  00074	e286e00c	 add         lr, r6, #0xC
  00078	e2874018	 add         r4, r7, #0x18
  0007c	e3a03000	 mov         r3, #0
  00080	e3a02000	 mov         r2, #0
  00084	e58de004	 str         lr, [sp, #4]
  00088	e58d4000	 str         r4, [sp]
  0008c	eb000000	 bl          RegQueryValueExW
  00090	e3500000	 cmp         r0, #0

; 150  :         {
; 151  :         goto closeKey;
; 152  :         }
; 153  : 
; 154  :     rc = TRUE;

  00094	03a05001	 moveq       r5, #1
  00098		 |$closeKey$36526|

; 155  : 
; 156  : closeKey:
; 157  : 
; 158  :     if(ERROR_SUCCESS != RegCloseKey(hOpenedKey))

  00098	e59d0008	 ldr         r0, [sp, #8]
  0009c	eb000000	 bl          RegCloseKey
  000a0	e3500000	 cmp         r0, #0

; 159  :         {
; 160  :         rc = FALSE;

  000a4	13a05000	 movne       r5, #0
  000a8		 |$cleanUp$36522|

; 161  :         goto cleanUp;
; 162  :         }
; 163  : 
; 164  : cleanUp:
; 165  : 
; 166  :     return rc;
; 167  : }

  000a8	e1a00005	 mov         r0, r5
  000ac	e28dd00c	 add         sp, sp, #0xC
  000b0	e8bd40f0	 ldmia       sp!, {r4 - r7, lr}
  000b4	e12fff1e	 bx          lr
  000b8		 |$LN14@GetRegVal|
  000b8		 |$LN15@GetRegVal|
  000b8	00000000	 DCD         |s_SystenStatePolicyInfo|
  000bc		 |$LN16@GetRegVal|
  000bc	00000000	 DCD         |?g_reg@@3PAUREGISTRY_PARAMETERS@@A|
  000c0		 |$M36659|

			 ENDP  ; |?GetRegVal@@YAHPAG@Z|, GetRegVal

	EXPORT	|?UpdateDVFSConstraint@@YAXK@Z|		; UpdateDVFSConstraint
	IMPORT	|PmxUpdateConstraint|

  00000			 AREA	 |.pdata|, PDATA
|$T36671| DCD	|$LN5@UpdateDVFS|
	DCD	0x40000c03
; Function compile flags: /Ogspy

  00000			 AREA	 |.text|, CODE, ARM

  00000		 |?UpdateDVFSConstraint@@YAXK@Z| PROC	; UpdateDVFSConstraint

; 179  : {

  00000		 |$LN5@UpdateDVFS|
  00000	e1a0c00d	 mov         r12, sp
  00004	e92d000f	 stmdb       sp!, {r0 - r3}
  00008	e92d5000	 stmdb       sp!, {r12, lr}
  0000c		 |$M36668|

; 180  :     PmxUpdateConstraint(
; 181  :         s_SystenStatePolicyInfo.hDvfsConstraint, 
; 182  :         CONSTRAINT_MSG_DVFS_REQUEST, 
; 183  :         (void*)&dwOpm, 
; 184  :         sizeof(DWORD)
; 185  :         );

  0000c	e59f1018	 ldr         r1, [pc, #0x18]
  00010	e3a03004	 mov         r3, #4
  00014	e28d2008	 add         r2, sp, #8
  00018	e5910000	 ldr         r0, [r1]
  0001c	e3a01001	 mov         r1, #1
  00020	eb000000	 bl          PmxUpdateConstraint

; 186  : }

  00024	e89d6000	 ldmia       sp, {sp, lr}
  00028	e12fff1e	 bx          lr
  0002c		 |$LN6@UpdateDVFS|
  0002c		 |$LN7@UpdateDVFS|
  0002c	00000000	 DCD         |s_SystenStatePolicyInfo|
  00030		 |$M36669|

			 ENDP  ; |?UpdateDVFSConstraint@@YAXK@Z|, UpdateDVFSConstraint

	EXPORT	|__$ArrayPad$| [ DATA ]
	EXPORT	|?SystenStateThreadFn@@YAKPAX@Z|	; SystenStateThreadFn
	EXPORT	|??_C@_1FC@NNKDFKBP@?$AAS?$AAy?$AAs?$AAt?$AAe?$AAm?$AA?5?$AAS?$AAt?$AAa?$AAt?$AAe?$AA?5?$AAP?$AAo?$AAl?$AAi?$AAc?$AAy?$AA?3?$AA?5?$AAI?$AAN?$AAF?$AAO?$AA?3?$AA?5?$AAU?$AAs?$AAe?$AAr?$AA?5@| [ DATA ] ; `string'
	EXPORT	|??_C@_1EO@EKOBNIPH@?$AAS?$AAy?$AAs?$AAt?$AAe?$AAm?$AA?5?$AAS?$AAt?$AAa?$AAt?$AAe?$AA?5?$AAP?$AAo?$AAl?$AAi?$AAc?$AAy?$AA?3?$AA?5?$AAI?$AAN?$AAF?$AAO?$AA?3?$AA?5?$AAU?$AAs?$AAe?$AAr?$AA?5@| [ DATA ] ; `string'
	EXPORT	|??_C@_1GI@KPEBHLGM@?$AAS?$AAy?$AAs?$AAt?$AAe?$AAm?$AA?5?$AAS?$AAt?$AAa?$AAt?$AAe?$AA?5?$AAP?$AAo?$AAl?$AAi?$AAc?$AAy?$AA?3?$AA?5?$AAE?$AAR?$AAR?$AAO?$AAR?$AA?3?$AA?5?$AAE?$AAx?$AAi?$AAt@| [ DATA ] ; `string'
	EXPORT	|??_C@_1HI@EJDHCDKL@?$AAS?$AAy?$AAs?$AAt?$AAe?$AAm?$AA?5?$AAS?$AAt?$AAa?$AAt?$AAe?$AA?5?$AAP?$AAo?$AAl?$AAi?$AAc?$AAy?$AA?3?$AA?5?$AAE?$AAR?$AAR?$AAO?$AAR?$AA?3?$AA?5?$AAP?$AAo?$AAw?$AAe@| [ DATA ] ; `string'
	EXPORT	|??_C@_1DC@OOKIINAM@?$AAS?$AAY?$AAS?$AAT?$AAE?$AAM?$AA?1?$AAP?$AAo?$AAw?$AAe?$AAr?$AAM?$AAa?$AAn?$AAa?$AAg?$AAe?$AAr?$AAR?$AAe?$AAa?$AAd?$AAy?$AA?$AA@| [ DATA ] ; `string'
	EXPORT	|??_C@_1GG@MFFKDMAH@?$AAS?$AAy?$AAs?$AAt?$AAe?$AAm?$AA?5?$AAS?$AAt?$AAa?$AAt?$AAe?$AA?5?$AAP?$AAo?$AAl?$AAi?$AAc?$AAy?$AA?3?$AA?5?$AAE?$AAR?$AAR?$AAO?$AAR?$AA?3?$AA?5?$AAM?$AAS?$AAG?$AAQ@| [ DATA ] ; `string'
	IMPORT	|ReadMsgQueue|
	IMPORT	|NKDbgPrintfW|
	IMPORT	|RequestPowerNotifications|
	IMPORT	|CloseHandle|
	IMPORT	|WaitForSingleObject|
	IMPORT	|CreateEventW|
	IMPORT	|CreateMsgQueue|
	IMPORT	|__GSHandlerCheck|
	IMPORT	|__security_cookie|
	IMPORT	|memset|
	IMPORT	|__security_check_cookie|

  00000			 AREA	 |.pdata|, PDATA
|$T36710| DCD	|$LN40@SystenStat|
	DCD	0xc0007f02

  00000			 AREA	 |.xdata|, DATA
|$T36706| DCD	0xffffffd8

  00000			 AREA	 |.rdata|, DATA, READONLY
|??_C@_1FC@NNKDFKBP@?$AAS?$AAy?$AAs?$AAt?$AAe?$AAm?$AA?5?$AAS?$AAt?$AAa?$AAt?$AAe?$AA?5?$AAP?$AAo?$AAl?$AAi?$AAc?$AAy?$AA?3?$AA?5?$AAI?$AAN?$AAF?$AAO?$AA?3?$AA?5?$AAU?$AAs?$AAe?$AAr?$AA?5@| DCB "S"
	DCB	0x0, "y", 0x0, "s", 0x0, "t", 0x0, "e", 0x0, "m", 0x0, " "
	DCB	0x0, "S", 0x0, "t", 0x0, "a", 0x0, "t", 0x0, "e", 0x0, " "
	DCB	0x0, "P", 0x0, "o", 0x0, "l", 0x0, "i", 0x0, "c", 0x0, "y"
	DCB	0x0, ":", 0x0, " ", 0x0, "I", 0x0, "N", 0x0, "F", 0x0, "O"
	DCB	0x0, ":", 0x0, " ", 0x0, "U", 0x0, "s", 0x0, "e", 0x0, "r"
	DCB	0x0, " ", 0x0, "I", 0x0, "n", 0x0, "a", 0x0, "c", 0x0, "t"
	DCB	0x0, "i", 0x0, "v", 0x0, "e", 0x0, 0x0, 0x0 ; `string'

  00000			 AREA	 |.rdata|, DATA, READONLY
|??_C@_1EO@EKOBNIPH@?$AAS?$AAy?$AAs?$AAt?$AAe?$AAm?$AA?5?$AAS?$AAt?$AAa?$AAt?$AAe?$AA?5?$AAP?$AAo?$AAl?$AAi?$AAc?$AAy?$AA?3?$AA?5?$AAI?$AAN?$AAF?$AAO?$AA?3?$AA?5?$AAU?$AAs?$AAe?$AAr?$AA?5@| DCB "S"
	DCB	0x0, "y", 0x0, "s", 0x0, "t", 0x0, "e", 0x0, "m", 0x0, " "
	DCB	0x0, "S", 0x0, "t", 0x0, "a", 0x0, "t", 0x0, "e", 0x0, " "
	DCB	0x0, "P", 0x0, "o", 0x0, "l", 0x0, "i", 0x0, "c", 0x0, "y"
	DCB	0x0, ":", 0x0, " ", 0x0, "I", 0x0, "N", 0x0, "F", 0x0, "O"
	DCB	0x0, ":", 0x0, " ", 0x0, "U", 0x0, "s", 0x0, "e", 0x0, "r"
	DCB	0x0, " ", 0x0, "A", 0x0, "c", 0x0, "t", 0x0, "i", 0x0, "v"
	DCB	0x0, "e", 0x0, 0x0, 0x0			; `string'

  00000			 AREA	 |.rdata|, DATA, READONLY
|??_C@_1GI@KPEBHLGM@?$AAS?$AAy?$AAs?$AAt?$AAe?$AAm?$AA?5?$AAS?$AAt?$AAa?$AAt?$AAe?$AA?5?$AAP?$AAo?$AAl?$AAi?$AAc?$AAy?$AA?3?$AA?5?$AAE?$AAR?$AAR?$AAO?$AAR?$AA?3?$AA?5?$AAE?$AAx?$AAi?$AAt@| DCB "S"
	DCB	0x0, "y", 0x0, "s", 0x0, "t", 0x0, "e", 0x0, "m", 0x0, " "
	DCB	0x0, "S", 0x0, "t", 0x0, "a", 0x0, "t", 0x0, "e", 0x0, " "
	DCB	0x0, "P", 0x0, "o", 0x0, "l", 0x0, "i", 0x0, "c", 0x0, "y"
	DCB	0x0, ":", 0x0, " ", 0x0, "E", 0x0, "R", 0x0, "R", 0x0, "O"
	DCB	0x0, "R", 0x0, ":", 0x0, " ", 0x0, "E", 0x0, "x", 0x0, "i"
	DCB	0x0, "t", 0x0, "i", 0x0, "n", 0x0, "g", 0x0, " ", 0x0, "m"
	DCB	0x0, "o", 0x0, "n", 0x0, "i", 0x0, "t", 0x0, "o", 0x0, "r"
	DCB	0x0, " ", 0x0, "t", 0x0, "h", 0x0, "r", 0x0, "e", 0x0, "a"
	DCB	0x0, "d", 0x0, "!", 0x0, 0x0, 0x0	; `string'

  00000			 AREA	 |.rdata|, DATA, READONLY
|??_C@_1HI@EJDHCDKL@?$AAS?$AAy?$AAs?$AAt?$AAe?$AAm?$AA?5?$AAS?$AAt?$AAa?$AAt?$AAe?$AA?5?$AAP?$AAo?$AAl?$AAi?$AAc?$AAy?$AA?3?$AA?5?$AAE?$AAR?$AAR?$AAO?$AAR?$AA?3?$AA?5?$AAP?$AAo?$AAw?$AAe@| DCB "S"
	DCB	0x0, "y", 0x0, "s", 0x0, "t", 0x0, "e", 0x0, "m", 0x0, " "
	DCB	0x0, "S", 0x0, "t", 0x0, "a", 0x0, "t", 0x0, "e", 0x0, " "
	DCB	0x0, "P", 0x0, "o", 0x0, "l", 0x0, "i", 0x0, "c", 0x0, "y"
	DCB	0x0, ":", 0x0, " ", 0x0, "E", 0x0, "R", 0x0, "R", 0x0, "O"
	DCB	0x0, "R", 0x0, ":", 0x0, " ", 0x0, "P", 0x0, "o", 0x0, "w"
	DCB	0x0, "e", 0x0, "r", 0x0, " ", 0x0, "N", 0x0, "o", 0x0, "t"
	DCB	0x0, "i", 0x0, "f", 0x0, "i", 0x0, "c", 0x0, "a", 0x0, "t"
	DCB	0x0, "i", 0x0, "o", 0x0, "n", 0x0, " ", 0x0, "r", 0x0, "e"
	DCB	0x0, "q", 0x0, "u", 0x0, "e", 0x0, "s", 0x0, "t", 0x0, " "
	DCB	0x0, "f", 0x0, "a", 0x0, "i", 0x0, "l", 0x0, 0x0, 0x0 ; `string'

  00000			 AREA	 |.rdata|, DATA, READONLY
|??_C@_1DC@OOKIINAM@?$AAS?$AAY?$AAS?$AAT?$AAE?$AAM?$AA?1?$AAP?$AAo?$AAw?$AAe?$AAr?$AAM?$AAa?$AAn?$AAa?$AAg?$AAe?$AAr?$AAR?$AAe?$AAa?$AAd?$AAy?$AA?$AA@| DCB "S"
	DCB	0x0, "Y", 0x0, "S", 0x0, "T", 0x0, "E", 0x0, "M", 0x0, "/"
	DCB	0x0, "P", 0x0, "o", 0x0, "w", 0x0, "e", 0x0, "r", 0x0, "M"
	DCB	0x0, "a", 0x0, "n", 0x0, "a", 0x0, "g", 0x0, "e", 0x0, "r"
	DCB	0x0, "R", 0x0, "e", 0x0, "a", 0x0, "d", 0x0, "y", 0x0, 0x0
	DCB	0x0					; `string'

  00000			 AREA	 |.rdata|, DATA, READONLY
|??_C@_1GG@MFFKDMAH@?$AAS?$AAy?$AAs?$AAt?$AAe?$AAm?$AA?5?$AAS?$AAt?$AAa?$AAt?$AAe?$AA?5?$AAP?$AAo?$AAl?$AAi?$AAc?$AAy?$AA?3?$AA?5?$AAE?$AAR?$AAR?$AAO?$AAR?$AA?3?$AA?5?$AAM?$AAS?$AAG?$AAQ@| DCB "S"
	DCB	0x0, "y", 0x0, "s", 0x0, "t", 0x0, "e", 0x0, "m", 0x0, " "
	DCB	0x0, "S", 0x0, "t", 0x0, "a", 0x0, "t", 0x0, "e", 0x0, " "
	DCB	0x0, "P", 0x0, "o", 0x0, "l", 0x0, "i", 0x0, "c", 0x0, "y"
	DCB	0x0, ":", 0x0, " ", 0x0, "E", 0x0, "R", 0x0, "R", 0x0, "O"
	DCB	0x0, "R", 0x0, ":", 0x0, " ", 0x0, "M", 0x0, "S", 0x0, "G"
	DCB	0x0, "Q", 0x0, "U", 0x0, "E", 0x0, "U", 0x0, "E", 0x0, " "
	DCB	0x0, "c", 0x0, "r", 0x0, "e", 0x0, "a", 0x0, "t", 0x0, "i"
	DCB	0x0, "o", 0x0, "n", 0x0, " ", 0x0, "f", 0x0, "a", 0x0, "i"
	DCB	0x0, "l", 0x0, 0x0, 0x0			; `string'
; Function compile flags: /Ogspy

  00000			 AREA	 |.text|, CODE, ARM

  00000	00000000	 DCD         |__GSHandlerCheck|
  00004	00000000	 DCD         |$T36706|

  00008		 |?SystenStateThreadFn@@YAKPAX@Z| PROC	; SystenStateThreadFn

; 196  : {

  00008		 |$LN40@SystenStat|
  00008	e92d4ff0	 stmdb       sp!, {r4 - r11, lr}
  0000c	e24dde2b	 sub         sp, sp, #0x2B, 28
  00010		 |$M36707|
  00010	e59f31e8	 ldr         r3, [pc, #0x1E8]
  00014	e5933000	 ldr         r3, [r3]
  00018	e58d32ac	 str         r3, [sp, #0x2AC]

; 197  :     union
; 198  :     {
; 199  :         UCHAR buf[QUEUE_SIZE];
; 200  :         POWER_BROADCAST powerBroadcast;
; 201  :     } u;
; 202  : 
; 203  :     UNREFERENCED_PARAMETER(pvParam);
; 204  : 
; 205  :     MSGQUEUEOPTIONS msgOptions = {0}; 

  0001c	e3a03000	 mov         r3, #0

; 206  :     POWER_BROADCAST powerInfo;
; 207  :     DWORD dwOpm;    
; 208  :     DWORD dwPowerFlags = 0;
; 209  :     DWORD dwBytesRead = 0;
; 210  :     
; 211  :     msgOptions.dwSize = sizeof(MSGQUEUEOPTIONS);
; 212  :     msgOptions.dwFlags = 0;
; 213  :     msgOptions.dwMaxMessages = QUEUE_ENTRIES;

  00020	e3a01003	 mov         r1, #3

; 214  :     msgOptions.cbMaxMessage = sizeof(POWER_BROADCAST) + MAX_NAMELEN;

  00024	e3a000d8	 mov         r0, #0xD8
  00028	e58d3014	 str         r3, [sp, #0x14]
  0002c	e58d3018	 str         r3, [sp, #0x18]
  00030	e58d301c	 str         r3, [sp, #0x1C]
  00034	e58d3020	 str         r3, [sp, #0x20]
  00038	e3a03014	 mov         r3, #0x14

; 215  :     msgOptions.bReadAccess = TRUE;

  0003c	e58d1018	 str         r1, [sp, #0x18]
  00040	e58d001c	 str         r0, [sp, #0x1C]
  00044	e3a04000	 mov         r4, #0
  00048	e3a05000	 mov         r5, #0
  0004c	e3a02000	 mov         r2, #0
  00050	e3a0e001	 mov         lr, #1

; 216  : 
; 217  :     // Create Message Queue to revice system power state changes
; 218  :     s_SystenStatePolicyInfo.hPowerNotificationQueue = CreateMsgQueue(NULL, &msgOptions);

  00054	e28d1010	 add         r1, sp, #0x10
  00058	e3a00000	 mov         r0, #0
  0005c	e58d3010	 str         r3, [sp, #0x10]
  00060	e58d2014	 str         r2, [sp, #0x14]
  00064	e58de020	 str         lr, [sp, #0x20]
  00068	e58d4008	 str         r4, [sp, #8]
  0006c	e58d500c	 str         r5, [sp, #0xC]
  00070	eb000000	 bl          CreateMsgQueue
  00074	e59f5180	 ldr         r5, [pc, #0x180]
  00078	e3500000	 cmp         r0, #0
  0007c	e5850008	 str         r0, [r5, #8]

; 219  :     if (!s_SystenStatePolicyInfo.hPowerNotificationQueue) 
; 220  :         {
; 221  :         RETAILMSG(ZONE_ERROR,(L"System State Policy: ERROR: MSGQUEUE creation fail"));

  00080	059f0170	 ldreq       r0, [pc, #0x170]
  00084	0a000012	 beq         |$LN35@SystenStat|

; 222  :         goto cleanUp;
; 223  :         }
; 224  : 
; 225  :     HANDLE hPMReady = CreateEvent(NULL, TRUE, FALSE, _T("SYSTEM/PowerManagerReady"));

  00088	e59f3164	 ldr         r3, [pc, #0x164]
  0008c	e3a02000	 mov         r2, #0
  00090	e3a01001	 mov         r1, #1
  00094	e3a00000	 mov         r0, #0
  00098	eb000000	 bl          CreateEventW
  0009c	e1b04000	 movs        r4, r0

; 226  :     if (hPMReady)

  000a0	0a000004	 beq         |$LN13@SystenStat|

; 227  :     {
; 228  :         WaitForSingleObject(hPMReady,2000);

  000a4	e3a01e7d	 mov         r1, #0x7D, 28
  000a8	e1a00004	 mov         r0, r4
  000ac	eb000000	 bl          WaitForSingleObject

; 229  :         CloseHandle(hPMReady);

  000b0	e1a00004	 mov         r0, r4
  000b4	eb000000	 bl          CloseHandle
  000b8		 |$LN13@SystenStat|

; 230  :     }
; 231  :     
; 232  : 
; 233  :     // Register the Message Queue to the PM
; 234  :     s_SystenStatePolicyInfo.hPowerNotificationsHandle = 
; 235  :         RequestPowerNotifications(
; 236  :             s_SystenStatePolicyInfo.hPowerNotificationQueue,
; 237  :             PBT_TRANSITION
; 238  :             );

  000b8	e5950008	 ldr         r0, [r5, #8]
  000bc	e3a01001	 mov         r1, #1
  000c0	eb000000	 bl          RequestPowerNotifications
  000c4	e3500000	 cmp         r0, #0
  000c8	e585000c	 str         r0, [r5, #0xC]

; 239  :     if (!s_SystenStatePolicyInfo.hPowerNotificationsHandle) 

  000cc	1a000009	 bne         |$LN33@SystenStat|

; 240  :         {
; 241  :         RETAILMSG(ZONE_ERROR,(L"System State Policy:"
; 242  :             L" ERROR: Power Notification request fail"));

  000d0	e59f0118	 ldr         r0, [pc, #0x118]
  000d4		 |$LN35@SystenStat|
  000d4	eb000000	 bl          NKDbgPrintfW

; 291  : cleanUp:
; 292  :     RETAILMSG(ZONE_ERROR,(L"System State Policy: ERROR: Exiting monitor thread!"));

  000d8	e59f010c	 ldr         r0, [pc, #0x10C]
  000dc		 |$cleanUp$36561|
  000dc	eb000000	 bl          NKDbgPrintfW

; 293  :     return 0;

  000e0	e59d02ac	 ldr         r0, [sp, #0x2AC]
  000e4	eb000000	 bl          __security_check_cookie
  000e8	e3a00000	 mov         r0, #0

; 294  : }

  000ec	e28dde2b	 add         sp, sp, #0x2B, 28
  000f0	e8bd4ff0	 ldmia       sp!, {r4 - r11, lr}
  000f4	e12fff1e	 bx          lr
  000f8		 |$LN33@SystenStat|

; 293  :     return 0;

  000f8	e3a03412	 mov         r3, #0x12, 8
  000fc	e59f40e4	 ldr         r4, [pc, #0xE4]
  00100	e3836801	 orr         r6, r3, #1, 16
  00104	e3e0a000	 mvn         r10, #0
  00108	e3e09cff	 mvn         r9, #0xFF, 24
  0010c	e3a0b000	 mov         r11, #0
  00110	e28d7008	 add         r7, sp, #8
  00114		 |$LN37@SystenStat|
  00114	e28d8008	 add         r8, sp, #8
  00118		 |$LL10@SystenStat|
  00118	e5950008	 ldr         r0, [r5, #8]
  0011c	e1a0100a	 mov         r1, r10
  00120	eb000000	 bl          WaitForSingleObject
  00124	e5950008	 ldr         r0, [r5, #8]
  00128	e28d300c	 add         r3, sp, #0xC
  0012c	e3a02fa2	 mov         r2, #0xA2, 30
  00130	e28d1024	 add         r1, sp, #0x24
  00134	e58d8004	 str         r8, [sp, #4]
  00138	e58da000	 str         r10, [sp]
  0013c	eb000000	 bl          ReadMsgQueue
  00140	e3500000	 cmp         r0, #0
  00144	0afffff3	 beq         |$LL10@SystenStat|
  00148	e3a08000	 mov         r8, #0
  0014c		 |$LL8@SystenStat|

; 243  :         goto cleanUp;
; 244  :         }
; 245  :     
; 246  :     for(;;)
; 247  :         {
; 248  :         WaitForSingleObject(s_SystenStatePolicyInfo.hPowerNotificationQueue, INFINITE);
; 249  : 
; 250  :         while (ReadMsgQueue(s_SystenStatePolicyInfo.hPowerNotificationQueue, 
; 251  :             u.buf, QUEUE_SIZE, &dwBytesRead, INFINITE, &dwPowerFlags))
; 252  :             {
; 253  :             
; 254  :             if(dwBytesRead >= sizeof(POWER_BROADCAST)) 

  0014c	e59d300c	 ldr         r3, [sp, #0xC]
  00150	e3530010	 cmp         r3, #0x10
  00154	3a000017	 bcc         |$LN6@SystenStat|

; 255  :                 {
; 256  :                 powerInfo =  u.powerBroadcast;
; 257  :                 dwPowerFlags = powerInfo.Flags;
; 258  :                 
; 259  :                 switch (powerInfo.Message) 

  00158	e59d3024	 ldr         r3, [sp, #0x24]
  0015c	e59d2028	 ldr         r2, [sp, #0x28]
  00160	e3530001	 cmp         r3, #1
  00164	e58d2008	 str         r2, [sp, #8]
  00168	1a00000c	 bne         |$LN1@SystenStat|

; 260  :                     {
; 261  :                     case PBT_TRANSITION:
; 262  :                     
; 263  :                         if((dwPowerFlags  & 
; 264  :                             (POWER_STATE_BACKLIGHTON | 
; 265  :                             POWER_STATE_PASSWORD | 
; 266  :                             POWER_STATE_ON)) != 0
; 267  :                             )
; 268  :                             {
; 269  :                             RETAILMSG(ZONE_INFO,(L"System State Policy: INFO: User Active"));

  0016c	e5943440	 ldr         r3, [r4, #0x440]
  00170	e1120006	 tst         r2, r6
  00174	0a000004	 beq         |$LN2@SystenStat|
  00178	e3130008	 tst         r3, #8
  0017c	159f0060	 ldrne       r0, [pc, #0x60]
  00180	1b000000	 blne        NKDbgPrintfW

; 270  :                             dwOpm = s_SystenStatePolicyInfo.dwUserOpm;
; 271  :                             UpdateDVFSConstraint(dwOpm);

  00184	e5950014	 ldr         r0, [r5, #0x14]

; 272  :                             }
; 273  :                         else 

  00188	ea000003	 b           |$LN36@SystenStat|
  0018c		 |$LN2@SystenStat|

; 274  :                             {
; 275  :                             RETAILMSG(ZONE_INFO,(L"System State Policy: INFO: User Inactive"));

  0018c	e3130008	 tst         r3, #8
  00190	159f0048	 ldrne       r0, [pc, #0x48]
  00194	1b000000	 blne        NKDbgPrintfW

; 276  :                             dwOpm = CONSTRAINT_STATE_NULL;
; 277  :                             UpdateDVFSConstraint(dwOpm);

  00198	e22900ff	 eor         r0, r9, #0xFF
  0019c		 |$LN36@SystenStat|
  0019c	eb000000	 bl          |?UpdateDVFSConstraint@@YAXK@Z|
  001a0		 |$LN1@SystenStat|

; 278  :                             }
; 279  :                         
; 280  :                     break;
; 281  :                     }
; 282  :                 
; 283  :                 dwPowerFlags = 0;
; 284  :                 dwBytesRead = 0;
; 285  :                 memset(u.buf, 0, QUEUE_SIZE);

  001a0	e3a02fa2	 mov         r2, #0xA2, 30
  001a4	e3a01000	 mov         r1, #0
  001a8	e28d0024	 add         r0, sp, #0x24
  001ac	e58db008	 str         r11, [sp, #8]
  001b0	e58d800c	 str         r8, [sp, #0xC]
  001b4	eb000000	 bl          memset
  001b8		 |$LN6@SystenStat|
  001b8	e5950008	 ldr         r0, [r5, #8]
  001bc	e28d300c	 add         r3, sp, #0xC
  001c0	e3a02fa2	 mov         r2, #0xA2, 30
  001c4	e28d1024	 add         r1, sp, #0x24
  001c8	e58d7004	 str         r7, [sp, #4]
  001cc	e58da000	 str         r10, [sp]
  001d0	eb000000	 bl          ReadMsgQueue
  001d4	e3500000	 cmp         r0, #0
  001d8	1affffdb	 bne         |$LL8@SystenStat|

; 286  :                 }
; 287  :             
; 288  :             }
; 289  : 
; 290  :         }

  001dc	eaffffcc	 b           |$LN37@SystenStat|
  001e0		 |$LN41@SystenStat|
  001e0		 |$LN42@SystenStat|
  001e0	00000000	 DCD         |??_C@_1FC@NNKDFKBP@?$AAS?$AAy?$AAs?$AAt?$AAe?$AAm?$AA?5?$AAS?$AAt?$AAa?$AAt?$AAe?$AA?5?$AAP?$AAo?$AAl?$AAi?$AAc?$AAy?$AA?3?$AA?5?$AAI?$AAN?$AAF?$AAO?$AA?3?$AA?5?$AAU?$AAs?$AAe?$AAr?$AA?5@|
  001e4		 |$LN43@SystenStat|
  001e4	00000000	 DCD         |??_C@_1EO@EKOBNIPH@?$AAS?$AAy?$AAs?$AAt?$AAe?$AAm?$AA?5?$AAS?$AAt?$AAa?$AAt?$AAe?$AA?5?$AAP?$AAo?$AAl?$AAi?$AAc?$AAy?$AA?3?$AA?5?$AAI?$AAN?$AAF?$AAO?$AA?3?$AA?5?$AAU?$AAs?$AAe?$AAr?$AA?5@|
  001e8		 |$LN44@SystenStat|
  001e8	00000000	 DCD         |dpCurSettings|
  001ec		 |$LN45@SystenStat|
  001ec	00000000	 DCD         |??_C@_1GI@KPEBHLGM@?$AAS?$AAy?$AAs?$AAt?$AAe?$AAm?$AA?5?$AAS?$AAt?$AAa?$AAt?$AAe?$AA?5?$AAP?$AAo?$AAl?$AAi?$AAc?$AAy?$AA?3?$AA?5?$AAE?$AAR?$AAR?$AAO?$AAR?$AA?3?$AA?5?$AAE?$AAx?$AAi?$AAt@|
  001f0		 |$LN46@SystenStat|
  001f0	00000000	 DCD         |??_C@_1HI@EJDHCDKL@?$AAS?$AAy?$AAs?$AAt?$AAe?$AAm?$AA?5?$AAS?$AAt?$AAa?$AAt?$AAe?$AA?5?$AAP?$AAo?$AAl?$AAi?$AAc?$AAy?$AA?3?$AA?5?$AAE?$AAR?$AAR?$AAO?$AAR?$AA?3?$AA?5?$AAP?$AAo?$AAw?$AAe@|
  001f4		 |$LN47@SystenStat|
  001f4	00000000	 DCD         |??_C@_1DC@OOKIINAM@?$AAS?$AAY?$AAS?$AAT?$AAE?$AAM?$AA?1?$AAP?$AAo?$AAw?$AAe?$AAr?$AAM?$AAa?$AAn?$AAa?$AAg?$AAe?$AAr?$AAR?$AAe?$AAa?$AAd?$AAy?$AA?$AA@|
  001f8		 |$LN48@SystenStat|
  001f8	00000000	 DCD         |??_C@_1GG@MFFKDMAH@?$AAS?$AAy?$AAs?$AAt?$AAe?$AAm?$AA?5?$AAS?$AAt?$AAa?$AAt?$AAe?$AA?5?$AAP?$AAo?$AAl?$AAi?$AAc?$AAy?$AA?3?$AA?5?$AAE?$AAR?$AAR?$AAO?$AAR?$AA?3?$AA?5?$AAM?$AAS?$AAG?$AAQ@|
  001fc		 |$LN49@SystenStat|
  001fc	00000000	 DCD         |s_SystenStatePolicyInfo|
  00200		 |$LN50@SystenStat|
  00200	00000000	 DCD         |__security_cookie|
  00204		 |$M36708|

			 ENDP  ; |?SystenStateThreadFn@@YAKPAX@Z|, SystenStateThreadFn

	EXPORT	|?SYSTEMSTATE_InitPolicy@@YAPAXPBG@Z|	; SYSTEMSTATE_InitPolicy
	EXPORT	|??_C@_19BINEIDCP@?$AAD?$AAV?$AAF?$AAS?$AA?$AA@| [ DATA ] ; `string'
	IMPORT	|SetThreadPriority|
	IMPORT	|CreateThread|
	IMPORT	|PmxSetConstraintById|

  00000			 AREA	 |.pdata|, PDATA
|$T36731| DCD	|$LN6@SYSTEMSTAT|
	DCD	0x40002902

  00000			 AREA	 |.rdata|, DATA, READONLY
|??_C@_19BINEIDCP@?$AAD?$AAV?$AAF?$AAS?$AA?$AA@| DCB "D", 0x0, "V", 0x0, "F"
	DCB	0x0, "S", 0x0, 0x0, 0x0			; `string'
; Function compile flags: /Ogspy

  00000			 AREA	 |.text|, CODE, ARM

  00000		 |?SYSTEMSTATE_InitPolicy@@YAPAXPBG@Z| PROC ; SYSTEMSTATE_InitPolicy

; 307  : {

  00000		 |$LN6@SYSTEMSTAT|
  00000	e92d4030	 stmdb       sp!, {r4, r5, lr}
  00004	e24dd00c	 sub         sp, sp, #0xC
  00008		 |$M36728|
  00008	e1a04000	 mov         r4, r0

; 308  :     DWORD dwLevel;
; 309  : 
; 310  :     // initializt global structure
; 311  :     memset(&s_SystenStatePolicyInfo, 0, sizeof(SystenStatePolicyInfo_t));       

  0000c	e59f508c	 ldr         r5, [pc, #0x8C]
  00010	e3a0201c	 mov         r2, #0x1C
  00014	e3a01000	 mov         r1, #0
  00018	e1a00005	 mov         r0, r5
  0001c	eb000000	 bl          memset

; 312  : 
; 313  :     // Read registries
; 314  :     if (GetRegVal((WCHAR*)szContext) == FALSE) return NULL;

  00020	e1a00004	 mov         r0, r4
  00024	eb000000	 bl          |?GetRegVal@@YAHPAG@Z|
  00028	e3500000	 cmp         r0, #0
  0002c	03a05000	 moveq       r5, #0
  00030	0a000014	 beq         |$LN2@SYSTEMSTAT|
  00034	e3e03cff	 mvn         r3, #0xFF, 24

; 315  :     
; 316  :     // Set boot opm value
; 317  :     dwLevel = CONSTRAINT_STATE_NULL;
; 318  : 
; 319  :     // Obtain DVFS constraint handler 
; 320  :     s_SystenStatePolicyInfo.hDvfsConstraint = PmxSetConstraintById(
; 321  :                                     CONSTRAINT_ID_DVFS, 
; 322  :                                     CONSTRAINT_MSG_DVFS_REQUEST, 
; 323  :                                     (void*)&dwLevel, 
; 324  :                                     sizeof(DWORD)
; 325  :                                     );

  00038	e59f005c	 ldr         r0, [pc, #0x5C]
  0003c	e22330ff	 eor         r3, r3, #0xFF
  00040	e58d3008	 str         r3, [sp, #8]
  00044	e3a03004	 mov         r3, #4
  00048	e28d2008	 add         r2, sp, #8
  0004c	e3a01001	 mov         r1, #1
  00050	eb000000	 bl          PmxSetConstraintById

; 326  : 
; 327  :     // Start running the thread that will check for the cpu load
; 328  :     s_SystenStatePolicyInfo.hSystemSateThread = CreateThread(NULL, 
; 329  :                                             0,
; 330  :                                             SystenStateThreadFn,
; 331  :                                             NULL,
; 332  :                                             0,
; 333  :                                             NULL
; 334  :                                             );

  00054	e59f203c	 ldr         r2, [pc, #0x3C]
  00058	e1a03000	 mov         r3, r0
  0005c	e5853000	 str         r3, [r5]
  00060	e3a0e000	 mov         lr, #0
  00064	e3a03000	 mov         r3, #0
  00068	e3a00000	 mov         r0, #0
  0006c	e3a01000	 mov         r1, #0
  00070	e58de004	 str         lr, [sp, #4]
  00074	e58de000	 str         lr, [sp]
  00078	eb000000	 bl          CreateThread
  0007c	e5850004	 str         r0, [r5, #4]

; 335  :     
; 336  :     SetThreadPriority(s_SystenStatePolicyInfo.hSystemSateThread,
; 337  :                            s_SystenStatePolicyInfo.dwThreadPriority
; 338  :                            );

  00080	e5951018	 ldr         r1, [r5, #0x18]
  00084	eb000000	 bl          SetThreadPriority

; 339  : 
; 340  :     return (HANDLE)&s_SystenStatePolicyInfo;

  00088		 |$LN2@SYSTEMSTAT|

; 341  : } 

  00088	e1a00005	 mov         r0, r5
  0008c	e28dd00c	 add         sp, sp, #0xC
  00090	e8bd4030	 ldmia       sp!, {r4, r5, lr}
  00094	e12fff1e	 bx          lr
  00098		 |$LN7@SYSTEMSTAT|
  00098		 |$LN8@SYSTEMSTAT|
  00098	00000000	 DCD         |?SystenStateThreadFn@@YAKPAX@Z|
  0009c		 |$LN9@SYSTEMSTAT|
  0009c	00000000	 DCD         |??_C@_19BINEIDCP@?$AAD?$AAV?$AAF?$AAS?$AA?$AA@|
  000a0		 |$LN10@SYSTEMSTAT|
  000a0	00000000	 DCD         |s_SystenStatePolicyInfo|
  000a4		 |$M36729|

			 ENDP  ; |?SYSTEMSTATE_InitPolicy@@YAPAXPBG@Z|, SYSTEMSTATE_InitPolicy

	EXPORT	|?SYSTEMSTATE_DeinitPolicy@@YAHPAX@Z|	; SYSTEMSTATE_DeinitPolicy
	IMPORT	|CloseMsgQueue|
	IMPORT	|StopPowerNotifications|
	IMPORT	|TerminateThread|
	IMPORT	|PmxReleaseConstraint|

  00000			 AREA	 |.pdata|, PDATA
|$T36746| DCD	|$LN11@SYSTEMSTAT@2|
	DCD	0x40001b01
; Function compile flags: /Ogspy

  00000			 AREA	 |.text|, CODE, ARM

  00000		 |?SYSTEMSTATE_DeinitPolicy@@YAHPAX@Z| PROC ; SYSTEMSTATE_DeinitPolicy

; 353  : {

  00000		 |$LN11@SYSTEMSTAT@2|
  00000	e92d4010	 stmdb       sp!, {r4, lr}
  00004		 |$M36743|

; 354  :     BOOL rc = FALSE;
; 355  : 
; 356  :     // validate parameters
; 357  :     if (hPolicyAdapter != (HANDLE)&s_SystenStatePolicyInfo) goto cleanUp;

  00004	e59f405c	 ldr         r4, [pc, #0x5C]
  00008	e3a03000	 mov         r3, #0
  0000c	e1500004	 cmp         r0, r4
  00010	1a000011	 bne         |$cleanUp$36609|

; 358  : 
; 359  :     // release all resoureces	
; 360  :     if (s_SystenStatePolicyInfo.hDvfsConstraint != NULL)

  00014	e5940000	 ldr         r0, [r4]
  00018	e3500000	 cmp         r0, #0

; 361  :         {
; 362  :         PmxReleaseConstraint(s_SystenStatePolicyInfo.hDvfsConstraint);

  0001c	1b000000	 blne        PmxReleaseConstraint

; 363  :         }
; 364  :     
; 365  :     if (s_SystenStatePolicyInfo.hSystemSateThread != NULL)

  00020	e5940004	 ldr         r0, [r4, #4]
  00024	e3500000	 cmp         r0, #0

; 366  :         {
; 367  :         TerminateThread(s_SystenStatePolicyInfo.hSystemSateThread,0);

  00028	13a01000	 movne       r1, #0
  0002c	1b000000	 blne        TerminateThread

; 368  :         }
; 369  : 
; 370  :     if (s_SystenStatePolicyInfo.hPowerNotificationsHandle)

  00030	e594000c	 ldr         r0, [r4, #0xC]
  00034	e3500000	 cmp         r0, #0

; 371  :         {
; 372  :         StopPowerNotifications(s_SystenStatePolicyInfo.hPowerNotificationsHandle);        

  00038	1b000000	 blne        StopPowerNotifications

; 373  :         }
; 374  : 
; 375  :     if (s_SystenStatePolicyInfo.hPowerNotificationQueue) 

  0003c	e5940008	 ldr         r0, [r4, #8]
  00040	e3500000	 cmp         r0, #0

; 376  :         {
; 377  :         CloseMsgQueue(s_SystenStatePolicyInfo.hPowerNotificationQueue);

  00044	1b000000	 blne        CloseMsgQueue

; 378  :         }
; 379  : 
; 380  :     // clear structures
; 381  :     memset(&s_SystenStatePolicyInfo, 0, sizeof(SystenStatePolicyInfo_t));

  00048	e3a0201c	 mov         r2, #0x1C
  0004c	e3a01000	 mov         r1, #0
  00050	e1a00004	 mov         r0, r4
  00054	eb000000	 bl          memset

; 382  :     
; 383  :     rc = TRUE;

  00058	e3a03001	 mov         r3, #1
  0005c		 |$cleanUp$36609|

; 384  : 
; 385  : cleanUp:
; 386  :     return rc;
; 387  : } 

  0005c	e1a00003	 mov         r0, r3
  00060	e8bd4010	 ldmia       sp!, {r4, lr}
  00064	e12fff1e	 bx          lr
  00068		 |$LN12@SYSTEMSTAT@2|
  00068		 |$LN13@SYSTEMSTAT@2|
  00068	00000000	 DCD         |s_SystenStatePolicyInfo|
  0006c		 |$M36744|

			 ENDP  ; |?SYSTEMSTATE_DeinitPolicy@@YAHPAX@Z|, SYSTEMSTATE_DeinitPolicy

	END
